
Allocating common symbols
Common symbol       size              file

clflush_size        0x4               output.o
sReaderContext      0x60              output.o
sigx_app            0x8               output.o
num_dom             0x4               output.o
mszReaders          0x400             output.o
zero_page_pool      0x400             output.o
prohibit_iccard_init
                    0x4               output.o
curthread           0x8               output.o
sig_app             0x8               output.o
readerState         0x64              output.o
dom_io              0x800             output.o
acpi_dsdt_system_state
                    0x1e              output.o
ehci_host           0x8               output.o
num_of_processors   0x4               output.o
e801_fake_bx        0x2               output.o
iommu_detected      0x1               output.o
dwReaders           0x8               output.o
readerTracker       0x140             output.o
handler_descriptor_lock
                    0x1               output.o
e801_fake_ax        0x2               output.o

Discarded input sections

 .gomi          0x0000000000000000        0xe output.o

Memory Configuration

Name             Origin             Length             Attributes
*default*        0x0000000000000000 0xffffffffffffffff

Linker script and memory map

                0x0000000040100000                virt = 0x40100000
                0x0000000000100000                phys = 0x100000
                0x0000000040100000                . = virt
                0x0000000040100000                head = .
                0x00000000401000b0                . = (virt + SIZEOF_HEADERS)

.text           0x0000000040101000   0x114bf7 load address 0x0000000000101000
                0x0000000040101000                code = .
 *(.entry)
 .entry         0x0000000040101000     0x6000 output.o
                0x000000004010100c                entry
                0x000000004010109a                cpuinit_start
                0x00000000401012c8                vmm_base_cr3
                0x00000000401012e0                apinit_procs
                0x00000000401012e8                apinit_lock
                0x00000000401012f0                cpuinit_end
                0x0000000040103000                entry_pdp
                0x0000000040104000                entry_pd0
                0x0000000040105000                entry_pd
 *(.text)
 .text          0x0000000040107000   0x10ebf7 output.o
                0x000000004010766c                acpi_smi_hook
                0x00000000401076ba                acpi_iohook
                0x000000004010770c                acpi_reset
                0x0000000040107808                acpi_poweroff
                0x0000000040107841                get_acpi_time_raw
                0x000000004010c811                acpi_dsdt_parse
                0x000000004010ccea                apinitproc0
                0x000000004010cd13                apic_available
                0x000000004010cd3f                ap_start_addr
                0x000000004010cf82                panic_wakeup_all
                0x000000004010d006                disable_apic
                0x000000004010d07d                sync_all_processors
                0x000000004010d10d                start_all_processors
                0x000000004010d14c                assertion_failed
                0x000000004010d185                beep_set_freq
                0x000000004010d1b6                beep_on
                0x000000004010d1c6                beep_off
                0x000000004010d80d                update_mtrr_and_pat
                0x000000004010da52                cache_get_gpat
                0x000000004010daa8                cache_set_gpat
                0x000000004010daf2                cache_get_attr
                0x000000004010db98                cache_get_gmtrr_type
                0x000000004010dba3                cache_get_gmtrr_attr
                0x000000004010dbb6                cache_get_gmtrrcap
                0x000000004010dbe4                cache_get_gmtrr
                0x000000004010dd3d                cache_set_gmtrr
                0x000000004010dd97                cache_get_gmsr_amd
                0x000000004010dde7                cache_set_gmsr_amd
                0x000000004010e22b                callrealmode_endofcodeaddr
                0x000000004010e23c                callrealmode_usevcpu
                0x000000004010e249                callrealmode_printmsg
                0x000000004010e266                callrealmode_getsysmemmap
                0x000000004010e2bd                callrealmode_getshiftflags
                0x000000004010e2db                callrealmode_setvideomode
                0x000000004010e2f9                callrealmode_reboot
                0x000000004010e313                callrealmode_tcgbios
                0x000000004010e3a7                callrealmode_disk_readmbr
                0x000000004010e3e7                callrealmode_disk_readlba
                0x000000004010e42f                callrealmode_bootcd_getstatus
                0x000000004010e484                callrealmode_setcursorpos
                0x000000004010e4a9                callrealmode_startkernel32
                0x000000004010e4c9                callrealmode_getfontinfo
                0x000000004010e539                get_cpu_id
                0x000000004010e54d                cpu_emul_cpuid
                0x000000004010e601                cpu_emul_rdmsr
                0x000000004010e67a                cpu_emul_wrmsr
                0x000000004010e6f0                cpu_emul_hlt
                0x000000004010e708                cpu_emul_cli
                0x000000004010e741                cpu_emul_sti
                0x000000004010e788                cpu_emul_realmode_int
                0x000000004010e8ea                cpu_emul_xsetbv
                0x00000000401110f8                cpu_interpreter
                0x0000000040113420                cpu_mmu_get_pte
                0x0000000040113bb5                write_linearaddr_ok_b
                0x0000000040113bd7                write_linearaddr_ok_w
                0x0000000040113be2                write_linearaddr_ok_l
                0x0000000040113bed                write_linearaddr_b
                0x0000000040113c5b                write_linearaddr_w
                0x0000000040113cf3                write_linearaddr_l
                0x0000000040113d89                write_linearaddr_q
                0x0000000040113e1d                read_linearaddr_b
                0x0000000040113e8a                read_linearaddr_w
                0x0000000040113f1b                read_linearaddr_l
                0x0000000040113fac                read_linearaddr_q
                0x000000004011403d                read_linearaddr_tss
                0x00000000401140d0                write_linearaddr_tss
                0x000000004011802f                cpu_mmu_spt_tlbflush
                0x000000004011806a                cpu_mmu_spt_updatecr3
                0x000000004011830a                cpu_mmu_spt_invalidate
                0x0000000040118392                cpu_mmu_spt_pagefault
                0x0000000040118589                cpu_mmu_spt_extern_mapsearch
                0x00000000401186c8                cpu_mmu_spt_map_1mb
                0x000000004011887c                cpu_mmu_spt_clear_all
                0x00000000401189dd                cpu_mmu_spt_init
                0x0000000040118ff1                cpu_seg_read_b
                0x000000004011905e                cpu_seg_read_w
                0x00000000401190cb                cpu_seg_read_l
                0x0000000040119138                cpu_seg_read_q
                0x00000000401191a5                cpu_seg_write_b
                0x0000000040119213                cpu_seg_write_w
                0x0000000040119281                cpu_seg_write_l
                0x00000000401192ee                cpu_seg_write_q
                0x000000004011935b                cpu_stack_get
                0x00000000401193c5                cpu_stack_set
                0x000000004011945a                cpu_stack_push
                0x0000000040119506                cpu_stack_pop
                0x00000000401195f1                call_cpuid
                0x00000000401199aa                debug_addstr
                0x00000000401199b0                debug_gdb
                0x00000000401199b6                debug_iohook
                0x00000000401199bc                debug_msgregister
                0x00000000401199ec                debug_msgunregister
                0x0000000040119a89                do_exint_pass
                0x0000000040119b1d                read_gphys_b
                0x0000000040119b8f                write_gphys_b
                0x0000000040119c12                read_gphys_w
                0x0000000040119caf                write_gphys_w
                0x0000000040119d60                read_gphys_l
                0x0000000040119dfd                write_gphys_l
                0x0000000040119eb1                read_gphys_q
                0x0000000040119f4e                write_gphys_q
                0x0000000040119fff                cmpxchg_gphys_l
                0x000000004011a0bd                cmpxchg_gphys_q
                0x000000004011a17b                gmm_pass_gp2hp
                0x000000004011a645                idman_reinit_session
                0x000000004011a6c0                idman_reinit2
                0x000000004011a6e1                get_idman_session
                0x000000004011a721                call_initfunc
                0x000000004011a786                initfunc_init
                0x000000004011c305                int_fatal
                0x000000004011c664                callfunc_and_getint
                0x000000004011c678                do_externalint_enable
                0x000000004011c68d                set_int_handler
                0x000000004011c6ac                int_exceptionHandler
                0x000000004011c6b7                int_init_ap
                0x000000004011c70d                do_io_nothing
                0x000000004011c748                set_iofunc
                0x000000004011c7ea                call_io
                0x000000004011c8d0                do_iopass_default
                0x000000004011cab6                keyboard_reset
                0x000000004011cafb                setkbdled
                0x000000004011cb4c                keyboard_flush
                0x000000004011cb66                load_bootsector
                0x000000004011cf21                copy_bootsector
                0x000000004011d1d0                localapic_wait_for_sipi
                0x000000004011d25d                localapic_change_base_msr
                0x000000004011d2a9                localapic_mmio_register
                0x000000004011dc74                resume_vm
                0x000000004011dd2e                vmm_main
                0x000000004011e0b4                getsysmemmap
                0x000000004011e13b                getfakesysmemmap
                0x000000004011e1ad                phys_to_virt
                0x000000004011e1c3                vmm_start_inf
                0x000000004011e1cf                vmm_term_inf
                0x000000004011e1e0                num_of_available_pages
                0x000000004011e253                alloc_pages
                0x000000004011e2c9                alloc_page
                0x000000004011e2d9                alloc
                0x000000004011e571                alloc2
                0x000000004011e5a9                free
                0x000000004011e6bc                realloc
                0x000000004011e808                free_page
                0x000000004011e81b                free_page_phys
                0x000000004011e83e                mempool_new
                0x000000004011e8ac                mempool_free
                0x000000004011e95d                mempool_allocmem
                0x000000004011eb42                mempool_freemem
                0x000000004011edfe                sym_to_phys
                0x000000004011ee12                phys_in_vmm
                0x000000004011ee2e                mm_force_unlock
                0x000000004011ee60                mm_process_alloc
                0x000000004011f030                mm_process_free
                0x000000004011f08d                mm_process_switch
                0x000000004011f0ab                pmap_open_vmm
                0x000000004011f0d6                pmap_open_guest
                0x000000004011f118                pmap_close
                0x000000004011f11e                pmap_getreadlevel
                0x000000004011f12a                pmap_setlevel
                0x000000004011f136                pmap_seek
                0x000000004011f1a6                pmap_read
                0x000000004011f434                pmap_write
                0x000000004011f5cc                mm_process_unmap
                0x000000004011f6b9                mm_process_unmap_stack
                0x000000004011f894                mm_process_unmapall
                0x000000004011f93b                pmap_pointer
                0x000000004011f9a6                pmap_clear
                0x000000004011fa9c                pmap_autoalloc
                0x000000004011fc49                mm_process_map_alloc
                0x000000004011fd8c                mm_process_map_shared_physpage
                0x000000004011fdf6                mm_process_map_shared
                0x0000000040120054                mm_process_map_stack
                0x00000000401208fe                pmap_dump
                0x0000000040120a16                unmapmem
                0x0000000040120af7                mapmem
                0x000000004012103e                read_hphys_b
                0x0000000040121093                write_hphys_b
                0x00000000401210c5                read_hphys_w
                0x00000000401210fc                write_hphys_w
                0x000000004012112f                read_hphys_l
                0x0000000040121164                write_hphys_l
                0x0000000040121196                read_hphys_q
                0x00000000401211cd                write_hphys_q
                0x0000000040121201                cmpxchg_hphys_l
                0x0000000040121255                cmpxchg_hphys_q
                0x00000000401212a9                alloc_realmodemem
                0x000000004012134a                mapmem_hphys
                0x0000000040121362                mapmem_gphys
                0x000000004012137a                mm_flush_wb_cache
                0x0000000040121724                mmio_access_memory
                0x0000000040121882                mmio_access_page
                0x000000004012193e                mmio_register
                0x0000000040121b8d                mmio_unregister
                0x0000000040121c14                mmio_lock
                0x0000000040121c2f                mmio_unlock
                0x0000000040121ccf                msg_findname
                0x0000000040121d3f                msg_register
                0x0000000040121e0e                msg_unregister
                0x0000000040121e89                msg_unregisterall
                0x0000000040121f14                msg_unregister2
                0x0000000040121fe1                call_read_msr
                0x0000000040121ff5                call_write_msr
                0x0000000040122291                load_minios
                0x00000000401225c2                backtrace
                0x0000000040122f18                panic
                0x000000004012341d                auto_reboot
                0x000000004012343a                panic_test
                0x000000004012345d                pcpu_list_foreach
                0x000000004012349c                pcpu_list_add
                0x00000000401234f0                pcpu_init
                0x000000004012407a                vprintf
                0x00000000401240b5                printf
                0x00000000401240f3                vsnprintf
                0x0000000040124137                snprintf
                0x0000000040124373                sys_msgsetfunc
                0x0000000040124420                sys_msgclose
                0x000000004012443d                sys_msgret
                0x0000000040124529                sys_msgregister
                0x000000004012475a                sys_msgsenddesc
                0x0000000040124f6c                sys_msgsendint
                0x000000004012529c                sys_newprocess
                0x00000000401252fd                sys_msgunregister
                0x0000000040125389                sys_exitprocess
                0x00000000401253de                sys_msgsendbuf
                0x0000000040125539                sys_msgopen
                0x000000004012559a                process_kill
                0x00000000401255fb                msgsetfunc
                0x0000000040125610                msgregister
                0x0000000040125626                msgopen
                0x0000000040125639                msgclose
                0x000000004012564b                msgsendint
                0x000000004012565f                msgsenddesc
                0x0000000040125673                newprocess
                0x0000000040125686                msgsendbuf
                0x00000000401256a0                msgunregister
                0x00000000401256d0                exitprocess
                0x00000000401256e3                msgpremapbuf
                0x00000000401257ff                process_syscall
                0x00000000401258aa                putchar
                0x00000000401258e8                putchar_set_func
                0x0000000040125bba                do_panic_reboot
                0x0000000040125c44                handle_init_to_bsp
                0x0000000040125c65                reboot_test
                0x0000000040125c94                savemsr_save
                0x0000000040125d01                savemsr_load
                0x0000000040126069                get_seg_base
                0x0000000040126125                get_seg_access_rights
                0x0000000040126145                segment_wakeup
                0x0000000040126187                segment_init_ap
                0x0000000040126426                serial_putDebugChar
                0x0000000040126438                serial_getDebugChar
                0x000000004012644d                serial_putchar
                0x00000000401264af                serial_init_iohook
                0x00000000401264f5                waitcycles
                0x0000000040126518                usleep
                0x0000000040126637                sleep_set_timer_counter
                0x000000004012679e                vmctl_svm_init
                0x0000000040126846                message_exitcode
                0x0000000040126dc9                printexitcode
                0x0000000040126df6                svm_available
                0x0000000040126ea7                svm_reset
                0x0000000040127124                svm_vminit
                0x00000000401274ce                svm_vmexit
                0x00000000401274d4                svm_init
                0x000000004012761b                svm_enable_resume
                0x0000000040127720                svm_resume
                0x0000000040127872                svm_ioio
                0x000000004012797c                svm_extern_iopass
                0x0000000040127ae4                svm_init_signal
                0x0000000040127b07                svm_start_vm
                0x0000000040128620                svm_msr_update_lma
                0x0000000040128695                svm_read_msr
                0x000000004012893a                svm_write_msr
                0x0000000040128ead                svm_np_init
                0x0000000040128fa1                svm_np_pagefault
                0x0000000040128fd9                svm_np_tlbflush
                0x0000000040128fdf                svm_np_updatecr3
                0x0000000040128fea                svm_np_clear_all
                0x000000004012907d                svm_np_extern_mapsearch
                0x0000000040129106                svm_np_map_1mb
                0x0000000040129160                svm_paging_extern_flush_tlb_entry
                0x0000000040129187                svm_paging_map_1mb
                0x00000000401291b1                svm_paging_flush_guest_tlb
                0x00000000401291f0                svm_paging_init
                0x000000004012930e                svm_paging_pagefault
                0x000000004012933a                svm_paging_tlbflush
                0x0000000040129361                svm_paging_invalidate
                0x000000004012938f                svm_paging_npf
                0x00000000401293bb                svm_paging_updatecr3
                0x00000000401293e7                svm_paging_spt_setcr3
                0x000000004012941b                svm_paging_clear_all
                0x0000000040129447                svm_paging_get_gpat
                0x0000000040129452                svm_paging_set_gpat
                0x0000000040129493                svm_paging_apply_fixed_cr0
                0x00000000401294b6                svm_paging_apply_fixed_cr4
                0x00000000401294da                svm_paging_pg_change
                0x00000000401294e0                svm_paging_start
                0x00000000401294f2                svm_panic_dump
                0x00000000401295c0                svm_read_general_reg
                0x00000000401296fc                svm_write_general_reg
                0x0000000040129808                svm_read_control_reg
                0x00000000401298a3                svm_write_control_reg
                0x000000004012997f                svm_read_sreg_sel
                0x0000000040129a40                svm_read_sreg_acr
                0x0000000040129b1b                svm_read_sreg_base
                0x0000000040129c37                svm_read_sreg_limit
                0x0000000040129d48                svm_read_ip
                0x0000000040129d67                svm_write_ip
                0x0000000040129d8d                svm_read_flags
                0x0000000040129dac                svm_write_flags
                0x0000000040129dc8                svm_read_gdtr
                0x0000000040129dff                svm_write_gdtr
                0x0000000040129e28                svm_read_idtr
                0x0000000040129e5f                svm_write_idtr
                0x0000000040129e88                svm_write_realmode_seg
                0x0000000040129fc7                svm_writing_sreg
                0x000000004012a0de                int1a_TCG_StatusCheck
                0x000000004012a191                int1a_TCG_HashLogExtendEvent
                0x000000004012a21c                int1a_TCG_PassThroughToTPM
                0x000000004012a2a7                int1a_TCG_HashLogEvent
                0x000000004012a328                int1a_TCG_HashAll
                0x000000004012a3e0                int1a_TCG_TSS
                0x000000004012a46b                int1a_TCG_CompactHashLogExtendEvent
                0x000000004012a4cc                tcg_measure
                0x000000004012a7c5                thread_gettid
                0x000000004012a7da                schedule
                0x000000004012aa20                thread_new
                0x000000004012ab4d                thread_wakeup
                0x000000004012ac32                thread_will_stop
                0x000000004012acaa                thread_exit
                0x000000004012ad4e                thread_start1
                0x000000004012ad6c                thread_set_process_switch
                0x000000004012af14                get_cpu_time
                0x000000004012afe7                get_acpi_time
                0x000000004012b098                get_time
                0x000000004012b275                timer_new
                0x000000004012b2f6                timer_set
                0x000000004012b3ec                timer_free
                0x000000004012b5de                tty_putchar
                0x000000004012b768                ttylog_stop
                0x000000004012b778                tty_udp_register
                0x000000004012b7bc                tty_init_iohook
                0x000000004012b7e3                vcpu_list_foreach
                0x000000004012b822                load_new_vcpu
                0x000000004012b8e4                vga_register
                0x000000004012b958                vga_is_ready
                0x000000004012b9b8                vga_transfer_image
                0x000000004012ba06                vga_fill_rect
                0x000000004012ba41                vga_get_screen_size
                0x000000004012bb65                vmmcall
                0x000000004012bbbe                vmmcall_register
                0x000000004012bbfb                vmmcall_init
                0x000000004012bfa5                vmmcall_boot_continue
                0x000000004012bff0                vmmcall_boot_enable
                0x000000004012c877                register_status_callback
                0x000000004012c96c                vramwrite_clearscreen
                0x000000004012c9ce                vramwrite_putchar
                0x000000004012cba5                vramwrite_mark1
                0x000000004012cbe6                vramwrite_mark2
                0x000000004012cc2e                vramwrite_mark3
                0x000000004012cc77                vramwrite_save_and_move_cursor
                0x000000004012ccae                vramwrite_restore_cursor
                0x000000004012ccc0                vramwrite_get_cursor_pos
                0x000000004012cd0e                vramwrite_init_global
                0x000000004012cd1b                vramwrite_exit_global
                0x000000004012cdce                vt_generate_pagefault
                0x000000004012ce57                vt_generate_external_int
                0x000000004012cea9                vmctl_vt_init
                0x000000004012cf51                vt_vmptrld
                0x000000004012d262                vt_ept_init
                0x000000004012d35e                vt_ept_violation
                0x000000004012d4cc                vt_ept_tlbflush
                0x000000004012d4d2                vt_ept_updatecr3
                0x000000004012d5c4                vt_ept_clear_all
                0x000000004012d657                vt_ept_extern_mapsearch
                0x000000004012d6e0                vt_ept_map_1mb
                0x000000004012d732                message_exitreason
                0x000000004012d898                printexitreason
                0x000000004012e12a                vt_available
                0x000000004012e1c9                vt__vmx_init
                0x000000004012e211                vt__vmxon
                0x000000004012e2be                vt_vminit
                0x000000004012e31a                vt_vmexit
                0x000000004012e334                vt_init
                0x000000004012e344                vt_enable_resume
                0x000000004012e47d                vt_resume
                0x000000004012e615                vt_io
                0x000000004012e736                vt_iopass_init
                0x000000004012e8cb                vt_iopass
                0x000000004012e90e                vt_extern_iopass
                0x000000004012f53e                vt_update_exception_bmp
                0x000000004012fb79                vt_init_signal
                0x000000004012fb84                vt_start_vm
                0x000000004012ff5a                vt_add_guest_msr
                0x00000000401300b2                vt_read_guest_msr
                0x00000000401300e5                vt_write_guest_msr
                0x0000000040130115                vt_msr_update_lma
                0x00000000401301ed                vt_read_msr
                0x0000000040130493                vt_write_msr
                0x0000000040130751                vt_msr_init
                0x0000000040130953                vt_paging_extern_flush_tlb_entry
                0x00000000401309b7                vt_paging_map_1mb
                0x00000000401309d7                vt_paging_flush_guest_tlb
                0x0000000040130a37                vt_paging_pagefault
                0x0000000040130a6c                vt_paging_tlbflush
                0x0000000040130a89                vt_paging_invalidate
                0x0000000040130abc                vt_paging_npf
                0x0000000040130af1                vt_paging_updatecr3
                0x0000000040130b21                vt_paging_spt_setcr3
                0x0000000040130b4c                vt_paging_clear_all
                0x0000000040130b7f                vt_paging_get_gpat
                0x0000000040130b8a                vt_paging_set_gpat
                0x0000000040130bde                vt_paging_apply_fixed_cr0
                0x0000000040130c46                vt_paging_apply_fixed_cr4
                0x0000000040130c8e                vt_paging_pg_change
                0x0000000040130e0e                vt_paging_init
                0x0000000040130e89                vt_paging_start
                0x0000000040130eb6                vt_panic_dump
                0x0000000040131060                vt_read_general_reg
                0x0000000040131181                vt_write_general_reg
                0x0000000040131275                vt_read_control_reg
                0x00000000401312e3                vt_read_sreg_sel
                0x00000000401313ec                vt_read_sreg_acr
                0x0000000040131443                vt_read_sreg_base
                0x00000000401314c5                vt_read_sreg_limit
                0x0000000040131542                vt_read_ip
                0x0000000040131550                vt_write_ip
                0x0000000040131570                vt_read_flags
                0x0000000040131596                vt_write_flags
                0x00000000401315c1                vt_read_gdtr
                0x00000000401315d6                vt_write_gdtr
                0x00000000401315eb                vt_read_idtr
                0x000000004013162f                vt_write_idtr
                0x0000000040131665                vt_write_control_reg
                0x0000000040131b38                vt_get_current_regs_in_vmcs
                0x0000000040131dc3                vt_get_vmcs_regs_in_vmcs
                0x0000000040131f40                vt_write_realmode_seg
                0x0000000040132089                vt_writing_sreg
                0x0000000040132112                vt_reset
                0x00000000401323f0                prepare_for_sleep
                0x00000000401324b1                cancel_sleep
                0x00000000401324d3                wakeup_main
                0x000000004013255b                wakeup_cont
                0x0000000040132690                wakeup_init
                0x00000000401326d9                call_xsetbv
                0x0000000040132750                mpumul_64_64
                0x0000000040132770                mpudiv_128_32
                0x0000000040132790                ipchecksum
                0x0000000040132820                asm_vmlaunch_regs_32
                0x00000000401328a0                asm_vmresume_regs_32
                0x0000000040132920                asm_vmrun_regs_32
                0x0000000040132980                asm_vmlaunch_regs_64
                0x0000000040132a60                asm_vmresume_regs_64
                0x0000000040132b40                asm_vmrun_regs_64
                0x0000000040132be1                callrealmode_start
                0x0000000040132bf7                callrealmode_start2
                0x0000000040133083                move_vmm_area32
                0x0000000040133083                callrealmode_end
                0x00000000401330a8                move_vmm_area64
                0x00000000401330d0                int_handler
                0x0000000040133148                int_callfunc
                0x0000000040134000                syscall_entry_sysexit
                0x000000004013402c                syscall_entry_lret
                0x000000004013405c                ret_to_user32
                0x0000000040134068                syscall_entry_sysret64
                0x00000000401340b0                ret_to_user64
                0x0000000040135000                processuser_sysenter
                0x0000000040136000                processuser_no_sysenter
                0x0000000040137000                processuser_syscall
                0x0000000040138140                memset
                0x00000000401381c0                memcpy
                0x0000000040138200                strcmp
                0x0000000040138240                memcmp
                0x0000000040138280                strlen
                0x0000000040138298                sx_handler
                0x00000000401382f0                thread_switch
                0x0000000040138310                thread_start0
                0x000000004013834a                get_guest_cr3_value
                0x0000000040138358                get_guest_eptp_value
                0x0000000040138366                monitor_vmcs_read
                0x000000004013836f                monitor_vmcs_write
                0x0000000040138378                hypercall_handler
                0x0000000040138397                get_page_table_base_GPA
                0x00000000401383ad                get_ept_base_HPA
                0x00000000401383c3                traverseGuestPages
                0x00000000401383ce                saveSystemCallHandlerAddress
                0x000000004013840f                getSystemCallHandlerGPA
                0x000000004013841c                save_guest_status
                0x00000000401387a0                clear_guest_status
                0x0000000040138a8e                restore_guest_status
                0x0000000040138da8                getTSSGVA
                0x0000000040138db8                getGuestRSP
                0x0000000040138ddd                closePage
                0x0000000040138de8                allocateNewVMID
                0x0000000040138dfe                allocateNewAppID
                0x0000000040138e16                allocateNewApplicationIdentifiers
                0x0000000040138e40                protectCurrentApplication
                0x0000000040138eb1                getMemoryOwnershipTableIndex
                0x0000000040138ebe                changePageStatus
                0x0000000040138fa7                openPage
                0x0000000040139027                getMemoryOwnershipTableEntry
                0x000000004013905f                initializeNewProtectedApplication
                0x000000004013907a                getCurrentProtectedApplication
                0x00000000401390df                findProtectedApplicationFromRIP
                0x0000000040139137                setCurrentProtectedApplication
                0x0000000040139144                traverseIA32ePages
                0x000000004013936f                traverseIA32ePDPT
                0x0000000040139514                traverseIA32ePDT
                0x0000000040139633                traverseIA32ePT
                0x00000000401396d3                gvaToGPA
                0x00000000401398d8                mapHPAintoHVA
                0x00000000401398fe                gpaToHPA
                0x0000000040139a83                unmapHPAintoHVA
                0x0000000040139a8e                monitor_memset
                0x0000000040139aa8                test_start
                0x0000000040139af4                test_gpaToHPA
                0x0000000040139b2d                test_traverseGuestPages
                0x0000000040139b6a                test_logicalCPUStatus
                0x0000000040139b91                restore_register
                0x0000000040139c3e                handleSystemCall
                0x0000000040139c8f                initPagePool
                0x0000000040139cc1                findUnmappedPage
                0x0000000040139cfb                allocateNewZeroPage
                0x0000000040139d60                core_init
                0x0000000040139d71                core_mm_read_guest_phys
                0x0000000040139deb                core_mm_write_guest_phys
                0x0000000040139e65                alloc_handler_descriptor
                0x0000000040139e75                core_io_modify_handler
                0x0000000040139f36                core_io_unregister_handler
                0x0000000040139fbd                core_io_handle_default
                0x000000004013a255                panic_oom
                0x000000004013a268                core_io_register_handler
                0x000000004013a3b0                matched_drhd_u
                0x000000004013a40e                parse_dmar_bios_report
                0x000000004013a459                ieee1394_init
                0x000000004013a492                iommu_setup
                0x000000004013a498                iodom_init
                0x000000004013a668                add_remap
                0x000000004013a6f2                create_dom
                0x000000004013aa21                pci_conceal_new_device
                0x000000004013adf7                pci_conceal_config_data_handler
                0x000000004013ae1c                pci_save_config_addr
                0x000000004013ae2e                pci_restore_config_addr
                0x000000004013ae40                pci_append_device
                0x000000004013ae72                pci_config_data_handler
                0x000000004013b1a5                pci_config_addr_handler
                0x000000004013b1ee                pci_register_driver
                0x000000004013b28d                pci_read_config_data8
                0x000000004013b2d3                pci_read_config_data16
                0x000000004013b31a                pci_read_config_data32
                0x000000004013b360                pci_write_config_data8
                0x000000004013b3a6                pci_write_config_data16
                0x000000004013b3ed                pci_write_config_data32
                0x000000004013b433                pci_read_config_data_port
                0x000000004013b465                pci_write_config_data_port
                0x000000004013b49b                pci_handle_default_config_write
                0x000000004013b4ce                pci_print_device
                0x000000004013b839                pci_possible_new_device
                0x000000004013b861                security_storage_check_lba
                0x000000004013eb96                ahci_new
                0x000000004013ee20                ahci_config_read
                0x000000004013ee87                ahci_config_write
                0x000000004013f13f                ata_bm_handle_command
                0x000000004013f276                ata_bm_handle_status
                0x000000004013f327                ata_bm_handle_prd_table
                0x000000004013f426                ata_bm_handler
                0x000000004013f529                ata_get_cmd_type
                0x000000004013f893                ata_handle_queued_status
                0x0000000040140259                ata_channel_lock
                0x00000000401402d5                ata_channel_unlock
                0x00000000401402fc                ata_cmdblk_handler
                0x000000004014040e                ata_ctlblk_handler
                0x000000004014103f                ata_ahci_mode
                0x0000000040141545                ata_init_io_handler
                0x00000000401415ea                ata_set_bm_handler
                0x0000000040141641                ata_set_cmdblk_handler
                0x000000004014167a                ata_set_ctlblk_handler
                0x00000000401416b5                ata_config_read
                0x000000004014175b                ata_config_write
                0x00000000401418d5                ata_init_vendor
                0x00000000401418fc                ata_bm_handle_device_specific
                0x0000000040141a00                atapi_handle_config_data
                0x0000000040141c40                atapi_handle_interrupt_reason
                0x0000000040141c86                atapi_handle_pio_identify_packet
                0x0000000040141e20                atapi_handle_packet_data
                0x0000000040141e2b                atapi_handle_cmd_packet
                0x0000000040141ea9                packet_handle_through
                0x0000000040141edc                packet_handle_nondata
                0x0000000040141ef6                packet_handle_config
                0x0000000040141f40                packet_handle_rw
                0x0000000040141fc1                packet_handle_invalid
                0x0000000040141fdb                packet_handle_command
                0x0000000040142010                uhci_init
                0x000000004014288f                uhci_current_frame_number
                0x00000000401428b0                dump_td_byvirt
                0x0000000040142a89                dump_td
                0x0000000040142b5b                dump_qh
                0x0000000040142d30                dump_frame
                0x0000000040142e3a                uhci_dump_all
                0x0000000040142ffc                uhci_error_status_string
                0x00000000401432db                uhci_shadow_buffer
                0x000000004014355e                uhci_framelist_monitor
                0x00000000401454de                scan_gframelist
                0x0000000040145d8b                uhci_create_urb
                0x0000000040145eef                uhci_destroy_urb
                0x000000004014601c                uhci_destroy_unlinked_urbs
                0x00000000401460f1                uhci_deactivate_urb
                0x000000004014647e                uhci_activate_urb
                0x0000000040146a3a                uhci_reactivate_urb
                0x0000000040146ae0                uhci_submit_control
                0x0000000040147114                uhci_submit_interrupt
                0x000000004014717c                uhci_submit_bulk
                0x00000000401471e4                uhci_check_urb_advance
                0x000000004014721f                uhci_check_advance
                0x0000000040147425                init_hframelist
                0x0000000040147701                ehci_conceal_portroute
                0x0000000040147749                ehci_init
                0x0000000040149507                ehci_dump_qtd
                0x000000004014957a                ehci_dump_qtdm
                0x00000000401495af                ehci_dump_alist
                0x0000000040149672                ehci_dump_urblist
                0x0000000040149708                ehci_dump_urb
                0x0000000040149bc5                ehci_dump_async
                0x000000004014a046                ehci_dump_all
                0x000000004014b5c3                ehci_shadow_buffer
                0x000000004014b87f                get_gurb_by_address
                0x000000004014b915                shadow_and_activate_urb
                0x000000004014bbf9                ehci_deactivate_urb
                0x000000004014bd93                deactivate_and_delete_urb
                0x000000004014bffc                ehci_check_urb_advance
                0x000000004014c1c6                ehci_check_advance
                0x000000004014c414                ehci_shadow_async_list
                0x000000004014c52e                ehci_cleanup_urbs
                0x000000004014c69b                ehci_end_monitor_async
                0x000000004014c704                ehci_monitor_async_list
                0x000000004014cdc3                ehci_submit_control
                0x000000004014d353                ehci_submit_bulk
                0x000000004014d35e                ehci_submit_interrupt
                0x000000004014ef03                usbmsc_init_handle
                0x000000004014f2de                usbhub_init_handle
                0x000000004014f357                hub_portdevice_register
                0x000000004014fa20                usbccid_init_handle
                0x000000004014fb40                usb_set_debug
                0x000000004014fb4c                usb_init
                0x000000004014fb52                usb_find_busses
                0x000000004014fc33                usb_get_busses
                0x000000004014fc40                usb_get_bus
                0x000000004014fc6f                usb_find_devices
                0x000000004014fcbf                usb_open
                0x000000004014fd29                usb_close
                0x000000004014fd39                usb_resetep
                0x000000004014fd44                usb_clear_halt
                0x000000004014fd4f                usb_reset
                0x000000004014fd5a                usb_claim_interface
                0x000000004014fd68                usb_release_interface
                0x000000004014fd7a                usb_set_configuration
                0x0000000040150025                usb_set_altinterface
                0x00000000401502d2                usb_control_msg
                0x0000000040150621                usb_get_string
                0x000000004015095c                usb_get_string_simple
                0x0000000040150b5c                usb_get_descriptor
                0x0000000040150e9d                usb_get_descriptor_early
                0x00000000401511e6                usb_get_descriptor_by_endpoint
                0x000000004015152c                usb_bulk_write
                0x0000000040151760                usb_interrupt_write
                0x0000000040151992                usb_bulk_read
                0x0000000040151c4e                usb_interrupt_read
                0x0000000040151f0d                usb_register_host
                0x0000000040152028                usb_unregister_devices
                0x000000004015205a                usb_sc_lock
                0x00000000401520d2                usb_sc_unlock
                0x00000000401527e8                free_config_descriptors
                0x0000000040152939                free_device
                0x0000000040152aa5                handle_connect_status
                0x0000000040152ba0                handle_port_reset
                0x0000000040152c81                dprintf_port
                0x0000000040153c29                usb_init_device_monitor
                0x0000000040153c93                usb_new_dev_handle
                0x0000000040153d44                usbhid_init_handle
                0x0000000040153e7a                usb_hook_process
                0x000000004015417a                usb_hook_register
                0x0000000040154254                usb_hook_unregister
                0x00000000401542d8                _dprintf
                0x0000000040154325                _dprintft
                0x00000000401543d8                pro100_io_handler
                0x00000000401543e3                pro100_config_read
                0x00000000401543f8                pro100_config_write
                0x0000000040154522                pro100_init
                0x000000004015453c                pro100_init_vpn_client
                0x000000004015457b                pro100_sleep
                0x00000000401545ab                pro100_beep
                0x00000000401545d5                pro100_get_ctx
                0x0000000040154678                pro100_alloc_page
                0x00000000401546b2                pro100_free_page
                0x00000000401546d7                pro100_get_op_size
                0x000000004015471a                pro100_mem_read
                0x0000000040154790                pro100_read_send_packet
                0x00000000401549a2                pro100_mem_write
                0x0000000040154a16                pro100_write
                0x0000000040154a89                pro100_read
                0x0000000040154b08                pro100_wait_cu_ru_accepable
                0x0000000040154b43                pro100_init_cu_base_addr
                0x0000000040154ba3                pro100_init_ru_base_addr
                0x0000000040154c03                pro100_flush
                0x0000000040154c1e                pro100_exec_cu_op
                0x0000000040154d62                pro100_send_packet_to_line
                0x0000000040154e9f                pro100_generate_int
                0x0000000040154ecf                pro100_write_recv_packet
                0x000000004015504b                pro100_proc_guest_op
                0x0000000040155256                pro100_get_int_bit_string
                0x00000000401552cc                pro100_get_stat_ack_string
                0x0000000040155337                pro100_get_cu_command_string
                0x00000000401553b9                pro100_get_ru_command_string
                0x0000000040155403                pro100_init_recv_buffer
                0x000000004015553a                pro100_poll_ru
                0x0000000040155635                pro100_hook_write
                0x00000000401558fb                pro100_hook_read
                0x0000000040155ab2                pro100_mm_handler
                0x0000000040155c06                pro100_alloc_recv_buffer
                0x0000000040155c73                pro100_new
                0x0000000040157ec3                storage_premap_buf
                0x0000000040157ece                storage_premap_handle_sectors
                0x0000000040158202                storage_get_num_hc
                0x0000000040158234                storage_hc_open
                0x0000000040158328                storage_hc_close
                0x0000000040158372                storage_hc_hook_register
                0x00000000401583e9                storage_hc_hook_unregister
                0x0000000040158483                storage_hc_register
                0x0000000040158661                storage_hc_unregister
                0x000000004015876a                storage_hc_scandev
                0x00000000401587b1                storage_hc_dev_open
                0x00000000401588ee                storage_hc_dev_atacommand
                0x0000000040158ac5                storage_hc_dev_close
                0x0000000040158b8d                storage_io_init
                0x0000000040158ba2                storage_io_deinit
                0x0000000040158bad                storage_io_get_num_devices
                0x0000000040158c6b                storage_io_aget_size
                0x0000000040158ddd                storage_io_aread
                0x000000004015901e                storage_io_awrite
                0x00000000401597a2                storage_handle_sectors
                0x00000000401599eb                storage_new
                0x0000000040159c32                storage_free
                0x0000000040159e31                storage_init
                0x000000004015a065                aes_xts_init
                0x000000004015a098                crypto_find
                0x000000004015a0eb                crypto_register
                0x000000004015a13b                crypto_init
                0x000000004015a192                crypto_none_init
                0x000000004015a1ca                vpn_GetCurrentCpuId
                0x000000004015a1d5                vpn_GetTickCount
                0x000000004015a205                vpn_NewTimer
                0x000000004015a21f                vpn_SetTimer
                0x000000004015a233                vpn_FreeTimer
                0x000000004015a23e                vpn_GetPhysicalNicInfo
                0x000000004015a24d                vpn_SendPhysicalNic
                0x000000004015a25c                vpn_SetPhysicalNicRecvCallback
                0x000000004015a26b                vpn_GetVirtualNicInfo
                0x000000004015a27b                vpn_SendVirtualNic
                0x000000004015a28b                vpn_SetVirtualNicRecvCallback
                0x000000004015a29b                vpn_premap_PhysicalNicRecv
                0x000000004015a2b4                vpn_premap_VirtualNicRecv
                0x000000004015a2cd                vpn_premap_recvbuf
                0x000000004015a2d8                vpn_ic_rsa_sign
                0x000000004015a371                vpn_new_nic
                0x000000004015a981                msg_vpn_GetCurrentCpuId
                0x000000004015a99b                msg_vpn_ic_rsa_sign
                0x000000004015aa47                msg_vpn_GetTickCount
                0x000000004015aa85                msg_vpn_GetPhysicalNicInfo
                0x000000004015aae9                msg_vpn_SendPhysicalNic
                0x000000004015aba3                msg_vpn_SetPhysicalNicRecvCallback
                0x000000004015abef                msg_vpn_GetVirtualNicInfo
                0x000000004015ac53                msg_vpn_SendVirtualNic
                0x000000004015ad0d                msg_vpn_SetVirtualNicRecvCallback
                0x000000004015ad59                msg_vpn_NewTimer
                0x000000004015adc9                msg_vpn_SetTimer
                0x000000004015ae9c                msg_vpn_FreeTimer
                0x000000004015af02                vpn_start
                0x000000004015b28c                vpn_user_init
                0x000000004015b2f0                SeFreeConfigEntryList
                0x000000004015b34e                SeGetConfigEntry
                0x000000004015b3bf                SeGetConfigStr
                0x000000004015b3ec                SeGetConfigBool
                0x000000004015b498                SeGetConfigInt
                0x000000004015b4bc                SeGetConfigInt64
                0x000000004015b4e0                SeGetConfigBin
                0x000000004015b504                SeIsSplitChar
                0x000000004015b577                SeGetKeyAndValue
                0x000000004015b707                SeLoadConfigEntryListFromBuf
                0x000000004015b87f                SeLoadConfigEntryList
                0x000000004015b8d0                SePKeyPasswordCallbackFunction
                0x000000004015b8fd                SeDhFree
                0x000000004015b937                SeRsaVerifyWithPadding
                0x000000004015ba11                SeRsaSignWithPadding
                0x000000004015bad5                SeRsaPublicDecrypt
                0x000000004015bb7e                SeRsaPrivateEncrypt
                0x000000004015bc27                SeRsaPrivateDecrypt
                0x000000004015bcc8                SeRsaPublicEncrypt
                0x000000004015bd69                SeGetCertSha1
                0x000000004015bdb1                SeGetCertMd5
                0x000000004015bdf9                SeBinToBigNum
                0x000000004015be44                SeBufToBigNum
                0x000000004015be5f                SeDhCompute
                0x000000004015beeb                SeBigNumToBuf
                0x000000004015bf84                SeRsaPublicSize
                0x000000004015bfcf                SeRsaPublicToBin
                0x000000004015c033                SeRsaPublicToBuf
                0x000000004015c077                SeDhNew
                0x000000004015c14d                SeDhNewGroup2
                0x000000004015c162                SeCheckSignature
                0x000000004015c18c                SeGetKeyFromCert
                0x000000004015c1c8                SeCompareCert
                0x000000004015c1f2                SeCheckCertAndKey
                0x000000004015c21c                SeIsBase64
                0x000000004015c2dd                SeFreePKey
                0x000000004015c2ed                SeFreeKey
                0x000000004015c315                SeIsCertSignedByCert
                0x000000004015c385                SeCheckCert
                0x000000004015c3eb                SeBioToKey
                0x000000004015c4f9                SeGetCertIssuerName
                0x000000004015c585                SeGetCertSubjectName
                0x000000004015c60f                SeFreeX509
                0x000000004015c61f                SeFreeCert
                0x000000004015c64d                SeFreeBio
                0x000000004015c65d                SeNewBio
                0x000000004015c670                SeCertToBio
                0x000000004015c6d1                SeKeyToBio
                0x000000004015c7cd                SeRsaGen
                0x000000004015c938                SeBioToBuf
                0x000000004015c9d9                SeCertToBuf
                0x000000004015ca24                SeSaveCert
                0x000000004015ca85                SeKeyToBuf
                0x000000004015cad0                SeSaveKey
                0x000000004015cb34                SeX509ToCert
                0x000000004015cbec                SeBioToCert
                0x000000004015cc37                SeBigNumToStr
                0x000000004015cca3                SeBufToBio
                0x000000004015ccfc                SeBufToKey
                0x000000004015cd68                SeLoadKey
                0x000000004015ce13                SeCloneKey
                0x000000004015ce7d                SeBufToCert
                0x000000004015ced2                SeLoadCert
                0x000000004015cf1f                SeCloneCert
                0x000000004015cf70                SeSha1
                0x000000004015cf90                SeHashForSignBySHA1
                0x000000004015d03a                SeRsaSignWithSha1
                0x000000004015d0dd                SeRsaVerifyWithSha1
                0x000000004015d17f                SeMacSha1
                0x000000004015d2d6                SeMacSha196
                0x000000004015d31d                SeMd5
                0x000000004015d33d                SeDes3Encrypt
                0x000000004015d3d5                SeDes3Decrypt
                0x000000004015d46f                SeDesNewKeyValue
                0x000000004015d4c1                SeDes3NewKey
                0x000000004015d542                SeDesNewKey
                0x000000004015d553                SeDesRandKeyValue
                0x000000004015d56f                SeDesRandKey
                0x000000004015d5b9                SeDes3RandKey
                0x000000004015d602                SeDesFreeKeyValue
                0x000000004015d62a                SeDes3FreeKey
                0x000000004015d664                SeDesFreeKey
                0x000000004015d66f                SeRand
                0x000000004015d683                SeRand64
                0x000000004015d69f                SeRand32
                0x000000004015d6ba                SeRand16
                0x000000004015d6d6                SeRand8
                0x000000004015d6f2                SeRand1
                0x000000004015d705                SeInitCrypto
                0x000000004015d748                SeFreeCrypto
                0x000000004015d760                SeIkeStrToPassword
                0x000000004015d7cd                SeIkePhase1CryptIdToKeySize
                0x000000004015d7ec                SeIkePhase2CryptIdToKeySize
                0x000000004015d80b                SeIkeStrToPhase1CryptId
                0x000000004015d871                SeIkeStrToPhase1HashId
                0x000000004015d8b0                SeIkeStrToPhase2CryptId
                0x000000004015d91b                SeIkeStrToPhase2HashId
                0x000000004015d95a                SeIkeIsZeroIP
                0x000000004015d988                SeIkeInitIPv6Address
                0x000000004015d9d5                SeIkeInitIPv4Address
                0x000000004015da18                SeIkeGetIPv6Address
                0x000000004015da52                SeIkeGetIPv4Address
                0x000000004015da6b                SeIkeIpAddressToStr
                0x000000004015dac5                SeIkeBuildDataPayload
                0x000000004015db0e                SeIkeBuildTransformValue
                0x000000004015dbc8                SeIkeBuildTransformValueList
                0x000000004015dc30                SeIkeBuildTransformPayload
                0x000000004015dcad                SeIkeBuildIdPayload
                0x000000004015dd24                SeIkeBuildCertPayload
                0x000000004015dd87                SeIkeBuildCertRequestPayload
                0x000000004015ddea                SeIkeBuildNoticePayload
                0x000000004015de77                SeIkeBuildDeletePayload
                0x000000004015df47                SeIkeGetFirstPayloadType
                0x000000004015df66                SeIkeBuildPayloadList
                0x000000004015e071                SeIkeBuildProposalPayload
                0x000000004015e11c                SeIkeBuildSaPayload
                0x000000004015e1a5                SeIkeBuildPayload
                0x000000004015e27e                SeIkeGetPayload
                0x000000004015e2cc                SeIkeGetPayloadNum
                0x000000004015e308                SeIkeNewPayload
                0x000000004015e326                SeIkeNewDataPayload
                0x000000004015e376                SeIkeNewSaPayload
                0x000000004015e3a1                SeIkeNewProposalPayload
                0x000000004015e42b                SeIkeNewTransformPayload
                0x000000004015e476                SeIkeNewIdPayload
                0x000000004015e4f6                SeIkeNewCertPayload
                0x000000004015e55a                SeIkeNewCertRequestPayload
                0x000000004015e5be                SeIkeNewNoticePayload
                0x000000004015e65a                SeIkeNewDeletePayload
                0x000000004015e696                SeIkeNewTransformValue
                0x000000004015e6c5                SeIkeFreeTransformValueList
                0x000000004015e701                SeIkeParseTransformValueList
                0x000000004015e86d                SeIkeParseTransformPayload
                0x000000004015e8d9                SeIkeFreeTransformPayload
                0x000000004015e907                SeIkeParseIdPayload
                0x000000004015e984                SeIkeFreeIdPayload
                0x000000004015e9b2                SeIkeParseCertPayload
                0x000000004015ea1b                SeIkeFreeCertPayload
                0x000000004015ea49                SeIkeParseCertRequestPayload
                0x000000004015eab2                SeIkeFreeCertRequestPayload
                0x000000004015eae0                SeIkeParseNoticePayload
                0x000000004015eba4                SeIkeFreeNoticePayload
                0x000000004015ebe8                SeIkeFreeDeletePayload
                0x000000004015ec47                SeIkeParseDeletePayload
                0x000000004015ed55                SeIkeParseDataPayload
                0x000000004015ed8f                SeIkeFreeDataPayload
                0x000000004015eda2                SeIkeFreePayloadList
                0x000000004015edde                SeIkeParsePayloadListEx
                0x000000004015ef61                SeIkeParsePayloadList
                0x000000004015ef74                SeIkeParseProposalPayload
                0x000000004015f024                SeIkeParseSaPayload
                0x000000004015f0f1                SeIkeParsePayload
                0x000000004015f1f1                SeIkeFreeProposalPayload
                0x000000004015f235                SeIkeFreeSaPayload
                0x000000004015f261                SeIkeFreePayload
                0x000000004015f308                SeIkeEncrypt
                0x000000004015f3c3                SeIkeEncryptWithPadding
                0x000000004015f473                SeIkeBuild
                0x000000004015f5cc                SeIkeDecrypt
                0x000000004015f687                SeIkeFree
                0x000000004015f6c3                SeIkeParseEx
                0x000000004015f8ab                SeIkeParse
                0x000000004015f8bb                SeIkeParseHeader
                0x000000004015f8cb                SeIkeNew
                0x000000004015f950                VPN_IPsec_Client_Start
                0x000000004015f976                VPN_IPsec_Client_Stop
                0x000000004015f986                SeIntInit
                0x000000004015f9a9                SeIntFree
                0x000000004015f9c3                VPN_IPsec_Init
                0x000000004015fa1f                VPN_IPsec_Free
                0x000000004015fa51                SeSysMemoryAlloc
                0x000000004015fa6d                SeSysMemoryReAlloc
                0x000000004015fa96                SeSysMemoryFree
                0x000000004015faae                SeSysGetCurrentCpuId
                0x000000004015fac6                SeSysNewLock
                0x000000004015fade                SeSysLock
                0x000000004015faf6                SeSysUnlock
                0x000000004015fb0e                SeSysFreeLock
                0x000000004015fb26                SeSysGetTickCount
                0x000000004015fb3e                SeSysNewTimer
                0x000000004015fb62                SeSysSetTimer
                0x000000004015fb7a                SeSysFreeTimer
                0x000000004015fb92                SeSysGetPhysicalNicInfo
                0x000000004015fbaf                SeSysSendPhysicalNic
                0x000000004015fbd5                SeSysSetPhysicalNicRecvCallback
                0x000000004015fbf7                SeSysGetVirtualNicInfo
                0x000000004015fc14                SeSysSendVirtualNic
                0x000000004015fc3d                SeSysSetVirtualNicRecvCallback
                0x000000004015fc62                SeSysSaveData
                0x000000004015fc89                SeSysLoadData
                0x000000004015fcb0                SeSysFreeData
                0x000000004015fccb                SeSysRsaSign
                0x000000004015fd03                SeSysLog
                0x000000004015fd31                SeRsaSign
                0x000000004015fdd0                Se4ParseIpPacketUDPv4
                0x000000004015fecb                Se4FreeIpHeaderInfo
                0x000000004015feff                Se4IpChecksum
                0x000000004015ff72                Se4IpCheckChecksum
                0x000000004015ffc1                Se4ParseIpPacketICMPv4
                0x00000000401600f0                Se4BuildIcmpEchoPacket
                0x00000000401601ac                Se4AdjustTcpMss
                0x0000000040160351                Se4Tick
                0x0000000040160369                Se4BroadcastMacAddress
                0x0000000040160374                Se4SendEthPacket
                0x000000004016044b                Se4SendIpFragmentNow
                0x0000000040160474                Se4InitArpEntryList
                0x0000000040160484                Se4FreeArpEntryList
                0x00000000401604c0                Se4FlushArpEntryList
                0x000000004016056d                Se4SearchArpEntryList
                0x00000000401605f9                Se4AddArpEntryList
                0x00000000401606e6                Se4SearchArpWaitList
                0x000000004016072e                Se4InitArpWaitList
                0x000000004016073e                Se4FreeArpWaitList
                0x000000004016077a                Se4InsertIpWait
                0x00000000401607fc                Se4InitIpWaitList
                0x000000004016080c                Se4FreeIpWait
                0x0000000040160835                Se4FlushIpWaitList
                0x00000000401608f7                Se4FreeIpWaitList
                0x0000000040160933                Se4InitIpCombineList
                0x0000000040160943                Se4SearchIpCombineList
                0x00000000401609b9                Se4InitIpFragmentList
                0x00000000401609c9                Se4InsertIpCombine
                0x0000000040160ac8                Se4FreeIpFragmentList
                0x0000000040160b04                Se4FreeIpCombine
                0x0000000040160b3c                Se4FlushIpCombineList
                0x0000000040160c25                Se4FreeIpCombineList
                0x0000000040160c73                Se4Free
                0x0000000040160cb7                Se4And
                0x0000000040160ce6                Se4GetNetworkAddress
                0x0000000040160cf1                Se4Or
                0x0000000040160d20                Se4Not
                0x0000000040160d4a                Se4GetBroadcastAddress
                0x0000000040160d8f                Se4GetHostAddress
                0x0000000040160da9                Se4GenerateSubnetMask32
                0x0000000040160dca                Se4IPToStr
                0x0000000040160e0d                Se4ZeroIP
                0x0000000040160e28                Se4StrToIP
                0x0000000040160ec9                Se4IPToUINT
                0x0000000040160eeb                Se4StrToIP32
                0x0000000040160efd                Se4IsZeroIP
                0x0000000040160f10                Se4Init
                0x0000000040161026                Se4Cmp
                0x000000004016105f                Se4CheckUnicastAddress
                0x00000000401610b0                Se4IsInSameNetwork
                0x00000000401610ff                Se4CmpIpCombineList
                0x000000004016119d                Se4SendWaitingIpWait
                0x000000004016127e                Se4MacIpRelationKnown
                0x000000004016132a                Se4CmpArpWaitEntry
                0x0000000040161361                Se4CmpArpEntry
                0x0000000040161398                Se4ParseIpPacket
                0x00000000401614ee                Se4IsBroadcastAddress
                0x0000000040161502                Se4SendArpResponse
                0x00000000401615e9                Se4SendArpDoProcess
                0x00000000401616ef                Se4ProcessArpWaitList
                0x00000000401617a3                Se4MainProc
                0x00000000401617d4                Se4SendArpRequest
                0x0000000040161849                Se4UINTToIP
                0x000000004016186b                Se4IPToStr32
                0x000000004016188f                Se4GenerateSubnetMask
                0x00000000401618a1                Se4IsSubnetMask
                0x00000000401618de                Se4RecvArpResponse
                0x0000000040161923                Se4RecvArpRequest
                0x0000000040161a4d                Se4RecvArp
                0x0000000040161b0a                Se4SendRawIp
                0x0000000040161c6d                Se4SendIpFragment
                0x0000000040161da0                Se4SendIp
                0x0000000040161e82                Se4SendUdp
                0x0000000040161fb4                Se4SendIcmp
                0x000000004016206d                Se4SendIcmpEchoResponse
                0x0000000040162102                Se4RecvIpComplete
                0x00000000401621cf                Se4CombineIp
                0x00000000401623cd                Se4SendIcmpEchoRequest
                0x0000000040162462                Se4RecvIp
                0x00000000401626fc                Se4RecvEthPacket
                0x0000000040162790                Se6FreeIpHeaderInfo
                0x00000000401627c4                Se6IpChecksum
                0x0000000040162837                Se6CalcChecksum
                0x00000000401628f8                Se6ParseIpPacketICMPv6
                0x0000000040162b36                Se6ParseIpPacketUDPv6
                0x0000000040162c85                Se6BuildIcmpEchoPacket
                0x0000000040162d6e                Se6BroadcastMacAddress
                0x0000000040162d79                Se6SendEthPacket
                0x0000000040162e50                Se6SendIpFragmentNow
                0x0000000040162e79                Se6InitNeighborEntryList
                0x0000000040162e89                Se6FreeNeighborEntryList
                0x0000000040162ec5                Se6FlushNeighborEntryList
                0x0000000040162f72                Se6SearchNeighborEntryList
                0x0000000040162fc9                Se6AddNeighborEntryList
                0x00000000401630b3                Se6SearchNdpWaitList
                0x0000000040163102                Se6InitNdpWaitList
                0x0000000040163112                Se6FreeNdpWaitList
                0x000000004016314e                Se6InsertIpWait
                0x00000000401631dd                Se6InitIpWaitList
                0x00000000401631ed                Se6FreeIpWait
                0x0000000040163216                Se6FreeIpWaitList
                0x0000000040163252                Se6InitIpCombineList
                0x0000000040163262                Se6SearchIpCombineList
                0x0000000040163306                Se6InitIpFragmentList
                0x0000000040163316                Se6FreeIpFragmentList
                0x0000000040163352                Se6FreeIpCombine
                0x000000004016338d                Se6FreeIpCombineList
                0x00000000401633db                Se6Free
                0x000000004016342b                Se6Tick
                0x0000000040163443                Se6InsertIpCombine
                0x000000004016357a                Se6FlushIpCombineList
                0x0000000040163666                Se6FlushIpWaitList
                0x000000004016372e                Se6GenerateEui64Address
                0x000000004016378f                Se6GenerateMulticastMacAddress
                0x00000000401637c5                Se6GetAllNodeMulticastAddr
                0x00000000401637f1                Se6GetAllRouterMulticastAddr
                0x000000004016381d                Se6And
                0x000000004016385b                Se6GetPrefixAddress
                0x000000004016386a                Se6Or
                0x00000000401638a8                Se6Not
                0x00000000401638dc                Se6GetHostAddress
                0x0000000040163918                Se6GenerateSubnetMask
                0x000000004016397d                Se6GetSoliciationMulticastAddr
                0x0000000040163a2e                Se6LocalSubnet
                0x0000000040163a42                Se6Cmp
                0x0000000040163a6e                Se6GetIPAddrType
                0x0000000040163b7c                Se6IsInSameNetwork
                0x0000000040163c43                Se6SendRawIp
                0x0000000040163db5                Se6SendIpFragment
                0x0000000040163dd1                Se6SendIp
                0x0000000040163f4e                Se6SendUdp
                0x000000004016407a                Se6SendIcmp
                0x0000000040164176                Se6SendIcmpNeighborSoliciation
                0x00000000401642ec                Se6SendNeighborSoliciationDoProcess
                0x00000000401643a6                Se6SendNeighborSoliciation
                0x000000004016442e                Se6ProcessNdpWaitList
                0x00000000401644e8                Se6SendIcmpNeighborAdvertisement
                0x000000004016462c                Se6SendIcmpEchoResponse
                0x00000000401646f1                Se6SendIcmpEchoRequest
                0x00000000401647b6                Se6IsSubnetMask
                0x0000000040164818                Se6SubnetMaskToInt
                0x0000000040164872                Se6SendIcmpRouterAdvertisement
                0x0000000040164a4a                Se6MainProc
                0x0000000040164aa4                Se6CmpIpCombineList
                0x0000000040164b35                Se6SendWaitingIpWait
                0x0000000040164c2c                Se6MacIpRelationKnown
                0x0000000040164d4e                Se6CmpNdpWaitEntry
                0x0000000040164d8f                Se6CmpNeighborEntry
                0x0000000040164dd0                Se6ParseIpPacket
                0x0000000040164f72                Se6IsZeroIP
                0x0000000040164f92                Se6CheckUnicastAddress
                0x0000000040164fc6                Se6IsNetworkPrefixAddress
                0x0000000040165008                Se6IsGuestNode
                0x00000000401650ac                Se6AddGuestNode
                0x0000000040165180                Se6RecvIpComplete
                0x0000000040165437                Se6CombineIp
                0x000000004016564d                Se6RecvIp
                0x000000004016588a                Se6RecvEthPacket
                0x00000000401658fc                Se6IPToStr
                0x0000000040165a5a                Se6IPItemStrToChars
                0x0000000040165b3a                Se6CheckIPItemStr
                0x0000000040165ba3                Se6ZeroIP
                0x0000000040165bc3                Se6StrToIP
                0x0000000040165d8f                Se6GenerateEui64LocalAddress
                0x0000000040165e02                Se6Init
                0x0000000040165f61                Se6GenerateEui64GlobalAddress
                0x0000000040166062                Se6CheckSubnetLength
                0x0000000040166080                SeTimerEntryCompare
                0x00000000401660c0                SeEthGetInfo
                0x00000000401660e4                SeEthSendAdd
                0x0000000040166117                SeEthParseEthernetPacket
                0x0000000040166218                SeEthGenRandMacAddress
                0x000000004016626a                SeLoad
                0x00000000401662cf                SeSave
                0x00000000401662eb                SeTick
                0x00000000401662fb                SeGetCurrentCpuId
                0x000000004016630b                SeNewLock
                0x0000000040166346                SeEthNew
                0x000000004016645c                SeTimerNew
                0x00000000401664d2                SeLock
                0x000000004016651c                SeUnlock
                0x0000000040166543                SeTick64Internal
                0x0000000040166599                SeTick64
                0x00000000401665b8                SeInitKernel
                0x00000000401665f2                SeEthGetNextRecvPacket
                0x000000004016663b                SeEthDeleteOldSenderMacList
                0x000000004016670f                SeEthIsSenderMacAddressExistsInList
                0x00000000401667b6                SeEthNicCallback
                0x00000000401668b7                SeEthAddSenderMacList
                0x00000000401669b1                SeEthSend
                0x0000000040166a37                SeEthSendAll
                0x0000000040166b08                SeTimerAdjust
                0x0000000040166b8e                SeTimerSet
                0x0000000040166c14                SeTimerCallback
                0x0000000040166d24                SeDeleteLock
                0x0000000040166d4c                SeEthFree
                0x0000000040166df5                SeTimerFree
                0x0000000040166e4f                SeFreeKernel
                0x0000000040166e65                SeLogArgs
                0x0000000040166ea3                SeWarning
                0x0000000040166ee9                SeError
                0x0000000040166f2f                SeInfo
                0x0000000040166f75                SeFatal
                0x0000000040166fbb                SeDebug
                0x0000000040167001                SeDebugBin
                0x000000004016706f                SeLog
                0x00000000401670b0                SeB64CodeToChar
                0x00000000401670f6                SeB64CharToCode
                0x000000004016713d                SeIsZero
                0x0000000040167186                SeReplaceListPointer
                0x00000000401671e2                SeIsInListStr
                0x0000000040167253                SeIsInList
                0x000000004016729e                SeCompareStr
                0x00000000401672c0                SeSetSortFlag
                0x00000000401672ce                SeSetCmp
                0x00000000401672ef                SeFastSwap
                0x0000000040167323                SeQSort
                0x000000004016763b                SeSort
                0x0000000040167673                SeBSearch
                0x0000000040167742                SeSearch
                0x00000000401677aa                SeFifoSize
                0x00000000401677bd                SeDumpBuf
                0x00000000401677e5                SeSeekBuf
                0x000000004016781b                SeClearBuf
                0x0000000040167834                SeSwap16
                0x000000004016784f                SeSwap32
                0x0000000040167879                SeSwap64
                0x00000000401678d0                SeMalloc
                0x0000000040167912                SeNewBuf
                0x0000000040167954                SeNewFifo
                0x0000000040167996                SeReAlloc
                0x0000000040167a07                SeAdjustBufSize
                0x0000000040167a3c                SeClearFifo
                0x0000000040167a79                SeAdd
                0x0000000040167ae3                SeInsert
                0x0000000040167c11                SeInsertStr
                0x0000000040167c64                SeDelete
                0x0000000040167d1f                SeDeleteAll
                0x0000000040167d56                SePop
                0x0000000040167dbd                SePush
                0x0000000040167e20                SeMemSize
                0x0000000040167e52                SeFree
                0x0000000040167e81                SeFreeBuf
                0x0000000040167ea9                SeFreeBufWithoutBuffer
                0x0000000040167eb9                SeFreeFifo
                0x0000000040167ee1                SeFreeList
                0x0000000040167f0a                SeFreeQueue
                0x0000000040167f33                SeFreeStack
                0x0000000040167f5c                SeIsLittleEndian
                0x0000000040167f6f                SeEndian16
                0x0000000040167f93                SeEndian32
                0x0000000040167fb6                SeEndian64
                0x0000000040167fdd                SeIsBigEndian
                0x0000000040167ff5                SeCmp
                0x0000000040168064                SeCmpEx
                0x0000000040168099                SeCmpBuf
                0x00000000401680da                SeCopy
                0x0000000040168102                SeClone
                0x000000004016814f                SeSwap
                0x00000000401681a9                SeWriteBuf
                0x0000000040168220                SeMemToBuf
                0x0000000040168286                SeRandBuf
                0x00000000401682cc                SeCloneBuf
                0x00000000401682e7                SeWriteBufLine
                0x000000004016833f                SeWriteBufBuf
                0x000000004016835a                SeWriteBufInt
                0x000000004016839a                SeWriteBufInt64
                0x00000000401683dd                SeWriteBufStr
                0x000000004016844b                SeAddBufStr
                0x000000004016848a                SeReadDump
                0x00000000401684ef                SePeekFifo
                0x000000004016852d                SePeekNext
                0x000000004016856b                SeReadFifo
                0x0000000040168658                SeGetNext
                0x00000000401686a2                SeGetNextInt
                0x00000000401686d8                SeWriteFifo
                0x000000004016876c                SeInsertQueue
                0x00000000401687a2                SeInsertQueueInt
                0x00000000401687d6                SeCopyToArray
                0x00000000401687fa                SeToArray
                0x000000004016883f                SeZero
                0x0000000040168861                SeZeroMalloc
                0x0000000040168899                SeNewList
                0x00000000401688ec                SeCloneList
                0x000000004016893a                SeNewQueue
                0x000000004016896e                SeNewStack
                0x00000000401689a9                SeB64Decode
                0x0000000040168b78                SeB64Encode
                0x0000000040168d31                SeReadBuf
                0x0000000040168dcb                SeReadBufFromBuf
                0x0000000040168e67                SeReadRemainBuf
                0x0000000040168e8f                SeReadBufInt
                0x0000000040168ec4                SeReadBufInt64
                0x0000000040168efc                SeReadBufStr
                0x0000000040168fb0                SeBuildICMPv6OptionValue
                0x000000004016903f                SeBuildICMPv6Options
                0x00000000401690ea                SeParseICMPv6Options
                0x00000000401691c3                SeFreePacketList
                0x00000000401691ff                SeFreePacketListWithoutBuffer
                0x000000004016923b                SeGetNextHeaderFromQueue
                0x0000000040169267                SeBuildAndAddIPv6PacketOptionHeader
                0x0000000040169304                SeBuildIPv6Packet
                0x00000000401694e9                SeBuildIPv6PacketWithFragment
                0x00000000401696a5                SeParseIPv6ExtHeader
                0x0000000040169792                SeParseIPv6Packet
                0x000000004016980d                SeParsePacketL3IPv6
                0x000000004016984e                SeParsePacketL3IPv4
                0x0000000040169907                SeParsePacketL3ARPv4
                0x0000000040169931                SeParsePacketL2
                0x00000000401699d3                SeFreePacket
                0x00000000401699e3                SeParsePacket
                0x0000000040169a80                SeSecCmpIkeSa
                0x0000000040169b58                SeSecCalcP2Iv
                0x0000000040169c0c                SeSecCalcP1Iv
                0x0000000040169cb9                SeSecCalcKEYMATFull
                0x0000000040169dc3                SeSecCalcKEYMAT
                0x0000000040169e8a                SeSecCalcKa
                0x0000000040169f5f                SeSecCalcP1KeySet
                0x000000004016a176                SeSecForceReconnect
                0x000000004016a1af                SeSecLifeSeconds64bit
                0x000000004016a1cf                SeSecGetIPsecSa
                0x000000004016a21b                SeSecNewIkeSa
                0x000000004016a2cc                SeSecFreeP1KeySet
                0x000000004016a31a                SeSecGenIkeSaMessageId
                0x000000004016a389                SeSecGenIkeSaInitCookie
                0x000000004016a3f8                SeSecInitSaList
                0x000000004016a432                SeSecSearchIPsecSaBySpi
                0x000000004016a4c1                SeSecSearchIkeSaBySpi
                0x000000004016a58c                SeSecSearchIkeSa
                0x000000004016a658                SeSecNewSpi
                0x000000004016a66f                SeSecGenIPsecSASpi
                0x000000004016a6de                SeSecStrToAuthMethod
                0x000000004016a749                SeSecTick
                0x000000004016a763                SeSecCheckIPsecSaExpires
                0x000000004016a826                SeSecCheckIkeSaExpires
                0x000000004016a8e5                SeSecSetTimerCallback
                0x000000004016a905                SeSecAddTimer
                0x000000004016a925                SeSecDoInterval
                0x000000004016a996                SeSecNewIPsecSa
                0x000000004016ab03                SeSecSetRecvUdpCallback
                0x000000004016ab23                SeSecSetRecvEspCallback
                0x000000004016ab43                SeSecSetRecvVirtualIpCallback
                0x000000004016ab63                SeSecSendUdp
                0x000000004016abac                SeSecProcessIkeSaMsgPhase1
                0x000000004016b4b5                SeSecSendIkeSaMsgPhase2
                0x000000004016b9d7                SeSecSendIkeSaMsgPhase2FinalHash
                0x000000004016bb77                SeSecProcessIkeSaMsgPhase2
                0x000000004016bfd6                SeSecSendIkeSaMsgInfo
                0x000000004016c23e                SeSecSendIkeSaMsgInfoSimple
                0x000000004016c2a6                SeSecSendIPsecSaDeleteMsg
                0x000000004016c32a                SeSecFreeIPsecSa
                0x000000004016c3aa                SeSecDeleteExpiredIPsecSa
                0x000000004016c450                SeSecProcessIkeSaMsgInfo
                0x000000004016c775                SeSecProcessIkeSaMsg
                0x000000004016c7c9                SeSecUdpRecvCallback
                0x000000004016ca35                SeSecSendIkeSaDeleteMsg
                0x000000004016cad2                SeSecFreeIkeSa
                0x000000004016cc8b                SeSecFreeSaList
                0x000000004016cd04                SeSecFreeMain
                0x000000004016cd14                SeSecFree
                0x000000004016cd43                SeSecDeleteExpiredIkeSa
                0x000000004016cea6                SeSecStartVpnConnect
                0x000000004016d4da                SeSecProcessMain
                0x000000004016d5cc                SeSecTimerCallback
                0x000000004016d5df                SeSecInitMain
                0x000000004016d604                SeSecInit
                0x000000004016d738                SeSecSendEsp
                0x000000004016d771                SeSecVirtualIpRecvCallback
                0x000000004016d97a                SeSecSendVirtualIp
                0x000000004016d9a2                SeSecEspRecvCallback
                0x000000004016db50                SeMakeCharArray
                0x000000004016db84                SeFreeToken
                0x000000004016dbd2                SeNullTokenList
                0x000000004016dc06                SeDefaultTokenSplitChars
                0x000000004016dc11                Se4BitToHex
                0x000000004016dc26                SeHexTo4Bit
                0x000000004016dc62                SeStrCmp
                0x000000004016dcf6                SeStrnCmp
                0x000000004016ddc3                SeToUpper
                0x000000004016ddd7                SeStrnCmpi
                0x000000004016dea2                SeStrCmpi
                0x000000004016df52                SeToLower
                0x000000004016df66                SeStrCheckLen
                0x000000004016dfa2                SeStrCheckSize
                0x000000004016dfc0                SeStrLen
                0x000000004016dfe7                SeStrSize
                0x000000004016dfff                SeStrCpy
                0x000000004016e0ca                SeStrCat
                0x000000004016e16c                SeStrUpper
                0x000000004016e1ac                SeStrLower
                0x000000004016e1ec                SeToInt64
                0x000000004016e242                SeToInt
                0x000000004016e290                SeToStr64
                0x000000004016e357                SeToStr
                0x000000004016e411                SeToHex
                0x000000004016e4c5                SeToHex64
                0x000000004016e579                SeHexToInt
                0x000000004016e601                SeHexToInt64
                0x000000004016e68b                SeTrimLeft
                0x000000004016e738                SeTrimRight
                0x000000004016e84a                SeTrim
                0x000000004016e86f                SeCopyStr
                0x000000004016e8c4                SeTrimCopy
                0x000000004016e8f1                SeUniqueToken
                0x000000004016ea4b                SeSearchStrEx
                0x000000004016eb9f                SeSearchStri
                0x000000004016ebaf                SeSearchStr
                0x000000004016ebbf                SeCalcReplaceStrEx
                0x000000004016ec7a                SeReplaceStrEx
                0x000000004016edcf                SeReplaceStr
                0x000000004016ede0                SeReplaceStri
                0x000000004016edf1                SeTrimCrlf
                0x000000004016ee38                SeStartWith
                0x000000004016eede                SeEndWith
                0x000000004016ef47                SeIsEmptyStr
                0x000000004016ef91                SeNormalizeCrlf
                0x000000004016f024                SeIsCharInStr
                0x000000004016f07c                SeParseToken
                0x000000004016f217                SeParseTokenWithNullStr
                0x000000004016f374                SeToStr3
                0x000000004016f4c2                SeIsAllUpperStr
                0x000000004016f534                SeIsAllLowerStr
                0x000000004016f5a6                SeFormatEx
                0x000000004016fab9                SeFormatArgs
                0x000000004016fb19                SeFormat
                0x000000004016fb4f                SeBinToStr
                0x000000004016fbf6                SeBinToStrEx
                0x000000004016fc9f                SeMacToStr
                0x000000004016fcf0                SeStrToBin
                0x000000004016fddf                SeStrToBinEx
                0x000000004016fe52                SeStrToMac
                0x000000004016fe65                SeReadNextLine
                0x000000004016ff30                SeVpnRecvIpV6PacketCallback
                0x000000004016ff80                SeVpnRecvIpV4PacketCallback
                0x000000004016ffd0                SeVpnInitIpStack
                0x0000000040170332                SeVpnFreeIpStack
                0x00000000401703d2                SeVpnMainInit
                0x00000000401704eb                SeVpnMainFree
                0x000000004017050f                SeVpnRecvEtherPacket
                0x0000000040170576                SeVpnSendEtherPacket
                0x000000004017059b                SeVpnMainProcRecvEtherPacket
                0x000000004017064a                SeVpnStatusChanged
                0x000000004017065c                SeVpnMainProcess
                0x000000004017075a                SeVpnMainHandler
                0x00000000401707a7                SeVpnEthRecvCallback
                0x00000000401707bf                SeVpnTimerCallback
                0x00000000401707d7                SeVpnTick
                0x00000000401707eb                SeVpnAddTimer
                0x00000000401707ff                SeVpnDoInterval
                0x000000004017086f                SeVpnFreeConfig
                0x000000004017087f                SeVpnFree
                0x00000000401708d0                SeVpnLoadConfig
                0x0000000040171c2e                SeVpnInit
                0x0000000040171d50                SeVpn4ClientSetTimerCallback
                0x0000000040171d63                SeVpn4ClientSetRecvUdpCallback
                0x0000000040171d76                SeVpn4ClientSetRecvEspCallback
                0x0000000040171d89                SeVpn4ClientSetRecvVirtualIpCallback
                0x0000000040171d9c                SeVpn4ClientSendVirtualIp
                0x0000000040171ddb                SeVpn4ClientSendEsp
                0x0000000040171e5b                SeVpn4ClientSendUdp
                0x0000000040171ee6                SeVpn4IPsecSendPing
                0x000000004017202e                SeVpn4IPsecInputFromPhysical
                0x00000000401720f9                SeVpn4IPsecInputFromVirtual
                0x000000004017216d                SeVpn4FreeIPsec
                0x0000000040172181                SeVpn4InitSecConfig
                0x0000000040172362                SeVpn4InitIPsec
                0x0000000040172433                SeVpn4DoInterval
                0x000000004017244b                SeVpn4Tick
                0x0000000040172463                SeVpn4ClientGetTick
                0x0000000040172478                SeVpn4IPsecMainProc
                0x0000000040172500                SeVpn4MainProc
                0x000000004017251b                SeVpn4SetTimer
                0x000000004017252e                SeVpn4ClientAddTimer
                0x0000000040172546                SeVpn4DhcpSendResponse
                0x000000004017265b                SeVpn4DhcpOptionsToBuf
                0x0000000040172719                SeVpn4NewDhcpOption
                0x0000000040172780                SeVpn4DhcpBuildDhcpOptionList
                0x000000004017295e                SeVpn4DhcpSearchOption
                0x000000004017299a                SeVpn4DhcpFreeOptionList
                0x00000000401729f0                SeVpn4DhcpParseOptionListMain
                0x0000000040172ade                SeVpn4DhcpParseOptionList
                0x0000000040172bd1                SeVpn4DhcpServer
                0x0000000040172e9c                SeVpn4RecvPacketPhysical
                0x0000000040172f71                SeVpn4RecvPacketVirtual
                0x00000000401730d3                SeVpn4Init
                0x0000000040173138                SeVpn4Free
                0x0000000040173170                SeVpn6ClientSetTimerCallback
                0x0000000040173183                SeVpn6ClientSetRecvUdpCallback
                0x0000000040173196                SeVpn6ClientSetRecvEspCallback
                0x00000000401731a9                SeVpn6ClientSetRecvVirtualIpCallback
                0x00000000401731bc                SeVpn6ClientSendVirtualIp
                0x00000000401731fb                SeVpn6ClientSendEsp
                0x000000004017329b                SeVpn6ClientSendUdp
                0x0000000040173350                SeVpn6IPsecSendPing
                0x0000000040173536                SeVpn6UpdateGuestOsIpAddress
                0x000000004017360a                SeVpn6IPsecInputFromPhysical
                0x00000000401736d5                SeVpn6IPsecInputFromVirtual
                0x0000000040173709                SeVpn6InitSecConfig
                0x00000000401738fb                SeVpn6InitIPsec
                0x00000000401739dc                SeVpn6FreeIPsec
                0x00000000401739f0                SeVpn6DoInterval
                0x0000000040173a08                SeVpn6Tick
                0x0000000040173a20                SeVpn6ClientGetTick
                0x0000000040173a35                SeVpn6IPsecMainProc
                0x0000000040173ac5                SeVpn6MainProc
                0x0000000040173ae0                SeVpn6SetTimer
                0x0000000040173af3                SeVpn6ClientAddTimer
                0x0000000040173b0b                SeVpn6RecvPacketPhysical
                0x0000000040173b8d                SeVpn6RecvPacketVirtual
                0x0000000040173cc4                SeVpn6Init
                0x0000000040173d3a                SeVpn6Free
                0x0000000040173d70                crypt_sys_rsa_sign
                0x0000000040174105                msg_usb_bulk_read
                0x0000000040174165                msg_usb_bulk_write
                0x00000000401741c5                msg_usb_claim_interface
                0x000000004017420b                msg_usb_close
                0x0000000040174265                msg_usb_control_msg
                0x00000000401742da                msg_usb_find_busses
                0x0000000040174318                msg_usb_find_devices
                0x0000000040174356                msg_usb_get_busses
                0x00000000401743bd                msg_usb_get_string_simple
                0x0000000040174419                msg_usb_init
                0x000000004017442e                msg_usb_open
                0x00000000401744a7                msg_usb_release_interface
                0x00000000401744ed                msg_usb_reset
                0x0000000040174530                IDMan_StReadSetData
                0x0000000040174c15                idman_user_init
                0x0000000040174c70                IDMan_IPIdPassListMalloc
                0x0000000040174d5b                IDMan_IPRetJudgment
                0x0000000040174dd7                IDMan_IPFinalizeReader
                0x0000000040174df9                IDMan_IPFinalize
                0x0000000040174e4f                IDMan_IPInitialize
                0x0000000040174f58                IDMan_IPInitializeReader
                0x0000000040174f85                IDMan_getMemoryFree
                0x0000000040174fcd                IDMan_PaddingParamChk
                0x0000000040175092                IDMan_CmPadding
                0x000000004017524e                IDMan_CmPadding2
                0x00000000401753ca                IDMan_IPgetCertPKCS
                0x0000000040175ac2                IDMan_IPgetCertIdxPKCS
                0x0000000040175f95                IDMan_IPCheckPKC
                0x00000000401761be                IDMan_CheckCardStatus
                0x00000000401761f0                IDMan_IPgSParamChk
                0x0000000040176320                IDMan_IPgIdxSParamChk
                0x0000000040176358                IDMan_IPgetPrivateKey
                0x000000004017654b                IDMan_IPgetHash
                0x0000000040176642                IDMan_IPCrSignature
                0x00000000401767aa                IDMan_generateSignature
                0x00000000401768e4                IDMan_generateSignatureByIndex
                0x0000000040176a0b                IDMan_EncryptByIndex
                0x0000000040176b34                IDMan_IPgCParamChk
                0x0000000040176c26                IDMan_getCertificate
                0x0000000040176f48                IDMan_IPgCIndexParamChk
                0x0000000040176f81                IDMan_getCertificateByIndex
                0x0000000040177318                IDMan_getStaticPassword
                0x0000000040177630                IDMan_IPuAPKCS11ParamChk
                0x0000000040177731                IDMan_IPuAPKCS11IdxParamChk
                0x0000000040177758                IDMan_IPgetCertPkeyPKCSx
                0x0000000040177c1b                IDMan_IPgetCertPkeyIdxPKCSx
                0x0000000040178044                IDMan_IPgetCertPkeyPKCSy
                0x0000000040178192                IDMan_IPCheckCrlPkcX
                0x00000000401782cf                IDMan_IPgetMakeRandData
                0x0000000040178347                IDMan_IPMkRandHash
                0x0000000040178404                IDMan_IPgetPrivateKeyPKCSx
                0x00000000401785d7                IDMan_IPSignatureVerify
                0x0000000040178750                IDMan_userAuthPKCS11
                0x0000000040178bd5                IDMan_userAuthPKCS11ByIndex
                0x0000000040179060                IDMan_IPvSParamChk
                0x00000000401791de                IDMan_IPvSIdxParamChk
                0x0000000040179241                IDMan_IPMkPublicKeyObj
                0x0000000040179385                IDMan_IPCheckSignature
                0x000000004017953f                IDMan_verifySignature
                0x000000004017971c                IDMan_verifySignatureByIndex
                0x00000000401798e0                CardEstablishContext
                0x00000000401798f8                CardReleaseContext
                0x0000000040179929                CardListReaders
                0x0000000040179941                CardConnect
                0x000000004017997f                CardDisconnect
                0x000000004017999c                CardStatus
                0x00000000401799ed                CardTransmit
                0x0000000040179a29                SelectFileDF
                0x0000000040179b1c                SelectFileEF
                0x0000000040179c07                Verify
                0x0000000040179d1b                InternalAuth
                0x0000000040179e5f                ReadBinary
                0x000000004017a44f                UpdateBinary
                0x000000004017a579                GetICCardData
                0x000000004017a960                GetUlByTxt
                0x000000004017a99f                GetVerByTex
                0x000000004017aa87                GetUlByByte
                0x000000004017aacc                TransHex2Tex
                0x000000004017ab5f                TransTex2Hex
                0x000000004017ac16                GetLength
                0x000000004017ac83                SetLength
                0x000000004017ace8                GetTlvByBuf
                0x000000004017b065                GetDirDataByTlv
                0x000000004017b18a                GetOdfDataByTlv
                0x000000004017b2fd                GetTokenDataByTlv
                0x000000004017b763                AddObjTblByTlv
                0x000000004017be07                AddCertDataByBuf
                0x000000004017bf0d                AddIdPassDataByBuf
                0x000000004017c2ad                GetValueData
                0x000000004017c650                AddElem
                0x000000004017c6ee                SetElem
                0x000000004017c7b5                GetElem
                0x000000004017c7f1                GetAttrValType
                0x000000004017c965                DestroyAttribute
                0x000000004017c9af                DestroyTlvData
                0x000000004017c9c4                DestroyElem
                0x000000004017ca4a                DestroyList
                0x000000004017ca87                DestroySessionData
                0x000000004017cac5                DestroyTokenData
                0x000000004017cb25                DestroySlotData
                0x000000004017cb61                DelElem
                0x000000004017cbd0                C_GetFunctionList
                0x000000004017cbe2                C_Initialize
                0x000000004017cd4f                C_Finalize
                0x000000004017cdea                C_GetInfo
                0x000000004017ce70                C_GetSlotList
                0x000000004017d754                C_GetSlotInfo
                0x000000004017d83c                C_GetTokenInfo
                0x000000004017e073                C_GetMechanismList
                0x000000004017e144                C_GetMechanismInfo
                0x000000004017e200                C_OpenSession
                0x000000004017e3bb                C_CloseSession
                0x000000004017e494                C_CloseAllSessions
                0x000000004017e5a0                C_GetSessionInfo
                0x000000004017e61c                C_Login
                0x000000004017ea73                C_Logout
                0x000000004017eb8a                C_FindObjectsInit
                0x000000004017ee01                C_FindObjects
                0x000000004017f35a                C_FindObjectsFinal
                0x000000004017f3d0                C_GetAttributeValue
                0x000000004017f6f1                C_SignInit
                0x000000004017f7b8                C_Sign
                0x000000004017fb3f                C_DigestInit
                0x000000004017fbba                C_DigestUpdate
                0x000000004017fc42                C_DigestFinal
                0x000000004017fd89                C_VerifyInit
                0x000000004017fe50                C_Verify
                0x000000004017ffc2                C_CreateObject
                0x000000004018026f                C_DestroyObject
                0x000000004018032f                C_SetAttributeValue
                0x0000000040180f39                C_GetCardStatus
                0x0000000040180fd0                IDMan_StFree
                0x0000000040180fe0                IDMan_StMemcpy
                0x0000000040181004                IDMan_StMemset
                0x0000000040181022                IDMan_StMalloc
                0x0000000040181069                IDMan_StMemcmp
                0x00000000401810c2                IDMan_StStrlen
                0x00000000401810dc                IDMan_StStrcat
                0x0000000040181119                IDMan_StStrchr
                0x0000000040181156                IDMan_StStrcpy
                0x000000004018117d                IDMan_StStrcmp
                0x00000000401811c8                StIsspace
                0x0000000040181245                StIsdigit
                0x0000000040181257                IDMan_StAtoi
                0x00000000401812b3                IDMan_StAtol
                0x000000004018131b                IDMan_CmMkHash
                0x00000000401814d6                IDMan_CmChgRSA
                0x000000004018169f                IDMan_CmGetDN
                0x0000000040181946                IDMan_CmGetCertificateSign
                0x0000000040181b70                IDMan_CmGetPublicKey
                0x0000000040181d4c                IDMan_CmMakeRand
                0x0000000040181dea                IDMan_CmCheckCRL
                0x0000000040182170                IDMan_SCardEstablishContext
                0x000000004018218d                IDMan_SCardReleaseContext
                0x0000000040182198                IDMan_SCardListReaders
                0x00000000401821c8                IDMan_SCardConnect
                0x00000000401821f8                IDMan_SCardDisconnect
                0x0000000040182203                IDMan_SCardStatus
                0x0000000040182285                IDMan_SCardSizeLongToChar
                0x00000000401822c6                IDMan_SCardSetBinay
                0x0000000040182665                IDMan_SCardTransmit
                0x00000000401826d0                EHDestroyEventHandler
                0x000000004018273d                EHInitEventHandler
                0x00000000401827f3                EHStatusHandler
                0x0000000040182990                HPSearchHotPluggables
                0x0000000040182ce0                PHGetProtocol
                0x00000000401830bb                PHSetProtocol
                0x0000000040183124                RFAddReader
                0x000000004018323f                RFRemoveReader
                0x00000000401832f9                RFReaderInfoById
                0x0000000040183329                RFCheckReaderEventState
                0x0000000040183360                SCardEstablishContext
                0x0000000040183450                SCardListReaders
                0x00000000401834fd                SCardConnect
                0x0000000040183781                SCardDisconnect
                0x0000000040183932                SCardBeginTransaction
                0x0000000040183986                SCardEndTransaction
                0x0000000040183b4e                SCardStatus
                0x0000000040183d59                SCardReleaseContext
                0x0000000040183e1f                SCardTransmit
                0x0000000040184070                SetATR
                0x00000000401842dd                GetIFSCData
                0x0000000040184333                GetBWICWIData
                0x00000000401843d1                IFDHCloseChannel
                0x000000004018445d                IFDHGetCapabilities
                0x000000004018449c                IFDHSetProtocolParameters
                0x0000000040184b9b                IFDHPowerICC
                0x0000000040184d9a                IFDHTransmitToICC
                0x000000004018505a                IFDHControl
                0x0000000040185173                IFDHICCPresence
                0x0000000040185228                IFDHCreateChannel
                0x00000000401852dc                FindBaudRateTable
                0x000000004018531c                ExchangePPSData
                0x0000000040185a06                InitLeaderCardProtocol
                0x0000000040185b1f                T1XfrBlockTPDU
                0x000000004018618c                T1NegociateIFSD
                0x00000000401862d4                CardStateConfirm
                0x0000000040186309                GetCardStatus
                0x0000000040186400                PowerOn
                0x00000000401865c0                PowerOff
                0x0000000040186728                CardMechanical
                0x0000000040186840                TransmitPPS
                0x00000000401869da                TransmitCommand
                0x0000000040186aa7                ReceiveReply
                0x0000000040186c6c                BlockSendCardT1
                0x0000000040186ec4                ReadDataT0
                0x0000000040186f89                T0XfrBlockCHAR
                0x000000004018750f                T0XfrBlockTPDU
                0x0000000040187591                T1XfrBlockExtendedAPDU
                0x000000004018790b                OpenUSB
                0x0000000040187ca5                WriteUSB
                0x0000000040187cd6                ReadUSB
                0x0000000040187d34                CloseUSB
                0x0000000040187da4                AES_set_encrypt_key
                0x00000000401881b0                AES_set_decrypt_key
                0x00000000401883d6                AES_encrypt
                0x000000004018888f                AES_decrypt
                0x0000000040188d30                BIO_set
                0x0000000040188e05                BIO_new
                0x0000000040188e7e                BIO_free
                0x0000000040188f2d                BIO_vfree
                0x0000000040188f38                BIO_clear_flags
                0x0000000040188f43                BIO_test_flags
                0x0000000040188f4e                BIO_set_flags
                0x0000000040188f57                BIO_get_callback
                0x0000000040188f61                BIO_set_callback
                0x0000000040188f6b                BIO_set_callback_arg
                0x0000000040188f75                BIO_get_callback_arg
                0x0000000040188f7f                BIO_method_name
                0x0000000040188f8c                BIO_method_type
                0x0000000040188f97                BIO_read
                0x0000000040189092                BIO_write
                0x0000000040189196                BIO_puts
                0x0000000040189288                BIO_gets
                0x0000000040189378                BIO_indent
                0x00000000401893bd                BIO_ctrl
                0x0000000040189493                BIO_ptr_ctrl
                0x00000000401894be                BIO_int_ctrl
                0x00000000401894d4                BIO_callback_ctrl
                0x00000000401895a0                BIO_ctrl_pending
                0x00000000401895ba                BIO_ctrl_wpending
                0x00000000401895d4                BIO_push
                0x0000000040189622                BIO_pop
                0x0000000040189687                BIO_get_retry_BIO
                0x00000000401896d6                BIO_get_retry_reason
                0x00000000401896df                BIO_find_type
                0x0000000040189714                BIO_next
                0x000000004018972a                BIO_free_all
                0x0000000040189758                BIO_dup_chain
                0x0000000040189847                BIO_copy_next_retry
                0x0000000040189874                BIO_get_ex_new_index
                0x0000000040189893                BIO_set_ex_data
                0x00000000401898a2                BIO_get_ex_data
                0x00000000401898b1                BIO_number_read
                0x00000000401898c5                BIO_number_written
                0x0000000040189a2f                BN_set_params
                0x0000000040189ac2                BN_get_params
                0x0000000040189af7                BN_value_one
                0x0000000040189b02                BN_options
                0x0000000040189b44                BN_num_bits_word
                0x0000000040189b9f                BN_num_bits
                0x0000000040189bc9                BN_clear_free
                0x0000000040189c30                BN_free
                0x0000000040189c79                BN_init
                0x0000000040189c8e                BN_new
                0x0000000040189d01                bn_expand2
                0x0000000040189d59                BN_copy
                0x0000000040189e47                BN_dup
                0x0000000040189e9b                bn_dup_expand
                0x0000000040189f1d                BN_swap
                0x0000000040189f80                BN_clear
                0x0000000040189fb9                BN_get_word
                0x0000000040189fdb                BN_set_word
                0x000000004018a03e                BN_bin2bn
                0x000000004018a181                BN_bn2bin
                0x000000004018a1ef                BN_ucmp
                0x000000004018a23c                BN_cmp
                0x000000004018a2f0                BN_set_bit
                0x000000004018a3b5                BN_clear_bit
                0x000000004018a433                BN_is_bit_set
                0x000000004018a470                BN_mask_bits
                0x000000004018a50c                BN_set_negative
                0x000000004018a52c                bn_cmp_words
                0x000000004018a58e                bn_cmp_part_words
                0x000000004018a620                BN_bn2hex
                0x000000004018a706                BN_bn2dec
                0x000000004018a915                BN_hex2bn
                0x000000004018aaf2                BN_dec2bn
                0x000000004018aca3                BN_asc2bn
                0x000000004018ad13                BN_print
                0x000000004018b1f7                BN_pseudo_rand
                0x000000004018b211                BN_rand
                0x000000004018b22b                BN_bntest_rand
                0x000000004018b245                BN_rand_range
                0x000000004018b25b                BN_pseudo_rand_range
                0x000000004018b280                BN_mod_word
                0x000000004018b2d5                BN_div_word
                0x000000004018b3bb                BN_sub_word
                0x000000004018b4ba                BN_add_word
                0x000000004018b58d                BN_mul_word
                0x000000004018ba74                BIO_s_mem
                0x000000004018ba7f                BIO_new_mem_buf
                0x000000004018baf8                BUF_MEM_new
                0x000000004018bb5f                BUF_MEM_free
                0x000000004018bb9f                BUF_MEM_grow
                0x000000004018bc99                BUF_MEM_grow_clean
                0x000000004018bdaf                BUF_memdup
                0x000000004018be24                BUF_strlcpy
                0x000000004018be88                BUF_strndup
                0x000000004018bf07                BUF_strdup
                0x000000004018bf33                BUF_strlcat
                0x000000004018bf6d                BUF_reverse
                0x000000004018bfc4                OpenSSL_add_all_ciphers
                0x000000004018c470                OpenSSL_add_all_digests
                0x000000004018c5e0                CRYPTO_get_new_lockid
                0x000000004018c698                CRYPTO_num_locks
                0x000000004018c6a3                CRYPTO_get_dynlock_create_callback
                0x000000004018c6b0                CRYPTO_get_dynlock_lock_callback
                0x000000004018c6bd                CRYPTO_get_dynlock_destroy_callback
                0x000000004018c6ca                CRYPTO_set_dynlock_create_callback
                0x000000004018c6d7                CRYPTO_set_dynlock_lock_callback
                0x000000004018c6e4                CRYPTO_set_dynlock_destroy_callback
                0x000000004018c6f1                CRYPTO_get_locking_callback
                0x000000004018c6fe                CRYPTO_get_add_lock_callback
                0x000000004018c70b                CRYPTO_set_locking_callback
                0x000000004018c718                CRYPTO_set_add_lock_callback
                0x000000004018c725                CRYPTO_THREADID_set_numeric
                0x000000004018c758                CRYPTO_THREADID_set_pointer
                0x000000004018c78e                CRYPTO_THREADID_set_callback
                0x000000004018c7ac                CRYPTO_THREADID_get_callback
                0x000000004018c7b9                CRYPTO_THREADID_current
                0x000000004018c803                CRYPTO_THREADID_cmp
                0x000000004018c813                CRYPTO_THREADID_cpy
                0x000000004018c823                CRYPTO_THREADID_hash
                0x000000004018c82d                CRYPTO_get_id_callback
                0x000000004018c83a                CRYPTO_set_id_callback
                0x000000004018c847                CRYPTO_thread_id
                0x000000004018c860                CRYPTO_get_lock_name
                0x000000004018c8b3                OPENSSL_ia32cap_loc
                0x000000004018c8be                OPENSSL_cpuid_setup
                0x000000004018c8c4                OPENSSL_showfatal
                0x000000004018c90f                OPENSSL_isservice
                0x000000004018c91a                OpenSSLDie
                0x000000004018c93c                CRYPTO_lock
                0x000000004018c9d3                CRYPTO_add_lock
                0x000000004018ca57                CRYPTO_get_dynlock_value
                0x000000004018caf6                CRYPTO_destroy_dynlockid
                0x000000004018cbee                CRYPTO_get_new_dynlockid
                0x000000004018ce0a                OPENSSL_stderr
                0x000000004018ce18                DES_encrypt1
                0x000000004018d226                DES_encrypt2
                0x000000004018d531                DES_encrypt3
                0x000000004018d68e                DES_decrypt3
                0x000000004018d7ee                DES_ncbc_encrypt
                0x000000004018de2b                DES_ede3_cbc_encrypt
                0x000000004018e886                DH_generate_key
                0x000000004018e896                DH_compute_key
                0x000000004018e8a6                DH_OpenSSL
                0x000000004018e8b4                DH_set_default_method
                0x000000004018e8c1                DH_get_default_method
                0x000000004018e8e4                DH_set_method
                0x000000004018e931                DH_new_method
                0x000000004018ea47                DH_new
                0x000000004018ea57                DH_free
                0x000000004018eb37                DH_up_ref
                0x000000004018eb64                DH_get_ex_new_index
                0x000000004018eb83                DH_set_ex_data
                0x000000004018eb92                DH_get_ex_data
                0x000000004018eba1                DH_size
                0x000000004018f8aa                EVP_aes_128_cbc
                0x000000004018f8b5                EVP_aes_128_cfb128
                0x000000004018f8c0                EVP_aes_128_ofb
                0x000000004018f8cb                EVP_aes_128_ecb
                0x000000004018f8d6                EVP_aes_192_cbc
                0x000000004018f8e1                EVP_aes_192_cfb128
                0x000000004018f8ec                EVP_aes_192_ofb
                0x000000004018f8f7                EVP_aes_192_ecb
                0x000000004018f902                EVP_aes_256_cbc
                0x000000004018f90d                EVP_aes_256_cfb128
                0x000000004018f918                EVP_aes_256_ofb
                0x000000004018f923                EVP_aes_256_ecb
                0x000000004018f92e                EVP_aes_128_cfb1
                0x000000004018f939                EVP_aes_192_cfb1
                0x000000004018f944                EVP_aes_256_cfb1
                0x000000004018f94f                EVP_aes_128_cfb8
                0x000000004018f95a                EVP_aes_192_cfb8
                0x000000004018f965                EVP_aes_256_cfb8
                0x000000004018fc86                EVP_bf_cbc
                0x000000004018fc91                EVP_bf_cfb64
                0x000000004018fc9c                EVP_bf_ofb
                0x000000004018fca7                EVP_bf_ecb
                0x000000004018ffca                EVP_cast5_cbc
                0x000000004018ffd5                EVP_cast5_cfb64
                0x000000004018ffe0                EVP_cast5_ofb
                0x000000004018ffeb                EVP_cast5_ecb
                0x00000000401905ab                EVP_des_cbc
                0x00000000401905b6                EVP_des_cfb64
                0x00000000401905c1                EVP_des_ofb
                0x00000000401905cc                EVP_des_ecb
                0x00000000401905d7                EVP_des_cfb1
                0x00000000401905e2                EVP_des_cfb8
                0x0000000040190c16                EVP_des_ede_cbc
                0x0000000040190c21                EVP_des_ede_cfb64
                0x0000000040190c2c                EVP_des_ede_ofb
                0x0000000040190c37                EVP_des_ede_ecb
                0x0000000040190c42                EVP_des_ede3_cbc
                0x0000000040190c4d                EVP_des_ede3_cfb64
                0x0000000040190c58                EVP_des_ede3_ofb
                0x0000000040190c63                EVP_des_ede3_ecb
                0x0000000040190c6e                EVP_des_ede3_cfb1
                0x0000000040190c79                EVP_des_ede3_cfb8
                0x0000000040190c84                EVP_des_ede
                0x0000000040190c8f                EVP_des_ede3
                0x0000000040191017                EVP_idea_cbc
                0x0000000040191022                EVP_idea_cfb64
                0x000000004019102d                EVP_idea_ofb
                0x0000000040191038                EVP_idea_ecb
                0x000000004019157f                EVP_rc2_cbc
                0x000000004019158a                EVP_rc2_cfb64
                0x0000000040191595                EVP_rc2_ofb
                0x00000000401915a0                EVP_rc2_ecb
                0x00000000401915ab                EVP_rc2_64_cbc
                0x00000000401915b6                EVP_rc2_40_cbc
                0x0000000040191619                EVP_rc4
                0x0000000040191624                EVP_rc4_40
                0x000000004019179a                EVP_desx_cbc
                0x00000000401917a8                DES_ecb3_encrypt
                0x0000000040191878                DES_options
                0x00000000401918cc                DES_ecb_encrypt
                0x0000000040192094                ERR_get_implementation
                0x00000000401920a6                ERR_set_implementation
                0x000000004019210f                ERR_load_ERR_strings
                0x0000000040192241                ERR_load_strings
                0x0000000040192271                ERR_unload_strings
                0x00000000401922c3                ERR_free_strings
                0x00000000401922d8                ERR_get_string_table
                0x00000000401922f1                ERR_get_err_state_table
                0x000000004019230b                ERR_release_err_state_table
                0x0000000040192330                ERR_lib_error_string
                0x0000000040192370                ERR_func_error_string
                0x00000000401923b0                ERR_reason_error_string
                0x000000004019241f                ERR_error_string_n
                0x0000000040192597                ERR_error_string
                0x00000000401925c6                ERR_remove_thread_state
                0x000000004019260b                ERR_remove_state
                0x000000004019261b                ERR_get_state
                0x0000000040192913                ERR_peek_last_error_line_data
                0x0000000040192934                ERR_peek_last_error_line
                0x000000004019295b                ERR_peek_last_error
                0x0000000040192986                ERR_peek_error_line_data
                0x00000000401929a7                ERR_peek_error_line
                0x00000000401929ce                ERR_peek_error
                0x00000000401929f9                ERR_get_error_line_data
                0x0000000040192a1a                ERR_get_error_line
                0x0000000040192a41                ERR_get_error
                0x0000000040192a6c                ERR_clear_error
                0x0000000040192b27                ERR_put_error
                0x0000000040192c2f                ERR_get_next_error_library
                0x0000000040192c44                ERR_set_error_data
                0x0000000040192cc1                ERR_add_error_data
                0x0000000040192dfe                ERR_set_mark
                0x0000000040192e29                ERR_pop_to_mark
                0x0000000040192f00                ERR_load_crypto_strings
                0x0000000040192f9c                ASN1_TYPE_set_octetstring
                0x0000000040193014                ASN1_TYPE_get_octetstring
                0x0000000040193070                ASN1_TYPE_set_int_octetstring
                0x000000004019319d                ASN1_TYPE_get_int_octetstring
                0x0000000040193390                EVP_CIPHER_CTX_init
                0x00000000401933a5                EVP_CIPHER_CTX_new
                0x00000000401933dc                EVP_EncryptUpdate
                0x0000000040193588                EVP_EncryptFinal_ex
                0x000000004019365c                EVP_EncryptFinal
                0x0000000040193667                EVP_DecryptUpdate
                0x0000000040193796                EVP_CipherUpdate
                0x00000000401937b1                EVP_DecryptFinal_ex
                0x000000004019394c                EVP_DecryptFinal
                0x0000000040193957                EVP_CipherFinal
                0x0000000040193977                EVP_CipherFinal_ex
                0x0000000040193997                EVP_CIPHER_CTX_cleanup
                0x0000000040193a02                EVP_CIPHER_CTX_free
                0x0000000040193a27                EVP_CIPHER_CTX_set_padding
                0x0000000040193a48                EVP_CIPHER_CTX_ctrl
                0x0000000040193ad8                EVP_CIPHER_CTX_set_key_length
                0x0000000040193b39                EVP_CipherInit_ex
                0x0000000040193d8a                EVP_DecryptInit_ex
                0x0000000040193d9b                EVP_EncryptInit_ex
                0x0000000040193dac                EVP_CipherInit
                0x0000000040193e10                EVP_DecryptInit
                0x0000000040193e21                EVP_EncryptInit
                0x0000000040193e32                EVP_CIPHER_CTX_rand_key
                0x0000000040193e68                EVP_CIPHER_CTX_copy
                0x0000000040193f48                ERR_load_EVP_strings
                0x0000000040193f80                EVP_CIPHER_param_to_asn1
                0x0000000040193f9b                EVP_CIPHER_asn1_to_param
                0x0000000040193fb6                EVP_CIPHER_block_size
                0x0000000040193fbf                EVP_CIPHER_CTX_block_size
                0x0000000040193fcb                EVP_Cipher
                0x0000000040193fd9                EVP_CIPHER_CTX_cipher
                0x0000000040193fe2                EVP_CIPHER_flags
                0x0000000040193fec                EVP_CIPHER_CTX_flags
                0x0000000040193ff9                EVP_CIPHER_CTX_get_app_data
                0x0000000040194003                EVP_CIPHER_CTX_set_app_data
                0x000000004019400d                EVP_CIPHER_iv_length
                0x0000000040194016                EVP_CIPHER_CTX_iv_length
                0x0000000040194022                EVP_CIPHER_set_asn1_iv
                0x0000000040194084                EVP_CIPHER_get_asn1_iv
                0x000000004019411c                EVP_CIPHER_key_length
                0x0000000040194125                EVP_CIPHER_CTX_key_length
                0x000000004019412e                EVP_CIPHER_nid
                0x0000000040194136                EVP_CIPHER_type
                0x0000000040194275                EVP_CIPHER_CTX_nid
                0x0000000040194280                EVP_MD_block_size
                0x0000000040194289                EVP_MD_type
                0x0000000040194291                EVP_MD_pkey_type
                0x000000004019429a                EVP_MD_size
                0x00000000401942cc                EVP_MD_flags
                0x00000000401942d6                EVP_MD_CTX_md
                0x00000000401942eb                EVP_MD_CTX_set_flags
                0x00000000401942f8                EVP_MD_CTX_clear_flags
                0x0000000040194307                EVP_MD_CTX_test_flags
                0x0000000040194312                EVP_CIPHER_CTX_set_flags
                0x000000004019431f                EVP_CIPHER_CTX_clear_flags
                0x000000004019432e                EVP_CIPHER_CTX_test_flags
                0x0000000040194749                CRYPTO_get_ex_data_implementation
                0x0000000040194765                CRYPTO_set_ex_data_implementation
                0x00000000401947ce                CRYPTO_ex_data_new_class
                0x00000000401947ec                CRYPTO_cleanup_all_ex_data
                0x000000004019480b                CRYPTO_get_ex_new_index
                0x000000004019487a                CRYPTO_new_ex_data
                0x00000000401948c7                CRYPTO_dup_ex_data
                0x0000000040194914                CRYPTO_free_ex_data
                0x0000000040194961                CRYPTO_set_ex_data
                0x0000000040194a1a                CRYPTO_get_ex_data
                0x0000000040194f14                idea_encrypt
                0x0000000040195858                idea_cbc_encrypt
                0x0000000040195e80                idea_cfb64_encrypt
                0x00000000401960a0                idea_options
                0x00000000401960ab                idea_ecb_encrypt
                0x0000000040196164                idea_ofb64_encrypt
                0x000000004019639d                idea_set_encrypt_key
                0x0000000040196526                idea_set_decrypt_key
                0x000000004019671d                lh_strhash
                0x0000000040196790                lh_new
                0x00000000401968f1                lh_free
                0x000000004019695c                lh_insert
                0x0000000040196ae8                lh_delete
                0x0000000040196c14                lh_retrieve
                0x0000000040196c57                lh_doall
                0x0000000040196c75                lh_doall_arg
                0x0000000040196c90                lh_num_items
                0x0000000040196cd7                EVP_dss
                0x0000000040196d17                EVP_dss1
                0x0000000040196d57                EVP_ecdsa
                0x0000000040196d97                EVP_md4
                0x0000000040196dd7                EVP_md5
                0x0000000040196e17                EVP_ripemd160
                0x0000000040196e57                EVP_sha
                0x0000000040196f1b                EVP_sha1
                0x0000000040196f26                EVP_sha224
                0x0000000040196f31                EVP_sha256
                0x0000000040196f3c                EVP_sha384
                0x0000000040196f47                EVP_sha512
                0x0000000040196f54                MD4_Init
                0x0000000040196f96                md4_block_data_order
                0x0000000040197559                MD4_Final
                0x0000000040197626                MD4_Transform
                0x0000000040197636                MD4_Update
                0x0000000040197778                MD5_Init
                0x00000000401977ba                md5_block_data_order
                0x0000000040197ffa                MD5_Final
                0x00000000401980c7                MD5_Transform
                0x00000000401980d7                MD5_Update
                0x0000000040198218                MD5
                0x00000000401982b4                CRYPTO_set_mem_functions
                0x0000000040198324                CRYPTO_set_mem_ex_functions
                0x0000000040198394                CRYPTO_set_locked_mem_functions
                0x00000000401983d4                CRYPTO_set_locked_mem_ex_functions
                0x0000000040198414                CRYPTO_set_mem_debug_functions
                0x000000004019844d                CRYPTO_get_mem_functions
                0x00000000401984a2                CRYPTO_get_mem_ex_functions
                0x00000000401984f3                CRYPTO_get_locked_mem_functions
                0x0000000040198528                CRYPTO_get_locked_mem_ex_functions
                0x000000004019855b                CRYPTO_get_mem_debug_functions
                0x00000000401985ac                CRYPTO_malloc_locked
                0x0000000040198668                CRYPTO_free_locked
                0x00000000401986af                CRYPTO_malloc
                0x000000004019876b                CRYPTO_strdup
                0x00000000401987ba                CRYPTO_realloc
                0x0000000040198875                CRYPTO_realloc_clean
                0x0000000040198950                CRYPTO_free
                0x0000000040198997                CRYPTO_remalloc
                0x00000000401989c4                CRYPTO_set_mem_debug_options
                0x00000000401989d8                CRYPTO_get_mem_debug_options
                0x00000000401989f4                OPENSSL_cleanse
                0x0000000040198e6c                CRYPTO_mem_ctrl
                0x0000000040198ff6                CRYPTO_is_mem_check_on
                0x0000000040199072                CRYPTO_dbg_set_options
                0x000000004019907f                CRYPTO_dbg_get_options
                0x000000004019908c                CRYPTO_push_info_
                0x000000004019916b                CRYPTO_pop_info
                0x00000000401991ad                CRYPTO_remove_all_info
                0x00000000401991f0                CRYPTO_dbg_malloc
                0x000000004019938f                CRYPTO_dbg_free
                0x0000000040199404                CRYPTO_dbg_realloc
                0x00000000401994a4                CRYPTO_mem_leaks
                0x00000000401995c3                CRYPTO_mem_leaks_cb
                0x000000004019969e                EVP_add_cipher
                0x00000000401996ea                EVP_add_digest
                0x000000004019978b                EVP_get_cipherbyname
                0x000000004019979b                EVP_get_digestbyname
                0x00000000401997ab                EVP_cleanup
                0x00000000401997f1                EVP_CIPHER_do_all
                0x0000000040199816                EVP_CIPHER_do_all_sorted
                0x000000004019983b                EVP_MD_do_all
                0x0000000040199860                EVP_MD_do_all_sorted
                0x0000000040199994                OBJ_NAME_init
                0x00000000401999e1                OBJ_NAME_new_index
                0x0000000040199b49                OBJ_NAME_get
                0x0000000040199bec                OBJ_NAME_add
                0x0000000040199cd3                OBJ_NAME_remove
                0x0000000040199d7e                OBJ_NAME_do_all
                0x0000000040199da8                OBJ_NAME_do_all_sorted
                0x0000000040199e4b                OBJ_NAME_cleanup
                0x000000004019a11a                check_defer
                0x000000004019a13b                OBJ_cleanup
                0x000000004019a1ad                OBJ_new_nid
                0x000000004019a1c1                OBJ_add_object
                0x000000004019a373                OBJ_nid2obj
                0x000000004019a42f                OBJ_nid2sn
                0x000000004019a4ee                OBJ_nid2ln
                0x000000004019a5ae                OBJ_bsearch_ex_
                0x000000004019a6a7                OBJ_bsearch_
                0x000000004019a6b8                OBJ_sn2nid
                0x000000004019a734                OBJ_ln2nid
                0x000000004019a7b0                OBJ_txt2obj
                0x000000004019a8b8                OBJ_obj2nid
                0x000000004019a940                OBJ_txt2nid
                0x000000004019a97d                OBJ_obj2txt
                0x000000004019acd0                OBJ_create
                0x000000004019add5                OBJ_create_objects
                0x000000004019af28                ERR_load_OBJ_strings
                0x000000004019af60                OBJ_dup
                0x000000004019b13a                OBJ_cmp
                0x000000004019b158                ERR_load_OCSP_strings
                0x000000004019b190                DES_ede3_ofb64_encrypt
                0x000000004019b360                DES_ofb64_encrypt
                0x000000004019b681                EVP_PKEY_bits
                0x000000004019b6a5                EVP_PKEY_size
                0x000000004019b6c9                EVP_PKEY_save_parameters
                0x000000004019b6fb                EVP_PKEY_missing_parameters
                0x000000004019b71a                EVP_PKEY_copy_parameters
                0x000000004019b7ba                EVP_PKEY_cmp_parameters
                0x000000004019b7f0                EVP_PKEY_cmp
                0x000000004019b84b                EVP_PKEY_new
                0x000000004019b8d6                EVP_PKEY_set_type
                0x000000004019b8eb                EVP_PKEY_set_type_str
                0x000000004019b900                EVP_PKEY_assign
                0x000000004019b93d                EVP_PKEY_get0
                0x000000004019b947                EVP_PKEY_set1_RSA
                0x000000004019b981                EVP_PKEY_get1_RSA
                0x000000004019b9cc                EVP_PKEY_set1_DSA
                0x000000004019ba06                EVP_PKEY_get1_DSA
                0x000000004019ba51                EVP_PKEY_set1_EC_KEY
                0x000000004019ba8b                EVP_PKEY_get1_EC_KEY
                0x000000004019bad9                EVP_PKEY_set1_DH
                0x000000004019bb13                EVP_PKEY_get1_DH
                0x000000004019bb5e                EVP_PKEY_type
                0x000000004019bb81                EVP_PKEY_id
                0x000000004019bb89                EVP_PKEY_base_id
                0x000000004019bb96                EVP_PKEY_free
                0x000000004019bbf3                EVP_PKEY_print_public
                0x000000004019bc19                EVP_PKEY_print_private
                0x000000004019bc41                EVP_PKEY_print_params
                0x000000004019bc6a                EVP_PKEY_get_default_digest_nid
                0x000000004019bca4                PEM_read_bio_X509_REQ
                0x000000004019bcc5                PEM_write_bio_X509_REQ
                0x000000004019bd09                PEM_write_bio_X509_REQ_NEW
                0x000000004019bd4d                PEM_read_bio_X509_CRL
                0x000000004019bd6e                PEM_write_bio_X509_CRL
                0x000000004019bdb2                PEM_read_bio_PKCS7
                0x000000004019bdd3                PEM_write_bio_PKCS7
                0x000000004019be17                PEM_read_bio_NETSCAPE_CERT_SEQUENCE
                0x000000004019be38                PEM_write_bio_NETSCAPE_CERT_SEQUENCE
                0x000000004019be7c                PEM_read_bio_RSAPrivateKey
                0x000000004019bee5                PEM_write_bio_RSAPrivateKey
                0x000000004019bf1c                PEM_read_bio_RSAPublicKey
                0x000000004019bf3d                PEM_write_bio_RSAPublicKey
                0x000000004019bf81                PEM_read_bio_RSA_PUBKEY
                0x000000004019bfa2                PEM_write_bio_RSA_PUBKEY
                0x000000004019bfe6                PEM_read_bio_DSAPrivateKey
                0x000000004019c04f                PEM_write_bio_DSAPrivateKey
                0x000000004019c086                PEM_read_bio_DSA_PUBKEY
                0x000000004019c0a7                PEM_write_bio_DSA_PUBKEY
                0x000000004019c0eb                PEM_read_bio_DSAparams
                0x000000004019c10c                PEM_write_bio_DSAparams
                0x000000004019c150                PEM_read_bio_ECPrivateKey
                0x000000004019c1b9                PEM_read_bio_ECPKParameters
                0x000000004019c1da                PEM_write_bio_ECPKParameters
                0x000000004019c21e                PEM_write_bio_ECPrivateKey
                0x000000004019c255                PEM_read_bio_EC_PUBKEY
                0x000000004019c276                PEM_write_bio_EC_PUBKEY
                0x000000004019c2ba                PEM_read_bio_DHparams
                0x000000004019c2db                PEM_write_bio_DHparams
                0x000000004019c31f                PEM_read_bio_PUBKEY
                0x000000004019c340                PEM_write_bio_PUBKEY
                0x000000004019c384                ERR_load_PEM_strings
                0x000000004019c3c0                PEM_def_callback
                0x000000004019c3ea                PEM_proc_type
                0x000000004019c452                PEM_dek_info
                0x000000004019c511                PEM_do_header
                0x000000004019c6ea                PEM_get_EVP_CIPHER_INFO
                0x000000004019c989                PEM_write_bio
                0x000000004019cc58                PEM_ASN1_write_bio
                0x000000004019d073                PEM_read_bio
                0x000000004019d75c                pem_check_suffix
                0x000000004019d7d1                PEM_bytes_read_bio
                0x000000004019db1c                PEM_ASN1_read_bio
                0x000000004019dbc8                PEM_read_bio_PrivateKey
                0x000000004019de24                PEM_write_bio_PrivateKey
                0x000000004019def0                PEM_read_bio_Parameters
                0x000000004019e012                PEM_write_bio_Parameters
                0x000000004019e094                PEM_read_bio_X509
                0x000000004019e0b5                PEM_write_bio_X509
                0x000000004019e0fc                ERR_load_PKCS12_strings
                0x000000004019e20a                d2i_PKCS7
                0x000000004019e21a                i2d_PKCS7
                0x000000004019e22a                PKCS7_new
                0x000000004019e23a                PKCS7_free
                0x000000004019e24a                i2d_PKCS7_NDEF
                0x000000004019e25a                PKCS7_dup
                0x000000004019e26d                d2i_PKCS7_SIGNED
                0x000000004019e27d                i2d_PKCS7_SIGNED
                0x000000004019e28d                PKCS7_SIGNED_new
                0x000000004019e29d                PKCS7_SIGNED_free
                0x000000004019e2ad                d2i_PKCS7_SIGNER_INFO
                0x000000004019e2bd                i2d_PKCS7_SIGNER_INFO
                0x000000004019e2cd                PKCS7_SIGNER_INFO_new
                0x000000004019e2dd                PKCS7_SIGNER_INFO_free
                0x000000004019e2ed                d2i_PKCS7_ISSUER_AND_SERIAL
                0x000000004019e2fd                i2d_PKCS7_ISSUER_AND_SERIAL
                0x000000004019e30d                PKCS7_ISSUER_AND_SERIAL_new
                0x000000004019e31d                PKCS7_ISSUER_AND_SERIAL_free
                0x000000004019e32d                d2i_PKCS7_ENVELOPE
                0x000000004019e33d                i2d_PKCS7_ENVELOPE
                0x000000004019e34d                PKCS7_ENVELOPE_new
                0x000000004019e35d                PKCS7_ENVELOPE_free
                0x000000004019e36d                d2i_PKCS7_RECIP_INFO
                0x000000004019e37d                i2d_PKCS7_RECIP_INFO
                0x000000004019e38d                PKCS7_RECIP_INFO_new
                0x000000004019e39d                PKCS7_RECIP_INFO_free
                0x000000004019e3ad                d2i_PKCS7_ENC_CONTENT
                0x000000004019e3bd                i2d_PKCS7_ENC_CONTENT
                0x000000004019e3cd                PKCS7_ENC_CONTENT_new
                0x000000004019e3dd                PKCS7_ENC_CONTENT_free
                0x000000004019e3ed                d2i_PKCS7_SIGN_ENVELOPE
                0x000000004019e3fd                i2d_PKCS7_SIGN_ENVELOPE
                0x000000004019e40d                PKCS7_SIGN_ENVELOPE_new
                0x000000004019e41d                PKCS7_SIGN_ENVELOPE_free
                0x000000004019e42d                d2i_PKCS7_ENCRYPT
                0x000000004019e43d                i2d_PKCS7_ENCRYPT
                0x000000004019e44d                PKCS7_ENCRYPT_new
                0x000000004019e45d                PKCS7_ENCRYPT_free
                0x000000004019e46d                d2i_PKCS7_DIGEST
                0x000000004019e47d                i2d_PKCS7_DIGEST
                0x000000004019e48d                PKCS7_DIGEST_new
                0x000000004019e49d                PKCS7_DIGEST_free
                0x000000004019e4ad                PKCS7_print_ctx
                0x000000004019ea29                PKCS7_dataInit
                0x000000004019f0fe                PKCS7_dataDecode
                0x000000004019f7a5                PKCS7_SIGNER_INFO_sign
                0x000000004019f96e                PKCS7_get_issuer_and_serial
                0x000000004019f9dd                PKCS7_get_signed_attribute
                0x000000004019f9ec                PKCS7_dataFinal
                0x000000004019ff9e                PKCS7_get_attribute
                0x000000004019ffad                PKCS7_digest_from_attributes
                0x000000004019ffcd                PKCS7_signatureVerify
                0x00000000401a02d4                PKCS7_dataVerify
                0x00000000401a0452                PKCS7_set_signed_attributes
                0x00000000401a04e5                PKCS7_set_attributes
                0x00000000401a0578                PKCS7_add_signed_attribute
                0x00000000401a0587                PKCS7_add_attribute
                0x00000000401a05a0                PKCS7_ctrl
                0x00000000401a06dc                PKCS7_set_content
                0x00000000401a076d                PKCS7_set_type
                0x00000000401a097e                PKCS7_content_new
                0x00000000401a09ea                PKCS7_set0_type_other
                0x00000000401a0a1e                PKCS7_add_signer
                0x00000000401a0b7b                PKCS7_add_certificate
                0x00000000401a0c5c                PKCS7_add_crl
                0x00000000401a0d3c                PKCS7_SIGNER_INFO_set
                0x00000000401a0eac                PKCS7_add_signature
                0x00000000401a0f80                PKCS7_set_digest
                0x00000000401a104c                PKCS7_get_signer_info
                0x00000000401a1095                PKCS7_SIGNER_INFO_get0_algs
                0x00000000401a10bf                PKCS7_RECIP_INFO_get0_alg
                0x00000000401a10d1                PKCS7_add_recipient_info
                0x00000000401a1140                PKCS7_RECIP_INFO_set
                0x00000000401a12cb                PKCS7_add_recipient
                0x00000000401a1330                PKCS7_cert_from_signer_info
                0x00000000401a1382                PKCS7_set_cipher
                0x00000000401a141c                PKCS7_stream
                0x00000000401a14e8                ERR_load_PKCS7_strings
                0x00000000401a1520                ERR_load_RAND_strings
                0x00000000401a1558                DES_random_key
                0x00000000401a15a0                RAND_set_rand_method
                0x00000000401a15b2                RAND_get_rand_method
                0x00000000401a15d5                RAND_cleanup
                0x00000000401a15fa                RAND_seed
                0x00000000401a1632                RAND_add
                0x00000000401a167b                RAND_bytes
                0x00000000401a16c2                RAND_pseudo_bytes
                0x00000000401a1709                RAND_status
                0x00000000401a172c                RC2_encrypt
                0x00000000401a188a                RC2_decrypt
                0x00000000401a19f0                RC2_cbc_encrypt
                0x00000000401a2018                RC2_ecb_encrypt
                0x00000000401a20e0                RC2_set_key
                0x00000000401a2210                RC2_cfb64_encrypt
                0x00000000401a2424                RC2_ofb64_encrypt
                0x00000000401a25d8                RC4
                0x00000000401a2a74                RC4_options
                0x00000000401a2a7f                RC4_set_key
                0x00000000401a2b84                RIPEMD160_Init
                0x00000000401a2bcd                ripemd160_block_data_order
                0x00000000401a4222                RIPEMD160_Final
                0x00000000401a42f7                RIPEMD160_Transform
                0x00000000401a4307                RIPEMD160_Update
                0x00000000401a4492                d2i_RSAPrivateKey
                0x00000000401a44a2                i2d_RSAPrivateKey
                0x00000000401a44b2                d2i_RSAPublicKey
                0x00000000401a44c2                i2d_RSAPublicKey
                0x00000000401a44d2                RSAPublicKey_dup
                0x00000000401a44e5                RSAPrivateKey_dup
                0x00000000401a4500                RSA_generate_key
                0x00000000401a45c0                ERR_load_RSA_strings
                0x00000000401a4600                RSA_generate_key_ex
                0x00000000401a4bd0                RSA_set_default_method
                0x00000000401a4bdd                RSA_get_default_method
                0x00000000401a4c00                RSA_get_method
                0x00000000401a4c0a                RSA_set_method
                0x00000000401a4c51                RSA_new_method
                0x00000000401a4d9d                RSA_new
                0x00000000401a4dad                RSA_free
                0x00000000401a4ebd                RSA_up_ref
                0x00000000401a4eea                RSA_get_ex_new_index
                0x00000000401a4f09                RSA_set_ex_data
                0x00000000401a4f18                RSA_get_ex_data
                0x00000000401a4f27                RSA_size
                0x00000000401a4f42                RSA_public_encrypt
                0x00000000401a4f4f                RSA_private_encrypt
                0x00000000401a4f5c                RSA_private_decrypt
                0x00000000401a4f69                RSA_public_decrypt
                0x00000000401a4f76                RSA_flags
                0x00000000401a4f8d                RSA_blinding_off
                0x00000000401a4fc7                RSA_setup_blinding
                0x00000000401a5270                RSA_blinding_on
                0x00000000401a52ce                RSA_memory_lock
                0x00000000401a5420                RSA_sign
                0x00000000401a5685                int_rsa_verify
                0x00000000401a5a1f                RSA_verify
                0x00000000401a5a60                DES_set_odd_parity
                0x00000000401a5a83                DES_check_key_parity
                0x00000000401a5ac4                DES_is_weak_key
                0x00000000401a5b13                DES_set_key_unchecked
                0x00000000401a5db7                DES_set_key_checked
                0x00000000401a5e08                DES_set_key
                0x00000000401a5e2c                DES_key_sched
                0x00000000401a5e38                SHA1
                0x00000000401a6feb                SHA1_Update
                0x00000000401a712a                SHA1_Transform
                0x00000000401a713a                SHA1_Final
                0x00000000401a721d                SHA1_Init
                0x00000000401a8a80                SHA224_Init
                0x00000000401a8ae5                SHA256_Init
                0x00000000401a8b4a                SHA256_Update
                0x00000000401a8c89                SHA224_Update
                0x00000000401a8c94                SHA256_Transform
                0x00000000401a8ca4                SHA256_Final
                0x00000000401a8dce                SHA224_Final
                0x00000000401a8dd9                SHA256
                0x00000000401a8e54                SHA224
                0x00000000401aa6c5                SHA384_Init
                0x00000000401aa763                SHA512_Init
                0x00000000401aa801                SHA512_Final
                0x00000000401aaa66                SHA384_Final
                0x00000000401aaa71                SHA512_Update
                0x00000000401aab81                SHA384_Update
                0x00000000401aab8c                SHA512_Transform
                0x00000000401aab9c                SHA384
                0x00000000401aac17                SHA512
                0x00000000401abc67                SHA_Update
                0x00000000401abda6                SHA_Transform
                0x00000000401abdb6                SHA_Final
                0x00000000401abe99                SHA_Init
                0x00000000401abef0                sk_set_cmp_func
                0x00000000401abf0a                sk_new
                0x00000000401abfa7                sk_new_null
                0x00000000401abfb7                sk_insert
                0x00000000401ac072                sk_delete
                0x00000000401ac0ce                sk_delete_ptr
                0x00000000401ac114                sk_push
                0x00000000401ac121                sk_unshift
                0x00000000401ac131                sk_shift
                0x00000000401ac157                sk_pop
                0x00000000401ac17c                sk_zero
                0x00000000401ac1b1                sk_free
                0x00000000401ac1df                sk_pop_free
                0x00000000401ac231                sk_dup
                0x00000000401ac2b7                sk_num
                0x00000000401ac2cb                sk_value
                0x00000000401ac2fa                sk_set
                0x00000000401ac32e                sk_sort
                0x00000000401ac40c                sk_find_ex
                0x00000000401ac41c                sk_find
                0x00000000401ac42c                sk_is_sorted
                0x00000000401ac8d2                ASN1_tag2bit
                0x00000000401ac8ed                asn1_ex_c2i
                0x00000000401ad13d                ASN1_item_ex_d2i
                0x00000000401ae01a                ASN1_template_d2i
                0x00000000401ae037                ASN1_item_d2i
                0x00000000401ae0e1                asn1_ex_i2c
                0x00000000401ae3aa                ASN1_item_ex_i2d
                0x00000000401aec09                ASN1_template_i2d
                0x00000000401aece5                ASN1_item_i2d
                0x00000000401aecf5                ASN1_item_ndef_i2d
                0x00000000401aed10                ASN1_primitive_free
                0x00000000401af036                ASN1_template_free
                0x00000000401af0ba                ASN1_item_ex_free
                0x00000000401af0ca                ASN1_item_free
                0x00000000401af1b2                ASN1_primitive_new
                0x00000000401af5dc                ASN1_template_new
                0x00000000401af669                ASN1_item_ex_new
                0x00000000401af679                ASN1_item_new
                0x00000000401af6a8                d2i_ASN1_INTEGER
                0x00000000401af6b8                i2d_ASN1_INTEGER
                0x00000000401af6c8                ASN1_INTEGER_new
                0x00000000401af6d8                ASN1_INTEGER_free
                0x00000000401af6e8                d2i_ASN1_ENUMERATED
                0x00000000401af6f8                i2d_ASN1_ENUMERATED
                0x00000000401af708                ASN1_ENUMERATED_new
                0x00000000401af718                ASN1_ENUMERATED_free
                0x00000000401af728                d2i_ASN1_BIT_STRING
                0x00000000401af738                i2d_ASN1_BIT_STRING
                0x00000000401af748                ASN1_BIT_STRING_new
                0x00000000401af758                ASN1_BIT_STRING_free
                0x00000000401af768                d2i_ASN1_OCTET_STRING
                0x00000000401af778                i2d_ASN1_OCTET_STRING
                0x00000000401af788                ASN1_OCTET_STRING_new
                0x00000000401af798                ASN1_OCTET_STRING_free
                0x00000000401af7a8                d2i_ASN1_NULL
                0x00000000401af7b8                i2d_ASN1_NULL
                0x00000000401af7c8                ASN1_NULL_new
                0x00000000401af7d8                ASN1_NULL_free
                0x00000000401af7e8                d2i_ASN1_UTF8STRING
                0x00000000401af7f8                i2d_ASN1_UTF8STRING
                0x00000000401af808                ASN1_UTF8STRING_new
                0x00000000401af818                ASN1_UTF8STRING_free
                0x00000000401af828                d2i_ASN1_PRINTABLESTRING
                0x00000000401af838                i2d_ASN1_PRINTABLESTRING
                0x00000000401af848                ASN1_PRINTABLESTRING_new
                0x00000000401af858                ASN1_PRINTABLESTRING_free
                0x00000000401af868                d2i_ASN1_T61STRING
                0x00000000401af878                i2d_ASN1_T61STRING
                0x00000000401af888                ASN1_T61STRING_new
                0x00000000401af898                ASN1_T61STRING_free
                0x00000000401af8a8                d2i_ASN1_IA5STRING
                0x00000000401af8b8                i2d_ASN1_IA5STRING
                0x00000000401af8c8                ASN1_IA5STRING_new
                0x00000000401af8d8                ASN1_IA5STRING_free
                0x00000000401af8e8                d2i_ASN1_GENERALSTRING
                0x00000000401af8f8                i2d_ASN1_GENERALSTRING
                0x00000000401af908                ASN1_GENERALSTRING_new
                0x00000000401af918                ASN1_GENERALSTRING_free
                0x00000000401af928                d2i_ASN1_UTCTIME
                0x00000000401af938                i2d_ASN1_UTCTIME
                0x00000000401af948                ASN1_UTCTIME_new
                0x00000000401af958                ASN1_UTCTIME_free
                0x00000000401af968                d2i_ASN1_GENERALIZEDTIME
                0x00000000401af978                i2d_ASN1_GENERALIZEDTIME
                0x00000000401af988                ASN1_GENERALIZEDTIME_new
                0x00000000401af998                ASN1_GENERALIZEDTIME_free
                0x00000000401af9a8                d2i_ASN1_VISIBLESTRING
                0x00000000401af9b8                i2d_ASN1_VISIBLESTRING
                0x00000000401af9c8                ASN1_VISIBLESTRING_new
                0x00000000401af9d8                ASN1_VISIBLESTRING_free
                0x00000000401af9e8                d2i_ASN1_UNIVERSALSTRING
                0x00000000401af9f8                i2d_ASN1_UNIVERSALSTRING
                0x00000000401afa08                ASN1_UNIVERSALSTRING_new
                0x00000000401afa18                ASN1_UNIVERSALSTRING_free
                0x00000000401afa28                d2i_ASN1_BMPSTRING
                0x00000000401afa38                i2d_ASN1_BMPSTRING
                0x00000000401afa48                ASN1_BMPSTRING_new
                0x00000000401afa58                ASN1_BMPSTRING_free
                0x00000000401afa68                d2i_ASN1_TYPE
                0x00000000401afa78                i2d_ASN1_TYPE
                0x00000000401afa88                ASN1_TYPE_new
                0x00000000401afa98                ASN1_TYPE_free
                0x00000000401afaa8                d2i_ASN1_PRINTABLE
                0x00000000401afab8                i2d_ASN1_PRINTABLE
                0x00000000401afac8                ASN1_PRINTABLE_new
                0x00000000401afad8                ASN1_PRINTABLE_free
                0x00000000401afae8                d2i_DISPLAYTEXT
                0x00000000401afaf8                i2d_DISPLAYTEXT
                0x00000000401afb08                DISPLAYTEXT_new
                0x00000000401afb18                DISPLAYTEXT_free
                0x00000000401afb28                d2i_DIRECTORYSTRING
                0x00000000401afb38                i2d_DIRECTORYSTRING
                0x00000000401afb48                DIRECTORYSTRING_new
                0x00000000401afb58                DIRECTORYSTRING_free
                0x00000000401afb68                d2i_ASN1_SEQUENCE_ANY
                0x00000000401afb78                i2d_ASN1_SEQUENCE_ANY
                0x00000000401afb88                d2i_ASN1_SET_ANY
                0x00000000401afb98                i2d_ASN1_SET_ANY
                0x00000000401afbf3                asn1_get_choice_selector
                0x00000000401afc03                asn1_set_choice_selector
                0x00000000401afc17                asn1_do_lock
                0x00000000401afc71                asn1_enc_init
                0x00000000401afc97                asn1_enc_free
                0x00000000401afcd7                asn1_enc_save
                0x00000000401afd61                asn1_enc_restore
                0x00000000401afddb                asn1_get_field_ptr
                0x00000000401afdf3                asn1_do_adb
                0x00000000401afeb0                ERR_load_UI_strings
                0x00000000401afee8                ERR_load_X509V3_strings
                0x00000000401aff20                X509_issuer_and_serial_hash
                0x00000000401affef                X509_CRL_match
                0x00000000401b0007                X509_get_issuer_name
                0x00000000401b0014                X509_get_subject_name
                0x00000000401b0021                X509_get_serialNumber
                0x00000000401b002e                X509_cmp
                0x00000000401b0088                X509_NAME_cmp
                0x00000000401b0101                X509_CRL_cmp
                0x00000000401b011a                X509_subject_name_cmp
                0x00000000401b0133                X509_issuer_name_cmp
                0x00000000401b014c                X509_issuer_and_serial_cmp
                0x00000000401b018c                X509_NAME_hash
                0x00000000401b01f2                X509_subject_name_hash
                0x00000000401b0204                X509_issuer_name_hash
                0x00000000401b0216                X509_NAME_hash_old
                0x00000000401b027f                X509_subject_name_hash_old
                0x00000000401b0291                X509_issuer_name_hash_old
                0x00000000401b02a3                X509_find_by_issuer_and_serial
                0x00000000401b0326                X509_find_by_subject
                0x00000000401b0383                X509_get_pubkey
                0x00000000401b03ab                X509_get0_pubkey_bitstr
                0x00000000401b03c8                X509_check_private_key
                0x00000000401b0484                ERR_load_X509_strings
                0x00000000401b04bc                X509_NAME_oneline
                0x00000000401b0cfa                X509_time_adj_ex
                0x00000000401b0d47                X509_time_adj
                0x00000000401b0d5d                X509_gmtime_adj
                0x00000000401b0d6d                X509_cmp_time
                0x00000000401b1e32                X509_cmp_current_time
                0x00000000401b1e42                X509_get_pubkey_parameters
                0x00000000401b1f6e                X509_verify_cert
                0x00000000401b2901                X509_STORE_CTX_get_ex_new_index
                0x00000000401b2920                X509_STORE_CTX_set_ex_data
                0x00000000401b2932                X509_STORE_CTX_get_ex_data
                0x00000000401b2944                X509_STORE_CTX_get_error
                0x00000000401b2950                X509_STORE_CTX_set_error
                0x00000000401b295c                X509_STORE_CTX_get_error_depth
                0x00000000401b2968                X509_STORE_CTX_get_current_cert
                0x00000000401b2975                X509_STORE_CTX_get_chain
                0x00000000401b2982                X509_STORE_CTX_get1_chain
                0x00000000401b29ee                X509_STORE_CTX_get0_current_issuer
                0x00000000401b29fb                X509_STORE_CTX_get0_current_crl
                0x00000000401b2a08                X509_STORE_CTX_get0_parent_ctx
                0x00000000401b2a15                X509_STORE_CTX_set_cert
                0x00000000401b2a1f                X509_STORE_CTX_set_chain
                0x00000000401b2a29                X509_STORE_CTX_set0_crls
                0x00000000401b2a33                X509_STORE_CTX_purpose_inherit
                0x00000000401b2b60                X509_STORE_CTX_set_trust
                0x00000000401b2b77                X509_STORE_CTX_set_purpose
                0x00000000401b2b8e                X509_STORE_CTX_new
                0x00000000401b2bf0                X509_STORE_CTX_init
                0x00000000401b2f4f                X509_STORE_CTX_trusted_stack
                0x00000000401b2f61                X509_STORE_CTX_cleanup
                0x00000000401b3004                X509_STORE_CTX_free
                0x00000000401b3024                X509_STORE_CTX_set_depth
                0x00000000401b3033                X509_STORE_CTX_set_flags
                0x00000000401b3042                X509_STORE_CTX_set_time
                0x00000000401b3053                X509_STORE_CTX_set_verify_cb
                0x00000000401b305d                X509_STORE_CTX_get0_policy_tree
                0x00000000401b306a                X509_STORE_CTX_get_explicit_policy
                0x00000000401b3076                X509_STORE_CTX_set_default
                0x00000000401b30a7                X509_STORE_CTX_get0_param
                0x00000000401b30b1                X509_STORE_CTX_set0_param
                0x00000000401b34a7                X509_VERIFY_PARAM_free
                0x00000000401b34c7                X509_VERIFY_PARAM_new
                0x00000000401b350b                X509_VERIFY_PARAM_set1_name
                0x00000000401b354c                X509_VERIFY_PARAM_set_flags
                0x00000000401b3570                X509_VERIFY_PARAM_clear_flags
                0x00000000401b3582                X509_VERIFY_PARAM_get_flags
                0x00000000401b358c                X509_VERIFY_PARAM_set_purpose
                0x00000000401b359b                X509_VERIFY_PARAM_set_trust
                0x00000000401b35aa                X509_VERIFY_PARAM_set_depth
                0x00000000401b35b3                X509_VERIFY_PARAM_set_time
                0x00000000401b35c1                X509_VERIFY_PARAM_add0_policy
                0x00000000401b3612                X509_VERIFY_PARAM_set1_policies
                0x00000000401b36d9                X509_VERIFY_PARAM_inherit
                0x00000000401b37ef                X509_VERIFY_PARAM_set1
                0x00000000401b3824                X509_VERIFY_PARAM_get_depth
                0x00000000401b382d                X509_VERIFY_PARAM_add0_table
                0x00000000401b38b4                X509_VERIFY_PARAM_lookup
                0x00000000401b390a                X509_VERIFY_PARAM_table_cleanup
                0x00000000401b3934                d2i_X509_ALGOR
                0x00000000401b3944                i2d_X509_ALGOR
                0x00000000401b3954                X509_ALGOR_new
                0x00000000401b3964                X509_ALGOR_free
                0x00000000401b3974                d2i_X509_ALGORS
                0x00000000401b3984                i2d_X509_ALGORS
                0x00000000401b3994                X509_ALGOR_dup
                0x00000000401b39a7                X509_ALGOR_set0
                0x00000000401b3a59                X509_ALGOR_get0
                0x00000000401b3a94                X509_verify
                0x00000000401b3ab5                X509_REQ_verify
                0x00000000401b3ad6                NETSCAPE_SPKI_verify
                0x00000000401b3af7                X509_sign
                0x00000000401b3b31                X509_REQ_sign
                0x00000000401b3b5f                X509_CRL_sign
                0x00000000401b3b99                NETSCAPE_SPKI_sign
                0x00000000401b3bc7                d2i_X509_bio
                0x00000000401b3bdd                i2d_X509_bio
                0x00000000401b3bf3                d2i_X509_CRL_bio
                0x00000000401b3c09                i2d_X509_CRL_bio
                0x00000000401b3c1f                d2i_PKCS7_bio
                0x00000000401b3c35                i2d_PKCS7_bio
                0x00000000401b3c4b                d2i_X509_REQ_bio
                0x00000000401b3c61                i2d_X509_REQ_bio
                0x00000000401b3c77                d2i_RSAPrivateKey_bio
                0x00000000401b3c8d                i2d_RSAPrivateKey_bio
                0x00000000401b3ca3                d2i_RSAPublicKey_bio
                0x00000000401b3cb9                d2i_RSA_PUBKEY_bio
                0x00000000401b3cd4                i2d_RSAPublicKey_bio
                0x00000000401b3cea                i2d_RSA_PUBKEY_bio
                0x00000000401b3d00                d2i_DSAPrivateKey_bio
                0x00000000401b3d1b                i2d_DSAPrivateKey_bio
                0x00000000401b3d31                d2i_DSA_PUBKEY_bio
                0x00000000401b3d4c                i2d_DSA_PUBKEY_bio
                0x00000000401b3d62                d2i_EC_PUBKEY_bio
                0x00000000401b3d7d                i2d_EC_PUBKEY_bio
                0x00000000401b3d93                d2i_ECPrivateKey_bio
                0x00000000401b3dae                i2d_ECPrivateKey_bio
                0x00000000401b3dc4                X509_pubkey_digest
                0x00000000401b3e1c                X509_digest
                0x00000000401b3e35                X509_CRL_digest
                0x00000000401b3e4e                X509_REQ_digest
                0x00000000401b3e67                X509_NAME_digest
                0x00000000401b3e80                PKCS7_ISSUER_AND_SERIAL_digest
                0x00000000401b3e99                d2i_PKCS8_bio
                0x00000000401b3eb4                i2d_PKCS8_bio
                0x00000000401b3eca                d2i_PKCS8_PRIV_KEY_INFO_bio
                0x00000000401b3ee5                i2d_PKCS8_PRIV_KEY_INFO_bio
                0x00000000401b3efb                i2d_PKCS8PrivateKeyInfo_bio
                0x00000000401b3f4f                i2d_PrivateKey_bio
                0x00000000401b3f65                d2i_PrivateKey_bio
                0x00000000401b3f80                i2d_PUBKEY_bio
                0x00000000401b3f96                d2i_PUBKEY_bio
                0x00000000401b3fb4                d2i_X509_ATTRIBUTE
                0x00000000401b3fc4                i2d_X509_ATTRIBUTE
                0x00000000401b3fd4                X509_ATTRIBUTE_new
                0x00000000401b3fe4                X509_ATTRIBUTE_free
                0x00000000401b3ff4                X509_ATTRIBUTE_dup
                0x00000000401b4007                X509_ATTRIBUTE_create
                0x00000000401b483e                d2i_X509_REVOKED
                0x00000000401b484e                i2d_X509_REVOKED
                0x00000000401b485e                X509_REVOKED_new
                0x00000000401b486e                X509_REVOKED_free
                0x00000000401b487e                d2i_X509_CRL_INFO
                0x00000000401b488e                i2d_X509_CRL_INFO
                0x00000000401b489e                X509_CRL_INFO_new
                0x00000000401b48ae                X509_CRL_INFO_free
                0x00000000401b48be                d2i_X509_CRL
                0x00000000401b48ce                i2d_X509_CRL
                0x00000000401b48de                X509_CRL_new
                0x00000000401b48ee                X509_CRL_free
                0x00000000401b48fe                X509_CRL_dup
                0x00000000401b4911                X509_CRL_add0_revoked
                0x00000000401b4992                X509_CRL_verify
                0x00000000401b49ac                X509_CRL_get0_by_serial
                0x00000000401b49cc                X509_CRL_get0_by_cert
                0x00000000401b4a3b                X509_CRL_set_default_method
                0x00000000401b4a54                X509_CRL_METHOD_new
                0x00000000401b4ab9                X509_CRL_METHOD_free
                0x00000000401b4ac9                X509_CRL_set_meth_data
                0x00000000401b4ad3                X509_CRL_get_meth_data
                0x00000000401b4ae0                d2i_X509_EXTENSION
                0x00000000401b4af0                i2d_X509_EXTENSION
                0x00000000401b4b00                X509_EXTENSION_new
                0x00000000401b4b10                X509_EXTENSION_free
                0x00000000401b4b20                d2i_X509_EXTENSIONS
                0x00000000401b4b30                i2d_X509_EXTENSIONS
                0x00000000401b4b40                X509_EXTENSION_dup
                0x00000000401b4edd                X509_NAME_ENTRY_free
                0x00000000401b4eed                d2i_X509_NAME_ENTRY
                0x00000000401b4efd                i2d_X509_NAME_ENTRY
                0x00000000401b4f0d                X509_NAME_ENTRY_new
                0x00000000401b543c                X509_NAME_ENTRY_dup
                0x00000000401b544f                d2i_X509_NAME
                0x00000000401b545f                i2d_X509_NAME
                0x00000000401b546f                X509_NAME_new
                0x00000000401b547f                X509_NAME_free
                0x00000000401b5631                X509_NAME_dup
                0x00000000401b5644                X509_NAME_set
                0x00000000401b56bc                d2i_X509_PUBKEY
                0x00000000401b56cc                i2d_X509_PUBKEY
                0x00000000401b56dc                X509_PUBKEY_new
                0x00000000401b56ec                X509_PUBKEY_free
                0x00000000401b56fc                X509_PUBKEY_set
                0x00000000401b57ed                X509_PUBKEY_get
                0x00000000401b594c                d2i_PUBKEY
                0x00000000401b59b5                i2d_PUBKEY
                0x00000000401b5a0d                d2i_RSA_PUBKEY
                0x00000000401b5a92                i2d_RSA_PUBKEY
                0x00000000401b5b1f                d2i_DSA_PUBKEY
                0x00000000401b5ba4                i2d_DSA_PUBKEY
                0x00000000401b5c31                d2i_EC_PUBKEY
                0x00000000401b5cb6                i2d_EC_PUBKEY
                0x00000000401b5d43                X509_PUBKEY_set0_param
                0x00000000401b5dc0                X509_PUBKEY_get0_param
                0x00000000401b5e2b                d2i_X509_REQ_INFO
                0x00000000401b5e3b                i2d_X509_REQ_INFO
                0x00000000401b5e4b                X509_REQ_INFO_new
                0x00000000401b5e5b                X509_REQ_INFO_free
                0x00000000401b5e6b                d2i_X509_REQ
                0x00000000401b5e7b                i2d_X509_REQ
                0x00000000401b5e8b                X509_REQ_new
                0x00000000401b5e9b                X509_REQ_free
                0x00000000401b5eab                X509_REQ_dup
                0x00000000401b5ec0                d2i_X509_SIG
                0x00000000401b5ed0                i2d_X509_SIG
                0x00000000401b5ee0                X509_SIG_new
                0x00000000401b5ef0                X509_SIG_free
                0x00000000401b5f00                d2i_NETSCAPE_SPKAC
                0x00000000401b5f10                i2d_NETSCAPE_SPKAC
                0x00000000401b5f20                NETSCAPE_SPKAC_new
                0x00000000401b5f30                NETSCAPE_SPKAC_free
                0x00000000401b5f40                d2i_NETSCAPE_SPKI
                0x00000000401b5f50                i2d_NETSCAPE_SPKI
                0x00000000401b5f60                NETSCAPE_SPKI_new
                0x00000000401b5f70                NETSCAPE_SPKI_free
                0x00000000401b609c                d2i_X509_CINF
                0x00000000401b60ac                i2d_X509_CINF
                0x00000000401b60bc                X509_CINF_new
                0x00000000401b60cc                X509_CINF_free
                0x00000000401b60dc                d2i_X509
                0x00000000401b60ec                i2d_X509
                0x00000000401b60fc                X509_new
                0x00000000401b610c                X509_free
                0x00000000401b611c                X509_dup
                0x00000000401b612f                X509_get_ex_new_index
                0x00000000401b614e                X509_set_ex_data
                0x00000000401b615d                X509_get_ex_data
                0x00000000401b616c                d2i_X509_AUX
                0x00000000401b61dc                i2d_X509_AUX
                0x00000000401b6228                d2i_X509_CERT_AUX
                0x00000000401b6238                i2d_X509_CERT_AUX
                0x00000000401b6248                X509_CERT_AUX_new
                0x00000000401b62a0                X509_CERT_AUX_free
                0x00000000401b62b0                X509_alias_set1
                0x00000000401b6358                X509_keyid_set1
                0x00000000401b6400                X509_alias_get0
                0x00000000401b6441                X509_keyid_get0
                0x00000000401b6482                X509_add1_trust_object
                0x00000000401b64ef                X509_add1_reject_object
                0x00000000401b6551                X509_trust_clear
                0x00000000401b6590                X509_reject_clear
                0x00000000401b65d1                d2i_X509_CERT_PAIR
                0x00000000401b65e1                i2d_X509_CERT_PAIR
                0x00000000401b65f1                X509_CERT_PAIR_new
                0x00000000401b6601                X509_CERT_PAIR_free
                0x00000000401b6614                DES_xcbc_encrypt
                0x00000000401b6d8c                ERR_load_TS_strings
                0x00000000401b6dc4                ERR_load_CMS_strings
                0x00000000401b6e46                OBJ_find_sigid_algs
                0x00000000401b6ece                OBJ_find_sigid_by_algs
                0x00000000401b6f56                OBJ_add_sigid
                0x00000000401b7064                OBJ_sigid_free
                0x00000000401b70db                EVP_whirlpool
                0x00000000401b710b                EVP_PKEY_meth_find
                0x00000000401b7184                EVP_PKEY_meth_new
                0x00000000401b72a2                EVP_PKEY_meth_free
                0x00000000401b72b8                EVP_PKEY_meth_add0
                0x00000000401b731b                EVP_PKEY_CTX_free
                0x00000000401b736a                EVP_PKEY_CTX_dup
                0x00000000401b75a0                EVP_PKEY_CTX_new_id
                0x00000000401b75b2                EVP_PKEY_CTX_new
                0x00000000401b75c2                EVP_PKEY_CTX_ctrl
                0x00000000401b76ba                EVP_PKEY_CTX_ctrl_str
                0x00000000401b779f                EVP_PKEY_CTX_get_operation
                0x00000000401b77a8                EVP_PKEY_CTX_set0_keygen_info
                0x00000000401b77b5                EVP_PKEY_CTX_set_data
                0x00000000401b77bf                EVP_PKEY_CTX_get_data
                0x00000000401b77c9                EVP_PKEY_CTX_get0_pkey
                0x00000000401b77d3                EVP_PKEY_CTX_get0_peerkey
                0x00000000401b77dd                EVP_PKEY_CTX_set_app_data
                0x00000000401b77e7                EVP_PKEY_CTX_get_app_data
                0x00000000401b77f1                EVP_PKEY_meth_set_init
                0x00000000401b77fb                EVP_PKEY_meth_set_copy
                0x00000000401b7805                EVP_PKEY_meth_set_cleanup
                0x00000000401b780f                EVP_PKEY_meth_set_paramgen
                0x00000000401b781d                EVP_PKEY_meth_set_keygen
                0x00000000401b782b                EVP_PKEY_meth_set_sign
                0x00000000401b7839                EVP_PKEY_meth_set_verify
                0x00000000401b7847                EVP_PKEY_meth_set_verify_recover
                0x00000000401b7855                EVP_PKEY_meth_set_signctx
                0x00000000401b7863                EVP_PKEY_meth_set_verifyctx
                0x00000000401b7877                EVP_PKEY_meth_set_encrypt
                0x00000000401b788b                EVP_PKEY_meth_set_decrypt
                0x00000000401b789f                EVP_PKEY_meth_set_derive
                0x00000000401b78b3                EVP_PKEY_meth_set_ctrl
                0x00000000401b78e3                EVP_PKEY_asn1_get_count
                0x00000000401b7902                EVP_PKEY_asn1_get0
                0x00000000401b7932                EVP_PKEY_asn1_find
                0x00000000401b79d5                EVP_PKEY_asn1_find_str
                0x00000000401b7a5c                EVP_PKEY_asn1_add0
                0x00000000401b7abf                EVP_PKEY_asn1_get0_info
                0x00000000401b7b11                EVP_PKEY_get0_asn1
                0x00000000401b7b1b                EVP_PKEY_asn1_copy
                0x00000000401b7be3                EVP_PKEY_asn1_free
                0x00000000401b7c25                EVP_PKEY_asn1_new
                0x00000000401b7d9a                EVP_PKEY_asn1_add_alias
                0x00000000401b7dd7                EVP_PKEY_asn1_set_public
                0x00000000401b7df9                EVP_PKEY_asn1_set_private
                0x00000000401b7e0b                EVP_PKEY_asn1_set_param
                0x00000000401b7e36                EVP_PKEY_asn1_set_free
                0x00000000401b7e43                EVP_PKEY_asn1_set_ctrl
                0x00000000401b7e50                EVP_PKEY_sign_init
                0x00000000401b7ebf                EVP_PKEY_sign
                0x00000000401b7fcb                EVP_PKEY_verify_init
                0x00000000401b803a                EVP_PKEY_verify
                0x00000000401b80aa                EVP_PKEY_verify_recover_init
                0x00000000401b8119                EVP_PKEY_verify_recover
                0x00000000401b8225                EVP_PKEY_encrypt_init
                0x00000000401b829a                EVP_PKEY_encrypt
                0x00000000401b83af                EVP_PKEY_decrypt_init
                0x00000000401b8424                EVP_PKEY_decrypt
                0x00000000401b8539                EVP_PKEY_derive_init
                0x00000000401b85ae                EVP_PKEY_derive_set_peer
                0x00000000401b8790                EVP_PKEY_derive
                0x00000000401b89a6                ASN1_PCTX_new
                0x00000000401b8a1d                ASN1_PCTX_free
                0x00000000401b8a28                ASN1_PCTX_get_flags
                0x00000000401b8a31                ASN1_PCTX_set_flags
                0x00000000401b8a3a                ASN1_PCTX_get_nm_flags
                0x00000000401b8a44                ASN1_PCTX_set_nm_flags
                0x00000000401b8a4e                ASN1_PCTX_get_cert_flags
                0x00000000401b8a58                ASN1_PCTX_set_cert_flags
                0x00000000401b8a62                ASN1_PCTX_get_oid_flags
                0x00000000401b8a6c                ASN1_PCTX_set_oid_flags
                0x00000000401b8a76                ASN1_PCTX_get_str_flags
                0x00000000401b8a80                ASN1_PCTX_set_str_flags
                0x00000000401b8a8a                asn1_template_print_ctx
                0x00000000401b93c5                ASN1_item_print
                0x00000000401b959f                EVP_DigestSignInit
                0x00000000401b95b0                EVP_DigestVerifyInit
                0x00000000401b95c1                EVP_DigestSignFinal
                0x00000000401b9700                EVP_DigestVerifyFinal
                0x00000000401b97e0                WHIRLPOOL_Init
                0x00000000401b97fa                WHIRLPOOL_BitUpdate
                0x00000000401b9b03                WHIRLPOOL_Update
                0x00000000401b9bbf                WHIRLPOOL_Final
                0x00000000401b9cc6                WHIRLPOOL
                0x00000000401bd0d9                DHparams_print
                0x00000000401bf0bc                whirlpool_block
                0x00000000401bfc49                EVP_PKEY_paramgen_init
                0x00000000401bfcb8                EVP_PKEY_paramgen
                0x00000000401bfd71                EVP_PKEY_keygen_init
                0x00000000401bfde0                EVP_PKEY_keygen
                0x00000000401bfe99                EVP_PKEY_CTX_set_cb
                0x00000000401bfea3                EVP_PKEY_CTX_get_cb
                0x00000000401bfead                evp_pkey_set_cb_translate
                0x00000000401bfec5                EVP_PKEY_CTX_get_keygen_info
                0x00000000401bfeed                EVP_PKEY_new_mac_key
                0x00000000401c007c                CMS_SignedData_init
                0x00000000401c0090                cms_set1_SignerIdentifier
                0x00000000401c01b0                cms_SignerIdentifier_get0_signer_id
                0x00000000401c0207                cms_SignerIdentifier_cert_cmp
                0x00000000401c0284                CMS_get0_SignerInfos
                0x00000000401c029f                CMS_get0_signers
                0x00000000401c0324                CMS_SignerInfo_set1_signer_cert
                0x00000000401c0385                CMS_SignerInfo_get0_signer_id
                0x00000000401c0394                CMS_SignerInfo_cert_cmp
                0x00000000401c03a3                CMS_set1_signers_certs
                0x00000000401c04d5                CMS_SignerInfo_get0_algs
                0x00000000401c050b                CMS_SignerInfo_sign
                0x00000000401c075f                cms_SignedData_final
                0x00000000401c0980                CMS_SignerInfo_verify
                0x00000000401c0aad                cms_SignedData_init_bio
                0x00000000401c0c7a                CMS_SignerInfo_verify_content
                0x00000000401c0e2e                CMS_add_smimecap
                0x00000000401c0e8e                CMS_add_simple_smimecap
                0x00000000401c0fd6                CMS_add_standard_smimecap
                0x00000000401c1113                CMS_add1_signer
                0x00000000401c1674                CMS_get0_RecipientInfos
                0x00000000401c168f                CMS_RecipientInfo_type
                0x00000000401c1697                CMS_EnvelopedData_create
                0x00000000401c17a2                CMS_add1_recipient_cert
                0x00000000401c1986                CMS_RecipientInfo_ktri_get0_algs
                0x00000000401c19e9                CMS_RecipientInfo_ktri_get0_signer_id
                0x00000000401c1a27                CMS_RecipientInfo_ktri_cert_cmp
                0x00000000401c1a65                CMS_RecipientInfo_set0_pkey
                0x00000000401c1aa3                CMS_RecipientInfo_kekri_id_cmp
                0x00000000401c1b02                CMS_add0_recipient_key
                0x00000000401c1d51                CMS_RecipientInfo_kekri_get0_id
                0x00000000401c1df7                CMS_RecipientInfo_set0_key
                0x00000000401c1e39                CMS_RecipientInfo_decrypt
                0x00000000401c220f                cms_EnvelopedData_init_bio
                0x00000000401c268c                EC_KEY_print
                0x00000000401c2707                ECParameters_print
                0x00000000401c2779                ECPKParameters_print
                0x00000000401c339c                CMS_signed_get_attr_count
                0x00000000401c33ab                CMS_signed_get_attr_by_NID
                0x00000000401c33ba                CMS_signed_get_attr_by_OBJ
                0x00000000401c33c9                CMS_signed_get_attr
                0x00000000401c33d8                CMS_signed_delete_attr
                0x00000000401c33e7                CMS_signed_add1_attr
                0x00000000401c33ff                CMS_signed_add1_attr_by_OBJ
                0x00000000401c3417                CMS_signed_add1_attr_by_NID
                0x00000000401c342f                CMS_signed_add1_attr_by_txt
                0x00000000401c3447                CMS_signed_get0_data_by_OBJ
                0x00000000401c3456                CMS_unsigned_get_attr_count
                0x00000000401c3465                CMS_unsigned_get_attr_by_NID
                0x00000000401c3474                CMS_unsigned_get_attr_by_OBJ
                0x00000000401c3483                CMS_unsigned_get_attr
                0x00000000401c3492                CMS_unsigned_delete_attr
                0x00000000401c34a1                CMS_unsigned_add1_attr
                0x00000000401c34b9                CMS_unsigned_add1_attr_by_OBJ
                0x00000000401c34d1                CMS_unsigned_add1_attr_by_NID
                0x00000000401c34e9                CMS_unsigned_add1_attr_by_txt
                0x00000000401c3501                CMS_unsigned_get0_data_by_OBJ
                0x00000000401c367e                d2i_CMS_ContentInfo
                0x00000000401c368e                i2d_CMS_ContentInfo
                0x00000000401c369e                CMS_ContentInfo_new
                0x00000000401c36ae                CMS_ContentInfo_free
                0x00000000401c36be                CMS_ContentInfo_print_ctx
                0x00000000401c36d1                CMS_get0_type
                0x00000000401c36da                CMS_get0_content
                0x00000000401c37b5                CMS_dataFinal
                0x00000000401c3929                cms_content_bio
                0x00000000401c3979                CMS_dataInit
                0x00000000401c3a7a                CMS_get0_eContentType
                0x00000000401c3a94                CMS_set1_eContentType
                0x00000000401c3aef                CMS_is_detached
                0x00000000401c3b10                CMS_set_detached
                0x00000000401c3ba6                cms_Data_create
                0x00000000401c3be0                cms_DigestAlgorithm_set
                0x00000000401c3c31                cms_DigestAlgorithm_init_bio
                0x00000000401c3d04                cms_DigestAlgorithm_find_ctx
                0x00000000401c3de4                CMS_add0_CertificateChoices
                0x00000000401c3e55                CMS_add0_cert
                0x00000000401c3efe                CMS_add1_cert
                0x00000000401c3f47                CMS_add0_RevocationInfoChoice
                0x00000000401c3fb8                CMS_add0_crl
                0x00000000401c3fe9                CMS_add1_crl
                0x00000000401c4032                CMS_get1_certs
                0x00000000401c40ef                CMS_get1_crls
                0x00000000401c42e0                cms_EncryptedContent_init_bio
                0x00000000401c46c6                cms_EncryptedContent_init
                0x00000000401c4752                CMS_EncryptedData_set1_key
                0x00000000401c485c                cms_EncryptedData_init_bio
                0x00000000401c4888                AES_wrap_key
                0x00000000401c49bf                AES_unwrap_key
                0x00000000401c4b20                cms_DigestedData_create
                0x00000000401c4bb7                cms_DigestedData_init_bio
                0x00000000401c4bca                cms_DigestedData_do_final
                0x00000000401c4ce8                CMS_stream
                0x00000000401c4d64                d2i_CMS_bio
                0x00000000401c4d7a                i2d_CMS_bio
                0x00000000401c4d90                PEM_read_bio_CMS
                0x00000000401c4db1                PEM_write_bio_CMS
                0x00000000401c4df5                BIO_new_CMS
                0x00000000401c4e05                i2d_CMS_bio_stream
                0x00000000401c4e16                PEM_write_bio_CMS_stream
                0x00000000401c4e2d                SMIME_write_CMS
                0x00000000401c4ebd                SMIME_read_CMS
                0x00000000401c57fb                SMIME_read_ASN1
                0x00000000401c5c20                SMIME_crlf_copy
                0x00000000401c5d4b                i2d_ASN1_bio_stream
                0x00000000401c5ee3                SMIME_write_ASN1
                0x00000000401c6570                PEM_write_bio_ASN1_stream
                0x00000000401c65f7                SMIME_text
                0x00000000401c6945                BIO_new_NDEF
                0x00000000401c7161                BIO_f_asn1
                0x00000000401c716c                BIO_asn1_set_prefix
                0x00000000401c7182                BIO_asn1_get_prefix
                0x00000000401c7198                BIO_asn1_set_suffix
                0x00000000401c71ae                BIO_asn1_get_suffix
                0x00000000401c71d0                chelp_snprintf
                0x00000000401c720d                chelp_sprintf
                0x00000000401c7254                chelp_print
                0x00000000401c726c                chelp_printf
                0x00000000401c72d4                chelp_mod_64_32_32
                0x00000000401c72e9                chelp_div_64_32_64
                0x00000000401c72fc                chelp_div_64_32_32
                0x00000000401c7307                chelp_mul_64_64_64
                0x00000000401c7314                BIO_printf
                0x00000000401c7351                BIO_snprintf
                0x00000000401c7387                chelp_abort
                0x00000000401c739a                RAND_poll
                0x00000000401c73b9                InitCryptoLibrary
                0x00000000401c7430                chelp_malloc
                0x00000000401c7447                chelp_realloc
                0x00000000401c746a                chelp_free
                0x00000000401c747a                chelp_swap
                0x00000000401c74ae                chelp_qsort
                0x00000000401c77c2                chelp_bsearch
                0x00000000401c7891                chelp_memchr
                0x00000000401c78ca                chelp_memmove
                0x00000000401c7949                chelp_memcmp
                0x00000000401c79b8                chelp_memcpy
                0x00000000401c79e4                chelp_memset
                0x00000000401c7a10                chelp_isupper
                0x00000000401c7a23                chelp_islower
                0x00000000401c7a36                chelp_toupper
                0x00000000401c7a42                chelp_tolower
                0x00000000401c7a4e                chelp_isspace
                0x00000000401c7a6a                chelp_isdigit
                0x00000000401c7a7d                chelp_isxdigit
                0x00000000401c7aa5                chelp_isalpha
                0x00000000401c7ac2                chelp_isalnum
                0x00000000401c7aeb                chelp_strtoul_ex
                0x00000000401c7cbc                chelp_strtoul
                0x00000000401c7ccc                chelp_strtol
                0x00000000401c7cdc                chelp_strcpy
                0x00000000401c7d0a                chelp_strncpy
                0x00000000401c7d77                chelp_strcat
                0x00000000401c7db8                chelp_strcmp
                0x00000000401c7e18                chelp_strncmp
                0x00000000401c7f9a                chelp_stricmp
                0x00000000401c7fd9                chelp_strchr
                0x00000000401c8011                chelp_strrchr
                0x00000000401c8045                chelp_strlen
                0x00000000401c806c                chelp_strncasecmp
                0x00000000401c80c0                decryptcfg
                0x00000000401c8148                ASN1_BIT_STRING_set
                0x00000000401c8153                i2c_ASN1_BIT_STRING
                0x00000000401c8260                c2i_ASN1_BIT_STRING
                0x00000000401c83d9                ASN1_BIT_STRING_set_bit
                0x00000000401c8538                ASN1_BIT_STRING_get_bit
                0x00000000401c8580                ASN1_BIT_STRING_check
                0x00000000401c85e0                d2i_ASN1_type_bytes
                0x00000000401c8785                i2d_ASN1_bytes
                0x00000000401c883c                d2i_ASN1_bytes
                0x00000000401c8e8b                ASN1_d2i_bio
                0x00000000401c8efd                ASN1_item_d2i_bio
                0x00000000401c8f74                ASN1_digest
                0x00000000401c903b                ASN1_item_digest
                0x00000000401c90b8                ASN1_dup
                0x00000000401c9173                ASN1_item_dup
                0x00000000401c91fc                ASN1_ENUMERATED_set
                0x00000000401c9311                ASN1_ENUMERATED_get
                0x00000000401c9389                BN_to_ASN1_ENUMERATED
                0x00000000401c9490                ASN1_ENUMERATED_to_BN
                0x00000000401c9500                ASN1_GENERALIZEDTIME_check
                0x00000000401c9772                ASN1_GENERALIZEDTIME_set_string
                0x00000000401c97ef                ASN1_GENERALIZEDTIME_adj
                0x00000000401c994b                ASN1_GENERALIZEDTIME_set
                0x00000000401c9960                ASN1_i2d_bio
                0x00000000401c9a1e                ASN1_item_i2d_bio
                0x00000000401c9ac0                ASN1_INTEGER_dup
                0x00000000401c9acb                ASN1_INTEGER_cmp
                0x00000000401c9b0b                i2c_ASN1_INTEGER
                0x00000000401c9c83                c2i_ASN1_INTEGER
                0x00000000401c9e7f                d2i_ASN1_UINTEGER
                0x00000000401c9fee                ASN1_INTEGER_set
                0x00000000401ca103                ASN1_INTEGER_get
                0x00000000401ca17d                BN_to_ASN1_INTEGER
                0x00000000401ca295                ASN1_INTEGER_to_BN
                0x00000000401ca310                i2d_ASN1_OBJECT
                0x00000000401ca3a7                a2d_ASN1_OBJECT
                0x00000000401ca8ae                i2t_ASN1_OBJECT
                0x00000000401ca8be                i2a_ASN1_OBJECT
                0x00000000401ca9a4                ASN1_OBJECT_new
                0x00000000401caa20                ASN1_OBJECT_free
                0x00000000401caa99                c2i_ASN1_OBJECT
                0x00000000401cac44                d2i_ASN1_OBJECT
                0x00000000401cacd0                ASN1_OBJECT_create
                0x00000000401cacfc                ASN1_OCTET_STRING_dup
                0x00000000401cad07                ASN1_OCTET_STRING_cmp
                0x00000000401cad12                ASN1_OCTET_STRING_set
                0x00000000401cad20                ASN1_sign
                0x00000000401cafbe                ASN1_item_sign
                0x00000000401cb9d2                X509_NAME_print_ex
                0x00000000401cbeb2                ASN1_STRING_print_ex
                0x00000000401cbec8                ASN1_STRING_to_UTF8
                0x00000000401cbf3c                d2i_ASN1_TIME
                0x00000000401cbf4c                i2d_ASN1_TIME
                0x00000000401cbf5c                ASN1_TIME_new
                0x00000000401cbf6c                ASN1_TIME_free
                0x00000000401cbf7c                ASN1_TIME_adj
                0x00000000401cc03f                ASN1_TIME_set
                0x00000000401cc054                ASN1_TIME_check
                0x00000000401cc078                ASN1_TIME_to_generalizedtime
                0x00000000401cc16b                ASN1_TIME_set_string
                0x00000000401cc1ec                ASN1_TYPE_get
                0x00000000401cc205                ASN1_TYPE_set
                0x00000000401cc266                ASN1_TYPE_set1
                0x00000000401cc2f2                ASN1_TYPE_cmp
                0x00000000401cc340                ASN1_UTCTIME_check
                0x00000000401cc564                ASN1_UTCTIME_set_string
                0x00000000401cc5e1                ASN1_UTCTIME_adj
                0x00000000401cc769                ASN1_UTCTIME_set
                0x00000000401cc77e                ASN1_UTCTIME_cmp_time_t
                0x00000000401cc8f0                UTF8_getc
                0x00000000401ccc7f                UTF8_putc
                0x00000000401ccea8                ASN1_verify
                0x00000000401cd017                ASN1_item_verify
                0x00000000401cd210                AES_cbc_encrypt
                0x00000000401cd234                AES_cfb128_encrypt
                0x00000000401cd252                AES_cfb1_encrypt
                0x00000000401cd270                AES_cfb8_encrypt
                0x00000000401cd290                AES_ecb_encrypt
                0x00000000401cd2a8                AES_ofb128_encrypt
                0x00000000401cd2c0                ERR_load_ASN1_strings
                0x00000000401cd32f                ASN1_check_infinite_end
                0x00000000401cd33a                ASN1_const_check_infinite_end
                0x00000000401cd39e                ASN1_get_object
                0x00000000401cd560                ASN1_put_object
                0x00000000401cd662                ASN1_put_eoc
                0x00000000401cd67e                ASN1_object_size
                0x00000000401cd6ba                asn1_Finish
                0x00000000401cd6c5                asn1_const_Finish
                0x00000000401cd6d0                asn1_GetSequence
                0x00000000401cd77e                ASN1_STRING_set
                0x00000000401cd880                ASN1_STRING_copy
                0x00000000401cd8d1                ASN1_STRING_set0
                0x00000000401cd911                ASN1_STRING_type_new
                0x00000000401cd988                ASN1_STRING_new
                0x00000000401cd998                ASN1_STRING_free
                0x00000000401cd9cc                ASN1_STRING_dup
                0x00000000401cda1f                ASN1_STRING_cmp
                0x00000000401cda60                asn1_add_error
                0x00000000401cdac8                ASN1_STRING_length
                0x00000000401cdad0                ASN1_STRING_length_set
                0x00000000401cdad8                ASN1_STRING_type
                0x00000000401cdae1                ASN1_STRING_data
                0x00000000401cdaf0                ASN1_tag2str
                0x00000000401ce6cf                ASN1_parse_dump
                0x00000000401ce6f8                ASN1_parse
                0x00000000401ce73a                BIO_dump_indent_cb
                0x00000000401ceb4e                BIO_dump_cb
                0x00000000401ceb5f                BIO_dump
                0x00000000401ceb77                BIO_dump_indent
                0x00000000401cf54c                BIO_f_buffer
                0x00000000401cf560                BF_cfb64_encrypt
                0x00000000401cf748                BF_options
                0x00000000401cf753                BF_ecb_encrypt
                0x00000000401cf804                BF_encrypt
                0x00000000401cfbc5                BF_decrypt
                0x00000000401cff86                BF_cbc_encrypt
                0x00000000401d0518                BF_ofb64_encrypt
                0x00000000401d06a8                BF_set_key
                0x00000000401d14d1                BIO_f_base64
                0x00000000401d1bd0                BIO_f_cipher
                0x00000000401d1bdb                BIO_set_cipher
                0x00000000401d1c90                ERR_load_BIO_strings
                0x00000000401d204a                BIO_f_md
                0x00000000401d2060                BN_uadd
                0x00000000401d21a4                BN_usub
                0x00000000401d239e                BN_add
                0x00000000401d2449                BN_sub
                0x00000000401d255c                bn_mul_add_words
                0x00000000401d27c4                bn_mul_words
                0x00000000401d2a10                bn_sqr_words
                0x00000000401d2b63                bn_div_words
                0x00000000401d2cb3                bn_add_words
                0x00000000401d2d9f                bn_sub_words
                0x00000000401d2ea9                bn_mul_comba8
                0x00000000401d474e                bn_mul_comba4
                0x00000000401d4d6d                bn_sqr_comba8
                0x00000000401d5db7                bn_sqr_comba4
                0x00000000401d61b0                BN_BLINDING_free
                0x00000000401d6207                BN_BLINDING_new
                0x00000000401d62f2                BN_BLINDING_invert_ex
                0x00000000401d6355                BN_BLINDING_invert
                0x00000000401d636b                BN_BLINDING_get_thread_id
                0x00000000401d6375                BN_BLINDING_set_thread_id
                0x00000000401d637f                BN_BLINDING_thread_id
                0x00000000401d6389                BN_BLINDING_get_flags
                0x00000000401d6393                BN_BLINDING_set_flags
                0x00000000401d639d                BN_BLINDING_create_param
                0x00000000401d6531                BN_BLINDING_update
                0x00000000401d6623                BN_BLINDING_convert_ex
                0x00000000401d66fe                BN_BLINDING_convert
                0x00000000401d6714                BN_CTX_init
                0x00000000401d678f                BN_CTX_new
                0x00000000401d682f                BN_CTX_free
                0x00000000401d68af                BN_CTX_start
                0x00000000401d6995                BN_CTX_end
                0x00000000401d6a0a                BN_CTX_get
                0x00000000401d6b70                BN_div
                0x00000000401d7694                ERR_load_BN_strings
                0x00000000401d77ad                BN_exp
                0x00000000401d794d                BN_mod_exp_recp
                0x00000000401d7dd9                BN_mod_exp_mont_consttime
                0x00000000401d840c                BN_mod_exp_mont
                0x00000000401d89eb                BN_mod_exp_mont_word
                0x00000000401d8e2d                BN_mod_exp
                0x00000000401d8e79                BN_mod_exp_simple
                0x00000000401d92f0                BN_gcd
                0x00000000401d9506                BN_mod_inverse
                0x00000000401d9f80                BN_nnmod
                0x00000000401d9fdc                BN_mod_add
                0x00000000401da02a                BN_mod_add_quick
                0x00000000401da07e                BN_mod_sub
                0x00000000401da0cc                BN_mod_sub_quick
                0x00000000401da114                BN_mod_mul
                0x00000000401da1cc                BN_mod_sqr
                0x00000000401da222                BN_mod_lshift1
                0x00000000401da270                BN_mod_lshift1_quick
                0x00000000401da2c4                BN_mod_lshift_quick
                0x00000000401da3bf                BN_mod_lshift
                0x00000000401da7cc                BN_mod_mul_montgomery
                0x00000000401da881                BN_from_montgomery
                0x00000000401da90b                BN_MONT_CTX_init
                0x00000000401da954                BN_MONT_CTX_new
                0x00000000401da992                BN_MONT_CTX_free
                0x00000000401da9d3                BN_MONT_CTX_set
                0x00000000401dabcd                BN_MONT_CTX_copy
                0x00000000401dac4d                BN_MONT_CTX_set_locked
                0x00000000401dad50                bn_sub_part_words
                0x00000000401dafe3                bn_add_part_words
                0x00000000401db3a1                bn_mul_normal
                0x00000000401db509                bn_mul_recursive
                0x00000000401db99b                bn_mul_high
                0x00000000401dbe17                bn_mul_part_recursive
                0x00000000401dc2eb                BN_mul
                0x00000000401dc63b                bn_mul_low_normal
                0x00000000401dc71d                bn_mul_low_recursive
                0x00000000401dc957                BN_GENCB_call
                0x00000000401dc9a5                BN_is_prime_fasttest_ex
                0x00000000401dce74                BN_is_prime_ex
                0x00000000401dce87                BN_generate_prime_ex
                0x00000000401dd3d8                BN_RECP_CTX_init
                0x00000000401dd407                BN_RECP_CTX_new
                0x00000000401dd445                BN_RECP_CTX_free
                0x00000000401dd479                BN_RECP_CTX_set
                0x00000000401dd4cf                BN_reciprocal
                0x00000000401dd568                BN_div_recp
                0x00000000401dd813                BN_mod_mul_reciprocal
                0x00000000401dd8dc                BN_lshift1
                0x00000000401dd99b                BN_rshift1
                0x00000000401dda73                BN_lshift
                0x00000000401ddbd3                BN_rshift
                0x00000000401ddd80                bn_sqr_normal
                0x00000000401dde5c                bn_sqr_recursive
                0x00000000401de01a                BN_sqr
                0x00000000401de304                BIO_s_null
                0x00000000401de310                ERR_load_BUF_strings
                0x00000000401de350                CAST_cfb64_encrypt
                0x00000000401de538                CAST_ecb_encrypt
                0x00000000401de5e8                CAST_encrypt
                0x00000000401dea44                CAST_decrypt
                0x00000000401deec6                CAST_cbc_encrypt
                0x00000000401df458                CAST_ofb64_encrypt
                0x00000000401df5e8                CAST_set_key
                0x00000000401e0080                DES_ede3_cfb64_encrypt
                0x00000000401e02ab                DES_ede3_cfb_encrypt
                0x00000000401e0ab0                DES_cfb64_encrypt
                0x00000000401e0cd0                DES_cfb_encrypt
                0x00000000401e12fc                ERR_load_COMP_strings
                0x00000000401e1334                ERR_load_CONF_strings
                0x00000000401e136c                ERR_load_CRYPTO_strings
                0x00000000401e13b0                d2i_PrivateKey
                0x00000000401e1511                d2i_AutoPrivateKey
                0x00000000401e167e                d2i_DHparams
                0x00000000401e168e                i2d_DHparams
                0x00000000401e169e                DHparams_dup
                0x00000000401e16c0                DH_check
                0x00000000401e17f9                DH_check_pub_key
                0x00000000401e18a4                ERR_load_DH_strings
                0x00000000401e18e0                DH_generate_parameters_ex
                0x00000000401e1ae8                EVP_MD_CTX_init
                0x00000000401e1afd                EVP_MD_CTX_create
                0x00000000401e1b34                EVP_DigestInit_ex
                0x00000000401e1c13                EVP_DigestInit
                0x00000000401e1c48                EVP_DigestUpdate
                0x00000000401e1c54                EVP_DigestFinal_ex
                0x00000000401e1cef                EVP_MD_CTX_cleanup
                0x00000000401e1d8c                EVP_MD_CTX_destroy
                0x00000000401e1dac                EVP_Digest
                0x00000000401e1e56                EVP_MD_CTX_copy_ex
                0x00000000401e1f93                EVP_MD_CTX_copy
                0x00000000401e1fc3                EVP_DigestFinal
                0x00000000401e20ae                d2i_DSA_SIG
                0x00000000401e20be                i2d_DSA_SIG
                0x00000000401e20ce                DSA_SIG_new
                0x00000000401e20de                DSA_SIG_free
                0x00000000401e20ee                d2i_DSAPrivateKey
                0x00000000401e20fe                i2d_DSAPrivateKey
                0x00000000401e210e                d2i_DSAparams
                0x00000000401e211e                i2d_DSAparams
                0x00000000401e212e                d2i_DSAPublicKey
                0x00000000401e213e                i2d_DSAPublicKey
                0x00000000401e214e                DSAparams_dup
                0x00000000401e2164                ERR_load_DSA_strings
                0x00000000401e21a0                dsa_builtin_paramgen
                0x00000000401e2a95                DSA_generate_parameters_ex
                0x00000000401e2b40                DSA_generate_key
                0x00000000401e2ca8                DSA_set_default_method
                0x00000000401e2cb5                DSA_get_default_method
                0x00000000401e2cd8                DSA_set_method
                0x00000000401e2d1f                DSA_new_method
                0x00000000401e2e20                DSA_new
                0x00000000401e2e30                DSA_free
                0x00000000401e2eff                DSA_up_ref
                0x00000000401e2f2c                DSA_size
                0x00000000401e2f81                DSA_get_ex_new_index
                0x00000000401e2fa0                DSA_set_ex_data
                0x00000000401e2faf                DSA_get_ex_data
                0x00000000401e2fbe                DSA_dup_DH
                0x00000000401e395c                DSA_OpenSSL
                0x00000000401e3968                DSA_do_sign
                0x00000000401e3975                DSA_sign
                0x00000000401e39f9                DSA_sign_setup
                0x00000000401e3a08                DSA_do_verify
                0x00000000401e3a15                DSA_verify
                0x00000000401e3aa0                ERR_load_DSO_strings
                0x00000000401e43f1                EC_GROUP_get_basis_type
                0x00000000401e4456                EC_GROUP_get_trinomial_basis
                0x00000000401e44df                EC_GROUP_get_pentanomial_basis
                0x00000000401e45b6                X9_62_PENTANOMIAL_new
                0x00000000401e45c6                X9_62_PENTANOMIAL_free
                0x00000000401e45d6                X9_62_CHARACTERISTIC_TWO_new
                0x00000000401e45e6                X9_62_CHARACTERISTIC_TWO_free
                0x00000000401e45f6                ECPARAMETERS_new
                0x00000000401e4606                ECPARAMETERS_free
                0x00000000401e4616                d2i_ECPKPARAMETERS
                0x00000000401e4626                i2d_ECPKPARAMETERS
                0x00000000401e4636                ECPKPARAMETERS_new
                0x00000000401e4646                ECPKPARAMETERS_free
                0x00000000401e524e                d2i_EC_PRIVATEKEY
                0x00000000401e525e                i2d_EC_PRIVATEKEY
                0x00000000401e526e                EC_PRIVATEKEY_new
                0x00000000401e527e                EC_PRIVATEKEY_free
                0x00000000401e528e                d2i_ECPKParameters
                0x00000000401e534b                i2d_ECPKParameters
                0x00000000401e53d9                d2i_ECPrivateKey
                0x00000000401e5656                i2d_ECPrivateKey
                0x00000000401e59e6                i2d_ECParameters
                0x00000000401e5a1e                d2i_ECParameters
                0x00000000401e5b04                o2i_ECPublicKey
                0x00000000401e5bfe                i2o_ECPublicKey
                0x00000000401e5d48                EC_GROUP_new_by_curve_name
                0x00000000401e625c                EC_get_builtin_curves
                0x00000000401e62b0                EC_GROUP_new_curve_GFp
                0x00000000401e6398                EC_GROUP_new_curve_GF2m
                0x00000000401e6414                ERR_load_EC_strings
                0x00000000401e6450                EC_KEY_new
                0x00000000401e64db                EC_KEY_free
                0x00000000401e655d                EC_KEY_new_by_curve_name
                0x00000000401e65a8                EC_KEY_copy
                0x00000000401e6763                EC_KEY_dup
                0x00000000401e67ad                EC_KEY_up_ref
                0x00000000401e67da                EC_KEY_generate_key
                0x00000000401e69b9                EC_KEY_check_key
                0x00000000401e6c69                EC_KEY_get0_group
                0x00000000401e6c73                EC_KEY_set_group
                0x00000000401e6cb6                EC_KEY_get0_private_key
                0x00000000401e6cc0                EC_KEY_set_private_key
                0x00000000401e6d03                EC_KEY_get0_public_key
                0x00000000401e6d0d                EC_KEY_set_public_key
                0x00000000401e6d54                EC_KEY_get_enc_flags
                0x00000000401e6d5d                EC_KEY_set_enc_flags
                0x00000000401e6d66                EC_KEY_get_conv_form
                0x00000000401e6d6f                EC_KEY_set_conv_form
                0x00000000401e6d86                EC_KEY_get_key_method_data
                0x00000000401e6d95                EC_KEY_insert_key_method_data
                0x00000000401e6e34                EC_KEY_set_asn1_flag
                0x00000000401e6e48                EC_KEY_precompute_mult
                0x00000000401e6e70                EC_GROUP_new
                0x00000000401e6f80                EC_GROUP_method_of
                0x00000000401e6f89                EC_METHOD_get_field_type
                0x00000000401e6f91                EC_GROUP_get0_generator
                0x00000000401e6f9b                EC_GROUP_get_order
                0x00000000401e6fd0                EC_GROUP_get_cofactor
                0x00000000401e7005                EC_GROUP_set_curve_name
                0x00000000401e700e                EC_GROUP_get_curve_name
                0x00000000401e7017                EC_GROUP_set_asn1_flag
                0x00000000401e7020                EC_GROUP_get_asn1_flag
                0x00000000401e7029                EC_GROUP_set_point_conversion_form
                0x00000000401e7032                EC_GROUP_get_point_conversion_form
                0x00000000401e703b                EC_GROUP_set_seed
                0x00000000401e70ce                EC_GROUP_get0_seed
                0x00000000401e70d8                EC_GROUP_get_seed_len
                0x00000000401e70e2                EC_GROUP_set_curve_GFp
                0x00000000401e7121                EC_GROUP_get_curve_GFp
                0x00000000401e715b                EC_GROUP_set_curve_GF2m
                0x00000000401e7195                EC_GROUP_get_curve_GF2m
                0x00000000401e71d1                EC_GROUP_get_degree
                0x00000000401e720b                EC_GROUP_check_discriminant
                0x00000000401e7245                EC_EX_DATA_set_data
                0x00000000401e7315                EC_EX_DATA_get_data
                0x00000000401e734a                EC_EX_DATA_free_data
                0x00000000401e7399                EC_EX_DATA_clear_free_data
                0x00000000401e73e8                EC_EX_DATA_free_all_data
                0x00000000401e7434                EC_EX_DATA_clear_free_all_data
                0x00000000401e7480                EC_POINT_new
                0x00000000401e754e                EC_POINT_free
                0x00000000401e757c                EC_GROUP_free
                0x00000000401e75e1                EC_POINT_clear_free
                0x00000000401e7629                EC_GROUP_clear_free
                0x00000000401e76b5                EC_POINT_copy
                0x00000000401e7721                EC_GROUP_set_generator
                0x00000000401e7810                EC_GROUP_copy
                0x00000000401e7a3a                EC_GROUP_dup
                0x00000000401e7a90                EC_POINT_dup
                0x00000000401e7ae6                EC_POINT_method_of
                0x00000000401e7aef                EC_POINT_set_to_infinity
                0x00000000401e7b54                EC_POINT_set_Jprojective_coordinates_GFp
                0x00000000401e7bb9                EC_POINT_get_Jprojective_coordinates_GFp
                0x00000000401e7c21                EC_POINT_set_affine_coordinates_GFp
                0x00000000401e7c89                EC_POINT_set_affine_coordinates_GF2m
                0x00000000401e7cf1                EC_POINT_get_affine_coordinates_GFp
                0x00000000401e7d59                EC_POINT_get_affine_coordinates_GF2m
                0x00000000401e7dc1                EC_POINT_set_compressed_coordinates_GFp
                0x00000000401e7e29                EC_POINT_set_compressed_coordinates_GF2m
                0x00000000401e7e91                EC_POINT_point2oct
                0x00000000401e7ef9                EC_POINT_oct2point
                0x00000000401e7f61                EC_POINT_add
                0x00000000401e7fd3                EC_POINT_dbl
                0x00000000401e8041                EC_POINT_invert
                0x00000000401e80ab                EC_POINT_is_at_infinity
                0x00000000401e8113                EC_POINT_is_on_curve
                0x00000000401e817b                EC_POINT_cmp
                0x00000000401e81e8                EC_GROUP_cmp
                0x00000000401e846d                EC_POINT_make_affine
                0x00000000401e84d5                EC_POINTs_make_affine
                0x00000000401e8561                EC_POINTs_mul
                0x00000000401e8591                EC_POINT_mul
                0x00000000401e85c9                EC_GROUP_precompute_mult
                0x00000000401e85f6                EC_GROUP_have_precompute_mult
                0x00000000401e8a2e                ec_wNAF_mul
                0x00000000401e990f                ec_wNAF_precompute_mult
                0x00000000401e9f60                ec_wNAF_have_precompute_mult
                0x00000000401e9f90                EC_POINT_point2bn
                0x00000000401ea056                EC_POINT_bn2point
                0x00000000401ea14f                EC_POINT_point2hex
                0x00000000401ea258                EC_POINT_hex2point
                0x00000000401ea2c8                ERR_load_ECDH_strings
                0x00000000401ea300                ECDH_compute_key
                0x00000000401ea3a5                ECDH_set_default_method
                0x00000000401ea3b2                ECDH_get_default_method
                0x00000000401ea469                ecdh_check
                0x00000000401ea4c9                ECDH_set_method
                0x00000000401ea4f3                ECDH_get_ex_new_index
                0x00000000401ea512                ECDH_set_ex_data
                0x00000000401ea553                ECDH_get_ex_data
                0x00000000401ea941                ECDH_OpenSSL
                0x00000000401ea94c                ec_GFp_mont_field_set_to_one
                0x00000000401ea996                ec_GFp_mont_field_decode
                0x00000000401ea9d9                ec_GFp_mont_field_encode
                0x00000000401eaa26                ec_GFp_mont_field_sqr
                0x00000000401eaa6f                ec_GFp_mont_field_mul
                0x00000000401eaab8                ec_GFp_mont_group_set_curve
                0x00000000401eac60                ec_GFp_mont_group_copy
                0x00000000401ead48                ec_GFp_mont_group_clear_finish
                0x00000000401ead9b                ec_GFp_mont_group_finish
                0x00000000401eadee                ec_GFp_mont_group_init
                0x00000000401eae1c                EC_GFp_mont_method
                0x00000000401eae30                ec_GFp_nist_field_sqr
                0x00000000401eaf0b                ec_GFp_nist_field_mul
                0x00000000401eaff4                ec_GFp_nist_group_set_curve
                0x00000000401eb17e                ec_GFp_nist_group_copy
                0x00000000401eb197                EC_GFp_nist_method
                0x00000000401eb1b0                ec_GFp_simple_is_at_infinity
                0x00000000401eb1c0                ec_GFp_simple_field_sqr
                0x00000000401eb1d8                ec_GFp_simple_field_mul
                0x00000000401eb1f3                ec_GFp_simple_point_copy
                0x00000000401eb258                ec_GFp_simple_group_copy
                0x00000000401eb2cf                ec_GFp_simple_point_set_to_infinity
                0x00000000401eb2ef                ec_GFp_simple_get_Jprojective_coordinates_GFp
                0x00000000401eb476                ec_GFp_simple_group_get_curve
                0x00000000401eb5e5                ec_GFp_simple_point_clear_finish
                0x00000000401eb61a                ec_GFp_simple_group_clear_finish
                0x00000000401eb64e                ec_GFp_simple_points_make_affine
                0x00000000401ebbbe                ec_GFp_simple_point_get_affine_coordinates
                0x00000000401ebefd                ec_GFp_simple_make_affine
                0x00000000401ec014                ec_GFp_simple_cmp
                0x00000000401ec2c7                ec_GFp_simple_is_on_curve
                0x00000000401ec5cf                ec_GFp_simple_invert
                0x00000000401ec618                ec_GFp_simple_dbl
                0x00000000401ecac4                ec_GFp_simple_add
                0x00000000401ed0cb                ec_GFp_simple_group_get_degree
                0x00000000401ed0da                ec_GFp_simple_oct2point
                0x00000000401ed467                ec_GFp_simple_point2oct
                0x00000000401ed7e6                ec_GFp_simple_set_Jprojective_coordinates_GFp
                0x00000000401ed9cc                ec_GFp_simple_set_compressed_coordinates
                0x00000000401ede58                ec_GFp_simple_point_set_affine_coordinates
                0x00000000401edee5                ec_GFp_simple_point_finish
                0x00000000401edf13                ec_GFp_simple_group_finish
                0x00000000401edf47                ec_GFp_simple_point_init
                0x00000000401edf81                ec_GFp_simple_group_init
                0x00000000401edfc4                ec_GFp_simple_group_check_discriminant
                0x00000000401ee1f5                ec_GFp_simple_group_set_curve
                0x00000000401ee3ed                EC_GFp_simple_method
                0x00000000401ee3f8                ERR_load_ECDSA_strings
                0x00000000401ee469                ECDSA_set_default_method
                0x00000000401ee476                ECDSA_get_default_method
                0x00000000401ee52d                ecdsa_check
                0x00000000401ee58d                ECDSA_set_method
                0x00000000401ee5b7                ECDSA_size
                0x00000000401ee679                ECDSA_get_ex_new_index
                0x00000000401ee698                ECDSA_set_ex_data
                0x00000000401ee6d9                ECDSA_get_ex_data
                0x00000000401ef40b                ECDSA_OpenSSL
                0x00000000401ef418                ECDSA_do_sign_ex
                0x00000000401ef484                ECDSA_do_sign
                0x00000000401ef49c                ECDSA_sign_ex
                0x00000000401ef528                ECDSA_sign
                0x00000000401ef54a                ECDSA_sign_setup
                0x00000000401ef5a8                ECDSA_do_verify
                0x00000000401ef606                ECDSA_verify
                0x00000000401ef690                EVP_EncodeInit
                0x00000000401ef6aa                EVP_EncodeBlock
                0x00000000401ef7e5                EVP_EncodeFinal
                0x00000000401ef842                EVP_EncodeUpdate
                0x00000000401ef972                EVP_DecodeInit
                0x00000000401ef993                EVP_DecodeBlock
                0x00000000401efaf5                EVP_DecodeUpdate
                0x00000000401efdcf                EVP_DecodeFinal
                0x00000000401efe30                EVP_set_pw_prompt
                0x00000000401efe5d                EVP_get_pw_prompt
                0x00000000401efe78                EVP_read_pw_string_min
                0x00000000401eff52                EVP_read_pw_string
                0x00000000401eff6a                EVP_BytesToKey
                0x00000000401f0235                EVP_PBE_alg_add_type
                0x00000000401f02f5                EVP_PBE_alg_add
                0x00000000401f0365                EVP_PBE_find
                0x00000000401f042c                EVP_PBE_CipherInit
                0x00000000401f0606                EVP_PBE_cleanup
                0x00000000401f0630                EVP_PKCS82PKEY
                0x00000000401f076b                EVP_PKEY2PKCS8_broken
                0x00000000401f0873                EVP_PKEY2PKCS8
                0x00000000401f0883                PKCS8_set_broken
                0x00000000401f08d5                EVP_PKEY_get_attr_count
                0x00000000401f08e4                EVP_PKEY_get_attr_by_NID
                0x00000000401f08f3                EVP_PKEY_get_attr_by_OBJ
                0x00000000401f0902                EVP_PKEY_get_attr
                0x00000000401f0911                EVP_PKEY_delete_attr
                0x00000000401f0920                EVP_PKEY_add1_attr
                0x00000000401f0938                EVP_PKEY_add1_attr_by_OBJ
                0x00000000401f0950                EVP_PKEY_add1_attr_by_NID
                0x00000000401f0968                EVP_PKEY_add1_attr_by_txt
                0x00000000401f0980                HMAC_Init_ex
                0x00000000401f0bb4                HMAC_Update
                0x00000000401f0bc3                HMAC_Final
                0x00000000401f0c58                HMAC_CTX_init
                0x00000000401f0c86                HMAC_Init
                0x00000000401f0ce2                HMAC_CTX_copy
                0x00000000401f0d78                HMAC_CTX_cleanup
                0x00000000401f0db8                HMAC
                0x00000000401f0e89                HMAC_CTX_set_flags
                0x00000000401f0ed0                i2d_PrivateKey
                0x00000000401f18c0                RAND_SSLeay
                0x00000000401f18f4                d2i_NETSCAPE_CERT_SEQUENCE
                0x00000000401f1904                i2d_NETSCAPE_CERT_SEQUENCE
                0x00000000401f1914                NETSCAPE_CERT_SEQUENCE_new
                0x00000000401f1924                NETSCAPE_CERT_SEQUENCE_free
                0x00000000401f1934                OPENSSL_gmtime
                0x00000000401f193f                OPENSSL_gmtime_adj
                0x00000000401f1be8                PKCS12_PBE_add
                0x00000000401f1bee                PKCS12_PBE_keyivgen
                0x00000000401f1dfc                PKCS12_key_gen_uni
                0x00000000401f2319                PKCS12_key_gen_asc
                0x00000000401f23f8                PKCS8_decrypt
                0x00000000401f241c                OPENSSL_asc2uni
                0x00000000401f24ab                OPENSSL_uni2asc
                0x00000000401f252c                i2d_PKCS12_bio
                0x00000000401f2542                d2i_PKCS12_bio
                0x00000000401f2558                PKCS12_x5092certbag
                0x00000000401f2572                PKCS12_x509crl2certbag
                0x00000000401f258c                PKCS12_certbag2x509
                0x00000000401f25e3                PKCS12_certbag2x509crl
                0x00000000401f263c                PKCS5_PBE_add
                0x00000000401f2642                PKCS5_PBE_keyivgen
                0x00000000401f2924                PKCS5_PBKDF2_HMAC
                0x00000000401f2b44                PKCS5_PBKDF2_HMAC_SHA1
                0x00000000401f2bb2                PKCS5_v2_PBE_keyivgen
                0x00000000401f2fb4                d2i_PBEPARAM
                0x00000000401f2fc4                i2d_PBEPARAM
                0x00000000401f2fd4                PBEPARAM_new
                0x00000000401f2fe4                PBEPARAM_free
                0x00000000401f2ff4                PKCS5_pbe_set0_algor
                0x00000000401f31af                PKCS5_pbe_set
                0x00000000401f3244                d2i_PBE2PARAM
                0x00000000401f3254                i2d_PBE2PARAM
                0x00000000401f3264                PBE2PARAM_new
                0x00000000401f3274                PBE2PARAM_free
                0x00000000401f3284                d2i_PBKDF2PARAM
                0x00000000401f3294                i2d_PBKDF2PARAM
                0x00000000401f32a4                PBKDF2PARAM_new
                0x00000000401f32b4                PBKDF2PARAM_free
                0x00000000401f32c4                PKCS5_pbe2_set_iv
                0x00000000401f37dd                PKCS5_pbe2_set
                0x00000000401f3820                d2i_PKCS8_PRIV_KEY_INFO
                0x00000000401f3830                i2d_PKCS8_PRIV_KEY_INFO
                0x00000000401f3840                PKCS8_PRIV_KEY_INFO_new
                0x00000000401f3850                PKCS8_PRIV_KEY_INFO_free
                0x00000000401f3860                PKCS8_pkey_set0
                0x00000000401f392b                PKCS8_pkey_get0
                0x00000000401f39c0                EVP_SignFinal
                0x00000000401f3ba0                EVP_VerifyFinal
                0x00000000401f3d91                policy_cache_free
                0x00000000401f3dd1                policy_cache_set
                0x00000000401f4125                policy_cache_find_data
                0x00000000401f4160                policy_data_free
                0x00000000401f41a5                policy_data_new
                0x00000000401f42a4                policy_cache_set_mapping
                0x00000000401f450e                X509_policy_tree_free
                0x00000000401f45ba                X509_policy_check
                0x00000000401f5028                d2i_PKCS8PrivateKey_bio
                0x00000000401f513c                PEM_read_bio_PKCS8
                0x00000000401f515d                PEM_write_bio_PKCS8
                0x00000000401f51a1                PEM_read_bio_PKCS8_PRIV_KEY_INFO
                0x00000000401f51c2                PEM_write_bio_PKCS8_PRIV_KEY_INFO
                0x00000000401f5408                i2d_PKCS8PrivateKey_nid_bio
                0x00000000401f5439                i2d_PKCS8PrivateKey_bio
                0x00000000401f546a                PEM_write_bio_PKCS8PrivateKey
                0x00000000401f549b                PEM_write_bio_PKCS8PrivateKey_nid
                0x00000000401f54cc                PKCS7_add_attrib_smimecap
                0x00000000401f554f                PKCS7_get_smimecap
                0x00000000401f559e                PKCS7_simple_smimecap
                0x00000000401f56e4                PKCS7_add_attrib_content_type
                0x00000000401f5743                PKCS7_add0_attrib_signing_time
                0x00000000401f57a6                PKCS7_add1_attrib_digest
                0x00000000401f7122                RSA_PKCS1_SSLeay
                0x00000000401f7130                RSA_padding_add_none
                0x00000000401f719c                RSA_padding_check_none
                0x00000000401f7224                PKCS1_MGF1
                0x00000000401f7419                RSA_padding_check_PKCS1_OAEP
                0x00000000401f769d                RSA_padding_add_PKCS1_OAEP
                0x00000000401f78a0                RSA_padding_add_PKCS1_type_1
                0x00000000401f793b                RSA_padding_check_PKCS1_type_1
                0x00000000401f7a84                RSA_padding_add_PKCS1_type_2
                0x00000000401f7b45                RSA_padding_check_PKCS1_type_2
                0x00000000401f7c60                RSA_verify_PKCS1_PSS
                0x00000000401f8013                RSA_padding_add_PKCS1_PSS
                0x00000000401f82ec                RSA_padding_add_SSLv23
                0x00000000401f83c0                RSA_padding_check_SSLv23
                0x00000000401f8520                RSA_padding_add_X931
                0x00000000401f85d6                RSA_padding_check_X931
                0x00000000401f86f2                RSA_X931_hash_id
                0x00000000401f8734                ASN1_bn_print
                0x00000000401f8930                X509_ocspid_print
                0x00000000401f8ab8                X509_signature_print
                0x00000000401f8bba                ASN1_STRING_print
                0x00000000401f8c73                ASN1_GENERALIZEDTIME_print
                0x00000000401f8f28                ASN1_UTCTIME_print
                0x00000000401f9094                ASN1_TIME_print
                0x00000000401f90cd                X509_print_ex
                0x00000000401f9611                X509_print
                0x00000000401f9626                X509_NAME_print
                0x00000000401f971c                X509_CERT_AUX_print
                0x00000000401f9cbc                UI_free
                0x00000000401f9cfb                UI_add_input_string
                0x00000000401f9d2c                UI_dup_input_string
                0x00000000401f9dd4                UI_add_verify_string
                0x00000000401f9e05                UI_dup_verify_string
                0x00000000401f9ead                UI_add_input_boolean
                0x00000000401f9ed7                UI_dup_input_boolean
                0x00000000401fa07f                UI_add_info_string
                0x00000000401fa0bc                UI_dup_info_string
                0x00000000401fa143                UI_add_error_string
                0x00000000401fa180                UI_dup_error_string
                0x00000000401fa207                UI_construct_prompt
                0x00000000401fa337                UI_add_user_data
                0x00000000401fa345                UI_get0_user_data
                0x00000000401fa34f                UI_process
                0x00000000401fa484                UI_ctrl
                0x00000000401fa511                UI_get_ex_new_index
                0x00000000401fa530                UI_set_ex_data
                0x00000000401fa53f                UI_get_ex_data
                0x00000000401fa54e                UI_set_default_method
                0x00000000401fa55b                UI_get_default_method
                0x00000000401fa57e                UI_new_method
                0x00000000401fa60d                UI_new
                0x00000000401fa61d                UI_get_method
                0x00000000401fa626                UI_set_method
                0x00000000401fa632                UI_create_method
                0x00000000401fa68b                UI_destroy_method
                0x00000000401fa6b5                UI_method_set_opener
                0x00000000401fa6d0                UI_method_set_writer
                0x00000000401fa6eb                UI_method_set_flusher
                0x00000000401fa706                UI_method_set_reader
                0x00000000401fa721                UI_method_set_closer
                0x00000000401fa73c                UI_method_set_prompt_constructor
                0x00000000401fa757                UI_method_get_opener
                0x00000000401fa76d                UI_method_get_writer
                0x00000000401fa783                UI_method_get_flusher
                0x00000000401fa799                UI_method_get_reader
                0x00000000401fa7af                UI_method_get_closer
                0x00000000401fa7c5                UI_method_get_prompt_constructor
                0x00000000401fa7db                UI_get_string_type
                0x00000000401fa7ed                UI_get_input_flags
                0x00000000401fa800                UI_get0_output_string
                0x00000000401fa816                UI_get0_action_string
                0x00000000401fa83f                UI_get0_result_string
                0x00000000401fa864                UI_get0_result
                0x00000000401fa8f6                UI_get0_test_string
                0x00000000401fa916                UI_get_result_minsize
                0x00000000401fa93a                UI_get_result_maxsize
                0x00000000401fa95e                UI_set_result
                0x00000000401fae54                UI_OpenSSL
                0x00000000401fae60                d2i_AUTHORITY_KEYID
                0x00000000401fae70                i2d_AUTHORITY_KEYID
                0x00000000401fae80                AUTHORITY_KEYID_new
                0x00000000401fae90                AUTHORITY_KEYID_free
                0x00000000401fb133                POLICYINFO_free
                0x00000000401fb143                d2i_CERTIFICATEPOLICIES
                0x00000000401fb153                i2d_CERTIFICATEPOLICIES
                0x00000000401fb163                CERTIFICATEPOLICIES_new
                0x00000000401fb173                CERTIFICATEPOLICIES_free
                0x00000000401fb183                d2i_POLICYINFO
                0x00000000401fb193                i2d_POLICYINFO
                0x00000000401fb1a3                POLICYINFO_new
                0x00000000401fb1b3                d2i_POLICYQUALINFO
                0x00000000401fb1c3                i2d_POLICYQUALINFO
                0x00000000401fb1d3                POLICYQUALINFO_new
                0x00000000401fb1e3                POLICYQUALINFO_free
                0x00000000401fb1f3                d2i_USERNOTICE
                0x00000000401fb203                i2d_USERNOTICE
                0x00000000401fb213                USERNOTICE_new
                0x00000000401fb223                USERNOTICE_free
                0x00000000401fb233                d2i_NOTICEREF
                0x00000000401fb243                i2d_NOTICEREF
                0x00000000401fb253                NOTICEREF_new
                0x00000000401fbb98                NOTICEREF_free
                0x00000000401fbba8                X509_POLICY_NODE_print
                0x00000000401fc1e0                DIST_POINT_free
                0x00000000401fc1f0                d2i_DIST_POINT_NAME
                0x00000000401fc200                i2d_DIST_POINT_NAME
                0x00000000401fc210                DIST_POINT_NAME_new
                0x00000000401fc42a                DIST_POINT_NAME_free
                0x00000000401fc43a                d2i_DIST_POINT
                0x00000000401fc44a                i2d_DIST_POINT
                0x00000000401fc45a                DIST_POINT_new
                0x00000000401fc6fd                d2i_CRL_DIST_POINTS
                0x00000000401fc70d                i2d_CRL_DIST_POINTS
                0x00000000401fc71d                CRL_DIST_POINTS_new
                0x00000000401fc72d                CRL_DIST_POINTS_free
                0x00000000401fc73d                d2i_ISSUING_DIST_POINT
                0x00000000401fc74d                i2d_ISSUING_DIST_POINT
                0x00000000401fc75d                ISSUING_DIST_POINT_new
                0x00000000401fc76d                ISSUING_DIST_POINT_free
                0x00000000401fc97a                DIST_POINT_set_dpname
                0x00000000401fca68                i2d_GENERAL_NAME
                0x00000000401fca78                d2i_GENERAL_NAME
                0x00000000401fca88                d2i_OTHERNAME
                0x00000000401fca98                i2d_OTHERNAME
                0x00000000401fcaa8                OTHERNAME_new
                0x00000000401fcab8                OTHERNAME_free
                0x00000000401fcac8                d2i_EDIPARTYNAME
                0x00000000401fcad8                i2d_EDIPARTYNAME
                0x00000000401fcae8                EDIPARTYNAME_new
                0x00000000401fcaf8                EDIPARTYNAME_free
                0x00000000401fcb08                GENERAL_NAME_new
                0x00000000401fcb18                GENERAL_NAME_free
                0x00000000401fcb28                d2i_GENERAL_NAMES
                0x00000000401fcb38                i2d_GENERAL_NAMES
                0x00000000401fcb48                GENERAL_NAMES_new
                0x00000000401fcb58                GENERAL_NAMES_free
                0x00000000401fcb68                GENERAL_NAME_dup
                0x00000000401fcb80                OTHERNAME_cmp
                0x00000000401fcbce                GENERAL_NAME_cmp
                0x00000000401fcc56                GENERAL_NAME_set0_value
                0x00000000401fcc8e                GENERAL_NAME_get0_value
                0x00000000401fccd2                GENERAL_NAME_set0_othername
                0x00000000401fcd28                GENERAL_NAME_get0_otherName
                0x00000000401fd38e                GENERAL_SUBTREE_new
                0x00000000401fd39e                GENERAL_SUBTREE_free
                0x00000000401fd3ae                NAME_CONSTRAINTS_new
                0x00000000401fd3be                NAME_CONSTRAINTS_free
                0x00000000401fd55c                NAME_CONSTRAINTS_check
                0x00000000401fd68e                POLICY_CONSTRAINTS_new
                0x00000000401fd69e                POLICY_CONSTRAINTS_free
                0x00000000401fd8a3                POLICY_MAPPING_free
                0x00000000401fd8b3                POLICY_MAPPING_new
                0x00000000401fdb57                X509V3_EXT_val_prn
                0x00000000401fdc7e                X509V3_EXT_print
                0x00000000401fde5a                X509V3_extensions_print
                0x00000000401fe361                X509_PURPOSE_get_count
                0x00000000401fe380                X509_PURPOSE_get0
                0x00000000401fe3b6                X509_PURPOSE_get_by_sname
                0x00000000401fe3f6                X509_PURPOSE_get_by_id
                0x00000000401fe436                X509_PURPOSE_set
                0x00000000401fe490                X509_PURPOSE_add
                0x00000000401fe659                X509_PURPOSE_cleanup
                0x00000000401fe6a8                X509_PURPOSE_get_id
                0x00000000401fe6b0                X509_PURPOSE_get0_name
                0x00000000401fe6ba                X509_PURPOSE_get0_sname
                0x00000000401fe6c4                X509_PURPOSE_get_trust
                0x00000000401fe6cd                X509_supported_extension
                0x00000000401fec3e                X509_check_purpose
                0x00000000401fecd8                X509_check_ca
                0x00000000401fed33                X509_check_akid
                0x00000000401fee10                X509_check_issued
                0x00000000401feff0                X509V3_conf_free
                0x00000000401ff0e9                X509V3_add_value
                0x00000000401ff21a                X509V3_add_value_uchar
                0x00000000401ff225                X509V3_add_value_bool
                0x00000000401ff245                X509V3_add_value_bool_nf
                0x00000000401ff25e                i2s_ASN1_ENUMERATED
                0x00000000401ff2d8                i2s_ASN1_INTEGER
                0x00000000401ff352                s2i_ASN1_INTEGER
                0x00000000401ff48f                X509V3_add_value_int
                0x00000000401ff4f7                X509V3_get_value_bool
                0x00000000401ff66e                X509V3_get_value_int
                0x00000000401ff6df                X509V3_parse_list
                0x00000000401ff912                hex_to_string
                0x00000000401ff9d9                string_to_hex
                0x00000000401ffb96                name_cmp
                0x00000000401ffbf5                X509_email_free
                0x00000000401ffd61                X509_REQ_get1_email
                0x00000000401ffdd7                X509_get1_email
                0x00000000401ffe31                X509_get1_ocsp
                0x00000000401ffed0                a2i_ipadd
                0x0000000040200041                a2i_IPADDRESS_NC
                0x0000000040200131                a2i_IPADDRESS
                0x000000004020018d                X509V3_NAME_from_section
                0x0000000040200280                X509at_get_attr_count
                0x000000004020028b                X509at_get_attr_by_OBJ
                0x00000000402002f9                X509at_get_attr_by_NID
                0x0000000040200338                X509at_get_attr
                0x0000000040200383                X509at_delete_attr
                0x00000000402003ce                X509at_add1_attr
                0x00000000402004a9                X509_ATTRIBUTE_set1_object
                0x00000000402004f2                X509_ATTRIBUTE_set1_data
                0x000000004020067a                X509_ATTRIBUTE_create_by_OBJ
                0x000000004020074e                X509_ATTRIBUTE_create_by_txt
                0x0000000040200806                X509at_add1_attr_by_txt
                0x000000004020085c                X509_ATTRIBUTE_create_by_NID
                0x00000000402008f6                X509at_add1_attr_by_NID
                0x000000004020094c                X509at_add1_attr_by_OBJ
                0x00000000402009a2                X509_ATTRIBUTE_count
                0x00000000402009c4                X509_ATTRIBUTE_get0_object
                0x00000000402009d9                X509_ATTRIBUTE_get0_type
                0x0000000040200a30                X509_ATTRIBUTE_get0_data
                0x0000000040200a96                X509at_get0_data_by_OBJ
                0x0000000040200b44                X509_CRL_get_ext_count
                0x0000000040200b56                X509_CRL_get_ext_by_NID
                0x0000000040200b68                X509_CRL_get_ext_by_OBJ
                0x0000000040200b7a                X509_CRL_get_ext_by_critical
                0x0000000040200b8c                X509_CRL_get_ext
                0x0000000040200b9e                X509_CRL_delete_ext
                0x0000000040200bb0                X509_CRL_get_ext_d2i
                0x0000000040200bc2                X509_CRL_add1_ext_i2d
                0x0000000040200bd4                X509_CRL_add_ext
                0x0000000040200bef                X509_get_ext_count
                0x0000000040200c01                X509_get_ext_by_NID
                0x0000000040200c13                X509_get_ext_by_OBJ
                0x0000000040200c25                X509_get_ext_by_critical
                0x0000000040200c37                X509_get_ext
                0x0000000040200c49                X509_delete_ext
                0x0000000040200c5b                X509_add_ext
                0x0000000040200c76                X509_get_ext_d2i
                0x0000000040200c88                X509_add1_ext_i2d
                0x0000000040200c9a                X509_REVOKED_get_ext_count
                0x0000000040200ca9                X509_REVOKED_get_ext_by_NID
                0x0000000040200cb8                X509_REVOKED_get_ext_by_OBJ
                0x0000000040200cc7                X509_REVOKED_get_ext_by_critical
                0x0000000040200cd6                X509_REVOKED_get_ext
                0x0000000040200ce5                X509_REVOKED_delete_ext
                0x0000000040200cf4                X509_REVOKED_add_ext
                0x0000000040200d0c                X509_REVOKED_get_ext_d2i
                0x0000000040200d1b                X509_REVOKED_add1_ext_i2d
                0x0000000040200e9e                X509_LOOKUP_new
                0x0000000040200f0d                X509_LOOKUP_free
                0x0000000040200f41                X509_LOOKUP_init
                0x0000000040200f62                X509_LOOKUP_shutdown
                0x0000000040200f83                X509_LOOKUP_ctrl
                0x0000000040200faa                X509_LOOKUP_by_subject
                0x0000000040200fd1                X509_LOOKUP_by_issuer_serial
                0x0000000040200ff1                X509_LOOKUP_by_fingerprint
                0x0000000040201011                X509_LOOKUP_by_alias
                0x0000000040201031                X509_STORE_new
                0x0000000040201129                X509_STORE_free
                0x00000000402011b9                X509_STORE_add_lookup
                0x0000000040201241                X509_OBJECT_up_ref_count
                0x000000004020129b                X509_OBJECT_free_contents
                0x00000000402012c3                X509_OBJECT_idx_by_subject
                0x00000000402012d3                X509_OBJECT_retrieve_by_subject
                0x00000000402012ff                X509_STORE_get_by_subject
                0x0000000040201413                X509_STORE_get1_certs
                0x00000000402015e5                X509_STORE_get1_crls
                0x00000000402017a8                X509_OBJECT_retrieve_match
                0x000000004020187b                X509_STORE_add_crl
                0x000000004020198f                X509_STORE_add_cert
                0x0000000040201aa3                X509_STORE_CTX_get1_issuer
                0x0000000040201c69                X509_STORE_set_flags
                0x0000000040201c78                X509_STORE_set_depth
                0x0000000040201c8c                X509_STORE_set_purpose
                0x0000000040201c9b                X509_STORE_set_trust
                0x0000000040201caa                X509_STORE_set1_param
                0x0000000040201cb9                X509_STORE_set_verify_cb
                0x0000000040201cd0                X509_to_X509_REQ
                0x0000000040201ddc                X509_REQ_get_pubkey
                0x0000000040201e04                X509_REQ_check_private_key
                0x0000000040201f39                X509_REQ_extension_nid
                0x0000000040201f78                X509_REQ_get_extension_nids
                0x0000000040201f85                X509_REQ_set_extension_nids
                0x0000000040201f92                X509_REQ_add_extensions_nid
                0x00000000402020b5                X509_REQ_add_extensions
                0x00000000402020c5                X509_REQ_get_attr_count
                0x00000000402020d7                X509_REQ_get_attr_by_NID
                0x00000000402020e9                X509_REQ_get_attr_by_OBJ
                0x00000000402020fb                X509_REQ_get_attr
                0x000000004020210d                X509_REQ_get_extensions
                0x000000004020220f                X509_REQ_delete_attr
                0x0000000040202221                X509_REQ_add1_attr
                0x000000004020223c                X509_REQ_add1_attr_by_OBJ
                0x0000000040202257                X509_REQ_add1_attr_by_NID
                0x0000000040202272                X509_REQ_add1_attr_by_txt
                0x0000000040202415                X509_TRUST_set_default
                0x0000000040202429                X509_TRUST_get_count
                0x0000000040202448                X509_TRUST_get0
                0x000000004020247c                X509_TRUST_get_by_id
                0x00000000402024bc                X509_check_trust
                0x000000004020251f                X509_TRUST_set
                0x0000000040202579                X509_TRUST_add
                0x0000000040202725                X509_TRUST_cleanup
                0x0000000040202771                X509_TRUST_get_flags
                0x000000004020277a                X509_TRUST_get0_name
                0x0000000040202784                X509_TRUST_get_trust
                0x0000000040202790                X509v3_get_ext_count
                0x00000000402027a5                X509v3_get_ext_by_OBJ
                0x0000000040202813                X509v3_get_ext_by_NID
                0x0000000040202852                X509v3_get_ext_by_critical
                0x00000000402028c8                X509v3_get_ext
                0x0000000040202913                X509v3_delete_ext
                0x000000004020295e                X509v3_add_ext
                0x0000000040202a63                X509_EXTENSION_set_object
                0x0000000040202aac                X509_EXTENSION_set_critical
                0x0000000040202acb                X509_EXTENSION_set_data
                0x0000000040202af5                X509_EXTENSION_create_by_OBJ
                0x0000000040202bcf                X509_EXTENSION_create_by_NID
                0x0000000040202c5b                X509_EXTENSION_get_object
                0x0000000040202c70                X509_EXTENSION_get_data
                0x0000000040202c86                X509_EXTENSION_get_critical
                0x0000000040202ca0                X509_NAME_entry_count
                0x0000000040202cb8                X509_NAME_get_index_by_OBJ
                0x0000000040202d2b                X509_NAME_get_index_by_NID
                0x0000000040202d6a                X509_NAME_get_entry
                0x0000000040202db8                X509_NAME_delete_entry
                0x0000000040202e84                X509_NAME_add_entry
                0x0000000040202ff8                X509_NAME_ENTRY_set_object
                0x0000000040203064                X509_NAME_ENTRY_set_data
                0x0000000040203149                X509_NAME_ENTRY_create_by_OBJ
                0x00000000402031fc                X509_NAME_ENTRY_create_by_NID
                0x0000000040203292                X509_NAME_add_entry_by_NID
                0x00000000402032f9                X509_NAME_ENTRY_create_by_txt
                0x00000000402033b1                X509_NAME_add_entry_by_txt
                0x0000000040203418                X509_NAME_add_entry_by_OBJ
                0x000000004020347f                X509_NAME_ENTRY_get_object
                0x0000000040203494                X509_NAME_ENTRY_get_data
                0x00000000402034aa                X509_NAME_get_text_by_OBJ
                0x000000004020352c                X509_NAME_get_text_by_NID
                0x000000004020357c                X509_REQ_set_version
                0x0000000040203598                X509_REQ_set_subject_name
                0x00000000402035b9                X509_REQ_set_pubkey
                0x00000000402035dc                d2i_X509_VAL
                0x00000000402035ec                i2d_X509_VAL
                0x00000000402035fc                X509_VAL_new
                0x000000004020360c                X509_VAL_free
                0x0000000040203620                CRYPTO_cbc128_encrypt
                0x000000004020376b                CRYPTO_cbc128_decrypt
                0x0000000040203ab4                CRYPTO_cfb128_encrypt
                0x0000000040203d65                CRYPTO_cfb128_1_encrypt
                0x0000000040203e2f                CRYPTO_cfb128_8_encrypt
                0x0000000040203e9c                CRYPTO_ofb128_encrypt
                0x0000000040203fc8                i2d_ASN1_BOOLEAN
                0x0000000040204042                d2i_ASN1_BOOLEAN
                0x0000000040204380                ASN1_mbstring_ncopy
                0x0000000040204885                ASN1_mbstring_copy
                0x00000000402048b0                ASN1_PRINTABLE_type
                0x0000000040204971                ASN1_UNIVERSALSTRING_to_string
                0x0000000040204a5f                ASN1_STRING_set_default_mask
                0x0000000040204a6c                ASN1_STRING_get_default_mask
                0x0000000040204a79                ASN1_STRING_set_default_mask_asc
                0x0000000040204b3c                ASN1_STRING_TABLE_get
                0x0000000040204ba2                ASN1_STRING_set_by_NID
                0x0000000040204c61                ASN1_STRING_TABLE_add
                0x0000000040204d96                ASN1_STRING_TABLE_cleanup
                0x0000000040204dc0                ASN1_seq_unpack
                0x0000000040204e25                ASN1_seq_pack
                0x0000000040204f23                ASN1_unpack_string
                0x0000000040204f76                ASN1_pack_string
                0x0000000040205078                ASN1_item_pack
                0x0000000040205171                ASN1_item_unpack
                0x00000000402051c8                BN_mod_exp2_mont
                0x0000000040205a54                BN_kronecker
                0x0000000040205d7a                BN_get0_nist_prime_192
                0x0000000040205d85                BN_get0_nist_prime_224
                0x0000000040205d90                BN_get0_nist_prime_256
                0x0000000040205d9b                BN_get0_nist_prime_384
                0x0000000040205da6                BN_get0_nist_prime_521
                0x0000000040205db1                BN_nist_mod_192
                0x000000004020601f                BN_nist_mod_224
                0x0000000040206365                BN_nist_mod_256
                0x00000000402067fd                BN_nist_mod_384
                0x0000000040206d9d                BN_nist_mod_521
                0x0000000040206f80                BN_mod_sqrt
                0x000000004020792b                CONF_modules_load
                0x0000000040207dac                CONF_modules_finish
                0x0000000040207e26                CONF_modules_unload
                0x0000000040207edc                CONF_module_add
                0x0000000040207efe                CONF_modules_free
                0x0000000040207f13                CONF_imodule_get_name
                0x0000000040207f1d                CONF_imodule_get_value
                0x0000000040207f27                CONF_imodule_get_usr_data
                0x0000000040207f31                CONF_imodule_set_usr_data
                0x0000000040207f3b                CONF_imodule_get_module
                0x0000000040207f44                CONF_imodule_get_flags
                0x0000000040207f4e                CONF_imodule_set_flags
                0x0000000040207f58                CONF_module_get_usr_data
                0x0000000040207f62                CONF_module_set_usr_data
                0x0000000040207f6c                CONF_get1_default_config_file
                0x0000000040207fe7                CONF_modules_load_file
                0x00000000402080c1                CONF_parse_list
                0x00000000402081d0                DSO_set_default_method
                0x00000000402081dd                DSO_get_default_method
                0x00000000402081ea                DSO_get_method
                0x00000000402081f3                DSO_set_method
                0x00000000402081ff                DSO_new_method
                0x00000000402082f2                DSO_new
                0x0000000040208302                DSO_free
                0x0000000040208418                DSO_flags
                0x000000004020842b                DSO_up_ref
                0x000000004020847d                DSO_bind_var
                0x000000004020851b                DSO_bind_func
                0x00000000402085b9                DSO_ctrl
                0x0000000040208651                DSO_set_name_converter
                0x0000000040208695                DSO_get_filename
                0x00000000402086c8                DSO_set_filename
                0x00000000402087c5                DSO_load
                0x0000000040208974                DSO_merge
                0x00000000402089d7                DSO_convert_filename
                0x0000000040208ae7                DSO_get_loaded_filename
                0x0000000040208b1a                DSO_pathbyaddr
                0x0000000040208b8e                DSO_global_lookup
                0x0000000040208be8                DSO_METHOD_openssl
                0x0000000040208c00                ec_GF2m_simple_is_at_infinity
                0x0000000040208c10                ec_GF2m_simple_points_make_affine
                0x0000000040208c79                ec_GF2m_simple_field_div
                0x0000000040208c94                ec_GF2m_simple_field_sqr
                0x0000000040208caf                ec_GF2m_simple_field_mul
                0x0000000040208ccd                ec_GF2m_simple_point_copy
                0x0000000040208d32                ec_GF2m_simple_group_get_curve
                0x0000000040208dba                ec_GF2m_simple_point_set_to_infinity
                0x0000000040208dda                ec_GF2m_simple_make_affine
                0x0000000040208eee                ec_GF2m_simple_cmp
                0x000000004020908b                ec_GF2m_simple_is_on_curve
                0x0000000040209229                ec_GF2m_simple_invert
                0x0000000040209293                ec_GF2m_simple_add
                0x00000000402096aa                ec_GF2m_simple_dbl
                0x00000000402096bb                ec_GF2m_simple_oct2point
                0x0000000040209a7b                ec_GF2m_simple_group_get_degree
                0x0000000040209a8d                ec_GF2m_simple_point2oct
                0x0000000040209e3e                ec_GF2m_simple_group_check_discriminant
                0x0000000040209f15                ec_GF2m_simple_set_compressed_coordinates
                0x000000004020a1a9                ec_GF2m_simple_point_get_affine_coordinates
                0x000000004020a29d                ec_GF2m_simple_point_set_affine_coordinates
                0x000000004020a37d                ec_GF2m_simple_point_clear_finish
                0x000000004020a3b2                ec_GF2m_simple_group_clear_finish
                0x000000004020a422                ec_GF2m_simple_point_finish
                0x000000004020a450                ec_GF2m_simple_group_finish
                0x000000004020a484                ec_GF2m_simple_point_init
                0x000000004020a4b7                ec_GF2m_simple_group_init
                0x000000004020a4f0                ec_GF2m_simple_group_set_curve
                0x000000004020a69e                ec_GF2m_simple_group_copy
                0x000000004020a83d                EC_GF2m_simple_method
                0x000000004020a848                d2i_ECDSA_SIG
                0x000000004020a858                i2d_ECDSA_SIG
                0x000000004020a868                ECDSA_SIG_new
                0x000000004020a878                ECDSA_SIG_free
                0x000000004020a89e                ERR_print_errors_cb
                0x000000004020a98e                ERR_print_errors
                0x000000004020a9a4                PKCS12_item_pack_safebag
                0x000000004020aaa0                PKCS12_MAKE_KEYBAG
                0x000000004020aaff                PKCS12_MAKE_SHKEYBAG
                0x000000004020abf0                PKCS12_pack_p7data
                0x000000004020acb4                PKCS12_unpack_p7data
                0x000000004020ad09                PKCS12_pack_p7encdata
                0x000000004020aeaa                PKCS12_unpack_p7encdata
                0x000000004020af14                PKCS12_decrypt_skey
                0x000000004020af23                PKCS12_pack_authsafes
                0x000000004020af4a                PKCS12_unpack_authsafes
                0x000000004020afa8                d2i_PKCS12
                0x000000004020afb8                i2d_PKCS12
                0x000000004020afc8                PKCS12_new
                0x000000004020afd8                PKCS12_free
                0x000000004020afe8                d2i_PKCS12_MAC_DATA
                0x000000004020aff8                i2d_PKCS12_MAC_DATA
                0x000000004020b008                PKCS12_MAC_DATA_new
                0x000000004020b018                PKCS12_MAC_DATA_free
                0x000000004020b028                d2i_PKCS12_BAGS
                0x000000004020b038                i2d_PKCS12_BAGS
                0x000000004020b048                PKCS12_BAGS_new
                0x000000004020b058                PKCS12_BAGS_free
                0x000000004020b068                d2i_PKCS12_SAFEBAG
                0x000000004020b078                i2d_PKCS12_SAFEBAG
                0x000000004020b088                PKCS12_SAFEBAG_new
                0x000000004020b098                PKCS12_SAFEBAG_free
                0x000000004020b0a8                PKCS12_pbe_crypt
                0x000000004020b228                PKCS12_item_decrypt_d2i
                0x000000004020b2f4                PKCS12_item_i2d_encrypt
                0x000000004020b430                PKCS8_encrypt
                0x000000004020b568                X509_policy_tree_level_count
                0x000000004020b57b                X509_policy_tree_get0_level
                0x000000004020b5aa                X509_policy_tree_get0_policies
                0x000000004020b5c0                X509_policy_tree_get0_user_policies
                0x000000004020b5e2                X509_policy_level_node_count
                0x000000004020b619                X509_policy_level_get0_node
                0x000000004020b644                X509_policy_node_get0_policy
                0x000000004020b65d                X509_policy_node_get0_qualifiers
                0x000000004020b676                X509_policy_node_get0_parent
                0x000000004020b6ab                policy_node_cmp_new
                0x000000004020b6bb                tree_find_sk
                0x000000004020b6f7                level_find_node
                0x000000004020b76b                policy_node_free
                0x000000004020b776                level_add_node
                0x000000004020b872                policy_node_match
                0x000000004020ba79                i2v_GENERAL_NAME
                0x000000004020bd00                i2v_GENERAL_NAMES
                0x000000004020bd64                GENERAL_NAME_print
                0x000000004020bf08                a2i_GENERAL_NAME
                0x000000004020c2cc                v2i_GENERAL_NAME_ex
                0x000000004020c439                v2i_GENERAL_NAME
                0x000000004020c784                v2i_GENERAL_NAMES
                0x000000004020c87d                d2i_BASIC_CONSTRAINTS
                0x000000004020c88d                i2d_BASIC_CONSTRAINTS
                0x000000004020c89d                BASIC_CONSTRAINTS_new
                0x000000004020c8ad                BASIC_CONSTRAINTS_free
                0x000000004020d045                X509V3_EXT_nconf
                0x000000004020d11c                X509V3_EXT_nconf_nid
                0x000000004020d1ac                X509V3_EXT_i2d
                0x000000004020d216                X509V3_EXT_add_nconf_sk
                0x000000004020d2be                X509V3_EXT_add_nconf
                0x000000004020d2dd                X509V3_EXT_CRL_add_nconf
                0x000000004020d2fc                X509V3_EXT_REQ_add_nconf
                0x000000004020d35b                X509V3_get_string
                0x000000004020d3a6                X509V3_get_section
                0x000000004020d3f2                X509V3_string_free
                0x000000004020d410                X509V3_section_free
                0x000000004020d42e                X509V3_set_nconf
                0x000000004020d440                X509V3_set_ctx
                0x000000004020d459                X509V3_EXT_conf
                0x000000004020d4a2                X509V3_EXT_conf_nid
                0x000000004020d4eb                X509V3_set_conf_lhash
                0x000000004020d4fd                X509V3_EXT_add_conf
                0x000000004020d546                X509V3_EXT_CRL_add_conf
                0x000000004020d58f                X509V3_EXT_REQ_add_conf
                0x000000004020d72f                ACCESS_DESCRIPTION_free
                0x000000004020d73f                d2i_ACCESS_DESCRIPTION
                0x000000004020d74f                i2d_ACCESS_DESCRIPTION
                0x000000004020d75f                ACCESS_DESCRIPTION_new
                0x000000004020d989                d2i_AUTHORITY_INFO_ACCESS
                0x000000004020d999                i2d_AUTHORITY_INFO_ACCESS
                0x000000004020d9a9                AUTHORITY_INFO_ACCESS_new
                0x000000004020d9b9                AUTHORITY_INFO_ACCESS_free
                0x000000004020d9c9                i2a_ACCESS_DESCRIPTION
                0x000000004020da0c                X509V3_EXT_add
                0x000000004020daa0                X509V3_EXT_get_nid
                0x000000004020db18                X509V3_EXT_get
                0x000000004020db36                X509V3_EXT_add_list
                0x000000004020db74                X509V3_EXT_add_alias
                0x000000004020dc6f                X509V3_EXT_cleanup
                0x000000004020dc91                X509V3_add_standard_extensions
                0x000000004020dc9c                X509V3_EXT_d2i
                0x000000004020dcf7                X509V3_get_d2i
                0x000000004020de1f                X509V3_add1_i2d
                0x000000004020ede0                d2i_PROXY_POLICY
                0x000000004020edf0                i2d_PROXY_POLICY
                0x000000004020ee00                PROXY_POLICY_new
                0x000000004020ee10                PROXY_POLICY_free
                0x000000004020ee20                d2i_PROXY_CERT_INFO_EXTENSION
                0x000000004020ee30                i2d_PROXY_CERT_INFO_EXTENSION
                0x000000004020ee40                PROXY_CERT_INFO_EXTENSION_new
                0x000000004020ee50                PROXY_CERT_INFO_EXTENSION_free
                0x000000004020eef1                d2i_PKEY_USAGE_PERIOD
                0x000000004020ef01                i2d_PKEY_USAGE_PERIOD
                0x000000004020ef11                PKEY_USAGE_PERIOD_new
                0x000000004020ef21                PKEY_USAGE_PERIOD_free
                0x000000004020ef40                i2s_ASN1_OCTET_STRING
                0x000000004020ef55                s2i_ASN1_OCTET_STRING
                0x000000004020f207                d2i_SXNETID
                0x000000004020f217                i2d_SXNETID
                0x000000004020f227                SXNETID_new
                0x000000004020f237                SXNETID_free
                0x000000004020f247                d2i_SXNET
                0x000000004020f257                i2d_SXNET
                0x000000004020f267                SXNET_new
                0x000000004020f277                SXNET_free
                0x000000004020f287                SXNET_get_id_INTEGER
                0x000000004020f2e6                SXNET_get_id_ulong
                0x000000004020f377                SXNET_get_id_asc
                0x000000004020f3e6                SXNET_add_id_INTEGER
                0x000000004020f5a6                SXNET_add_id_ulong
                0x000000004020f644                SXNET_add_id_asc
                0x000000004020f718                X509_get_default_private_dir
                0x000000004020f723                X509_get_default_cert_area
                0x000000004020f72e                X509_get_default_cert_dir
                0x000000004020f739                X509_get_default_cert_file
                0x000000004020f744                X509_get_default_cert_dir_env
                0x000000004020f74f                X509_get_default_cert_file_env
                0x000000004020f7a1                i2d_ASN1_SET
                0x000000004020fa0a                d2i_ASN1_SET
                0x00000000402102cf                ASN1_generate_v3
                0x0000000040210c01                ASN1_generate_nconf
                0x0000000040210e0c                BN_GF2m_add
                0x0000000040210eea                BN_GF2m_mod_arr
                0x0000000040211186                BN_GF2m_mod_sqr_arr
                0x000000004021132a                BN_GF2m_mod_mul_arr
                0x0000000040211590                BN_GF2m_mod_exp_arr
                0x00000000402116c7                BN_GF2m_mod_sqrt_arr
                0x000000004021176f                BN_GF2m_mod_solve_quad_arr
                0x0000000040211b39                BN_GF2m_poly2arr
                0x0000000040211bc3                BN_GF2m_mod_solve_quad
                0x0000000040211c90                BN_GF2m_mod_sqrt
                0x0000000040211d5d                BN_GF2m_mod_exp
                0x0000000040211e32                BN_GF2m_mod_sqr
                0x0000000040211eff                BN_GF2m_mod_mul
                0x0000000040211fd4                BN_GF2m_mod
                0x0000000040212099                BN_GF2m_mod_inv
                0x0000000040212279                BN_GF2m_mod_div
                0x0000000040212316                BN_GF2m_arr2poly
                0x000000004021237b                BN_GF2m_mod_div_arr
                0x000000004021240f                BN_GF2m_mod_inv_arr
                0x00000000402124a0                CONF_set_nconf
                0x00000000402124e7                CONF_set_default_method
                0x00000000402124f9                CONF_load
                0x0000000040212523                NCONF_new
                0x0000000040212570                NCONF_free
                0x0000000040212581                NCONF_free_data
                0x0000000040212592                CONF_free
                0x00000000402125b1                NCONF_load
                0x00000000402125e6                NCONF_load_bio
                0x000000004021261b                CONF_load_bio
                0x0000000040212665                NCONF_get_section
                0x00000000402126c2                CONF_get_section
                0x00000000402126f7                NCONF_get_string
                0x000000004021279e                CONF_get_string
                0x00000000402127e5                NCONF_get_number_e
                0x0000000040212880                CONF_get_number
                0x00000000402128de                NCONF_dump_bio
                0x0000000040212913                CONF_dump_bio
                0x0000000040212940                DSO_METHOD_null
                0x000000004021320a                ec_GF2m_simple_mul
                0x0000000040213465                ec_GF2m_precompute_mult
                0x0000000040213470                ec_GF2m_have_precompute_mult
                0x000000004021347c                i2a_ASN1_INTEGER
                0x00000000402135bd                a2i_ASN1_INTEGER
                0x00000000402138c0                i2a_ASN1_STRING
                0x00000000402139d1                a2i_ASN1_STRING
                0x0000000040213c88                d2i_OCSP_SIGNATURE
                0x0000000040213c98                i2d_OCSP_SIGNATURE
                0x0000000040213ca8                OCSP_SIGNATURE_new
                0x0000000040213cb8                OCSP_SIGNATURE_free
                0x0000000040213cc8                d2i_OCSP_CERTID
                0x0000000040213cd8                i2d_OCSP_CERTID
                0x0000000040213ce8                OCSP_CERTID_new
                0x0000000040213cf8                OCSP_CERTID_free
                0x0000000040213d08                d2i_OCSP_ONEREQ
                0x0000000040213d18                i2d_OCSP_ONEREQ
                0x0000000040213d28                OCSP_ONEREQ_new
                0x0000000040213d38                OCSP_ONEREQ_free
                0x0000000040213d48                d2i_OCSP_REQINFO
                0x0000000040213d58                i2d_OCSP_REQINFO
                0x0000000040213d68                OCSP_REQINFO_new
                0x0000000040213d78                OCSP_REQINFO_free
                0x0000000040213d88                d2i_OCSP_REQUEST
                0x0000000040213d98                i2d_OCSP_REQUEST
                0x0000000040213da8                OCSP_REQUEST_new
                0x0000000040213db8                OCSP_REQUEST_free
                0x0000000040213dc8                d2i_OCSP_RESPBYTES
                0x0000000040213dd8                i2d_OCSP_RESPBYTES
                0x0000000040213de8                OCSP_RESPBYTES_new
                0x0000000040213df8                OCSP_RESPBYTES_free
                0x0000000040213e08                d2i_OCSP_RESPONSE
                0x0000000040213e18                i2d_OCSP_RESPONSE
                0x0000000040213e28                OCSP_RESPONSE_new
                0x0000000040213e38                OCSP_RESPONSE_free
                0x0000000040213e48                d2i_OCSP_RESPID
                0x0000000040213e58                i2d_OCSP_RESPID
                0x0000000040213e68                OCSP_RESPID_new
                0x0000000040213e78                OCSP_RESPID_free
                0x0000000040213e88                d2i_OCSP_REVOKEDINFO
                0x0000000040213e98                i2d_OCSP_REVOKEDINFO
                0x0000000040213ea8                OCSP_REVOKEDINFO_new
                0x0000000040213eb8                OCSP_REVOKEDINFO_free
                0x0000000040213ec8                d2i_OCSP_CERTSTATUS
                0x0000000040213ed8                i2d_OCSP_CERTSTATUS
                0x0000000040213ee8                OCSP_CERTSTATUS_new
                0x0000000040213ef8                OCSP_CERTSTATUS_free
                0x0000000040213f08                d2i_OCSP_SINGLERESP
                0x0000000040213f18                i2d_OCSP_SINGLERESP
                0x0000000040213f28                OCSP_SINGLERESP_new
                0x0000000040213f38                OCSP_SINGLERESP_free
                0x0000000040213f48                d2i_OCSP_RESPDATA
                0x0000000040213f58                i2d_OCSP_RESPDATA
                0x0000000040213f68                OCSP_RESPDATA_new
                0x0000000040213f78                OCSP_RESPDATA_free
                0x0000000040213f88                d2i_OCSP_BASICRESP
                0x0000000040213f98                i2d_OCSP_BASICRESP
                0x0000000040213fa8                OCSP_BASICRESP_new
                0x0000000040213fb8                OCSP_BASICRESP_free
                0x0000000040213fc8                d2i_OCSP_CRLID
                0x0000000040213fd8                i2d_OCSP_CRLID
                0x0000000040213fe8                OCSP_CRLID_new
                0x0000000040213ff8                OCSP_CRLID_free
                0x0000000040214008                d2i_OCSP_SERVICELOC
                0x0000000040214018                i2d_OCSP_SERVICELOC
                0x0000000040214028                OCSP_SERVICELOC_new
                0x0000000040214038                OCSP_SERVICELOC_free
                0x00000000402143fc                v2i_ASN1_BIT_STRING
                0x000000004021457f                i2v_ASN1_BIT_STRING
                0x00000000402145d4                i2s_ASN1_ENUMERATED_TABLE
                0x00000000402147a0                d2i_EXTENDED_KEY_USAGE
                0x00000000402147b0                i2d_EXTENDED_KEY_USAGE
                0x00000000402147c0                EXTENDED_KEY_USAGE_new
                0x00000000402147d0                EXTENDED_KEY_USAGE_free
                0x0000000040214a48                _CONF_get_section
                0x0000000040214a7c                _CONF_get_section_values
                0x0000000040214a97                _CONF_add_string
                0x0000000040214b22                _CONF_get_string
                0x0000000040214bc0                _CONF_new_data
                0x0000000040214c02                _CONF_free_data
                0x0000000040214c53                _CONF_new_section
                0x0000000040215be1                NCONF_default
                0x0000000040215bec                NCONF_WIN32
                0x0000000040215bf7                codeend = .

.iplt           0x0000000040215c00        0x0 load address 0x0000000000215c00
 .iplt          0x0000000000000000        0x0 output.o

.rodata         0x0000000040215c00    0x34fcc load address 0x0000000000215c00
 .rodata        0x0000000040215c00    0x34fcc output.o
                0x0000000040223da0                BN_version
                0x00000000402241c0                DES_SPtrans
                0x00000000402251c0                DH_version
                0x00000000402266a0                OSSL_DES_version
                0x00000000402266e0                OSSL_libdes_version
                0x00000000402267c0                EVP_version
                0x0000000040226880                IDEA_version
                0x00000000402268c0                lh_version
                0x0000000040226f00                MD4_version
                0x0000000040226f40                MD5_version
                0x0000000040233ac0                PEM_version
                0x0000000040233b20                PKCS7_ATTR_VERIFY_it
                0x0000000040233b60                PKCS7_ATTR_SIGN_it
                0x0000000040233ba0                PKCS7_DIGEST_it
                0x0000000040233be0                PKCS7_ENCRYPT_it
                0x0000000040233c20                PKCS7_SIGN_ENVELOPE_it
                0x0000000040233c60                PKCS7_ENC_CONTENT_it
                0x0000000040233ca0                PKCS7_RECIP_INFO_it
                0x0000000040233ce0                PKCS7_ENVELOPE_it
                0x0000000040233d20                PKCS7_ISSUER_AND_SERIAL_it
                0x0000000040233d60                PKCS7_SIGNER_INFO_it
                0x0000000040233da0                PKCS7_SIGNED_it
                0x0000000040233de0                PKCS7_it
                0x00000000402348a0                RC2_version
                0x00000000402349e0                RC4_version
                0x0000000040234a20                RMD160_version
                0x0000000040234a60                RSAPublicKey_it
                0x0000000040234aa0                RSAPrivateKey_it
                0x0000000040234d40                RSA_version
                0x0000000040235f40                SHA1_version
                0x0000000040235f80                SHA256_version
                0x00000000402360c0                SHA512_version
                0x0000000040236380                SHA_version
                0x00000000402363c0                STACK_version
                0x0000000040236620                ASN1_SET_ANY_it
                0x0000000040236660                ASN1_SEQUENCE_ANY_it
                0x00000000402366a0                ASN1_OCTET_STRING_NDEF_it
                0x00000000402366e0                ASN1_FBOOLEAN_it
                0x0000000040236720                ASN1_TBOOLEAN_it
                0x0000000040236760                ASN1_BOOLEAN_it
                0x00000000402367a0                DIRECTORYSTRING_it
                0x00000000402367e0                DISPLAYTEXT_it
                0x0000000040236820                ASN1_PRINTABLE_it
                0x0000000040236860                ASN1_SEQUENCE_it
                0x00000000402368a0                ASN1_ANY_it
                0x00000000402368e0                ASN1_BMPSTRING_it
                0x0000000040236920                ASN1_UNIVERSALSTRING_it
                0x0000000040236960                ASN1_VISIBLESTRING_it
                0x00000000402369a0                ASN1_GENERALIZEDTIME_it
                0x00000000402369e0                ASN1_UTCTIME_it
                0x0000000040236a20                ASN1_GENERALSTRING_it
                0x0000000040236a60                ASN1_IA5STRING_it
                0x0000000040236aa0                ASN1_T61STRING_it
                0x0000000040236ae0                ASN1_PRINTABLESTRING_it
                0x0000000040236b20                ASN1_UTF8STRING_it
                0x0000000040236b60                ASN1_OBJECT_it
                0x0000000040236ba0                ASN1_NULL_it
                0x0000000040236be0                ASN1_OCTET_STRING_it
                0x0000000040236c20                ASN1_BIT_STRING_it
                0x0000000040236c60                ASN1_ENUMERATED_it
                0x0000000040236ca0                ASN1_INTEGER_it
                0x0000000040236d80                X509_version
                0x0000000040236ee0                X509_ALGORS_it
                0x0000000040236f20                X509_ALGOR_it
                0x0000000040237000                X509_ATTRIBUTE_it
                0x0000000040237040                X509_ATTRIBUTE_SET_it
                0x0000000040237140                CBIGNUM_it
                0x0000000040237180                BIGNUM_it
                0x00000000402371c0                X509_CRL_it
                0x0000000040237200                X509_CRL_INFO_it
                0x0000000040237240                X509_REVOKED_it
                0x0000000040237520                X509_EXTENSIONS_it
                0x0000000040237560                X509_EXTENSION_it
                0x0000000040237660                ZLONG_it
                0x00000000402376a0                LONG_it
                0x00000000402376e0                X509_NAME_it
                0x0000000040237720                x509_name_ff
                0x0000000040237760                X509_NAME_INTERNAL_it
                0x00000000402377a0                X509_NAME_ENTRIES_it
                0x00000000402377e0                X509_NAME_ENTRY_it
                0x0000000040237900                X509_PUBKEY_it
                0x00000000402379e0                X509_REQ_it
                0x0000000040237a20                X509_REQ_INFO_it
                0x0000000040237c00                X509_SIG_it
                0x0000000040237ca0                NETSCAPE_SPKI_it
                0x0000000040237ce0                NETSCAPE_SPKAC_it
                0x0000000040237e00                X509_it
                0x0000000040237e40                X509_CINF_it
                0x0000000040238120                X509_CERT_PAIR_it
                0x0000000040238160                X509_CERT_AUX_it
                0x0000000040238760                rsa_pkey_meth
                0x0000000040238840                dh_pkey_meth
                0x0000000040238920                dsa_pkey_meth
                0x0000000040238a00                ec_pkey_meth
                0x0000000040238ae0                hmac_pkey_meth
                0x0000000040238c00                rsa_asn1_meths
                0x0000000040238d80                dh_asn1_meth
                0x0000000040238e40                dsa_asn1_meths
                0x00000000402391e0                eckey_asn1_meth
                0x00000000402392a0                hmac_asn1_meth
                0x000000004023a3e0                CMS_Receipt_it
                0x000000004023a420                CMS_ReceiptRequest_it
                0x000000004023a460                CMS_ReceiptsFrom_it
                0x000000004023a4a0                CMS_Attributes_Verify_it
                0x000000004023a4e0                CMS_Attributes_Sign_it
                0x000000004023a520                CMS_ContentInfo_it
                0x000000004023a560                CMS_CompressedData_it
                0x000000004023a5a0                CMS_AuthenticatedData_it
                0x000000004023a5e0                CMS_EncryptedData_it
                0x000000004023a620                CMS_DigestedData_it
                0x000000004023a660                CMS_EnvelopedData_it
                0x000000004023a6a0                CMS_RecipientInfo_it
                0x000000004023a6e0                CMS_OtherRecipientInfo_it
                0x000000004023a720                CMS_PasswordRecipientInfo_it
                0x000000004023a760                CMS_KEKRecipientInfo_it
                0x000000004023a7a0                CMS_KEKIdentifier_it
                0x000000004023a7e0                CMS_KeyAgreeRecipientInfo_it
                0x000000004023a820                CMS_OriginatorIdentifierOrKey_it
                0x000000004023a860                CMS_OriginatorPublicKey_it
                0x000000004023a8a0                CMS_RecipientEncryptedKey_it
                0x000000004023a8e0                CMS_KeyAgreeRecipientIdentifier_it
                0x000000004023a920                CMS_RecipientKeyIdentifier_it
                0x000000004023a960                CMS_OtherKeyAttribute_it
                0x000000004023a9a0                CMS_KeyTransRecipientInfo_it
                0x000000004023a9e0                CMS_EncryptedContentInfo_it
                0x000000004023aa20                CMS_OriginatorInfo_it
                0x000000004023aa60                CMS_SignedData_it
                0x000000004023aaa0                CMS_RevocationInfoChoice_it
                0x000000004023aae0                CMS_OtherRevocationInfoFormat_it
                0x000000004023ab20                CMS_SignerInfo_it
                0x000000004023ab60                CMS_EncapsulatedContentInfo_it
                0x000000004023aba0                CMS_SignerIdentifier_it
                0x000000004023abe0                CMS_CertificateChoices_it
                0x000000004023ac20                CMS_OtherCertificateFormat_it
                0x000000004023ac60                CMS_IssuerAndSerialNumber_it
                0x000000004023c4a0                ASN1_TIME_it
                0x000000004023c520                ASN1_version
                0x000000004023c680                BF_version
                0x000000004023e820                CAST_version
                0x000000004023e8e0                CAST_S_table7
                0x000000004023ece0                CAST_S_table6
                0x000000004023f0e0                CAST_S_table5
                0x000000004023f4e0                CAST_S_table4
                0x000000004023f8e0                CAST_S_table3
                0x000000004023fce0                CAST_S_table2
                0x00000000402400e0                CAST_S_table1
                0x00000000402404e0                CAST_S_table0
                0x0000000040240b20                DHparams_it
                0x0000000040240c20                DSAPublicKey_it
                0x0000000040240c60                dsa_pub_internal_it
                0x0000000040240ca0                DSAparams_it
                0x0000000040240ce0                DSAPrivateKey_it
                0x0000000040240d20                DSA_SIG_it
                0x0000000040241140                DSA_version
                0x0000000040241180                EC_PRIVATEKEY_it
                0x00000000402411c0                ECPKPARAMETERS_it
                0x0000000040241200                ECPARAMETERS_it
                0x0000000040241240                X9_62_CURVE_it
                0x0000000040241280                X9_62_FIELDID_it
                0x00000000402412c0                X9_62_CHARACTERISTIC_TWO_it
                0x0000000040241300                X9_62_PENTANOMIAL_it
                0x00000000402452c0                ECDH_version
                0x00000000402456c0                ECDSA_version
                0x00000000402459c0                RAND_version
                0x0000000040245a00                NETSCAPE_CERT_SEQUENCE_it
                0x0000000040245ae0                PBEPARAM_it
                0x0000000040245b80                PBKDF2PARAM_it
                0x0000000040245bc0                PBE2PARAM_it
                0x0000000040245d00                PKCS8_PRIV_KEY_INFO_it
                0x0000000040245ec0                AUTHORITY_KEYID_it
                0x0000000040245f80                NOTICEREF_it
                0x0000000040245fc0                USERNOTICE_it
                0x0000000040246000                POLICYQUALINFO_it
                0x0000000040246040                POLICYINFO_it
                0x0000000040246080                CERTIFICATEPOLICIES_it
                0x00000000402460c0                v3_cpols
                0x00000000402463e0                v3_idp
                0x0000000040246460                ISSUING_DIST_POINT_it
                0x00000000402464a0                CRL_DIST_POINTS_it
                0x00000000402464e0                DIST_POINT_it
                0x0000000040246520                DIST_POINT_NAME_it
                0x0000000040246560                v3_freshest_crl
                0x00000000402465e0                v3_crld
                0x0000000040246aa0                GENERAL_NAMES_it
                0x0000000040246ae0                GENERAL_NAME_it
                0x0000000040246b20                EDIPARTYNAME_it
                0x0000000040246b60                OTHERNAME_it
                0x0000000040246e20                NAME_CONSTRAINTS_it
                0x0000000040246e60                GENERAL_SUBTREE_it
                0x0000000040246ea0                v3_name_constraints
                0x0000000040247000                POLICY_CONSTRAINTS_it
                0x0000000040247040                v3_policy_constraints
                0x0000000040247120                POLICY_MAPPINGS_it
                0x0000000040247160                POLICY_MAPPING_it
                0x00000000402471a0                v3_policy_mappings
                0x0000000040247320                X509_VAL_it
                0x0000000040247dc0                ECDSA_SIG_it
                0x0000000040247e60                PKCS12_AUTHSAFES_it
                0x0000000040247ea0                PKCS12_SAFEBAGS_it
                0x0000000040247ee0                PKCS12_SAFEBAG_it
                0x0000000040247f20                PKCS12_BAGS_it
                0x0000000040247f60                PKCS12_MAC_DATA_it
                0x0000000040247fa0                PKCS12_it
                0x00000000402485e0                v3_alt
                0x0000000040248720                BASIC_CONSTRAINTS_it
                0x0000000040248760                v3_bcons
                0x0000000040248840                AUTHORITY_INFO_ACCESS_it
                0x0000000040248880                ACCESS_DESCRIPTION_it
                0x00000000402488c0                v3_sinfo
                0x0000000040248940                v3_info
                0x0000000040248a60                v3_ocsp_serviceloc
                0x0000000040248ae0                v3_ocsp_nocheck
                0x0000000040248b60                v3_ocsp_nonce
                0x0000000040248be0                v3_crl_hold
                0x0000000040248c60                v3_crl_invdate
                0x0000000040248ce0                v3_ocsp_acutoff
                0x0000000040248d60                v3_ocsp_crlid
                0x0000000040248de0                v3_pci
                0x0000000040248e60                PROXY_CERT_INFO_EXTENSION_it
                0x0000000040248ea0                PROXY_POLICY_it
                0x0000000040248fa0                PKEY_USAGE_PERIOD_it
                0x0000000040248fe0                v3_pkey_usage_period
                0x00000000402490c0                v3_skey_id
                0x0000000040249140                SXNET_it
                0x0000000040249180                SXNETID_it
                0x00000000402491c0                v3_sxnet
                0x00000000402497a0                CONF_version
                0x00000000402497e0                OCSP_SERVICELOC_it
                0x0000000040249820                OCSP_CRLID_it
                0x0000000040249860                OCSP_BASICRESP_it
                0x00000000402498a0                OCSP_RESPDATA_it
                0x00000000402498e0                OCSP_SINGLERESP_it
                0x0000000040249920                OCSP_CERTSTATUS_it
                0x0000000040249960                OCSP_REVOKEDINFO_it
                0x00000000402499a0                OCSP_RESPID_it
                0x00000000402499e0                OCSP_RESPONSE_it
                0x0000000040249a20                OCSP_RESPBYTES_it
                0x0000000040249a60                OCSP_REQUEST_it
                0x0000000040249aa0                OCSP_REQINFO_it
                0x0000000040249ae0                OCSP_ONEREQ_it
                0x0000000040249b20                OCSP_CERTID_it
                0x0000000040249b60                OCSP_SIGNATURE_it
                0x000000004024a360                v3_akey_id
                0x000000004024a3e0                v3_key_usage
                0x000000004024a460                v3_nscert
                0x000000004024a4e0                v3_crl_reason
                0x000000004024a560                EXTENDED_KEY_USAGE_it
                0x000000004024a5a0                v3_ocsp_accresp
                0x000000004024a620                v3_ext_ku
                0x000000004024a6e0                v3_ns_ia5_list
                0x000000004024aa20                v3_inhibit_anyp
                0x000000004024aaa0                v3_delta_crl
                0x000000004024ab20                v3_crl_num
                0x000000004024aba0                CONF_def_version

.rodata.str1.8  0x000000004024abd0     0x97c0 load address 0x000000000024abd0
 .rodata.str1.8
                0x000000004024abd0     0x97c0 output.o
                                       0x9ae5 (size before relaxing)

.rodata.str1.1  0x0000000040254390    0x12b32 load address 0x0000000000254390
 .rodata.str1.1
                0x0000000040254390    0x12b32 output.o
                                      0x14f2f (size before relaxing)

.eh_frame       0x0000000040266ec8    0x37118 load address 0x0000000000266ec8
 .eh_frame      0x0000000040266ec8    0x37118 output.o

.eh_frame_hdr   0x000000004029dfe0        0x8 load address 0x000000000029dfe0
 .eh_frame_hdr  0x000000004029dfe0        0x8 output.o

.note.gnu.build-id
                0x000000004029dfe8      0x288 load address 0x000000000029dfe8
 .note.gnu.build-id
                0x000000004029dfe8      0x288 output.o

.rela.dyn       0x000000004029e270        0x0 load address 0x000000000029e270
 .rela.iplt     0x0000000000000000        0x0 output.o
 .rela.text     0x0000000000000000        0x0 output.o

.data           0x000000004029f000  0x95ba000 load address 0x000000000029f000
                0x000000004029f000                data = .
 *(.data)
 .data          0x000000004029f000   0x9eda63 output.o
                0x000000004029f020                config
                0x00000000402af190                use_pae
                0x00000000402af3b0                savemsr_index
                0x00000000402b0000                vmm_pml4
                0x00000000402b1000                vmm_pdp
                0x00000000402b2000                vmm_pd
                0x00000000402b3000                vmm_pd1
                0x00000000402b4000                vmm_pd2
                0x00000000402b5000                guest_int0x15_hook
                0x00000000402b501d                guest_int0x15_e801_fake_ax
                0x00000000402b5020                guest_int0x15_e801_fake_bx
                0x00000000402b5031                guest_int0x15_orig
                0x00000000402b5046                guest_int0x15_e820_data_minus0x18
                0x00000000402b504e                guest_int0x15_e820_end
                0x00000000402b5074                guest_int0x15_hook_end
                0x00000000402b6078                wakeup_entry_start
                0x00000000402b6081                wakeup_entry_addr
                0x00000000402b60a7                wakeup_entry_cr4
                0x00000000402b60b0                wakeup_entry_cr3
                0x00000000402b60b9                wakeup_entry_cr0
                0x00000000402b60c8                wakeup_entry_gdtr
                0x00000000402b60d2                wakeup_entry_end
                0x00000000402b6160                ata_bm_handler_table
                0x00000000402b61c0                ata_ctlblk_handler_table
                0x00000000402b61e0                ata_cmdblk_handler_table
                0x00000000402b6c70                usb_log_level
                0x00000000402b7600                hSessionCnt
                0x00000000402b7608                hObjectCnt
                0x00000000402b7e00                g_rgSCardT1Pci
                0x00000000402b7e10                g_rgSCardT0Pci
                0x00000000402b7e20                FI
                0x00000000402b7e60                DI
                0x00000000402bc480                default_pctx
                0x00000000402bf720                rand_ssleay_meth
                0x0000000040c8ca68                . = ALIGN (0x8)
 *fill*         0x0000000040c8ca63        0x5 
                0x0000000040c8ca68                __initfunc_start = .
 *(.initfunc)
 .initfunc      0x0000000040c8ca68      0x640 output.o
                0x0000000040c8ca68                __initfunc_acpi_init_paral
                0x0000000040c8ca78                __initfunc_acpi_init_global
                0x0000000040c8ca88                __initfunc_beep_init_msg
                0x0000000040c8ca98                __initfunc_cache_init_pass
                0x0000000040c8caa8                __initfunc_cache_init_vcpu
                0x0000000040c8cab8                __initfunc_cache_init_pcpu
                0x0000000040c8cac8                __initfunc_callrealmode_panic
                0x0000000040c8cad8                __initfunc_callrealmode_init_global
                0x0000000040c8cae8                __initfunc_cpu_mmu_spt_init_pcpu
                0x0000000040c8caf8                __initfunc_cpu_mmu_spt_init_global
                0x0000000040c8cb08                __initfunc_cpuid_init
                0x0000000040c8cb18                __initfunc_cpuid_pass_init
                0x0000000040c8cb28                __initfunc_exint_pass_init
                0x0000000040c8cb38                __initfunc_gmm_pass_init
                0x0000000040c8cb48                __initfunc_install_int0x15_hook
                0x0000000040c8cb58                __initfunc_idman_init
                0x0000000040c8cb68                __initfunc_idman_init_global
                0x0000000040c8cb78                __initfunc_int_wakeup
                0x0000000040c8cb88                __initfunc_int_init_global
                0x0000000040c8cb98                __initfunc_io_io_init
                0x0000000040c8cba8                __initfunc_setiohooks
                0x0000000040c8cbb8                __initfunc_io_iopass_init
                0x0000000040c8cbc8                __initfunc_keyboard_init_msg
                0x0000000040c8cbd8                __initfunc_localapic_init
                0x0000000040c8cbe8                __initfunc_get_shiftflags
                0x0000000040c8cbf8                __initfunc_copy_minios
                0x0000000040c8cc08                __initfunc_print_boot_msg
                0x0000000040c8cc18                __initfunc_debug_on_shift_key
                0x0000000040c8cc28                __initfunc_create_pass_vm
                0x0000000040c8cc38                __initfunc_virtualization_init_pcpu
                0x0000000040c8cc48                __initfunc_unmap_user_area
                0x0000000040c8cc58                __initfunc_mm_init_global
                0x0000000040c8cc68                __initfunc_mmio_debug
                0x0000000040c8cc78                __initfunc_mmio_init
                0x0000000040c8cc88                __initfunc_msg_init_global
                0x0000000040c8cc98                __initfunc_msr_init
                0x0000000040c8cca8                __initfunc_msr_pass_init
                0x0000000040c8ccb8                __initfunc_nmi_pass_init_pcpu
                0x0000000040c8ccc8                __initfunc_nmi_pass_init
                0x0000000040c8ccd8                __initfunc_panic_init_pcpu
                0x0000000040c8cce8                __initfunc_panic_init_msg
                0x0000000040c8ccf8                __initfunc_panic_init_global3
                0x0000000040c8cd08                __initfunc_panic_init_global
                0x0000000040c8cd18                __initfunc_printf_init_global
                0x0000000040c8cd28                __initfunc_process_wakeup
                0x0000000040c8cd38                __initfunc_process_init_ap
                0x0000000040c8cd48                __initfunc_process_init_global
                0x0000000040c8cd58                __initfunc_random_init_config0
                0x0000000040c8cd68                __initfunc_random_init_global
                0x0000000040c8cd78                __initfunc_reboot_init_msg
                0x0000000040c8cd88                __initfunc_segment_init_global
                0x0000000040c8cd98                __initfunc_serial_init_msg
                0x0000000040c8cda8                __initfunc_sleep_init_msg
                0x0000000040c8cdb8                __initfunc_sleep_init_global
                0x0000000040c8cdc8                __initfunc_svm_panic
                0x0000000040c8cdd8                __initfunc_sx_init_pass_init
                0x0000000040c8cde8                __initfunc_thread_init_pcpu
                0x0000000040c8cdf8                __initfunc_thread_init_global
                0x0000000040c8ce08                __initfunc_time_init_msg
                0x0000000040c8ce18                __initfunc_time_init_pcpu
                0x0000000040c8ce28                __initfunc_time_init_global_status
                0x0000000040c8ce38                __initfunc_time_init_global
                0x0000000040c8ce48                __initfunc_timer_init_global
                0x0000000040c8ce58                __initfunc_tty_init_msg
                0x0000000040c8ce68                __initfunc_tty_init_global2
                0x0000000040c8ce78                __initfunc_tty_init_global
                0x0000000040c8ce88                __initfunc_vcpu_init_global
                0x0000000040c8ce98                __initfunc_vga_init
                0x0000000040c8cea8                __initfunc_vmmcall_init
                0x0000000040c8ceb8                __initfunc_vmmcall_boot_init
                0x0000000040c8cec8                __initfunc_vmmcall_dbgsh_init_pcpu
                0x0000000040c8ced8                __initfunc_vmmcall_dbgsh_init_global
                0x0000000040c8cee8                __initfunc_vmmcall_dbgsh_init
                0x0000000040c8cef8                __initfunc_vmmcall_iccard_init
                0x0000000040c8cf08                __initfunc_vmmcall_log_init
                0x0000000040c8cf18                __initfunc_vmmcall_status_init
                0x0000000040c8cf28                __initfunc_vmmcall_status_init_global
                0x0000000040c8cf38                __initfunc_vramwrite_init_bsp
                0x0000000040c8cf48                __initfunc_vramwrite_init_msg
                0x0000000040c8cf58                __initfunc_vt_register_status_callback
                0x0000000040c8cf68                __initfunc_vt_panic
                0x0000000040c8cf78                __initfunc_xsetbv_init
                0x0000000040c8cf88                __initfunc_xsetbv_pass_init
                0x0000000040c8cf98                __initfunc_core_init
                0x0000000040c8cfa8                __initfunc_ieee1394_init_boot
                0x0000000040c8cfb8                __initfunc_ieee1394_init
                0x0000000040c8cfc8                __initfunc_iommu_setup
                0x0000000040c8cfd8                __initfunc_pci_init
                0x0000000040c8cfe8                __initfunc_debug_ata_init
                0x0000000040c8cff8                __initfunc_ata_init
                0x0000000040c8d008                __initfunc_uhci_init
                0x0000000040c8d018                __initfunc_ehci_init
                0x0000000040c8d028                __initfunc_pro100_init
                0x0000000040c8d038                __initfunc_suspend_pro1000
                0x0000000040c8d048                __initfunc_resume_pro1000
                0x0000000040c8d058                __initfunc_vpn_pro1000_init
                0x0000000040c8d068                __initfunc_storage_kernel_init
                0x0000000040c8d078                __initfunc_storage_io_initfunc
                0x0000000040c8d088                __initfunc_vpn_kernel_init
                0x0000000040c8d098                __initfunc_idman_kernel_init
                0x0000000040c8d0a8                __initfunc_end = .
                0x0000000040c8d0a8                __process_builtin = .
 *(.processes)
 .processes     0x0000000040c8d0a8      0x1a0 output.o
                0x0000000040c8d248                __process_builtin_end = .
                0x0000000040c8d248                bss = .
 *(.bss)
 *fill*         0x0000000040c8d248       0x18 
 .bss           0x0000000040c8d260  0x8bca7e0 output.o
                0x0000000040c90a80                vmmsize
                0x0000000040c90a88                memorysize
                0x0000000040f14520                pcpu_default
                0x0000000040f31d44                ps2_locked
                0x0000000040f321e8                syscallHandlerAddress
                0x0000000040f32200                currentProtectedApplication
                0x0000000040f32208                numberOfVMs
                0x0000000040f32210                numberOfProtectedApplications
                0x0000000040f32218                currentRunningApplication
                0x0000000049732960                syscall_metatata_table
                0x0000000049732980                handler_descriptor
                0x0000000049732b88                drhd_list_head
                0x00000000497343c0                pci_driver_list_head
                0x00000000497343c8                pci_device_list_head
                0x0000000049734570                uhci_monitor_boost_hc
                0x0000000049734588                usb_hc_list_head
                0x0000000049734590                usb_busses_head
                0x000000004973be88                rt
                0x00000000498558b0                hContext
                0x00000000498558b8                sessionTable
                0x00000000498558c0                slotTable
                0x00000000498558c8                slotFlag
                0x00000000498558c9                libInitFlag
                0x0000000049856520                OPENSSL_NONPIC_relocated
                0x0000000049856528                OPENSSL_ia32cap_P
                0x0000000049857168                cleanse_ctr
                0x00000000498571c8                obj_cleanup_defer
                0x00000000498571e8                _shadow_DES_check_key
                0x00000000498572e8                app_pkey_methods
                0x0000000049857340                chelp_inited
 *(COMMON)
 COMMON         0x0000000049857a40     0x12c4 output.o
                0x0000000049857a40                clflush_size
                0x0000000049857a60                sReaderContext
                0x0000000049857ac0                sigx_app
                0x0000000049857ac8                num_dom
                0x0000000049857ae0                mszReaders
                0x0000000049857ee0                zero_page_pool
                0x00000000498582e0                prohibit_iccard_init
                0x00000000498582e8                curthread
                0x00000000498582f0                sig_app
                0x0000000049858300                readerState
                0x0000000049858380                dom_io
                0x0000000049858b80                acpi_dsdt_system_state
                0x0000000049858ba0                ehci_host
                0x0000000049858ba8                num_of_processors
                0x0000000049858bac                e801_fake_bx
                0x0000000049858bae                iommu_detected
                0x0000000049858bb0                dwReaders
                0x0000000049858bc0                readerTracker
                0x0000000049858d00                handler_descriptor_lock
                0x0000000049858d02                e801_fake_ax
                0x0000000049859000                . = ALIGN (0x1000)
 *fill*         0x0000000049858d04      0x2fc 

.igot.plt       0x0000000049859000        0x0 load address 0x0000000009859000
 .igot.plt      0x0000000000000000        0x0 output.o
                0x0000000049859000                . = ALIGN (0x1000)
                0x0000000049859000                PAGE_POOL_START = .
                0x0000000049c59000                . = (PAGE_POOL_START + 0x400000)
                0x0000000049c59000                end = .

/DISCARD/
 *(.gomi)
LOAD output.o
OUTPUT(bitvisor.elf elf64-x86-64)

.comment        0x0000000000000000       0x55
 .comment       0x0000000000000000       0x55 output.o
                                       0x5e74 (size before relaxing)

.note.GNU-stack
                0x0000000000000000        0x0
 .note.GNU-stack
                0x0000000000000000        0x0 output.o

.debug_aranges  0x0000000000000000     0x6a80
 .debug_aranges
                0x0000000000000000     0x6a80 output.o

.debug_info     0x0000000000000000   0x2c7670
 .debug_info    0x0000000000000000   0x2c7670 output.o

.debug_abbrev   0x0000000000000000    0x49ad4
 .debug_abbrev  0x0000000000000000    0x49ad4 output.o

.debug_line     0x0000000000000000    0x4e779
 .debug_line    0x0000000000000000    0x4e779 output.o

.debug_str      0x0000000000000000    0x36fee
 .debug_str     0x0000000000000000    0x36fee output.o
                                     0x1329c8 (size before relaxing)

.debug_loc      0x0000000000000000   0x244663
 .debug_loc     0x0000000000000000   0x244663 output.o

.debug_ranges   0x0000000000000000     0x6370
 .debug_ranges  0x0000000000000000     0x6370 output.o

Cross Reference Table

Symbol                                            File
ACCESS_DESCRIPTION_free                           output.o
ACCESS_DESCRIPTION_it                             output.o
ACCESS_DESCRIPTION_new                            output.o
AES_cbc_encrypt                                   output.o
AES_cfb128_encrypt                                output.o
AES_cfb1_encrypt                                  output.o
AES_cfb8_encrypt                                  output.o
AES_decrypt                                       output.o
AES_ecb_encrypt                                   output.o
AES_encrypt                                       output.o
AES_ofb128_encrypt                                output.o
AES_set_decrypt_key                               output.o
AES_set_encrypt_key                               output.o
AES_unwrap_key                                    output.o
AES_wrap_key                                      output.o
ASN1_ANY_it                                       output.o
ASN1_BIT_STRING_check                             output.o
ASN1_BIT_STRING_free                              output.o
ASN1_BIT_STRING_get_bit                           output.o
ASN1_BIT_STRING_it                                output.o
ASN1_BIT_STRING_new                               output.o
ASN1_BIT_STRING_set                               output.o
ASN1_BIT_STRING_set_bit                           output.o
ASN1_BMPSTRING_free                               output.o
ASN1_BMPSTRING_it                                 output.o
ASN1_BMPSTRING_new                                output.o
ASN1_BOOLEAN_it                                   output.o
ASN1_ENUMERATED_free                              output.o
ASN1_ENUMERATED_get                               output.o
ASN1_ENUMERATED_it                                output.o
ASN1_ENUMERATED_new                               output.o
ASN1_ENUMERATED_set                               output.o
ASN1_ENUMERATED_to_BN                             output.o
ASN1_FBOOLEAN_it                                  output.o
ASN1_GENERALIZEDTIME_adj                          output.o
ASN1_GENERALIZEDTIME_check                        output.o
ASN1_GENERALIZEDTIME_free                         output.o
ASN1_GENERALIZEDTIME_it                           output.o
ASN1_GENERALIZEDTIME_new                          output.o
ASN1_GENERALIZEDTIME_print                        output.o
ASN1_GENERALIZEDTIME_set                          output.o
ASN1_GENERALIZEDTIME_set_string                   output.o
ASN1_GENERALSTRING_free                           output.o
ASN1_GENERALSTRING_it                             output.o
ASN1_GENERALSTRING_new                            output.o
ASN1_IA5STRING_free                               output.o
ASN1_IA5STRING_it                                 output.o
ASN1_IA5STRING_new                                output.o
ASN1_INTEGER_cmp                                  output.o
ASN1_INTEGER_dup                                  output.o
ASN1_INTEGER_free                                 output.o
ASN1_INTEGER_get                                  output.o
ASN1_INTEGER_it                                   output.o
ASN1_INTEGER_new                                  output.o
ASN1_INTEGER_set                                  output.o
ASN1_INTEGER_to_BN                                output.o
ASN1_NULL_free                                    output.o
ASN1_NULL_it                                      output.o
ASN1_NULL_new                                     output.o
ASN1_OBJECT_create                                output.o
ASN1_OBJECT_free                                  output.o
ASN1_OBJECT_it                                    output.o
ASN1_OBJECT_new                                   output.o
ASN1_OCTET_STRING_NDEF_it                         output.o
ASN1_OCTET_STRING_cmp                             output.o
ASN1_OCTET_STRING_dup                             output.o
ASN1_OCTET_STRING_free                            output.o
ASN1_OCTET_STRING_it                              output.o
ASN1_OCTET_STRING_new                             output.o
ASN1_OCTET_STRING_set                             output.o
ASN1_PCTX_free                                    output.o
ASN1_PCTX_get_cert_flags                          output.o
ASN1_PCTX_get_flags                               output.o
ASN1_PCTX_get_nm_flags                            output.o
ASN1_PCTX_get_oid_flags                           output.o
ASN1_PCTX_get_str_flags                           output.o
ASN1_PCTX_new                                     output.o
ASN1_PCTX_set_cert_flags                          output.o
ASN1_PCTX_set_flags                               output.o
ASN1_PCTX_set_nm_flags                            output.o
ASN1_PCTX_set_oid_flags                           output.o
ASN1_PCTX_set_str_flags                           output.o
ASN1_PRINTABLESTRING_free                         output.o
ASN1_PRINTABLESTRING_it                           output.o
ASN1_PRINTABLESTRING_new                          output.o
ASN1_PRINTABLE_free                               output.o
ASN1_PRINTABLE_it                                 output.o
ASN1_PRINTABLE_new                                output.o
ASN1_PRINTABLE_type                               output.o
ASN1_SEQUENCE_ANY_it                              output.o
ASN1_SEQUENCE_it                                  output.o
ASN1_SET_ANY_it                                   output.o
ASN1_STRING_TABLE_add                             output.o
ASN1_STRING_TABLE_cleanup                         output.o
ASN1_STRING_TABLE_get                             output.o
ASN1_STRING_cmp                                   output.o
ASN1_STRING_copy                                  output.o
ASN1_STRING_data                                  output.o
ASN1_STRING_dup                                   output.o
ASN1_STRING_free                                  output.o
ASN1_STRING_get_default_mask                      output.o
ASN1_STRING_length                                output.o
ASN1_STRING_length_set                            output.o
ASN1_STRING_new                                   output.o
ASN1_STRING_print                                 output.o
ASN1_STRING_print_ex                              output.o
ASN1_STRING_set                                   output.o
ASN1_STRING_set0                                  output.o
ASN1_STRING_set_by_NID                            output.o
ASN1_STRING_set_default_mask                      output.o
ASN1_STRING_set_default_mask_asc                  output.o
ASN1_STRING_to_UTF8                               output.o
ASN1_STRING_type                                  output.o
ASN1_STRING_type_new                              output.o
ASN1_T61STRING_free                               output.o
ASN1_T61STRING_it                                 output.o
ASN1_T61STRING_new                                output.o
ASN1_TBOOLEAN_it                                  output.o
ASN1_TIME_adj                                     output.o
ASN1_TIME_check                                   output.o
ASN1_TIME_free                                    output.o
ASN1_TIME_it                                      output.o
ASN1_TIME_new                                     output.o
ASN1_TIME_print                                   output.o
ASN1_TIME_set                                     output.o
ASN1_TIME_set_string                              output.o
ASN1_TIME_to_generalizedtime                      output.o
ASN1_TYPE_cmp                                     output.o
ASN1_TYPE_free                                    output.o
ASN1_TYPE_get                                     output.o
ASN1_TYPE_get_int_octetstring                     output.o
ASN1_TYPE_get_octetstring                         output.o
ASN1_TYPE_new                                     output.o
ASN1_TYPE_set                                     output.o
ASN1_TYPE_set1                                    output.o
ASN1_TYPE_set_int_octetstring                     output.o
ASN1_TYPE_set_octetstring                         output.o
ASN1_UNIVERSALSTRING_free                         output.o
ASN1_UNIVERSALSTRING_it                           output.o
ASN1_UNIVERSALSTRING_new                          output.o
ASN1_UNIVERSALSTRING_to_string                    output.o
ASN1_UTCTIME_adj                                  output.o
ASN1_UTCTIME_check                                output.o
ASN1_UTCTIME_cmp_time_t                           output.o
ASN1_UTCTIME_free                                 output.o
ASN1_UTCTIME_it                                   output.o
ASN1_UTCTIME_new                                  output.o
ASN1_UTCTIME_print                                output.o
ASN1_UTCTIME_set                                  output.o
ASN1_UTCTIME_set_string                           output.o
ASN1_UTF8STRING_free                              output.o
ASN1_UTF8STRING_it                                output.o
ASN1_UTF8STRING_new                               output.o
ASN1_VISIBLESTRING_free                           output.o
ASN1_VISIBLESTRING_it                             output.o
ASN1_VISIBLESTRING_new                            output.o
ASN1_bn_print                                     output.o
ASN1_check_infinite_end                           output.o
ASN1_const_check_infinite_end                     output.o
ASN1_d2i_bio                                      output.o
ASN1_digest                                       output.o
ASN1_dup                                          output.o
ASN1_generate_nconf                               output.o
ASN1_generate_v3                                  output.o
ASN1_get_object                                   output.o
ASN1_i2d_bio                                      output.o
ASN1_item_d2i                                     output.o
ASN1_item_d2i_bio                                 output.o
ASN1_item_digest                                  output.o
ASN1_item_dup                                     output.o
ASN1_item_ex_d2i                                  output.o
ASN1_item_ex_free                                 output.o
ASN1_item_ex_i2d                                  output.o
ASN1_item_ex_new                                  output.o
ASN1_item_free                                    output.o
ASN1_item_i2d                                     output.o
ASN1_item_i2d_bio                                 output.o
ASN1_item_ndef_i2d                                output.o
ASN1_item_new                                     output.o
ASN1_item_pack                                    output.o
ASN1_item_print                                   output.o
ASN1_item_sign                                    output.o
ASN1_item_unpack                                  output.o
ASN1_item_verify                                  output.o
ASN1_mbstring_copy                                output.o
ASN1_mbstring_ncopy                               output.o
ASN1_object_size                                  output.o
ASN1_pack_string                                  output.o
ASN1_parse                                        output.o
ASN1_parse_dump                                   output.o
ASN1_primitive_free                               output.o
ASN1_primitive_new                                output.o
ASN1_put_eoc                                      output.o
ASN1_put_object                                   output.o
ASN1_seq_pack                                     output.o
ASN1_seq_unpack                                   output.o
ASN1_sign                                         output.o
ASN1_tag2bit                                      output.o
ASN1_tag2str                                      output.o
ASN1_template_d2i                                 output.o
ASN1_template_free                                output.o
ASN1_template_i2d                                 output.o
ASN1_template_new                                 output.o
ASN1_unpack_string                                output.o
ASN1_verify                                       output.o
ASN1_version                                      output.o
AUTHORITY_INFO_ACCESS_free                        output.o
AUTHORITY_INFO_ACCESS_it                          output.o
AUTHORITY_INFO_ACCESS_new                         output.o
AUTHORITY_KEYID_free                              output.o
AUTHORITY_KEYID_it                                output.o
AUTHORITY_KEYID_new                               output.o
AddCertDataByBuf                                  output.o
AddElem                                           output.o
AddIdPassDataByBuf                                output.o
AddObjTblByTlv                                    output.o
BASIC_CONSTRAINTS_free                            output.o
BASIC_CONSTRAINTS_it                              output.o
BASIC_CONSTRAINTS_new                             output.o
BF_cbc_encrypt                                    output.o
BF_cfb64_encrypt                                  output.o
BF_decrypt                                        output.o
BF_ecb_encrypt                                    output.o
BF_encrypt                                        output.o
BF_ofb64_encrypt                                  output.o
BF_options                                        output.o
BF_set_key                                        output.o
BF_version                                        output.o
BIGNUM_it                                         output.o
BIO_asn1_get_prefix                               output.o
BIO_asn1_get_suffix                               output.o
BIO_asn1_set_prefix                               output.o
BIO_asn1_set_suffix                               output.o
BIO_callback_ctrl                                 output.o
BIO_clear_flags                                   output.o
BIO_copy_next_retry                               output.o
BIO_ctrl                                          output.o
BIO_ctrl_pending                                  output.o
BIO_ctrl_wpending                                 output.o
BIO_dump                                          output.o
BIO_dump_cb                                       output.o
BIO_dump_indent                                   output.o
BIO_dump_indent_cb                                output.o
BIO_dup_chain                                     output.o
BIO_f_asn1                                        output.o
BIO_f_base64                                      output.o
BIO_f_buffer                                      output.o
BIO_f_cipher                                      output.o
BIO_f_md                                          output.o
BIO_find_type                                     output.o
BIO_free                                          output.o
BIO_free_all                                      output.o
BIO_get_callback                                  output.o
BIO_get_callback_arg                              output.o
BIO_get_ex_data                                   output.o
BIO_get_ex_new_index                              output.o
BIO_get_retry_BIO                                 output.o
BIO_get_retry_reason                              output.o
BIO_gets                                          output.o
BIO_indent                                        output.o
BIO_int_ctrl                                      output.o
BIO_method_name                                   output.o
BIO_method_type                                   output.o
BIO_new                                           output.o
BIO_new_CMS                                       output.o
BIO_new_NDEF                                      output.o
BIO_new_mem_buf                                   output.o
BIO_next                                          output.o
BIO_number_read                                   output.o
BIO_number_written                                output.o
BIO_pop                                           output.o
BIO_printf                                        output.o
BIO_ptr_ctrl                                      output.o
BIO_push                                          output.o
BIO_puts                                          output.o
BIO_read                                          output.o
BIO_s_mem                                         output.o
BIO_s_null                                        output.o
BIO_set                                           output.o
BIO_set_callback                                  output.o
BIO_set_callback_arg                              output.o
BIO_set_cipher                                    output.o
BIO_set_ex_data                                   output.o
BIO_set_flags                                     output.o
BIO_snprintf                                      output.o
BIO_test_flags                                    output.o
BIO_vfree                                         output.o
BIO_write                                         output.o
BN_BLINDING_convert                               output.o
BN_BLINDING_convert_ex                            output.o
BN_BLINDING_create_param                          output.o
BN_BLINDING_free                                  output.o
BN_BLINDING_get_flags                             output.o
BN_BLINDING_get_thread_id                         output.o
BN_BLINDING_invert                                output.o
BN_BLINDING_invert_ex                             output.o
BN_BLINDING_new                                   output.o
BN_BLINDING_set_flags                             output.o
BN_BLINDING_set_thread_id                         output.o
BN_BLINDING_thread_id                             output.o
BN_BLINDING_update                                output.o
BN_CTX_end                                        output.o
BN_CTX_free                                       output.o
BN_CTX_get                                        output.o
BN_CTX_init                                       output.o
BN_CTX_new                                        output.o
BN_CTX_start                                      output.o
BN_GENCB_call                                     output.o
BN_GF2m_add                                       output.o
BN_GF2m_arr2poly                                  output.o
BN_GF2m_mod                                       output.o
BN_GF2m_mod_arr                                   output.o
BN_GF2m_mod_div                                   output.o
BN_GF2m_mod_div_arr                               output.o
BN_GF2m_mod_exp                                   output.o
BN_GF2m_mod_exp_arr                               output.o
BN_GF2m_mod_inv                                   output.o
BN_GF2m_mod_inv_arr                               output.o
BN_GF2m_mod_mul                                   output.o
BN_GF2m_mod_mul_arr                               output.o
BN_GF2m_mod_solve_quad                            output.o
BN_GF2m_mod_solve_quad_arr                        output.o
BN_GF2m_mod_sqr                                   output.o
BN_GF2m_mod_sqr_arr                               output.o
BN_GF2m_mod_sqrt                                  output.o
BN_GF2m_mod_sqrt_arr                              output.o
BN_GF2m_poly2arr                                  output.o
BN_MONT_CTX_copy                                  output.o
BN_MONT_CTX_free                                  output.o
BN_MONT_CTX_init                                  output.o
BN_MONT_CTX_new                                   output.o
BN_MONT_CTX_set                                   output.o
BN_MONT_CTX_set_locked                            output.o
BN_RECP_CTX_free                                  output.o
BN_RECP_CTX_init                                  output.o
BN_RECP_CTX_new                                   output.o
BN_RECP_CTX_set                                   output.o
BN_add                                            output.o
BN_add_word                                       output.o
BN_asc2bn                                         output.o
BN_bin2bn                                         output.o
BN_bn2bin                                         output.o
BN_bn2dec                                         output.o
BN_bn2hex                                         output.o
BN_bntest_rand                                    output.o
BN_clear                                          output.o
BN_clear_bit                                      output.o
BN_clear_free                                     output.o
BN_cmp                                            output.o
BN_copy                                           output.o
BN_dec2bn                                         output.o
BN_div                                            output.o
BN_div_recp                                       output.o
BN_div_word                                       output.o
BN_dup                                            output.o
BN_exp                                            output.o
BN_free                                           output.o
BN_from_montgomery                                output.o
BN_gcd                                            output.o
BN_generate_prime_ex                              output.o
BN_get0_nist_prime_192                            output.o
BN_get0_nist_prime_224                            output.o
BN_get0_nist_prime_256                            output.o
BN_get0_nist_prime_384                            output.o
BN_get0_nist_prime_521                            output.o
BN_get_params                                     output.o
BN_get_word                                       output.o
BN_hex2bn                                         output.o
BN_init                                           output.o
BN_is_bit_set                                     output.o
BN_is_prime_ex                                    output.o
BN_is_prime_fasttest_ex                           output.o
BN_kronecker                                      output.o
BN_lshift                                         output.o
BN_lshift1                                        output.o
BN_mask_bits                                      output.o
BN_mod_add                                        output.o
BN_mod_add_quick                                  output.o
BN_mod_exp                                        output.o
BN_mod_exp2_mont                                  output.o
BN_mod_exp_mont                                   output.o
BN_mod_exp_mont_consttime                         output.o
BN_mod_exp_mont_word                              output.o
BN_mod_exp_recp                                   output.o
BN_mod_exp_simple                                 output.o
BN_mod_inverse                                    output.o
BN_mod_lshift                                     output.o
BN_mod_lshift1                                    output.o
BN_mod_lshift1_quick                              output.o
BN_mod_lshift_quick                               output.o
BN_mod_mul                                        output.o
BN_mod_mul_montgomery                             output.o
BN_mod_mul_reciprocal                             output.o
BN_mod_sqr                                        output.o
BN_mod_sqrt                                       output.o
BN_mod_sub                                        output.o
BN_mod_sub_quick                                  output.o
BN_mod_word                                       output.o
BN_mul                                            output.o
BN_mul_word                                       output.o
BN_new                                            output.o
BN_nist_mod_192                                   output.o
BN_nist_mod_224                                   output.o
BN_nist_mod_256                                   output.o
BN_nist_mod_384                                   output.o
BN_nist_mod_521                                   output.o
BN_nnmod                                          output.o
BN_num_bits                                       output.o
BN_num_bits_word                                  output.o
BN_options                                        output.o
BN_print                                          output.o
BN_pseudo_rand                                    output.o
BN_pseudo_rand_range                              output.o
BN_rand                                           output.o
BN_rand_range                                     output.o
BN_reciprocal                                     output.o
BN_rshift                                         output.o
BN_rshift1                                        output.o
BN_set_bit                                        output.o
BN_set_negative                                   output.o
BN_set_params                                     output.o
BN_set_word                                       output.o
BN_sqr                                            output.o
BN_sub                                            output.o
BN_sub_word                                       output.o
BN_swap                                           output.o
BN_to_ASN1_ENUMERATED                             output.o
BN_to_ASN1_INTEGER                                output.o
BN_uadd                                           output.o
BN_ucmp                                           output.o
BN_usub                                           output.o
BN_value_one                                      output.o
BN_version                                        output.o
BUF_MEM_free                                      output.o
BUF_MEM_grow                                      output.o
BUF_MEM_grow_clean                                output.o
BUF_MEM_new                                       output.o
BUF_memdup                                        output.o
BUF_reverse                                       output.o
BUF_strdup                                        output.o
BUF_strlcat                                       output.o
BUF_strlcpy                                       output.o
BUF_strndup                                       output.o
BlockSendCardT1                                   output.o
CAST_S_table0                                     output.o
CAST_S_table1                                     output.o
CAST_S_table2                                     output.o
CAST_S_table3                                     output.o
CAST_S_table4                                     output.o
CAST_S_table5                                     output.o
CAST_S_table6                                     output.o
CAST_S_table7                                     output.o
CAST_cbc_encrypt                                  output.o
CAST_cfb64_encrypt                                output.o
CAST_decrypt                                      output.o
CAST_ecb_encrypt                                  output.o
CAST_encrypt                                      output.o
CAST_ofb64_encrypt                                output.o
CAST_set_key                                      output.o
CAST_version                                      output.o
CBIGNUM_it                                        output.o
CERTIFICATEPOLICIES_free                          output.o
CERTIFICATEPOLICIES_it                            output.o
CERTIFICATEPOLICIES_new                           output.o
CMS_Attributes_Sign_it                            output.o
CMS_Attributes_Verify_it                          output.o
CMS_AuthenticatedData_it                          output.o
CMS_CertificateChoices_it                         output.o
CMS_CompressedData_it                             output.o
CMS_ContentInfo_free                              output.o
CMS_ContentInfo_it                                output.o
CMS_ContentInfo_new                               output.o
CMS_ContentInfo_print_ctx                         output.o
CMS_DigestedData_it                               output.o
CMS_EncapsulatedContentInfo_it                    output.o
CMS_EncryptedContentInfo_it                       output.o
CMS_EncryptedData_it                              output.o
CMS_EncryptedData_set1_key                        output.o
CMS_EnvelopedData_create                          output.o
CMS_EnvelopedData_it                              output.o
CMS_IssuerAndSerialNumber_it                      output.o
CMS_KEKIdentifier_it                              output.o
CMS_KEKRecipientInfo_it                           output.o
CMS_KeyAgreeRecipientIdentifier_it                output.o
CMS_KeyAgreeRecipientInfo_it                      output.o
CMS_KeyTransRecipientInfo_it                      output.o
CMS_OriginatorIdentifierOrKey_it                  output.o
CMS_OriginatorInfo_it                             output.o
CMS_OriginatorPublicKey_it                        output.o
CMS_OtherCertificateFormat_it                     output.o
CMS_OtherKeyAttribute_it                          output.o
CMS_OtherRecipientInfo_it                         output.o
CMS_OtherRevocationInfoFormat_it                  output.o
CMS_PasswordRecipientInfo_it                      output.o
CMS_ReceiptRequest_it                             output.o
CMS_Receipt_it                                    output.o
CMS_ReceiptsFrom_it                               output.o
CMS_RecipientEncryptedKey_it                      output.o
CMS_RecipientInfo_decrypt                         output.o
CMS_RecipientInfo_it                              output.o
CMS_RecipientInfo_kekri_get0_id                   output.o
CMS_RecipientInfo_kekri_id_cmp                    output.o
CMS_RecipientInfo_ktri_cert_cmp                   output.o
CMS_RecipientInfo_ktri_get0_algs                  output.o
CMS_RecipientInfo_ktri_get0_signer_id             output.o
CMS_RecipientInfo_set0_key                        output.o
CMS_RecipientInfo_set0_pkey                       output.o
CMS_RecipientInfo_type                            output.o
CMS_RecipientKeyIdentifier_it                     output.o
CMS_RevocationInfoChoice_it                       output.o
CMS_SignedData_init                               output.o
CMS_SignedData_it                                 output.o
CMS_SignerIdentifier_it                           output.o
CMS_SignerInfo_cert_cmp                           output.o
CMS_SignerInfo_get0_algs                          output.o
CMS_SignerInfo_get0_signer_id                     output.o
CMS_SignerInfo_it                                 output.o
CMS_SignerInfo_set1_signer_cert                   output.o
CMS_SignerInfo_sign                               output.o
CMS_SignerInfo_verify                             output.o
CMS_SignerInfo_verify_content                     output.o
CMS_add0_CertificateChoices                       output.o
CMS_add0_RevocationInfoChoice                     output.o
CMS_add0_cert                                     output.o
CMS_add0_crl                                      output.o
CMS_add0_recipient_key                            output.o
CMS_add1_cert                                     output.o
CMS_add1_crl                                      output.o
CMS_add1_recipient_cert                           output.o
CMS_add1_signer                                   output.o
CMS_add_simple_smimecap                           output.o
CMS_add_smimecap                                  output.o
CMS_add_standard_smimecap                         output.o
CMS_dataFinal                                     output.o
CMS_dataInit                                      output.o
CMS_get0_RecipientInfos                           output.o
CMS_get0_SignerInfos                              output.o
CMS_get0_content                                  output.o
CMS_get0_eContentType                             output.o
CMS_get0_signers                                  output.o
CMS_get0_type                                     output.o
CMS_get1_certs                                    output.o
CMS_get1_crls                                     output.o
CMS_is_detached                                   output.o
CMS_set1_eContentType                             output.o
CMS_set1_signers_certs                            output.o
CMS_set_detached                                  output.o
CMS_signed_add1_attr                              output.o
CMS_signed_add1_attr_by_NID                       output.o
CMS_signed_add1_attr_by_OBJ                       output.o
CMS_signed_add1_attr_by_txt                       output.o
CMS_signed_delete_attr                            output.o
CMS_signed_get0_data_by_OBJ                       output.o
CMS_signed_get_attr                               output.o
CMS_signed_get_attr_by_NID                        output.o
CMS_signed_get_attr_by_OBJ                        output.o
CMS_signed_get_attr_count                         output.o
CMS_stream                                        output.o
CMS_unsigned_add1_attr                            output.o
CMS_unsigned_add1_attr_by_NID                     output.o
CMS_unsigned_add1_attr_by_OBJ                     output.o
CMS_unsigned_add1_attr_by_txt                     output.o
CMS_unsigned_delete_attr                          output.o
CMS_unsigned_get0_data_by_OBJ                     output.o
CMS_unsigned_get_attr                             output.o
CMS_unsigned_get_attr_by_NID                      output.o
CMS_unsigned_get_attr_by_OBJ                      output.o
CMS_unsigned_get_attr_count                       output.o
CONF_def_version                                  output.o
CONF_dump_bio                                     output.o
CONF_free                                         output.o
CONF_get1_default_config_file                     output.o
CONF_get_number                                   output.o
CONF_get_section                                  output.o
CONF_get_string                                   output.o
CONF_imodule_get_flags                            output.o
CONF_imodule_get_module                           output.o
CONF_imodule_get_name                             output.o
CONF_imodule_get_usr_data                         output.o
CONF_imodule_get_value                            output.o
CONF_imodule_set_flags                            output.o
CONF_imodule_set_usr_data                         output.o
CONF_load                                         output.o
CONF_load_bio                                     output.o
CONF_module_add                                   output.o
CONF_module_get_usr_data                          output.o
CONF_module_set_usr_data                          output.o
CONF_modules_finish                               output.o
CONF_modules_free                                 output.o
CONF_modules_load                                 output.o
CONF_modules_load_file                            output.o
CONF_modules_unload                               output.o
CONF_parse_list                                   output.o
CONF_set_default_method                           output.o
CONF_set_nconf                                    output.o
CONF_version                                      output.o
CRL_DIST_POINTS_free                              output.o
CRL_DIST_POINTS_it                                output.o
CRL_DIST_POINTS_new                               output.o
CRYPTO_THREADID_cmp                               output.o
CRYPTO_THREADID_cpy                               output.o
CRYPTO_THREADID_current                           output.o
CRYPTO_THREADID_get_callback                      output.o
CRYPTO_THREADID_hash                              output.o
CRYPTO_THREADID_set_callback                      output.o
CRYPTO_THREADID_set_numeric                       output.o
CRYPTO_THREADID_set_pointer                       output.o
CRYPTO_add_lock                                   output.o
CRYPTO_cbc128_decrypt                             output.o
CRYPTO_cbc128_encrypt                             output.o
CRYPTO_cfb128_1_encrypt                           output.o
CRYPTO_cfb128_8_encrypt                           output.o
CRYPTO_cfb128_encrypt                             output.o
CRYPTO_cleanup_all_ex_data                        output.o
CRYPTO_dbg_free                                   output.o
CRYPTO_dbg_get_options                            output.o
CRYPTO_dbg_malloc                                 output.o
CRYPTO_dbg_realloc                                output.o
CRYPTO_dbg_set_options                            output.o
CRYPTO_destroy_dynlockid                          output.o
CRYPTO_dup_ex_data                                output.o
CRYPTO_ex_data_new_class                          output.o
CRYPTO_free                                       output.o
CRYPTO_free_ex_data                               output.o
CRYPTO_free_locked                                output.o
CRYPTO_get_add_lock_callback                      output.o
CRYPTO_get_dynlock_create_callback                output.o
CRYPTO_get_dynlock_destroy_callback               output.o
CRYPTO_get_dynlock_lock_callback                  output.o
CRYPTO_get_dynlock_value                          output.o
CRYPTO_get_ex_data                                output.o
CRYPTO_get_ex_data_implementation                 output.o
CRYPTO_get_ex_new_index                           output.o
CRYPTO_get_id_callback                            output.o
CRYPTO_get_lock_name                              output.o
CRYPTO_get_locked_mem_ex_functions                output.o
CRYPTO_get_locked_mem_functions                   output.o
CRYPTO_get_locking_callback                       output.o
CRYPTO_get_mem_debug_functions                    output.o
CRYPTO_get_mem_debug_options                      output.o
CRYPTO_get_mem_ex_functions                       output.o
CRYPTO_get_mem_functions                          output.o
CRYPTO_get_new_dynlockid                          output.o
CRYPTO_get_new_lockid                             output.o
CRYPTO_is_mem_check_on                            output.o
CRYPTO_lock                                       output.o
CRYPTO_malloc                                     output.o
CRYPTO_malloc_locked                              output.o
CRYPTO_mem_ctrl                                   output.o
CRYPTO_mem_leaks                                  output.o
CRYPTO_mem_leaks_cb                               output.o
CRYPTO_new_ex_data                                output.o
CRYPTO_num_locks                                  output.o
CRYPTO_ofb128_encrypt                             output.o
CRYPTO_pop_info                                   output.o
CRYPTO_push_info_                                 output.o
CRYPTO_realloc                                    output.o
CRYPTO_realloc_clean                              output.o
CRYPTO_remalloc                                   output.o
CRYPTO_remove_all_info                            output.o
CRYPTO_set_add_lock_callback                      output.o
CRYPTO_set_dynlock_create_callback                output.o
CRYPTO_set_dynlock_destroy_callback               output.o
CRYPTO_set_dynlock_lock_callback                  output.o
CRYPTO_set_ex_data                                output.o
CRYPTO_set_ex_data_implementation                 output.o
CRYPTO_set_id_callback                            output.o
CRYPTO_set_locked_mem_ex_functions                output.o
CRYPTO_set_locked_mem_functions                   output.o
CRYPTO_set_locking_callback                       output.o
CRYPTO_set_mem_debug_functions                    output.o
CRYPTO_set_mem_debug_options                      output.o
CRYPTO_set_mem_ex_functions                       output.o
CRYPTO_set_mem_functions                          output.o
CRYPTO_strdup                                     output.o
CRYPTO_thread_id                                  output.o
C_CloseAllSessions                                output.o
C_CloseSession                                    output.o
C_CreateObject                                    output.o
C_DestroyObject                                   output.o
C_DigestFinal                                     output.o
C_DigestInit                                      output.o
C_DigestUpdate                                    output.o
C_Finalize                                        output.o
C_FindObjects                                     output.o
C_FindObjectsFinal                                output.o
C_FindObjectsInit                                 output.o
C_GetAttributeValue                               output.o
C_GetCardStatus                                   output.o
C_GetFunctionList                                 output.o
C_GetInfo                                         output.o
C_GetMechanismInfo                                output.o
C_GetMechanismList                                output.o
C_GetSessionInfo                                  output.o
C_GetSlotInfo                                     output.o
C_GetSlotList                                     output.o
C_GetTokenInfo                                    output.o
C_Initialize                                      output.o
C_Login                                           output.o
C_Logout                                          output.o
C_OpenSession                                     output.o
C_SetAttributeValue                               output.o
C_Sign                                            output.o
C_SignInit                                        output.o
C_Verify                                          output.o
C_VerifyInit                                      output.o
CardConnect                                       output.o
CardDisconnect                                    output.o
CardEstablishContext                              output.o
CardListReaders                                   output.o
CardMechanical                                    output.o
CardReleaseContext                                output.o
CardStateConfirm                                  output.o
CardStatus                                        output.o
CardTransmit                                      output.o
CloseUSB                                          output.o
DES_SPtrans                                       output.o
DES_cfb64_encrypt                                 output.o
DES_cfb_encrypt                                   output.o
DES_check_key_parity                              output.o
DES_decrypt3                                      output.o
DES_ecb3_encrypt                                  output.o
DES_ecb_encrypt                                   output.o
DES_ede3_cbc_encrypt                              output.o
DES_ede3_cfb64_encrypt                            output.o
DES_ede3_cfb_encrypt                              output.o
DES_ede3_ofb64_encrypt                            output.o
DES_encrypt1                                      output.o
DES_encrypt2                                      output.o
DES_encrypt3                                      output.o
DES_is_weak_key                                   output.o
DES_key_sched                                     output.o
DES_ncbc_encrypt                                  output.o
DES_ofb64_encrypt                                 output.o
DES_options                                       output.o
DES_random_key                                    output.o
DES_set_key                                       output.o
DES_set_key_checked                               output.o
DES_set_key_unchecked                             output.o
DES_set_odd_parity                                output.o
DES_xcbc_encrypt                                  output.o
DH_OpenSSL                                        output.o
DH_check                                          output.o
DH_check_pub_key                                  output.o
DH_compute_key                                    output.o
DH_free                                           output.o
DH_generate_key                                   output.o
DH_generate_parameters_ex                         output.o
DH_get_default_method                             output.o
DH_get_ex_data                                    output.o
DH_get_ex_new_index                               output.o
DH_new                                            output.o
DH_new_method                                     output.o
DH_set_default_method                             output.o
DH_set_ex_data                                    output.o
DH_set_method                                     output.o
DH_size                                           output.o
DH_up_ref                                         output.o
DH_version                                        output.o
DHparams_dup                                      output.o
DHparams_it                                       output.o
DHparams_print                                    output.o
DI                                                output.o
DIRECTORYSTRING_free                              output.o
DIRECTORYSTRING_it                                output.o
DIRECTORYSTRING_new                               output.o
DISPLAYTEXT_free                                  output.o
DISPLAYTEXT_it                                    output.o
DISPLAYTEXT_new                                   output.o
DIST_POINT_NAME_free                              output.o
DIST_POINT_NAME_it                                output.o
DIST_POINT_NAME_new                               output.o
DIST_POINT_free                                   output.o
DIST_POINT_it                                     output.o
DIST_POINT_new                                    output.o
DIST_POINT_set_dpname                             output.o
DSAPrivateKey_it                                  output.o
DSAPublicKey_it                                   output.o
DSA_OpenSSL                                       output.o
DSA_SIG_free                                      output.o
DSA_SIG_it                                        output.o
DSA_SIG_new                                       output.o
DSA_do_sign                                       output.o
DSA_do_verify                                     output.o
DSA_dup_DH                                        output.o
DSA_free                                          output.o
DSA_generate_key                                  output.o
DSA_generate_parameters_ex                        output.o
DSA_get_default_method                            output.o
DSA_get_ex_data                                   output.o
DSA_get_ex_new_index                              output.o
DSA_new                                           output.o
DSA_new_method                                    output.o
DSA_set_default_method                            output.o
DSA_set_ex_data                                   output.o
DSA_set_method                                    output.o
DSA_sign                                          output.o
DSA_sign_setup                                    output.o
DSA_size                                          output.o
DSA_up_ref                                        output.o
DSA_verify                                        output.o
DSA_version                                       output.o
DSAparams_dup                                     output.o
DSAparams_it                                      output.o
DSO_METHOD_null                                   output.o
DSO_METHOD_openssl                                output.o
DSO_bind_func                                     output.o
DSO_bind_var                                      output.o
DSO_convert_filename                              output.o
DSO_ctrl                                          output.o
DSO_flags                                         output.o
DSO_free                                          output.o
DSO_get_default_method                            output.o
DSO_get_filename                                  output.o
DSO_get_loaded_filename                           output.o
DSO_get_method                                    output.o
DSO_global_lookup                                 output.o
DSO_load                                          output.o
DSO_merge                                         output.o
DSO_new                                           output.o
DSO_new_method                                    output.o
DSO_pathbyaddr                                    output.o
DSO_set_default_method                            output.o
DSO_set_filename                                  output.o
DSO_set_method                                    output.o
DSO_set_name_converter                            output.o
DSO_up_ref                                        output.o
DelElem                                           output.o
DestroyAttribute                                  output.o
DestroyElem                                       output.o
DestroyList                                       output.o
DestroySessionData                                output.o
DestroySlotData                                   output.o
DestroyTlvData                                    output.o
DestroyTokenData                                  output.o
ECDH_OpenSSL                                      output.o
ECDH_compute_key                                  output.o
ECDH_get_default_method                           output.o
ECDH_get_ex_data                                  output.o
ECDH_get_ex_new_index                             output.o
ECDH_set_default_method                           output.o
ECDH_set_ex_data                                  output.o
ECDH_set_method                                   output.o
ECDH_version                                      output.o
ECDSA_OpenSSL                                     output.o
ECDSA_SIG_free                                    output.o
ECDSA_SIG_it                                      output.o
ECDSA_SIG_new                                     output.o
ECDSA_do_sign                                     output.o
ECDSA_do_sign_ex                                  output.o
ECDSA_do_verify                                   output.o
ECDSA_get_default_method                          output.o
ECDSA_get_ex_data                                 output.o
ECDSA_get_ex_new_index                            output.o
ECDSA_set_default_method                          output.o
ECDSA_set_ex_data                                 output.o
ECDSA_set_method                                  output.o
ECDSA_sign                                        output.o
ECDSA_sign_ex                                     output.o
ECDSA_sign_setup                                  output.o
ECDSA_size                                        output.o
ECDSA_verify                                      output.o
ECDSA_version                                     output.o
ECPARAMETERS_free                                 output.o
ECPARAMETERS_it                                   output.o
ECPARAMETERS_new                                  output.o
ECPKPARAMETERS_free                               output.o
ECPKPARAMETERS_it                                 output.o
ECPKPARAMETERS_new                                output.o
ECPKParameters_print                              output.o
ECParameters_print                                output.o
EC_EX_DATA_clear_free_all_data                    output.o
EC_EX_DATA_clear_free_data                        output.o
EC_EX_DATA_free_all_data                          output.o
EC_EX_DATA_free_data                              output.o
EC_EX_DATA_get_data                               output.o
EC_EX_DATA_set_data                               output.o
EC_GF2m_simple_method                             output.o
EC_GFp_mont_method                                output.o
EC_GFp_nist_method                                output.o
EC_GFp_simple_method                              output.o
EC_GROUP_check_discriminant                       output.o
EC_GROUP_clear_free                               output.o
EC_GROUP_cmp                                      output.o
EC_GROUP_copy                                     output.o
EC_GROUP_dup                                      output.o
EC_GROUP_free                                     output.o
EC_GROUP_get0_generator                           output.o
EC_GROUP_get0_seed                                output.o
EC_GROUP_get_asn1_flag                            output.o
EC_GROUP_get_basis_type                           output.o
EC_GROUP_get_cofactor                             output.o
EC_GROUP_get_curve_GF2m                           output.o
EC_GROUP_get_curve_GFp                            output.o
EC_GROUP_get_curve_name                           output.o
EC_GROUP_get_degree                               output.o
EC_GROUP_get_order                                output.o
EC_GROUP_get_pentanomial_basis                    output.o
EC_GROUP_get_point_conversion_form                output.o
EC_GROUP_get_seed_len                             output.o
EC_GROUP_get_trinomial_basis                      output.o
EC_GROUP_have_precompute_mult                     output.o
EC_GROUP_method_of                                output.o
EC_GROUP_new                                      output.o
EC_GROUP_new_by_curve_name                        output.o
EC_GROUP_new_curve_GF2m                           output.o
EC_GROUP_new_curve_GFp                            output.o
EC_GROUP_precompute_mult                          output.o
EC_GROUP_set_asn1_flag                            output.o
EC_GROUP_set_curve_GF2m                           output.o
EC_GROUP_set_curve_GFp                            output.o
EC_GROUP_set_curve_name                           output.o
EC_GROUP_set_generator                            output.o
EC_GROUP_set_point_conversion_form                output.o
EC_GROUP_set_seed                                 output.o
EC_KEY_check_key                                  output.o
EC_KEY_copy                                       output.o
EC_KEY_dup                                        output.o
EC_KEY_free                                       output.o
EC_KEY_generate_key                               output.o
EC_KEY_get0_group                                 output.o
EC_KEY_get0_private_key                           output.o
EC_KEY_get0_public_key                            output.o
EC_KEY_get_conv_form                              output.o
EC_KEY_get_enc_flags                              output.o
EC_KEY_get_key_method_data                        output.o
EC_KEY_insert_key_method_data                     output.o
EC_KEY_new                                        output.o
EC_KEY_new_by_curve_name                          output.o
EC_KEY_precompute_mult                            output.o
EC_KEY_print                                      output.o
EC_KEY_set_asn1_flag                              output.o
EC_KEY_set_conv_form                              output.o
EC_KEY_set_enc_flags                              output.o
EC_KEY_set_group                                  output.o
EC_KEY_set_private_key                            output.o
EC_KEY_set_public_key                             output.o
EC_KEY_up_ref                                     output.o
EC_METHOD_get_field_type                          output.o
EC_POINT_add                                      output.o
EC_POINT_bn2point                                 output.o
EC_POINT_clear_free                               output.o
EC_POINT_cmp                                      output.o
EC_POINT_copy                                     output.o
EC_POINT_dbl                                      output.o
EC_POINT_dup                                      output.o
EC_POINT_free                                     output.o
EC_POINT_get_Jprojective_coordinates_GFp          output.o
EC_POINT_get_affine_coordinates_GF2m              output.o
EC_POINT_get_affine_coordinates_GFp               output.o
EC_POINT_hex2point                                output.o
EC_POINT_invert                                   output.o
EC_POINT_is_at_infinity                           output.o
EC_POINT_is_on_curve                              output.o
EC_POINT_make_affine                              output.o
EC_POINT_method_of                                output.o
EC_POINT_mul                                      output.o
EC_POINT_new                                      output.o
EC_POINT_oct2point                                output.o
EC_POINT_point2bn                                 output.o
EC_POINT_point2hex                                output.o
EC_POINT_point2oct                                output.o
EC_POINT_set_Jprojective_coordinates_GFp          output.o
EC_POINT_set_affine_coordinates_GF2m              output.o
EC_POINT_set_affine_coordinates_GFp               output.o
EC_POINT_set_compressed_coordinates_GF2m          output.o
EC_POINT_set_compressed_coordinates_GFp           output.o
EC_POINT_set_to_infinity                          output.o
EC_POINTs_make_affine                             output.o
EC_POINTs_mul                                     output.o
EC_PRIVATEKEY_free                                output.o
EC_PRIVATEKEY_it                                  output.o
EC_PRIVATEKEY_new                                 output.o
EC_get_builtin_curves                             output.o
EDIPARTYNAME_free                                 output.o
EDIPARTYNAME_it                                   output.o
EDIPARTYNAME_new                                  output.o
EHDestroyEventHandler                             output.o
EHInitEventHandler                                output.o
EHStatusHandler                                   output.o
ERR_add_error_data                                output.o
ERR_clear_error                                   output.o
ERR_error_string                                  output.o
ERR_error_string_n                                output.o
ERR_free_strings                                  output.o
ERR_func_error_string                             output.o
ERR_get_err_state_table                           output.o
ERR_get_error                                     output.o
ERR_get_error_line                                output.o
ERR_get_error_line_data                           output.o
ERR_get_implementation                            output.o
ERR_get_next_error_library                        output.o
ERR_get_state                                     output.o
ERR_get_string_table                              output.o
ERR_lib_error_string                              output.o
ERR_load_ASN1_strings                             output.o
ERR_load_BIO_strings                              output.o
ERR_load_BN_strings                               output.o
ERR_load_BUF_strings                              output.o
ERR_load_CMS_strings                              output.o
ERR_load_COMP_strings                             output.o
ERR_load_CONF_strings                             output.o
ERR_load_CRYPTO_strings                           output.o
ERR_load_DH_strings                               output.o
ERR_load_DSA_strings                              output.o
ERR_load_DSO_strings                              output.o
ERR_load_ECDH_strings                             output.o
ERR_load_ECDSA_strings                            output.o
ERR_load_EC_strings                               output.o
ERR_load_ERR_strings                              output.o
ERR_load_EVP_strings                              output.o
ERR_load_OBJ_strings                              output.o
ERR_load_OCSP_strings                             output.o
ERR_load_PEM_strings                              output.o
ERR_load_PKCS12_strings                           output.o
ERR_load_PKCS7_strings                            output.o
ERR_load_RAND_strings                             output.o
ERR_load_RSA_strings                              output.o
ERR_load_TS_strings                               output.o
ERR_load_UI_strings                               output.o
ERR_load_X509V3_strings                           output.o
ERR_load_X509_strings                             output.o
ERR_load_crypto_strings                           output.o
ERR_load_strings                                  output.o
ERR_peek_error                                    output.o
ERR_peek_error_line                               output.o
ERR_peek_error_line_data                          output.o
ERR_peek_last_error                               output.o
ERR_peek_last_error_line                          output.o
ERR_peek_last_error_line_data                     output.o
ERR_pop_to_mark                                   output.o
ERR_print_errors                                  output.o
ERR_print_errors_cb                               output.o
ERR_put_error                                     output.o
ERR_reason_error_string                           output.o
ERR_release_err_state_table                       output.o
ERR_remove_state                                  output.o
ERR_remove_thread_state                           output.o
ERR_set_error_data                                output.o
ERR_set_implementation                            output.o
ERR_set_mark                                      output.o
ERR_unload_strings                                output.o
EVP_BytesToKey                                    output.o
EVP_CIPHER_CTX_block_size                         output.o
EVP_CIPHER_CTX_cipher                             output.o
EVP_CIPHER_CTX_cleanup                            output.o
EVP_CIPHER_CTX_clear_flags                        output.o
EVP_CIPHER_CTX_copy                               output.o
EVP_CIPHER_CTX_ctrl                               output.o
EVP_CIPHER_CTX_flags                              output.o
EVP_CIPHER_CTX_free                               output.o
EVP_CIPHER_CTX_get_app_data                       output.o
EVP_CIPHER_CTX_init                               output.o
EVP_CIPHER_CTX_iv_length                          output.o
EVP_CIPHER_CTX_key_length                         output.o
EVP_CIPHER_CTX_new                                output.o
EVP_CIPHER_CTX_nid                                output.o
EVP_CIPHER_CTX_rand_key                           output.o
EVP_CIPHER_CTX_set_app_data                       output.o
EVP_CIPHER_CTX_set_flags                          output.o
EVP_CIPHER_CTX_set_key_length                     output.o
EVP_CIPHER_CTX_set_padding                        output.o
EVP_CIPHER_CTX_test_flags                         output.o
EVP_CIPHER_asn1_to_param                          output.o
EVP_CIPHER_block_size                             output.o
EVP_CIPHER_do_all                                 output.o
EVP_CIPHER_do_all_sorted                          output.o
EVP_CIPHER_flags                                  output.o
EVP_CIPHER_get_asn1_iv                            output.o
EVP_CIPHER_iv_length                              output.o
EVP_CIPHER_key_length                             output.o
EVP_CIPHER_nid                                    output.o
EVP_CIPHER_param_to_asn1                          output.o
EVP_CIPHER_set_asn1_iv                            output.o
EVP_CIPHER_type                                   output.o
EVP_Cipher                                        output.o
EVP_CipherFinal                                   output.o
EVP_CipherFinal_ex                                output.o
EVP_CipherInit                                    output.o
EVP_CipherInit_ex                                 output.o
EVP_CipherUpdate                                  output.o
EVP_DecodeBlock                                   output.o
EVP_DecodeFinal                                   output.o
EVP_DecodeInit                                    output.o
EVP_DecodeUpdate                                  output.o
EVP_DecryptFinal                                  output.o
EVP_DecryptFinal_ex                               output.o
EVP_DecryptInit                                   output.o
EVP_DecryptInit_ex                                output.o
EVP_DecryptUpdate                                 output.o
EVP_Digest                                        output.o
EVP_DigestFinal                                   output.o
EVP_DigestFinal_ex                                output.o
EVP_DigestInit                                    output.o
EVP_DigestInit_ex                                 output.o
EVP_DigestSignFinal                               output.o
EVP_DigestSignInit                                output.o
EVP_DigestUpdate                                  output.o
EVP_DigestVerifyFinal                             output.o
EVP_DigestVerifyInit                              output.o
EVP_EncodeBlock                                   output.o
EVP_EncodeFinal                                   output.o
EVP_EncodeInit                                    output.o
EVP_EncodeUpdate                                  output.o
EVP_EncryptFinal                                  output.o
EVP_EncryptFinal_ex                               output.o
EVP_EncryptInit                                   output.o
EVP_EncryptInit_ex                                output.o
EVP_EncryptUpdate                                 output.o
EVP_MD_CTX_cleanup                                output.o
EVP_MD_CTX_clear_flags                            output.o
EVP_MD_CTX_copy                                   output.o
EVP_MD_CTX_copy_ex                                output.o
EVP_MD_CTX_create                                 output.o
EVP_MD_CTX_destroy                                output.o
EVP_MD_CTX_init                                   output.o
EVP_MD_CTX_md                                     output.o
EVP_MD_CTX_set_flags                              output.o
EVP_MD_CTX_test_flags                             output.o
EVP_MD_block_size                                 output.o
EVP_MD_do_all                                     output.o
EVP_MD_do_all_sorted                              output.o
EVP_MD_flags                                      output.o
EVP_MD_pkey_type                                  output.o
EVP_MD_size                                       output.o
EVP_MD_type                                       output.o
EVP_PBE_CipherInit                                output.o
EVP_PBE_alg_add                                   output.o
EVP_PBE_alg_add_type                              output.o
EVP_PBE_cleanup                                   output.o
EVP_PBE_find                                      output.o
EVP_PKCS82PKEY                                    output.o
EVP_PKEY2PKCS8                                    output.o
EVP_PKEY2PKCS8_broken                             output.o
EVP_PKEY_CTX_ctrl                                 output.o
EVP_PKEY_CTX_ctrl_str                             output.o
EVP_PKEY_CTX_dup                                  output.o
EVP_PKEY_CTX_free                                 output.o
EVP_PKEY_CTX_get0_peerkey                         output.o
EVP_PKEY_CTX_get0_pkey                            output.o
EVP_PKEY_CTX_get_app_data                         output.o
EVP_PKEY_CTX_get_cb                               output.o
EVP_PKEY_CTX_get_data                             output.o
EVP_PKEY_CTX_get_keygen_info                      output.o
EVP_PKEY_CTX_get_operation                        output.o
EVP_PKEY_CTX_new                                  output.o
EVP_PKEY_CTX_new_id                               output.o
EVP_PKEY_CTX_set0_keygen_info                     output.o
EVP_PKEY_CTX_set_app_data                         output.o
EVP_PKEY_CTX_set_cb                               output.o
EVP_PKEY_CTX_set_data                             output.o
EVP_PKEY_add1_attr                                output.o
EVP_PKEY_add1_attr_by_NID                         output.o
EVP_PKEY_add1_attr_by_OBJ                         output.o
EVP_PKEY_add1_attr_by_txt                         output.o
EVP_PKEY_asn1_add0                                output.o
EVP_PKEY_asn1_add_alias                           output.o
EVP_PKEY_asn1_copy                                output.o
EVP_PKEY_asn1_find                                output.o
EVP_PKEY_asn1_find_str                            output.o
EVP_PKEY_asn1_free                                output.o
EVP_PKEY_asn1_get0                                output.o
EVP_PKEY_asn1_get0_info                           output.o
EVP_PKEY_asn1_get_count                           output.o
EVP_PKEY_asn1_new                                 output.o
EVP_PKEY_asn1_set_ctrl                            output.o
EVP_PKEY_asn1_set_free                            output.o
EVP_PKEY_asn1_set_param                           output.o
EVP_PKEY_asn1_set_private                         output.o
EVP_PKEY_asn1_set_public                          output.o
EVP_PKEY_assign                                   output.o
EVP_PKEY_base_id                                  output.o
EVP_PKEY_bits                                     output.o
EVP_PKEY_cmp                                      output.o
EVP_PKEY_cmp_parameters                           output.o
EVP_PKEY_copy_parameters                          output.o
EVP_PKEY_decrypt                                  output.o
EVP_PKEY_decrypt_init                             output.o
EVP_PKEY_delete_attr                              output.o
EVP_PKEY_derive                                   output.o
EVP_PKEY_derive_init                              output.o
EVP_PKEY_derive_set_peer                          output.o
EVP_PKEY_encrypt                                  output.o
EVP_PKEY_encrypt_init                             output.o
EVP_PKEY_free                                     output.o
EVP_PKEY_get0                                     output.o
EVP_PKEY_get0_asn1                                output.o
EVP_PKEY_get1_DH                                  output.o
EVP_PKEY_get1_DSA                                 output.o
EVP_PKEY_get1_EC_KEY                              output.o
EVP_PKEY_get1_RSA                                 output.o
EVP_PKEY_get_attr                                 output.o
EVP_PKEY_get_attr_by_NID                          output.o
EVP_PKEY_get_attr_by_OBJ                          output.o
EVP_PKEY_get_attr_count                           output.o
EVP_PKEY_get_default_digest_nid                   output.o
EVP_PKEY_id                                       output.o
EVP_PKEY_keygen                                   output.o
EVP_PKEY_keygen_init                              output.o
EVP_PKEY_meth_add0                                output.o
EVP_PKEY_meth_find                                output.o
EVP_PKEY_meth_free                                output.o
EVP_PKEY_meth_new                                 output.o
EVP_PKEY_meth_set_cleanup                         output.o
EVP_PKEY_meth_set_copy                            output.o
EVP_PKEY_meth_set_ctrl                            output.o
EVP_PKEY_meth_set_decrypt                         output.o
EVP_PKEY_meth_set_derive                          output.o
EVP_PKEY_meth_set_encrypt                         output.o
EVP_PKEY_meth_set_init                            output.o
EVP_PKEY_meth_set_keygen                          output.o
EVP_PKEY_meth_set_paramgen                        output.o
EVP_PKEY_meth_set_sign                            output.o
EVP_PKEY_meth_set_signctx                         output.o
EVP_PKEY_meth_set_verify                          output.o
EVP_PKEY_meth_set_verify_recover                  output.o
EVP_PKEY_meth_set_verifyctx                       output.o
EVP_PKEY_missing_parameters                       output.o
EVP_PKEY_new                                      output.o
EVP_PKEY_new_mac_key                              output.o
EVP_PKEY_paramgen                                 output.o
EVP_PKEY_paramgen_init                            output.o
EVP_PKEY_print_params                             output.o
EVP_PKEY_print_private                            output.o
EVP_PKEY_print_public                             output.o
EVP_PKEY_save_parameters                          output.o
EVP_PKEY_set1_DH                                  output.o
EVP_PKEY_set1_DSA                                 output.o
EVP_PKEY_set1_EC_KEY                              output.o
EVP_PKEY_set1_RSA                                 output.o
EVP_PKEY_set_type                                 output.o
EVP_PKEY_set_type_str                             output.o
EVP_PKEY_sign                                     output.o
EVP_PKEY_sign_init                                output.o
EVP_PKEY_size                                     output.o
EVP_PKEY_type                                     output.o
EVP_PKEY_verify                                   output.o
EVP_PKEY_verify_init                              output.o
EVP_PKEY_verify_recover                           output.o
EVP_PKEY_verify_recover_init                      output.o
EVP_SignFinal                                     output.o
EVP_VerifyFinal                                   output.o
EVP_add_cipher                                    output.o
EVP_add_digest                                    output.o
EVP_aes_128_cbc                                   output.o
EVP_aes_128_cfb1                                  output.o
EVP_aes_128_cfb128                                output.o
EVP_aes_128_cfb8                                  output.o
EVP_aes_128_ecb                                   output.o
EVP_aes_128_ofb                                   output.o
EVP_aes_192_cbc                                   output.o
EVP_aes_192_cfb1                                  output.o
EVP_aes_192_cfb128                                output.o
EVP_aes_192_cfb8                                  output.o
EVP_aes_192_ecb                                   output.o
EVP_aes_192_ofb                                   output.o
EVP_aes_256_cbc                                   output.o
EVP_aes_256_cfb1                                  output.o
EVP_aes_256_cfb128                                output.o
EVP_aes_256_cfb8                                  output.o
EVP_aes_256_ecb                                   output.o
EVP_aes_256_ofb                                   output.o
EVP_bf_cbc                                        output.o
EVP_bf_cfb64                                      output.o
EVP_bf_ecb                                        output.o
EVP_bf_ofb                                        output.o
EVP_cast5_cbc                                     output.o
EVP_cast5_cfb64                                   output.o
EVP_cast5_ecb                                     output.o
EVP_cast5_ofb                                     output.o
EVP_cleanup                                       output.o
EVP_des_cbc                                       output.o
EVP_des_cfb1                                      output.o
EVP_des_cfb64                                     output.o
EVP_des_cfb8                                      output.o
EVP_des_ecb                                       output.o
EVP_des_ede                                       output.o
EVP_des_ede3                                      output.o
EVP_des_ede3_cbc                                  output.o
EVP_des_ede3_cfb1                                 output.o
EVP_des_ede3_cfb64                                output.o
EVP_des_ede3_cfb8                                 output.o
EVP_des_ede3_ecb                                  output.o
EVP_des_ede3_ofb                                  output.o
EVP_des_ede_cbc                                   output.o
EVP_des_ede_cfb64                                 output.o
EVP_des_ede_ecb                                   output.o
EVP_des_ede_ofb                                   output.o
EVP_des_ofb                                       output.o
EVP_desx_cbc                                      output.o
EVP_dss                                           output.o
EVP_dss1                                          output.o
EVP_ecdsa                                         output.o
EVP_get_cipherbyname                              output.o
EVP_get_digestbyname                              output.o
EVP_get_pw_prompt                                 output.o
EVP_idea_cbc                                      output.o
EVP_idea_cfb64                                    output.o
EVP_idea_ecb                                      output.o
EVP_idea_ofb                                      output.o
EVP_md4                                           output.o
EVP_md5                                           output.o
EVP_rc2_40_cbc                                    output.o
EVP_rc2_64_cbc                                    output.o
EVP_rc2_cbc                                       output.o
EVP_rc2_cfb64                                     output.o
EVP_rc2_ecb                                       output.o
EVP_rc2_ofb                                       output.o
EVP_rc4                                           output.o
EVP_rc4_40                                        output.o
EVP_read_pw_string                                output.o
EVP_read_pw_string_min                            output.o
EVP_ripemd160                                     output.o
EVP_set_pw_prompt                                 output.o
EVP_sha                                           output.o
EVP_sha1                                          output.o
EVP_sha224                                        output.o
EVP_sha256                                        output.o
EVP_sha384                                        output.o
EVP_sha512                                        output.o
EVP_version                                       output.o
EVP_whirlpool                                     output.o
EXTENDED_KEY_USAGE_free                           output.o
EXTENDED_KEY_USAGE_it                             output.o
EXTENDED_KEY_USAGE_new                            output.o
ExchangePPSData                                   output.o
FI                                                output.o
FindBaudRateTable                                 output.o
GENERAL_NAMES_free                                output.o
GENERAL_NAMES_it                                  output.o
GENERAL_NAMES_new                                 output.o
GENERAL_NAME_cmp                                  output.o
GENERAL_NAME_dup                                  output.o
GENERAL_NAME_free                                 output.o
GENERAL_NAME_get0_otherName                       output.o
GENERAL_NAME_get0_value                           output.o
GENERAL_NAME_it                                   output.o
GENERAL_NAME_new                                  output.o
GENERAL_NAME_print                                output.o
GENERAL_NAME_set0_othername                       output.o
GENERAL_NAME_set0_value                           output.o
GENERAL_SUBTREE_free                              output.o
GENERAL_SUBTREE_it                                output.o
GENERAL_SUBTREE_new                               output.o
GetAttrValType                                    output.o
GetBWICWIData                                     output.o
GetCardStatus                                     output.o
GetDirDataByTlv                                   output.o
GetElem                                           output.o
GetICCardData                                     output.o
GetIFSCData                                       output.o
GetLength                                         output.o
GetOdfDataByTlv                                   output.o
GetTlvByBuf                                       output.o
GetTokenDataByTlv                                 output.o
GetUlByByte                                       output.o
GetUlByTxt                                        output.o
GetValueData                                      output.o
GetVerByTex                                       output.o
HMAC                                              output.o
HMAC_CTX_cleanup                                  output.o
HMAC_CTX_copy                                     output.o
HMAC_CTX_init                                     output.o
HMAC_CTX_set_flags                                output.o
HMAC_Final                                        output.o
HMAC_Init                                         output.o
HMAC_Init_ex                                      output.o
HMAC_Update                                       output.o
HPSearchHotPluggables                             output.o
IDEA_version                                      output.o
IDMan_CheckCardStatus                             output.o
IDMan_CmCheckCRL                                  output.o
IDMan_CmChgRSA                                    output.o
IDMan_CmGetCertificateSign                        output.o
IDMan_CmGetDN                                     output.o
IDMan_CmGetPublicKey                              output.o
IDMan_CmMakeRand                                  output.o
IDMan_CmMkHash                                    output.o
IDMan_CmPadding                                   output.o
IDMan_CmPadding2                                  output.o
IDMan_EncryptByIndex                              output.o
IDMan_IPCheckCrlPkcX                              output.o
IDMan_IPCheckPKC                                  output.o
IDMan_IPCheckSignature                            output.o
IDMan_IPCrSignature                               output.o
IDMan_IPFinalize                                  output.o
IDMan_IPFinalizeReader                            output.o
IDMan_IPIdPassListMalloc                          output.o
IDMan_IPInitialize                                output.o
IDMan_IPInitializeReader                          output.o
IDMan_IPMkPublicKeyObj                            output.o
IDMan_IPMkRandHash                                output.o
IDMan_IPRetJudgment                               output.o
IDMan_IPSignatureVerify                           output.o
IDMan_IPgCIndexParamChk                           output.o
IDMan_IPgCParamChk                                output.o
IDMan_IPgIdxSParamChk                             output.o
IDMan_IPgSParamChk                                output.o
IDMan_IPgetCertIdxPKCS                            output.o
IDMan_IPgetCertPKCS                               output.o
IDMan_IPgetCertPkeyIdxPKCSx                       output.o
IDMan_IPgetCertPkeyPKCSx                          output.o
IDMan_IPgetCertPkeyPKCSy                          output.o
IDMan_IPgetHash                                   output.o
IDMan_IPgetMakeRandData                           output.o
IDMan_IPgetPrivateKey                             output.o
IDMan_IPgetPrivateKeyPKCSx                        output.o
IDMan_IPuAPKCS11IdxParamChk                       output.o
IDMan_IPuAPKCS11ParamChk                          output.o
IDMan_IPvSIdxParamChk                             output.o
IDMan_IPvSParamChk                                output.o
IDMan_PaddingParamChk                             output.o
IDMan_SCardConnect                                output.o
IDMan_SCardDisconnect                             output.o
IDMan_SCardEstablishContext                       output.o
IDMan_SCardListReaders                            output.o
IDMan_SCardReleaseContext                         output.o
IDMan_SCardSetBinay                               output.o
IDMan_SCardSizeLongToChar                         output.o
IDMan_SCardStatus                                 output.o
IDMan_SCardTransmit                               output.o
IDMan_StAtoi                                      output.o
IDMan_StAtol                                      output.o
IDMan_StFree                                      output.o
IDMan_StMalloc                                    output.o
IDMan_StMemcmp                                    output.o
IDMan_StMemcpy                                    output.o
IDMan_StMemset                                    output.o
IDMan_StReadSetData                               output.o
IDMan_StStrcat                                    output.o
IDMan_StStrchr                                    output.o
IDMan_StStrcmp                                    output.o
IDMan_StStrcpy                                    output.o
IDMan_StStrlen                                    output.o
IDMan_generateSignature                           output.o
IDMan_generateSignatureByIndex                    output.o
IDMan_getCertificate                              output.o
IDMan_getCertificateByIndex                       output.o
IDMan_getMemoryFree                               output.o
IDMan_getStaticPassword                           output.o
IDMan_userAuthPKCS11                              output.o
IDMan_userAuthPKCS11ByIndex                       output.o
IDMan_verifySignature                             output.o
IDMan_verifySignatureByIndex                      output.o
IFDHCloseChannel                                  output.o
IFDHControl                                       output.o
IFDHCreateChannel                                 output.o
IFDHGetCapabilities                               output.o
IFDHICCPresence                                   output.o
IFDHPowerICC                                      output.o
IFDHSetProtocolParameters                         output.o
IFDHTransmitToICC                                 output.o
ISSUING_DIST_POINT_free                           output.o
ISSUING_DIST_POINT_it                             output.o
ISSUING_DIST_POINT_new                            output.o
InitCryptoLibrary                                 output.o
InitLeaderCardProtocol                            output.o
InternalAuth                                      output.o
LONG_it                                           output.o
MD4_Final                                         output.o
MD4_Init                                          output.o
MD4_Transform                                     output.o
MD4_Update                                        output.o
MD4_version                                       output.o
MD5                                               output.o
MD5_Final                                         output.o
MD5_Init                                          output.o
MD5_Transform                                     output.o
MD5_Update                                        output.o
MD5_version                                       output.o
NAME_CONSTRAINTS_check                            output.o
NAME_CONSTRAINTS_free                             output.o
NAME_CONSTRAINTS_it                               output.o
NAME_CONSTRAINTS_new                              output.o
NCONF_WIN32                                       output.o
NCONF_default                                     output.o
NCONF_dump_bio                                    output.o
NCONF_free                                        output.o
NCONF_free_data                                   output.o
NCONF_get_number_e                                output.o
NCONF_get_section                                 output.o
NCONF_get_string                                  output.o
NCONF_load                                        output.o
NCONF_load_bio                                    output.o
NCONF_new                                         output.o
NETSCAPE_CERT_SEQUENCE_free                       output.o
NETSCAPE_CERT_SEQUENCE_it                         output.o
NETSCAPE_CERT_SEQUENCE_new                        output.o
NETSCAPE_SPKAC_free                               output.o
NETSCAPE_SPKAC_it                                 output.o
NETSCAPE_SPKAC_new                                output.o
NETSCAPE_SPKI_free                                output.o
NETSCAPE_SPKI_it                                  output.o
NETSCAPE_SPKI_new                                 output.o
NETSCAPE_SPKI_sign                                output.o
NETSCAPE_SPKI_verify                              output.o
NOTICEREF_free                                    output.o
NOTICEREF_it                                      output.o
NOTICEREF_new                                     output.o
OBJ_NAME_add                                      output.o
OBJ_NAME_cleanup                                  output.o
OBJ_NAME_do_all                                   output.o
OBJ_NAME_do_all_sorted                            output.o
OBJ_NAME_get                                      output.o
OBJ_NAME_init                                     output.o
OBJ_NAME_new_index                                output.o
OBJ_NAME_remove                                   output.o
OBJ_add_object                                    output.o
OBJ_add_sigid                                     output.o
OBJ_bsearch_                                      output.o
OBJ_bsearch_ex_                                   output.o
OBJ_cleanup                                       output.o
OBJ_cmp                                           output.o
OBJ_create                                        output.o
OBJ_create_objects                                output.o
OBJ_dup                                           output.o
OBJ_find_sigid_algs                               output.o
OBJ_find_sigid_by_algs                            output.o
OBJ_ln2nid                                        output.o
OBJ_new_nid                                       output.o
OBJ_nid2ln                                        output.o
OBJ_nid2obj                                       output.o
OBJ_nid2sn                                        output.o
OBJ_obj2nid                                       output.o
OBJ_obj2txt                                       output.o
OBJ_sigid_free                                    output.o
OBJ_sn2nid                                        output.o
OBJ_txt2nid                                       output.o
OBJ_txt2obj                                       output.o
OCSP_BASICRESP_free                               output.o
OCSP_BASICRESP_it                                 output.o
OCSP_BASICRESP_new                                output.o
OCSP_CERTID_free                                  output.o
OCSP_CERTID_it                                    output.o
OCSP_CERTID_new                                   output.o
OCSP_CERTSTATUS_free                              output.o
OCSP_CERTSTATUS_it                                output.o
OCSP_CERTSTATUS_new                               output.o
OCSP_CRLID_free                                   output.o
OCSP_CRLID_it                                     output.o
OCSP_CRLID_new                                    output.o
OCSP_ONEREQ_free                                  output.o
OCSP_ONEREQ_it                                    output.o
OCSP_ONEREQ_new                                   output.o
OCSP_REQINFO_free                                 output.o
OCSP_REQINFO_it                                   output.o
OCSP_REQINFO_new                                  output.o
OCSP_REQUEST_free                                 output.o
OCSP_REQUEST_it                                   output.o
OCSP_REQUEST_new                                  output.o
OCSP_RESPBYTES_free                               output.o
OCSP_RESPBYTES_it                                 output.o
OCSP_RESPBYTES_new                                output.o
OCSP_RESPDATA_free                                output.o
OCSP_RESPDATA_it                                  output.o
OCSP_RESPDATA_new                                 output.o
OCSP_RESPID_free                                  output.o
OCSP_RESPID_it                                    output.o
OCSP_RESPID_new                                   output.o
OCSP_RESPONSE_free                                output.o
OCSP_RESPONSE_it                                  output.o
OCSP_RESPONSE_new                                 output.o
OCSP_REVOKEDINFO_free                             output.o
OCSP_REVOKEDINFO_it                               output.o
OCSP_REVOKEDINFO_new                              output.o
OCSP_SERVICELOC_free                              output.o
OCSP_SERVICELOC_it                                output.o
OCSP_SERVICELOC_new                               output.o
OCSP_SIGNATURE_free                               output.o
OCSP_SIGNATURE_it                                 output.o
OCSP_SIGNATURE_new                                output.o
OCSP_SINGLERESP_free                              output.o
OCSP_SINGLERESP_it                                output.o
OCSP_SINGLERESP_new                               output.o
OPENSSL_NONPIC_relocated                          output.o
OPENSSL_asc2uni                                   output.o
OPENSSL_cleanse                                   output.o
OPENSSL_cpuid_setup                               output.o
OPENSSL_gmtime                                    output.o
OPENSSL_gmtime_adj                                output.o
OPENSSL_ia32cap_P                                 output.o
OPENSSL_ia32cap_loc                               output.o
OPENSSL_isservice                                 output.o
OPENSSL_showfatal                                 output.o
OPENSSL_stderr                                    output.o
OPENSSL_uni2asc                                   output.o
OSSL_DES_version                                  output.o
OSSL_libdes_version                               output.o
OTHERNAME_cmp                                     output.o
OTHERNAME_free                                    output.o
OTHERNAME_it                                      output.o
OTHERNAME_new                                     output.o
OpenSSLDie                                        output.o
OpenSSL_add_all_ciphers                           output.o
OpenSSL_add_all_digests                           output.o
OpenUSB                                           output.o
PAGE_POOL_START                                   output.o
PBE2PARAM_free                                    output.o
PBE2PARAM_it                                      output.o
PBE2PARAM_new                                     output.o
PBEPARAM_free                                     output.o
PBEPARAM_it                                       output.o
PBEPARAM_new                                      output.o
PBKDF2PARAM_free                                  output.o
PBKDF2PARAM_it                                    output.o
PBKDF2PARAM_new                                   output.o
PEM_ASN1_read_bio                                 output.o
PEM_ASN1_write_bio                                output.o
PEM_bytes_read_bio                                output.o
PEM_def_callback                                  output.o
PEM_dek_info                                      output.o
PEM_do_header                                     output.o
PEM_get_EVP_CIPHER_INFO                           output.o
PEM_proc_type                                     output.o
PEM_read_bio                                      output.o
PEM_read_bio_CMS                                  output.o
PEM_read_bio_DHparams                             output.o
PEM_read_bio_DSAPrivateKey                        output.o
PEM_read_bio_DSA_PUBKEY                           output.o
PEM_read_bio_DSAparams                            output.o
PEM_read_bio_ECPKParameters                       output.o
PEM_read_bio_ECPrivateKey                         output.o
PEM_read_bio_EC_PUBKEY                            output.o
PEM_read_bio_NETSCAPE_CERT_SEQUENCE               output.o
PEM_read_bio_PKCS7                                output.o
PEM_read_bio_PKCS8                                output.o
PEM_read_bio_PKCS8_PRIV_KEY_INFO                  output.o
PEM_read_bio_PUBKEY                               output.o
PEM_read_bio_Parameters                           output.o
PEM_read_bio_PrivateKey                           output.o
PEM_read_bio_RSAPrivateKey                        output.o
PEM_read_bio_RSAPublicKey                         output.o
PEM_read_bio_RSA_PUBKEY                           output.o
PEM_read_bio_X509                                 output.o
PEM_read_bio_X509_CRL                             output.o
PEM_read_bio_X509_REQ                             output.o
PEM_version                                       output.o
PEM_write_bio                                     output.o
PEM_write_bio_ASN1_stream                         output.o
PEM_write_bio_CMS                                 output.o
PEM_write_bio_CMS_stream                          output.o
PEM_write_bio_DHparams                            output.o
PEM_write_bio_DSAPrivateKey                       output.o
PEM_write_bio_DSA_PUBKEY                          output.o
PEM_write_bio_DSAparams                           output.o
PEM_write_bio_ECPKParameters                      output.o
PEM_write_bio_ECPrivateKey                        output.o
PEM_write_bio_EC_PUBKEY                           output.o
PEM_write_bio_NETSCAPE_CERT_SEQUENCE              output.o
PEM_write_bio_PKCS7                               output.o
PEM_write_bio_PKCS8                               output.o
PEM_write_bio_PKCS8PrivateKey                     output.o
PEM_write_bio_PKCS8PrivateKey_nid                 output.o
PEM_write_bio_PKCS8_PRIV_KEY_INFO                 output.o
PEM_write_bio_PUBKEY                              output.o
PEM_write_bio_Parameters                          output.o
PEM_write_bio_PrivateKey                          output.o
PEM_write_bio_RSAPrivateKey                       output.o
PEM_write_bio_RSAPublicKey                        output.o
PEM_write_bio_RSA_PUBKEY                          output.o
PEM_write_bio_X509                                output.o
PEM_write_bio_X509_CRL                            output.o
PEM_write_bio_X509_REQ                            output.o
PEM_write_bio_X509_REQ_NEW                        output.o
PHGetProtocol                                     output.o
PHSetProtocol                                     output.o
PKCS12_AUTHSAFES_it                               output.o
PKCS12_BAGS_free                                  output.o
PKCS12_BAGS_it                                    output.o
PKCS12_BAGS_new                                   output.o
PKCS12_MAC_DATA_free                              output.o
PKCS12_MAC_DATA_it                                output.o
PKCS12_MAC_DATA_new                               output.o
PKCS12_MAKE_KEYBAG                                output.o
PKCS12_MAKE_SHKEYBAG                              output.o
PKCS12_PBE_add                                    output.o
PKCS12_PBE_keyivgen                               output.o
PKCS12_SAFEBAGS_it                                output.o
PKCS12_SAFEBAG_free                               output.o
PKCS12_SAFEBAG_it                                 output.o
PKCS12_SAFEBAG_new                                output.o
PKCS12_certbag2x509                               output.o
PKCS12_certbag2x509crl                            output.o
PKCS12_decrypt_skey                               output.o
PKCS12_free                                       output.o
PKCS12_it                                         output.o
PKCS12_item_decrypt_d2i                           output.o
PKCS12_item_i2d_encrypt                           output.o
PKCS12_item_pack_safebag                          output.o
PKCS12_key_gen_asc                                output.o
PKCS12_key_gen_uni                                output.o
PKCS12_new                                        output.o
PKCS12_pack_authsafes                             output.o
PKCS12_pack_p7data                                output.o
PKCS12_pack_p7encdata                             output.o
PKCS12_pbe_crypt                                  output.o
PKCS12_unpack_authsafes                           output.o
PKCS12_unpack_p7data                              output.o
PKCS12_unpack_p7encdata                           output.o
PKCS12_x5092certbag                               output.o
PKCS12_x509crl2certbag                            output.o
PKCS1_MGF1                                        output.o
PKCS5_PBE_add                                     output.o
PKCS5_PBE_keyivgen                                output.o
PKCS5_PBKDF2_HMAC                                 output.o
PKCS5_PBKDF2_HMAC_SHA1                            output.o
PKCS5_pbe2_set                                    output.o
PKCS5_pbe2_set_iv                                 output.o
PKCS5_pbe_set                                     output.o
PKCS5_pbe_set0_algor                              output.o
PKCS5_v2_PBE_keyivgen                             output.o
PKCS7_ATTR_SIGN_it                                output.o
PKCS7_ATTR_VERIFY_it                              output.o
PKCS7_DIGEST_free                                 output.o
PKCS7_DIGEST_it                                   output.o
PKCS7_DIGEST_new                                  output.o
PKCS7_ENCRYPT_free                                output.o
PKCS7_ENCRYPT_it                                  output.o
PKCS7_ENCRYPT_new                                 output.o
PKCS7_ENC_CONTENT_free                            output.o
PKCS7_ENC_CONTENT_it                              output.o
PKCS7_ENC_CONTENT_new                             output.o
PKCS7_ENVELOPE_free                               output.o
PKCS7_ENVELOPE_it                                 output.o
PKCS7_ENVELOPE_new                                output.o
PKCS7_ISSUER_AND_SERIAL_digest                    output.o
PKCS7_ISSUER_AND_SERIAL_free                      output.o
PKCS7_ISSUER_AND_SERIAL_it                        output.o
PKCS7_ISSUER_AND_SERIAL_new                       output.o
PKCS7_RECIP_INFO_free                             output.o
PKCS7_RECIP_INFO_get0_alg                         output.o
PKCS7_RECIP_INFO_it                               output.o
PKCS7_RECIP_INFO_new                              output.o
PKCS7_RECIP_INFO_set                              output.o
PKCS7_SIGNED_free                                 output.o
PKCS7_SIGNED_it                                   output.o
PKCS7_SIGNED_new                                  output.o
PKCS7_SIGNER_INFO_free                            output.o
PKCS7_SIGNER_INFO_get0_algs                       output.o
PKCS7_SIGNER_INFO_it                              output.o
PKCS7_SIGNER_INFO_new                             output.o
PKCS7_SIGNER_INFO_set                             output.o
PKCS7_SIGNER_INFO_sign                            output.o
PKCS7_SIGN_ENVELOPE_free                          output.o
PKCS7_SIGN_ENVELOPE_it                            output.o
PKCS7_SIGN_ENVELOPE_new                           output.o
PKCS7_add0_attrib_signing_time                    output.o
PKCS7_add1_attrib_digest                          output.o
PKCS7_add_attrib_content_type                     output.o
PKCS7_add_attrib_smimecap                         output.o
PKCS7_add_attribute                               output.o
PKCS7_add_certificate                             output.o
PKCS7_add_crl                                     output.o
PKCS7_add_recipient                               output.o
PKCS7_add_recipient_info                          output.o
PKCS7_add_signature                               output.o
PKCS7_add_signed_attribute                        output.o
PKCS7_add_signer                                  output.o
PKCS7_cert_from_signer_info                       output.o
PKCS7_content_new                                 output.o
PKCS7_ctrl                                        output.o
PKCS7_dataDecode                                  output.o
PKCS7_dataFinal                                   output.o
PKCS7_dataInit                                    output.o
PKCS7_dataVerify                                  output.o
PKCS7_digest_from_attributes                      output.o
PKCS7_dup                                         output.o
PKCS7_free                                        output.o
PKCS7_get_attribute                               output.o
PKCS7_get_issuer_and_serial                       output.o
PKCS7_get_signed_attribute                        output.o
PKCS7_get_signer_info                             output.o
PKCS7_get_smimecap                                output.o
PKCS7_it                                          output.o
PKCS7_new                                         output.o
PKCS7_print_ctx                                   output.o
PKCS7_set0_type_other                             output.o
PKCS7_set_attributes                              output.o
PKCS7_set_cipher                                  output.o
PKCS7_set_content                                 output.o
PKCS7_set_digest                                  output.o
PKCS7_set_signed_attributes                       output.o
PKCS7_set_type                                    output.o
PKCS7_signatureVerify                             output.o
PKCS7_simple_smimecap                             output.o
PKCS7_stream                                      output.o
PKCS8_PRIV_KEY_INFO_free                          output.o
PKCS8_PRIV_KEY_INFO_it                            output.o
PKCS8_PRIV_KEY_INFO_new                           output.o
PKCS8_decrypt                                     output.o
PKCS8_encrypt                                     output.o
PKCS8_pkey_get0                                   output.o
PKCS8_pkey_set0                                   output.o
PKCS8_set_broken                                  output.o
PKEY_USAGE_PERIOD_free                            output.o
PKEY_USAGE_PERIOD_it                              output.o
PKEY_USAGE_PERIOD_new                             output.o
POLICYINFO_free                                   output.o
POLICYINFO_it                                     output.o
POLICYINFO_new                                    output.o
POLICYQUALINFO_free                               output.o
POLICYQUALINFO_it                                 output.o
POLICYQUALINFO_new                                output.o
POLICY_CONSTRAINTS_free                           output.o
POLICY_CONSTRAINTS_it                             output.o
POLICY_CONSTRAINTS_new                            output.o
POLICY_MAPPINGS_it                                output.o
POLICY_MAPPING_free                               output.o
POLICY_MAPPING_it                                 output.o
POLICY_MAPPING_new                                output.o
PROXY_CERT_INFO_EXTENSION_free                    output.o
PROXY_CERT_INFO_EXTENSION_it                      output.o
PROXY_CERT_INFO_EXTENSION_new                     output.o
PROXY_POLICY_free                                 output.o
PROXY_POLICY_it                                   output.o
PROXY_POLICY_new                                  output.o
PowerOff                                          output.o
PowerOn                                           output.o
RAND_SSLeay                                       output.o
RAND_add                                          output.o
RAND_bytes                                        output.o
RAND_cleanup                                      output.o
RAND_get_rand_method                              output.o
RAND_poll                                         output.o
RAND_pseudo_bytes                                 output.o
RAND_seed                                         output.o
RAND_set_rand_method                              output.o
RAND_status                                       output.o
RAND_version                                      output.o
RC2_cbc_encrypt                                   output.o
RC2_cfb64_encrypt                                 output.o
RC2_decrypt                                       output.o
RC2_ecb_encrypt                                   output.o
RC2_encrypt                                       output.o
RC2_ofb64_encrypt                                 output.o
RC2_set_key                                       output.o
RC2_version                                       output.o
RC4                                               output.o
RC4_options                                       output.o
RC4_set_key                                       output.o
RC4_version                                       output.o
RFAddReader                                       output.o
RFCheckReaderEventState                           output.o
RFReaderInfoById                                  output.o
RFRemoveReader                                    output.o
RIPEMD160_Final                                   output.o
RIPEMD160_Init                                    output.o
RIPEMD160_Transform                               output.o
RIPEMD160_Update                                  output.o
RMD160_version                                    output.o
RSAPrivateKey_dup                                 output.o
RSAPrivateKey_it                                  output.o
RSAPublicKey_dup                                  output.o
RSAPublicKey_it                                   output.o
RSA_PKCS1_SSLeay                                  output.o
RSA_X931_hash_id                                  output.o
RSA_blinding_off                                  output.o
RSA_blinding_on                                   output.o
RSA_flags                                         output.o
RSA_free                                          output.o
RSA_generate_key                                  output.o
RSA_generate_key_ex                               output.o
RSA_get_default_method                            output.o
RSA_get_ex_data                                   output.o
RSA_get_ex_new_index                              output.o
RSA_get_method                                    output.o
RSA_memory_lock                                   output.o
RSA_new                                           output.o
RSA_new_method                                    output.o
RSA_padding_add_PKCS1_OAEP                        output.o
RSA_padding_add_PKCS1_PSS                         output.o
RSA_padding_add_PKCS1_type_1                      output.o
RSA_padding_add_PKCS1_type_2                      output.o
RSA_padding_add_SSLv23                            output.o
RSA_padding_add_X931                              output.o
RSA_padding_add_none                              output.o
RSA_padding_check_PKCS1_OAEP                      output.o
RSA_padding_check_PKCS1_type_1                    output.o
RSA_padding_check_PKCS1_type_2                    output.o
RSA_padding_check_SSLv23                          output.o
RSA_padding_check_X931                            output.o
RSA_padding_check_none                            output.o
RSA_private_decrypt                               output.o
RSA_private_encrypt                               output.o
RSA_public_decrypt                                output.o
RSA_public_encrypt                                output.o
RSA_set_default_method                            output.o
RSA_set_ex_data                                   output.o
RSA_set_method                                    output.o
RSA_setup_blinding                                output.o
RSA_sign                                          output.o
RSA_size                                          output.o
RSA_up_ref                                        output.o
RSA_verify                                        output.o
RSA_verify_PKCS1_PSS                              output.o
RSA_version                                       output.o
ReadBinary                                        output.o
ReadDataT0                                        output.o
ReadUSB                                           output.o
ReceiveReply                                      output.o
SCardBeginTransaction                             output.o
SCardConnect                                      output.o
SCardDisconnect                                   output.o
SCardEndTransaction                               output.o
SCardEstablishContext                             output.o
SCardListReaders                                  output.o
SCardReleaseContext                               output.o
SCardStatus                                       output.o
SCardTransmit                                     output.o
SHA1                                              output.o
SHA1_Final                                        output.o
SHA1_Init                                         output.o
SHA1_Transform                                    output.o
SHA1_Update                                       output.o
SHA1_version                                      output.o
SHA224                                            output.o
SHA224_Final                                      output.o
SHA224_Init                                       output.o
SHA224_Update                                     output.o
SHA256                                            output.o
SHA256_Final                                      output.o
SHA256_Init                                       output.o
SHA256_Transform                                  output.o
SHA256_Update                                     output.o
SHA256_version                                    output.o
SHA384                                            output.o
SHA384_Final                                      output.o
SHA384_Init                                       output.o
SHA384_Update                                     output.o
SHA512                                            output.o
SHA512_Final                                      output.o
SHA512_Init                                       output.o
SHA512_Transform                                  output.o
SHA512_Update                                     output.o
SHA512_version                                    output.o
SHA_Final                                         output.o
SHA_Init                                          output.o
SHA_Transform                                     output.o
SHA_Update                                        output.o
SHA_version                                       output.o
SMIME_crlf_copy                                   output.o
SMIME_read_ASN1                                   output.o
SMIME_read_CMS                                    output.o
SMIME_text                                        output.o
SMIME_write_ASN1                                  output.o
SMIME_write_CMS                                   output.o
STACK_version                                     output.o
SXNETID_free                                      output.o
SXNETID_it                                        output.o
SXNETID_new                                       output.o
SXNET_add_id_INTEGER                              output.o
SXNET_add_id_asc                                  output.o
SXNET_add_id_ulong                                output.o
SXNET_free                                        output.o
SXNET_get_id_INTEGER                              output.o
SXNET_get_id_asc                                  output.o
SXNET_get_id_ulong                                output.o
SXNET_it                                          output.o
SXNET_new                                         output.o
Se4AddArpEntryList                                output.o
Se4AdjustTcpMss                                   output.o
Se4And                                            output.o
Se4BitToHex                                       output.o
Se4BroadcastMacAddress                            output.o
Se4BuildIcmpEchoPacket                            output.o
Se4CheckUnicastAddress                            output.o
Se4Cmp                                            output.o
Se4CmpArpEntry                                    output.o
Se4CmpArpWaitEntry                                output.o
Se4CmpIpCombineList                               output.o
Se4CombineIp                                      output.o
Se4FlushArpEntryList                              output.o
Se4FlushIpCombineList                             output.o
Se4FlushIpWaitList                                output.o
Se4Free                                           output.o
Se4FreeArpEntryList                               output.o
Se4FreeArpWaitList                                output.o
Se4FreeIpCombine                                  output.o
Se4FreeIpCombineList                              output.o
Se4FreeIpFragmentList                             output.o
Se4FreeIpHeaderInfo                               output.o
Se4FreeIpWait                                     output.o
Se4FreeIpWaitList                                 output.o
Se4GenerateSubnetMask                             output.o
Se4GenerateSubnetMask32                           output.o
Se4GetBroadcastAddress                            output.o
Se4GetHostAddress                                 output.o
Se4GetNetworkAddress                              output.o
Se4IPToStr                                        output.o
Se4IPToStr32                                      output.o
Se4IPToUINT                                       output.o
Se4Init                                           output.o
Se4InitArpEntryList                               output.o
Se4InitArpWaitList                                output.o
Se4InitIpCombineList                              output.o
Se4InitIpFragmentList                             output.o
Se4InitIpWaitList                                 output.o
Se4InsertIpCombine                                output.o
Se4InsertIpWait                                   output.o
Se4IpCheckChecksum                                output.o
Se4IpChecksum                                     output.o
Se4IsBroadcastAddress                             output.o
Se4IsInSameNetwork                                output.o
Se4IsSubnetMask                                   output.o
Se4IsZeroIP                                       output.o
Se4MacIpRelationKnown                             output.o
Se4MainProc                                       output.o
Se4Not                                            output.o
Se4Or                                             output.o
Se4ParseIpPacket                                  output.o
Se4ParseIpPacketICMPv4                            output.o
Se4ParseIpPacketUDPv4                             output.o
Se4ProcessArpWaitList                             output.o
Se4RecvArp                                        output.o
Se4RecvArpRequest                                 output.o
Se4RecvArpResponse                                output.o
Se4RecvEthPacket                                  output.o
Se4RecvIp                                         output.o
Se4RecvIpComplete                                 output.o
Se4SearchArpEntryList                             output.o
Se4SearchArpWaitList                              output.o
Se4SearchIpCombineList                            output.o
Se4SendArpDoProcess                               output.o
Se4SendArpRequest                                 output.o
Se4SendArpResponse                                output.o
Se4SendEthPacket                                  output.o
Se4SendIcmp                                       output.o
Se4SendIcmpEchoRequest                            output.o
Se4SendIcmpEchoResponse                           output.o
Se4SendIp                                         output.o
Se4SendIpFragment                                 output.o
Se4SendIpFragmentNow                              output.o
Se4SendRawIp                                      output.o
Se4SendUdp                                        output.o
Se4SendWaitingIpWait                              output.o
Se4StrToIP                                        output.o
Se4StrToIP32                                      output.o
Se4Tick                                           output.o
Se4UINTToIP                                       output.o
Se4ZeroIP                                         output.o
Se6AddGuestNode                                   output.o
Se6AddNeighborEntryList                           output.o
Se6And                                            output.o
Se6BroadcastMacAddress                            output.o
Se6BuildIcmpEchoPacket                            output.o
Se6CalcChecksum                                   output.o
Se6CheckIPItemStr                                 output.o
Se6CheckSubnetLength                              output.o
Se6CheckUnicastAddress                            output.o
Se6Cmp                                            output.o
Se6CmpIpCombineList                               output.o
Se6CmpNdpWaitEntry                                output.o
Se6CmpNeighborEntry                               output.o
Se6CombineIp                                      output.o
Se6FlushIpCombineList                             output.o
Se6FlushIpWaitList                                output.o
Se6FlushNeighborEntryList                         output.o
Se6Free                                           output.o
Se6FreeIpCombine                                  output.o
Se6FreeIpCombineList                              output.o
Se6FreeIpFragmentList                             output.o
Se6FreeIpHeaderInfo                               output.o
Se6FreeIpWait                                     output.o
Se6FreeIpWaitList                                 output.o
Se6FreeNdpWaitList                                output.o
Se6FreeNeighborEntryList                          output.o
Se6GenerateEui64Address                           output.o
Se6GenerateEui64GlobalAddress                     output.o
Se6GenerateEui64LocalAddress                      output.o
Se6GenerateMulticastMacAddress                    output.o
Se6GenerateSubnetMask                             output.o
Se6GetAllNodeMulticastAddr                        output.o
Se6GetAllRouterMulticastAddr                      output.o
Se6GetHostAddress                                 output.o
Se6GetIPAddrType                                  output.o
Se6GetPrefixAddress                               output.o
Se6GetSoliciationMulticastAddr                    output.o
Se6IPItemStrToChars                               output.o
Se6IPToStr                                        output.o
Se6Init                                           output.o
Se6InitIpCombineList                              output.o
Se6InitIpFragmentList                             output.o
Se6InitIpWaitList                                 output.o
Se6InitNdpWaitList                                output.o
Se6InitNeighborEntryList                          output.o
Se6InsertIpCombine                                output.o
Se6InsertIpWait                                   output.o
Se6IpChecksum                                     output.o
Se6IsGuestNode                                    output.o
Se6IsInSameNetwork                                output.o
Se6IsNetworkPrefixAddress                         output.o
Se6IsSubnetMask                                   output.o
Se6IsZeroIP                                       output.o
Se6LocalSubnet                                    output.o
Se6MacIpRelationKnown                             output.o
Se6MainProc                                       output.o
Se6Not                                            output.o
Se6Or                                             output.o
Se6ParseIpPacket                                  output.o
Se6ParseIpPacketICMPv6                            output.o
Se6ParseIpPacketUDPv6                             output.o
Se6ProcessNdpWaitList                             output.o
Se6RecvEthPacket                                  output.o
Se6RecvIp                                         output.o
Se6RecvIpComplete                                 output.o
Se6SearchIpCombineList                            output.o
Se6SearchNdpWaitList                              output.o
Se6SearchNeighborEntryList                        output.o
Se6SendEthPacket                                  output.o
Se6SendIcmp                                       output.o
Se6SendIcmpEchoRequest                            output.o
Se6SendIcmpEchoResponse                           output.o
Se6SendIcmpNeighborAdvertisement                  output.o
Se6SendIcmpNeighborSoliciation                    output.o
Se6SendIcmpRouterAdvertisement                    output.o
Se6SendIp                                         output.o
Se6SendIpFragment                                 output.o
Se6SendIpFragmentNow                              output.o
Se6SendNeighborSoliciation                        output.o
Se6SendNeighborSoliciationDoProcess               output.o
Se6SendRawIp                                      output.o
Se6SendUdp                                        output.o
Se6SendWaitingIpWait                              output.o
Se6StrToIP                                        output.o
Se6SubnetMaskToInt                                output.o
Se6Tick                                           output.o
Se6ZeroIP                                         output.o
SeAdd                                             output.o
SeAddBufStr                                       output.o
SeAdjustBufSize                                   output.o
SeB64CharToCode                                   output.o
SeB64CodeToChar                                   output.o
SeB64Decode                                       output.o
SeB64Encode                                       output.o
SeBSearch                                         output.o
SeBigNumToBuf                                     output.o
SeBigNumToStr                                     output.o
SeBinToBigNum                                     output.o
SeBinToStr                                        output.o
SeBinToStrEx                                      output.o
SeBioToBuf                                        output.o
SeBioToCert                                       output.o
SeBioToKey                                        output.o
SeBufToBigNum                                     output.o
SeBufToBio                                        output.o
SeBufToCert                                       output.o
SeBufToKey                                        output.o
SeBuildAndAddIPv6PacketOptionHeader               output.o
SeBuildICMPv6OptionValue                          output.o
SeBuildICMPv6Options                              output.o
SeBuildIPv6Packet                                 output.o
SeBuildIPv6PacketWithFragment                     output.o
SeCalcReplaceStrEx                                output.o
SeCertToBio                                       output.o
SeCertToBuf                                       output.o
SeCheckCert                                       output.o
SeCheckCertAndKey                                 output.o
SeCheckSignature                                  output.o
SeClearBuf                                        output.o
SeClearFifo                                       output.o
SeClone                                           output.o
SeCloneBuf                                        output.o
SeCloneCert                                       output.o
SeCloneKey                                        output.o
SeCloneList                                       output.o
SeCmp                                             output.o
SeCmpBuf                                          output.o
SeCmpEx                                           output.o
SeCompareCert                                     output.o
SeCompareStr                                      output.o
SeCopy                                            output.o
SeCopyStr                                         output.o
SeCopyToArray                                     output.o
SeDebug                                           output.o
SeDebugBin                                        output.o
SeDefaultTokenSplitChars                          output.o
SeDelete                                          output.o
SeDeleteAll                                       output.o
SeDeleteLock                                      output.o
SeDes3Decrypt                                     output.o
SeDes3Encrypt                                     output.o
SeDes3FreeKey                                     output.o
SeDes3NewKey                                      output.o
SeDes3RandKey                                     output.o
SeDesFreeKey                                      output.o
SeDesFreeKeyValue                                 output.o
SeDesNewKey                                       output.o
SeDesNewKeyValue                                  output.o
SeDesRandKey                                      output.o
SeDesRandKeyValue                                 output.o
SeDhCompute                                       output.o
SeDhFree                                          output.o
SeDhNew                                           output.o
SeDhNewGroup2                                     output.o
SeDumpBuf                                         output.o
SeEndWith                                         output.o
SeEndian16                                        output.o
SeEndian32                                        output.o
SeEndian64                                        output.o
SeError                                           output.o
SeEthAddSenderMacList                             output.o
SeEthDeleteOldSenderMacList                       output.o
SeEthFree                                         output.o
SeEthGenRandMacAddress                            output.o
SeEthGetInfo                                      output.o
SeEthGetNextRecvPacket                            output.o
SeEthIsSenderMacAddressExistsInList               output.o
SeEthNew                                          output.o
SeEthNicCallback                                  output.o
SeEthParseEthernetPacket                          output.o
SeEthSend                                         output.o
SeEthSendAdd                                      output.o
SeEthSendAll                                      output.o
SeFastSwap                                        output.o
SeFatal                                           output.o
SeFifoSize                                        output.o
SeFormat                                          output.o
SeFormatArgs                                      output.o
SeFormatEx                                        output.o
SeFree                                            output.o
SeFreeBio                                         output.o
SeFreeBuf                                         output.o
SeFreeBufWithoutBuffer                            output.o
SeFreeCert                                        output.o
SeFreeConfigEntryList                             output.o
SeFreeCrypto                                      output.o
SeFreeFifo                                        output.o
SeFreeKernel                                      output.o
SeFreeKey                                         output.o
SeFreeList                                        output.o
SeFreePKey                                        output.o
SeFreePacket                                      output.o
SeFreePacketList                                  output.o
SeFreePacketListWithoutBuffer                     output.o
SeFreeQueue                                       output.o
SeFreeStack                                       output.o
SeFreeToken                                       output.o
SeFreeX509                                        output.o
SeGetCertIssuerName                               output.o
SeGetCertMd5                                      output.o
SeGetCertSha1                                     output.o
SeGetCertSubjectName                              output.o
SeGetConfigBin                                    output.o
SeGetConfigBool                                   output.o
SeGetConfigEntry                                  output.o
SeGetConfigInt                                    output.o
SeGetConfigInt64                                  output.o
SeGetConfigStr                                    output.o
SeGetCurrentCpuId                                 output.o
SeGetKeyAndValue                                  output.o
SeGetKeyFromCert                                  output.o
SeGetNext                                         output.o
SeGetNextHeaderFromQueue                          output.o
SeGetNextInt                                      output.o
SeHashForSignBySHA1                               output.o
SeHexTo4Bit                                       output.o
SeHexToInt                                        output.o
SeHexToInt64                                      output.o
SeIkeBuild                                        output.o
SeIkeBuildCertPayload                             output.o
SeIkeBuildCertRequestPayload                      output.o
SeIkeBuildDataPayload                             output.o
SeIkeBuildDeletePayload                           output.o
SeIkeBuildIdPayload                               output.o
SeIkeBuildNoticePayload                           output.o
SeIkeBuildPayload                                 output.o
SeIkeBuildPayloadList                             output.o
SeIkeBuildProposalPayload                         output.o
SeIkeBuildSaPayload                               output.o
SeIkeBuildTransformPayload                        output.o
SeIkeBuildTransformValue                          output.o
SeIkeBuildTransformValueList                      output.o
SeIkeDecrypt                                      output.o
SeIkeEncrypt                                      output.o
SeIkeEncryptWithPadding                           output.o
SeIkeFree                                         output.o
SeIkeFreeCertPayload                              output.o
SeIkeFreeCertRequestPayload                       output.o
SeIkeFreeDataPayload                              output.o
SeIkeFreeDeletePayload                            output.o
SeIkeFreeIdPayload                                output.o
SeIkeFreeNoticePayload                            output.o
SeIkeFreePayload                                  output.o
SeIkeFreePayloadList                              output.o
SeIkeFreeProposalPayload                          output.o
SeIkeFreeSaPayload                                output.o
SeIkeFreeTransformPayload                         output.o
SeIkeFreeTransformValueList                       output.o
SeIkeGetFirstPayloadType                          output.o
SeIkeGetIPv4Address                               output.o
SeIkeGetIPv6Address                               output.o
SeIkeGetPayload                                   output.o
SeIkeGetPayloadNum                                output.o
SeIkeInitIPv4Address                              output.o
SeIkeInitIPv6Address                              output.o
SeIkeIpAddressToStr                               output.o
SeIkeIsZeroIP                                     output.o
SeIkeNew                                          output.o
SeIkeNewCertPayload                               output.o
SeIkeNewCertRequestPayload                        output.o
SeIkeNewDataPayload                               output.o
SeIkeNewDeletePayload                             output.o
SeIkeNewIdPayload                                 output.o
SeIkeNewNoticePayload                             output.o
SeIkeNewPayload                                   output.o
SeIkeNewProposalPayload                           output.o
SeIkeNewSaPayload                                 output.o
SeIkeNewTransformPayload                          output.o
SeIkeNewTransformValue                            output.o
SeIkeParse                                        output.o
SeIkeParseCertPayload                             output.o
SeIkeParseCertRequestPayload                      output.o
SeIkeParseDataPayload                             output.o
SeIkeParseDeletePayload                           output.o
SeIkeParseEx                                      output.o
SeIkeParseHeader                                  output.o
SeIkeParseIdPayload                               output.o
SeIkeParseNoticePayload                           output.o
SeIkeParsePayload                                 output.o
SeIkeParsePayloadList                             output.o
SeIkeParsePayloadListEx                           output.o
SeIkeParseProposalPayload                         output.o
SeIkeParseSaPayload                               output.o
SeIkeParseTransformPayload                        output.o
SeIkeParseTransformValueList                      output.o
SeIkePhase1CryptIdToKeySize                       output.o
SeIkePhase2CryptIdToKeySize                       output.o
SeIkeStrToPassword                                output.o
SeIkeStrToPhase1CryptId                           output.o
SeIkeStrToPhase1HashId                            output.o
SeIkeStrToPhase2CryptId                           output.o
SeIkeStrToPhase2HashId                            output.o
SeInfo                                            output.o
SeInitCrypto                                      output.o
SeInitKernel                                      output.o
SeInsert                                          output.o
SeInsertQueue                                     output.o
SeInsertQueueInt                                  output.o
SeInsertStr                                       output.o
SeIntFree                                         output.o
SeIntInit                                         output.o
SeIsAllLowerStr                                   output.o
SeIsAllUpperStr                                   output.o
SeIsBase64                                        output.o
SeIsBigEndian                                     output.o
SeIsCertSignedByCert                              output.o
SeIsCharInStr                                     output.o
SeIsEmptyStr                                      output.o
SeIsInList                                        output.o
SeIsInListStr                                     output.o
SeIsLittleEndian                                  output.o
SeIsSplitChar                                     output.o
SeIsZero                                          output.o
SeKeyToBio                                        output.o
SeKeyToBuf                                        output.o
SeLoad                                            output.o
SeLoadCert                                        output.o
SeLoadConfigEntryList                             output.o
SeLoadConfigEntryListFromBuf                      output.o
SeLoadKey                                         output.o
SeLock                                            output.o
SeLog                                             output.o
SeLogArgs                                         output.o
SeMacSha1                                         output.o
SeMacSha196                                       output.o
SeMacToStr                                        output.o
SeMakeCharArray                                   output.o
SeMalloc                                          output.o
SeMd5                                             output.o
SeMemSize                                         output.o
SeMemToBuf                                        output.o
SeNewBio                                          output.o
SeNewBuf                                          output.o
SeNewFifo                                         output.o
SeNewList                                         output.o
SeNewLock                                         output.o
SeNewQueue                                        output.o
SeNewStack                                        output.o
SeNormalizeCrlf                                   output.o
SeNullTokenList                                   output.o
SePKeyPasswordCallbackFunction                    output.o
SeParseICMPv6Options                              output.o
SeParseIPv6ExtHeader                              output.o
SeParseIPv6Packet                                 output.o
SeParsePacket                                     output.o
SeParsePacketL2                                   output.o
SeParsePacketL3ARPv4                              output.o
SeParsePacketL3IPv4                               output.o
SeParsePacketL3IPv6                               output.o
SeParseToken                                      output.o
SeParseTokenWithNullStr                           output.o
SePeekFifo                                        output.o
SePeekNext                                        output.o
SePop                                             output.o
SePush                                            output.o
SeQSort                                           output.o
SeRand                                            output.o
SeRand1                                           output.o
SeRand16                                          output.o
SeRand32                                          output.o
SeRand64                                          output.o
SeRand8                                           output.o
SeRandBuf                                         output.o
SeReAlloc                                         output.o
SeReadBuf                                         output.o
SeReadBufFromBuf                                  output.o
SeReadBufInt                                      output.o
SeReadBufInt64                                    output.o
SeReadBufStr                                      output.o
SeReadDump                                        output.o
SeReadFifo                                        output.o
SeReadNextLine                                    output.o
SeReadRemainBuf                                   output.o
SeReplaceListPointer                              output.o
SeReplaceStr                                      output.o
SeReplaceStrEx                                    output.o
SeReplaceStri                                     output.o
SeRsaGen                                          output.o
SeRsaPrivateDecrypt                               output.o
SeRsaPrivateEncrypt                               output.o
SeRsaPublicDecrypt                                output.o
SeRsaPublicEncrypt                                output.o
SeRsaPublicSize                                   output.o
SeRsaPublicToBin                                  output.o
SeRsaPublicToBuf                                  output.o
SeRsaSign                                         output.o
SeRsaSignWithPadding                              output.o
SeRsaSignWithSha1                                 output.o
SeRsaVerifyWithPadding                            output.o
SeRsaVerifyWithSha1                               output.o
SeSave                                            output.o
SeSaveCert                                        output.o
SeSaveKey                                         output.o
SeSearch                                          output.o
SeSearchStr                                       output.o
SeSearchStrEx                                     output.o
SeSearchStri                                      output.o
SeSecAddTimer                                     output.o
SeSecCalcKEYMAT                                   output.o
SeSecCalcKEYMATFull                               output.o
SeSecCalcKa                                       output.o
SeSecCalcP1Iv                                     output.o
SeSecCalcP1KeySet                                 output.o
SeSecCalcP2Iv                                     output.o
SeSecCheckIPsecSaExpires                          output.o
SeSecCheckIkeSaExpires                            output.o
SeSecCmpIkeSa                                     output.o
SeSecDeleteExpiredIPsecSa                         output.o
SeSecDeleteExpiredIkeSa                           output.o
SeSecDoInterval                                   output.o
SeSecEspRecvCallback                              output.o
SeSecForceReconnect                               output.o
SeSecFree                                         output.o
SeSecFreeIPsecSa                                  output.o
SeSecFreeIkeSa                                    output.o
SeSecFreeMain                                     output.o
SeSecFreeP1KeySet                                 output.o
SeSecFreeSaList                                   output.o
SeSecGenIPsecSASpi                                output.o
SeSecGenIkeSaInitCookie                           output.o
SeSecGenIkeSaMessageId                            output.o
SeSecGetIPsecSa                                   output.o
SeSecInit                                         output.o
SeSecInitMain                                     output.o
SeSecInitSaList                                   output.o
SeSecLifeSeconds64bit                             output.o
SeSecNewIPsecSa                                   output.o
SeSecNewIkeSa                                     output.o
SeSecNewSpi                                       output.o
SeSecProcessIkeSaMsg                              output.o
SeSecProcessIkeSaMsgInfo                          output.o
SeSecProcessIkeSaMsgPhase1                        output.o
SeSecProcessIkeSaMsgPhase2                        output.o
SeSecProcessMain                                  output.o
SeSecSearchIPsecSaBySpi                           output.o
SeSecSearchIkeSa                                  output.o
SeSecSearchIkeSaBySpi                             output.o
SeSecSendEsp                                      output.o
SeSecSendIPsecSaDeleteMsg                         output.o
SeSecSendIkeSaDeleteMsg                           output.o
SeSecSendIkeSaMsgInfo                             output.o
SeSecSendIkeSaMsgInfoSimple                       output.o
SeSecSendIkeSaMsgPhase2                           output.o
SeSecSendIkeSaMsgPhase2FinalHash                  output.o
SeSecSendUdp                                      output.o
SeSecSendVirtualIp                                output.o
SeSecSetRecvEspCallback                           output.o
SeSecSetRecvUdpCallback                           output.o
SeSecSetRecvVirtualIpCallback                     output.o
SeSecSetTimerCallback                             output.o
SeSecStartVpnConnect                              output.o
SeSecStrToAuthMethod                              output.o
SeSecTick                                         output.o
SeSecTimerCallback                                output.o
SeSecUdpRecvCallback                              output.o
SeSecVirtualIpRecvCallback                        output.o
SeSeekBuf                                         output.o
SeSetCmp                                          output.o
SeSetSortFlag                                     output.o
SeSha1                                            output.o
SeSort                                            output.o
SeStartWith                                       output.o
SeStrCat                                          output.o
SeStrCheckLen                                     output.o
SeStrCheckSize                                    output.o
SeStrCmp                                          output.o
SeStrCmpi                                         output.o
SeStrCpy                                          output.o
SeStrLen                                          output.o
SeStrLower                                        output.o
SeStrSize                                         output.o
SeStrToBin                                        output.o
SeStrToBinEx                                      output.o
SeStrToMac                                        output.o
SeStrUpper                                        output.o
SeStrnCmp                                         output.o
SeStrnCmpi                                        output.o
SeSwap                                            output.o
SeSwap16                                          output.o
SeSwap32                                          output.o
SeSwap64                                          output.o
SeSysFreeData                                     output.o
SeSysFreeLock                                     output.o
SeSysFreeTimer                                    output.o
SeSysGetCurrentCpuId                              output.o
SeSysGetPhysicalNicInfo                           output.o
SeSysGetTickCount                                 output.o
SeSysGetVirtualNicInfo                            output.o
SeSysLoadData                                     output.o
SeSysLock                                         output.o
SeSysLog                                          output.o
SeSysMemoryAlloc                                  output.o
SeSysMemoryFree                                   output.o
SeSysMemoryReAlloc                                output.o
SeSysNewLock                                      output.o
SeSysNewTimer                                     output.o
SeSysRsaSign                                      output.o
SeSysSaveData                                     output.o
SeSysSendPhysicalNic                              output.o
SeSysSendVirtualNic                               output.o
SeSysSetPhysicalNicRecvCallback                   output.o
SeSysSetTimer                                     output.o
SeSysSetVirtualNicRecvCallback                    output.o
SeSysUnlock                                       output.o
SeTick                                            output.o
SeTick64                                          output.o
SeTick64Internal                                  output.o
SeTimerAdjust                                     output.o
SeTimerCallback                                   output.o
SeTimerEntryCompare                               output.o
SeTimerFree                                       output.o
SeTimerNew                                        output.o
SeTimerSet                                        output.o
SeToArray                                         output.o
SeToHex                                           output.o
SeToHex64                                         output.o
SeToInt                                           output.o
SeToInt64                                         output.o
SeToLower                                         output.o
SeToStr                                           output.o
SeToStr3                                          output.o
SeToStr64                                         output.o
SeToUpper                                         output.o
SeTrim                                            output.o
SeTrimCopy                                        output.o
SeTrimCrlf                                        output.o
SeTrimLeft                                        output.o
SeTrimRight                                       output.o
SeUniqueToken                                     output.o
SeUnlock                                          output.o
SeVpn4ClientAddTimer                              output.o
SeVpn4ClientGetTick                               output.o
SeVpn4ClientSendEsp                               output.o
SeVpn4ClientSendUdp                               output.o
SeVpn4ClientSendVirtualIp                         output.o
SeVpn4ClientSetRecvEspCallback                    output.o
SeVpn4ClientSetRecvUdpCallback                    output.o
SeVpn4ClientSetRecvVirtualIpCallback              output.o
SeVpn4ClientSetTimerCallback                      output.o
SeVpn4DhcpBuildDhcpOptionList                     output.o
SeVpn4DhcpFreeOptionList                          output.o
SeVpn4DhcpOptionsToBuf                            output.o
SeVpn4DhcpParseOptionList                         output.o
SeVpn4DhcpParseOptionListMain                     output.o
SeVpn4DhcpSearchOption                            output.o
SeVpn4DhcpSendResponse                            output.o
SeVpn4DhcpServer                                  output.o
SeVpn4DoInterval                                  output.o
SeVpn4Free                                        output.o
SeVpn4FreeIPsec                                   output.o
SeVpn4IPsecInputFromPhysical                      output.o
SeVpn4IPsecInputFromVirtual                       output.o
SeVpn4IPsecMainProc                               output.o
SeVpn4IPsecSendPing                               output.o
SeVpn4Init                                        output.o
SeVpn4InitIPsec                                   output.o
SeVpn4InitSecConfig                               output.o
SeVpn4MainProc                                    output.o
SeVpn4NewDhcpOption                               output.o
SeVpn4RecvPacketPhysical                          output.o
SeVpn4RecvPacketVirtual                           output.o
SeVpn4SetTimer                                    output.o
SeVpn4Tick                                        output.o
SeVpn6ClientAddTimer                              output.o
SeVpn6ClientGetTick                               output.o
SeVpn6ClientSendEsp                               output.o
SeVpn6ClientSendUdp                               output.o
SeVpn6ClientSendVirtualIp                         output.o
SeVpn6ClientSetRecvEspCallback                    output.o
SeVpn6ClientSetRecvUdpCallback                    output.o
SeVpn6ClientSetRecvVirtualIpCallback              output.o
SeVpn6ClientSetTimerCallback                      output.o
SeVpn6DoInterval                                  output.o
SeVpn6Free                                        output.o
SeVpn6FreeIPsec                                   output.o
SeVpn6IPsecInputFromPhysical                      output.o
SeVpn6IPsecInputFromVirtual                       output.o
SeVpn6IPsecMainProc                               output.o
SeVpn6IPsecSendPing                               output.o
SeVpn6Init                                        output.o
SeVpn6InitIPsec                                   output.o
SeVpn6InitSecConfig                               output.o
SeVpn6MainProc                                    output.o
SeVpn6RecvPacketPhysical                          output.o
SeVpn6RecvPacketVirtual                           output.o
SeVpn6SetTimer                                    output.o
SeVpn6Tick                                        output.o
SeVpn6UpdateGuestOsIpAddress                      output.o
SeVpnAddTimer                                     output.o
SeVpnDoInterval                                   output.o
SeVpnEthRecvCallback                              output.o
SeVpnFree                                         output.o
SeVpnFreeConfig                                   output.o
SeVpnFreeIpStack                                  output.o
SeVpnInit                                         output.o
SeVpnInitIpStack                                  output.o
SeVpnLoadConfig                                   output.o
SeVpnMainFree                                     output.o
SeVpnMainHandler                                  output.o
SeVpnMainInit                                     output.o
SeVpnMainProcRecvEtherPacket                      output.o
SeVpnMainProcess                                  output.o
SeVpnRecvEtherPacket                              output.o
SeVpnRecvIpV4PacketCallback                       output.o
SeVpnRecvIpV6PacketCallback                       output.o
SeVpnSendEtherPacket                              output.o
SeVpnStatusChanged                                output.o
SeVpnTick                                         output.o
SeVpnTimerCallback                                output.o
SeWarning                                         output.o
SeWriteBuf                                        output.o
SeWriteBufBuf                                     output.o
SeWriteBufInt                                     output.o
SeWriteBufInt64                                   output.o
SeWriteBufLine                                    output.o
SeWriteBufStr                                     output.o
SeWriteFifo                                       output.o
SeX509ToCert                                      output.o
SeZero                                            output.o
SeZeroMalloc                                      output.o
SelectFileDF                                      output.o
SelectFileEF                                      output.o
SetATR                                            output.o
SetElem                                           output.o
SetLength                                         output.o
StIsdigit                                         output.o
StIsspace                                         output.o
T0XfrBlockCHAR                                    output.o
T0XfrBlockTPDU                                    output.o
T1NegociateIFSD                                   output.o
T1XfrBlockExtendedAPDU                            output.o
T1XfrBlockTPDU                                    output.o
TransHex2Tex                                      output.o
TransTex2Hex                                      output.o
TransmitCommand                                   output.o
TransmitPPS                                       output.o
UI_OpenSSL                                        output.o
UI_add_error_string                               output.o
UI_add_info_string                                output.o
UI_add_input_boolean                              output.o
UI_add_input_string                               output.o
UI_add_user_data                                  output.o
UI_add_verify_string                              output.o
UI_construct_prompt                               output.o
UI_create_method                                  output.o
UI_ctrl                                           output.o
UI_destroy_method                                 output.o
UI_dup_error_string                               output.o
UI_dup_info_string                                output.o
UI_dup_input_boolean                              output.o
UI_dup_input_string                               output.o
UI_dup_verify_string                              output.o
UI_free                                           output.o
UI_get0_action_string                             output.o
UI_get0_output_string                             output.o
UI_get0_result                                    output.o
UI_get0_result_string                             output.o
UI_get0_test_string                               output.o
UI_get0_user_data                                 output.o
UI_get_default_method                             output.o
UI_get_ex_data                                    output.o
UI_get_ex_new_index                               output.o
UI_get_input_flags                                output.o
UI_get_method                                     output.o
UI_get_result_maxsize                             output.o
UI_get_result_minsize                             output.o
UI_get_string_type                                output.o
UI_method_get_closer                              output.o
UI_method_get_flusher                             output.o
UI_method_get_opener                              output.o
UI_method_get_prompt_constructor                  output.o
UI_method_get_reader                              output.o
UI_method_get_writer                              output.o
UI_method_set_closer                              output.o
UI_method_set_flusher                             output.o
UI_method_set_opener                              output.o
UI_method_set_prompt_constructor                  output.o
UI_method_set_reader                              output.o
UI_method_set_writer                              output.o
UI_new                                            output.o
UI_new_method                                     output.o
UI_process                                        output.o
UI_set_default_method                             output.o
UI_set_ex_data                                    output.o
UI_set_method                                     output.o
UI_set_result                                     output.o
USERNOTICE_free                                   output.o
USERNOTICE_it                                     output.o
USERNOTICE_new                                    output.o
UTF8_getc                                         output.o
UTF8_putc                                         output.o
UpdateBinary                                      output.o
VPN_IPsec_Client_Start                            output.o
VPN_IPsec_Client_Stop                             output.o
VPN_IPsec_Free                                    output.o
VPN_IPsec_Init                                    output.o
Verify                                            output.o
WHIRLPOOL                                         output.o
WHIRLPOOL_BitUpdate                               output.o
WHIRLPOOL_Final                                   output.o
WHIRLPOOL_Init                                    output.o
WHIRLPOOL_Update                                  output.o
WriteUSB                                          output.o
X509V3_EXT_CRL_add_conf                           output.o
X509V3_EXT_CRL_add_nconf                          output.o
X509V3_EXT_REQ_add_conf                           output.o
X509V3_EXT_REQ_add_nconf                          output.o
X509V3_EXT_add                                    output.o
X509V3_EXT_add_alias                              output.o
X509V3_EXT_add_conf                               output.o
X509V3_EXT_add_list                               output.o
X509V3_EXT_add_nconf                              output.o
X509V3_EXT_add_nconf_sk                           output.o
X509V3_EXT_cleanup                                output.o
X509V3_EXT_conf                                   output.o
X509V3_EXT_conf_nid                               output.o
X509V3_EXT_d2i                                    output.o
X509V3_EXT_get                                    output.o
X509V3_EXT_get_nid                                output.o
X509V3_EXT_i2d                                    output.o
X509V3_EXT_nconf                                  output.o
X509V3_EXT_nconf_nid                              output.o
X509V3_EXT_print                                  output.o
X509V3_EXT_val_prn                                output.o
X509V3_NAME_from_section                          output.o
X509V3_add1_i2d                                   output.o
X509V3_add_standard_extensions                    output.o
X509V3_add_value                                  output.o
X509V3_add_value_bool                             output.o
X509V3_add_value_bool_nf                          output.o
X509V3_add_value_int                              output.o
X509V3_add_value_uchar                            output.o
X509V3_conf_free                                  output.o
X509V3_extensions_print                           output.o
X509V3_get_d2i                                    output.o
X509V3_get_section                                output.o
X509V3_get_string                                 output.o
X509V3_get_value_bool                             output.o
X509V3_get_value_int                              output.o
X509V3_parse_list                                 output.o
X509V3_section_free                               output.o
X509V3_set_conf_lhash                             output.o
X509V3_set_ctx                                    output.o
X509V3_set_nconf                                  output.o
X509V3_string_free                                output.o
X509_ALGORS_it                                    output.o
X509_ALGOR_dup                                    output.o
X509_ALGOR_free                                   output.o
X509_ALGOR_get0                                   output.o
X509_ALGOR_it                                     output.o
X509_ALGOR_new                                    output.o
X509_ALGOR_set0                                   output.o
X509_ATTRIBUTE_SET_it                             output.o
X509_ATTRIBUTE_count                              output.o
X509_ATTRIBUTE_create                             output.o
X509_ATTRIBUTE_create_by_NID                      output.o
X509_ATTRIBUTE_create_by_OBJ                      output.o
X509_ATTRIBUTE_create_by_txt                      output.o
X509_ATTRIBUTE_dup                                output.o
X509_ATTRIBUTE_free                               output.o
X509_ATTRIBUTE_get0_data                          output.o
X509_ATTRIBUTE_get0_object                        output.o
X509_ATTRIBUTE_get0_type                          output.o
X509_ATTRIBUTE_it                                 output.o
X509_ATTRIBUTE_new                                output.o
X509_ATTRIBUTE_set1_data                          output.o
X509_ATTRIBUTE_set1_object                        output.o
X509_CERT_AUX_free                                output.o
X509_CERT_AUX_it                                  output.o
X509_CERT_AUX_new                                 output.o
X509_CERT_AUX_print                               output.o
X509_CERT_PAIR_free                               output.o
X509_CERT_PAIR_it                                 output.o
X509_CERT_PAIR_new                                output.o
X509_CINF_free                                    output.o
X509_CINF_it                                      output.o
X509_CINF_new                                     output.o
X509_CRL_INFO_free                                output.o
X509_CRL_INFO_it                                  output.o
X509_CRL_INFO_new                                 output.o
X509_CRL_METHOD_free                              output.o
X509_CRL_METHOD_new                               output.o
X509_CRL_add0_revoked                             output.o
X509_CRL_add1_ext_i2d                             output.o
X509_CRL_add_ext                                  output.o
X509_CRL_cmp                                      output.o
X509_CRL_delete_ext                               output.o
X509_CRL_digest                                   output.o
X509_CRL_dup                                      output.o
X509_CRL_free                                     output.o
X509_CRL_get0_by_cert                             output.o
X509_CRL_get0_by_serial                           output.o
X509_CRL_get_ext                                  output.o
X509_CRL_get_ext_by_NID                           output.o
X509_CRL_get_ext_by_OBJ                           output.o
X509_CRL_get_ext_by_critical                      output.o
X509_CRL_get_ext_count                            output.o
X509_CRL_get_ext_d2i                              output.o
X509_CRL_get_meth_data                            output.o
X509_CRL_it                                       output.o
X509_CRL_match                                    output.o
X509_CRL_new                                      output.o
X509_CRL_set_default_method                       output.o
X509_CRL_set_meth_data                            output.o
X509_CRL_sign                                     output.o
X509_CRL_verify                                   output.o
X509_EXTENSIONS_it                                output.o
X509_EXTENSION_create_by_NID                      output.o
X509_EXTENSION_create_by_OBJ                      output.o
X509_EXTENSION_dup                                output.o
X509_EXTENSION_free                               output.o
X509_EXTENSION_get_critical                       output.o
X509_EXTENSION_get_data                           output.o
X509_EXTENSION_get_object                         output.o
X509_EXTENSION_it                                 output.o
X509_EXTENSION_new                                output.o
X509_EXTENSION_set_critical                       output.o
X509_EXTENSION_set_data                           output.o
X509_EXTENSION_set_object                         output.o
X509_LOOKUP_by_alias                              output.o
X509_LOOKUP_by_fingerprint                        output.o
X509_LOOKUP_by_issuer_serial                      output.o
X509_LOOKUP_by_subject                            output.o
X509_LOOKUP_ctrl                                  output.o
X509_LOOKUP_free                                  output.o
X509_LOOKUP_init                                  output.o
X509_LOOKUP_new                                   output.o
X509_LOOKUP_shutdown                              output.o
X509_NAME_ENTRIES_it                              output.o
X509_NAME_ENTRY_create_by_NID                     output.o
X509_NAME_ENTRY_create_by_OBJ                     output.o
X509_NAME_ENTRY_create_by_txt                     output.o
X509_NAME_ENTRY_dup                               output.o
X509_NAME_ENTRY_free                              output.o
X509_NAME_ENTRY_get_data                          output.o
X509_NAME_ENTRY_get_object                        output.o
X509_NAME_ENTRY_it                                output.o
X509_NAME_ENTRY_new                               output.o
X509_NAME_ENTRY_set_data                          output.o
X509_NAME_ENTRY_set_object                        output.o
X509_NAME_INTERNAL_it                             output.o
X509_NAME_add_entry                               output.o
X509_NAME_add_entry_by_NID                        output.o
X509_NAME_add_entry_by_OBJ                        output.o
X509_NAME_add_entry_by_txt                        output.o
X509_NAME_cmp                                     output.o
X509_NAME_delete_entry                            output.o
X509_NAME_digest                                  output.o
X509_NAME_dup                                     output.o
X509_NAME_entry_count                             output.o
X509_NAME_free                                    output.o
X509_NAME_get_entry                               output.o
X509_NAME_get_index_by_NID                        output.o
X509_NAME_get_index_by_OBJ                        output.o
X509_NAME_get_text_by_NID                         output.o
X509_NAME_get_text_by_OBJ                         output.o
X509_NAME_hash                                    output.o
X509_NAME_hash_old                                output.o
X509_NAME_it                                      output.o
X509_NAME_new                                     output.o
X509_NAME_oneline                                 output.o
X509_NAME_print                                   output.o
X509_NAME_print_ex                                output.o
X509_NAME_set                                     output.o
X509_OBJECT_free_contents                         output.o
X509_OBJECT_idx_by_subject                        output.o
X509_OBJECT_retrieve_by_subject                   output.o
X509_OBJECT_retrieve_match                        output.o
X509_OBJECT_up_ref_count                          output.o
X509_POLICY_NODE_print                            output.o
X509_PUBKEY_free                                  output.o
X509_PUBKEY_get                                   output.o
X509_PUBKEY_get0_param                            output.o
X509_PUBKEY_it                                    output.o
X509_PUBKEY_new                                   output.o
X509_PUBKEY_set                                   output.o
X509_PUBKEY_set0_param                            output.o
X509_PURPOSE_add                                  output.o
X509_PURPOSE_cleanup                              output.o
X509_PURPOSE_get0                                 output.o
X509_PURPOSE_get0_name                            output.o
X509_PURPOSE_get0_sname                           output.o
X509_PURPOSE_get_by_id                            output.o
X509_PURPOSE_get_by_sname                         output.o
X509_PURPOSE_get_count                            output.o
X509_PURPOSE_get_id                               output.o
X509_PURPOSE_get_trust                            output.o
X509_PURPOSE_set                                  output.o
X509_REQ_INFO_free                                output.o
X509_REQ_INFO_it                                  output.o
X509_REQ_INFO_new                                 output.o
X509_REQ_add1_attr                                output.o
X509_REQ_add1_attr_by_NID                         output.o
X509_REQ_add1_attr_by_OBJ                         output.o
X509_REQ_add1_attr_by_txt                         output.o
X509_REQ_add_extensions                           output.o
X509_REQ_add_extensions_nid                       output.o
X509_REQ_check_private_key                        output.o
X509_REQ_delete_attr                              output.o
X509_REQ_digest                                   output.o
X509_REQ_dup                                      output.o
X509_REQ_extension_nid                            output.o
X509_REQ_free                                     output.o
X509_REQ_get1_email                               output.o
X509_REQ_get_attr                                 output.o
X509_REQ_get_attr_by_NID                          output.o
X509_REQ_get_attr_by_OBJ                          output.o
X509_REQ_get_attr_count                           output.o
X509_REQ_get_extension_nids                       output.o
X509_REQ_get_extensions                           output.o
X509_REQ_get_pubkey                               output.o
X509_REQ_it                                       output.o
X509_REQ_new                                      output.o
X509_REQ_set_extension_nids                       output.o
X509_REQ_set_pubkey                               output.o
X509_REQ_set_subject_name                         output.o
X509_REQ_set_version                              output.o
X509_REQ_sign                                     output.o
X509_REQ_verify                                   output.o
X509_REVOKED_add1_ext_i2d                         output.o
X509_REVOKED_add_ext                              output.o
X509_REVOKED_delete_ext                           output.o
X509_REVOKED_free                                 output.o
X509_REVOKED_get_ext                              output.o
X509_REVOKED_get_ext_by_NID                       output.o
X509_REVOKED_get_ext_by_OBJ                       output.o
X509_REVOKED_get_ext_by_critical                  output.o
X509_REVOKED_get_ext_count                        output.o
X509_REVOKED_get_ext_d2i                          output.o
X509_REVOKED_it                                   output.o
X509_REVOKED_new                                  output.o
X509_SIG_free                                     output.o
X509_SIG_it                                       output.o
X509_SIG_new                                      output.o
X509_STORE_CTX_cleanup                            output.o
X509_STORE_CTX_free                               output.o
X509_STORE_CTX_get0_current_crl                   output.o
X509_STORE_CTX_get0_current_issuer                output.o
X509_STORE_CTX_get0_param                         output.o
X509_STORE_CTX_get0_parent_ctx                    output.o
X509_STORE_CTX_get0_policy_tree                   output.o
X509_STORE_CTX_get1_chain                         output.o
X509_STORE_CTX_get1_issuer                        output.o
X509_STORE_CTX_get_chain                          output.o
X509_STORE_CTX_get_current_cert                   output.o
X509_STORE_CTX_get_error                          output.o
X509_STORE_CTX_get_error_depth                    output.o
X509_STORE_CTX_get_ex_data                        output.o
X509_STORE_CTX_get_ex_new_index                   output.o
X509_STORE_CTX_get_explicit_policy                output.o
X509_STORE_CTX_init                               output.o
X509_STORE_CTX_new                                output.o
X509_STORE_CTX_purpose_inherit                    output.o
X509_STORE_CTX_set0_crls                          output.o
X509_STORE_CTX_set0_param                         output.o
X509_STORE_CTX_set_cert                           output.o
X509_STORE_CTX_set_chain                          output.o
X509_STORE_CTX_set_default                        output.o
X509_STORE_CTX_set_depth                          output.o
X509_STORE_CTX_set_error                          output.o
X509_STORE_CTX_set_ex_data                        output.o
X509_STORE_CTX_set_flags                          output.o
X509_STORE_CTX_set_purpose                        output.o
X509_STORE_CTX_set_time                           output.o
X509_STORE_CTX_set_trust                          output.o
X509_STORE_CTX_set_verify_cb                      output.o
X509_STORE_CTX_trusted_stack                      output.o
X509_STORE_add_cert                               output.o
X509_STORE_add_crl                                output.o
X509_STORE_add_lookup                             output.o
X509_STORE_free                                   output.o
X509_STORE_get1_certs                             output.o
X509_STORE_get1_crls                              output.o
X509_STORE_get_by_subject                         output.o
X509_STORE_new                                    output.o
X509_STORE_set1_param                             output.o
X509_STORE_set_depth                              output.o
X509_STORE_set_flags                              output.o
X509_STORE_set_purpose                            output.o
X509_STORE_set_trust                              output.o
X509_STORE_set_verify_cb                          output.o
X509_TRUST_add                                    output.o
X509_TRUST_cleanup                                output.o
X509_TRUST_get0                                   output.o
X509_TRUST_get0_name                              output.o
X509_TRUST_get_by_id                              output.o
X509_TRUST_get_count                              output.o
X509_TRUST_get_flags                              output.o
X509_TRUST_get_trust                              output.o
X509_TRUST_set                                    output.o
X509_TRUST_set_default                            output.o
X509_VAL_free                                     output.o
X509_VAL_it                                       output.o
X509_VAL_new                                      output.o
X509_VERIFY_PARAM_add0_policy                     output.o
X509_VERIFY_PARAM_add0_table                      output.o
X509_VERIFY_PARAM_clear_flags                     output.o
X509_VERIFY_PARAM_free                            output.o
X509_VERIFY_PARAM_get_depth                       output.o
X509_VERIFY_PARAM_get_flags                       output.o
X509_VERIFY_PARAM_inherit                         output.o
X509_VERIFY_PARAM_lookup                          output.o
X509_VERIFY_PARAM_new                             output.o
X509_VERIFY_PARAM_set1                            output.o
X509_VERIFY_PARAM_set1_name                       output.o
X509_VERIFY_PARAM_set1_policies                   output.o
X509_VERIFY_PARAM_set_depth                       output.o
X509_VERIFY_PARAM_set_flags                       output.o
X509_VERIFY_PARAM_set_purpose                     output.o
X509_VERIFY_PARAM_set_time                        output.o
X509_VERIFY_PARAM_set_trust                       output.o
X509_VERIFY_PARAM_table_cleanup                   output.o
X509_add1_ext_i2d                                 output.o
X509_add1_reject_object                           output.o
X509_add1_trust_object                            output.o
X509_add_ext                                      output.o
X509_alias_get0                                   output.o
X509_alias_set1                                   output.o
X509_check_akid                                   output.o
X509_check_ca                                     output.o
X509_check_issued                                 output.o
X509_check_private_key                            output.o
X509_check_purpose                                output.o
X509_check_trust                                  output.o
X509_cmp                                          output.o
X509_cmp_current_time                             output.o
X509_cmp_time                                     output.o
X509_delete_ext                                   output.o
X509_digest                                       output.o
X509_dup                                          output.o
X509_email_free                                   output.o
X509_find_by_issuer_and_serial                    output.o
X509_find_by_subject                              output.o
X509_free                                         output.o
X509_get0_pubkey_bitstr                           output.o
X509_get1_email                                   output.o
X509_get1_ocsp                                    output.o
X509_get_default_cert_area                        output.o
X509_get_default_cert_dir                         output.o
X509_get_default_cert_dir_env                     output.o
X509_get_default_cert_file                        output.o
X509_get_default_cert_file_env                    output.o
X509_get_default_private_dir                      output.o
X509_get_ex_data                                  output.o
X509_get_ex_new_index                             output.o
X509_get_ext                                      output.o
X509_get_ext_by_NID                               output.o
X509_get_ext_by_OBJ                               output.o
X509_get_ext_by_critical                          output.o
X509_get_ext_count                                output.o
X509_get_ext_d2i                                  output.o
X509_get_issuer_name                              output.o
X509_get_pubkey                                   output.o
X509_get_pubkey_parameters                        output.o
X509_get_serialNumber                             output.o
X509_get_subject_name                             output.o
X509_gmtime_adj                                   output.o
X509_issuer_and_serial_cmp                        output.o
X509_issuer_and_serial_hash                       output.o
X509_issuer_name_cmp                              output.o
X509_issuer_name_hash                             output.o
X509_issuer_name_hash_old                         output.o
X509_it                                           output.o
X509_keyid_get0                                   output.o
X509_keyid_set1                                   output.o
X509_new                                          output.o
X509_ocspid_print                                 output.o
X509_policy_check                                 output.o
X509_policy_level_get0_node                       output.o
X509_policy_level_node_count                      output.o
X509_policy_node_get0_parent                      output.o
X509_policy_node_get0_policy                      output.o
X509_policy_node_get0_qualifiers                  output.o
X509_policy_tree_free                             output.o
X509_policy_tree_get0_level                       output.o
X509_policy_tree_get0_policies                    output.o
X509_policy_tree_get0_user_policies               output.o
X509_policy_tree_level_count                      output.o
X509_print                                        output.o
X509_print_ex                                     output.o
X509_pubkey_digest                                output.o
X509_reject_clear                                 output.o
X509_set_ex_data                                  output.o
X509_sign                                         output.o
X509_signature_print                              output.o
X509_subject_name_cmp                             output.o
X509_subject_name_hash                            output.o
X509_subject_name_hash_old                        output.o
X509_supported_extension                          output.o
X509_time_adj                                     output.o
X509_time_adj_ex                                  output.o
X509_to_X509_REQ                                  output.o
X509_trust_clear                                  output.o
X509_verify                                       output.o
X509_verify_cert                                  output.o
X509_version                                      output.o
X509at_add1_attr                                  output.o
X509at_add1_attr_by_NID                           output.o
X509at_add1_attr_by_OBJ                           output.o
X509at_add1_attr_by_txt                           output.o
X509at_delete_attr                                output.o
X509at_get0_data_by_OBJ                           output.o
X509at_get_attr                                   output.o
X509at_get_attr_by_NID                            output.o
X509at_get_attr_by_OBJ                            output.o
X509at_get_attr_count                             output.o
X509v3_add_ext                                    output.o
X509v3_delete_ext                                 output.o
X509v3_get_ext                                    output.o
X509v3_get_ext_by_NID                             output.o
X509v3_get_ext_by_OBJ                             output.o
X509v3_get_ext_by_critical                        output.o
X509v3_get_ext_count                              output.o
X9_62_CHARACTERISTIC_TWO_free                     output.o
X9_62_CHARACTERISTIC_TWO_it                       output.o
X9_62_CHARACTERISTIC_TWO_new                      output.o
X9_62_CURVE_it                                    output.o
X9_62_FIELDID_it                                  output.o
X9_62_PENTANOMIAL_free                            output.o
X9_62_PENTANOMIAL_it                              output.o
X9_62_PENTANOMIAL_new                             output.o
ZLONG_it                                          output.o
_CONF_add_string                                  output.o
_CONF_free_data                                   output.o
_CONF_get_section                                 output.o
_CONF_get_section_values                          output.o
_CONF_get_string                                  output.o
_CONF_new_data                                    output.o
_CONF_new_section                                 output.o
__initfunc_acpi_init_global                       output.o
__initfunc_acpi_init_paral                        output.o
__initfunc_ata_init                               output.o
__initfunc_beep_init_msg                          output.o
__initfunc_cache_init_pass                        output.o
__initfunc_cache_init_pcpu                        output.o
__initfunc_cache_init_vcpu                        output.o
__initfunc_callrealmode_init_global               output.o
__initfunc_callrealmode_panic                     output.o
__initfunc_copy_minios                            output.o
__initfunc_core_init                              output.o
__initfunc_cpu_mmu_spt_init_global                output.o
__initfunc_cpu_mmu_spt_init_pcpu                  output.o
__initfunc_cpuid_init                             output.o
__initfunc_cpuid_pass_init                        output.o
__initfunc_create_pass_vm                         output.o
__initfunc_debug_ata_init                         output.o
__initfunc_debug_on_shift_key                     output.o
__initfunc_ehci_init                              output.o
__initfunc_end                                    output.o
__initfunc_exint_pass_init                        output.o
__initfunc_get_shiftflags                         output.o
__initfunc_gmm_pass_init                          output.o
__initfunc_idman_init                             output.o
__initfunc_idman_init_global                      output.o
__initfunc_idman_kernel_init                      output.o
__initfunc_ieee1394_init                          output.o
__initfunc_ieee1394_init_boot                     output.o
__initfunc_install_int0x15_hook                   output.o
__initfunc_int_init_global                        output.o
__initfunc_int_wakeup                             output.o
__initfunc_io_io_init                             output.o
__initfunc_io_iopass_init                         output.o
__initfunc_iommu_setup                            output.o
__initfunc_keyboard_init_msg                      output.o
__initfunc_localapic_init                         output.o
__initfunc_mm_init_global                         output.o
__initfunc_mmio_debug                             output.o
__initfunc_mmio_init                              output.o
__initfunc_msg_init_global                        output.o
__initfunc_msr_init                               output.o
__initfunc_msr_pass_init                          output.o
__initfunc_nmi_pass_init                          output.o
__initfunc_nmi_pass_init_pcpu                     output.o
__initfunc_panic_init_global                      output.o
__initfunc_panic_init_global3                     output.o
__initfunc_panic_init_msg                         output.o
__initfunc_panic_init_pcpu                        output.o
__initfunc_pci_init                               output.o
__initfunc_print_boot_msg                         output.o
__initfunc_printf_init_global                     output.o
__initfunc_pro100_init                            output.o
__initfunc_process_init_ap                        output.o
__initfunc_process_init_global                    output.o
__initfunc_process_wakeup                         output.o
__initfunc_random_init_config0                    output.o
__initfunc_random_init_global                     output.o
__initfunc_reboot_init_msg                        output.o
__initfunc_resume_pro1000                         output.o
__initfunc_segment_init_global                    output.o
__initfunc_serial_init_msg                        output.o
__initfunc_setiohooks                             output.o
__initfunc_sleep_init_global                      output.o
__initfunc_sleep_init_msg                         output.o
__initfunc_start                                  output.o
__initfunc_storage_io_initfunc                    output.o
__initfunc_storage_kernel_init                    output.o
__initfunc_suspend_pro1000                        output.o
__initfunc_svm_panic                              output.o
__initfunc_sx_init_pass_init                      output.o
__initfunc_thread_init_global                     output.o
__initfunc_thread_init_pcpu                       output.o
__initfunc_time_init_global                       output.o
__initfunc_time_init_global_status                output.o
__initfunc_time_init_msg                          output.o
__initfunc_time_init_pcpu                         output.o
__initfunc_timer_init_global                      output.o
__initfunc_tty_init_global                        output.o
__initfunc_tty_init_global2                       output.o
__initfunc_tty_init_msg                           output.o
__initfunc_uhci_init                              output.o
__initfunc_unmap_user_area                        output.o
__initfunc_vcpu_init_global                       output.o
__initfunc_vga_init                               output.o
__initfunc_virtualization_init_pcpu               output.o
__initfunc_vmmcall_boot_init                      output.o
__initfunc_vmmcall_dbgsh_init                     output.o
__initfunc_vmmcall_dbgsh_init_global              output.o
__initfunc_vmmcall_dbgsh_init_pcpu                output.o
__initfunc_vmmcall_iccard_init                    output.o
__initfunc_vmmcall_init                           output.o
__initfunc_vmmcall_log_init                       output.o
__initfunc_vmmcall_status_init                    output.o
__initfunc_vmmcall_status_init_global             output.o
__initfunc_vpn_kernel_init                        output.o
__initfunc_vpn_pro1000_init                       output.o
__initfunc_vramwrite_init_bsp                     output.o
__initfunc_vramwrite_init_msg                     output.o
__initfunc_vt_panic                               output.o
__initfunc_vt_register_status_callback            output.o
__initfunc_xsetbv_init                            output.o
__initfunc_xsetbv_pass_init                       output.o
__process_builtin                                 output.o
__process_builtin_end                             output.o
_dprintf                                          output.o
_dprintft                                         output.o
_shadow_DES_check_key                             output.o
a2d_ASN1_OBJECT                                   output.o
a2i_ASN1_INTEGER                                  output.o
a2i_ASN1_STRING                                   output.o
a2i_GENERAL_NAME                                  output.o
a2i_IPADDRESS                                     output.o
a2i_IPADDRESS_NC                                  output.o
a2i_ipadd                                         output.o
acpi_dsdt_parse                                   output.o
acpi_dsdt_system_state                            output.o
acpi_iohook                                       output.o
acpi_poweroff                                     output.o
acpi_reset                                        output.o
acpi_smi_hook                                     output.o
add_remap                                         output.o
aes_xts_init                                      output.o
ahci_config_read                                  output.o
ahci_config_write                                 output.o
ahci_new                                          output.o
alloc                                             output.o
alloc2                                            output.o
alloc_handler_descriptor                          output.o
alloc_page                                        output.o
alloc_pages                                       output.o
alloc_realmodemem                                 output.o
allocateNewAppID                                  output.o
allocateNewApplicationIdentifiers                 output.o
allocateNewVMID                                   output.o
allocateNewZeroPage                               output.o
ap_start_addr                                     output.o
apic_available                                    output.o
apinit_lock                                       output.o
apinit_procs                                      output.o
apinitproc0                                       output.o
app_pkey_methods                                  output.o
asm_vmlaunch_regs_32                              output.o
asm_vmlaunch_regs_64                              output.o
asm_vmresume_regs_32                              output.o
asm_vmresume_regs_64                              output.o
asm_vmrun_regs_32                                 output.o
asm_vmrun_regs_64                                 output.o
asn1_Finish                                       output.o
asn1_GetSequence                                  output.o
asn1_add_error                                    output.o
asn1_const_Finish                                 output.o
asn1_do_adb                                       output.o
asn1_do_lock                                      output.o
asn1_enc_free                                     output.o
asn1_enc_init                                     output.o
asn1_enc_restore                                  output.o
asn1_enc_save                                     output.o
asn1_ex_c2i                                       output.o
asn1_ex_i2c                                       output.o
asn1_get_choice_selector                          output.o
asn1_get_field_ptr                                output.o
asn1_set_choice_selector                          output.o
asn1_template_print_ctx                           output.o
assertion_failed                                  output.o
ata_ahci_mode                                     output.o
ata_bm_handle_command                             output.o
ata_bm_handle_device_specific                     output.o
ata_bm_handle_prd_table                           output.o
ata_bm_handle_status                              output.o
ata_bm_handler                                    output.o
ata_bm_handler_table                              output.o
ata_channel_lock                                  output.o
ata_channel_unlock                                output.o
ata_cmdblk_handler                                output.o
ata_cmdblk_handler_table                          output.o
ata_config_read                                   output.o
ata_config_write                                  output.o
ata_ctlblk_handler                                output.o
ata_ctlblk_handler_table                          output.o
ata_get_cmd_type                                  output.o
ata_handle_queued_status                          output.o
ata_init_io_handler                               output.o
ata_init_vendor                                   output.o
ata_set_bm_handler                                output.o
ata_set_cmdblk_handler                            output.o
ata_set_ctlblk_handler                            output.o
atapi_handle_cmd_packet                           output.o
atapi_handle_config_data                          output.o
atapi_handle_interrupt_reason                     output.o
atapi_handle_packet_data                          output.o
atapi_handle_pio_identify_packet                  output.o
auto_reboot                                       output.o
backtrace                                         output.o
beep_off                                          output.o
beep_on                                           output.o
beep_set_freq                                     output.o
bn_add_part_words                                 output.o
bn_add_words                                      output.o
bn_cmp_part_words                                 output.o
bn_cmp_words                                      output.o
bn_div_words                                      output.o
bn_dup_expand                                     output.o
bn_expand2                                        output.o
bn_mul_add_words                                  output.o
bn_mul_comba4                                     output.o
bn_mul_comba8                                     output.o
bn_mul_high                                       output.o
bn_mul_low_normal                                 output.o
bn_mul_low_recursive                              output.o
bn_mul_normal                                     output.o
bn_mul_part_recursive                             output.o
bn_mul_recursive                                  output.o
bn_mul_words                                      output.o
bn_sqr_comba4                                     output.o
bn_sqr_comba8                                     output.o
bn_sqr_normal                                     output.o
bn_sqr_recursive                                  output.o
bn_sqr_words                                      output.o
bn_sub_part_words                                 output.o
bn_sub_words                                      output.o
bss                                               output.o
c2i_ASN1_BIT_STRING                               output.o
c2i_ASN1_INTEGER                                  output.o
c2i_ASN1_OBJECT                                   output.o
cache_get_attr                                    output.o
cache_get_gmsr_amd                                output.o
cache_get_gmtrr                                   output.o
cache_get_gmtrr_attr                              output.o
cache_get_gmtrr_type                              output.o
cache_get_gmtrrcap                                output.o
cache_get_gpat                                    output.o
cache_set_gmsr_amd                                output.o
cache_set_gmtrr                                   output.o
cache_set_gpat                                    output.o
call_cpuid                                        output.o
call_initfunc                                     output.o
call_io                                           output.o
call_read_msr                                     output.o
call_write_msr                                    output.o
call_xsetbv                                       output.o
callfunc_and_getint                               output.o
callrealmode_bootcd_getstatus                     output.o
callrealmode_disk_readlba                         output.o
callrealmode_disk_readmbr                         output.o
callrealmode_end                                  output.o
callrealmode_endofcodeaddr                        output.o
callrealmode_getfontinfo                          output.o
callrealmode_getshiftflags                        output.o
callrealmode_getsysmemmap                         output.o
callrealmode_printmsg                             output.o
callrealmode_reboot                               output.o
callrealmode_setcursorpos                         output.o
callrealmode_setvideomode                         output.o
callrealmode_start                                output.o
callrealmode_start2                               output.o
callrealmode_startkernel32                        output.o
callrealmode_tcgbios                              output.o
callrealmode_usevcpu                              output.o
cancel_sleep                                      output.o
changePageStatus                                  output.o
check_defer                                       output.o
chelp_abort                                       output.o
chelp_bsearch                                     output.o
chelp_div_64_32_32                                output.o
chelp_div_64_32_64                                output.o
chelp_free                                        output.o
chelp_inited                                      output.o
chelp_isalnum                                     output.o
chelp_isalpha                                     output.o
chelp_isdigit                                     output.o
chelp_islower                                     output.o
chelp_isspace                                     output.o
chelp_isupper                                     output.o
chelp_isxdigit                                    output.o
chelp_malloc                                      output.o
chelp_memchr                                      output.o
chelp_memcmp                                      output.o
chelp_memcpy                                      output.o
chelp_memmove                                     output.o
chelp_memset                                      output.o
chelp_mod_64_32_32                                output.o
chelp_mul_64_64_64                                output.o
chelp_print                                       output.o
chelp_printf                                      output.o
chelp_qsort                                       output.o
chelp_realloc                                     output.o
chelp_snprintf                                    output.o
chelp_sprintf                                     output.o
chelp_strcat                                      output.o
chelp_strchr                                      output.o
chelp_strcmp                                      output.o
chelp_strcpy                                      output.o
chelp_stricmp                                     output.o
chelp_strlen                                      output.o
chelp_strncasecmp                                 output.o
chelp_strncmp                                     output.o
chelp_strncpy                                     output.o
chelp_strrchr                                     output.o
chelp_strtol                                      output.o
chelp_strtoul                                     output.o
chelp_strtoul_ex                                  output.o
chelp_swap                                        output.o
chelp_tolower                                     output.o
chelp_toupper                                     output.o
cleanse_ctr                                       output.o
clear_guest_status                                output.o
clflush_size                                      output.o
closePage                                         output.o
cmpxchg_gphys_l                                   output.o
cmpxchg_gphys_q                                   output.o
cmpxchg_hphys_l                                   output.o
cmpxchg_hphys_q                                   output.o
cms_Data_create                                   output.o
cms_DigestAlgorithm_find_ctx                      output.o
cms_DigestAlgorithm_init_bio                      output.o
cms_DigestAlgorithm_set                           output.o
cms_DigestedData_create                           output.o
cms_DigestedData_do_final                         output.o
cms_DigestedData_init_bio                         output.o
cms_EncryptedContent_init                         output.o
cms_EncryptedContent_init_bio                     output.o
cms_EncryptedData_init_bio                        output.o
cms_EnvelopedData_init_bio                        output.o
cms_SignedData_final                              output.o
cms_SignedData_init_bio                           output.o
cms_SignerIdentifier_cert_cmp                     output.o
cms_SignerIdentifier_get0_signer_id               output.o
cms_content_bio                                   output.o
cms_set1_SignerIdentifier                         output.o
config                                            output.o
copy_bootsector                                   output.o
core_init                                         output.o
core_io_handle_default                            output.o
core_io_modify_handler                            output.o
core_io_register_handler                          output.o
core_io_unregister_handler                        output.o
core_mm_read_guest_phys                           output.o
core_mm_write_guest_phys                          output.o
cpu_emul_cli                                      output.o
cpu_emul_cpuid                                    output.o
cpu_emul_hlt                                      output.o
cpu_emul_rdmsr                                    output.o
cpu_emul_realmode_int                             output.o
cpu_emul_sti                                      output.o
cpu_emul_wrmsr                                    output.o
cpu_emul_xsetbv                                   output.o
cpu_interpreter                                   output.o
cpu_mmu_get_pte                                   output.o
cpu_mmu_spt_clear_all                             output.o
cpu_mmu_spt_extern_mapsearch                      output.o
cpu_mmu_spt_init                                  output.o
cpu_mmu_spt_invalidate                            output.o
cpu_mmu_spt_map_1mb                               output.o
cpu_mmu_spt_pagefault                             output.o
cpu_mmu_spt_tlbflush                              output.o
cpu_mmu_spt_updatecr3                             output.o
cpu_seg_read_b                                    output.o
cpu_seg_read_l                                    output.o
cpu_seg_read_q                                    output.o
cpu_seg_read_w                                    output.o
cpu_seg_write_b                                   output.o
cpu_seg_write_l                                   output.o
cpu_seg_write_q                                   output.o
cpu_seg_write_w                                   output.o
cpu_stack_get                                     output.o
cpu_stack_pop                                     output.o
cpu_stack_push                                    output.o
cpu_stack_set                                     output.o
cpuinit_end                                       output.o
cpuinit_start                                     output.o
create_dom                                        output.o
crypt_sys_rsa_sign                                output.o
crypto_find                                       output.o
crypto_init                                       output.o
crypto_none_init                                  output.o
crypto_register                                   output.o
currentProtectedApplication                       output.o
currentRunningApplication                         output.o
curthread                                         output.o
d2i_ACCESS_DESCRIPTION                            output.o
d2i_ASN1_BIT_STRING                               output.o
d2i_ASN1_BMPSTRING                                output.o
d2i_ASN1_BOOLEAN                                  output.o
d2i_ASN1_ENUMERATED                               output.o
d2i_ASN1_GENERALIZEDTIME                          output.o
d2i_ASN1_GENERALSTRING                            output.o
d2i_ASN1_IA5STRING                                output.o
d2i_ASN1_INTEGER                                  output.o
d2i_ASN1_NULL                                     output.o
d2i_ASN1_OBJECT                                   output.o
d2i_ASN1_OCTET_STRING                             output.o
d2i_ASN1_PRINTABLE                                output.o
d2i_ASN1_PRINTABLESTRING                          output.o
d2i_ASN1_SEQUENCE_ANY                             output.o
d2i_ASN1_SET                                      output.o
d2i_ASN1_SET_ANY                                  output.o
d2i_ASN1_T61STRING                                output.o
d2i_ASN1_TIME                                     output.o
d2i_ASN1_TYPE                                     output.o
d2i_ASN1_UINTEGER                                 output.o
d2i_ASN1_UNIVERSALSTRING                          output.o
d2i_ASN1_UTCTIME                                  output.o
d2i_ASN1_UTF8STRING                               output.o
d2i_ASN1_VISIBLESTRING                            output.o
d2i_ASN1_bytes                                    output.o
d2i_ASN1_type_bytes                               output.o
d2i_AUTHORITY_INFO_ACCESS                         output.o
d2i_AUTHORITY_KEYID                               output.o
d2i_AutoPrivateKey                                output.o
d2i_BASIC_CONSTRAINTS                             output.o
d2i_CERTIFICATEPOLICIES                           output.o
d2i_CMS_ContentInfo                               output.o
d2i_CMS_bio                                       output.o
d2i_CRL_DIST_POINTS                               output.o
d2i_DHparams                                      output.o
d2i_DIRECTORYSTRING                               output.o
d2i_DISPLAYTEXT                                   output.o
d2i_DIST_POINT                                    output.o
d2i_DIST_POINT_NAME                               output.o
d2i_DSAPrivateKey                                 output.o
d2i_DSAPrivateKey_bio                             output.o
d2i_DSAPublicKey                                  output.o
d2i_DSA_PUBKEY                                    output.o
d2i_DSA_PUBKEY_bio                                output.o
d2i_DSA_SIG                                       output.o
d2i_DSAparams                                     output.o
d2i_ECDSA_SIG                                     output.o
d2i_ECPKPARAMETERS                                output.o
d2i_ECPKParameters                                output.o
d2i_ECParameters                                  output.o
d2i_ECPrivateKey                                  output.o
d2i_ECPrivateKey_bio                              output.o
d2i_EC_PRIVATEKEY                                 output.o
d2i_EC_PUBKEY                                     output.o
d2i_EC_PUBKEY_bio                                 output.o
d2i_EDIPARTYNAME                                  output.o
d2i_EXTENDED_KEY_USAGE                            output.o
d2i_GENERAL_NAME                                  output.o
d2i_GENERAL_NAMES                                 output.o
d2i_ISSUING_DIST_POINT                            output.o
d2i_NETSCAPE_CERT_SEQUENCE                        output.o
d2i_NETSCAPE_SPKAC                                output.o
d2i_NETSCAPE_SPKI                                 output.o
d2i_NOTICEREF                                     output.o
d2i_OCSP_BASICRESP                                output.o
d2i_OCSP_CERTID                                   output.o
d2i_OCSP_CERTSTATUS                               output.o
d2i_OCSP_CRLID                                    output.o
d2i_OCSP_ONEREQ                                   output.o
d2i_OCSP_REQINFO                                  output.o
d2i_OCSP_REQUEST                                  output.o
d2i_OCSP_RESPBYTES                                output.o
d2i_OCSP_RESPDATA                                 output.o
d2i_OCSP_RESPID                                   output.o
d2i_OCSP_RESPONSE                                 output.o
d2i_OCSP_REVOKEDINFO                              output.o
d2i_OCSP_SERVICELOC                               output.o
d2i_OCSP_SIGNATURE                                output.o
d2i_OCSP_SINGLERESP                               output.o
d2i_OTHERNAME                                     output.o
d2i_PBE2PARAM                                     output.o
d2i_PBEPARAM                                      output.o
d2i_PBKDF2PARAM                                   output.o
d2i_PKCS12                                        output.o
d2i_PKCS12_BAGS                                   output.o
d2i_PKCS12_MAC_DATA                               output.o
d2i_PKCS12_SAFEBAG                                output.o
d2i_PKCS12_bio                                    output.o
d2i_PKCS7                                         output.o
d2i_PKCS7_DIGEST                                  output.o
d2i_PKCS7_ENCRYPT                                 output.o
d2i_PKCS7_ENC_CONTENT                             output.o
d2i_PKCS7_ENVELOPE                                output.o
d2i_PKCS7_ISSUER_AND_SERIAL                       output.o
d2i_PKCS7_RECIP_INFO                              output.o
d2i_PKCS7_SIGNED                                  output.o
d2i_PKCS7_SIGNER_INFO                             output.o
d2i_PKCS7_SIGN_ENVELOPE                           output.o
d2i_PKCS7_bio                                     output.o
d2i_PKCS8PrivateKey_bio                           output.o
d2i_PKCS8_PRIV_KEY_INFO                           output.o
d2i_PKCS8_PRIV_KEY_INFO_bio                       output.o
d2i_PKCS8_bio                                     output.o
d2i_PKEY_USAGE_PERIOD                             output.o
d2i_POLICYINFO                                    output.o
d2i_POLICYQUALINFO                                output.o
d2i_PROXY_CERT_INFO_EXTENSION                     output.o
d2i_PROXY_POLICY                                  output.o
d2i_PUBKEY                                        output.o
d2i_PUBKEY_bio                                    output.o
d2i_PrivateKey                                    output.o
d2i_PrivateKey_bio                                output.o
d2i_RSAPrivateKey                                 output.o
d2i_RSAPrivateKey_bio                             output.o
d2i_RSAPublicKey                                  output.o
d2i_RSAPublicKey_bio                              output.o
d2i_RSA_PUBKEY                                    output.o
d2i_RSA_PUBKEY_bio                                output.o
d2i_SXNET                                         output.o
d2i_SXNETID                                       output.o
d2i_USERNOTICE                                    output.o
d2i_X509                                          output.o
d2i_X509_ALGOR                                    output.o
d2i_X509_ALGORS                                   output.o
d2i_X509_ATTRIBUTE                                output.o
d2i_X509_AUX                                      output.o
d2i_X509_CERT_AUX                                 output.o
d2i_X509_CERT_PAIR                                output.o
d2i_X509_CINF                                     output.o
d2i_X509_CRL                                      output.o
d2i_X509_CRL_INFO                                 output.o
d2i_X509_CRL_bio                                  output.o
d2i_X509_EXTENSION                                output.o
d2i_X509_EXTENSIONS                               output.o
d2i_X509_NAME                                     output.o
d2i_X509_NAME_ENTRY                               output.o
d2i_X509_PUBKEY                                   output.o
d2i_X509_REQ                                      output.o
d2i_X509_REQ_INFO                                 output.o
d2i_X509_REQ_bio                                  output.o
d2i_X509_REVOKED                                  output.o
d2i_X509_SIG                                      output.o
d2i_X509_VAL                                      output.o
d2i_X509_bio                                      output.o
deactivate_and_delete_urb                         output.o
debug_addstr                                      output.o
debug_gdb                                         output.o
debug_iohook                                      output.o
debug_msgregister                                 output.o
debug_msgunregister                               output.o
decryptcfg                                        output.o
default_pctx                                      output.o
dh_asn1_meth                                      output.o
dh_pkey_meth                                      output.o
disable_apic                                      output.o
do_exint_pass                                     output.o
do_externalint_enable                             output.o
do_io_nothing                                     output.o
do_iopass_default                                 output.o
do_panic_reboot                                   output.o
dom_io                                            output.o
dprintf_port                                      output.o
drhd_list_head                                    output.o
dsa_asn1_meths                                    output.o
dsa_builtin_paramgen                              output.o
dsa_pkey_meth                                     output.o
dsa_pub_internal_it                               output.o
dump_frame                                        output.o
dump_qh                                           output.o
dump_td                                           output.o
dump_td_byvirt                                    output.o
dwReaders                                         output.o
e801_fake_ax                                      output.o
e801_fake_bx                                      output.o
ec_GF2m_have_precompute_mult                      output.o
ec_GF2m_precompute_mult                           output.o
ec_GF2m_simple_add                                output.o
ec_GF2m_simple_cmp                                output.o
ec_GF2m_simple_dbl                                output.o
ec_GF2m_simple_field_div                          output.o
ec_GF2m_simple_field_mul                          output.o
ec_GF2m_simple_field_sqr                          output.o
ec_GF2m_simple_group_check_discriminant           output.o
ec_GF2m_simple_group_clear_finish                 output.o
ec_GF2m_simple_group_copy                         output.o
ec_GF2m_simple_group_finish                       output.o
ec_GF2m_simple_group_get_curve                    output.o
ec_GF2m_simple_group_get_degree                   output.o
ec_GF2m_simple_group_init                         output.o
ec_GF2m_simple_group_set_curve                    output.o
ec_GF2m_simple_invert                             output.o
ec_GF2m_simple_is_at_infinity                     output.o
ec_GF2m_simple_is_on_curve                        output.o
ec_GF2m_simple_make_affine                        output.o
ec_GF2m_simple_mul                                output.o
ec_GF2m_simple_oct2point                          output.o
ec_GF2m_simple_point2oct                          output.o
ec_GF2m_simple_point_clear_finish                 output.o
ec_GF2m_simple_point_copy                         output.o
ec_GF2m_simple_point_finish                       output.o
ec_GF2m_simple_point_get_affine_coordinates       output.o
ec_GF2m_simple_point_init                         output.o
ec_GF2m_simple_point_set_affine_coordinates       output.o
ec_GF2m_simple_point_set_to_infinity              output.o
ec_GF2m_simple_points_make_affine                 output.o
ec_GF2m_simple_set_compressed_coordinates         output.o
ec_GFp_mont_field_decode                          output.o
ec_GFp_mont_field_encode                          output.o
ec_GFp_mont_field_mul                             output.o
ec_GFp_mont_field_set_to_one                      output.o
ec_GFp_mont_field_sqr                             output.o
ec_GFp_mont_group_clear_finish                    output.o
ec_GFp_mont_group_copy                            output.o
ec_GFp_mont_group_finish                          output.o
ec_GFp_mont_group_init                            output.o
ec_GFp_mont_group_set_curve                       output.o
ec_GFp_nist_field_mul                             output.o
ec_GFp_nist_field_sqr                             output.o
ec_GFp_nist_group_copy                            output.o
ec_GFp_nist_group_set_curve                       output.o
ec_GFp_simple_add                                 output.o
ec_GFp_simple_cmp                                 output.o
ec_GFp_simple_dbl                                 output.o
ec_GFp_simple_field_mul                           output.o
ec_GFp_simple_field_sqr                           output.o
ec_GFp_simple_get_Jprojective_coordinates_GFp     output.o
ec_GFp_simple_group_check_discriminant            output.o
ec_GFp_simple_group_clear_finish                  output.o
ec_GFp_simple_group_copy                          output.o
ec_GFp_simple_group_finish                        output.o
ec_GFp_simple_group_get_curve                     output.o
ec_GFp_simple_group_get_degree                    output.o
ec_GFp_simple_group_init                          output.o
ec_GFp_simple_group_set_curve                     output.o
ec_GFp_simple_invert                              output.o
ec_GFp_simple_is_at_infinity                      output.o
ec_GFp_simple_is_on_curve                         output.o
ec_GFp_simple_make_affine                         output.o
ec_GFp_simple_oct2point                           output.o
ec_GFp_simple_point2oct                           output.o
ec_GFp_simple_point_clear_finish                  output.o
ec_GFp_simple_point_copy                          output.o
ec_GFp_simple_point_finish                        output.o
ec_GFp_simple_point_get_affine_coordinates        output.o
ec_GFp_simple_point_init                          output.o
ec_GFp_simple_point_set_affine_coordinates        output.o
ec_GFp_simple_point_set_to_infinity               output.o
ec_GFp_simple_points_make_affine                  output.o
ec_GFp_simple_set_Jprojective_coordinates_GFp     output.o
ec_GFp_simple_set_compressed_coordinates          output.o
ec_pkey_meth                                      output.o
ec_wNAF_have_precompute_mult                      output.o
ec_wNAF_mul                                       output.o
ec_wNAF_precompute_mult                           output.o
ecdh_check                                        output.o
ecdsa_check                                       output.o
eckey_asn1_meth                                   output.o
ehci_check_advance                                output.o
ehci_check_urb_advance                            output.o
ehci_cleanup_urbs                                 output.o
ehci_conceal_portroute                            output.o
ehci_deactivate_urb                               output.o
ehci_dump_alist                                   output.o
ehci_dump_all                                     output.o
ehci_dump_async                                   output.o
ehci_dump_qtd                                     output.o
ehci_dump_qtdm                                    output.o
ehci_dump_urb                                     output.o
ehci_dump_urblist                                 output.o
ehci_end_monitor_async                            output.o
ehci_host                                         output.o
ehci_init                                         output.o
ehci_monitor_async_list                           output.o
ehci_shadow_async_list                            output.o
ehci_shadow_buffer                                output.o
ehci_submit_bulk                                  output.o
ehci_submit_control                               output.o
ehci_submit_interrupt                             output.o
end                                               output.o
entry                                             output.o
entry_pd                                          output.o
entry_pd0                                         output.o
entry_pdp                                         output.o
evp_pkey_set_cb_translate                         output.o
exitprocess                                       output.o
findProtectedApplicationFromRIP                   output.o
findUnmappedPage                                  output.o
free                                              output.o
free_config_descriptors                           output.o
free_device                                       output.o
free_page                                         output.o
free_page_phys                                    output.o
g_rgSCardT0Pci                                    output.o
g_rgSCardT1Pci                                    output.o
getCurrentProtectedApplication                    output.o
getGuestRSP                                       output.o
getMemoryOwnershipTableEntry                      output.o
getMemoryOwnershipTableIndex                      output.o
getSystemCallHandlerGPA                           output.o
getTSSGVA                                         output.o
get_acpi_time                                     output.o
get_acpi_time_raw                                 output.o
get_cpu_id                                        output.o
get_cpu_time                                      output.o
get_ept_base_HPA                                  output.o
get_guest_cr3_value                               output.o
get_guest_eptp_value                              output.o
get_gurb_by_address                               output.o
get_idman_session                                 output.o
get_page_table_base_GPA                           output.o
get_seg_access_rights                             output.o
get_seg_base                                      output.o
get_time                                          output.o
getfakesysmemmap                                  output.o
getsysmemmap                                      output.o
gmm_pass_gp2hp                                    output.o
gpaToHPA                                          output.o
gs_current                                        output.o
gs_currentcpu                                     output.o
gs_init_count                                     output.o
gs_inthandling                                    output.o
gs_nmi                                            output.o
gs_syscallstack                                   output.o
guest_int0x15_e801_fake_ax                        output.o
guest_int0x15_e801_fake_bx                        output.o
guest_int0x15_e820_data_minus0x18                 output.o
guest_int0x15_e820_end                            output.o
guest_int0x15_hook                                output.o
guest_int0x15_hook_end                            output.o
guest_int0x15_orig                                output.o
gvaToGPA                                          output.o
hContext                                          output.o
hObjectCnt                                        output.o
hSessionCnt                                       output.o
handleSystemCall                                  output.o
handle_connect_status                             output.o
handle_init_to_bsp                                output.o
handle_port_reset                                 output.o
handler_descriptor                                output.o
handler_descriptor_lock                           output.o
head                                              output.o
hex_to_string                                     output.o
hmac_asn1_meth                                    output.o
hmac_pkey_meth                                    output.o
hub_portdevice_register                           output.o
hypercall_handler                                 output.o
i2a_ACCESS_DESCRIPTION                            output.o
i2a_ASN1_INTEGER                                  output.o
i2a_ASN1_OBJECT                                   output.o
i2a_ASN1_STRING                                   output.o
i2c_ASN1_BIT_STRING                               output.o
i2c_ASN1_INTEGER                                  output.o
i2d_ACCESS_DESCRIPTION                            output.o
i2d_ASN1_BIT_STRING                               output.o
i2d_ASN1_BMPSTRING                                output.o
i2d_ASN1_BOOLEAN                                  output.o
i2d_ASN1_ENUMERATED                               output.o
i2d_ASN1_GENERALIZEDTIME                          output.o
i2d_ASN1_GENERALSTRING                            output.o
i2d_ASN1_IA5STRING                                output.o
i2d_ASN1_INTEGER                                  output.o
i2d_ASN1_NULL                                     output.o
i2d_ASN1_OBJECT                                   output.o
i2d_ASN1_OCTET_STRING                             output.o
i2d_ASN1_PRINTABLE                                output.o
i2d_ASN1_PRINTABLESTRING                          output.o
i2d_ASN1_SEQUENCE_ANY                             output.o
i2d_ASN1_SET                                      output.o
i2d_ASN1_SET_ANY                                  output.o
i2d_ASN1_T61STRING                                output.o
i2d_ASN1_TIME                                     output.o
i2d_ASN1_TYPE                                     output.o
i2d_ASN1_UNIVERSALSTRING                          output.o
i2d_ASN1_UTCTIME                                  output.o
i2d_ASN1_UTF8STRING                               output.o
i2d_ASN1_VISIBLESTRING                            output.o
i2d_ASN1_bio_stream                               output.o
i2d_ASN1_bytes                                    output.o
i2d_AUTHORITY_INFO_ACCESS                         output.o
i2d_AUTHORITY_KEYID                               output.o
i2d_BASIC_CONSTRAINTS                             output.o
i2d_CERTIFICATEPOLICIES                           output.o
i2d_CMS_ContentInfo                               output.o
i2d_CMS_bio                                       output.o
i2d_CMS_bio_stream                                output.o
i2d_CRL_DIST_POINTS                               output.o
i2d_DHparams                                      output.o
i2d_DIRECTORYSTRING                               output.o
i2d_DISPLAYTEXT                                   output.o
i2d_DIST_POINT                                    output.o
i2d_DIST_POINT_NAME                               output.o
i2d_DSAPrivateKey                                 output.o
i2d_DSAPrivateKey_bio                             output.o
i2d_DSAPublicKey                                  output.o
i2d_DSA_PUBKEY                                    output.o
i2d_DSA_PUBKEY_bio                                output.o
i2d_DSA_SIG                                       output.o
i2d_DSAparams                                     output.o
i2d_ECDSA_SIG                                     output.o
i2d_ECPKPARAMETERS                                output.o
i2d_ECPKParameters                                output.o
i2d_ECParameters                                  output.o
i2d_ECPrivateKey                                  output.o
i2d_ECPrivateKey_bio                              output.o
i2d_EC_PRIVATEKEY                                 output.o
i2d_EC_PUBKEY                                     output.o
i2d_EC_PUBKEY_bio                                 output.o
i2d_EDIPARTYNAME                                  output.o
i2d_EXTENDED_KEY_USAGE                            output.o
i2d_GENERAL_NAME                                  output.o
i2d_GENERAL_NAMES                                 output.o
i2d_ISSUING_DIST_POINT                            output.o
i2d_NETSCAPE_CERT_SEQUENCE                        output.o
i2d_NETSCAPE_SPKAC                                output.o
i2d_NETSCAPE_SPKI                                 output.o
i2d_NOTICEREF                                     output.o
i2d_OCSP_BASICRESP                                output.o
i2d_OCSP_CERTID                                   output.o
i2d_OCSP_CERTSTATUS                               output.o
i2d_OCSP_CRLID                                    output.o
i2d_OCSP_ONEREQ                                   output.o
i2d_OCSP_REQINFO                                  output.o
i2d_OCSP_REQUEST                                  output.o
i2d_OCSP_RESPBYTES                                output.o
i2d_OCSP_RESPDATA                                 output.o
i2d_OCSP_RESPID                                   output.o
i2d_OCSP_RESPONSE                                 output.o
i2d_OCSP_REVOKEDINFO                              output.o
i2d_OCSP_SERVICELOC                               output.o
i2d_OCSP_SIGNATURE                                output.o
i2d_OCSP_SINGLERESP                               output.o
i2d_OTHERNAME                                     output.o
i2d_PBE2PARAM                                     output.o
i2d_PBEPARAM                                      output.o
i2d_PBKDF2PARAM                                   output.o
i2d_PKCS12                                        output.o
i2d_PKCS12_BAGS                                   output.o
i2d_PKCS12_MAC_DATA                               output.o
i2d_PKCS12_SAFEBAG                                output.o
i2d_PKCS12_bio                                    output.o
i2d_PKCS7                                         output.o
i2d_PKCS7_DIGEST                                  output.o
i2d_PKCS7_ENCRYPT                                 output.o
i2d_PKCS7_ENC_CONTENT                             output.o
i2d_PKCS7_ENVELOPE                                output.o
i2d_PKCS7_ISSUER_AND_SERIAL                       output.o
i2d_PKCS7_NDEF                                    output.o
i2d_PKCS7_RECIP_INFO                              output.o
i2d_PKCS7_SIGNED                                  output.o
i2d_PKCS7_SIGNER_INFO                             output.o
i2d_PKCS7_SIGN_ENVELOPE                           output.o
i2d_PKCS7_bio                                     output.o
i2d_PKCS8PrivateKeyInfo_bio                       output.o
i2d_PKCS8PrivateKey_bio                           output.o
i2d_PKCS8PrivateKey_nid_bio                       output.o
i2d_PKCS8_PRIV_KEY_INFO                           output.o
i2d_PKCS8_PRIV_KEY_INFO_bio                       output.o
i2d_PKCS8_bio                                     output.o
i2d_PKEY_USAGE_PERIOD                             output.o
i2d_POLICYINFO                                    output.o
i2d_POLICYQUALINFO                                output.o
i2d_PROXY_CERT_INFO_EXTENSION                     output.o
i2d_PROXY_POLICY                                  output.o
i2d_PUBKEY                                        output.o
i2d_PUBKEY_bio                                    output.o
i2d_PrivateKey                                    output.o
i2d_PrivateKey_bio                                output.o
i2d_RSAPrivateKey                                 output.o
i2d_RSAPrivateKey_bio                             output.o
i2d_RSAPublicKey                                  output.o
i2d_RSAPublicKey_bio                              output.o
i2d_RSA_PUBKEY                                    output.o
i2d_RSA_PUBKEY_bio                                output.o
i2d_SXNET                                         output.o
i2d_SXNETID                                       output.o
i2d_USERNOTICE                                    output.o
i2d_X509                                          output.o
i2d_X509_ALGOR                                    output.o
i2d_X509_ALGORS                                   output.o
i2d_X509_ATTRIBUTE                                output.o
i2d_X509_AUX                                      output.o
i2d_X509_CERT_AUX                                 output.o
i2d_X509_CERT_PAIR                                output.o
i2d_X509_CINF                                     output.o
i2d_X509_CRL                                      output.o
i2d_X509_CRL_INFO                                 output.o
i2d_X509_CRL_bio                                  output.o
i2d_X509_EXTENSION                                output.o
i2d_X509_EXTENSIONS                               output.o
i2d_X509_NAME                                     output.o
i2d_X509_NAME_ENTRY                               output.o
i2d_X509_PUBKEY                                   output.o
i2d_X509_REQ                                      output.o
i2d_X509_REQ_INFO                                 output.o
i2d_X509_REQ_bio                                  output.o
i2d_X509_REVOKED                                  output.o
i2d_X509_SIG                                      output.o
i2d_X509_VAL                                      output.o
i2d_X509_bio                                      output.o
i2o_ECPublicKey                                   output.o
i2s_ASN1_ENUMERATED                               output.o
i2s_ASN1_ENUMERATED_TABLE                         output.o
i2s_ASN1_INTEGER                                  output.o
i2s_ASN1_OCTET_STRING                             output.o
i2t_ASN1_OBJECT                                   output.o
i2v_ASN1_BIT_STRING                               output.o
i2v_GENERAL_NAME                                  output.o
i2v_GENERAL_NAMES                                 output.o
idea_cbc_encrypt                                  output.o
idea_cfb64_encrypt                                output.o
idea_ecb_encrypt                                  output.o
idea_encrypt                                      output.o
idea_ofb64_encrypt                                output.o
idea_options                                      output.o
idea_set_decrypt_key                              output.o
idea_set_encrypt_key                              output.o
idman_reinit2                                     output.o
idman_reinit_session                              output.o
idman_user_init                                   output.o
ieee1394_init                                     output.o
initPagePool                                      output.o
init_hframelist                                   output.o
initfunc_init                                     output.o
initializeNewProtectedApplication                 output.o
int1a_TCG_CompactHashLogExtendEvent               output.o
int1a_TCG_HashAll                                 output.o
int1a_TCG_HashLogEvent                            output.o
int1a_TCG_HashLogExtendEvent                      output.o
int1a_TCG_PassThroughToTPM                        output.o
int1a_TCG_StatusCheck                             output.o
int1a_TCG_TSS                                     output.o
int_callfunc                                      output.o
int_exceptionHandler                              output.o
int_fatal                                         output.o
int_handler                                       output.o
int_init_ap                                       output.o
int_rsa_verify                                    output.o
iodom_init                                        output.o
iommu_detected                                    output.o
iommu_setup                                       output.o
ipchecksum                                        output.o
keyboard_flush                                    output.o
keyboard_reset                                    output.o
level_add_node                                    output.o
level_find_node                                   output.o
lh_delete                                         output.o
lh_doall                                          output.o
lh_doall_arg                                      output.o
lh_free                                           output.o
lh_insert                                         output.o
lh_new                                            output.o
lh_num_items                                      output.o
lh_retrieve                                       output.o
lh_strhash                                        output.o
lh_version                                        output.o
libInitFlag                                       output.o
load_bootsector                                   output.o
load_minios                                       output.o
load_new_vcpu                                     output.o
localapic_change_base_msr                         output.o
localapic_mmio_register                           output.o
localapic_wait_for_sipi                           output.o
mapHPAintoHVA                                     output.o
mapmem                                            output.o
mapmem_gphys                                      output.o
mapmem_hphys                                      output.o
matched_drhd_u                                    output.o
md4_block_data_order                              output.o
md5_block_data_order                              output.o
memcmp                                            output.o
memcpy                                            output.o
memorysize                                        output.o
mempool_allocmem                                  output.o
mempool_free                                      output.o
mempool_freemem                                   output.o
mempool_new                                       output.o
memset                                            output.o
message_exitcode                                  output.o
message_exitreason                                output.o
mm_flush_wb_cache                                 output.o
mm_force_unlock                                   output.o
mm_process_alloc                                  output.o
mm_process_free                                   output.o
mm_process_map_alloc                              output.o
mm_process_map_shared                             output.o
mm_process_map_shared_physpage                    output.o
mm_process_map_stack                              output.o
mm_process_switch                                 output.o
mm_process_unmap                                  output.o
mm_process_unmap_stack                            output.o
mm_process_unmapall                               output.o
mmio_access_memory                                output.o
mmio_access_page                                  output.o
mmio_lock                                         output.o
mmio_register                                     output.o
mmio_unlock                                       output.o
mmio_unregister                                   output.o
monitor_memset                                    output.o
monitor_vmcs_read                                 output.o
monitor_vmcs_write                                output.o
move_vmm_area32                                   output.o
move_vmm_area64                                   output.o
mpudiv_128_32                                     output.o
mpumul_64_64                                      output.o
msg_findname                                      output.o
msg_register                                      output.o
msg_unregister                                    output.o
msg_unregister2                                   output.o
msg_unregisterall                                 output.o
msg_usb_bulk_read                                 output.o
msg_usb_bulk_write                                output.o
msg_usb_claim_interface                           output.o
msg_usb_close                                     output.o
msg_usb_control_msg                               output.o
msg_usb_find_busses                               output.o
msg_usb_find_devices                              output.o
msg_usb_get_busses                                output.o
msg_usb_get_string_simple                         output.o
msg_usb_init                                      output.o
msg_usb_open                                      output.o
msg_usb_release_interface                         output.o
msg_usb_reset                                     output.o
msg_vpn_FreeTimer                                 output.o
msg_vpn_GetCurrentCpuId                           output.o
msg_vpn_GetPhysicalNicInfo                        output.o
msg_vpn_GetTickCount                              output.o
msg_vpn_GetVirtualNicInfo                         output.o
msg_vpn_NewTimer                                  output.o
msg_vpn_SendPhysicalNic                           output.o
msg_vpn_SendVirtualNic                            output.o
msg_vpn_SetPhysicalNicRecvCallback                output.o
msg_vpn_SetTimer                                  output.o
msg_vpn_SetVirtualNicRecvCallback                 output.o
msg_vpn_ic_rsa_sign                               output.o
msgclose                                          output.o
msgopen                                           output.o
msgpremapbuf                                      output.o
msgregister                                       output.o
msgsendbuf                                        output.o
msgsenddesc                                       output.o
msgsendint                                        output.o
msgsetfunc                                        output.o
msgunregister                                     output.o
mszReaders                                        output.o
name_cmp                                          output.o
newprocess                                        output.o
num_dom                                           output.o
num_of_available_pages                            output.o
num_of_processors                                 output.o
numberOfProtectedApplications                     output.o
numberOfVMs                                       output.o
o2i_ECPublicKey                                   output.o
obj_cleanup_defer                                 output.o
openPage                                          output.o
packet_handle_command                             output.o
packet_handle_config                              output.o
packet_handle_invalid                             output.o
packet_handle_nondata                             output.o
packet_handle_rw                                  output.o
packet_handle_through                             output.o
panic                                             output.o
panic_oom                                         output.o
panic_test                                        output.o
panic_wakeup_all                                  output.o
parse_dmar_bios_report                            output.o
pci_append_device                                 output.o
pci_conceal_config_data_handler                   output.o
pci_conceal_new_device                            output.o
pci_config_addr_handler                           output.o
pci_config_data_handler                           output.o
pci_device_list_head                              output.o
pci_driver_list_head                              output.o
pci_handle_default_config_write                   output.o
pci_possible_new_device                           output.o
pci_print_device                                  output.o
pci_read_config_data16                            output.o
pci_read_config_data32                            output.o
pci_read_config_data8                             output.o
pci_read_config_data_port                         output.o
pci_register_driver                               output.o
pci_restore_config_addr                           output.o
pci_save_config_addr                              output.o
pci_write_config_data16                           output.o
pci_write_config_data32                           output.o
pci_write_config_data8                            output.o
pci_write_config_data_port                        output.o
pcpu_default                                      output.o
pcpu_init                                         output.o
pcpu_list_add                                     output.o
pcpu_list_foreach                                 output.o
pem_check_suffix                                  output.o
phys_in_vmm                                       output.o
phys_to_virt                                      output.o
pmap_autoalloc                                    output.o
pmap_clear                                        output.o
pmap_close                                        output.o
pmap_dump                                         output.o
pmap_getreadlevel                                 output.o
pmap_open_guest                                   output.o
pmap_open_vmm                                     output.o
pmap_pointer                                      output.o
pmap_read                                         output.o
pmap_seek                                         output.o
pmap_setlevel                                     output.o
pmap_write                                        output.o
policy_cache_find_data                            output.o
policy_cache_free                                 output.o
policy_cache_set                                  output.o
policy_cache_set_mapping                          output.o
policy_data_free                                  output.o
policy_data_new                                   output.o
policy_node_cmp_new                               output.o
policy_node_free                                  output.o
policy_node_match                                 output.o
prepare_for_sleep                                 output.o
printexitcode                                     output.o
printexitreason                                   output.o
printf                                            output.o
pro100_alloc_page                                 output.o
pro100_alloc_recv_buffer                          output.o
pro100_beep                                       output.o
pro100_config_read                                output.o
pro100_config_write                               output.o
pro100_exec_cu_op                                 output.o
pro100_flush                                      output.o
pro100_free_page                                  output.o
pro100_generate_int                               output.o
pro100_get_ctx                                    output.o
pro100_get_cu_command_string                      output.o
pro100_get_int_bit_string                         output.o
pro100_get_op_size                                output.o
pro100_get_ru_command_string                      output.o
pro100_get_stat_ack_string                        output.o
pro100_hook_read                                  output.o
pro100_hook_write                                 output.o
pro100_init                                       output.o
pro100_init_cu_base_addr                          output.o
pro100_init_recv_buffer                           output.o
pro100_init_ru_base_addr                          output.o
pro100_init_vpn_client                            output.o
pro100_io_handler                                 output.o
pro100_mem_read                                   output.o
pro100_mem_write                                  output.o
pro100_mm_handler                                 output.o
pro100_new                                        output.o
pro100_poll_ru                                    output.o
pro100_proc_guest_op                              output.o
pro100_read                                       output.o
pro100_read_send_packet                           output.o
pro100_send_packet_to_line                        output.o
pro100_sleep                                      output.o
pro100_wait_cu_ru_accepable                       output.o
pro100_write                                      output.o
pro100_write_recv_packet                          output.o
process_kill                                      output.o
process_syscall                                   output.o
processuser_no_sysenter                           output.o
processuser_syscall                               output.o
processuser_sysenter                              output.o
prohibit_iccard_init                              output.o
protectCurrentApplication                         output.o
ps2_locked                                        output.o
putchar                                           output.o
putchar_set_func                                  output.o
rand_ssleay_meth                                  output.o
read_gphys_b                                      output.o
read_gphys_l                                      output.o
read_gphys_q                                      output.o
read_gphys_w                                      output.o
read_hphys_b                                      output.o
read_hphys_l                                      output.o
read_hphys_q                                      output.o
read_hphys_w                                      output.o
read_linearaddr_b                                 output.o
read_linearaddr_l                                 output.o
read_linearaddr_q                                 output.o
read_linearaddr_tss                               output.o
read_linearaddr_w                                 output.o
readerState                                       output.o
readerTracker                                     output.o
realloc                                           output.o
reboot_test                                       output.o
register_status_callback                          output.o
restore_guest_status                              output.o
restore_register                                  output.o
resume_vm                                         output.o
ret_to_user32                                     output.o
ret_to_user64                                     output.o
ripemd160_block_data_order                        output.o
rsa_asn1_meths                                    output.o
rsa_pkey_meth                                     output.o
rt                                                output.o
s2i_ASN1_INTEGER                                  output.o
s2i_ASN1_OCTET_STRING                             output.o
sReaderContext                                    output.o
saveSystemCallHandlerAddress                      output.o
save_guest_status                                 output.o
savemsr_index                                     output.o
savemsr_load                                      output.o
savemsr_save                                      output.o
scan_gframelist                                   output.o
schedule                                          output.o
security_storage_check_lba                        output.o
segment_init_ap                                   output.o
segment_wakeup                                    output.o
serial_getDebugChar                               output.o
serial_init_iohook                                output.o
serial_putDebugChar                               output.o
serial_putchar                                    output.o
sessionTable                                      output.o
setCurrentProtectedApplication                    output.o
set_int_handler                                   output.o
set_iofunc                                        output.o
setkbdled                                         output.o
shadow_and_activate_urb                           output.o
sig_app                                           output.o
sigx_app                                          output.o
sk_delete                                         output.o
sk_delete_ptr                                     output.o
sk_dup                                            output.o
sk_find                                           output.o
sk_find_ex                                        output.o
sk_free                                           output.o
sk_insert                                         output.o
sk_is_sorted                                      output.o
sk_new                                            output.o
sk_new_null                                       output.o
sk_num                                            output.o
sk_pop                                            output.o
sk_pop_free                                       output.o
sk_push                                           output.o
sk_set                                            output.o
sk_set_cmp_func                                   output.o
sk_shift                                          output.o
sk_sort                                           output.o
sk_unshift                                        output.o
sk_value                                          output.o
sk_zero                                           output.o
sleep_set_timer_counter                           output.o
slotFlag                                          output.o
slotTable                                         output.o
snprintf                                          output.o
start_all_processors                              output.o
storage_free                                      output.o
storage_get_num_hc                                output.o
storage_handle_sectors                            output.o
storage_hc_close                                  output.o
storage_hc_dev_atacommand                         output.o
storage_hc_dev_close                              output.o
storage_hc_dev_open                               output.o
storage_hc_hook_register                          output.o
storage_hc_hook_unregister                        output.o
storage_hc_open                                   output.o
storage_hc_register                               output.o
storage_hc_scandev                                output.o
storage_hc_unregister                             output.o
storage_init                                      output.o
storage_io_aget_size                              output.o
storage_io_aread                                  output.o
storage_io_awrite                                 output.o
storage_io_deinit                                 output.o
storage_io_get_num_devices                        output.o
storage_io_init                                   output.o
storage_new                                       output.o
storage_premap_buf                                output.o
storage_premap_handle_sectors                     output.o
strcmp                                            output.o
string_to_hex                                     output.o
strlen                                            output.o
svm_available                                     output.o
svm_enable_resume                                 output.o
svm_extern_iopass                                 output.o
svm_init                                          output.o
svm_init_signal                                   output.o
svm_ioio                                          output.o
svm_msr_update_lma                                output.o
svm_np_clear_all                                  output.o
svm_np_extern_mapsearch                           output.o
svm_np_init                                       output.o
svm_np_map_1mb                                    output.o
svm_np_pagefault                                  output.o
svm_np_tlbflush                                   output.o
svm_np_updatecr3                                  output.o
svm_paging_apply_fixed_cr0                        output.o
svm_paging_apply_fixed_cr4                        output.o
svm_paging_clear_all                              output.o
svm_paging_extern_flush_tlb_entry                 output.o
svm_paging_flush_guest_tlb                        output.o
svm_paging_get_gpat                               output.o
svm_paging_init                                   output.o
svm_paging_invalidate                             output.o
svm_paging_map_1mb                                output.o
svm_paging_npf                                    output.o
svm_paging_pagefault                              output.o
svm_paging_pg_change                              output.o
svm_paging_set_gpat                               output.o
svm_paging_spt_setcr3                             output.o
svm_paging_start                                  output.o
svm_paging_tlbflush                               output.o
svm_paging_updatecr3                              output.o
svm_panic_dump                                    output.o
svm_read_control_reg                              output.o
svm_read_flags                                    output.o
svm_read_gdtr                                     output.o
svm_read_general_reg                              output.o
svm_read_idtr                                     output.o
svm_read_ip                                       output.o
svm_read_msr                                      output.o
svm_read_sreg_acr                                 output.o
svm_read_sreg_base                                output.o
svm_read_sreg_limit                               output.o
svm_read_sreg_sel                                 output.o
svm_reset                                         output.o
svm_resume                                        output.o
svm_start_vm                                      output.o
svm_vmexit                                        output.o
svm_vminit                                        output.o
svm_write_control_reg                             output.o
svm_write_flags                                   output.o
svm_write_gdtr                                    output.o
svm_write_general_reg                             output.o
svm_write_idtr                                    output.o
svm_write_ip                                      output.o
svm_write_msr                                     output.o
svm_write_realmode_seg                            output.o
svm_writing_sreg                                  output.o
sx_handler                                        output.o
sym_to_phys                                       output.o
sync_all_processors                               output.o
sys_exitprocess                                   output.o
sys_msgclose                                      output.o
sys_msgopen                                       output.o
sys_msgregister                                   output.o
sys_msgret                                        output.o
sys_msgsendbuf                                    output.o
sys_msgsenddesc                                   output.o
sys_msgsendint                                    output.o
sys_msgsetfunc                                    output.o
sys_msgunregister                                 output.o
sys_newprocess                                    output.o
syscallHandlerAddress                             output.o
syscall_entry_lret                                output.o
syscall_entry_sysexit                             output.o
syscall_entry_sysret64                            output.o
syscall_metatata_table                            output.o
tcg_measure                                       output.o
test_gpaToHPA                                     output.o
test_logicalCPUStatus                             output.o
test_start                                        output.o
test_traverseGuestPages                           output.o
thread_exit                                       output.o
thread_gettid                                     output.o
thread_new                                        output.o
thread_set_process_switch                         output.o
thread_start0                                     output.o
thread_start1                                     output.o
thread_switch                                     output.o
thread_wakeup                                     output.o
thread_will_stop                                  output.o
timer_free                                        output.o
timer_new                                         output.o
timer_set                                         output.o
traverseGuestPages                                output.o
traverseIA32ePDPT                                 output.o
traverseIA32ePDT                                  output.o
traverseIA32ePT                                   output.o
traverseIA32ePages                                output.o
tree_find_sk                                      output.o
tty_init_iohook                                   output.o
tty_putchar                                       output.o
tty_udp_register                                  output.o
ttylog_stop                                       output.o
uhci_activate_urb                                 output.o
uhci_check_advance                                output.o
uhci_check_urb_advance                            output.o
uhci_create_urb                                   output.o
uhci_current_frame_number                         output.o
uhci_deactivate_urb                               output.o
uhci_destroy_unlinked_urbs                        output.o
uhci_destroy_urb                                  output.o
uhci_dump_all                                     output.o
uhci_error_status_string                          output.o
uhci_framelist_monitor                            output.o
uhci_init                                         output.o
uhci_monitor_boost_hc                             output.o
uhci_reactivate_urb                               output.o
uhci_shadow_buffer                                output.o
uhci_submit_bulk                                  output.o
uhci_submit_control                               output.o
uhci_submit_interrupt                             output.o
unmapHPAintoHVA                                   output.o
unmapmem                                          output.o
update_mtrr_and_pat                               output.o
usb_bulk_read                                     output.o
usb_bulk_write                                    output.o
usb_busses_head                                   output.o
usb_claim_interface                               output.o
usb_clear_halt                                    output.o
usb_close                                         output.o
usb_control_msg                                   output.o
usb_find_busses                                   output.o
usb_find_devices                                  output.o
usb_get_bus                                       output.o
usb_get_busses                                    output.o
usb_get_descriptor                                output.o
usb_get_descriptor_by_endpoint                    output.o
usb_get_descriptor_early                          output.o
usb_get_string                                    output.o
usb_get_string_simple                             output.o
usb_hc_list_head                                  output.o
usb_hook_process                                  output.o
usb_hook_register                                 output.o
usb_hook_unregister                               output.o
usb_init                                          output.o
usb_init_device_monitor                           output.o
usb_interrupt_read                                output.o
usb_interrupt_write                               output.o
usb_log_level                                     output.o
usb_new_dev_handle                                output.o
usb_open                                          output.o
usb_register_host                                 output.o
usb_release_interface                             output.o
usb_reset                                         output.o
usb_resetep                                       output.o
usb_sc_lock                                       output.o
usb_sc_unlock                                     output.o
usb_set_altinterface                              output.o
usb_set_configuration                             output.o
usb_set_debug                                     output.o
usb_unregister_devices                            output.o
usbccid_init_handle                               output.o
usbhid_init_handle                                output.o
usbhub_init_handle                                output.o
usbmsc_init_handle                                output.o
use_pae                                           output.o
usleep                                            output.o
v2i_ASN1_BIT_STRING                               output.o
v2i_GENERAL_NAME                                  output.o
v2i_GENERAL_NAMES                                 output.o
v2i_GENERAL_NAME_ex                               output.o
v3_akey_id                                        output.o
v3_alt                                            output.o
v3_bcons                                          output.o
v3_cpols                                          output.o
v3_crl_hold                                       output.o
v3_crl_invdate                                    output.o
v3_crl_num                                        output.o
v3_crl_reason                                     output.o
v3_crld                                           output.o
v3_delta_crl                                      output.o
v3_ext_ku                                         output.o
v3_freshest_crl                                   output.o
v3_idp                                            output.o
v3_info                                           output.o
v3_inhibit_anyp                                   output.o
v3_key_usage                                      output.o
v3_name_constraints                               output.o
v3_ns_ia5_list                                    output.o
v3_nscert                                         output.o
v3_ocsp_accresp                                   output.o
v3_ocsp_acutoff                                   output.o
v3_ocsp_crlid                                     output.o
v3_ocsp_nocheck                                   output.o
v3_ocsp_nonce                                     output.o
v3_ocsp_serviceloc                                output.o
v3_pci                                            output.o
v3_pkey_usage_period                              output.o
v3_policy_constraints                             output.o
v3_policy_mappings                                output.o
v3_sinfo                                          output.o
v3_skey_id                                        output.o
v3_sxnet                                          output.o
vcpu_list_foreach                                 output.o
vga_fill_rect                                     output.o
vga_get_screen_size                               output.o
vga_is_ready                                      output.o
vga_register                                      output.o
vga_transfer_image                                output.o
vmctl_svm_init                                    output.o
vmctl_vt_init                                     output.o
vmm_base_cr3                                      output.o
vmm_main                                          output.o
vmm_pd                                            output.o
vmm_pd1                                           output.o
vmm_pd2                                           output.o
vmm_pdp                                           output.o
vmm_pml4                                          output.o
vmm_start_inf                                     output.o
vmm_term_inf                                      output.o
vmmcall                                           output.o
vmmcall_boot_continue                             output.o
vmmcall_boot_enable                               output.o
vmmcall_init                                      output.o
vmmcall_register                                  output.o
vmmsize                                           output.o
vpn_FreeTimer                                     output.o
vpn_GetCurrentCpuId                               output.o
vpn_GetPhysicalNicInfo                            output.o
vpn_GetTickCount                                  output.o
vpn_GetVirtualNicInfo                             output.o
vpn_NewTimer                                      output.o
vpn_SendPhysicalNic                               output.o
vpn_SendVirtualNic                                output.o
vpn_SetPhysicalNicRecvCallback                    output.o
vpn_SetTimer                                      output.o
vpn_SetVirtualNicRecvCallback                     output.o
vpn_ic_rsa_sign                                   output.o
vpn_new_nic                                       output.o
vpn_premap_PhysicalNicRecv                        output.o
vpn_premap_VirtualNicRecv                         output.o
vpn_premap_recvbuf                                output.o
vpn_start                                         output.o
vpn_user_init                                     output.o
vprintf                                           output.o
vramwrite_clearscreen                             output.o
vramwrite_exit_global                             output.o
vramwrite_get_cursor_pos                          output.o
vramwrite_init_global                             output.o
vramwrite_mark1                                   output.o
vramwrite_mark2                                   output.o
vramwrite_mark3                                   output.o
vramwrite_putchar                                 output.o
vramwrite_restore_cursor                          output.o
vramwrite_save_and_move_cursor                    output.o
vsnprintf                                         output.o
vt__vmx_init                                      output.o
vt__vmxon                                         output.o
vt_add_guest_msr                                  output.o
vt_available                                      output.o
vt_enable_resume                                  output.o
vt_ept_clear_all                                  output.o
vt_ept_extern_mapsearch                           output.o
vt_ept_init                                       output.o
vt_ept_map_1mb                                    output.o
vt_ept_tlbflush                                   output.o
vt_ept_updatecr3                                  output.o
vt_ept_violation                                  output.o
vt_extern_iopass                                  output.o
vt_generate_external_int                          output.o
vt_generate_pagefault                             output.o
vt_get_current_regs_in_vmcs                       output.o
vt_get_vmcs_regs_in_vmcs                          output.o
vt_init                                           output.o
vt_init_signal                                    output.o
vt_io                                             output.o
vt_iopass                                         output.o
vt_iopass_init                                    output.o
vt_msr_init                                       output.o
vt_msr_update_lma                                 output.o
vt_paging_apply_fixed_cr0                         output.o
vt_paging_apply_fixed_cr4                         output.o
vt_paging_clear_all                               output.o
vt_paging_extern_flush_tlb_entry                  output.o
vt_paging_flush_guest_tlb                         output.o
vt_paging_get_gpat                                output.o
vt_paging_init                                    output.o
vt_paging_invalidate                              output.o
vt_paging_map_1mb                                 output.o
vt_paging_npf                                     output.o
vt_paging_pagefault                               output.o
vt_paging_pg_change                               output.o
vt_paging_set_gpat                                output.o
vt_paging_spt_setcr3                              output.o
vt_paging_start                                   output.o
vt_paging_tlbflush                                output.o
vt_paging_updatecr3                               output.o
vt_panic_dump                                     output.o
vt_read_control_reg                               output.o
vt_read_flags                                     output.o
vt_read_gdtr                                      output.o
vt_read_general_reg                               output.o
vt_read_guest_msr                                 output.o
vt_read_idtr                                      output.o
vt_read_ip                                        output.o
vt_read_msr                                       output.o
vt_read_sreg_acr                                  output.o
vt_read_sreg_base                                 output.o
vt_read_sreg_limit                                output.o
vt_read_sreg_sel                                  output.o
vt_reset                                          output.o
vt_resume                                         output.o
vt_start_vm                                       output.o
vt_update_exception_bmp                           output.o
vt_vmexit                                         output.o
vt_vminit                                         output.o
vt_vmptrld                                        output.o
vt_write_control_reg                              output.o
vt_write_flags                                    output.o
vt_write_gdtr                                     output.o
vt_write_general_reg                              output.o
vt_write_guest_msr                                output.o
vt_write_idtr                                     output.o
vt_write_ip                                       output.o
vt_write_msr                                      output.o
vt_write_realmode_seg                             output.o
vt_writing_sreg                                   output.o
waitcycles                                        output.o
wakeup_cont                                       output.o
wakeup_entry_addr                                 output.o
wakeup_entry_cr0                                  output.o
wakeup_entry_cr3                                  output.o
wakeup_entry_cr4                                  output.o
wakeup_entry_end                                  output.o
wakeup_entry_gdtr                                 output.o
wakeup_entry_start                                output.o
wakeup_init                                       output.o
wakeup_main                                       output.o
whirlpool_block                                   output.o
write_gphys_b                                     output.o
write_gphys_l                                     output.o
write_gphys_q                                     output.o
write_gphys_w                                     output.o
write_hphys_b                                     output.o
write_hphys_l                                     output.o
write_hphys_q                                     output.o
write_hphys_w                                     output.o
write_linearaddr_b                                output.o
write_linearaddr_l                                output.o
write_linearaddr_ok_b                             output.o
write_linearaddr_ok_l                             output.o
write_linearaddr_ok_w                             output.o
write_linearaddr_q                                output.o
write_linearaddr_tss                              output.o
write_linearaddr_w                                output.o
x509_name_ff                                      output.o
zero_page_pool                                    output.o
