
Allocating common symbols
Common symbol       size              file

clflush_size        0x4               output.o
sReaderContext      0x60              output.o
sigx_app            0x8               output.o
num_dom             0x4               output.o
mszReaders          0x400             output.o
prohibit_iccard_init
                    0x4               output.o
curthread           0x8               output.o
sig_app             0x8               output.o
readerState         0x64              output.o
dom_io              0x800             output.o
acpi_dsdt_system_state
                    0x1e              output.o
ehci_host           0x8               output.o
num_of_processors   0x4               output.o
e801_fake_bx        0x2               output.o
iommu_detected      0x1               output.o
dwReaders           0x8               output.o
readerTracker       0x140             output.o
handler_descriptor_lock
                    0x1               output.o
e801_fake_ax        0x2               output.o

Discarded input sections

 .gomi          0x0000000000000000        0xe output.o

Memory Configuration

Name             Origin             Length             Attributes
*default*        0x0000000000000000 0xffffffffffffffff

Linker script and memory map

                0x0000000040100000                virt = 0x40100000
                0x0000000000100000                phys = 0x100000
                0x0000000040100000                . = virt
                0x0000000040100000                head = .
                0x00000000401000b0                . = (virt + SIZEOF_HEADERS)

.text           0x0000000040101000   0x1146a8 load address 0x0000000000101000
                0x0000000040101000                code = .
 *(.entry)
 .entry         0x0000000040101000     0x6000 output.o
                0x000000004010100c                entry
                0x000000004010109a                cpuinit_start
                0x00000000401012c8                vmm_base_cr3
                0x00000000401012e0                apinit_procs
                0x00000000401012e8                apinit_lock
                0x00000000401012f0                cpuinit_end
                0x0000000040103000                entry_pdp
                0x0000000040104000                entry_pd0
                0x0000000040105000                entry_pd
 *(.text)
 .text          0x0000000040107000   0x10e6a8 output.o
                0x0000000040107654                acpi_smi_hook
                0x00000000401076a1                acpi_iohook
                0x00000000401076f3                acpi_reset
                0x00000000401077f1                acpi_poweroff
                0x000000004010782a                get_acpi_time_raw
                0x000000004010cbef                acpi_dsdt_parse
                0x000000004010cd9a                apinitproc0
                0x000000004010cdc3                apic_available
                0x000000004010cdf1                ap_start_addr
                0x000000004010d04b                panic_wakeup_all
                0x000000004010d0db                disable_apic
                0x000000004010d14f                sync_all_processors
                0x000000004010d1df                start_all_processors
                0x000000004010d220                assertion_failed
                0x000000004010d255                beep_set_freq
                0x000000004010d283                beep_on
                0x000000004010d293                beep_off
                0x000000004010d8e2                update_mtrr_and_pat
                0x000000004010db31                cache_get_gpat
                0x000000004010db84                cache_set_gpat
                0x000000004010dbcd                cache_get_attr
                0x000000004010dc82                cache_get_gmtrr_type
                0x000000004010dc8d                cache_get_gmtrr_attr
                0x000000004010dca0                cache_get_gmtrrcap
                0x000000004010dcce                cache_get_gmtrr
                0x000000004010de2b                cache_set_gmtrr
                0x000000004010de85                cache_get_gmsr_amd
                0x000000004010ded5                cache_set_gmsr_amd
                0x000000004010e311                callrealmode_endofcodeaddr
                0x000000004010e322                callrealmode_usevcpu
                0x000000004010e32f                callrealmode_printmsg
                0x000000004010e34c                callrealmode_getsysmemmap
                0x000000004010e3a9                callrealmode_getshiftflags
                0x000000004010e3c7                callrealmode_setvideomode
                0x000000004010e3e5                callrealmode_reboot
                0x000000004010e3ff                callrealmode_tcgbios
                0x000000004010e493                callrealmode_disk_readmbr
                0x000000004010e4d2                callrealmode_disk_readlba
                0x000000004010e519                callrealmode_bootcd_getstatus
                0x000000004010e56e                callrealmode_setcursorpos
                0x000000004010e593                callrealmode_startkernel32
                0x000000004010e5b3                callrealmode_getfontinfo
                0x000000004010e634                get_cpu_id
                0x000000004010e650                cpu_emul_cpuid
                0x000000004010e704                cpu_emul_rdmsr
                0x000000004010e77d                cpu_emul_wrmsr
                0x000000004010e7ea                cpu_emul_hlt
                0x000000004010e802                cpu_emul_cli
                0x000000004010e83b                cpu_emul_sti
                0x000000004010e882                cpu_emul_realmode_int
                0x000000004010e9ff                cpu_emul_xsetbv
                0x0000000040111250                cpu_interpreter
                0x000000004011358c                cpu_mmu_get_pte
                0x0000000040113f35                write_linearaddr_ok_b
                0x0000000040113f57                write_linearaddr_ok_w
                0x0000000040113f62                write_linearaddr_ok_l
                0x0000000040113f6d                write_linearaddr_b
                0x0000000040113fe5                write_linearaddr_w
                0x0000000040114088                write_linearaddr_l
                0x0000000040114129                write_linearaddr_q
                0x00000000401141c8                read_linearaddr_b
                0x000000004011423f                read_linearaddr_w
                0x00000000401142db                read_linearaddr_l
                0x0000000040114378                read_linearaddr_q
                0x0000000040114415                read_linearaddr_tss
                0x00000000401144ba                write_linearaddr_tss
                0x000000004011854d                cpu_mmu_spt_tlbflush
                0x0000000040118588                cpu_mmu_spt_updatecr3
                0x0000000040118821                cpu_mmu_spt_invalidate
                0x00000000401188a9                cpu_mmu_spt_pagefault
                0x0000000040118a99                cpu_mmu_spt_extern_mapsearch
                0x0000000040118bda                cpu_mmu_spt_map_1mb
                0x0000000040118d36                cpu_mmu_spt_clear_all
                0x0000000040118e95                cpu_mmu_spt_init
                0x0000000040119504                cpu_seg_read_b
                0x000000004011957b                cpu_seg_read_w
                0x00000000401195f2                cpu_seg_read_l
                0x0000000040119669                cpu_seg_read_q
                0x00000000401196e0                cpu_seg_write_b
                0x0000000040119758                cpu_seg_write_w
                0x00000000401197d0                cpu_seg_write_l
                0x0000000040119847                cpu_seg_write_q
                0x00000000401198c0                cpu_stack_get
                0x000000004011992a                cpu_stack_set
                0x00000000401199bf                cpu_stack_push
                0x0000000040119a71                cpu_stack_pop
                0x0000000040119b60                call_cpuid
                0x0000000040119f39                debug_addstr
                0x0000000040119f3f                debug_gdb
                0x0000000040119f45                debug_iohook
                0x0000000040119f4b                debug_msgregister
                0x0000000040119f7b                debug_msgunregister
                0x000000004011a019                do_exint_pass
                0x000000004011a0b0                read_gphys_b
                0x000000004011a12c                write_gphys_b
                0x000000004011a1af                read_gphys_w
                0x000000004011a255                write_gphys_w
                0x000000004011a306                read_gphys_l
                0x000000004011a3ac                write_gphys_l
                0x000000004011a460                read_gphys_q
                0x000000004011a506                write_gphys_q
                0x000000004011a5b7                cmpxchg_gphys_l
                0x000000004011a683                cmpxchg_gphys_q
                0x000000004011aab1                gmm_pass_gp2hp
                0x000000004011ac22                idman_reinit_session
                0x000000004011ac9d                idman_reinit2
                0x000000004011acbe                get_idman_session
                0x000000004011ad00                call_initfunc
                0x000000004011ad64                initfunc_init
                0x000000004011c8ee                int_fatal
                0x000000004011cc6f                callfunc_and_getint
                0x000000004011cc83                do_externalint_enable
                0x000000004011cc98                set_int_handler
                0x000000004011ccb7                int_exceptionHandler
                0x000000004011ccc2                int_init_ap
                0x000000004011cd16                do_io_nothing
                0x000000004011cd52                set_iofunc
                0x000000004011cdf3                call_io
                0x000000004011cf3c                do_iopass_default
                0x000000004011d0d3                keyboard_reset
                0x000000004011d118                setkbdled
                0x000000004011d179                keyboard_flush
                0x000000004011d1a0                load_bootsector
                0x000000004011d569                copy_bootsector
                0x000000004011d80a                localapic_wait_for_sipi
                0x000000004011d897                localapic_change_base_msr
                0x000000004011d8e3                localapic_mmio_register
                0x000000004011e2ba                resume_vm
                0x000000004011e375                vmm_main
                0x000000004011e760                getsysmemmap
                0x000000004011e7e8                getfakesysmemmap
                0x000000004011e86c                phys_to_virt
                0x000000004011e882                vmm_start_inf
                0x000000004011e88e                vmm_term_inf
                0x000000004011e89f                num_of_available_pages
                0x000000004011e90b                alloc_pages
                0x000000004011e994                alloc_page
                0x000000004011e9a4                alloc
                0x000000004011ec21                alloc2
                0x000000004011ec6e                free
                0x000000004011ed8d                realloc
                0x000000004011eede                free_page
                0x000000004011eef1                free_page_phys
                0x000000004011ef0c                mempool_new
                0x000000004011ef77                mempool_free
                0x000000004011f027                mempool_allocmem
                0x000000004011f20a                mempool_freemem
                0x000000004011f4c0                sym_to_phys
                0x000000004011f4d4                phys_in_vmm
                0x000000004011f4f0                mm_force_unlock
                0x000000004011f519                mm_process_alloc
                0x000000004011f6e9                mm_process_free
                0x000000004011f730                mm_process_switch
                0x000000004011f74e                pmap_open_vmm
                0x000000004011f779                pmap_open_guest
                0x000000004011f7bb                pmap_close
                0x000000004011f7c1                pmap_getreadlevel
                0x000000004011f7cd                pmap_setlevel
                0x000000004011f7d9                pmap_seek
                0x000000004011f846                pmap_read
                0x000000004011fa71                pmap_write
                0x000000004011fc08                mm_process_unmap_stack
                0x000000004011fdef                mm_process_unmap
                0x000000004011fed1                mm_process_unmapall
                0x000000004011ff78                pmap_pointer
                0x000000004011ffd9                pmap_clear
                0x00000000401200c6                pmap_autoalloc
                0x00000000401207fd                mm_process_map_stack
                0x0000000040120b62                mm_process_map_shared_physpage
                0x0000000040120bd6                mm_process_map_shared
                0x0000000040120e00                mm_process_map_alloc
                0x0000000040120f32                pmap_dump
                0x000000004012104a                unmapmem
                0x000000004012112b                mapmem
                0x00000000401215fe                cmpxchg_hphys_q
                0x000000004012165c                cmpxchg_hphys_l
                0x00000000401216ba                write_hphys_q
                0x00000000401216ee                read_hphys_q
                0x0000000040121725                write_hphys_l
                0x0000000040121757                read_hphys_l
                0x000000004012178c                write_hphys_w
                0x00000000401217bf                read_hphys_w
                0x00000000401217f6                write_hphys_b
                0x0000000040121828                read_hphys_b
                0x000000004012188b                mapmem_hphys
                0x00000000401218a3                alloc_realmodemem
                0x0000000040121946                mapmem_gphys
                0x000000004012195e                mm_flush_wb_cache
                0x0000000040121d7f                mmio_access_memory
                0x0000000040121ed6                mmio_access_page
                0x0000000040121f97                mmio_register
                0x000000004012219a                mmio_unregister
                0x0000000040122221                mmio_lock
                0x000000004012223c                mmio_unlock
                0x00000000401222ce                msg_findname
                0x0000000040122348                msg_register
                0x000000004012242a                msg_unregister
                0x00000000401224a5                msg_unregisterall
                0x0000000040122531                msg_unregister2
                0x00000000401225fe                call_read_msr
                0x0000000040122612                call_write_msr
                0x00000000401228f0                load_minios
                0x0000000040123110                backtrace
                0x00000000401236ac                panic
                0x0000000040123c24                auto_reboot
                0x0000000040123c41                panic_test
                0x0000000040123c64                pcpu_list_foreach
                0x0000000040123ca3                pcpu_list_add
                0x0000000040123cf5                pcpu_init
                0x0000000040124755                vprintf
                0x0000000040124790                printf
                0x00000000401247ce                vsnprintf
                0x0000000040124812                snprintf
                0x0000000040124a79                sys_msgsetfunc
                0x0000000040124b1e                sys_msgclose
                0x0000000040124b3b                sys_msgret
                0x0000000040124b4d                sys_exitprocess
                0x0000000040124dfd                sys_msgsenddesc
                0x0000000040124eb5                sys_msgunregister
                0x00000000401255d1                sys_msgsendbuf
                0x0000000040125783                sys_msgsendint
                0x0000000040125a22                sys_newprocess
                0x0000000040125ac3                sys_msgopen
                0x0000000040125c03                sys_msgregister
                0x0000000040125c81                process_kill
                0x0000000040125cd8                msgsetfunc
                0x0000000040125ced                msgregister
                0x0000000040125d03                msgopen
                0x0000000040125d16                msgclose
                0x0000000040125d28                msgsendint
                0x0000000040125d3c                msgsenddesc
                0x0000000040125d50                newprocess
                0x0000000040125d63                msgsendbuf
                0x0000000040125d7d                msgunregister
                0x0000000040125d8f                exitprocess
                0x0000000040125da2                msgpremapbuf
                0x0000000040125ecc                process_syscall
                0x0000000040125f78                putchar
                0x0000000040125fb6                putchar_set_func
                0x00000000401262b7                do_panic_reboot
                0x0000000040126341                handle_init_to_bsp
                0x0000000040126362                reboot_test
                0x0000000040126392                savemsr_save
                0x000000004012640e                savemsr_load
                0x0000000040126a36                get_seg_base
                0x0000000040126af4                get_seg_access_rights
                0x0000000040126b14                segment_wakeup
                0x0000000040126b56                segment_init_ap
                0x0000000040126e1b                serial_putDebugChar
                0x0000000040126e2d                serial_getDebugChar
                0x0000000040126e42                serial_putchar
                0x0000000040126e96                serial_init_iohook
                0x0000000040126f04                waitcycles
                0x0000000040126f26                usleep
                0x0000000040126ffb                sleep_set_timer_counter
                0x0000000040127162                vmctl_svm_init
                0x000000004012720c                message_exitcode
                0x000000004012778f                printexitcode
                0x0000000040127948                svm_available
                0x0000000040127a06                svm_reset
                0x0000000040127b0a                svm_vminit
                0x0000000040127d45                svm_vmexit
                0x0000000040127d4b                svm_init
                0x0000000040127e95                svm_enable_resume
                0x0000000040127f9a                svm_resume
                0x00000000401280f0                svm_ioio
                0x00000000401281f0                svm_extern_iopass
                0x0000000040128363                svm_init_signal
                0x0000000040128386                svm_start_vm
                0x0000000040128e40                svm_msr_update_lma
                0x0000000040128eb5                svm_read_msr
                0x000000004012915a                svm_write_msr
                0x00000000401296aa                svm_np_init
                0x0000000040129792                svm_np_pagefault
                0x00000000401297d8                svm_np_tlbflush
                0x00000000401297de                svm_np_updatecr3
                0x00000000401297e9                svm_np_clear_all
                0x000000004012987c                svm_np_extern_mapsearch
                0x0000000040129907                svm_np_map_1mb
                0x0000000040129960                svm_paging_extern_flush_tlb_entry
                0x0000000040129987                svm_paging_map_1mb
                0x00000000401299b1                svm_paging_flush_guest_tlb
                0x00000000401299f0                svm_paging_init
                0x0000000040129b0e                svm_paging_pagefault
                0x0000000040129b3a                svm_paging_tlbflush
                0x0000000040129b61                svm_paging_invalidate
                0x0000000040129b8d                svm_paging_npf
                0x0000000040129bb9                svm_paging_updatecr3
                0x0000000040129be1                svm_paging_spt_setcr3
                0x0000000040129c16                svm_paging_clear_all
                0x0000000040129c41                svm_paging_get_gpat
                0x0000000040129c4c                svm_paging_set_gpat
                0x0000000040129c99                svm_paging_apply_fixed_cr0
                0x0000000040129cbc                svm_paging_apply_fixed_cr4
                0x0000000040129ce0                svm_paging_pg_change
                0x0000000040129ce6                svm_paging_start
                0x0000000040129cf8                svm_panic_dump
                0x0000000040129dd0                svm_read_general_reg
                0x0000000040129f39                svm_write_general_reg
                0x000000004012a06f                svm_read_control_reg
                0x000000004012a105                svm_write_control_reg
                0x000000004012a1f1                svm_read_sreg_sel
                0x000000004012a2bd                svm_read_sreg_acr
                0x000000004012a39c                svm_read_sreg_base
                0x000000004012a4be                svm_read_sreg_limit
                0x000000004012a5d5                svm_read_ip
                0x000000004012a5f4                svm_write_ip
                0x000000004012a61a                svm_read_flags
                0x000000004012a639                svm_write_flags
                0x000000004012a655                svm_read_gdtr
                0x000000004012a68c                svm_write_gdtr
                0x000000004012a6b5                svm_read_idtr
                0x000000004012a6ec                svm_write_idtr
                0x000000004012a715                svm_write_realmode_seg
                0x000000004012a865                svm_writing_sreg
                0x000000004012a987                int1a_TCG_StatusCheck
                0x000000004012aa4c                int1a_TCG_HashLogExtendEvent
                0x000000004012aadd                int1a_TCG_PassThroughToTPM
                0x000000004012ab6e                int1a_TCG_HashLogEvent
                0x000000004012abef                int1a_TCG_HashAll
                0x000000004012aca7                int1a_TCG_TSS
                0x000000004012ad38                int1a_TCG_CompactHashLogExtendEvent
                0x000000004012ad99                tcg_measure
                0x000000004012b0dd                thread_gettid
                0x000000004012b0f2                schedule
                0x000000004012b303                thread_new
                0x000000004012b426                thread_wakeup
                0x000000004012b503                thread_will_stop
                0x000000004012b57b                thread_exit
                0x000000004012b61f                thread_start1
                0x000000004012b64f                thread_set_process_switch
                0x000000004012b800                get_cpu_time
                0x000000004012b8d3                get_acpi_time
                0x000000004012b983                get_time
                0x000000004012bb65                timer_new
                0x000000004012bbe6                timer_set
                0x000000004012bcdc                timer_free
                0x000000004012bee2                tty_putchar
                0x000000004012c096                ttylog_stop
                0x000000004012c0a6                tty_udp_register
                0x000000004012c0f8                tty_init_iohook
                0x000000004012c11c                vcpu_list_foreach
                0x000000004012c15b                load_new_vcpu
                0x000000004012c215                vga_register
                0x000000004012c297                vga_is_ready
                0x000000004012c2f7                vga_transfer_image
                0x000000004012c344                vga_fill_rect
                0x000000004012c37e                vga_get_screen_size
                0x000000004012c4a8                vmmcall
                0x000000004012c501                vmmcall_register
                0x000000004012c53f                vmmcall_init
                0x000000004012c900                vmmcall_boot_continue
                0x000000004012c94b                vmmcall_boot_enable
                0x000000004012d1a7                register_status_callback
                0x000000004012d2bf                vramwrite_clearscreen
                0x000000004012d316                vramwrite_putchar
                0x000000004012d4ee                vramwrite_mark1
                0x000000004012d540                vramwrite_mark2
                0x000000004012d5a0                vramwrite_mark3
                0x000000004012d600                vramwrite_save_and_move_cursor
                0x000000004012d645                vramwrite_restore_cursor
                0x000000004012d657                vramwrite_get_cursor_pos
                0x000000004012d6b7                vramwrite_init_global
                0x000000004012d6c4                vramwrite_exit_global
                0x000000004012d74e                vt_generate_external_int
                0x000000004012d7a1                vt_generate_pagefault
                0x000000004012d857                vmctl_vt_init
                0x000000004012d8ff                vt_vmptrld
                0x000000004012dbec                vt_ept_init
                0x000000004012dcdc                vt_ept_violation
                0x000000004012dd65                vt_ept_tlbflush
                0x000000004012dd6b                vt_ept_updatecr3
                0x000000004012de5d                vt_ept_clear_all
                0x000000004012def0                vt_ept_extern_mapsearch
                0x000000004012df7b                vt_ept_map_1mb
                0x000000004012dfd0                message_exitreason
                0x000000004012e139                printexitreason
                0x000000004012eab0                vt_available
                0x000000004012eb4a                vt__vmx_init
                0x000000004012eb92                vt__vmxon
                0x000000004012ec3f                vt_vminit
                0x000000004012ec9b                vt_vmexit
                0x000000004012ecb5                vt_init
                0x000000004012ecc5                vt_enable_resume
                0x000000004012edfe                vt_resume
                0x000000004012ef97                vt_io
                0x000000004012f0c8                vt_iopass_init
                0x000000004012f25d                vt_iopass
                0x000000004012f2ae                vt_extern_iopass
                0x000000004012fec3                vt_update_exception_bmp
                0x0000000040130480                vt_init_signal
                0x000000004013048b                vt_start_vm
                0x0000000040130871                vt_add_guest_msr
                0x00000000401309b4                vt_read_guest_msr
                0x00000000401309e5                vt_write_guest_msr
                0x0000000040130a13                vt_msr_update_lma
                0x0000000040130aeb                vt_read_msr
                0x0000000040130d8f                vt_write_msr
                0x0000000040131057                vt_msr_init
                0x0000000040131253                vt_paging_extern_flush_tlb_entry
                0x00000000401312c1                vt_paging_map_1mb
                0x00000000401312e1                vt_paging_flush_guest_tlb
                0x0000000040131341                vt_paging_pagefault
                0x0000000040131384                vt_paging_tlbflush
                0x00000000401313a7                vt_paging_invalidate
                0x00000000401313da                vt_paging_npf
                0x000000004013141d                vt_paging_updatecr3
                0x0000000040131451                vt_paging_spt_setcr3
                0x000000004013147c                vt_paging_clear_all
                0x00000000401314af                vt_paging_get_gpat
                0x00000000401314ba                vt_paging_set_gpat
                0x000000004013151a                vt_paging_apply_fixed_cr0
                0x0000000040131582                vt_paging_apply_fixed_cr4
                0x00000000401315ca                vt_paging_pg_change
                0x000000004013174d                vt_paging_init
                0x00000000401317c8                vt_paging_start
                0x00000000401317f7                vt_panic_dump
                0x00000000401319a0                vt_read_general_reg
                0x0000000040131aee                vt_write_general_reg
                0x0000000040131c0c                vt_read_control_reg
                0x0000000040131c7c                vt_read_sreg_sel
                0x0000000040131d96                vt_read_sreg_acr
                0x0000000040131df5                vt_read_sreg_base
                0x0000000040131ead                vt_read_sreg_limit
                0x0000000040131f60                vt_read_ip
                0x0000000040131f6e                vt_write_ip
                0x0000000040131f8e                vt_read_flags
                0x0000000040131fb4                vt_write_flags
                0x0000000040131fdf                vt_read_gdtr
                0x0000000040131ff4                vt_write_gdtr
                0x0000000040132009                vt_read_idtr
                0x000000004013204d                vt_write_idtr
                0x0000000040132083                vt_write_control_reg
                0x000000004013255f                vt_get_current_regs_in_vmcs
                0x0000000040132807                vt_get_vmcs_regs_in_vmcs
                0x0000000040132984                vt_write_realmode_seg
                0x0000000040132ac7                vt_writing_sreg
                0x0000000040132b50                vt_reset
                0x0000000040132e2f                prepare_for_sleep
                0x0000000040132f06                cancel_sleep
                0x0000000040132f28                wakeup_main
                0x0000000040132fb0                wakeup_cont
                0x00000000401330da                wakeup_init
                0x0000000040133124                call_xsetbv
                0x0000000040133190                mpumul_64_64
                0x00000000401331b0                mpudiv_128_32
                0x00000000401331d0                ipchecksum
                0x0000000040133260                asm_vmlaunch_regs_32
                0x00000000401332e0                asm_vmresume_regs_32
                0x0000000040133360                asm_vmrun_regs_32
                0x00000000401333c0                asm_vmlaunch_regs_64
                0x00000000401334a0                asm_vmresume_regs_64
                0x0000000040133580                asm_vmrun_regs_64
                0x0000000040133624                callrealmode_start
                0x000000004013363a                callrealmode_start2
                0x0000000040133ac6                callrealmode_end
                0x0000000040133ac8                move_vmm_area32
                0x0000000040133aed                move_vmm_area64
                0x0000000040133b18                int_handler
                0x0000000040133b90                int_callfunc
                0x0000000040134000                syscall_entry_sysexit
                0x000000004013402c                syscall_entry_lret
                0x000000004013405c                ret_to_user32
                0x0000000040134068                syscall_entry_sysret64
                0x00000000401340b0                ret_to_user64
                0x0000000040135000                processuser_sysenter
                0x0000000040136000                processuser_no_sysenter
                0x0000000040137000                processuser_syscall
                0x0000000040138140                memset
                0x00000000401381c0                memcpy
                0x0000000040138200                strcmp
                0x0000000040138240                memcmp
                0x0000000040138280                strlen
                0x0000000040138298                sx_handler
                0x00000000401382f0                thread_switch
                0x0000000040138310                thread_start0
                0x000000004013834c                monitor_vmcs_read
                0x0000000040138355                get_guest_eptp_value
                0x0000000040138365                get_guest_cr3_value
                0x0000000040138378                hypercall_handler
                0x0000000040138397                syscall_handler
                0x000000004013839d                close_syscall_page
                0x00000000401383a3                open_syscall_page
                0x00000000401383ac                get_page_table_base_GPA
                0x00000000401383c2                get_ept_base_HPA
                0x00000000401383d8                traverseGuestPages
                0x00000000401383e4                initializeNewProtectedApplication
                0x00000000401383ea                allocateNewVMID
                0x0000000040138400                allocateNewAppID
                0x0000000040138418                allocateNewApplicationIdentifiers
                0x0000000040138453                protectCurrentApplication
                0x000000004013849b                getMemoryOwnershipTableIndex
                0x00000000401384a8                changePageStatus
                0x00000000401385e5                openPage
                0x0000000040138684                closePage
                0x0000000040138736                getMemoryOwnershipTableEntry
                0x0000000040138770                traverseIA32ePages
                0x00000000401389b4                traverseIA32ePDPT
                0x0000000040138b5d                traverseIA32ePDT
                0x0000000040138c7a                traverseIA32ePT
                0x0000000040138d1a                gvaToGPA
                0x0000000040139030                mapHPAintoHVA
                0x0000000040139057                unmapHPAintoHVA
                0x0000000040139062                gpaToHPA
                0x00000000401391fc                test_start
                0x000000004013923c                test_gpaToHPA
                0x0000000040139276                test_traverseGuestPages
                0x00000000401392b3                test_logicalCPUStatus
                0x00000000401392e0                core_init
                0x000000004013939a                core_mm_read_guest_phys
                0x00000000401393af                core_mm_write_guest_phys
                0x00000000401393c4                alloc_handler_descriptor
                0x00000000401393d4                core_io_modify_handler
                0x0000000040139492                core_io_unregister_handler
                0x0000000040139519                core_io_handle_default
                0x00000000401397a1                panic_oom
                0x00000000401397b4                core_io_register_handler
                0x00000000401398e8                matched_drhd_u
                0x000000004013993d                parse_dmar_bios_report
                0x0000000040139988                ieee1394_init
                0x00000000401399c0                iommu_setup
                0x00000000401399c6                iodom_init
                0x0000000040139b87                add_remap
                0x0000000040139c14                create_dom
                0x0000000040139f37                pci_conceal_new_device
                0x000000004013a2f5                pci_conceal_config_data_handler
                0x000000004013a30c                pci_save_config_addr
                0x000000004013a31e                pci_restore_config_addr
                0x000000004013a330                pci_append_device
                0x000000004013a362                pci_config_data_handler
                0x000000004013a68b                pci_config_addr_handler
                0x000000004013a6d3                pci_register_driver
                0x000000004013a772                pci_read_config_data8
                0x000000004013a7b8                pci_read_config_data16
                0x000000004013a7ff                pci_read_config_data32
                0x000000004013a845                pci_write_config_data8
                0x000000004013a889                pci_write_config_data16
                0x000000004013a8ce                pci_write_config_data32
                0x000000004013a912                pci_read_config_data_port
                0x000000004013a944                pci_write_config_data_port
                0x000000004013a97a                pci_handle_default_config_write
                0x000000004013a9bc                pci_print_device
                0x000000004013ad1c                pci_possible_new_device
                0x000000004013ad40                security_storage_check_lba
                0x000000004013e2ba                ahci_new
                0x000000004013e550                ahci_config_read
                0x000000004013e5ae                ahci_config_write
                0x000000004013e744                ata_bm_handle_prd_table
                0x000000004013e98d                ata_bm_handle_status
                0x000000004013ea4d                ata_bm_handle_command
                0x000000004013eb90                ata_bm_handler
                0x000000004013eca8                ata_get_cmd_type
                0x000000004013f262                ata_handle_queued_status
                0x000000004013fa97                ata_channel_lock
                0x000000004013fb13                ata_channel_unlock
                0x000000004014069b                ata_ctlblk_handler
                0x00000000401407a3                ata_cmdblk_handler
                0x00000000401408cc                ata_ahci_mode
                0x0000000040140dcf                ata_init_io_handler
                0x0000000040140e72                ata_set_bm_handler
                0x0000000040140ed7                ata_set_cmdblk_handler
                0x0000000040140f1d                ata_set_ctlblk_handler
                0x0000000040140f65                ata_config_read
                0x0000000040141027                ata_config_write
                0x00000000401411c0                ata_init_vendor
                0x00000000401411e7                ata_bm_handle_device_specific
                0x00000000401412e0                atapi_handle_config_data
                0x0000000040141527                atapi_handle_interrupt_reason
                0x0000000040141580                atapi_handle_pio_identify_packet
                0x000000004014170f                atapi_handle_packet_data
                0x000000004014171a                atapi_handle_cmd_packet
                0x0000000040141794                packet_handle_through
                0x00000000401417c9                packet_handle_nondata
                0x00000000401417e3                packet_handle_config
                0x000000004014182f                packet_handle_rw
                0x00000000401418b1                packet_handle_invalid
                0x00000000401418cb                packet_handle_command
                0x0000000040141900                uhci_init
                0x00000000401421a7                uhci_current_frame_number
                0x00000000401421c0                dump_td_byvirt
                0x000000004014238d                dump_td
                0x000000004014246d                dump_qh
                0x0000000040142635                dump_frame
                0x000000004014273a                uhci_dump_all
                0x00000000401428fc                uhci_error_status_string
                0x0000000040142bdd                uhci_shadow_buffer
                0x0000000040142e62                uhci_framelist_monitor
                0x0000000040144dd0                scan_gframelist
                0x00000000401456a3                uhci_create_urb
                0x00000000401457fc                uhci_destroy_urb
                0x0000000040145929                uhci_destroy_unlinked_urbs
                0x00000000401459eb                uhci_deactivate_urb
                0x0000000040145d74                uhci_activate_urb
                0x00000000401462c8                uhci_reactivate_urb
                0x000000004014636e                uhci_submit_control
                0x0000000040146972                uhci_submit_interrupt
                0x00000000401469d6                uhci_submit_bulk
                0x0000000040146a3a                uhci_check_urb_advance
                0x0000000040146a7f                uhci_check_advance
                0x0000000040146c8a                init_hframelist
                0x0000000040146f0c                ehci_init
                0x0000000040148799                ehci_conceal_portroute
                0x0000000040148dbd                ehci_dump_qtd
                0x0000000040148e43                ehci_dump_qtdm
                0x0000000040148e78                ehci_dump_alist
                0x0000000040148f3b                ehci_dump_urblist
                0x0000000040148fd0                ehci_dump_urb
                0x000000004014948d                ehci_dump_async
                0x000000004014991c                ehci_dump_all
                0x000000004014aefa                ehci_shadow_buffer
                0x000000004014b1b4                get_gurb_by_address
                0x000000004014b248                shadow_and_activate_urb
                0x000000004014b4f8                ehci_deactivate_urb
                0x000000004014b690                deactivate_and_delete_urb
                0x000000004014b907                ehci_check_urb_advance
                0x000000004014bad7                ehci_check_advance
                0x000000004014bd0b                ehci_shadow_async_list
                0x000000004014be25                ehci_cleanup_urbs
                0x000000004014bf7a                ehci_end_monitor_async
                0x000000004014bfe3                ehci_monitor_async_list
                0x000000004014c68c                ehci_submit_control
                0x000000004014cc05                ehci_submit_bulk
                0x000000004014cc10                ehci_submit_interrupt
                0x000000004014e7da                usbmsc_init_handle
                0x000000004014ebb9                usbhub_init_handle
                0x000000004014ec32                hub_portdevice_register
                0x000000004014f2f5                usbccid_init_handle
                0x000000004014f420                usb_set_debug
                0x000000004014f42c                usb_init
                0x000000004014f432                usb_find_busses
                0x000000004014f512                usb_get_busses
                0x000000004014f51f                usb_get_bus
                0x000000004014f547                usb_find_devices
                0x000000004014f590                usb_open
                0x000000004014f5fa                usb_close
                0x000000004014f60a                usb_resetep
                0x000000004014f615                usb_clear_halt
                0x000000004014f620                usb_reset
                0x000000004014f62b                usb_claim_interface
                0x000000004014f639                usb_release_interface
                0x000000004014f64b                usb_set_configuration
                0x000000004014f8f6                usb_set_altinterface
                0x000000004014fba3                usb_control_msg
                0x000000004014feff                usb_get_string
                0x000000004015024c                usb_get_string_simple
                0x0000000040150441                usb_get_descriptor
                0x0000000040150791                usb_get_descriptor_early
                0x0000000040150aec                usb_get_descriptor_by_endpoint
                0x0000000040150e3e                usb_bulk_write
                0x0000000040151094                usb_interrupt_write
                0x00000000401512ea                usb_bulk_read
                0x00000000401515c5                usb_interrupt_read
                0x00000000401518a0                usb_register_host
                0x00000000401519b2                usb_unregister_devices
                0x00000000401519e4                usb_sc_lock
                0x0000000040151a5c                usb_sc_unlock
                0x0000000040151d83                free_config_descriptors
                0x000000004015278c                free_device
                0x00000000401528fa                handle_connect_status
                0x0000000040152a0e                handle_port_reset
                0x0000000040152aef                dprintf_port
                0x00000000401535c1                usb_init_device_monitor
                0x000000004015362b                usb_new_dev_handle
                0x00000000401536c4                usbhid_init_handle
                0x0000000040153800                usb_hook_process
                0x0000000040153aeb                usb_hook_register
                0x0000000040153bcf                usb_hook_unregister
                0x0000000040153c50                _dprintf
                0x0000000040153c9d                _dprintft
                0x0000000040153d58                pro100_io_handler
                0x0000000040153d63                pro100_init
                0x0000000040153d7c                pro100_config_write
                0x0000000040153ec1                pro100_config_read
                0x000000004015400a                pro100_init_vpn_client
                0x0000000040154049                pro100_sleep
                0x0000000040154087                pro100_beep
                0x00000000401540bf                pro100_get_ctx
                0x0000000040154162                pro100_alloc_page
                0x000000004015419c                pro100_free_page
                0x00000000401541c1                pro100_get_op_size
                0x0000000040154204                pro100_mem_read
                0x0000000040154233                pro100_read_send_packet
                0x0000000040154445                pro100_mem_write
                0x000000004015446e                pro100_write
                0x000000004015449d                pro100_read
                0x00000000401544da                pro100_flush
                0x00000000401544f4                pro100_wait_cu_ru_accepable
                0x000000004015452f                pro100_init_ru_base_addr
                0x000000004015458f                pro100_init_cu_base_addr
                0x00000000401545ef                pro100_send_packet_to_line
                0x0000000040154743                pro100_exec_cu_op
                0x000000004015489c                pro100_generate_int
                0x00000000401548cb                pro100_proc_guest_op
                0x0000000040154ac6                pro100_write_recv_packet
                0x0000000040154c5a                pro100_get_int_bit_string
                0x0000000040154cd2                pro100_get_stat_ack_string
                0x0000000040154d3f                pro100_get_cu_command_string
                0x0000000040154dc1                pro100_get_ru_command_string
                0x0000000040154e0b                pro100_init_recv_buffer
                0x0000000040154f42                pro100_alloc_recv_buffer
                0x0000000040154fb1                pro100_new
                0x000000004015507e                pro100_poll_ru
                0x0000000040155177                pro100_hook_read
                0x0000000040155336                pro100_hook_write
                0x000000004015560c                pro100_mm_handler
                0x0000000040157993                storage_premap_buf
                0x000000004015799e                storage_premap_handle_sectors
                0x0000000040157cf2                storage_get_num_hc
                0x0000000040157d24                storage_hc_open
                0x0000000040157e04                storage_hc_close
                0x0000000040157e4e                storage_hc_hook_register
                0x0000000040157ed3                storage_hc_hook_unregister
                0x0000000040157f6d                storage_hc_register
                0x0000000040158138                storage_hc_unregister
                0x000000004015823d                storage_hc_scandev
                0x0000000040158281                storage_hc_dev_open
                0x00000000401583bf                storage_hc_dev_atacommand
                0x0000000040158592                storage_hc_dev_close
                0x000000004015865a                storage_io_init
                0x000000004015866f                storage_io_deinit
                0x000000004015867a                storage_io_get_num_devices
                0x0000000040158738                storage_io_aget_size
                0x000000004015889f                storage_io_aread
                0x0000000040158abb                storage_io_awrite
                0x0000000040159232                storage_handle_sectors
                0x000000004015947b                storage_new
                0x00000000401596c2                storage_free
                0x00000000401598c1                storage_init
                0x0000000040159af5                aes_xts_init
                0x0000000040159b28                crypto_find
                0x0000000040159b7b                crypto_register
                0x0000000040159bcb                crypto_init
                0x0000000040159c22                crypto_none_init
                0x0000000040159c5a                vpn_GetCurrentCpuId
                0x0000000040159c65                vpn_GetTickCount
                0x0000000040159c95                vpn_NewTimer
                0x0000000040159caf                vpn_SetTimer
                0x0000000040159cc3                vpn_FreeTimer
                0x0000000040159cce                vpn_GetPhysicalNicInfo
                0x0000000040159cdd                vpn_SendPhysicalNic
                0x0000000040159cec                vpn_SetPhysicalNicRecvCallback
                0x0000000040159cfb                vpn_GetVirtualNicInfo
                0x0000000040159d0b                vpn_SendVirtualNic
                0x0000000040159d1b                vpn_SetVirtualNicRecvCallback
                0x0000000040159d2b                vpn_premap_PhysicalNicRecv
                0x0000000040159d44                vpn_premap_VirtualNicRecv
                0x0000000040159d5d                vpn_premap_recvbuf
                0x0000000040159d68                vpn_ic_rsa_sign
                0x0000000040159e0f                vpn_new_nic
                0x000000004015a431                msg_vpn_GetCurrentCpuId
                0x000000004015a44b                msg_vpn_ic_rsa_sign
                0x000000004015a4f7                msg_vpn_GetTickCount
                0x000000004015a535                msg_vpn_GetPhysicalNicInfo
                0x000000004015a599                msg_vpn_SendPhysicalNic
                0x000000004015a653                msg_vpn_SetPhysicalNicRecvCallback
                0x000000004015a69f                msg_vpn_GetVirtualNicInfo
                0x000000004015a703                msg_vpn_SendVirtualNic
                0x000000004015a7bd                msg_vpn_SetVirtualNicRecvCallback
                0x000000004015a809                msg_vpn_NewTimer
                0x000000004015a879                msg_vpn_SetTimer
                0x000000004015a94c                msg_vpn_FreeTimer
                0x000000004015a9b2                vpn_start
                0x000000004015ad3c                vpn_user_init
                0x000000004015ada0                SeFreeConfigEntryList
                0x000000004015adfe                SeGetConfigEntry
                0x000000004015ae6f                SeGetConfigStr
                0x000000004015ae9c                SeGetConfigBool
                0x000000004015af48                SeGetConfigInt
                0x000000004015af6c                SeGetConfigInt64
                0x000000004015af90                SeGetConfigBin
                0x000000004015afb4                SeIsSplitChar
                0x000000004015b027                SeGetKeyAndValue
                0x000000004015b1b7                SeLoadConfigEntryListFromBuf
                0x000000004015b32f                SeLoadConfigEntryList
                0x000000004015b380                SePKeyPasswordCallbackFunction
                0x000000004015b3ad                SeDhFree
                0x000000004015b3e7                SeRsaVerifyWithPadding
                0x000000004015b4c1                SeRsaSignWithPadding
                0x000000004015b585                SeRsaPublicDecrypt
                0x000000004015b62e                SeRsaPrivateEncrypt
                0x000000004015b6d7                SeRsaPrivateDecrypt
                0x000000004015b778                SeRsaPublicEncrypt
                0x000000004015b819                SeGetCertSha1
                0x000000004015b861                SeGetCertMd5
                0x000000004015b8a9                SeBinToBigNum
                0x000000004015b8f4                SeBufToBigNum
                0x000000004015b90f                SeDhCompute
                0x000000004015b99b                SeBigNumToBuf
                0x000000004015ba34                SeRsaPublicSize
                0x000000004015ba7f                SeRsaPublicToBin
                0x000000004015bae3                SeRsaPublicToBuf
                0x000000004015bb27                SeDhNew
                0x000000004015bbfd                SeDhNewGroup2
                0x000000004015bc12                SeCheckSignature
                0x000000004015bc3c                SeGetKeyFromCert
                0x000000004015bc78                SeCompareCert
                0x000000004015bca2                SeCheckCertAndKey
                0x000000004015bccc                SeIsBase64
                0x000000004015bd8d                SeFreePKey
                0x000000004015bd9d                SeFreeKey
                0x000000004015bdc5                SeIsCertSignedByCert
                0x000000004015be35                SeCheckCert
                0x000000004015be9b                SeBioToKey
                0x000000004015bfa9                SeGetCertIssuerName
                0x000000004015c035                SeGetCertSubjectName
                0x000000004015c0bf                SeFreeX509
                0x000000004015c0cf                SeFreeCert
                0x000000004015c0fd                SeFreeBio
                0x000000004015c10d                SeNewBio
                0x000000004015c120                SeCertToBio
                0x000000004015c181                SeKeyToBio
                0x000000004015c27d                SeRsaGen
                0x000000004015c3e8                SeBioToBuf
                0x000000004015c489                SeCertToBuf
                0x000000004015c4d4                SeSaveCert
                0x000000004015c535                SeKeyToBuf
                0x000000004015c580                SeSaveKey
                0x000000004015c5e4                SeX509ToCert
                0x000000004015c69c                SeBioToCert
                0x000000004015c6e7                SeBigNumToStr
                0x000000004015c753                SeBufToBio
                0x000000004015c7ac                SeBufToKey
                0x000000004015c818                SeLoadKey
                0x000000004015c8c3                SeCloneKey
                0x000000004015c92d                SeBufToCert
                0x000000004015c982                SeLoadCert
                0x000000004015c9cf                SeCloneCert
                0x000000004015ca20                SeSha1
                0x000000004015ca40                SeHashForSignBySHA1
                0x000000004015caea                SeRsaSignWithSha1
                0x000000004015cb8d                SeRsaVerifyWithSha1
                0x000000004015cc2f                SeMacSha1
                0x000000004015cd86                SeMacSha196
                0x000000004015cdcd                SeMd5
                0x000000004015cded                SeDes3Encrypt
                0x000000004015ce85                SeDes3Decrypt
                0x000000004015cf1f                SeDesNewKeyValue
                0x000000004015cf71                SeDes3NewKey
                0x000000004015cff2                SeDesNewKey
                0x000000004015d003                SeDesRandKeyValue
                0x000000004015d01f                SeDesRandKey
                0x000000004015d069                SeDes3RandKey
                0x000000004015d0b2                SeDesFreeKeyValue
                0x000000004015d0da                SeDes3FreeKey
                0x000000004015d114                SeDesFreeKey
                0x000000004015d11f                SeRand
                0x000000004015d133                SeRand64
                0x000000004015d14f                SeRand32
                0x000000004015d16a                SeRand16
                0x000000004015d186                SeRand8
                0x000000004015d1a2                SeRand1
                0x000000004015d1b5                SeInitCrypto
                0x000000004015d1f8                SeFreeCrypto
                0x000000004015d210                SeIkeStrToPassword
                0x000000004015d27d                SeIkePhase1CryptIdToKeySize
                0x000000004015d29c                SeIkePhase2CryptIdToKeySize
                0x000000004015d2bb                SeIkeStrToPhase1CryptId
                0x000000004015d321                SeIkeStrToPhase1HashId
                0x000000004015d360                SeIkeStrToPhase2CryptId
                0x000000004015d3cb                SeIkeStrToPhase2HashId
                0x000000004015d40a                SeIkeIsZeroIP
                0x000000004015d438                SeIkeInitIPv6Address
                0x000000004015d485                SeIkeInitIPv4Address
                0x000000004015d4c8                SeIkeGetIPv6Address
                0x000000004015d502                SeIkeGetIPv4Address
                0x000000004015d51b                SeIkeIpAddressToStr
                0x000000004015d575                SeIkeBuildDataPayload
                0x000000004015d5be                SeIkeBuildTransformValue
                0x000000004015d678                SeIkeBuildTransformValueList
                0x000000004015d6e0                SeIkeBuildTransformPayload
                0x000000004015d75d                SeIkeBuildIdPayload
                0x000000004015d7d4                SeIkeBuildCertPayload
                0x000000004015d837                SeIkeBuildCertRequestPayload
                0x000000004015d89a                SeIkeBuildNoticePayload
                0x000000004015d927                SeIkeBuildDeletePayload
                0x000000004015d9f7                SeIkeGetFirstPayloadType
                0x000000004015da16                SeIkeBuildPayloadList
                0x000000004015db21                SeIkeBuildProposalPayload
                0x000000004015dbcc                SeIkeBuildSaPayload
                0x000000004015dc55                SeIkeBuildPayload
                0x000000004015dd2e                SeIkeGetPayload
                0x000000004015dd7c                SeIkeGetPayloadNum
                0x000000004015ddb8                SeIkeNewPayload
                0x000000004015ddd6                SeIkeNewDataPayload
                0x000000004015de26                SeIkeNewSaPayload
                0x000000004015de51                SeIkeNewProposalPayload
                0x000000004015dedb                SeIkeNewTransformPayload
                0x000000004015df26                SeIkeNewIdPayload
                0x000000004015dfa6                SeIkeNewCertPayload
                0x000000004015e00a                SeIkeNewCertRequestPayload
                0x000000004015e06e                SeIkeNewNoticePayload
                0x000000004015e10a                SeIkeNewDeletePayload
                0x000000004015e146                SeIkeNewTransformValue
                0x000000004015e175                SeIkeFreeTransformValueList
                0x000000004015e1b1                SeIkeParseTransformValueList
                0x000000004015e31d                SeIkeParseTransformPayload
                0x000000004015e389                SeIkeFreeTransformPayload
                0x000000004015e3b7                SeIkeParseIdPayload
                0x000000004015e434                SeIkeFreeIdPayload
                0x000000004015e462                SeIkeParseCertPayload
                0x000000004015e4cb                SeIkeFreeCertPayload
                0x000000004015e4f9                SeIkeParseCertRequestPayload
                0x000000004015e562                SeIkeFreeCertRequestPayload
                0x000000004015e590                SeIkeParseNoticePayload
                0x000000004015e654                SeIkeFreeNoticePayload
                0x000000004015e698                SeIkeFreeDeletePayload
                0x000000004015e6f7                SeIkeParseDeletePayload
                0x000000004015e805                SeIkeParseDataPayload
                0x000000004015e83f                SeIkeFreeDataPayload
                0x000000004015e852                SeIkeFreePayloadList
                0x000000004015e88e                SeIkeParsePayloadListEx
                0x000000004015ea11                SeIkeParsePayloadList
                0x000000004015ea24                SeIkeParseProposalPayload
                0x000000004015ead4                SeIkeParseSaPayload
                0x000000004015eba1                SeIkeParsePayload
                0x000000004015eca1                SeIkeFreeProposalPayload
                0x000000004015ece5                SeIkeFreeSaPayload
                0x000000004015ed11                SeIkeFreePayload
                0x000000004015edb8                SeIkeEncrypt
                0x000000004015ee73                SeIkeEncryptWithPadding
                0x000000004015ef23                SeIkeBuild
                0x000000004015f07c                SeIkeDecrypt
                0x000000004015f137                SeIkeFree
                0x000000004015f173                SeIkeParseEx
                0x000000004015f35b                SeIkeParse
                0x000000004015f36b                SeIkeParseHeader
                0x000000004015f37b                SeIkeNew
                0x000000004015f400                VPN_IPsec_Client_Start
                0x000000004015f426                VPN_IPsec_Client_Stop
                0x000000004015f436                SeIntInit
                0x000000004015f459                SeIntFree
                0x000000004015f473                VPN_IPsec_Init
                0x000000004015f4cf                VPN_IPsec_Free
                0x000000004015f501                SeSysMemoryAlloc
                0x000000004015f51d                SeSysMemoryReAlloc
                0x000000004015f546                SeSysMemoryFree
                0x000000004015f55e                SeSysGetCurrentCpuId
                0x000000004015f576                SeSysNewLock
                0x000000004015f58e                SeSysLock
                0x000000004015f5a6                SeSysUnlock
                0x000000004015f5be                SeSysFreeLock
                0x000000004015f5d6                SeSysGetTickCount
                0x000000004015f5ee                SeSysNewTimer
                0x000000004015f612                SeSysSetTimer
                0x000000004015f62a                SeSysFreeTimer
                0x000000004015f642                SeSysGetPhysicalNicInfo
                0x000000004015f65f                SeSysSendPhysicalNic
                0x000000004015f685                SeSysSetPhysicalNicRecvCallback
                0x000000004015f6a7                SeSysGetVirtualNicInfo
                0x000000004015f6c4                SeSysSendVirtualNic
                0x000000004015f6ed                SeSysSetVirtualNicRecvCallback
                0x000000004015f712                SeSysSaveData
                0x000000004015f739                SeSysLoadData
                0x000000004015f760                SeSysFreeData
                0x000000004015f77b                SeSysRsaSign
                0x000000004015f7b3                SeSysLog
                0x000000004015f7e1                SeRsaSign
                0x000000004015f880                Se4ParseIpPacketUDPv4
                0x000000004015f97b                Se4FreeIpHeaderInfo
                0x000000004015f9af                Se4IpChecksum
                0x000000004015fa22                Se4IpCheckChecksum
                0x000000004015fa71                Se4ParseIpPacketICMPv4
                0x000000004015fba0                Se4BuildIcmpEchoPacket
                0x000000004015fc5c                Se4AdjustTcpMss
                0x000000004015fe01                Se4Tick
                0x000000004015fe19                Se4BroadcastMacAddress
                0x000000004015fe24                Se4SendEthPacket
                0x000000004015fefb                Se4SendIpFragmentNow
                0x000000004015ff24                Se4InitArpEntryList
                0x000000004015ff34                Se4FreeArpEntryList
                0x000000004015ff70                Se4FlushArpEntryList
                0x000000004016001d                Se4SearchArpEntryList
                0x00000000401600a9                Se4AddArpEntryList
                0x0000000040160196                Se4SearchArpWaitList
                0x00000000401601de                Se4InitArpWaitList
                0x00000000401601ee                Se4FreeArpWaitList
                0x000000004016022a                Se4InsertIpWait
                0x00000000401602ac                Se4InitIpWaitList
                0x00000000401602bc                Se4FreeIpWait
                0x00000000401602e5                Se4FlushIpWaitList
                0x00000000401603a7                Se4FreeIpWaitList
                0x00000000401603e3                Se4InitIpCombineList
                0x00000000401603f3                Se4SearchIpCombineList
                0x0000000040160469                Se4InitIpFragmentList
                0x0000000040160479                Se4InsertIpCombine
                0x0000000040160578                Se4FreeIpFragmentList
                0x00000000401605b4                Se4FreeIpCombine
                0x00000000401605ec                Se4FlushIpCombineList
                0x00000000401606d5                Se4FreeIpCombineList
                0x0000000040160723                Se4Free
                0x0000000040160767                Se4And
                0x0000000040160796                Se4GetNetworkAddress
                0x00000000401607a1                Se4Or
                0x00000000401607d0                Se4Not
                0x00000000401607fa                Se4GetBroadcastAddress
                0x000000004016083f                Se4GetHostAddress
                0x0000000040160859                Se4GenerateSubnetMask32
                0x000000004016087a                Se4IPToStr
                0x00000000401608bd                Se4ZeroIP
                0x00000000401608d8                Se4StrToIP
                0x0000000040160979                Se4IPToUINT
                0x000000004016099b                Se4StrToIP32
                0x00000000401609ad                Se4IsZeroIP
                0x00000000401609c0                Se4Init
                0x0000000040160ad6                Se4Cmp
                0x0000000040160b0f                Se4CheckUnicastAddress
                0x0000000040160b60                Se4IsInSameNetwork
                0x0000000040160baf                Se4CmpIpCombineList
                0x0000000040160c4d                Se4SendWaitingIpWait
                0x0000000040160d2e                Se4MacIpRelationKnown
                0x0000000040160dda                Se4CmpArpWaitEntry
                0x0000000040160e11                Se4CmpArpEntry
                0x0000000040160e48                Se4ParseIpPacket
                0x0000000040160f9e                Se4IsBroadcastAddress
                0x0000000040160fb2                Se4SendArpResponse
                0x0000000040161099                Se4SendArpDoProcess
                0x000000004016119f                Se4ProcessArpWaitList
                0x0000000040161253                Se4MainProc
                0x0000000040161284                Se4SendArpRequest
                0x00000000401612f9                Se4UINTToIP
                0x000000004016131b                Se4IPToStr32
                0x000000004016133f                Se4GenerateSubnetMask
                0x0000000040161351                Se4IsSubnetMask
                0x000000004016138e                Se4RecvArpResponse
                0x00000000401613d3                Se4RecvArpRequest
                0x00000000401614fd                Se4RecvArp
                0x00000000401615ba                Se4SendRawIp
                0x000000004016171d                Se4SendIpFragment
                0x0000000040161850                Se4SendIp
                0x0000000040161932                Se4SendUdp
                0x0000000040161a64                Se4SendIcmp
                0x0000000040161b1d                Se4SendIcmpEchoResponse
                0x0000000040161bb2                Se4RecvIpComplete
                0x0000000040161c7f                Se4CombineIp
                0x0000000040161e7d                Se4SendIcmpEchoRequest
                0x0000000040161f12                Se4RecvIp
                0x00000000401621ac                Se4RecvEthPacket
                0x0000000040162240                Se6FreeIpHeaderInfo
                0x0000000040162274                Se6IpChecksum
                0x00000000401622e7                Se6CalcChecksum
                0x00000000401623a8                Se6ParseIpPacketICMPv6
                0x00000000401625e6                Se6ParseIpPacketUDPv6
                0x0000000040162735                Se6BuildIcmpEchoPacket
                0x000000004016281e                Se6BroadcastMacAddress
                0x0000000040162829                Se6SendEthPacket
                0x0000000040162900                Se6SendIpFragmentNow
                0x0000000040162929                Se6InitNeighborEntryList
                0x0000000040162939                Se6FreeNeighborEntryList
                0x0000000040162975                Se6FlushNeighborEntryList
                0x0000000040162a22                Se6SearchNeighborEntryList
                0x0000000040162a79                Se6AddNeighborEntryList
                0x0000000040162b63                Se6SearchNdpWaitList
                0x0000000040162bb2                Se6InitNdpWaitList
                0x0000000040162bc2                Se6FreeNdpWaitList
                0x0000000040162bfe                Se6InsertIpWait
                0x0000000040162c8d                Se6InitIpWaitList
                0x0000000040162c9d                Se6FreeIpWait
                0x0000000040162cc6                Se6FreeIpWaitList
                0x0000000040162d02                Se6InitIpCombineList
                0x0000000040162d12                Se6SearchIpCombineList
                0x0000000040162db6                Se6InitIpFragmentList
                0x0000000040162dc6                Se6FreeIpFragmentList
                0x0000000040162e02                Se6FreeIpCombine
                0x0000000040162e3d                Se6FreeIpCombineList
                0x0000000040162e8b                Se6Free
                0x0000000040162edb                Se6Tick
                0x0000000040162ef3                Se6InsertIpCombine
                0x000000004016302a                Se6FlushIpCombineList
                0x0000000040163116                Se6FlushIpWaitList
                0x00000000401631de                Se6GenerateEui64Address
                0x000000004016323f                Se6GenerateMulticastMacAddress
                0x0000000040163275                Se6GetAllNodeMulticastAddr
                0x00000000401632a1                Se6GetAllRouterMulticastAddr
                0x00000000401632cd                Se6And
                0x000000004016330b                Se6GetPrefixAddress
                0x000000004016331a                Se6Or
                0x0000000040163358                Se6Not
                0x000000004016338c                Se6GetHostAddress
                0x00000000401633c8                Se6GenerateSubnetMask
                0x000000004016342d                Se6GetSoliciationMulticastAddr
                0x00000000401634de                Se6LocalSubnet
                0x00000000401634f2                Se6Cmp
                0x000000004016351e                Se6GetIPAddrType
                0x000000004016362c                Se6IsInSameNetwork
                0x00000000401636f3                Se6SendRawIp
                0x0000000040163865                Se6SendIpFragment
                0x0000000040163881                Se6SendIp
                0x00000000401639fe                Se6SendUdp
                0x0000000040163b2a                Se6SendIcmp
                0x0000000040163c26                Se6SendIcmpNeighborSoliciation
                0x0000000040163d9c                Se6SendNeighborSoliciationDoProcess
                0x0000000040163e56                Se6SendNeighborSoliciation
                0x0000000040163ede                Se6ProcessNdpWaitList
                0x0000000040163f98                Se6SendIcmpNeighborAdvertisement
                0x00000000401640dc                Se6SendIcmpEchoResponse
                0x00000000401641a1                Se6SendIcmpEchoRequest
                0x0000000040164266                Se6IsSubnetMask
                0x00000000401642c8                Se6SubnetMaskToInt
                0x0000000040164322                Se6SendIcmpRouterAdvertisement
                0x00000000401644fa                Se6MainProc
                0x0000000040164554                Se6CmpIpCombineList
                0x00000000401645e5                Se6SendWaitingIpWait
                0x00000000401646dc                Se6MacIpRelationKnown
                0x00000000401647fe                Se6CmpNdpWaitEntry
                0x000000004016483f                Se6CmpNeighborEntry
                0x0000000040164880                Se6ParseIpPacket
                0x0000000040164a22                Se6IsZeroIP
                0x0000000040164a42                Se6CheckUnicastAddress
                0x0000000040164a76                Se6IsNetworkPrefixAddress
                0x0000000040164ab8                Se6IsGuestNode
                0x0000000040164b5c                Se6AddGuestNode
                0x0000000040164c30                Se6RecvIpComplete
                0x0000000040164ee7                Se6CombineIp
                0x00000000401650fd                Se6RecvIp
                0x000000004016533a                Se6RecvEthPacket
                0x00000000401653ac                Se6IPToStr
                0x000000004016550a                Se6IPItemStrToChars
                0x00000000401655ea                Se6CheckIPItemStr
                0x0000000040165653                Se6ZeroIP
                0x0000000040165673                Se6StrToIP
                0x000000004016583f                Se6GenerateEui64LocalAddress
                0x00000000401658b2                Se6Init
                0x0000000040165a11                Se6GenerateEui64GlobalAddress
                0x0000000040165b12                Se6CheckSubnetLength
                0x0000000040165b30                SeTimerEntryCompare
                0x0000000040165b70                SeEthGetInfo
                0x0000000040165b94                SeEthSendAdd
                0x0000000040165bc7                SeEthParseEthernetPacket
                0x0000000040165cc8                SeEthGenRandMacAddress
                0x0000000040165d1a                SeLoad
                0x0000000040165d7f                SeSave
                0x0000000040165d9b                SeTick
                0x0000000040165dab                SeGetCurrentCpuId
                0x0000000040165dbb                SeNewLock
                0x0000000040165df6                SeEthNew
                0x0000000040165f0c                SeTimerNew
                0x0000000040165f82                SeLock
                0x0000000040165fcc                SeUnlock
                0x0000000040165ff3                SeTick64Internal
                0x0000000040166049                SeTick64
                0x0000000040166068                SeInitKernel
                0x00000000401660a2                SeEthGetNextRecvPacket
                0x00000000401660eb                SeEthDeleteOldSenderMacList
                0x00000000401661bf                SeEthIsSenderMacAddressExistsInList
                0x0000000040166266                SeEthNicCallback
                0x0000000040166367                SeEthAddSenderMacList
                0x0000000040166461                SeEthSend
                0x00000000401664e7                SeEthSendAll
                0x00000000401665b8                SeTimerAdjust
                0x000000004016663e                SeTimerSet
                0x00000000401666c4                SeTimerCallback
                0x00000000401667d4                SeDeleteLock
                0x00000000401667fc                SeEthFree
                0x00000000401668a5                SeTimerFree
                0x00000000401668ff                SeFreeKernel
                0x0000000040166915                SeLogArgs
                0x0000000040166953                SeWarning
                0x0000000040166999                SeError
                0x00000000401669df                SeInfo
                0x0000000040166a25                SeFatal
                0x0000000040166a6b                SeDebug
                0x0000000040166ab1                SeDebugBin
                0x0000000040166b1f                SeLog
                0x0000000040166b60                SeB64CodeToChar
                0x0000000040166ba6                SeB64CharToCode
                0x0000000040166bed                SeIsZero
                0x0000000040166c36                SeReplaceListPointer
                0x0000000040166c92                SeIsInListStr
                0x0000000040166d03                SeIsInList
                0x0000000040166d4e                SeCompareStr
                0x0000000040166d70                SeSetSortFlag
                0x0000000040166d7e                SeSetCmp
                0x0000000040166d9f                SeFastSwap
                0x0000000040166dd3                SeQSort
                0x00000000401670eb                SeSort
                0x0000000040167123                SeBSearch
                0x00000000401671f2                SeSearch
                0x000000004016725a                SeFifoSize
                0x000000004016726d                SeDumpBuf
                0x0000000040167295                SeSeekBuf
                0x00000000401672cb                SeClearBuf
                0x00000000401672e4                SeSwap16
                0x00000000401672ff                SeSwap32
                0x0000000040167329                SeSwap64
                0x0000000040167380                SeMalloc
                0x00000000401673c2                SeNewBuf
                0x0000000040167404                SeNewFifo
                0x0000000040167446                SeReAlloc
                0x00000000401674b7                SeAdjustBufSize
                0x00000000401674ec                SeClearFifo
                0x0000000040167529                SeAdd
                0x0000000040167593                SeInsert
                0x00000000401676c1                SeInsertStr
                0x0000000040167714                SeDelete
                0x00000000401677cf                SeDeleteAll
                0x0000000040167806                SePop
                0x000000004016786d                SePush
                0x00000000401678d0                SeMemSize
                0x0000000040167902                SeFree
                0x0000000040167931                SeFreeBuf
                0x0000000040167959                SeFreeBufWithoutBuffer
                0x0000000040167969                SeFreeFifo
                0x0000000040167991                SeFreeList
                0x00000000401679ba                SeFreeQueue
                0x00000000401679e3                SeFreeStack
                0x0000000040167a0c                SeIsLittleEndian
                0x0000000040167a1f                SeEndian16
                0x0000000040167a43                SeEndian32
                0x0000000040167a66                SeEndian64
                0x0000000040167a8d                SeIsBigEndian
                0x0000000040167aa5                SeCmp
                0x0000000040167b14                SeCmpEx
                0x0000000040167b49                SeCmpBuf
                0x0000000040167b8a                SeCopy
                0x0000000040167bb2                SeClone
                0x0000000040167bff                SeSwap
                0x0000000040167c59                SeWriteBuf
                0x0000000040167cd0                SeMemToBuf
                0x0000000040167d36                SeRandBuf
                0x0000000040167d7c                SeCloneBuf
                0x0000000040167d97                SeWriteBufLine
                0x0000000040167def                SeWriteBufBuf
                0x0000000040167e0a                SeWriteBufInt
                0x0000000040167e4a                SeWriteBufInt64
                0x0000000040167e8d                SeWriteBufStr
                0x0000000040167efb                SeAddBufStr
                0x0000000040167f3a                SeReadDump
                0x0000000040167f9f                SePeekFifo
                0x0000000040167fdd                SePeekNext
                0x000000004016801b                SeReadFifo
                0x0000000040168108                SeGetNext
                0x0000000040168152                SeGetNextInt
                0x0000000040168188                SeWriteFifo
                0x000000004016821c                SeInsertQueue
                0x0000000040168252                SeInsertQueueInt
                0x0000000040168286                SeCopyToArray
                0x00000000401682aa                SeToArray
                0x00000000401682ef                SeZero
                0x0000000040168311                SeZeroMalloc
                0x0000000040168349                SeNewList
                0x000000004016839c                SeCloneList
                0x00000000401683ea                SeNewQueue
                0x000000004016841e                SeNewStack
                0x0000000040168459                SeB64Decode
                0x0000000040168628                SeB64Encode
                0x00000000401687e1                SeReadBuf
                0x000000004016887b                SeReadBufFromBuf
                0x0000000040168917                SeReadRemainBuf
                0x000000004016893f                SeReadBufInt
                0x0000000040168974                SeReadBufInt64
                0x00000000401689ac                SeReadBufStr
                0x0000000040168a60                SeBuildICMPv6OptionValue
                0x0000000040168aef                SeBuildICMPv6Options
                0x0000000040168b9a                SeParseICMPv6Options
                0x0000000040168c73                SeFreePacketList
                0x0000000040168caf                SeFreePacketListWithoutBuffer
                0x0000000040168ceb                SeGetNextHeaderFromQueue
                0x0000000040168d17                SeBuildAndAddIPv6PacketOptionHeader
                0x0000000040168db4                SeBuildIPv6Packet
                0x0000000040168f99                SeBuildIPv6PacketWithFragment
                0x0000000040169155                SeParseIPv6ExtHeader
                0x0000000040169242                SeParseIPv6Packet
                0x00000000401692bd                SeParsePacketL3IPv6
                0x00000000401692fe                SeParsePacketL3IPv4
                0x00000000401693b7                SeParsePacketL3ARPv4
                0x00000000401693e1                SeParsePacketL2
                0x0000000040169483                SeFreePacket
                0x0000000040169493                SeParsePacket
                0x0000000040169530                SeSecCmpIkeSa
                0x0000000040169608                SeSecCalcP2Iv
                0x00000000401696bc                SeSecCalcP1Iv
                0x0000000040169769                SeSecCalcKEYMATFull
                0x0000000040169873                SeSecCalcKEYMAT
                0x000000004016993a                SeSecCalcKa
                0x0000000040169a0f                SeSecCalcP1KeySet
                0x0000000040169c26                SeSecForceReconnect
                0x0000000040169c5f                SeSecLifeSeconds64bit
                0x0000000040169c7f                SeSecGetIPsecSa
                0x0000000040169ccb                SeSecNewIkeSa
                0x0000000040169d7c                SeSecFreeP1KeySet
                0x0000000040169dca                SeSecGenIkeSaMessageId
                0x0000000040169e39                SeSecGenIkeSaInitCookie
                0x0000000040169ea8                SeSecInitSaList
                0x0000000040169ee2                SeSecSearchIPsecSaBySpi
                0x0000000040169f71                SeSecSearchIkeSaBySpi
                0x000000004016a03c                SeSecSearchIkeSa
                0x000000004016a108                SeSecNewSpi
                0x000000004016a11f                SeSecGenIPsecSASpi
                0x000000004016a18e                SeSecStrToAuthMethod
                0x000000004016a1f9                SeSecTick
                0x000000004016a213                SeSecCheckIPsecSaExpires
                0x000000004016a2d6                SeSecCheckIkeSaExpires
                0x000000004016a395                SeSecSetTimerCallback
                0x000000004016a3b5                SeSecAddTimer
                0x000000004016a3d5                SeSecDoInterval
                0x000000004016a446                SeSecNewIPsecSa
                0x000000004016a5b3                SeSecSetRecvUdpCallback
                0x000000004016a5d3                SeSecSetRecvEspCallback
                0x000000004016a5f3                SeSecSetRecvVirtualIpCallback
                0x000000004016a613                SeSecSendUdp
                0x000000004016a65c                SeSecProcessIkeSaMsgPhase1
                0x000000004016af65                SeSecSendIkeSaMsgPhase2
                0x000000004016b487                SeSecSendIkeSaMsgPhase2FinalHash
                0x000000004016b627                SeSecProcessIkeSaMsgPhase2
                0x000000004016ba86                SeSecSendIkeSaMsgInfo
                0x000000004016bcee                SeSecSendIkeSaMsgInfoSimple
                0x000000004016bd56                SeSecSendIPsecSaDeleteMsg
                0x000000004016bdda                SeSecFreeIPsecSa
                0x000000004016be5a                SeSecDeleteExpiredIPsecSa
                0x000000004016bf00                SeSecProcessIkeSaMsgInfo
                0x000000004016c225                SeSecProcessIkeSaMsg
                0x000000004016c279                SeSecUdpRecvCallback
                0x000000004016c4e5                SeSecSendIkeSaDeleteMsg
                0x000000004016c582                SeSecFreeIkeSa
                0x000000004016c73b                SeSecFreeSaList
                0x000000004016c7b4                SeSecFreeMain
                0x000000004016c7c4                SeSecFree
                0x000000004016c7f3                SeSecDeleteExpiredIkeSa
                0x000000004016c956                SeSecStartVpnConnect
                0x000000004016cf8a                SeSecProcessMain
                0x000000004016d07c                SeSecTimerCallback
                0x000000004016d08f                SeSecInitMain
                0x000000004016d0b4                SeSecInit
                0x000000004016d1e8                SeSecSendEsp
                0x000000004016d221                SeSecVirtualIpRecvCallback
                0x000000004016d42a                SeSecSendVirtualIp
                0x000000004016d452                SeSecEspRecvCallback
                0x000000004016d600                SeMakeCharArray
                0x000000004016d634                SeFreeToken
                0x000000004016d682                SeNullTokenList
                0x000000004016d6b6                SeDefaultTokenSplitChars
                0x000000004016d6c1                Se4BitToHex
                0x000000004016d6d6                SeHexTo4Bit
                0x000000004016d712                SeStrCmp
                0x000000004016d7a6                SeStrnCmp
                0x000000004016d873                SeToUpper
                0x000000004016d887                SeStrnCmpi
                0x000000004016d952                SeStrCmpi
                0x000000004016da02                SeToLower
                0x000000004016da16                SeStrCheckLen
                0x000000004016da52                SeStrCheckSize
                0x000000004016da70                SeStrLen
                0x000000004016da97                SeStrSize
                0x000000004016daaf                SeStrCpy
                0x000000004016db7a                SeStrCat
                0x000000004016dc1c                SeStrUpper
                0x000000004016dc5c                SeStrLower
                0x000000004016dc9c                SeToInt64
                0x000000004016dcf2                SeToInt
                0x000000004016dd40                SeToStr64
                0x000000004016de07                SeToStr
                0x000000004016dec1                SeToHex
                0x000000004016df75                SeToHex64
                0x000000004016e029                SeHexToInt
                0x000000004016e0b1                SeHexToInt64
                0x000000004016e13b                SeTrimLeft
                0x000000004016e1e8                SeTrimRight
                0x000000004016e2fa                SeTrim
                0x000000004016e31f                SeCopyStr
                0x000000004016e374                SeTrimCopy
                0x000000004016e3a1                SeUniqueToken
                0x000000004016e4fb                SeSearchStrEx
                0x000000004016e64f                SeSearchStri
                0x000000004016e65f                SeSearchStr
                0x000000004016e66f                SeCalcReplaceStrEx
                0x000000004016e72a                SeReplaceStrEx
                0x000000004016e87f                SeReplaceStr
                0x000000004016e890                SeReplaceStri
                0x000000004016e8a1                SeTrimCrlf
                0x000000004016e8e8                SeStartWith
                0x000000004016e98e                SeEndWith
                0x000000004016e9f7                SeIsEmptyStr
                0x000000004016ea41                SeNormalizeCrlf
                0x000000004016ead4                SeIsCharInStr
                0x000000004016eb2c                SeParseToken
                0x000000004016ecc7                SeParseTokenWithNullStr
                0x000000004016ee24                SeToStr3
                0x000000004016ef72                SeIsAllUpperStr
                0x000000004016efe4                SeIsAllLowerStr
                0x000000004016f056                SeFormatEx
                0x000000004016f569                SeFormatArgs
                0x000000004016f5c9                SeFormat
                0x000000004016f5ff                SeBinToStr
                0x000000004016f6a6                SeBinToStrEx
                0x000000004016f74f                SeMacToStr
                0x000000004016f7a0                SeStrToBin
                0x000000004016f88f                SeStrToBinEx
                0x000000004016f902                SeStrToMac
                0x000000004016f915                SeReadNextLine
                0x000000004016f9e0                SeVpnRecvIpV6PacketCallback
                0x000000004016fa30                SeVpnRecvIpV4PacketCallback
                0x000000004016fa80                SeVpnInitIpStack
                0x000000004016fde2                SeVpnFreeIpStack
                0x000000004016fe82                SeVpnMainInit
                0x000000004016ff9b                SeVpnMainFree
                0x000000004016ffbf                SeVpnRecvEtherPacket
                0x0000000040170026                SeVpnSendEtherPacket
                0x000000004017004b                SeVpnMainProcRecvEtherPacket
                0x00000000401700fa                SeVpnStatusChanged
                0x000000004017010c                SeVpnMainProcess
                0x000000004017020a                SeVpnMainHandler
                0x0000000040170257                SeVpnEthRecvCallback
                0x000000004017026f                SeVpnTimerCallback
                0x0000000040170287                SeVpnTick
                0x000000004017029b                SeVpnAddTimer
                0x00000000401702af                SeVpnDoInterval
                0x000000004017031f                SeVpnFreeConfig
                0x000000004017032f                SeVpnFree
                0x0000000040170380                SeVpnLoadConfig
                0x00000000401716de                SeVpnInit
                0x0000000040171800                SeVpn4ClientSetTimerCallback
                0x0000000040171813                SeVpn4ClientSetRecvUdpCallback
                0x0000000040171826                SeVpn4ClientSetRecvEspCallback
                0x0000000040171839                SeVpn4ClientSetRecvVirtualIpCallback
                0x000000004017184c                SeVpn4ClientSendVirtualIp
                0x000000004017188b                SeVpn4ClientSendEsp
                0x000000004017190b                SeVpn4ClientSendUdp
                0x0000000040171996                SeVpn4IPsecSendPing
                0x0000000040171ade                SeVpn4IPsecInputFromPhysical
                0x0000000040171ba9                SeVpn4IPsecInputFromVirtual
                0x0000000040171c1d                SeVpn4FreeIPsec
                0x0000000040171c31                SeVpn4InitSecConfig
                0x0000000040171e12                SeVpn4InitIPsec
                0x0000000040171ee3                SeVpn4DoInterval
                0x0000000040171efb                SeVpn4Tick
                0x0000000040171f13                SeVpn4ClientGetTick
                0x0000000040171f28                SeVpn4IPsecMainProc
                0x0000000040171fb0                SeVpn4MainProc
                0x0000000040171fcb                SeVpn4SetTimer
                0x0000000040171fde                SeVpn4ClientAddTimer
                0x0000000040171ff6                SeVpn4DhcpSendResponse
                0x000000004017210b                SeVpn4DhcpOptionsToBuf
                0x00000000401721c9                SeVpn4NewDhcpOption
                0x0000000040172230                SeVpn4DhcpBuildDhcpOptionList
                0x000000004017240e                SeVpn4DhcpSearchOption
                0x000000004017244a                SeVpn4DhcpFreeOptionList
                0x00000000401724a0                SeVpn4DhcpParseOptionListMain
                0x000000004017258e                SeVpn4DhcpParseOptionList
                0x0000000040172681                SeVpn4DhcpServer
                0x000000004017294c                SeVpn4RecvPacketPhysical
                0x0000000040172a21                SeVpn4RecvPacketVirtual
                0x0000000040172b83                SeVpn4Init
                0x0000000040172be8                SeVpn4Free
                0x0000000040172c20                SeVpn6ClientSetTimerCallback
                0x0000000040172c33                SeVpn6ClientSetRecvUdpCallback
                0x0000000040172c46                SeVpn6ClientSetRecvEspCallback
                0x0000000040172c59                SeVpn6ClientSetRecvVirtualIpCallback
                0x0000000040172c6c                SeVpn6ClientSendVirtualIp
                0x0000000040172cab                SeVpn6ClientSendEsp
                0x0000000040172d4b                SeVpn6ClientSendUdp
                0x0000000040172e00                SeVpn6IPsecSendPing
                0x0000000040172fe6                SeVpn6UpdateGuestOsIpAddress
                0x00000000401730ba                SeVpn6IPsecInputFromPhysical
                0x0000000040173185                SeVpn6IPsecInputFromVirtual
                0x00000000401731b9                SeVpn6InitSecConfig
                0x00000000401733ab                SeVpn6InitIPsec
                0x000000004017348c                SeVpn6FreeIPsec
                0x00000000401734a0                SeVpn6DoInterval
                0x00000000401734b8                SeVpn6Tick
                0x00000000401734d0                SeVpn6ClientGetTick
                0x00000000401734e5                SeVpn6IPsecMainProc
                0x0000000040173575                SeVpn6MainProc
                0x0000000040173590                SeVpn6SetTimer
                0x00000000401735a3                SeVpn6ClientAddTimer
                0x00000000401735bb                SeVpn6RecvPacketPhysical
                0x000000004017363d                SeVpn6RecvPacketVirtual
                0x0000000040173774                SeVpn6Init
                0x00000000401737ea                SeVpn6Free
                0x0000000040173820                crypt_sys_rsa_sign
                0x0000000040173bb5                msg_usb_bulk_read
                0x0000000040173c15                msg_usb_bulk_write
                0x0000000040173c75                msg_usb_claim_interface
                0x0000000040173cbb                msg_usb_close
                0x0000000040173d15                msg_usb_control_msg
                0x0000000040173d8a                msg_usb_find_busses
                0x0000000040173dc8                msg_usb_find_devices
                0x0000000040173e06                msg_usb_get_busses
                0x0000000040173e6d                msg_usb_get_string_simple
                0x0000000040173ec9                msg_usb_init
                0x0000000040173ede                msg_usb_open
                0x0000000040173f57                msg_usb_release_interface
                0x0000000040173f9d                msg_usb_reset
                0x0000000040173fe0                IDMan_StReadSetData
                0x00000000401746c5                idman_user_init
                0x0000000040174720                IDMan_IPIdPassListMalloc
                0x000000004017480b                IDMan_IPRetJudgment
                0x0000000040174887                IDMan_IPFinalizeReader
                0x00000000401748a9                IDMan_IPFinalize
                0x00000000401748ff                IDMan_IPInitialize
                0x0000000040174a08                IDMan_IPInitializeReader
                0x0000000040174a35                IDMan_getMemoryFree
                0x0000000040174a7d                IDMan_PaddingParamChk
                0x0000000040174b42                IDMan_CmPadding
                0x0000000040174cfe                IDMan_CmPadding2
                0x0000000040174e7a                IDMan_IPgetCertPKCS
                0x0000000040175572                IDMan_IPgetCertIdxPKCS
                0x0000000040175a45                IDMan_IPCheckPKC
                0x0000000040175c6e                IDMan_CheckCardStatus
                0x0000000040175ca0                IDMan_IPgSParamChk
                0x0000000040175dd0                IDMan_IPgIdxSParamChk
                0x0000000040175e08                IDMan_IPgetPrivateKey
                0x0000000040175ffb                IDMan_IPgetHash
                0x00000000401760f2                IDMan_IPCrSignature
                0x000000004017625a                IDMan_generateSignature
                0x0000000040176394                IDMan_generateSignatureByIndex
                0x00000000401764bb                IDMan_EncryptByIndex
                0x00000000401765e4                IDMan_IPgCParamChk
                0x00000000401766d6                IDMan_getCertificate
                0x00000000401769f8                IDMan_IPgCIndexParamChk
                0x0000000040176a31                IDMan_getCertificateByIndex
                0x0000000040176dc8                IDMan_getStaticPassword
                0x00000000401770e0                IDMan_IPuAPKCS11ParamChk
                0x00000000401771e1                IDMan_IPuAPKCS11IdxParamChk
                0x0000000040177208                IDMan_IPgetCertPkeyPKCSx
                0x00000000401776cb                IDMan_IPgetCertPkeyIdxPKCSx
                0x0000000040177af4                IDMan_IPgetCertPkeyPKCSy
                0x0000000040177c42                IDMan_IPCheckCrlPkcX
                0x0000000040177d7f                IDMan_IPgetMakeRandData
                0x0000000040177df7                IDMan_IPMkRandHash
                0x0000000040177eb4                IDMan_IPgetPrivateKeyPKCSx
                0x0000000040178087                IDMan_IPSignatureVerify
                0x0000000040178200                IDMan_userAuthPKCS11
                0x0000000040178685                IDMan_userAuthPKCS11ByIndex
                0x0000000040178b10                IDMan_IPvSParamChk
                0x0000000040178c8e                IDMan_IPvSIdxParamChk
                0x0000000040178cf1                IDMan_IPMkPublicKeyObj
                0x0000000040178e35                IDMan_IPCheckSignature
                0x0000000040178fef                IDMan_verifySignature
                0x00000000401791cc                IDMan_verifySignatureByIndex
                0x0000000040179390                CardEstablishContext
                0x00000000401793a8                CardReleaseContext
                0x00000000401793d9                CardListReaders
                0x00000000401793f1                CardConnect
                0x000000004017942f                CardDisconnect
                0x000000004017944c                CardStatus
                0x000000004017949d                CardTransmit
                0x00000000401794d9                SelectFileDF
                0x00000000401795cc                SelectFileEF
                0x00000000401796b7                Verify
                0x00000000401797cb                InternalAuth
                0x000000004017990f                ReadBinary
                0x0000000040179eff                UpdateBinary
                0x000000004017a029                GetICCardData
                0x000000004017a410                GetUlByTxt
                0x000000004017a44f                GetVerByTex
                0x000000004017a537                GetUlByByte
                0x000000004017a57c                TransHex2Tex
                0x000000004017a60f                TransTex2Hex
                0x000000004017a6c6                GetLength
                0x000000004017a733                SetLength
                0x000000004017a798                GetTlvByBuf
                0x000000004017ab15                GetDirDataByTlv
                0x000000004017ac3a                GetOdfDataByTlv
                0x000000004017adad                GetTokenDataByTlv
                0x000000004017b213                AddObjTblByTlv
                0x000000004017b8b7                AddCertDataByBuf
                0x000000004017b9bd                AddIdPassDataByBuf
                0x000000004017bd5d                GetValueData
                0x000000004017c100                AddElem
                0x000000004017c19e                SetElem
                0x000000004017c265                GetElem
                0x000000004017c2a1                GetAttrValType
                0x000000004017c415                DestroyAttribute
                0x000000004017c45f                DestroyTlvData
                0x000000004017c474                DestroyElem
                0x000000004017c4fa                DestroyList
                0x000000004017c537                DestroySessionData
                0x000000004017c575                DestroyTokenData
                0x000000004017c5d5                DestroySlotData
                0x000000004017c611                DelElem
                0x000000004017c680                C_GetFunctionList
                0x000000004017c692                C_Initialize
                0x000000004017c7ff                C_Finalize
                0x000000004017c89a                C_GetInfo
                0x000000004017c920                C_GetSlotList
                0x000000004017d204                C_GetSlotInfo
                0x000000004017d2ec                C_GetTokenInfo
                0x000000004017db23                C_GetMechanismList
                0x000000004017dbf4                C_GetMechanismInfo
                0x000000004017dcb0                C_OpenSession
                0x000000004017de6b                C_CloseSession
                0x000000004017df44                C_CloseAllSessions
                0x000000004017e050                C_GetSessionInfo
                0x000000004017e0cc                C_Login
                0x000000004017e523                C_Logout
                0x000000004017e63a                C_FindObjectsInit
                0x000000004017e8b1                C_FindObjects
                0x000000004017ee0a                C_FindObjectsFinal
                0x000000004017ee80                C_GetAttributeValue
                0x000000004017f1a1                C_SignInit
                0x000000004017f268                C_Sign
                0x000000004017f5ef                C_DigestInit
                0x000000004017f66a                C_DigestUpdate
                0x000000004017f6f2                C_DigestFinal
                0x000000004017f839                C_VerifyInit
                0x000000004017f900                C_Verify
                0x000000004017fa72                C_CreateObject
                0x000000004017fd1f                C_DestroyObject
                0x000000004017fddf                C_SetAttributeValue
                0x00000000401809e9                C_GetCardStatus
                0x0000000040180a80                IDMan_StFree
                0x0000000040180a90                IDMan_StMemcpy
                0x0000000040180ab4                IDMan_StMemset
                0x0000000040180ad2                IDMan_StMalloc
                0x0000000040180b19                IDMan_StMemcmp
                0x0000000040180b72                IDMan_StStrlen
                0x0000000040180b8c                IDMan_StStrcat
                0x0000000040180bc9                IDMan_StStrchr
                0x0000000040180c06                IDMan_StStrcpy
                0x0000000040180c2d                IDMan_StStrcmp
                0x0000000040180c78                StIsspace
                0x0000000040180cf5                StIsdigit
                0x0000000040180d07                IDMan_StAtoi
                0x0000000040180d63                IDMan_StAtol
                0x0000000040180dcb                IDMan_CmMkHash
                0x0000000040180f86                IDMan_CmChgRSA
                0x000000004018114f                IDMan_CmGetDN
                0x00000000401813f6                IDMan_CmGetCertificateSign
                0x0000000040181620                IDMan_CmGetPublicKey
                0x00000000401817fc                IDMan_CmMakeRand
                0x000000004018189a                IDMan_CmCheckCRL
                0x0000000040181c20                IDMan_SCardEstablishContext
                0x0000000040181c3d                IDMan_SCardReleaseContext
                0x0000000040181c48                IDMan_SCardListReaders
                0x0000000040181c78                IDMan_SCardConnect
                0x0000000040181ca8                IDMan_SCardDisconnect
                0x0000000040181cb3                IDMan_SCardStatus
                0x0000000040181d35                IDMan_SCardSizeLongToChar
                0x0000000040181d76                IDMan_SCardSetBinay
                0x0000000040182115                IDMan_SCardTransmit
                0x0000000040182180                EHDestroyEventHandler
                0x00000000401821ed                EHInitEventHandler
                0x00000000401822a3                EHStatusHandler
                0x0000000040182440                HPSearchHotPluggables
                0x0000000040182790                PHGetProtocol
                0x0000000040182b6b                PHSetProtocol
                0x0000000040182bd4                RFAddReader
                0x0000000040182cef                RFRemoveReader
                0x0000000040182da9                RFReaderInfoById
                0x0000000040182dd9                RFCheckReaderEventState
                0x0000000040182e10                SCardEstablishContext
                0x0000000040182f00                SCardListReaders
                0x0000000040182fad                SCardConnect
                0x0000000040183231                SCardDisconnect
                0x00000000401833e2                SCardBeginTransaction
                0x0000000040183436                SCardEndTransaction
                0x00000000401835fe                SCardStatus
                0x0000000040183809                SCardReleaseContext
                0x00000000401838cf                SCardTransmit
                0x0000000040183b20                SetATR
                0x0000000040183d8d                GetIFSCData
                0x0000000040183de3                GetBWICWIData
                0x0000000040183e81                IFDHCloseChannel
                0x0000000040183f0d                IFDHGetCapabilities
                0x0000000040183f4c                IFDHSetProtocolParameters
                0x000000004018464b                IFDHPowerICC
                0x000000004018484a                IFDHTransmitToICC
                0x0000000040184b0a                IFDHControl
                0x0000000040184c23                IFDHICCPresence
                0x0000000040184cd8                IFDHCreateChannel
                0x0000000040184d8c                FindBaudRateTable
                0x0000000040184dcc                ExchangePPSData
                0x00000000401854b6                InitLeaderCardProtocol
                0x00000000401855cf                T1XfrBlockTPDU
                0x0000000040185c3c                T1NegociateIFSD
                0x0000000040185d84                CardStateConfirm
                0x0000000040185db9                GetCardStatus
                0x0000000040185eb0                PowerOn
                0x0000000040186070                PowerOff
                0x00000000401861d8                CardMechanical
                0x00000000401862f0                TransmitPPS
                0x000000004018648a                TransmitCommand
                0x0000000040186557                ReceiveReply
                0x000000004018671c                BlockSendCardT1
                0x0000000040186974                ReadDataT0
                0x0000000040186a39                T0XfrBlockCHAR
                0x0000000040186fbf                T0XfrBlockTPDU
                0x0000000040187041                T1XfrBlockExtendedAPDU
                0x00000000401873bb                OpenUSB
                0x0000000040187755                WriteUSB
                0x0000000040187786                ReadUSB
                0x00000000401877e4                CloseUSB
                0x0000000040187854                AES_set_encrypt_key
                0x0000000040187c60                AES_set_decrypt_key
                0x0000000040187e86                AES_encrypt
                0x000000004018833f                AES_decrypt
                0x00000000401887e0                BIO_set
                0x00000000401888b5                BIO_new
                0x000000004018892e                BIO_free
                0x00000000401889dd                BIO_vfree
                0x00000000401889e8                BIO_clear_flags
                0x00000000401889f3                BIO_test_flags
                0x00000000401889fe                BIO_set_flags
                0x0000000040188a07                BIO_get_callback
                0x0000000040188a11                BIO_set_callback
                0x0000000040188a1b                BIO_set_callback_arg
                0x0000000040188a25                BIO_get_callback_arg
                0x0000000040188a2f                BIO_method_name
                0x0000000040188a3c                BIO_method_type
                0x0000000040188a47                BIO_read
                0x0000000040188b42                BIO_write
                0x0000000040188c46                BIO_puts
                0x0000000040188d38                BIO_gets
                0x0000000040188e28                BIO_indent
                0x0000000040188e6d                BIO_ctrl
                0x0000000040188f43                BIO_ptr_ctrl
                0x0000000040188f6e                BIO_int_ctrl
                0x0000000040188f84                BIO_callback_ctrl
                0x0000000040189050                BIO_ctrl_pending
                0x000000004018906a                BIO_ctrl_wpending
                0x0000000040189084                BIO_push
                0x00000000401890d2                BIO_pop
                0x0000000040189137                BIO_get_retry_BIO
                0x0000000040189186                BIO_get_retry_reason
                0x000000004018918f                BIO_find_type
                0x00000000401891c4                BIO_next
                0x00000000401891da                BIO_free_all
                0x0000000040189208                BIO_dup_chain
                0x00000000401892f7                BIO_copy_next_retry
                0x0000000040189324                BIO_get_ex_new_index
                0x0000000040189343                BIO_set_ex_data
                0x0000000040189352                BIO_get_ex_data
                0x0000000040189361                BIO_number_read
                0x0000000040189375                BIO_number_written
                0x00000000401894df                BN_set_params
                0x0000000040189572                BN_get_params
                0x00000000401895a7                BN_value_one
                0x00000000401895b2                BN_options
                0x00000000401895f4                BN_num_bits_word
                0x000000004018964f                BN_num_bits
                0x0000000040189679                BN_clear_free
                0x00000000401896e0                BN_free
                0x0000000040189729                BN_init
                0x000000004018973e                BN_new
                0x00000000401897b1                bn_expand2
                0x0000000040189809                BN_copy
                0x00000000401898f7                BN_dup
                0x000000004018994b                bn_dup_expand
                0x00000000401899cd                BN_swap
                0x0000000040189a30                BN_clear
                0x0000000040189a69                BN_get_word
                0x0000000040189a8b                BN_set_word
                0x0000000040189aee                BN_bin2bn
                0x0000000040189c31                BN_bn2bin
                0x0000000040189c9f                BN_ucmp
                0x0000000040189cec                BN_cmp
                0x0000000040189da0                BN_set_bit
                0x0000000040189e65                BN_clear_bit
                0x0000000040189ee3                BN_is_bit_set
                0x0000000040189f20                BN_mask_bits
                0x0000000040189fbc                BN_set_negative
                0x0000000040189fdc                bn_cmp_words
                0x000000004018a03e                bn_cmp_part_words
                0x000000004018a0d0                BN_bn2hex
                0x000000004018a1b6                BN_bn2dec
                0x000000004018a3c5                BN_hex2bn
                0x000000004018a5a2                BN_dec2bn
                0x000000004018a753                BN_asc2bn
                0x000000004018a7c3                BN_print
                0x000000004018aca7                BN_pseudo_rand
                0x000000004018acc1                BN_rand
                0x000000004018acdb                BN_bntest_rand
                0x000000004018acf5                BN_rand_range
                0x000000004018ad0b                BN_pseudo_rand_range
                0x000000004018ad30                BN_mod_word
                0x000000004018ad85                BN_div_word
                0x000000004018ae6b                BN_sub_word
                0x000000004018af6a                BN_add_word
                0x000000004018b03d                BN_mul_word
                0x000000004018b524                BIO_s_mem
                0x000000004018b52f                BIO_new_mem_buf
                0x000000004018b5a8                BUF_MEM_new
                0x000000004018b60f                BUF_MEM_free
                0x000000004018b64f                BUF_MEM_grow
                0x000000004018b749                BUF_MEM_grow_clean
                0x000000004018b85f                BUF_memdup
                0x000000004018b8d4                BUF_strlcpy
                0x000000004018b938                BUF_strndup
                0x000000004018b9b7                BUF_strdup
                0x000000004018b9e3                BUF_strlcat
                0x000000004018ba1d                BUF_reverse
                0x000000004018ba74                OpenSSL_add_all_ciphers
                0x000000004018bf20                OpenSSL_add_all_digests
                0x000000004018c090                CRYPTO_get_new_lockid
                0x000000004018c148                CRYPTO_num_locks
                0x000000004018c153                CRYPTO_get_dynlock_create_callback
                0x000000004018c160                CRYPTO_get_dynlock_lock_callback
                0x000000004018c16d                CRYPTO_get_dynlock_destroy_callback
                0x000000004018c17a                CRYPTO_set_dynlock_create_callback
                0x000000004018c187                CRYPTO_set_dynlock_lock_callback
                0x000000004018c194                CRYPTO_set_dynlock_destroy_callback
                0x000000004018c1a1                CRYPTO_get_locking_callback
                0x000000004018c1ae                CRYPTO_get_add_lock_callback
                0x000000004018c1bb                CRYPTO_set_locking_callback
                0x000000004018c1c8                CRYPTO_set_add_lock_callback
                0x000000004018c1d5                CRYPTO_THREADID_set_numeric
                0x000000004018c208                CRYPTO_THREADID_set_pointer
                0x000000004018c23e                CRYPTO_THREADID_set_callback
                0x000000004018c25c                CRYPTO_THREADID_get_callback
                0x000000004018c269                CRYPTO_THREADID_current
                0x000000004018c2b3                CRYPTO_THREADID_cmp
                0x000000004018c2c3                CRYPTO_THREADID_cpy
                0x000000004018c2d3                CRYPTO_THREADID_hash
                0x000000004018c2dd                CRYPTO_get_id_callback
                0x000000004018c2ea                CRYPTO_set_id_callback
                0x000000004018c2f7                CRYPTO_thread_id
                0x000000004018c310                CRYPTO_get_lock_name
                0x000000004018c363                OPENSSL_ia32cap_loc
                0x000000004018c36e                OPENSSL_cpuid_setup
                0x000000004018c374                OPENSSL_showfatal
                0x000000004018c3bf                OPENSSL_isservice
                0x000000004018c3ca                OpenSSLDie
                0x000000004018c3ec                CRYPTO_lock
                0x000000004018c483                CRYPTO_add_lock
                0x000000004018c507                CRYPTO_get_dynlock_value
                0x000000004018c5a6                CRYPTO_destroy_dynlockid
                0x000000004018c69e                CRYPTO_get_new_dynlockid
                0x000000004018c8ba                OPENSSL_stderr
                0x000000004018c8c8                DES_encrypt1
                0x000000004018ccd6                DES_encrypt2
                0x000000004018cfe1                DES_encrypt3
                0x000000004018d13e                DES_decrypt3
                0x000000004018d29e                DES_ncbc_encrypt
                0x000000004018d8db                DES_ede3_cbc_encrypt
                0x000000004018e336                DH_generate_key
                0x000000004018e346                DH_compute_key
                0x000000004018e356                DH_OpenSSL
                0x000000004018e364                DH_set_default_method
                0x000000004018e371                DH_get_default_method
                0x000000004018e394                DH_set_method
                0x000000004018e3e1                DH_new_method
                0x000000004018e4f7                DH_new
                0x000000004018e507                DH_free
                0x000000004018e5e7                DH_up_ref
                0x000000004018e614                DH_get_ex_new_index
                0x000000004018e633                DH_set_ex_data
                0x000000004018e642                DH_get_ex_data
                0x000000004018e651                DH_size
                0x000000004018f35a                EVP_aes_128_cbc
                0x000000004018f365                EVP_aes_128_cfb128
                0x000000004018f370                EVP_aes_128_ofb
                0x000000004018f37b                EVP_aes_128_ecb
                0x000000004018f386                EVP_aes_192_cbc
                0x000000004018f391                EVP_aes_192_cfb128
                0x000000004018f39c                EVP_aes_192_ofb
                0x000000004018f3a7                EVP_aes_192_ecb
                0x000000004018f3b2                EVP_aes_256_cbc
                0x000000004018f3bd                EVP_aes_256_cfb128
                0x000000004018f3c8                EVP_aes_256_ofb
                0x000000004018f3d3                EVP_aes_256_ecb
                0x000000004018f3de                EVP_aes_128_cfb1
                0x000000004018f3e9                EVP_aes_192_cfb1
                0x000000004018f3f4                EVP_aes_256_cfb1
                0x000000004018f3ff                EVP_aes_128_cfb8
                0x000000004018f40a                EVP_aes_192_cfb8
                0x000000004018f415                EVP_aes_256_cfb8
                0x000000004018f736                EVP_bf_cbc
                0x000000004018f741                EVP_bf_cfb64
                0x000000004018f74c                EVP_bf_ofb
                0x000000004018f757                EVP_bf_ecb
                0x000000004018fa7a                EVP_cast5_cbc
                0x000000004018fa85                EVP_cast5_cfb64
                0x000000004018fa90                EVP_cast5_ofb
                0x000000004018fa9b                EVP_cast5_ecb
                0x000000004019005b                EVP_des_cbc
                0x0000000040190066                EVP_des_cfb64
                0x0000000040190071                EVP_des_ofb
                0x000000004019007c                EVP_des_ecb
                0x0000000040190087                EVP_des_cfb1
                0x0000000040190092                EVP_des_cfb8
                0x00000000401906c6                EVP_des_ede_cbc
                0x00000000401906d1                EVP_des_ede_cfb64
                0x00000000401906dc                EVP_des_ede_ofb
                0x00000000401906e7                EVP_des_ede_ecb
                0x00000000401906f2                EVP_des_ede3_cbc
                0x00000000401906fd                EVP_des_ede3_cfb64
                0x0000000040190708                EVP_des_ede3_ofb
                0x0000000040190713                EVP_des_ede3_ecb
                0x000000004019071e                EVP_des_ede3_cfb1
                0x0000000040190729                EVP_des_ede3_cfb8
                0x0000000040190734                EVP_des_ede
                0x000000004019073f                EVP_des_ede3
                0x0000000040190ac7                EVP_idea_cbc
                0x0000000040190ad2                EVP_idea_cfb64
                0x0000000040190add                EVP_idea_ofb
                0x0000000040190ae8                EVP_idea_ecb
                0x000000004019102f                EVP_rc2_cbc
                0x000000004019103a                EVP_rc2_cfb64
                0x0000000040191045                EVP_rc2_ofb
                0x0000000040191050                EVP_rc2_ecb
                0x000000004019105b                EVP_rc2_64_cbc
                0x0000000040191066                EVP_rc2_40_cbc
                0x00000000401910c9                EVP_rc4
                0x00000000401910d4                EVP_rc4_40
                0x000000004019124a                EVP_desx_cbc
                0x0000000040191258                DES_ecb3_encrypt
                0x0000000040191328                DES_options
                0x000000004019137c                DES_ecb_encrypt
                0x0000000040191b44                ERR_get_implementation
                0x0000000040191b56                ERR_set_implementation
                0x0000000040191bbf                ERR_load_ERR_strings
                0x0000000040191cf1                ERR_load_strings
                0x0000000040191d21                ERR_unload_strings
                0x0000000040191d73                ERR_free_strings
                0x0000000040191d88                ERR_get_string_table
                0x0000000040191da1                ERR_get_err_state_table
                0x0000000040191dbb                ERR_release_err_state_table
                0x0000000040191de0                ERR_lib_error_string
                0x0000000040191e20                ERR_func_error_string
                0x0000000040191e60                ERR_reason_error_string
                0x0000000040191ecf                ERR_error_string_n
                0x0000000040192047                ERR_error_string
                0x0000000040192076                ERR_remove_thread_state
                0x00000000401920bb                ERR_remove_state
                0x00000000401920cb                ERR_get_state
                0x00000000401923c3                ERR_peek_last_error_line_data
                0x00000000401923e4                ERR_peek_last_error_line
                0x000000004019240b                ERR_peek_last_error
                0x0000000040192436                ERR_peek_error_line_data
                0x0000000040192457                ERR_peek_error_line
                0x000000004019247e                ERR_peek_error
                0x00000000401924a9                ERR_get_error_line_data
                0x00000000401924ca                ERR_get_error_line
                0x00000000401924f1                ERR_get_error
                0x000000004019251c                ERR_clear_error
                0x00000000401925d7                ERR_put_error
                0x00000000401926df                ERR_get_next_error_library
                0x00000000401926f4                ERR_set_error_data
                0x0000000040192771                ERR_add_error_data
                0x00000000401928ae                ERR_set_mark
                0x00000000401928d9                ERR_pop_to_mark
                0x00000000401929b0                ERR_load_crypto_strings
                0x0000000040192a4c                ASN1_TYPE_set_octetstring
                0x0000000040192ac4                ASN1_TYPE_get_octetstring
                0x0000000040192b20                ASN1_TYPE_set_int_octetstring
                0x0000000040192c4d                ASN1_TYPE_get_int_octetstring
                0x0000000040192e40                EVP_CIPHER_CTX_init
                0x0000000040192e55                EVP_CIPHER_CTX_new
                0x0000000040192e8c                EVP_EncryptUpdate
                0x0000000040193038                EVP_EncryptFinal_ex
                0x000000004019310c                EVP_EncryptFinal
                0x0000000040193117                EVP_DecryptUpdate
                0x0000000040193246                EVP_CipherUpdate
                0x0000000040193261                EVP_DecryptFinal_ex
                0x00000000401933fc                EVP_DecryptFinal
                0x0000000040193407                EVP_CipherFinal
                0x0000000040193427                EVP_CipherFinal_ex
                0x0000000040193447                EVP_CIPHER_CTX_cleanup
                0x00000000401934b2                EVP_CIPHER_CTX_free
                0x00000000401934d7                EVP_CIPHER_CTX_set_padding
                0x00000000401934f8                EVP_CIPHER_CTX_ctrl
                0x0000000040193588                EVP_CIPHER_CTX_set_key_length
                0x00000000401935e9                EVP_CipherInit_ex
                0x000000004019383a                EVP_DecryptInit_ex
                0x000000004019384b                EVP_EncryptInit_ex
                0x000000004019385c                EVP_CipherInit
                0x00000000401938c0                EVP_DecryptInit
                0x00000000401938d1                EVP_EncryptInit
                0x00000000401938e2                EVP_CIPHER_CTX_rand_key
                0x0000000040193918                EVP_CIPHER_CTX_copy
                0x00000000401939f8                ERR_load_EVP_strings
                0x0000000040193a30                EVP_CIPHER_param_to_asn1
                0x0000000040193a4b                EVP_CIPHER_asn1_to_param
                0x0000000040193a66                EVP_CIPHER_block_size
                0x0000000040193a6f                EVP_CIPHER_CTX_block_size
                0x0000000040193a7b                EVP_Cipher
                0x0000000040193a89                EVP_CIPHER_CTX_cipher
                0x0000000040193a92                EVP_CIPHER_flags
                0x0000000040193a9c                EVP_CIPHER_CTX_flags
                0x0000000040193aa9                EVP_CIPHER_CTX_get_app_data
                0x0000000040193ab3                EVP_CIPHER_CTX_set_app_data
                0x0000000040193abd                EVP_CIPHER_iv_length
                0x0000000040193ac6                EVP_CIPHER_CTX_iv_length
                0x0000000040193ad2                EVP_CIPHER_set_asn1_iv
                0x0000000040193b34                EVP_CIPHER_get_asn1_iv
                0x0000000040193bcc                EVP_CIPHER_key_length
                0x0000000040193bd5                EVP_CIPHER_CTX_key_length
                0x0000000040193bde                EVP_CIPHER_nid
                0x0000000040193be6                EVP_CIPHER_type
                0x0000000040193d25                EVP_CIPHER_CTX_nid
                0x0000000040193d30                EVP_MD_block_size
                0x0000000040193d39                EVP_MD_type
                0x0000000040193d41                EVP_MD_pkey_type
                0x0000000040193d4a                EVP_MD_size
                0x0000000040193d7c                EVP_MD_flags
                0x0000000040193d86                EVP_MD_CTX_md
                0x0000000040193d9b                EVP_MD_CTX_set_flags
                0x0000000040193da8                EVP_MD_CTX_clear_flags
                0x0000000040193db7                EVP_MD_CTX_test_flags
                0x0000000040193dc2                EVP_CIPHER_CTX_set_flags
                0x0000000040193dcf                EVP_CIPHER_CTX_clear_flags
                0x0000000040193dde                EVP_CIPHER_CTX_test_flags
                0x00000000401941f9                CRYPTO_get_ex_data_implementation
                0x0000000040194215                CRYPTO_set_ex_data_implementation
                0x000000004019427e                CRYPTO_ex_data_new_class
                0x000000004019429c                CRYPTO_cleanup_all_ex_data
                0x00000000401942bb                CRYPTO_get_ex_new_index
                0x000000004019432a                CRYPTO_new_ex_data
                0x0000000040194377                CRYPTO_dup_ex_data
                0x00000000401943c4                CRYPTO_free_ex_data
                0x0000000040194411                CRYPTO_set_ex_data
                0x00000000401944ca                CRYPTO_get_ex_data
                0x00000000401949c4                idea_encrypt
                0x0000000040195308                idea_cbc_encrypt
                0x0000000040195930                idea_cfb64_encrypt
                0x0000000040195b50                idea_options
                0x0000000040195b5b                idea_ecb_encrypt
                0x0000000040195c14                idea_ofb64_encrypt
                0x0000000040195e4d                idea_set_encrypt_key
                0x0000000040195fd6                idea_set_decrypt_key
                0x00000000401961cd                lh_strhash
                0x0000000040196240                lh_new
                0x00000000401963a1                lh_free
                0x000000004019640c                lh_insert
                0x0000000040196598                lh_delete
                0x00000000401966c4                lh_retrieve
                0x0000000040196707                lh_doall
                0x0000000040196725                lh_doall_arg
                0x0000000040196740                lh_num_items
                0x0000000040196787                EVP_dss
                0x00000000401967c7                EVP_dss1
                0x0000000040196807                EVP_ecdsa
                0x0000000040196847                EVP_md4
                0x0000000040196887                EVP_md5
                0x00000000401968c7                EVP_ripemd160
                0x0000000040196907                EVP_sha
                0x00000000401969cb                EVP_sha1
                0x00000000401969d6                EVP_sha224
                0x00000000401969e1                EVP_sha256
                0x00000000401969ec                EVP_sha384
                0x00000000401969f7                EVP_sha512
                0x0000000040196a04                MD4_Init
                0x0000000040196a46                md4_block_data_order
                0x0000000040197009                MD4_Final
                0x00000000401970d6                MD4_Transform
                0x00000000401970e6                MD4_Update
                0x0000000040197228                MD5_Init
                0x000000004019726a                md5_block_data_order
                0x0000000040197aaa                MD5_Final
                0x0000000040197b77                MD5_Transform
                0x0000000040197b87                MD5_Update
                0x0000000040197cc8                MD5
                0x0000000040197d64                CRYPTO_set_mem_functions
                0x0000000040197dd4                CRYPTO_set_mem_ex_functions
                0x0000000040197e44                CRYPTO_set_locked_mem_functions
                0x0000000040197e84                CRYPTO_set_locked_mem_ex_functions
                0x0000000040197ec4                CRYPTO_set_mem_debug_functions
                0x0000000040197efd                CRYPTO_get_mem_functions
                0x0000000040197f52                CRYPTO_get_mem_ex_functions
                0x0000000040197fa3                CRYPTO_get_locked_mem_functions
                0x0000000040197fd8                CRYPTO_get_locked_mem_ex_functions
                0x000000004019800b                CRYPTO_get_mem_debug_functions
                0x000000004019805c                CRYPTO_malloc_locked
                0x0000000040198118                CRYPTO_free_locked
                0x000000004019815f                CRYPTO_malloc
                0x000000004019821b                CRYPTO_strdup
                0x000000004019826a                CRYPTO_realloc
                0x0000000040198325                CRYPTO_realloc_clean
                0x0000000040198400                CRYPTO_free
                0x0000000040198447                CRYPTO_remalloc
                0x0000000040198474                CRYPTO_set_mem_debug_options
                0x0000000040198488                CRYPTO_get_mem_debug_options
                0x00000000401984a4                OPENSSL_cleanse
                0x000000004019891c                CRYPTO_mem_ctrl
                0x0000000040198aa6                CRYPTO_is_mem_check_on
                0x0000000040198b22                CRYPTO_dbg_set_options
                0x0000000040198b2f                CRYPTO_dbg_get_options
                0x0000000040198b3c                CRYPTO_push_info_
                0x0000000040198c1b                CRYPTO_pop_info
                0x0000000040198c5d                CRYPTO_remove_all_info
                0x0000000040198ca0                CRYPTO_dbg_malloc
                0x0000000040198e3f                CRYPTO_dbg_free
                0x0000000040198eb4                CRYPTO_dbg_realloc
                0x0000000040198f54                CRYPTO_mem_leaks
                0x0000000040199073                CRYPTO_mem_leaks_cb
                0x000000004019914e                EVP_add_cipher
                0x000000004019919a                EVP_add_digest
                0x000000004019923b                EVP_get_cipherbyname
                0x000000004019924b                EVP_get_digestbyname
                0x000000004019925b                EVP_cleanup
                0x00000000401992a1                EVP_CIPHER_do_all
                0x00000000401992c6                EVP_CIPHER_do_all_sorted
                0x00000000401992eb                EVP_MD_do_all
                0x0000000040199310                EVP_MD_do_all_sorted
                0x0000000040199444                OBJ_NAME_init
                0x0000000040199491                OBJ_NAME_new_index
                0x00000000401995f9                OBJ_NAME_get
                0x000000004019969c                OBJ_NAME_add
                0x0000000040199783                OBJ_NAME_remove
                0x000000004019982e                OBJ_NAME_do_all
                0x0000000040199858                OBJ_NAME_do_all_sorted
                0x00000000401998fb                OBJ_NAME_cleanup
                0x0000000040199bca                check_defer
                0x0000000040199beb                OBJ_cleanup
                0x0000000040199c5d                OBJ_new_nid
                0x0000000040199c71                OBJ_add_object
                0x0000000040199e23                OBJ_nid2obj
                0x0000000040199edf                OBJ_nid2sn
                0x0000000040199f9e                OBJ_nid2ln
                0x000000004019a05e                OBJ_bsearch_ex_
                0x000000004019a157                OBJ_bsearch_
                0x000000004019a168                OBJ_sn2nid
                0x000000004019a1e4                OBJ_ln2nid
                0x000000004019a260                OBJ_txt2obj
                0x000000004019a368                OBJ_obj2nid
                0x000000004019a3f0                OBJ_txt2nid
                0x000000004019a42d                OBJ_obj2txt
                0x000000004019a780                OBJ_create
                0x000000004019a885                OBJ_create_objects
                0x000000004019a9d8                ERR_load_OBJ_strings
                0x000000004019aa10                OBJ_dup
                0x000000004019abea                OBJ_cmp
                0x000000004019ac08                ERR_load_OCSP_strings
                0x000000004019ac40                DES_ede3_ofb64_encrypt
                0x000000004019ae10                DES_ofb64_encrypt
                0x000000004019b131                EVP_PKEY_bits
                0x000000004019b155                EVP_PKEY_size
                0x000000004019b179                EVP_PKEY_save_parameters
                0x000000004019b1ab                EVP_PKEY_missing_parameters
                0x000000004019b1ca                EVP_PKEY_copy_parameters
                0x000000004019b26a                EVP_PKEY_cmp_parameters
                0x000000004019b2a0                EVP_PKEY_cmp
                0x000000004019b2fb                EVP_PKEY_new
                0x000000004019b386                EVP_PKEY_set_type
                0x000000004019b39b                EVP_PKEY_set_type_str
                0x000000004019b3b0                EVP_PKEY_assign
                0x000000004019b3ed                EVP_PKEY_get0
                0x000000004019b3f7                EVP_PKEY_set1_RSA
                0x000000004019b431                EVP_PKEY_get1_RSA
                0x000000004019b47c                EVP_PKEY_set1_DSA
                0x000000004019b4b6                EVP_PKEY_get1_DSA
                0x000000004019b501                EVP_PKEY_set1_EC_KEY
                0x000000004019b53b                EVP_PKEY_get1_EC_KEY
                0x000000004019b589                EVP_PKEY_set1_DH
                0x000000004019b5c3                EVP_PKEY_get1_DH
                0x000000004019b60e                EVP_PKEY_type
                0x000000004019b631                EVP_PKEY_id
                0x000000004019b639                EVP_PKEY_base_id
                0x000000004019b646                EVP_PKEY_free
                0x000000004019b6a3                EVP_PKEY_print_public
                0x000000004019b6c9                EVP_PKEY_print_private
                0x000000004019b6f1                EVP_PKEY_print_params
                0x000000004019b71a                EVP_PKEY_get_default_digest_nid
                0x000000004019b754                PEM_read_bio_X509_REQ
                0x000000004019b775                PEM_write_bio_X509_REQ
                0x000000004019b7b9                PEM_write_bio_X509_REQ_NEW
                0x000000004019b7fd                PEM_read_bio_X509_CRL
                0x000000004019b81e                PEM_write_bio_X509_CRL
                0x000000004019b862                PEM_read_bio_PKCS7
                0x000000004019b883                PEM_write_bio_PKCS7
                0x000000004019b8c7                PEM_read_bio_NETSCAPE_CERT_SEQUENCE
                0x000000004019b8e8                PEM_write_bio_NETSCAPE_CERT_SEQUENCE
                0x000000004019b92c                PEM_read_bio_RSAPrivateKey
                0x000000004019b995                PEM_write_bio_RSAPrivateKey
                0x000000004019b9cc                PEM_read_bio_RSAPublicKey
                0x000000004019b9ed                PEM_write_bio_RSAPublicKey
                0x000000004019ba31                PEM_read_bio_RSA_PUBKEY
                0x000000004019ba52                PEM_write_bio_RSA_PUBKEY
                0x000000004019ba96                PEM_read_bio_DSAPrivateKey
                0x000000004019baff                PEM_write_bio_DSAPrivateKey
                0x000000004019bb36                PEM_read_bio_DSA_PUBKEY
                0x000000004019bb57                PEM_write_bio_DSA_PUBKEY
                0x000000004019bb9b                PEM_read_bio_DSAparams
                0x000000004019bbbc                PEM_write_bio_DSAparams
                0x000000004019bc00                PEM_read_bio_ECPrivateKey
                0x000000004019bc69                PEM_read_bio_ECPKParameters
                0x000000004019bc8a                PEM_write_bio_ECPKParameters
                0x000000004019bcce                PEM_write_bio_ECPrivateKey
                0x000000004019bd05                PEM_read_bio_EC_PUBKEY
                0x000000004019bd26                PEM_write_bio_EC_PUBKEY
                0x000000004019bd6a                PEM_read_bio_DHparams
                0x000000004019bd8b                PEM_write_bio_DHparams
                0x000000004019bdcf                PEM_read_bio_PUBKEY
                0x000000004019bdf0                PEM_write_bio_PUBKEY
                0x000000004019be34                ERR_load_PEM_strings
                0x000000004019be70                PEM_def_callback
                0x000000004019be9a                PEM_proc_type
                0x000000004019bf02                PEM_dek_info
                0x000000004019bfc1                PEM_do_header
                0x000000004019c19a                PEM_get_EVP_CIPHER_INFO
                0x000000004019c439                PEM_write_bio
                0x000000004019c708                PEM_ASN1_write_bio
                0x000000004019cb23                PEM_read_bio
                0x000000004019d20c                pem_check_suffix
                0x000000004019d281                PEM_bytes_read_bio
                0x000000004019d5cc                PEM_ASN1_read_bio
                0x000000004019d678                PEM_read_bio_PrivateKey
                0x000000004019d8d4                PEM_write_bio_PrivateKey
                0x000000004019d9a0                PEM_read_bio_Parameters
                0x000000004019dac2                PEM_write_bio_Parameters
                0x000000004019db44                PEM_read_bio_X509
                0x000000004019db65                PEM_write_bio_X509
                0x000000004019dbac                ERR_load_PKCS12_strings
                0x000000004019dcba                d2i_PKCS7
                0x000000004019dcca                i2d_PKCS7
                0x000000004019dcda                PKCS7_new
                0x000000004019dcea                PKCS7_free
                0x000000004019dcfa                i2d_PKCS7_NDEF
                0x000000004019dd0a                PKCS7_dup
                0x000000004019dd1d                d2i_PKCS7_SIGNED
                0x000000004019dd2d                i2d_PKCS7_SIGNED
                0x000000004019dd3d                PKCS7_SIGNED_new
                0x000000004019dd4d                PKCS7_SIGNED_free
                0x000000004019dd5d                d2i_PKCS7_SIGNER_INFO
                0x000000004019dd6d                i2d_PKCS7_SIGNER_INFO
                0x000000004019dd7d                PKCS7_SIGNER_INFO_new
                0x000000004019dd8d                PKCS7_SIGNER_INFO_free
                0x000000004019dd9d                d2i_PKCS7_ISSUER_AND_SERIAL
                0x000000004019ddad                i2d_PKCS7_ISSUER_AND_SERIAL
                0x000000004019ddbd                PKCS7_ISSUER_AND_SERIAL_new
                0x000000004019ddcd                PKCS7_ISSUER_AND_SERIAL_free
                0x000000004019dddd                d2i_PKCS7_ENVELOPE
                0x000000004019dded                i2d_PKCS7_ENVELOPE
                0x000000004019ddfd                PKCS7_ENVELOPE_new
                0x000000004019de0d                PKCS7_ENVELOPE_free
                0x000000004019de1d                d2i_PKCS7_RECIP_INFO
                0x000000004019de2d                i2d_PKCS7_RECIP_INFO
                0x000000004019de3d                PKCS7_RECIP_INFO_new
                0x000000004019de4d                PKCS7_RECIP_INFO_free
                0x000000004019de5d                d2i_PKCS7_ENC_CONTENT
                0x000000004019de6d                i2d_PKCS7_ENC_CONTENT
                0x000000004019de7d                PKCS7_ENC_CONTENT_new
                0x000000004019de8d                PKCS7_ENC_CONTENT_free
                0x000000004019de9d                d2i_PKCS7_SIGN_ENVELOPE
                0x000000004019dead                i2d_PKCS7_SIGN_ENVELOPE
                0x000000004019debd                PKCS7_SIGN_ENVELOPE_new
                0x000000004019decd                PKCS7_SIGN_ENVELOPE_free
                0x000000004019dedd                d2i_PKCS7_ENCRYPT
                0x000000004019deed                i2d_PKCS7_ENCRYPT
                0x000000004019defd                PKCS7_ENCRYPT_new
                0x000000004019df0d                PKCS7_ENCRYPT_free
                0x000000004019df1d                d2i_PKCS7_DIGEST
                0x000000004019df2d                i2d_PKCS7_DIGEST
                0x000000004019df3d                PKCS7_DIGEST_new
                0x000000004019df4d                PKCS7_DIGEST_free
                0x000000004019df5d                PKCS7_print_ctx
                0x000000004019e4d9                PKCS7_dataInit
                0x000000004019ebae                PKCS7_dataDecode
                0x000000004019f255                PKCS7_SIGNER_INFO_sign
                0x000000004019f41e                PKCS7_get_issuer_and_serial
                0x000000004019f48d                PKCS7_get_signed_attribute
                0x000000004019f49c                PKCS7_dataFinal
                0x000000004019fa4e                PKCS7_get_attribute
                0x000000004019fa5d                PKCS7_digest_from_attributes
                0x000000004019fa7d                PKCS7_signatureVerify
                0x000000004019fd84                PKCS7_dataVerify
                0x000000004019ff02                PKCS7_set_signed_attributes
                0x000000004019ff95                PKCS7_set_attributes
                0x00000000401a0028                PKCS7_add_signed_attribute
                0x00000000401a0037                PKCS7_add_attribute
                0x00000000401a0050                PKCS7_ctrl
                0x00000000401a018c                PKCS7_set_content
                0x00000000401a021d                PKCS7_set_type
                0x00000000401a042e                PKCS7_content_new
                0x00000000401a049a                PKCS7_set0_type_other
                0x00000000401a04ce                PKCS7_add_signer
                0x00000000401a062b                PKCS7_add_certificate
                0x00000000401a070c                PKCS7_add_crl
                0x00000000401a07ec                PKCS7_SIGNER_INFO_set
                0x00000000401a095c                PKCS7_add_signature
                0x00000000401a0a30                PKCS7_set_digest
                0x00000000401a0afc                PKCS7_get_signer_info
                0x00000000401a0b45                PKCS7_SIGNER_INFO_get0_algs
                0x00000000401a0b6f                PKCS7_RECIP_INFO_get0_alg
                0x00000000401a0b81                PKCS7_add_recipient_info
                0x00000000401a0bf0                PKCS7_RECIP_INFO_set
                0x00000000401a0d7b                PKCS7_add_recipient
                0x00000000401a0de0                PKCS7_cert_from_signer_info
                0x00000000401a0e32                PKCS7_set_cipher
                0x00000000401a0ecc                PKCS7_stream
                0x00000000401a0f98                ERR_load_PKCS7_strings
                0x00000000401a0fd0                ERR_load_RAND_strings
                0x00000000401a1008                DES_random_key
                0x00000000401a1050                RAND_set_rand_method
                0x00000000401a1062                RAND_get_rand_method
                0x00000000401a1085                RAND_cleanup
                0x00000000401a10aa                RAND_seed
                0x00000000401a10e2                RAND_add
                0x00000000401a112b                RAND_bytes
                0x00000000401a1172                RAND_pseudo_bytes
                0x00000000401a11b9                RAND_status
                0x00000000401a11dc                RC2_encrypt
                0x00000000401a133a                RC2_decrypt
                0x00000000401a14a0                RC2_cbc_encrypt
                0x00000000401a1ac8                RC2_ecb_encrypt
                0x00000000401a1b90                RC2_set_key
                0x00000000401a1cc0                RC2_cfb64_encrypt
                0x00000000401a1ed4                RC2_ofb64_encrypt
                0x00000000401a2088                RC4
                0x00000000401a2524                RC4_options
                0x00000000401a252f                RC4_set_key
                0x00000000401a2634                RIPEMD160_Init
                0x00000000401a267d                ripemd160_block_data_order
                0x00000000401a3cd2                RIPEMD160_Final
                0x00000000401a3da7                RIPEMD160_Transform
                0x00000000401a3db7                RIPEMD160_Update
                0x00000000401a3f42                d2i_RSAPrivateKey
                0x00000000401a3f52                i2d_RSAPrivateKey
                0x00000000401a3f62                d2i_RSAPublicKey
                0x00000000401a3f72                i2d_RSAPublicKey
                0x00000000401a3f82                RSAPublicKey_dup
                0x00000000401a3f95                RSAPrivateKey_dup
                0x00000000401a3fb0                RSA_generate_key
                0x00000000401a4070                ERR_load_RSA_strings
                0x00000000401a40b0                RSA_generate_key_ex
                0x00000000401a4680                RSA_set_default_method
                0x00000000401a468d                RSA_get_default_method
                0x00000000401a46b0                RSA_get_method
                0x00000000401a46ba                RSA_set_method
                0x00000000401a4701                RSA_new_method
                0x00000000401a484d                RSA_new
                0x00000000401a485d                RSA_free
                0x00000000401a496d                RSA_up_ref
                0x00000000401a499a                RSA_get_ex_new_index
                0x00000000401a49b9                RSA_set_ex_data
                0x00000000401a49c8                RSA_get_ex_data
                0x00000000401a49d7                RSA_size
                0x00000000401a49f2                RSA_public_encrypt
                0x00000000401a49ff                RSA_private_encrypt
                0x00000000401a4a0c                RSA_private_decrypt
                0x00000000401a4a19                RSA_public_decrypt
                0x00000000401a4a26                RSA_flags
                0x00000000401a4a3d                RSA_blinding_off
                0x00000000401a4a77                RSA_setup_blinding
                0x00000000401a4d20                RSA_blinding_on
                0x00000000401a4d7e                RSA_memory_lock
                0x00000000401a4ed0                RSA_sign
                0x00000000401a5135                int_rsa_verify
                0x00000000401a54cf                RSA_verify
                0x00000000401a5510                DES_set_odd_parity
                0x00000000401a5533                DES_check_key_parity
                0x00000000401a5574                DES_is_weak_key
                0x00000000401a55c3                DES_set_key_unchecked
                0x00000000401a5867                DES_set_key_checked
                0x00000000401a58b8                DES_set_key
                0x00000000401a58dc                DES_key_sched
                0x00000000401a58e8                SHA1
                0x00000000401a6a9b                SHA1_Update
                0x00000000401a6bda                SHA1_Transform
                0x00000000401a6bea                SHA1_Final
                0x00000000401a6ccd                SHA1_Init
                0x00000000401a8530                SHA224_Init
                0x00000000401a8595                SHA256_Init
                0x00000000401a85fa                SHA256_Update
                0x00000000401a8739                SHA224_Update
                0x00000000401a8744                SHA256_Transform
                0x00000000401a8754                SHA256_Final
                0x00000000401a887e                SHA224_Final
                0x00000000401a8889                SHA256
                0x00000000401a8904                SHA224
                0x00000000401aa175                SHA384_Init
                0x00000000401aa213                SHA512_Init
                0x00000000401aa2b1                SHA512_Final
                0x00000000401aa516                SHA384_Final
                0x00000000401aa521                SHA512_Update
                0x00000000401aa631                SHA384_Update
                0x00000000401aa63c                SHA512_Transform
                0x00000000401aa64c                SHA384
                0x00000000401aa6c7                SHA512
                0x00000000401ab717                SHA_Update
                0x00000000401ab856                SHA_Transform
                0x00000000401ab866                SHA_Final
                0x00000000401ab949                SHA_Init
                0x00000000401ab9a0                sk_set_cmp_func
                0x00000000401ab9ba                sk_new
                0x00000000401aba57                sk_new_null
                0x00000000401aba67                sk_insert
                0x00000000401abb22                sk_delete
                0x00000000401abb7e                sk_delete_ptr
                0x00000000401abbc4                sk_push
                0x00000000401abbd1                sk_unshift
                0x00000000401abbe1                sk_shift
                0x00000000401abc07                sk_pop
                0x00000000401abc2c                sk_zero
                0x00000000401abc61                sk_free
                0x00000000401abc8f                sk_pop_free
                0x00000000401abce1                sk_dup
                0x00000000401abd67                sk_num
                0x00000000401abd7b                sk_value
                0x00000000401abdaa                sk_set
                0x00000000401abdde                sk_sort
                0x00000000401abebc                sk_find_ex
                0x00000000401abecc                sk_find
                0x00000000401abedc                sk_is_sorted
                0x00000000401ac382                ASN1_tag2bit
                0x00000000401ac39d                asn1_ex_c2i
                0x00000000401acbed                ASN1_item_ex_d2i
                0x00000000401adaca                ASN1_template_d2i
                0x00000000401adae7                ASN1_item_d2i
                0x00000000401adb91                asn1_ex_i2c
                0x00000000401ade5a                ASN1_item_ex_i2d
                0x00000000401ae6b9                ASN1_template_i2d
                0x00000000401ae795                ASN1_item_i2d
                0x00000000401ae7a5                ASN1_item_ndef_i2d
                0x00000000401ae7c0                ASN1_primitive_free
                0x00000000401aeae6                ASN1_template_free
                0x00000000401aeb6a                ASN1_item_ex_free
                0x00000000401aeb7a                ASN1_item_free
                0x00000000401aec62                ASN1_primitive_new
                0x00000000401af08c                ASN1_template_new
                0x00000000401af119                ASN1_item_ex_new
                0x00000000401af129                ASN1_item_new
                0x00000000401af158                d2i_ASN1_INTEGER
                0x00000000401af168                i2d_ASN1_INTEGER
                0x00000000401af178                ASN1_INTEGER_new
                0x00000000401af188                ASN1_INTEGER_free
                0x00000000401af198                d2i_ASN1_ENUMERATED
                0x00000000401af1a8                i2d_ASN1_ENUMERATED
                0x00000000401af1b8                ASN1_ENUMERATED_new
                0x00000000401af1c8                ASN1_ENUMERATED_free
                0x00000000401af1d8                d2i_ASN1_BIT_STRING
                0x00000000401af1e8                i2d_ASN1_BIT_STRING
                0x00000000401af1f8                ASN1_BIT_STRING_new
                0x00000000401af208                ASN1_BIT_STRING_free
                0x00000000401af218                d2i_ASN1_OCTET_STRING
                0x00000000401af228                i2d_ASN1_OCTET_STRING
                0x00000000401af238                ASN1_OCTET_STRING_new
                0x00000000401af248                ASN1_OCTET_STRING_free
                0x00000000401af258                d2i_ASN1_NULL
                0x00000000401af268                i2d_ASN1_NULL
                0x00000000401af278                ASN1_NULL_new
                0x00000000401af288                ASN1_NULL_free
                0x00000000401af298                d2i_ASN1_UTF8STRING
                0x00000000401af2a8                i2d_ASN1_UTF8STRING
                0x00000000401af2b8                ASN1_UTF8STRING_new
                0x00000000401af2c8                ASN1_UTF8STRING_free
                0x00000000401af2d8                d2i_ASN1_PRINTABLESTRING
                0x00000000401af2e8                i2d_ASN1_PRINTABLESTRING
                0x00000000401af2f8                ASN1_PRINTABLESTRING_new
                0x00000000401af308                ASN1_PRINTABLESTRING_free
                0x00000000401af318                d2i_ASN1_T61STRING
                0x00000000401af328                i2d_ASN1_T61STRING
                0x00000000401af338                ASN1_T61STRING_new
                0x00000000401af348                ASN1_T61STRING_free
                0x00000000401af358                d2i_ASN1_IA5STRING
                0x00000000401af368                i2d_ASN1_IA5STRING
                0x00000000401af378                ASN1_IA5STRING_new
                0x00000000401af388                ASN1_IA5STRING_free
                0x00000000401af398                d2i_ASN1_GENERALSTRING
                0x00000000401af3a8                i2d_ASN1_GENERALSTRING
                0x00000000401af3b8                ASN1_GENERALSTRING_new
                0x00000000401af3c8                ASN1_GENERALSTRING_free
                0x00000000401af3d8                d2i_ASN1_UTCTIME
                0x00000000401af3e8                i2d_ASN1_UTCTIME
                0x00000000401af3f8                ASN1_UTCTIME_new
                0x00000000401af408                ASN1_UTCTIME_free
                0x00000000401af418                d2i_ASN1_GENERALIZEDTIME
                0x00000000401af428                i2d_ASN1_GENERALIZEDTIME
                0x00000000401af438                ASN1_GENERALIZEDTIME_new
                0x00000000401af448                ASN1_GENERALIZEDTIME_free
                0x00000000401af458                d2i_ASN1_VISIBLESTRING
                0x00000000401af468                i2d_ASN1_VISIBLESTRING
                0x00000000401af478                ASN1_VISIBLESTRING_new
                0x00000000401af488                ASN1_VISIBLESTRING_free
                0x00000000401af498                d2i_ASN1_UNIVERSALSTRING
                0x00000000401af4a8                i2d_ASN1_UNIVERSALSTRING
                0x00000000401af4b8                ASN1_UNIVERSALSTRING_new
                0x00000000401af4c8                ASN1_UNIVERSALSTRING_free
                0x00000000401af4d8                d2i_ASN1_BMPSTRING
                0x00000000401af4e8                i2d_ASN1_BMPSTRING
                0x00000000401af4f8                ASN1_BMPSTRING_new
                0x00000000401af508                ASN1_BMPSTRING_free
                0x00000000401af518                d2i_ASN1_TYPE
                0x00000000401af528                i2d_ASN1_TYPE
                0x00000000401af538                ASN1_TYPE_new
                0x00000000401af548                ASN1_TYPE_free
                0x00000000401af558                d2i_ASN1_PRINTABLE
                0x00000000401af568                i2d_ASN1_PRINTABLE
                0x00000000401af578                ASN1_PRINTABLE_new
                0x00000000401af588                ASN1_PRINTABLE_free
                0x00000000401af598                d2i_DISPLAYTEXT
                0x00000000401af5a8                i2d_DISPLAYTEXT
                0x00000000401af5b8                DISPLAYTEXT_new
                0x00000000401af5c8                DISPLAYTEXT_free
                0x00000000401af5d8                d2i_DIRECTORYSTRING
                0x00000000401af5e8                i2d_DIRECTORYSTRING
                0x00000000401af5f8                DIRECTORYSTRING_new
                0x00000000401af608                DIRECTORYSTRING_free
                0x00000000401af618                d2i_ASN1_SEQUENCE_ANY
                0x00000000401af628                i2d_ASN1_SEQUENCE_ANY
                0x00000000401af638                d2i_ASN1_SET_ANY
                0x00000000401af648                i2d_ASN1_SET_ANY
                0x00000000401af6a3                asn1_get_choice_selector
                0x00000000401af6b3                asn1_set_choice_selector
                0x00000000401af6c7                asn1_do_lock
                0x00000000401af721                asn1_enc_init
                0x00000000401af747                asn1_enc_free
                0x00000000401af787                asn1_enc_save
                0x00000000401af811                asn1_enc_restore
                0x00000000401af88b                asn1_get_field_ptr
                0x00000000401af8a3                asn1_do_adb
                0x00000000401af960                ERR_load_UI_strings
                0x00000000401af998                ERR_load_X509V3_strings
                0x00000000401af9d0                X509_issuer_and_serial_hash
                0x00000000401afa9f                X509_CRL_match
                0x00000000401afab7                X509_get_issuer_name
                0x00000000401afac4                X509_get_subject_name
                0x00000000401afad1                X509_get_serialNumber
                0x00000000401afade                X509_cmp
                0x00000000401afb38                X509_NAME_cmp
                0x00000000401afbb1                X509_CRL_cmp
                0x00000000401afbca                X509_subject_name_cmp
                0x00000000401afbe3                X509_issuer_name_cmp
                0x00000000401afbfc                X509_issuer_and_serial_cmp
                0x00000000401afc3c                X509_NAME_hash
                0x00000000401afca2                X509_subject_name_hash
                0x00000000401afcb4                X509_issuer_name_hash
                0x00000000401afcc6                X509_NAME_hash_old
                0x00000000401afd2f                X509_subject_name_hash_old
                0x00000000401afd41                X509_issuer_name_hash_old
                0x00000000401afd53                X509_find_by_issuer_and_serial
                0x00000000401afdd6                X509_find_by_subject
                0x00000000401afe33                X509_get_pubkey
                0x00000000401afe5b                X509_get0_pubkey_bitstr
                0x00000000401afe78                X509_check_private_key
                0x00000000401aff34                ERR_load_X509_strings
                0x00000000401aff6c                X509_NAME_oneline
                0x00000000401b07aa                X509_time_adj_ex
                0x00000000401b07f7                X509_time_adj
                0x00000000401b080d                X509_gmtime_adj
                0x00000000401b081d                X509_cmp_time
                0x00000000401b18e2                X509_cmp_current_time
                0x00000000401b18f2                X509_get_pubkey_parameters
                0x00000000401b1a1e                X509_verify_cert
                0x00000000401b23b1                X509_STORE_CTX_get_ex_new_index
                0x00000000401b23d0                X509_STORE_CTX_set_ex_data
                0x00000000401b23e2                X509_STORE_CTX_get_ex_data
                0x00000000401b23f4                X509_STORE_CTX_get_error
                0x00000000401b2400                X509_STORE_CTX_set_error
                0x00000000401b240c                X509_STORE_CTX_get_error_depth
                0x00000000401b2418                X509_STORE_CTX_get_current_cert
                0x00000000401b2425                X509_STORE_CTX_get_chain
                0x00000000401b2432                X509_STORE_CTX_get1_chain
                0x00000000401b249e                X509_STORE_CTX_get0_current_issuer
                0x00000000401b24ab                X509_STORE_CTX_get0_current_crl
                0x00000000401b24b8                X509_STORE_CTX_get0_parent_ctx
                0x00000000401b24c5                X509_STORE_CTX_set_cert
                0x00000000401b24cf                X509_STORE_CTX_set_chain
                0x00000000401b24d9                X509_STORE_CTX_set0_crls
                0x00000000401b24e3                X509_STORE_CTX_purpose_inherit
                0x00000000401b2610                X509_STORE_CTX_set_trust
                0x00000000401b2627                X509_STORE_CTX_set_purpose
                0x00000000401b263e                X509_STORE_CTX_new
                0x00000000401b26a0                X509_STORE_CTX_init
                0x00000000401b29ff                X509_STORE_CTX_trusted_stack
                0x00000000401b2a11                X509_STORE_CTX_cleanup
                0x00000000401b2ab4                X509_STORE_CTX_free
                0x00000000401b2ad4                X509_STORE_CTX_set_depth
                0x00000000401b2ae3                X509_STORE_CTX_set_flags
                0x00000000401b2af2                X509_STORE_CTX_set_time
                0x00000000401b2b03                X509_STORE_CTX_set_verify_cb
                0x00000000401b2b0d                X509_STORE_CTX_get0_policy_tree
                0x00000000401b2b1a                X509_STORE_CTX_get_explicit_policy
                0x00000000401b2b26                X509_STORE_CTX_set_default
                0x00000000401b2b57                X509_STORE_CTX_get0_param
                0x00000000401b2b61                X509_STORE_CTX_set0_param
                0x00000000401b2f57                X509_VERIFY_PARAM_free
                0x00000000401b2f77                X509_VERIFY_PARAM_new
                0x00000000401b2fbb                X509_VERIFY_PARAM_set1_name
                0x00000000401b2ffc                X509_VERIFY_PARAM_set_flags
                0x00000000401b3020                X509_VERIFY_PARAM_clear_flags
                0x00000000401b3032                X509_VERIFY_PARAM_get_flags
                0x00000000401b303c                X509_VERIFY_PARAM_set_purpose
                0x00000000401b304b                X509_VERIFY_PARAM_set_trust
                0x00000000401b305a                X509_VERIFY_PARAM_set_depth
                0x00000000401b3063                X509_VERIFY_PARAM_set_time
                0x00000000401b3071                X509_VERIFY_PARAM_add0_policy
                0x00000000401b30c2                X509_VERIFY_PARAM_set1_policies
                0x00000000401b3189                X509_VERIFY_PARAM_inherit
                0x00000000401b329f                X509_VERIFY_PARAM_set1
                0x00000000401b32d4                X509_VERIFY_PARAM_get_depth
                0x00000000401b32dd                X509_VERIFY_PARAM_add0_table
                0x00000000401b3364                X509_VERIFY_PARAM_lookup
                0x00000000401b33ba                X509_VERIFY_PARAM_table_cleanup
                0x00000000401b33e4                d2i_X509_ALGOR
                0x00000000401b33f4                i2d_X509_ALGOR
                0x00000000401b3404                X509_ALGOR_new
                0x00000000401b3414                X509_ALGOR_free
                0x00000000401b3424                d2i_X509_ALGORS
                0x00000000401b3434                i2d_X509_ALGORS
                0x00000000401b3444                X509_ALGOR_dup
                0x00000000401b3457                X509_ALGOR_set0
                0x00000000401b3509                X509_ALGOR_get0
                0x00000000401b3544                X509_verify
                0x00000000401b3565                X509_REQ_verify
                0x00000000401b3586                NETSCAPE_SPKI_verify
                0x00000000401b35a7                X509_sign
                0x00000000401b35e1                X509_REQ_sign
                0x00000000401b360f                X509_CRL_sign
                0x00000000401b3649                NETSCAPE_SPKI_sign
                0x00000000401b3677                d2i_X509_bio
                0x00000000401b368d                i2d_X509_bio
                0x00000000401b36a3                d2i_X509_CRL_bio
                0x00000000401b36b9                i2d_X509_CRL_bio
                0x00000000401b36cf                d2i_PKCS7_bio
                0x00000000401b36e5                i2d_PKCS7_bio
                0x00000000401b36fb                d2i_X509_REQ_bio
                0x00000000401b3711                i2d_X509_REQ_bio
                0x00000000401b3727                d2i_RSAPrivateKey_bio
                0x00000000401b373d                i2d_RSAPrivateKey_bio
                0x00000000401b3753                d2i_RSAPublicKey_bio
                0x00000000401b3769                d2i_RSA_PUBKEY_bio
                0x00000000401b3784                i2d_RSAPublicKey_bio
                0x00000000401b379a                i2d_RSA_PUBKEY_bio
                0x00000000401b37b0                d2i_DSAPrivateKey_bio
                0x00000000401b37cb                i2d_DSAPrivateKey_bio
                0x00000000401b37e1                d2i_DSA_PUBKEY_bio
                0x00000000401b37fc                i2d_DSA_PUBKEY_bio
                0x00000000401b3812                d2i_EC_PUBKEY_bio
                0x00000000401b382d                i2d_EC_PUBKEY_bio
                0x00000000401b3843                d2i_ECPrivateKey_bio
                0x00000000401b385e                i2d_ECPrivateKey_bio
                0x00000000401b3874                X509_pubkey_digest
                0x00000000401b38cc                X509_digest
                0x00000000401b38e5                X509_CRL_digest
                0x00000000401b38fe                X509_REQ_digest
                0x00000000401b3917                X509_NAME_digest
                0x00000000401b3930                PKCS7_ISSUER_AND_SERIAL_digest
                0x00000000401b3949                d2i_PKCS8_bio
                0x00000000401b3964                i2d_PKCS8_bio
                0x00000000401b397a                d2i_PKCS8_PRIV_KEY_INFO_bio
                0x00000000401b3995                i2d_PKCS8_PRIV_KEY_INFO_bio
                0x00000000401b39ab                i2d_PKCS8PrivateKeyInfo_bio
                0x00000000401b39ff                i2d_PrivateKey_bio
                0x00000000401b3a15                d2i_PrivateKey_bio
                0x00000000401b3a30                i2d_PUBKEY_bio
                0x00000000401b3a46                d2i_PUBKEY_bio
                0x00000000401b3a64                d2i_X509_ATTRIBUTE
                0x00000000401b3a74                i2d_X509_ATTRIBUTE
                0x00000000401b3a84                X509_ATTRIBUTE_new
                0x00000000401b3a94                X509_ATTRIBUTE_free
                0x00000000401b3aa4                X509_ATTRIBUTE_dup
                0x00000000401b3ab7                X509_ATTRIBUTE_create
                0x00000000401b42ee                d2i_X509_REVOKED
                0x00000000401b42fe                i2d_X509_REVOKED
                0x00000000401b430e                X509_REVOKED_new
                0x00000000401b431e                X509_REVOKED_free
                0x00000000401b432e                d2i_X509_CRL_INFO
                0x00000000401b433e                i2d_X509_CRL_INFO
                0x00000000401b434e                X509_CRL_INFO_new
                0x00000000401b435e                X509_CRL_INFO_free
                0x00000000401b436e                d2i_X509_CRL
                0x00000000401b437e                i2d_X509_CRL
                0x00000000401b438e                X509_CRL_new
                0x00000000401b439e                X509_CRL_free
                0x00000000401b43ae                X509_CRL_dup
                0x00000000401b43c1                X509_CRL_add0_revoked
                0x00000000401b4442                X509_CRL_verify
                0x00000000401b445c                X509_CRL_get0_by_serial
                0x00000000401b447c                X509_CRL_get0_by_cert
                0x00000000401b44eb                X509_CRL_set_default_method
                0x00000000401b4504                X509_CRL_METHOD_new
                0x00000000401b4569                X509_CRL_METHOD_free
                0x00000000401b4579                X509_CRL_set_meth_data
                0x00000000401b4583                X509_CRL_get_meth_data
                0x00000000401b4590                d2i_X509_EXTENSION
                0x00000000401b45a0                i2d_X509_EXTENSION
                0x00000000401b45b0                X509_EXTENSION_new
                0x00000000401b45c0                X509_EXTENSION_free
                0x00000000401b45d0                d2i_X509_EXTENSIONS
                0x00000000401b45e0                i2d_X509_EXTENSIONS
                0x00000000401b45f0                X509_EXTENSION_dup
                0x00000000401b498d                X509_NAME_ENTRY_free
                0x00000000401b499d                d2i_X509_NAME_ENTRY
                0x00000000401b49ad                i2d_X509_NAME_ENTRY
                0x00000000401b49bd                X509_NAME_ENTRY_new
                0x00000000401b4eec                X509_NAME_ENTRY_dup
                0x00000000401b4eff                d2i_X509_NAME
                0x00000000401b4f0f                i2d_X509_NAME
                0x00000000401b4f1f                X509_NAME_new
                0x00000000401b4f2f                X509_NAME_free
                0x00000000401b50e1                X509_NAME_dup
                0x00000000401b50f4                X509_NAME_set
                0x00000000401b516c                d2i_X509_PUBKEY
                0x00000000401b517c                i2d_X509_PUBKEY
                0x00000000401b518c                X509_PUBKEY_new
                0x00000000401b519c                X509_PUBKEY_free
                0x00000000401b51ac                X509_PUBKEY_set
                0x00000000401b529d                X509_PUBKEY_get
                0x00000000401b53fc                d2i_PUBKEY
                0x00000000401b5465                i2d_PUBKEY
                0x00000000401b54bd                d2i_RSA_PUBKEY
                0x00000000401b5542                i2d_RSA_PUBKEY
                0x00000000401b55cf                d2i_DSA_PUBKEY
                0x00000000401b5654                i2d_DSA_PUBKEY
                0x00000000401b56e1                d2i_EC_PUBKEY
                0x00000000401b5766                i2d_EC_PUBKEY
                0x00000000401b57f3                X509_PUBKEY_set0_param
                0x00000000401b5870                X509_PUBKEY_get0_param
                0x00000000401b58db                d2i_X509_REQ_INFO
                0x00000000401b58eb                i2d_X509_REQ_INFO
                0x00000000401b58fb                X509_REQ_INFO_new
                0x00000000401b590b                X509_REQ_INFO_free
                0x00000000401b591b                d2i_X509_REQ
                0x00000000401b592b                i2d_X509_REQ
                0x00000000401b593b                X509_REQ_new
                0x00000000401b594b                X509_REQ_free
                0x00000000401b595b                X509_REQ_dup
                0x00000000401b5970                d2i_X509_SIG
                0x00000000401b5980                i2d_X509_SIG
                0x00000000401b5990                X509_SIG_new
                0x00000000401b59a0                X509_SIG_free
                0x00000000401b59b0                d2i_NETSCAPE_SPKAC
                0x00000000401b59c0                i2d_NETSCAPE_SPKAC
                0x00000000401b59d0                NETSCAPE_SPKAC_new
                0x00000000401b59e0                NETSCAPE_SPKAC_free
                0x00000000401b59f0                d2i_NETSCAPE_SPKI
                0x00000000401b5a00                i2d_NETSCAPE_SPKI
                0x00000000401b5a10                NETSCAPE_SPKI_new
                0x00000000401b5a20                NETSCAPE_SPKI_free
                0x00000000401b5b4c                d2i_X509_CINF
                0x00000000401b5b5c                i2d_X509_CINF
                0x00000000401b5b6c                X509_CINF_new
                0x00000000401b5b7c                X509_CINF_free
                0x00000000401b5b8c                d2i_X509
                0x00000000401b5b9c                i2d_X509
                0x00000000401b5bac                X509_new
                0x00000000401b5bbc                X509_free
                0x00000000401b5bcc                X509_dup
                0x00000000401b5bdf                X509_get_ex_new_index
                0x00000000401b5bfe                X509_set_ex_data
                0x00000000401b5c0d                X509_get_ex_data
                0x00000000401b5c1c                d2i_X509_AUX
                0x00000000401b5c8c                i2d_X509_AUX
                0x00000000401b5cd8                d2i_X509_CERT_AUX
                0x00000000401b5ce8                i2d_X509_CERT_AUX
                0x00000000401b5cf8                X509_CERT_AUX_new
                0x00000000401b5d50                X509_CERT_AUX_free
                0x00000000401b5d60                X509_alias_set1
                0x00000000401b5e08                X509_keyid_set1
                0x00000000401b5eb0                X509_alias_get0
                0x00000000401b5ef1                X509_keyid_get0
                0x00000000401b5f32                X509_add1_trust_object
                0x00000000401b5f9f                X509_add1_reject_object
                0x00000000401b6001                X509_trust_clear
                0x00000000401b6040                X509_reject_clear
                0x00000000401b6081                d2i_X509_CERT_PAIR
                0x00000000401b6091                i2d_X509_CERT_PAIR
                0x00000000401b60a1                X509_CERT_PAIR_new
                0x00000000401b60b1                X509_CERT_PAIR_free
                0x00000000401b60c4                DES_xcbc_encrypt
                0x00000000401b683c                ERR_load_TS_strings
                0x00000000401b6874                ERR_load_CMS_strings
                0x00000000401b68f6                OBJ_find_sigid_algs
                0x00000000401b697e                OBJ_find_sigid_by_algs
                0x00000000401b6a06                OBJ_add_sigid
                0x00000000401b6b14                OBJ_sigid_free
                0x00000000401b6b8b                EVP_whirlpool
                0x00000000401b6bbb                EVP_PKEY_meth_find
                0x00000000401b6c34                EVP_PKEY_meth_new
                0x00000000401b6d52                EVP_PKEY_meth_free
                0x00000000401b6d68                EVP_PKEY_meth_add0
                0x00000000401b6dcb                EVP_PKEY_CTX_free
                0x00000000401b6e1a                EVP_PKEY_CTX_dup
                0x00000000401b7050                EVP_PKEY_CTX_new_id
                0x00000000401b7062                EVP_PKEY_CTX_new
                0x00000000401b7072                EVP_PKEY_CTX_ctrl
                0x00000000401b716a                EVP_PKEY_CTX_ctrl_str
                0x00000000401b724f                EVP_PKEY_CTX_get_operation
                0x00000000401b7258                EVP_PKEY_CTX_set0_keygen_info
                0x00000000401b7265                EVP_PKEY_CTX_set_data
                0x00000000401b726f                EVP_PKEY_CTX_get_data
                0x00000000401b7279                EVP_PKEY_CTX_get0_pkey
                0x00000000401b7283                EVP_PKEY_CTX_get0_peerkey
                0x00000000401b728d                EVP_PKEY_CTX_set_app_data
                0x00000000401b7297                EVP_PKEY_CTX_get_app_data
                0x00000000401b72a1                EVP_PKEY_meth_set_init
                0x00000000401b72ab                EVP_PKEY_meth_set_copy
                0x00000000401b72b5                EVP_PKEY_meth_set_cleanup
                0x00000000401b72bf                EVP_PKEY_meth_set_paramgen
                0x00000000401b72cd                EVP_PKEY_meth_set_keygen
                0x00000000401b72db                EVP_PKEY_meth_set_sign
                0x00000000401b72e9                EVP_PKEY_meth_set_verify
                0x00000000401b72f7                EVP_PKEY_meth_set_verify_recover
                0x00000000401b7305                EVP_PKEY_meth_set_signctx
                0x00000000401b7313                EVP_PKEY_meth_set_verifyctx
                0x00000000401b7327                EVP_PKEY_meth_set_encrypt
                0x00000000401b733b                EVP_PKEY_meth_set_decrypt
                0x00000000401b734f                EVP_PKEY_meth_set_derive
                0x00000000401b7363                EVP_PKEY_meth_set_ctrl
                0x00000000401b7393                EVP_PKEY_asn1_get_count
                0x00000000401b73b2                EVP_PKEY_asn1_get0
                0x00000000401b73e2                EVP_PKEY_asn1_find
                0x00000000401b7485                EVP_PKEY_asn1_find_str
                0x00000000401b750c                EVP_PKEY_asn1_add0
                0x00000000401b756f                EVP_PKEY_asn1_get0_info
                0x00000000401b75c1                EVP_PKEY_get0_asn1
                0x00000000401b75cb                EVP_PKEY_asn1_copy
                0x00000000401b7693                EVP_PKEY_asn1_free
                0x00000000401b76d5                EVP_PKEY_asn1_new
                0x00000000401b784a                EVP_PKEY_asn1_add_alias
                0x00000000401b7887                EVP_PKEY_asn1_set_public
                0x00000000401b78a9                EVP_PKEY_asn1_set_private
                0x00000000401b78bb                EVP_PKEY_asn1_set_param
                0x00000000401b78e6                EVP_PKEY_asn1_set_free
                0x00000000401b78f3                EVP_PKEY_asn1_set_ctrl
                0x00000000401b7900                EVP_PKEY_sign_init
                0x00000000401b796f                EVP_PKEY_sign
                0x00000000401b7a7b                EVP_PKEY_verify_init
                0x00000000401b7aea                EVP_PKEY_verify
                0x00000000401b7b5a                EVP_PKEY_verify_recover_init
                0x00000000401b7bc9                EVP_PKEY_verify_recover
                0x00000000401b7cd5                EVP_PKEY_encrypt_init
                0x00000000401b7d4a                EVP_PKEY_encrypt
                0x00000000401b7e5f                EVP_PKEY_decrypt_init
                0x00000000401b7ed4                EVP_PKEY_decrypt
                0x00000000401b7fe9                EVP_PKEY_derive_init
                0x00000000401b805e                EVP_PKEY_derive_set_peer
                0x00000000401b8240                EVP_PKEY_derive
                0x00000000401b8456                ASN1_PCTX_new
                0x00000000401b84cd                ASN1_PCTX_free
                0x00000000401b84d8                ASN1_PCTX_get_flags
                0x00000000401b84e1                ASN1_PCTX_set_flags
                0x00000000401b84ea                ASN1_PCTX_get_nm_flags
                0x00000000401b84f4                ASN1_PCTX_set_nm_flags
                0x00000000401b84fe                ASN1_PCTX_get_cert_flags
                0x00000000401b8508                ASN1_PCTX_set_cert_flags
                0x00000000401b8512                ASN1_PCTX_get_oid_flags
                0x00000000401b851c                ASN1_PCTX_set_oid_flags
                0x00000000401b8526                ASN1_PCTX_get_str_flags
                0x00000000401b8530                ASN1_PCTX_set_str_flags
                0x00000000401b853a                asn1_template_print_ctx
                0x00000000401b8e75                ASN1_item_print
                0x00000000401b904f                EVP_DigestSignInit
                0x00000000401b9060                EVP_DigestVerifyInit
                0x00000000401b9071                EVP_DigestSignFinal
                0x00000000401b91b0                EVP_DigestVerifyFinal
                0x00000000401b9290                WHIRLPOOL_Init
                0x00000000401b92aa                WHIRLPOOL_BitUpdate
                0x00000000401b95b3                WHIRLPOOL_Update
                0x00000000401b966f                WHIRLPOOL_Final
                0x00000000401b9776                WHIRLPOOL
                0x00000000401bcb89                DHparams_print
                0x00000000401beb6c                whirlpool_block
                0x00000000401bf6f9                EVP_PKEY_paramgen_init
                0x00000000401bf768                EVP_PKEY_paramgen
                0x00000000401bf821                EVP_PKEY_keygen_init
                0x00000000401bf890                EVP_PKEY_keygen
                0x00000000401bf949                EVP_PKEY_CTX_set_cb
                0x00000000401bf953                EVP_PKEY_CTX_get_cb
                0x00000000401bf95d                evp_pkey_set_cb_translate
                0x00000000401bf975                EVP_PKEY_CTX_get_keygen_info
                0x00000000401bf99d                EVP_PKEY_new_mac_key
                0x00000000401bfb2c                CMS_SignedData_init
                0x00000000401bfb40                cms_set1_SignerIdentifier
                0x00000000401bfc60                cms_SignerIdentifier_get0_signer_id
                0x00000000401bfcb7                cms_SignerIdentifier_cert_cmp
                0x00000000401bfd34                CMS_get0_SignerInfos
                0x00000000401bfd4f                CMS_get0_signers
                0x00000000401bfdd4                CMS_SignerInfo_set1_signer_cert
                0x00000000401bfe35                CMS_SignerInfo_get0_signer_id
                0x00000000401bfe44                CMS_SignerInfo_cert_cmp
                0x00000000401bfe53                CMS_set1_signers_certs
                0x00000000401bff85                CMS_SignerInfo_get0_algs
                0x00000000401bffbb                CMS_SignerInfo_sign
                0x00000000401c020f                cms_SignedData_final
                0x00000000401c0430                CMS_SignerInfo_verify
                0x00000000401c055d                cms_SignedData_init_bio
                0x00000000401c072a                CMS_SignerInfo_verify_content
                0x00000000401c08de                CMS_add_smimecap
                0x00000000401c093e                CMS_add_simple_smimecap
                0x00000000401c0a86                CMS_add_standard_smimecap
                0x00000000401c0bc3                CMS_add1_signer
                0x00000000401c1124                CMS_get0_RecipientInfos
                0x00000000401c113f                CMS_RecipientInfo_type
                0x00000000401c1147                CMS_EnvelopedData_create
                0x00000000401c1252                CMS_add1_recipient_cert
                0x00000000401c1436                CMS_RecipientInfo_ktri_get0_algs
                0x00000000401c1499                CMS_RecipientInfo_ktri_get0_signer_id
                0x00000000401c14d7                CMS_RecipientInfo_ktri_cert_cmp
                0x00000000401c1515                CMS_RecipientInfo_set0_pkey
                0x00000000401c1553                CMS_RecipientInfo_kekri_id_cmp
                0x00000000401c15b2                CMS_add0_recipient_key
                0x00000000401c1801                CMS_RecipientInfo_kekri_get0_id
                0x00000000401c18a7                CMS_RecipientInfo_set0_key
                0x00000000401c18e9                CMS_RecipientInfo_decrypt
                0x00000000401c1cbf                cms_EnvelopedData_init_bio
                0x00000000401c213c                EC_KEY_print
                0x00000000401c21b7                ECParameters_print
                0x00000000401c2229                ECPKParameters_print
                0x00000000401c2e4c                CMS_signed_get_attr_count
                0x00000000401c2e5b                CMS_signed_get_attr_by_NID
                0x00000000401c2e6a                CMS_signed_get_attr_by_OBJ
                0x00000000401c2e79                CMS_signed_get_attr
                0x00000000401c2e88                CMS_signed_delete_attr
                0x00000000401c2e97                CMS_signed_add1_attr
                0x00000000401c2eaf                CMS_signed_add1_attr_by_OBJ
                0x00000000401c2ec7                CMS_signed_add1_attr_by_NID
                0x00000000401c2edf                CMS_signed_add1_attr_by_txt
                0x00000000401c2ef7                CMS_signed_get0_data_by_OBJ
                0x00000000401c2f06                CMS_unsigned_get_attr_count
                0x00000000401c2f15                CMS_unsigned_get_attr_by_NID
                0x00000000401c2f24                CMS_unsigned_get_attr_by_OBJ
                0x00000000401c2f33                CMS_unsigned_get_attr
                0x00000000401c2f42                CMS_unsigned_delete_attr
                0x00000000401c2f51                CMS_unsigned_add1_attr
                0x00000000401c2f69                CMS_unsigned_add1_attr_by_OBJ
                0x00000000401c2f81                CMS_unsigned_add1_attr_by_NID
                0x00000000401c2f99                CMS_unsigned_add1_attr_by_txt
                0x00000000401c2fb1                CMS_unsigned_get0_data_by_OBJ
                0x00000000401c312e                d2i_CMS_ContentInfo
                0x00000000401c313e                i2d_CMS_ContentInfo
                0x00000000401c314e                CMS_ContentInfo_new
                0x00000000401c315e                CMS_ContentInfo_free
                0x00000000401c316e                CMS_ContentInfo_print_ctx
                0x00000000401c3181                CMS_get0_type
                0x00000000401c318a                CMS_get0_content
                0x00000000401c3265                CMS_dataFinal
                0x00000000401c33d9                cms_content_bio
                0x00000000401c3429                CMS_dataInit
                0x00000000401c352a                CMS_get0_eContentType
                0x00000000401c3544                CMS_set1_eContentType
                0x00000000401c359f                CMS_is_detached
                0x00000000401c35c0                CMS_set_detached
                0x00000000401c3656                cms_Data_create
                0x00000000401c3690                cms_DigestAlgorithm_set
                0x00000000401c36e1                cms_DigestAlgorithm_init_bio
                0x00000000401c37b4                cms_DigestAlgorithm_find_ctx
                0x00000000401c3894                CMS_add0_CertificateChoices
                0x00000000401c3905                CMS_add0_cert
                0x00000000401c39ae                CMS_add1_cert
                0x00000000401c39f7                CMS_add0_RevocationInfoChoice
                0x00000000401c3a68                CMS_add0_crl
                0x00000000401c3a99                CMS_add1_crl
                0x00000000401c3ae2                CMS_get1_certs
                0x00000000401c3b9f                CMS_get1_crls
                0x00000000401c3d90                cms_EncryptedContent_init_bio
                0x00000000401c4176                cms_EncryptedContent_init
                0x00000000401c4202                CMS_EncryptedData_set1_key
                0x00000000401c430c                cms_EncryptedData_init_bio
                0x00000000401c4338                AES_wrap_key
                0x00000000401c446f                AES_unwrap_key
                0x00000000401c45d0                cms_DigestedData_create
                0x00000000401c4667                cms_DigestedData_init_bio
                0x00000000401c467a                cms_DigestedData_do_final
                0x00000000401c4798                CMS_stream
                0x00000000401c4814                d2i_CMS_bio
                0x00000000401c482a                i2d_CMS_bio
                0x00000000401c4840                PEM_read_bio_CMS
                0x00000000401c4861                PEM_write_bio_CMS
                0x00000000401c48a5                BIO_new_CMS
                0x00000000401c48b5                i2d_CMS_bio_stream
                0x00000000401c48c6                PEM_write_bio_CMS_stream
                0x00000000401c48dd                SMIME_write_CMS
                0x00000000401c496d                SMIME_read_CMS
                0x00000000401c52ab                SMIME_read_ASN1
                0x00000000401c56d0                SMIME_crlf_copy
                0x00000000401c57fb                i2d_ASN1_bio_stream
                0x00000000401c5993                SMIME_write_ASN1
                0x00000000401c6020                PEM_write_bio_ASN1_stream
                0x00000000401c60a7                SMIME_text
                0x00000000401c63f5                BIO_new_NDEF
                0x00000000401c6c11                BIO_f_asn1
                0x00000000401c6c1c                BIO_asn1_set_prefix
                0x00000000401c6c32                BIO_asn1_get_prefix
                0x00000000401c6c48                BIO_asn1_set_suffix
                0x00000000401c6c5e                BIO_asn1_get_suffix
                0x00000000401c6c80                chelp_snprintf
                0x00000000401c6cbd                chelp_sprintf
                0x00000000401c6d04                chelp_print
                0x00000000401c6d1c                chelp_printf
                0x00000000401c6d84                chelp_mod_64_32_32
                0x00000000401c6d99                chelp_div_64_32_64
                0x00000000401c6dac                chelp_div_64_32_32
                0x00000000401c6db7                chelp_mul_64_64_64
                0x00000000401c6dc4                BIO_printf
                0x00000000401c6e01                BIO_snprintf
                0x00000000401c6e37                chelp_abort
                0x00000000401c6e4a                RAND_poll
                0x00000000401c6e69                InitCryptoLibrary
                0x00000000401c6ee0                chelp_malloc
                0x00000000401c6ef7                chelp_realloc
                0x00000000401c6f1a                chelp_free
                0x00000000401c6f2a                chelp_swap
                0x00000000401c6f5e                chelp_qsort
                0x00000000401c7272                chelp_bsearch
                0x00000000401c7341                chelp_memchr
                0x00000000401c737a                chelp_memmove
                0x00000000401c73f9                chelp_memcmp
                0x00000000401c7468                chelp_memcpy
                0x00000000401c7494                chelp_memset
                0x00000000401c74c0                chelp_isupper
                0x00000000401c74d3                chelp_islower
                0x00000000401c74e6                chelp_toupper
                0x00000000401c74f2                chelp_tolower
                0x00000000401c74fe                chelp_isspace
                0x00000000401c751a                chelp_isdigit
                0x00000000401c752d                chelp_isxdigit
                0x00000000401c7555                chelp_isalpha
                0x00000000401c7572                chelp_isalnum
                0x00000000401c759b                chelp_strtoul_ex
                0x00000000401c776c                chelp_strtoul
                0x00000000401c777c                chelp_strtol
                0x00000000401c778c                chelp_strcpy
                0x00000000401c77ba                chelp_strncpy
                0x00000000401c7827                chelp_strcat
                0x00000000401c7868                chelp_strcmp
                0x00000000401c78c8                chelp_strncmp
                0x00000000401c7a4a                chelp_stricmp
                0x00000000401c7a89                chelp_strchr
                0x00000000401c7ac1                chelp_strrchr
                0x00000000401c7af5                chelp_strlen
                0x00000000401c7b1c                chelp_strncasecmp
                0x00000000401c7b70                decryptcfg
                0x00000000401c7bf8                ASN1_BIT_STRING_set
                0x00000000401c7c03                i2c_ASN1_BIT_STRING
                0x00000000401c7d10                c2i_ASN1_BIT_STRING
                0x00000000401c7e89                ASN1_BIT_STRING_set_bit
                0x00000000401c7fe8                ASN1_BIT_STRING_get_bit
                0x00000000401c8030                ASN1_BIT_STRING_check
                0x00000000401c8090                d2i_ASN1_type_bytes
                0x00000000401c8235                i2d_ASN1_bytes
                0x00000000401c82ec                d2i_ASN1_bytes
                0x00000000401c893b                ASN1_d2i_bio
                0x00000000401c89ad                ASN1_item_d2i_bio
                0x00000000401c8a24                ASN1_digest
                0x00000000401c8aeb                ASN1_item_digest
                0x00000000401c8b68                ASN1_dup
                0x00000000401c8c23                ASN1_item_dup
                0x00000000401c8cac                ASN1_ENUMERATED_set
                0x00000000401c8dc1                ASN1_ENUMERATED_get
                0x00000000401c8e39                BN_to_ASN1_ENUMERATED
                0x00000000401c8f40                ASN1_ENUMERATED_to_BN
                0x00000000401c8fb0                ASN1_GENERALIZEDTIME_check
                0x00000000401c9222                ASN1_GENERALIZEDTIME_set_string
                0x00000000401c929f                ASN1_GENERALIZEDTIME_adj
                0x00000000401c93fb                ASN1_GENERALIZEDTIME_set
                0x00000000401c9410                ASN1_i2d_bio
                0x00000000401c94ce                ASN1_item_i2d_bio
                0x00000000401c9570                ASN1_INTEGER_dup
                0x00000000401c957b                ASN1_INTEGER_cmp
                0x00000000401c95bb                i2c_ASN1_INTEGER
                0x00000000401c9733                c2i_ASN1_INTEGER
                0x00000000401c992f                d2i_ASN1_UINTEGER
                0x00000000401c9a9e                ASN1_INTEGER_set
                0x00000000401c9bb3                ASN1_INTEGER_get
                0x00000000401c9c2d                BN_to_ASN1_INTEGER
                0x00000000401c9d45                ASN1_INTEGER_to_BN
                0x00000000401c9dc0                i2d_ASN1_OBJECT
                0x00000000401c9e57                a2d_ASN1_OBJECT
                0x00000000401ca35e                i2t_ASN1_OBJECT
                0x00000000401ca36e                i2a_ASN1_OBJECT
                0x00000000401ca454                ASN1_OBJECT_new
                0x00000000401ca4d0                ASN1_OBJECT_free
                0x00000000401ca549                c2i_ASN1_OBJECT
                0x00000000401ca6f4                d2i_ASN1_OBJECT
                0x00000000401ca780                ASN1_OBJECT_create
                0x00000000401ca7ac                ASN1_OCTET_STRING_dup
                0x00000000401ca7b7                ASN1_OCTET_STRING_cmp
                0x00000000401ca7c2                ASN1_OCTET_STRING_set
                0x00000000401ca7d0                ASN1_sign
                0x00000000401caa6e                ASN1_item_sign
                0x00000000401cb482                X509_NAME_print_ex
                0x00000000401cb962                ASN1_STRING_print_ex
                0x00000000401cb978                ASN1_STRING_to_UTF8
                0x00000000401cb9ec                d2i_ASN1_TIME
                0x00000000401cb9fc                i2d_ASN1_TIME
                0x00000000401cba0c                ASN1_TIME_new
                0x00000000401cba1c                ASN1_TIME_free
                0x00000000401cba2c                ASN1_TIME_adj
                0x00000000401cbaef                ASN1_TIME_set
                0x00000000401cbb04                ASN1_TIME_check
                0x00000000401cbb28                ASN1_TIME_to_generalizedtime
                0x00000000401cbc1b                ASN1_TIME_set_string
                0x00000000401cbc9c                ASN1_TYPE_get
                0x00000000401cbcb5                ASN1_TYPE_set
                0x00000000401cbd16                ASN1_TYPE_set1
                0x00000000401cbda2                ASN1_TYPE_cmp
                0x00000000401cbdf0                ASN1_UTCTIME_check
                0x00000000401cc014                ASN1_UTCTIME_set_string
                0x00000000401cc091                ASN1_UTCTIME_adj
                0x00000000401cc219                ASN1_UTCTIME_set
                0x00000000401cc22e                ASN1_UTCTIME_cmp_time_t
                0x00000000401cc3a0                UTF8_getc
                0x00000000401cc72f                UTF8_putc
                0x00000000401cc958                ASN1_verify
                0x00000000401ccac7                ASN1_item_verify
                0x00000000401cccc0                AES_cbc_encrypt
                0x00000000401ccce4                AES_cfb128_encrypt
                0x00000000401ccd02                AES_cfb1_encrypt
                0x00000000401ccd20                AES_cfb8_encrypt
                0x00000000401ccd40                AES_ecb_encrypt
                0x00000000401ccd58                AES_ofb128_encrypt
                0x00000000401ccd70                ERR_load_ASN1_strings
                0x00000000401ccddf                ASN1_check_infinite_end
                0x00000000401ccdea                ASN1_const_check_infinite_end
                0x00000000401cce4e                ASN1_get_object
                0x00000000401cd010                ASN1_put_object
                0x00000000401cd112                ASN1_put_eoc
                0x00000000401cd12e                ASN1_object_size
                0x00000000401cd16a                asn1_Finish
                0x00000000401cd175                asn1_const_Finish
                0x00000000401cd180                asn1_GetSequence
                0x00000000401cd22e                ASN1_STRING_set
                0x00000000401cd330                ASN1_STRING_copy
                0x00000000401cd381                ASN1_STRING_set0
                0x00000000401cd3c1                ASN1_STRING_type_new
                0x00000000401cd438                ASN1_STRING_new
                0x00000000401cd448                ASN1_STRING_free
                0x00000000401cd47c                ASN1_STRING_dup
                0x00000000401cd4cf                ASN1_STRING_cmp
                0x00000000401cd510                asn1_add_error
                0x00000000401cd578                ASN1_STRING_length
                0x00000000401cd580                ASN1_STRING_length_set
                0x00000000401cd588                ASN1_STRING_type
                0x00000000401cd591                ASN1_STRING_data
                0x00000000401cd5a0                ASN1_tag2str
                0x00000000401ce17f                ASN1_parse_dump
                0x00000000401ce1a8                ASN1_parse
                0x00000000401ce1ea                BIO_dump_indent_cb
                0x00000000401ce5fe                BIO_dump_cb
                0x00000000401ce60f                BIO_dump
                0x00000000401ce627                BIO_dump_indent
                0x00000000401ceffc                BIO_f_buffer
                0x00000000401cf010                BF_cfb64_encrypt
                0x00000000401cf1f8                BF_options
                0x00000000401cf203                BF_ecb_encrypt
                0x00000000401cf2b4                BF_encrypt
                0x00000000401cf675                BF_decrypt
                0x00000000401cfa36                BF_cbc_encrypt
                0x00000000401cffc8                BF_ofb64_encrypt
                0x00000000401d0158                BF_set_key
                0x00000000401d0f81                BIO_f_base64
                0x00000000401d1680                BIO_f_cipher
                0x00000000401d168b                BIO_set_cipher
                0x00000000401d1740                ERR_load_BIO_strings
                0x00000000401d1afa                BIO_f_md
                0x00000000401d1b10                BN_uadd
                0x00000000401d1c54                BN_usub
                0x00000000401d1e4e                BN_add
                0x00000000401d1ef9                BN_sub
                0x00000000401d200c                bn_mul_add_words
                0x00000000401d2274                bn_mul_words
                0x00000000401d24c0                bn_sqr_words
                0x00000000401d2613                bn_div_words
                0x00000000401d2763                bn_add_words
                0x00000000401d284f                bn_sub_words
                0x00000000401d2959                bn_mul_comba8
                0x00000000401d41fe                bn_mul_comba4
                0x00000000401d481d                bn_sqr_comba8
                0x00000000401d5867                bn_sqr_comba4
                0x00000000401d5c60                BN_BLINDING_free
                0x00000000401d5cb7                BN_BLINDING_new
                0x00000000401d5da2                BN_BLINDING_invert_ex
                0x00000000401d5e05                BN_BLINDING_invert
                0x00000000401d5e1b                BN_BLINDING_get_thread_id
                0x00000000401d5e25                BN_BLINDING_set_thread_id
                0x00000000401d5e2f                BN_BLINDING_thread_id
                0x00000000401d5e39                BN_BLINDING_get_flags
                0x00000000401d5e43                BN_BLINDING_set_flags
                0x00000000401d5e4d                BN_BLINDING_create_param
                0x00000000401d5fe1                BN_BLINDING_update
                0x00000000401d60d3                BN_BLINDING_convert_ex
                0x00000000401d61ae                BN_BLINDING_convert
                0x00000000401d61c4                BN_CTX_init
                0x00000000401d623f                BN_CTX_new
                0x00000000401d62df                BN_CTX_free
                0x00000000401d635f                BN_CTX_start
                0x00000000401d6445                BN_CTX_end
                0x00000000401d64ba                BN_CTX_get
                0x00000000401d6620                BN_div
                0x00000000401d7144                ERR_load_BN_strings
                0x00000000401d725d                BN_exp
                0x00000000401d73fd                BN_mod_exp_recp
                0x00000000401d7889                BN_mod_exp_mont_consttime
                0x00000000401d7ebc                BN_mod_exp_mont
                0x00000000401d849b                BN_mod_exp_mont_word
                0x00000000401d88dd                BN_mod_exp
                0x00000000401d8929                BN_mod_exp_simple
                0x00000000401d8da0                BN_gcd
                0x00000000401d8fb6                BN_mod_inverse
                0x00000000401d9a30                BN_nnmod
                0x00000000401d9a8c                BN_mod_add
                0x00000000401d9ada                BN_mod_add_quick
                0x00000000401d9b2e                BN_mod_sub
                0x00000000401d9b7c                BN_mod_sub_quick
                0x00000000401d9bc4                BN_mod_mul
                0x00000000401d9c7c                BN_mod_sqr
                0x00000000401d9cd2                BN_mod_lshift1
                0x00000000401d9d20                BN_mod_lshift1_quick
                0x00000000401d9d74                BN_mod_lshift_quick
                0x00000000401d9e6f                BN_mod_lshift
                0x00000000401da27c                BN_mod_mul_montgomery
                0x00000000401da331                BN_from_montgomery
                0x00000000401da3bb                BN_MONT_CTX_init
                0x00000000401da404                BN_MONT_CTX_new
                0x00000000401da442                BN_MONT_CTX_free
                0x00000000401da483                BN_MONT_CTX_set
                0x00000000401da67d                BN_MONT_CTX_copy
                0x00000000401da6fd                BN_MONT_CTX_set_locked
                0x00000000401da800                bn_sub_part_words
                0x00000000401daa93                bn_add_part_words
                0x00000000401dae51                bn_mul_normal
                0x00000000401dafb9                bn_mul_recursive
                0x00000000401db44b                bn_mul_high
                0x00000000401db8c7                bn_mul_part_recursive
                0x00000000401dbd9b                BN_mul
                0x00000000401dc0eb                bn_mul_low_normal
                0x00000000401dc1cd                bn_mul_low_recursive
                0x00000000401dc407                BN_GENCB_call
                0x00000000401dc455                BN_is_prime_fasttest_ex
                0x00000000401dc924                BN_is_prime_ex
                0x00000000401dc937                BN_generate_prime_ex
                0x00000000401dce88                BN_RECP_CTX_init
                0x00000000401dceb7                BN_RECP_CTX_new
                0x00000000401dcef5                BN_RECP_CTX_free
                0x00000000401dcf29                BN_RECP_CTX_set
                0x00000000401dcf7f                BN_reciprocal
                0x00000000401dd018                BN_div_recp
                0x00000000401dd2c3                BN_mod_mul_reciprocal
                0x00000000401dd38c                BN_lshift1
                0x00000000401dd44b                BN_rshift1
                0x00000000401dd523                BN_lshift
                0x00000000401dd683                BN_rshift
                0x00000000401dd830                bn_sqr_normal
                0x00000000401dd90c                bn_sqr_recursive
                0x00000000401ddaca                BN_sqr
                0x00000000401dddb4                BIO_s_null
                0x00000000401dddc0                ERR_load_BUF_strings
                0x00000000401dde00                CAST_cfb64_encrypt
                0x00000000401ddfe8                CAST_ecb_encrypt
                0x00000000401de098                CAST_encrypt
                0x00000000401de4f4                CAST_decrypt
                0x00000000401de976                CAST_cbc_encrypt
                0x00000000401def08                CAST_ofb64_encrypt
                0x00000000401df098                CAST_set_key
                0x00000000401dfb30                DES_ede3_cfb64_encrypt
                0x00000000401dfd5b                DES_ede3_cfb_encrypt
                0x00000000401e0560                DES_cfb64_encrypt
                0x00000000401e0780                DES_cfb_encrypt
                0x00000000401e0dac                ERR_load_COMP_strings
                0x00000000401e0de4                ERR_load_CONF_strings
                0x00000000401e0e1c                ERR_load_CRYPTO_strings
                0x00000000401e0e60                d2i_PrivateKey
                0x00000000401e0fc1                d2i_AutoPrivateKey
                0x00000000401e112e                d2i_DHparams
                0x00000000401e113e                i2d_DHparams
                0x00000000401e114e                DHparams_dup
                0x00000000401e1170                DH_check
                0x00000000401e12a9                DH_check_pub_key
                0x00000000401e1354                ERR_load_DH_strings
                0x00000000401e1390                DH_generate_parameters_ex
                0x00000000401e1598                EVP_MD_CTX_init
                0x00000000401e15ad                EVP_MD_CTX_create
                0x00000000401e15e4                EVP_DigestInit_ex
                0x00000000401e16c3                EVP_DigestInit
                0x00000000401e16f8                EVP_DigestUpdate
                0x00000000401e1704                EVP_DigestFinal_ex
                0x00000000401e179f                EVP_MD_CTX_cleanup
                0x00000000401e183c                EVP_MD_CTX_destroy
                0x00000000401e185c                EVP_Digest
                0x00000000401e1906                EVP_MD_CTX_copy_ex
                0x00000000401e1a43                EVP_MD_CTX_copy
                0x00000000401e1a73                EVP_DigestFinal
                0x00000000401e1b5e                d2i_DSA_SIG
                0x00000000401e1b6e                i2d_DSA_SIG
                0x00000000401e1b7e                DSA_SIG_new
                0x00000000401e1b8e                DSA_SIG_free
                0x00000000401e1b9e                d2i_DSAPrivateKey
                0x00000000401e1bae                i2d_DSAPrivateKey
                0x00000000401e1bbe                d2i_DSAparams
                0x00000000401e1bce                i2d_DSAparams
                0x00000000401e1bde                d2i_DSAPublicKey
                0x00000000401e1bee                i2d_DSAPublicKey
                0x00000000401e1bfe                DSAparams_dup
                0x00000000401e1c14                ERR_load_DSA_strings
                0x00000000401e1c50                dsa_builtin_paramgen
                0x00000000401e2545                DSA_generate_parameters_ex
                0x00000000401e25f0                DSA_generate_key
                0x00000000401e2758                DSA_set_default_method
                0x00000000401e2765                DSA_get_default_method
                0x00000000401e2788                DSA_set_method
                0x00000000401e27cf                DSA_new_method
                0x00000000401e28d0                DSA_new
                0x00000000401e28e0                DSA_free
                0x00000000401e29af                DSA_up_ref
                0x00000000401e29dc                DSA_size
                0x00000000401e2a31                DSA_get_ex_new_index
                0x00000000401e2a50                DSA_set_ex_data
                0x00000000401e2a5f                DSA_get_ex_data
                0x00000000401e2a6e                DSA_dup_DH
                0x00000000401e340c                DSA_OpenSSL
                0x00000000401e3418                DSA_do_sign
                0x00000000401e3425                DSA_sign
                0x00000000401e34a9                DSA_sign_setup
                0x00000000401e34b8                DSA_do_verify
                0x00000000401e34c5                DSA_verify
                0x00000000401e3550                ERR_load_DSO_strings
                0x00000000401e3ea1                EC_GROUP_get_basis_type
                0x00000000401e3f06                EC_GROUP_get_trinomial_basis
                0x00000000401e3f8f                EC_GROUP_get_pentanomial_basis
                0x00000000401e4066                X9_62_PENTANOMIAL_new
                0x00000000401e4076                X9_62_PENTANOMIAL_free
                0x00000000401e4086                X9_62_CHARACTERISTIC_TWO_new
                0x00000000401e4096                X9_62_CHARACTERISTIC_TWO_free
                0x00000000401e40a6                ECPARAMETERS_new
                0x00000000401e40b6                ECPARAMETERS_free
                0x00000000401e40c6                d2i_ECPKPARAMETERS
                0x00000000401e40d6                i2d_ECPKPARAMETERS
                0x00000000401e40e6                ECPKPARAMETERS_new
                0x00000000401e40f6                ECPKPARAMETERS_free
                0x00000000401e4cfe                d2i_EC_PRIVATEKEY
                0x00000000401e4d0e                i2d_EC_PRIVATEKEY
                0x00000000401e4d1e                EC_PRIVATEKEY_new
                0x00000000401e4d2e                EC_PRIVATEKEY_free
                0x00000000401e4d3e                d2i_ECPKParameters
                0x00000000401e4dfb                i2d_ECPKParameters
                0x00000000401e4e89                d2i_ECPrivateKey
                0x00000000401e5106                i2d_ECPrivateKey
                0x00000000401e5496                i2d_ECParameters
                0x00000000401e54ce                d2i_ECParameters
                0x00000000401e55b4                o2i_ECPublicKey
                0x00000000401e56ae                i2o_ECPublicKey
                0x00000000401e57f8                EC_GROUP_new_by_curve_name
                0x00000000401e5d0c                EC_get_builtin_curves
                0x00000000401e5d60                EC_GROUP_new_curve_GFp
                0x00000000401e5e48                EC_GROUP_new_curve_GF2m
                0x00000000401e5ec4                ERR_load_EC_strings
                0x00000000401e5f00                EC_KEY_new
                0x00000000401e5f8b                EC_KEY_free
                0x00000000401e600d                EC_KEY_new_by_curve_name
                0x00000000401e6058                EC_KEY_copy
                0x00000000401e6213                EC_KEY_dup
                0x00000000401e625d                EC_KEY_up_ref
                0x00000000401e628a                EC_KEY_generate_key
                0x00000000401e6469                EC_KEY_check_key
                0x00000000401e6719                EC_KEY_get0_group
                0x00000000401e6723                EC_KEY_set_group
                0x00000000401e6766                EC_KEY_get0_private_key
                0x00000000401e6770                EC_KEY_set_private_key
                0x00000000401e67b3                EC_KEY_get0_public_key
                0x00000000401e67bd                EC_KEY_set_public_key
                0x00000000401e6804                EC_KEY_get_enc_flags
                0x00000000401e680d                EC_KEY_set_enc_flags
                0x00000000401e6816                EC_KEY_get_conv_form
                0x00000000401e681f                EC_KEY_set_conv_form
                0x00000000401e6836                EC_KEY_get_key_method_data
                0x00000000401e6845                EC_KEY_insert_key_method_data
                0x00000000401e68e4                EC_KEY_set_asn1_flag
                0x00000000401e68f8                EC_KEY_precompute_mult
                0x00000000401e6920                EC_GROUP_new
                0x00000000401e6a30                EC_GROUP_method_of
                0x00000000401e6a39                EC_METHOD_get_field_type
                0x00000000401e6a41                EC_GROUP_get0_generator
                0x00000000401e6a4b                EC_GROUP_get_order
                0x00000000401e6a80                EC_GROUP_get_cofactor
                0x00000000401e6ab5                EC_GROUP_set_curve_name
                0x00000000401e6abe                EC_GROUP_get_curve_name
                0x00000000401e6ac7                EC_GROUP_set_asn1_flag
                0x00000000401e6ad0                EC_GROUP_get_asn1_flag
                0x00000000401e6ad9                EC_GROUP_set_point_conversion_form
                0x00000000401e6ae2                EC_GROUP_get_point_conversion_form
                0x00000000401e6aeb                EC_GROUP_set_seed
                0x00000000401e6b7e                EC_GROUP_get0_seed
                0x00000000401e6b88                EC_GROUP_get_seed_len
                0x00000000401e6b92                EC_GROUP_set_curve_GFp
                0x00000000401e6bd1                EC_GROUP_get_curve_GFp
                0x00000000401e6c0b                EC_GROUP_set_curve_GF2m
                0x00000000401e6c45                EC_GROUP_get_curve_GF2m
                0x00000000401e6c81                EC_GROUP_get_degree
                0x00000000401e6cbb                EC_GROUP_check_discriminant
                0x00000000401e6cf5                EC_EX_DATA_set_data
                0x00000000401e6dc5                EC_EX_DATA_get_data
                0x00000000401e6dfa                EC_EX_DATA_free_data
                0x00000000401e6e49                EC_EX_DATA_clear_free_data
                0x00000000401e6e98                EC_EX_DATA_free_all_data
                0x00000000401e6ee4                EC_EX_DATA_clear_free_all_data
                0x00000000401e6f30                EC_POINT_new
                0x00000000401e6ffe                EC_POINT_free
                0x00000000401e702c                EC_GROUP_free
                0x00000000401e7091                EC_POINT_clear_free
                0x00000000401e70d9                EC_GROUP_clear_free
                0x00000000401e7165                EC_POINT_copy
                0x00000000401e71d1                EC_GROUP_set_generator
                0x00000000401e72c0                EC_GROUP_copy
                0x00000000401e74ea                EC_GROUP_dup
                0x00000000401e7540                EC_POINT_dup
                0x00000000401e7596                EC_POINT_method_of
                0x00000000401e759f                EC_POINT_set_to_infinity
                0x00000000401e7604                EC_POINT_set_Jprojective_coordinates_GFp
                0x00000000401e7669                EC_POINT_get_Jprojective_coordinates_GFp
                0x00000000401e76d1                EC_POINT_set_affine_coordinates_GFp
                0x00000000401e7739                EC_POINT_set_affine_coordinates_GF2m
                0x00000000401e77a1                EC_POINT_get_affine_coordinates_GFp
                0x00000000401e7809                EC_POINT_get_affine_coordinates_GF2m
                0x00000000401e7871                EC_POINT_set_compressed_coordinates_GFp
                0x00000000401e78d9                EC_POINT_set_compressed_coordinates_GF2m
                0x00000000401e7941                EC_POINT_point2oct
                0x00000000401e79a9                EC_POINT_oct2point
                0x00000000401e7a11                EC_POINT_add
                0x00000000401e7a83                EC_POINT_dbl
                0x00000000401e7af1                EC_POINT_invert
                0x00000000401e7b5b                EC_POINT_is_at_infinity
                0x00000000401e7bc3                EC_POINT_is_on_curve
                0x00000000401e7c2b                EC_POINT_cmp
                0x00000000401e7c98                EC_GROUP_cmp
                0x00000000401e7f1d                EC_POINT_make_affine
                0x00000000401e7f85                EC_POINTs_make_affine
                0x00000000401e8011                EC_POINTs_mul
                0x00000000401e8041                EC_POINT_mul
                0x00000000401e8079                EC_GROUP_precompute_mult
                0x00000000401e80a6                EC_GROUP_have_precompute_mult
                0x00000000401e84de                ec_wNAF_mul
                0x00000000401e93bf                ec_wNAF_precompute_mult
                0x00000000401e9a10                ec_wNAF_have_precompute_mult
                0x00000000401e9a40                EC_POINT_point2bn
                0x00000000401e9b06                EC_POINT_bn2point
                0x00000000401e9bff                EC_POINT_point2hex
                0x00000000401e9d08                EC_POINT_hex2point
                0x00000000401e9d78                ERR_load_ECDH_strings
                0x00000000401e9db0                ECDH_compute_key
                0x00000000401e9e55                ECDH_set_default_method
                0x00000000401e9e62                ECDH_get_default_method
                0x00000000401e9f19                ecdh_check
                0x00000000401e9f79                ECDH_set_method
                0x00000000401e9fa3                ECDH_get_ex_new_index
                0x00000000401e9fc2                ECDH_set_ex_data
                0x00000000401ea003                ECDH_get_ex_data
                0x00000000401ea3f1                ECDH_OpenSSL
                0x00000000401ea3fc                ec_GFp_mont_field_set_to_one
                0x00000000401ea446                ec_GFp_mont_field_decode
                0x00000000401ea489                ec_GFp_mont_field_encode
                0x00000000401ea4d6                ec_GFp_mont_field_sqr
                0x00000000401ea51f                ec_GFp_mont_field_mul
                0x00000000401ea568                ec_GFp_mont_group_set_curve
                0x00000000401ea710                ec_GFp_mont_group_copy
                0x00000000401ea7f8                ec_GFp_mont_group_clear_finish
                0x00000000401ea84b                ec_GFp_mont_group_finish
                0x00000000401ea89e                ec_GFp_mont_group_init
                0x00000000401ea8cc                EC_GFp_mont_method
                0x00000000401ea8e0                ec_GFp_nist_field_sqr
                0x00000000401ea9bb                ec_GFp_nist_field_mul
                0x00000000401eaaa4                ec_GFp_nist_group_set_curve
                0x00000000401eac2e                ec_GFp_nist_group_copy
                0x00000000401eac47                EC_GFp_nist_method
                0x00000000401eac60                ec_GFp_simple_is_at_infinity
                0x00000000401eac70                ec_GFp_simple_field_sqr
                0x00000000401eac88                ec_GFp_simple_field_mul
                0x00000000401eaca3                ec_GFp_simple_point_copy
                0x00000000401ead08                ec_GFp_simple_group_copy
                0x00000000401ead7f                ec_GFp_simple_point_set_to_infinity
                0x00000000401ead9f                ec_GFp_simple_get_Jprojective_coordinates_GFp
                0x00000000401eaf26                ec_GFp_simple_group_get_curve
                0x00000000401eb095                ec_GFp_simple_point_clear_finish
                0x00000000401eb0ca                ec_GFp_simple_group_clear_finish
                0x00000000401eb0fe                ec_GFp_simple_points_make_affine
                0x00000000401eb66e                ec_GFp_simple_point_get_affine_coordinates
                0x00000000401eb9ad                ec_GFp_simple_make_affine
                0x00000000401ebac4                ec_GFp_simple_cmp
                0x00000000401ebd77                ec_GFp_simple_is_on_curve
                0x00000000401ec07f                ec_GFp_simple_invert
                0x00000000401ec0c8                ec_GFp_simple_dbl
                0x00000000401ec574                ec_GFp_simple_add
                0x00000000401ecb7b                ec_GFp_simple_group_get_degree
                0x00000000401ecb8a                ec_GFp_simple_oct2point
                0x00000000401ecf17                ec_GFp_simple_point2oct
                0x00000000401ed296                ec_GFp_simple_set_Jprojective_coordinates_GFp
                0x00000000401ed47c                ec_GFp_simple_set_compressed_coordinates
                0x00000000401ed908                ec_GFp_simple_point_set_affine_coordinates
                0x00000000401ed995                ec_GFp_simple_point_finish
                0x00000000401ed9c3                ec_GFp_simple_group_finish
                0x00000000401ed9f7                ec_GFp_simple_point_init
                0x00000000401eda31                ec_GFp_simple_group_init
                0x00000000401eda74                ec_GFp_simple_group_check_discriminant
                0x00000000401edca5                ec_GFp_simple_group_set_curve
                0x00000000401ede9d                EC_GFp_simple_method
                0x00000000401edea8                ERR_load_ECDSA_strings
                0x00000000401edf19                ECDSA_set_default_method
                0x00000000401edf26                ECDSA_get_default_method
                0x00000000401edfdd                ecdsa_check
                0x00000000401ee03d                ECDSA_set_method
                0x00000000401ee067                ECDSA_size
                0x00000000401ee129                ECDSA_get_ex_new_index
                0x00000000401ee148                ECDSA_set_ex_data
                0x00000000401ee189                ECDSA_get_ex_data
                0x00000000401eeebb                ECDSA_OpenSSL
                0x00000000401eeec8                ECDSA_do_sign_ex
                0x00000000401eef34                ECDSA_do_sign
                0x00000000401eef4c                ECDSA_sign_ex
                0x00000000401eefd8                ECDSA_sign
                0x00000000401eeffa                ECDSA_sign_setup
                0x00000000401ef058                ECDSA_do_verify
                0x00000000401ef0b6                ECDSA_verify
                0x00000000401ef140                EVP_EncodeInit
                0x00000000401ef15a                EVP_EncodeBlock
                0x00000000401ef295                EVP_EncodeFinal
                0x00000000401ef2f2                EVP_EncodeUpdate
                0x00000000401ef422                EVP_DecodeInit
                0x00000000401ef443                EVP_DecodeBlock
                0x00000000401ef5a5                EVP_DecodeUpdate
                0x00000000401ef87f                EVP_DecodeFinal
                0x00000000401ef8e0                EVP_set_pw_prompt
                0x00000000401ef90d                EVP_get_pw_prompt
                0x00000000401ef928                EVP_read_pw_string_min
                0x00000000401efa02                EVP_read_pw_string
                0x00000000401efa1a                EVP_BytesToKey
                0x00000000401efce5                EVP_PBE_alg_add_type
                0x00000000401efda5                EVP_PBE_alg_add
                0x00000000401efe15                EVP_PBE_find
                0x00000000401efedc                EVP_PBE_CipherInit
                0x00000000401f00b6                EVP_PBE_cleanup
                0x00000000401f00e0                EVP_PKCS82PKEY
                0x00000000401f021b                EVP_PKEY2PKCS8_broken
                0x00000000401f0323                EVP_PKEY2PKCS8
                0x00000000401f0333                PKCS8_set_broken
                0x00000000401f0385                EVP_PKEY_get_attr_count
                0x00000000401f0394                EVP_PKEY_get_attr_by_NID
                0x00000000401f03a3                EVP_PKEY_get_attr_by_OBJ
                0x00000000401f03b2                EVP_PKEY_get_attr
                0x00000000401f03c1                EVP_PKEY_delete_attr
                0x00000000401f03d0                EVP_PKEY_add1_attr
                0x00000000401f03e8                EVP_PKEY_add1_attr_by_OBJ
                0x00000000401f0400                EVP_PKEY_add1_attr_by_NID
                0x00000000401f0418                EVP_PKEY_add1_attr_by_txt
                0x00000000401f0430                HMAC_Init_ex
                0x00000000401f0664                HMAC_Update
                0x00000000401f0673                HMAC_Final
                0x00000000401f0708                HMAC_CTX_init
                0x00000000401f0736                HMAC_Init
                0x00000000401f0792                HMAC_CTX_copy
                0x00000000401f0828                HMAC_CTX_cleanup
                0x00000000401f0868                HMAC
                0x00000000401f0939                HMAC_CTX_set_flags
                0x00000000401f0980                i2d_PrivateKey
                0x00000000401f1370                RAND_SSLeay
                0x00000000401f13a4                d2i_NETSCAPE_CERT_SEQUENCE
                0x00000000401f13b4                i2d_NETSCAPE_CERT_SEQUENCE
                0x00000000401f13c4                NETSCAPE_CERT_SEQUENCE_new
                0x00000000401f13d4                NETSCAPE_CERT_SEQUENCE_free
                0x00000000401f13e4                OPENSSL_gmtime
                0x00000000401f13ef                OPENSSL_gmtime_adj
                0x00000000401f1698                PKCS12_PBE_add
                0x00000000401f169e                PKCS12_PBE_keyivgen
                0x00000000401f18ac                PKCS12_key_gen_uni
                0x00000000401f1dc9                PKCS12_key_gen_asc
                0x00000000401f1ea8                PKCS8_decrypt
                0x00000000401f1ecc                OPENSSL_asc2uni
                0x00000000401f1f5b                OPENSSL_uni2asc
                0x00000000401f1fdc                i2d_PKCS12_bio
                0x00000000401f1ff2                d2i_PKCS12_bio
                0x00000000401f2008                PKCS12_x5092certbag
                0x00000000401f2022                PKCS12_x509crl2certbag
                0x00000000401f203c                PKCS12_certbag2x509
                0x00000000401f2093                PKCS12_certbag2x509crl
                0x00000000401f20ec                PKCS5_PBE_add
                0x00000000401f20f2                PKCS5_PBE_keyivgen
                0x00000000401f23d4                PKCS5_PBKDF2_HMAC
                0x00000000401f25f4                PKCS5_PBKDF2_HMAC_SHA1
                0x00000000401f2662                PKCS5_v2_PBE_keyivgen
                0x00000000401f2a64                d2i_PBEPARAM
                0x00000000401f2a74                i2d_PBEPARAM
                0x00000000401f2a84                PBEPARAM_new
                0x00000000401f2a94                PBEPARAM_free
                0x00000000401f2aa4                PKCS5_pbe_set0_algor
                0x00000000401f2c5f                PKCS5_pbe_set
                0x00000000401f2cf4                d2i_PBE2PARAM
                0x00000000401f2d04                i2d_PBE2PARAM
                0x00000000401f2d14                PBE2PARAM_new
                0x00000000401f2d24                PBE2PARAM_free
                0x00000000401f2d34                d2i_PBKDF2PARAM
                0x00000000401f2d44                i2d_PBKDF2PARAM
                0x00000000401f2d54                PBKDF2PARAM_new
                0x00000000401f2d64                PBKDF2PARAM_free
                0x00000000401f2d74                PKCS5_pbe2_set_iv
                0x00000000401f328d                PKCS5_pbe2_set
                0x00000000401f32d0                d2i_PKCS8_PRIV_KEY_INFO
                0x00000000401f32e0                i2d_PKCS8_PRIV_KEY_INFO
                0x00000000401f32f0                PKCS8_PRIV_KEY_INFO_new
                0x00000000401f3300                PKCS8_PRIV_KEY_INFO_free
                0x00000000401f3310                PKCS8_pkey_set0
                0x00000000401f33db                PKCS8_pkey_get0
                0x00000000401f3470                EVP_SignFinal
                0x00000000401f3650                EVP_VerifyFinal
                0x00000000401f3841                policy_cache_free
                0x00000000401f3881                policy_cache_set
                0x00000000401f3bd5                policy_cache_find_data
                0x00000000401f3c10                policy_data_free
                0x00000000401f3c55                policy_data_new
                0x00000000401f3d54                policy_cache_set_mapping
                0x00000000401f3fbe                X509_policy_tree_free
                0x00000000401f406a                X509_policy_check
                0x00000000401f4ad8                d2i_PKCS8PrivateKey_bio
                0x00000000401f4bec                PEM_read_bio_PKCS8
                0x00000000401f4c0d                PEM_write_bio_PKCS8
                0x00000000401f4c51                PEM_read_bio_PKCS8_PRIV_KEY_INFO
                0x00000000401f4c72                PEM_write_bio_PKCS8_PRIV_KEY_INFO
                0x00000000401f4eb8                i2d_PKCS8PrivateKey_nid_bio
                0x00000000401f4ee9                i2d_PKCS8PrivateKey_bio
                0x00000000401f4f1a                PEM_write_bio_PKCS8PrivateKey
                0x00000000401f4f4b                PEM_write_bio_PKCS8PrivateKey_nid
                0x00000000401f4f7c                PKCS7_add_attrib_smimecap
                0x00000000401f4fff                PKCS7_get_smimecap
                0x00000000401f504e                PKCS7_simple_smimecap
                0x00000000401f5194                PKCS7_add_attrib_content_type
                0x00000000401f51f3                PKCS7_add0_attrib_signing_time
                0x00000000401f5256                PKCS7_add1_attrib_digest
                0x00000000401f6bd2                RSA_PKCS1_SSLeay
                0x00000000401f6be0                RSA_padding_add_none
                0x00000000401f6c4c                RSA_padding_check_none
                0x00000000401f6cd4                PKCS1_MGF1
                0x00000000401f6ec9                RSA_padding_check_PKCS1_OAEP
                0x00000000401f714d                RSA_padding_add_PKCS1_OAEP
                0x00000000401f7350                RSA_padding_add_PKCS1_type_1
                0x00000000401f73eb                RSA_padding_check_PKCS1_type_1
                0x00000000401f7534                RSA_padding_add_PKCS1_type_2
                0x00000000401f75f5                RSA_padding_check_PKCS1_type_2
                0x00000000401f7710                RSA_verify_PKCS1_PSS
                0x00000000401f7ac3                RSA_padding_add_PKCS1_PSS
                0x00000000401f7d9c                RSA_padding_add_SSLv23
                0x00000000401f7e70                RSA_padding_check_SSLv23
                0x00000000401f7fd0                RSA_padding_add_X931
                0x00000000401f8086                RSA_padding_check_X931
                0x00000000401f81a2                RSA_X931_hash_id
                0x00000000401f81e4                ASN1_bn_print
                0x00000000401f83e0                X509_ocspid_print
                0x00000000401f8568                X509_signature_print
                0x00000000401f866a                ASN1_STRING_print
                0x00000000401f8723                ASN1_GENERALIZEDTIME_print
                0x00000000401f89d8                ASN1_UTCTIME_print
                0x00000000401f8b44                ASN1_TIME_print
                0x00000000401f8b7d                X509_print_ex
                0x00000000401f90c1                X509_print
                0x00000000401f90d6                X509_NAME_print
                0x00000000401f91cc                X509_CERT_AUX_print
                0x00000000401f976c                UI_free
                0x00000000401f97ab                UI_add_input_string
                0x00000000401f97dc                UI_dup_input_string
                0x00000000401f9884                UI_add_verify_string
                0x00000000401f98b5                UI_dup_verify_string
                0x00000000401f995d                UI_add_input_boolean
                0x00000000401f9987                UI_dup_input_boolean
                0x00000000401f9b2f                UI_add_info_string
                0x00000000401f9b6c                UI_dup_info_string
                0x00000000401f9bf3                UI_add_error_string
                0x00000000401f9c30                UI_dup_error_string
                0x00000000401f9cb7                UI_construct_prompt
                0x00000000401f9de7                UI_add_user_data
                0x00000000401f9df5                UI_get0_user_data
                0x00000000401f9dff                UI_process
                0x00000000401f9f34                UI_ctrl
                0x00000000401f9fc1                UI_get_ex_new_index
                0x00000000401f9fe0                UI_set_ex_data
                0x00000000401f9fef                UI_get_ex_data
                0x00000000401f9ffe                UI_set_default_method
                0x00000000401fa00b                UI_get_default_method
                0x00000000401fa02e                UI_new_method
                0x00000000401fa0bd                UI_new
                0x00000000401fa0cd                UI_get_method
                0x00000000401fa0d6                UI_set_method
                0x00000000401fa0e2                UI_create_method
                0x00000000401fa13b                UI_destroy_method
                0x00000000401fa165                UI_method_set_opener
                0x00000000401fa180                UI_method_set_writer
                0x00000000401fa19b                UI_method_set_flusher
                0x00000000401fa1b6                UI_method_set_reader
                0x00000000401fa1d1                UI_method_set_closer
                0x00000000401fa1ec                UI_method_set_prompt_constructor
                0x00000000401fa207                UI_method_get_opener
                0x00000000401fa21d                UI_method_get_writer
                0x00000000401fa233                UI_method_get_flusher
                0x00000000401fa249                UI_method_get_reader
                0x00000000401fa25f                UI_method_get_closer
                0x00000000401fa275                UI_method_get_prompt_constructor
                0x00000000401fa28b                UI_get_string_type
                0x00000000401fa29d                UI_get_input_flags
                0x00000000401fa2b0                UI_get0_output_string
                0x00000000401fa2c6                UI_get0_action_string
                0x00000000401fa2ef                UI_get0_result_string
                0x00000000401fa314                UI_get0_result
                0x00000000401fa3a6                UI_get0_test_string
                0x00000000401fa3c6                UI_get_result_minsize
                0x00000000401fa3ea                UI_get_result_maxsize
                0x00000000401fa40e                UI_set_result
                0x00000000401fa904                UI_OpenSSL
                0x00000000401fa910                d2i_AUTHORITY_KEYID
                0x00000000401fa920                i2d_AUTHORITY_KEYID
                0x00000000401fa930                AUTHORITY_KEYID_new
                0x00000000401fa940                AUTHORITY_KEYID_free
                0x00000000401fabe3                POLICYINFO_free
                0x00000000401fabf3                d2i_CERTIFICATEPOLICIES
                0x00000000401fac03                i2d_CERTIFICATEPOLICIES
                0x00000000401fac13                CERTIFICATEPOLICIES_new
                0x00000000401fac23                CERTIFICATEPOLICIES_free
                0x00000000401fac33                d2i_POLICYINFO
                0x00000000401fac43                i2d_POLICYINFO
                0x00000000401fac53                POLICYINFO_new
                0x00000000401fac63                d2i_POLICYQUALINFO
                0x00000000401fac73                i2d_POLICYQUALINFO
                0x00000000401fac83                POLICYQUALINFO_new
                0x00000000401fac93                POLICYQUALINFO_free
                0x00000000401faca3                d2i_USERNOTICE
                0x00000000401facb3                i2d_USERNOTICE
                0x00000000401facc3                USERNOTICE_new
                0x00000000401facd3                USERNOTICE_free
                0x00000000401face3                d2i_NOTICEREF
                0x00000000401facf3                i2d_NOTICEREF
                0x00000000401fad03                NOTICEREF_new
                0x00000000401fb648                NOTICEREF_free
                0x00000000401fb658                X509_POLICY_NODE_print
                0x00000000401fbc90                DIST_POINT_free
                0x00000000401fbca0                d2i_DIST_POINT_NAME
                0x00000000401fbcb0                i2d_DIST_POINT_NAME
                0x00000000401fbcc0                DIST_POINT_NAME_new
                0x00000000401fbeda                DIST_POINT_NAME_free
                0x00000000401fbeea                d2i_DIST_POINT
                0x00000000401fbefa                i2d_DIST_POINT
                0x00000000401fbf0a                DIST_POINT_new
                0x00000000401fc1ad                d2i_CRL_DIST_POINTS
                0x00000000401fc1bd                i2d_CRL_DIST_POINTS
                0x00000000401fc1cd                CRL_DIST_POINTS_new
                0x00000000401fc1dd                CRL_DIST_POINTS_free
                0x00000000401fc1ed                d2i_ISSUING_DIST_POINT
                0x00000000401fc1fd                i2d_ISSUING_DIST_POINT
                0x00000000401fc20d                ISSUING_DIST_POINT_new
                0x00000000401fc21d                ISSUING_DIST_POINT_free
                0x00000000401fc42a                DIST_POINT_set_dpname
                0x00000000401fc518                i2d_GENERAL_NAME
                0x00000000401fc528                d2i_GENERAL_NAME
                0x00000000401fc538                d2i_OTHERNAME
                0x00000000401fc548                i2d_OTHERNAME
                0x00000000401fc558                OTHERNAME_new
                0x00000000401fc568                OTHERNAME_free
                0x00000000401fc578                d2i_EDIPARTYNAME
                0x00000000401fc588                i2d_EDIPARTYNAME
                0x00000000401fc598                EDIPARTYNAME_new
                0x00000000401fc5a8                EDIPARTYNAME_free
                0x00000000401fc5b8                GENERAL_NAME_new
                0x00000000401fc5c8                GENERAL_NAME_free
                0x00000000401fc5d8                d2i_GENERAL_NAMES
                0x00000000401fc5e8                i2d_GENERAL_NAMES
                0x00000000401fc5f8                GENERAL_NAMES_new
                0x00000000401fc608                GENERAL_NAMES_free
                0x00000000401fc618                GENERAL_NAME_dup
                0x00000000401fc630                OTHERNAME_cmp
                0x00000000401fc67e                GENERAL_NAME_cmp
                0x00000000401fc706                GENERAL_NAME_set0_value
                0x00000000401fc73e                GENERAL_NAME_get0_value
                0x00000000401fc782                GENERAL_NAME_set0_othername
                0x00000000401fc7d8                GENERAL_NAME_get0_otherName
                0x00000000401fce3e                GENERAL_SUBTREE_new
                0x00000000401fce4e                GENERAL_SUBTREE_free
                0x00000000401fce5e                NAME_CONSTRAINTS_new
                0x00000000401fce6e                NAME_CONSTRAINTS_free
                0x00000000401fd00c                NAME_CONSTRAINTS_check
                0x00000000401fd13e                POLICY_CONSTRAINTS_new
                0x00000000401fd14e                POLICY_CONSTRAINTS_free
                0x00000000401fd353                POLICY_MAPPING_free
                0x00000000401fd363                POLICY_MAPPING_new
                0x00000000401fd607                X509V3_EXT_val_prn
                0x00000000401fd72e                X509V3_EXT_print
                0x00000000401fd90a                X509V3_extensions_print
                0x00000000401fde11                X509_PURPOSE_get_count
                0x00000000401fde30                X509_PURPOSE_get0
                0x00000000401fde66                X509_PURPOSE_get_by_sname
                0x00000000401fdea6                X509_PURPOSE_get_by_id
                0x00000000401fdee6                X509_PURPOSE_set
                0x00000000401fdf40                X509_PURPOSE_add
                0x00000000401fe109                X509_PURPOSE_cleanup
                0x00000000401fe158                X509_PURPOSE_get_id
                0x00000000401fe160                X509_PURPOSE_get0_name
                0x00000000401fe16a                X509_PURPOSE_get0_sname
                0x00000000401fe174                X509_PURPOSE_get_trust
                0x00000000401fe17d                X509_supported_extension
                0x00000000401fe6ee                X509_check_purpose
                0x00000000401fe788                X509_check_ca
                0x00000000401fe7e3                X509_check_akid
                0x00000000401fe8c0                X509_check_issued
                0x00000000401feaa0                X509V3_conf_free
                0x00000000401feb99                X509V3_add_value
                0x00000000401fecca                X509V3_add_value_uchar
                0x00000000401fecd5                X509V3_add_value_bool
                0x00000000401fecf5                X509V3_add_value_bool_nf
                0x00000000401fed0e                i2s_ASN1_ENUMERATED
                0x00000000401fed88                i2s_ASN1_INTEGER
                0x00000000401fee02                s2i_ASN1_INTEGER
                0x00000000401fef3f                X509V3_add_value_int
                0x00000000401fefa7                X509V3_get_value_bool
                0x00000000401ff11e                X509V3_get_value_int
                0x00000000401ff18f                X509V3_parse_list
                0x00000000401ff3c2                hex_to_string
                0x00000000401ff489                string_to_hex
                0x00000000401ff646                name_cmp
                0x00000000401ff6a5                X509_email_free
                0x00000000401ff811                X509_REQ_get1_email
                0x00000000401ff887                X509_get1_email
                0x00000000401ff8e1                X509_get1_ocsp
                0x00000000401ff980                a2i_ipadd
                0x00000000401ffaf1                a2i_IPADDRESS_NC
                0x00000000401ffbe1                a2i_IPADDRESS
                0x00000000401ffc3d                X509V3_NAME_from_section
                0x00000000401ffd30                X509at_get_attr_count
                0x00000000401ffd3b                X509at_get_attr_by_OBJ
                0x00000000401ffda9                X509at_get_attr_by_NID
                0x00000000401ffde8                X509at_get_attr
                0x00000000401ffe33                X509at_delete_attr
                0x00000000401ffe7e                X509at_add1_attr
                0x00000000401fff59                X509_ATTRIBUTE_set1_object
                0x00000000401fffa2                X509_ATTRIBUTE_set1_data
                0x000000004020012a                X509_ATTRIBUTE_create_by_OBJ
                0x00000000402001fe                X509_ATTRIBUTE_create_by_txt
                0x00000000402002b6                X509at_add1_attr_by_txt
                0x000000004020030c                X509_ATTRIBUTE_create_by_NID
                0x00000000402003a6                X509at_add1_attr_by_NID
                0x00000000402003fc                X509at_add1_attr_by_OBJ
                0x0000000040200452                X509_ATTRIBUTE_count
                0x0000000040200474                X509_ATTRIBUTE_get0_object
                0x0000000040200489                X509_ATTRIBUTE_get0_type
                0x00000000402004e0                X509_ATTRIBUTE_get0_data
                0x0000000040200546                X509at_get0_data_by_OBJ
                0x00000000402005f4                X509_CRL_get_ext_count
                0x0000000040200606                X509_CRL_get_ext_by_NID
                0x0000000040200618                X509_CRL_get_ext_by_OBJ
                0x000000004020062a                X509_CRL_get_ext_by_critical
                0x000000004020063c                X509_CRL_get_ext
                0x000000004020064e                X509_CRL_delete_ext
                0x0000000040200660                X509_CRL_get_ext_d2i
                0x0000000040200672                X509_CRL_add1_ext_i2d
                0x0000000040200684                X509_CRL_add_ext
                0x000000004020069f                X509_get_ext_count
                0x00000000402006b1                X509_get_ext_by_NID
                0x00000000402006c3                X509_get_ext_by_OBJ
                0x00000000402006d5                X509_get_ext_by_critical
                0x00000000402006e7                X509_get_ext
                0x00000000402006f9                X509_delete_ext
                0x000000004020070b                X509_add_ext
                0x0000000040200726                X509_get_ext_d2i
                0x0000000040200738                X509_add1_ext_i2d
                0x000000004020074a                X509_REVOKED_get_ext_count
                0x0000000040200759                X509_REVOKED_get_ext_by_NID
                0x0000000040200768                X509_REVOKED_get_ext_by_OBJ
                0x0000000040200777                X509_REVOKED_get_ext_by_critical
                0x0000000040200786                X509_REVOKED_get_ext
                0x0000000040200795                X509_REVOKED_delete_ext
                0x00000000402007a4                X509_REVOKED_add_ext
                0x00000000402007bc                X509_REVOKED_get_ext_d2i
                0x00000000402007cb                X509_REVOKED_add1_ext_i2d
                0x000000004020094e                X509_LOOKUP_new
                0x00000000402009bd                X509_LOOKUP_free
                0x00000000402009f1                X509_LOOKUP_init
                0x0000000040200a12                X509_LOOKUP_shutdown
                0x0000000040200a33                X509_LOOKUP_ctrl
                0x0000000040200a5a                X509_LOOKUP_by_subject
                0x0000000040200a81                X509_LOOKUP_by_issuer_serial
                0x0000000040200aa1                X509_LOOKUP_by_fingerprint
                0x0000000040200ac1                X509_LOOKUP_by_alias
                0x0000000040200ae1                X509_STORE_new
                0x0000000040200bd9                X509_STORE_free
                0x0000000040200c69                X509_STORE_add_lookup
                0x0000000040200cf1                X509_OBJECT_up_ref_count
                0x0000000040200d4b                X509_OBJECT_free_contents
                0x0000000040200d73                X509_OBJECT_idx_by_subject
                0x0000000040200d83                X509_OBJECT_retrieve_by_subject
                0x0000000040200daf                X509_STORE_get_by_subject
                0x0000000040200ec3                X509_STORE_get1_certs
                0x0000000040201095                X509_STORE_get1_crls
                0x0000000040201258                X509_OBJECT_retrieve_match
                0x000000004020132b                X509_STORE_add_crl
                0x000000004020143f                X509_STORE_add_cert
                0x0000000040201553                X509_STORE_CTX_get1_issuer
                0x0000000040201719                X509_STORE_set_flags
                0x0000000040201728                X509_STORE_set_depth
                0x000000004020173c                X509_STORE_set_purpose
                0x000000004020174b                X509_STORE_set_trust
                0x000000004020175a                X509_STORE_set1_param
                0x0000000040201769                X509_STORE_set_verify_cb
                0x0000000040201780                X509_to_X509_REQ
                0x000000004020188c                X509_REQ_get_pubkey
                0x00000000402018b4                X509_REQ_check_private_key
                0x00000000402019e9                X509_REQ_extension_nid
                0x0000000040201a28                X509_REQ_get_extension_nids
                0x0000000040201a35                X509_REQ_set_extension_nids
                0x0000000040201a42                X509_REQ_add_extensions_nid
                0x0000000040201b65                X509_REQ_add_extensions
                0x0000000040201b75                X509_REQ_get_attr_count
                0x0000000040201b87                X509_REQ_get_attr_by_NID
                0x0000000040201b99                X509_REQ_get_attr_by_OBJ
                0x0000000040201bab                X509_REQ_get_attr
                0x0000000040201bbd                X509_REQ_get_extensions
                0x0000000040201cbf                X509_REQ_delete_attr
                0x0000000040201cd1                X509_REQ_add1_attr
                0x0000000040201cec                X509_REQ_add1_attr_by_OBJ
                0x0000000040201d07                X509_REQ_add1_attr_by_NID
                0x0000000040201d22                X509_REQ_add1_attr_by_txt
                0x0000000040201ec5                X509_TRUST_set_default
                0x0000000040201ed9                X509_TRUST_get_count
                0x0000000040201ef8                X509_TRUST_get0
                0x0000000040201f2c                X509_TRUST_get_by_id
                0x0000000040201f6c                X509_check_trust
                0x0000000040201fcf                X509_TRUST_set
                0x0000000040202029                X509_TRUST_add
                0x00000000402021d5                X509_TRUST_cleanup
                0x0000000040202221                X509_TRUST_get_flags
                0x000000004020222a                X509_TRUST_get0_name
                0x0000000040202234                X509_TRUST_get_trust
                0x0000000040202240                X509v3_get_ext_count
                0x0000000040202255                X509v3_get_ext_by_OBJ
                0x00000000402022c3                X509v3_get_ext_by_NID
                0x0000000040202302                X509v3_get_ext_by_critical
                0x0000000040202378                X509v3_get_ext
                0x00000000402023c3                X509v3_delete_ext
                0x000000004020240e                X509v3_add_ext
                0x0000000040202513                X509_EXTENSION_set_object
                0x000000004020255c                X509_EXTENSION_set_critical
                0x000000004020257b                X509_EXTENSION_set_data
                0x00000000402025a5                X509_EXTENSION_create_by_OBJ
                0x000000004020267f                X509_EXTENSION_create_by_NID
                0x000000004020270b                X509_EXTENSION_get_object
                0x0000000040202720                X509_EXTENSION_get_data
                0x0000000040202736                X509_EXTENSION_get_critical
                0x0000000040202750                X509_NAME_entry_count
                0x0000000040202768                X509_NAME_get_index_by_OBJ
                0x00000000402027db                X509_NAME_get_index_by_NID
                0x000000004020281a                X509_NAME_get_entry
                0x0000000040202868                X509_NAME_delete_entry
                0x0000000040202934                X509_NAME_add_entry
                0x0000000040202aa8                X509_NAME_ENTRY_set_object
                0x0000000040202b14                X509_NAME_ENTRY_set_data
                0x0000000040202bf9                X509_NAME_ENTRY_create_by_OBJ
                0x0000000040202cac                X509_NAME_ENTRY_create_by_NID
                0x0000000040202d42                X509_NAME_add_entry_by_NID
                0x0000000040202da9                X509_NAME_ENTRY_create_by_txt
                0x0000000040202e61                X509_NAME_add_entry_by_txt
                0x0000000040202ec8                X509_NAME_add_entry_by_OBJ
                0x0000000040202f2f                X509_NAME_ENTRY_get_object
                0x0000000040202f44                X509_NAME_ENTRY_get_data
                0x0000000040202f5a                X509_NAME_get_text_by_OBJ
                0x0000000040202fdc                X509_NAME_get_text_by_NID
                0x000000004020302c                X509_REQ_set_version
                0x0000000040203048                X509_REQ_set_subject_name
                0x0000000040203069                X509_REQ_set_pubkey
                0x000000004020308c                d2i_X509_VAL
                0x000000004020309c                i2d_X509_VAL
                0x00000000402030ac                X509_VAL_new
                0x00000000402030bc                X509_VAL_free
                0x00000000402030d0                CRYPTO_cbc128_encrypt
                0x000000004020321b                CRYPTO_cbc128_decrypt
                0x0000000040203564                CRYPTO_cfb128_encrypt
                0x0000000040203815                CRYPTO_cfb128_1_encrypt
                0x00000000402038df                CRYPTO_cfb128_8_encrypt
                0x000000004020394c                CRYPTO_ofb128_encrypt
                0x0000000040203a78                i2d_ASN1_BOOLEAN
                0x0000000040203af2                d2i_ASN1_BOOLEAN
                0x0000000040203e30                ASN1_mbstring_ncopy
                0x0000000040204335                ASN1_mbstring_copy
                0x0000000040204360                ASN1_PRINTABLE_type
                0x0000000040204421                ASN1_UNIVERSALSTRING_to_string
                0x000000004020450f                ASN1_STRING_set_default_mask
                0x000000004020451c                ASN1_STRING_get_default_mask
                0x0000000040204529                ASN1_STRING_set_default_mask_asc
                0x00000000402045ec                ASN1_STRING_TABLE_get
                0x0000000040204652                ASN1_STRING_set_by_NID
                0x0000000040204711                ASN1_STRING_TABLE_add
                0x0000000040204846                ASN1_STRING_TABLE_cleanup
                0x0000000040204870                ASN1_seq_unpack
                0x00000000402048d5                ASN1_seq_pack
                0x00000000402049d3                ASN1_unpack_string
                0x0000000040204a26                ASN1_pack_string
                0x0000000040204b28                ASN1_item_pack
                0x0000000040204c21                ASN1_item_unpack
                0x0000000040204c78                BN_mod_exp2_mont
                0x0000000040205504                BN_kronecker
                0x000000004020582a                BN_get0_nist_prime_192
                0x0000000040205835                BN_get0_nist_prime_224
                0x0000000040205840                BN_get0_nist_prime_256
                0x000000004020584b                BN_get0_nist_prime_384
                0x0000000040205856                BN_get0_nist_prime_521
                0x0000000040205861                BN_nist_mod_192
                0x0000000040205acf                BN_nist_mod_224
                0x0000000040205e15                BN_nist_mod_256
                0x00000000402062ad                BN_nist_mod_384
                0x000000004020684d                BN_nist_mod_521
                0x0000000040206a30                BN_mod_sqrt
                0x00000000402073db                CONF_modules_load
                0x000000004020785c                CONF_modules_finish
                0x00000000402078d6                CONF_modules_unload
                0x000000004020798c                CONF_module_add
                0x00000000402079ae                CONF_modules_free
                0x00000000402079c3                CONF_imodule_get_name
                0x00000000402079cd                CONF_imodule_get_value
                0x00000000402079d7                CONF_imodule_get_usr_data
                0x00000000402079e1                CONF_imodule_set_usr_data
                0x00000000402079eb                CONF_imodule_get_module
                0x00000000402079f4                CONF_imodule_get_flags
                0x00000000402079fe                CONF_imodule_set_flags
                0x0000000040207a08                CONF_module_get_usr_data
                0x0000000040207a12                CONF_module_set_usr_data
                0x0000000040207a1c                CONF_get1_default_config_file
                0x0000000040207a97                CONF_modules_load_file
                0x0000000040207b71                CONF_parse_list
                0x0000000040207c80                DSO_set_default_method
                0x0000000040207c8d                DSO_get_default_method
                0x0000000040207c9a                DSO_get_method
                0x0000000040207ca3                DSO_set_method
                0x0000000040207caf                DSO_new_method
                0x0000000040207da2                DSO_new
                0x0000000040207db2                DSO_free
                0x0000000040207ec8                DSO_flags
                0x0000000040207edb                DSO_up_ref
                0x0000000040207f2d                DSO_bind_var
                0x0000000040207fcb                DSO_bind_func
                0x0000000040208069                DSO_ctrl
                0x0000000040208101                DSO_set_name_converter
                0x0000000040208145                DSO_get_filename
                0x0000000040208178                DSO_set_filename
                0x0000000040208275                DSO_load
                0x0000000040208424                DSO_merge
                0x0000000040208487                DSO_convert_filename
                0x0000000040208597                DSO_get_loaded_filename
                0x00000000402085ca                DSO_pathbyaddr
                0x000000004020863e                DSO_global_lookup
                0x0000000040208698                DSO_METHOD_openssl
                0x00000000402086b0                ec_GF2m_simple_is_at_infinity
                0x00000000402086c0                ec_GF2m_simple_points_make_affine
                0x0000000040208729                ec_GF2m_simple_field_div
                0x0000000040208744                ec_GF2m_simple_field_sqr
                0x000000004020875f                ec_GF2m_simple_field_mul
                0x000000004020877d                ec_GF2m_simple_point_copy
                0x00000000402087e2                ec_GF2m_simple_group_get_curve
                0x000000004020886a                ec_GF2m_simple_point_set_to_infinity
                0x000000004020888a                ec_GF2m_simple_make_affine
                0x000000004020899e                ec_GF2m_simple_cmp
                0x0000000040208b3b                ec_GF2m_simple_is_on_curve
                0x0000000040208cd9                ec_GF2m_simple_invert
                0x0000000040208d43                ec_GF2m_simple_add
                0x000000004020915a                ec_GF2m_simple_dbl
                0x000000004020916b                ec_GF2m_simple_oct2point
                0x000000004020952b                ec_GF2m_simple_group_get_degree
                0x000000004020953d                ec_GF2m_simple_point2oct
                0x00000000402098ee                ec_GF2m_simple_group_check_discriminant
                0x00000000402099c5                ec_GF2m_simple_set_compressed_coordinates
                0x0000000040209c59                ec_GF2m_simple_point_get_affine_coordinates
                0x0000000040209d4d                ec_GF2m_simple_point_set_affine_coordinates
                0x0000000040209e2d                ec_GF2m_simple_point_clear_finish
                0x0000000040209e62                ec_GF2m_simple_group_clear_finish
                0x0000000040209ed2                ec_GF2m_simple_point_finish
                0x0000000040209f00                ec_GF2m_simple_group_finish
                0x0000000040209f34                ec_GF2m_simple_point_init
                0x0000000040209f67                ec_GF2m_simple_group_init
                0x0000000040209fa0                ec_GF2m_simple_group_set_curve
                0x000000004020a14e                ec_GF2m_simple_group_copy
                0x000000004020a2ed                EC_GF2m_simple_method
                0x000000004020a2f8                d2i_ECDSA_SIG
                0x000000004020a308                i2d_ECDSA_SIG
                0x000000004020a318                ECDSA_SIG_new
                0x000000004020a328                ECDSA_SIG_free
                0x000000004020a34e                ERR_print_errors_cb
                0x000000004020a43e                ERR_print_errors
                0x000000004020a454                PKCS12_item_pack_safebag
                0x000000004020a550                PKCS12_MAKE_KEYBAG
                0x000000004020a5af                PKCS12_MAKE_SHKEYBAG
                0x000000004020a6a0                PKCS12_pack_p7data
                0x000000004020a764                PKCS12_unpack_p7data
                0x000000004020a7b9                PKCS12_pack_p7encdata
                0x000000004020a95a                PKCS12_unpack_p7encdata
                0x000000004020a9c4                PKCS12_decrypt_skey
                0x000000004020a9d3                PKCS12_pack_authsafes
                0x000000004020a9fa                PKCS12_unpack_authsafes
                0x000000004020aa58                d2i_PKCS12
                0x000000004020aa68                i2d_PKCS12
                0x000000004020aa78                PKCS12_new
                0x000000004020aa88                PKCS12_free
                0x000000004020aa98                d2i_PKCS12_MAC_DATA
                0x000000004020aaa8                i2d_PKCS12_MAC_DATA
                0x000000004020aab8                PKCS12_MAC_DATA_new
                0x000000004020aac8                PKCS12_MAC_DATA_free
                0x000000004020aad8                d2i_PKCS12_BAGS
                0x000000004020aae8                i2d_PKCS12_BAGS
                0x000000004020aaf8                PKCS12_BAGS_new
                0x000000004020ab08                PKCS12_BAGS_free
                0x000000004020ab18                d2i_PKCS12_SAFEBAG
                0x000000004020ab28                i2d_PKCS12_SAFEBAG
                0x000000004020ab38                PKCS12_SAFEBAG_new
                0x000000004020ab48                PKCS12_SAFEBAG_free
                0x000000004020ab58                PKCS12_pbe_crypt
                0x000000004020acd8                PKCS12_item_decrypt_d2i
                0x000000004020ada4                PKCS12_item_i2d_encrypt
                0x000000004020aee0                PKCS8_encrypt
                0x000000004020b018                X509_policy_tree_level_count
                0x000000004020b02b                X509_policy_tree_get0_level
                0x000000004020b05a                X509_policy_tree_get0_policies
                0x000000004020b070                X509_policy_tree_get0_user_policies
                0x000000004020b092                X509_policy_level_node_count
                0x000000004020b0c9                X509_policy_level_get0_node
                0x000000004020b0f4                X509_policy_node_get0_policy
                0x000000004020b10d                X509_policy_node_get0_qualifiers
                0x000000004020b126                X509_policy_node_get0_parent
                0x000000004020b15b                policy_node_cmp_new
                0x000000004020b16b                tree_find_sk
                0x000000004020b1a7                level_find_node
                0x000000004020b21b                policy_node_free
                0x000000004020b226                level_add_node
                0x000000004020b322                policy_node_match
                0x000000004020b529                i2v_GENERAL_NAME
                0x000000004020b7b0                i2v_GENERAL_NAMES
                0x000000004020b814                GENERAL_NAME_print
                0x000000004020b9b8                a2i_GENERAL_NAME
                0x000000004020bd7c                v2i_GENERAL_NAME_ex
                0x000000004020bee9                v2i_GENERAL_NAME
                0x000000004020c234                v2i_GENERAL_NAMES
                0x000000004020c32d                d2i_BASIC_CONSTRAINTS
                0x000000004020c33d                i2d_BASIC_CONSTRAINTS
                0x000000004020c34d                BASIC_CONSTRAINTS_new
                0x000000004020c35d                BASIC_CONSTRAINTS_free
                0x000000004020caf5                X509V3_EXT_nconf
                0x000000004020cbcc                X509V3_EXT_nconf_nid
                0x000000004020cc5c                X509V3_EXT_i2d
                0x000000004020ccc6                X509V3_EXT_add_nconf_sk
                0x000000004020cd6e                X509V3_EXT_add_nconf
                0x000000004020cd8d                X509V3_EXT_CRL_add_nconf
                0x000000004020cdac                X509V3_EXT_REQ_add_nconf
                0x000000004020ce0b                X509V3_get_string
                0x000000004020ce56                X509V3_get_section
                0x000000004020cea2                X509V3_string_free
                0x000000004020cec0                X509V3_section_free
                0x000000004020cede                X509V3_set_nconf
                0x000000004020cef0                X509V3_set_ctx
                0x000000004020cf09                X509V3_EXT_conf
                0x000000004020cf52                X509V3_EXT_conf_nid
                0x000000004020cf9b                X509V3_set_conf_lhash
                0x000000004020cfad                X509V3_EXT_add_conf
                0x000000004020cff6                X509V3_EXT_CRL_add_conf
                0x000000004020d03f                X509V3_EXT_REQ_add_conf
                0x000000004020d1df                ACCESS_DESCRIPTION_free
                0x000000004020d1ef                d2i_ACCESS_DESCRIPTION
                0x000000004020d1ff                i2d_ACCESS_DESCRIPTION
                0x000000004020d20f                ACCESS_DESCRIPTION_new
                0x000000004020d439                d2i_AUTHORITY_INFO_ACCESS
                0x000000004020d449                i2d_AUTHORITY_INFO_ACCESS
                0x000000004020d459                AUTHORITY_INFO_ACCESS_new
                0x000000004020d469                AUTHORITY_INFO_ACCESS_free
                0x000000004020d479                i2a_ACCESS_DESCRIPTION
                0x000000004020d4bc                X509V3_EXT_add
                0x000000004020d550                X509V3_EXT_get_nid
                0x000000004020d5c8                X509V3_EXT_get
                0x000000004020d5e6                X509V3_EXT_add_list
                0x000000004020d624                X509V3_EXT_add_alias
                0x000000004020d71f                X509V3_EXT_cleanup
                0x000000004020d741                X509V3_add_standard_extensions
                0x000000004020d74c                X509V3_EXT_d2i
                0x000000004020d7a7                X509V3_get_d2i
                0x000000004020d8cf                X509V3_add1_i2d
                0x000000004020e890                d2i_PROXY_POLICY
                0x000000004020e8a0                i2d_PROXY_POLICY
                0x000000004020e8b0                PROXY_POLICY_new
                0x000000004020e8c0                PROXY_POLICY_free
                0x000000004020e8d0                d2i_PROXY_CERT_INFO_EXTENSION
                0x000000004020e8e0                i2d_PROXY_CERT_INFO_EXTENSION
                0x000000004020e8f0                PROXY_CERT_INFO_EXTENSION_new
                0x000000004020e900                PROXY_CERT_INFO_EXTENSION_free
                0x000000004020e9a1                d2i_PKEY_USAGE_PERIOD
                0x000000004020e9b1                i2d_PKEY_USAGE_PERIOD
                0x000000004020e9c1                PKEY_USAGE_PERIOD_new
                0x000000004020e9d1                PKEY_USAGE_PERIOD_free
                0x000000004020e9f0                i2s_ASN1_OCTET_STRING
                0x000000004020ea05                s2i_ASN1_OCTET_STRING
                0x000000004020ecb7                d2i_SXNETID
                0x000000004020ecc7                i2d_SXNETID
                0x000000004020ecd7                SXNETID_new
                0x000000004020ece7                SXNETID_free
                0x000000004020ecf7                d2i_SXNET
                0x000000004020ed07                i2d_SXNET
                0x000000004020ed17                SXNET_new
                0x000000004020ed27                SXNET_free
                0x000000004020ed37                SXNET_get_id_INTEGER
                0x000000004020ed96                SXNET_get_id_ulong
                0x000000004020ee27                SXNET_get_id_asc
                0x000000004020ee96                SXNET_add_id_INTEGER
                0x000000004020f056                SXNET_add_id_ulong
                0x000000004020f0f4                SXNET_add_id_asc
                0x000000004020f1c8                X509_get_default_private_dir
                0x000000004020f1d3                X509_get_default_cert_area
                0x000000004020f1de                X509_get_default_cert_dir
                0x000000004020f1e9                X509_get_default_cert_file
                0x000000004020f1f4                X509_get_default_cert_dir_env
                0x000000004020f1ff                X509_get_default_cert_file_env
                0x000000004020f251                i2d_ASN1_SET
                0x000000004020f4ba                d2i_ASN1_SET
                0x000000004020fd7f                ASN1_generate_v3
                0x00000000402106b1                ASN1_generate_nconf
                0x00000000402108bc                BN_GF2m_add
                0x000000004021099a                BN_GF2m_mod_arr
                0x0000000040210c36                BN_GF2m_mod_sqr_arr
                0x0000000040210dda                BN_GF2m_mod_mul_arr
                0x0000000040211040                BN_GF2m_mod_exp_arr
                0x0000000040211177                BN_GF2m_mod_sqrt_arr
                0x000000004021121f                BN_GF2m_mod_solve_quad_arr
                0x00000000402115e9                BN_GF2m_poly2arr
                0x0000000040211673                BN_GF2m_mod_solve_quad
                0x0000000040211740                BN_GF2m_mod_sqrt
                0x000000004021180d                BN_GF2m_mod_exp
                0x00000000402118e2                BN_GF2m_mod_sqr
                0x00000000402119af                BN_GF2m_mod_mul
                0x0000000040211a84                BN_GF2m_mod
                0x0000000040211b49                BN_GF2m_mod_inv
                0x0000000040211d29                BN_GF2m_mod_div
                0x0000000040211dc6                BN_GF2m_arr2poly
                0x0000000040211e2b                BN_GF2m_mod_div_arr
                0x0000000040211ebf                BN_GF2m_mod_inv_arr
                0x0000000040211f50                CONF_set_nconf
                0x0000000040211f97                CONF_set_default_method
                0x0000000040211fa9                CONF_load
                0x0000000040211fd3                NCONF_new
                0x0000000040212020                NCONF_free
                0x0000000040212031                NCONF_free_data
                0x0000000040212042                CONF_free
                0x0000000040212061                NCONF_load
                0x0000000040212096                NCONF_load_bio
                0x00000000402120cb                CONF_load_bio
                0x0000000040212115                NCONF_get_section
                0x0000000040212172                CONF_get_section
                0x00000000402121a7                NCONF_get_string
                0x000000004021224e                CONF_get_string
                0x0000000040212295                NCONF_get_number_e
                0x0000000040212330                CONF_get_number
                0x000000004021238e                NCONF_dump_bio
                0x00000000402123c3                CONF_dump_bio
                0x00000000402123f0                DSO_METHOD_null
                0x0000000040212cba                ec_GF2m_simple_mul
                0x0000000040212f15                ec_GF2m_precompute_mult
                0x0000000040212f20                ec_GF2m_have_precompute_mult
                0x0000000040212f2c                i2a_ASN1_INTEGER
                0x000000004021306d                a2i_ASN1_INTEGER
                0x0000000040213370                i2a_ASN1_STRING
                0x0000000040213481                a2i_ASN1_STRING
                0x0000000040213738                d2i_OCSP_SIGNATURE
                0x0000000040213748                i2d_OCSP_SIGNATURE
                0x0000000040213758                OCSP_SIGNATURE_new
                0x0000000040213768                OCSP_SIGNATURE_free
                0x0000000040213778                d2i_OCSP_CERTID
                0x0000000040213788                i2d_OCSP_CERTID
                0x0000000040213798                OCSP_CERTID_new
                0x00000000402137a8                OCSP_CERTID_free
                0x00000000402137b8                d2i_OCSP_ONEREQ
                0x00000000402137c8                i2d_OCSP_ONEREQ
                0x00000000402137d8                OCSP_ONEREQ_new
                0x00000000402137e8                OCSP_ONEREQ_free
                0x00000000402137f8                d2i_OCSP_REQINFO
                0x0000000040213808                i2d_OCSP_REQINFO
                0x0000000040213818                OCSP_REQINFO_new
                0x0000000040213828                OCSP_REQINFO_free
                0x0000000040213838                d2i_OCSP_REQUEST
                0x0000000040213848                i2d_OCSP_REQUEST
                0x0000000040213858                OCSP_REQUEST_new
                0x0000000040213868                OCSP_REQUEST_free
                0x0000000040213878                d2i_OCSP_RESPBYTES
                0x0000000040213888                i2d_OCSP_RESPBYTES
                0x0000000040213898                OCSP_RESPBYTES_new
                0x00000000402138a8                OCSP_RESPBYTES_free
                0x00000000402138b8                d2i_OCSP_RESPONSE
                0x00000000402138c8                i2d_OCSP_RESPONSE
                0x00000000402138d8                OCSP_RESPONSE_new
                0x00000000402138e8                OCSP_RESPONSE_free
                0x00000000402138f8                d2i_OCSP_RESPID
                0x0000000040213908                i2d_OCSP_RESPID
                0x0000000040213918                OCSP_RESPID_new
                0x0000000040213928                OCSP_RESPID_free
                0x0000000040213938                d2i_OCSP_REVOKEDINFO
                0x0000000040213948                i2d_OCSP_REVOKEDINFO
                0x0000000040213958                OCSP_REVOKEDINFO_new
                0x0000000040213968                OCSP_REVOKEDINFO_free
                0x0000000040213978                d2i_OCSP_CERTSTATUS
                0x0000000040213988                i2d_OCSP_CERTSTATUS
                0x0000000040213998                OCSP_CERTSTATUS_new
                0x00000000402139a8                OCSP_CERTSTATUS_free
                0x00000000402139b8                d2i_OCSP_SINGLERESP
                0x00000000402139c8                i2d_OCSP_SINGLERESP
                0x00000000402139d8                OCSP_SINGLERESP_new
                0x00000000402139e8                OCSP_SINGLERESP_free
                0x00000000402139f8                d2i_OCSP_RESPDATA
                0x0000000040213a08                i2d_OCSP_RESPDATA
                0x0000000040213a18                OCSP_RESPDATA_new
                0x0000000040213a28                OCSP_RESPDATA_free
                0x0000000040213a38                d2i_OCSP_BASICRESP
                0x0000000040213a48                i2d_OCSP_BASICRESP
                0x0000000040213a58                OCSP_BASICRESP_new
                0x0000000040213a68                OCSP_BASICRESP_free
                0x0000000040213a78                d2i_OCSP_CRLID
                0x0000000040213a88                i2d_OCSP_CRLID
                0x0000000040213a98                OCSP_CRLID_new
                0x0000000040213aa8                OCSP_CRLID_free
                0x0000000040213ab8                d2i_OCSP_SERVICELOC
                0x0000000040213ac8                i2d_OCSP_SERVICELOC
                0x0000000040213ad8                OCSP_SERVICELOC_new
                0x0000000040213ae8                OCSP_SERVICELOC_free
                0x0000000040213eac                v2i_ASN1_BIT_STRING
                0x000000004021402f                i2v_ASN1_BIT_STRING
                0x0000000040214084                i2s_ASN1_ENUMERATED_TABLE
                0x0000000040214250                d2i_EXTENDED_KEY_USAGE
                0x0000000040214260                i2d_EXTENDED_KEY_USAGE
                0x0000000040214270                EXTENDED_KEY_USAGE_new
                0x0000000040214280                EXTENDED_KEY_USAGE_free
                0x00000000402144f8                _CONF_get_section
                0x000000004021452c                _CONF_get_section_values
                0x0000000040214547                _CONF_add_string
                0x00000000402145d2                _CONF_get_string
                0x0000000040214670                _CONF_new_data
                0x00000000402146b2                _CONF_free_data
                0x0000000040214703                _CONF_new_section
                0x0000000040215691                NCONF_default
                0x000000004021569c                NCONF_WIN32
                0x00000000402156a8                codeend = .

.iplt           0x00000000402156b0        0x0 load address 0x00000000002156b0
 .iplt          0x0000000000000000        0x0 output.o

.rodata         0x00000000402156c0    0x34fac load address 0x00000000002156c0
 .rodata        0x00000000402156c0    0x34fac output.o
                0x0000000040223840                BN_version
                0x0000000040223c60                DES_SPtrans
                0x0000000040224c60                DH_version
                0x0000000040226140                OSSL_DES_version
                0x0000000040226180                OSSL_libdes_version
                0x0000000040226260                EVP_version
                0x0000000040226320                IDEA_version
                0x0000000040226360                lh_version
                0x00000000402269a0                MD4_version
                0x00000000402269e0                MD5_version
                0x0000000040233560                PEM_version
                0x00000000402335c0                PKCS7_ATTR_VERIFY_it
                0x0000000040233600                PKCS7_ATTR_SIGN_it
                0x0000000040233640                PKCS7_DIGEST_it
                0x0000000040233680                PKCS7_ENCRYPT_it
                0x00000000402336c0                PKCS7_SIGN_ENVELOPE_it
                0x0000000040233700                PKCS7_ENC_CONTENT_it
                0x0000000040233740                PKCS7_RECIP_INFO_it
                0x0000000040233780                PKCS7_ENVELOPE_it
                0x00000000402337c0                PKCS7_ISSUER_AND_SERIAL_it
                0x0000000040233800                PKCS7_SIGNER_INFO_it
                0x0000000040233840                PKCS7_SIGNED_it
                0x0000000040233880                PKCS7_it
                0x0000000040234340                RC2_version
                0x0000000040234480                RC4_version
                0x00000000402344c0                RMD160_version
                0x0000000040234500                RSAPublicKey_it
                0x0000000040234540                RSAPrivateKey_it
                0x00000000402347e0                RSA_version
                0x00000000402359e0                SHA1_version
                0x0000000040235a20                SHA256_version
                0x0000000040235b60                SHA512_version
                0x0000000040235e20                SHA_version
                0x0000000040235e60                STACK_version
                0x00000000402360c0                ASN1_SET_ANY_it
                0x0000000040236100                ASN1_SEQUENCE_ANY_it
                0x0000000040236140                ASN1_OCTET_STRING_NDEF_it
                0x0000000040236180                ASN1_FBOOLEAN_it
                0x00000000402361c0                ASN1_TBOOLEAN_it
                0x0000000040236200                ASN1_BOOLEAN_it
                0x0000000040236240                DIRECTORYSTRING_it
                0x0000000040236280                DISPLAYTEXT_it
                0x00000000402362c0                ASN1_PRINTABLE_it
                0x0000000040236300                ASN1_SEQUENCE_it
                0x0000000040236340                ASN1_ANY_it
                0x0000000040236380                ASN1_BMPSTRING_it
                0x00000000402363c0                ASN1_UNIVERSALSTRING_it
                0x0000000040236400                ASN1_VISIBLESTRING_it
                0x0000000040236440                ASN1_GENERALIZEDTIME_it
                0x0000000040236480                ASN1_UTCTIME_it
                0x00000000402364c0                ASN1_GENERALSTRING_it
                0x0000000040236500                ASN1_IA5STRING_it
                0x0000000040236540                ASN1_T61STRING_it
                0x0000000040236580                ASN1_PRINTABLESTRING_it
                0x00000000402365c0                ASN1_UTF8STRING_it
                0x0000000040236600                ASN1_OBJECT_it
                0x0000000040236640                ASN1_NULL_it
                0x0000000040236680                ASN1_OCTET_STRING_it
                0x00000000402366c0                ASN1_BIT_STRING_it
                0x0000000040236700                ASN1_ENUMERATED_it
                0x0000000040236740                ASN1_INTEGER_it
                0x0000000040236820                X509_version
                0x0000000040236980                X509_ALGORS_it
                0x00000000402369c0                X509_ALGOR_it
                0x0000000040236aa0                X509_ATTRIBUTE_it
                0x0000000040236ae0                X509_ATTRIBUTE_SET_it
                0x0000000040236be0                CBIGNUM_it
                0x0000000040236c20                BIGNUM_it
                0x0000000040236c60                X509_CRL_it
                0x0000000040236ca0                X509_CRL_INFO_it
                0x0000000040236ce0                X509_REVOKED_it
                0x0000000040236fc0                X509_EXTENSIONS_it
                0x0000000040237000                X509_EXTENSION_it
                0x0000000040237100                ZLONG_it
                0x0000000040237140                LONG_it
                0x0000000040237180                X509_NAME_it
                0x00000000402371c0                x509_name_ff
                0x0000000040237200                X509_NAME_INTERNAL_it
                0x0000000040237240                X509_NAME_ENTRIES_it
                0x0000000040237280                X509_NAME_ENTRY_it
                0x00000000402373a0                X509_PUBKEY_it
                0x0000000040237480                X509_REQ_it
                0x00000000402374c0                X509_REQ_INFO_it
                0x00000000402376a0                X509_SIG_it
                0x0000000040237740                NETSCAPE_SPKI_it
                0x0000000040237780                NETSCAPE_SPKAC_it
                0x00000000402378a0                X509_it
                0x00000000402378e0                X509_CINF_it
                0x0000000040237bc0                X509_CERT_PAIR_it
                0x0000000040237c00                X509_CERT_AUX_it
                0x0000000040238200                rsa_pkey_meth
                0x00000000402382e0                dh_pkey_meth
                0x00000000402383c0                dsa_pkey_meth
                0x00000000402384a0                ec_pkey_meth
                0x0000000040238580                hmac_pkey_meth
                0x00000000402386a0                rsa_asn1_meths
                0x0000000040238820                dh_asn1_meth
                0x00000000402388e0                dsa_asn1_meths
                0x0000000040238c80                eckey_asn1_meth
                0x0000000040238d40                hmac_asn1_meth
                0x0000000040239e80                CMS_Receipt_it
                0x0000000040239ec0                CMS_ReceiptRequest_it
                0x0000000040239f00                CMS_ReceiptsFrom_it
                0x0000000040239f40                CMS_Attributes_Verify_it
                0x0000000040239f80                CMS_Attributes_Sign_it
                0x0000000040239fc0                CMS_ContentInfo_it
                0x000000004023a000                CMS_CompressedData_it
                0x000000004023a040                CMS_AuthenticatedData_it
                0x000000004023a080                CMS_EncryptedData_it
                0x000000004023a0c0                CMS_DigestedData_it
                0x000000004023a100                CMS_EnvelopedData_it
                0x000000004023a140                CMS_RecipientInfo_it
                0x000000004023a180                CMS_OtherRecipientInfo_it
                0x000000004023a1c0                CMS_PasswordRecipientInfo_it
                0x000000004023a200                CMS_KEKRecipientInfo_it
                0x000000004023a240                CMS_KEKIdentifier_it
                0x000000004023a280                CMS_KeyAgreeRecipientInfo_it
                0x000000004023a2c0                CMS_OriginatorIdentifierOrKey_it
                0x000000004023a300                CMS_OriginatorPublicKey_it
                0x000000004023a340                CMS_RecipientEncryptedKey_it
                0x000000004023a380                CMS_KeyAgreeRecipientIdentifier_it
                0x000000004023a3c0                CMS_RecipientKeyIdentifier_it
                0x000000004023a400                CMS_OtherKeyAttribute_it
                0x000000004023a440                CMS_KeyTransRecipientInfo_it
                0x000000004023a480                CMS_EncryptedContentInfo_it
                0x000000004023a4c0                CMS_OriginatorInfo_it
                0x000000004023a500                CMS_SignedData_it
                0x000000004023a540                CMS_RevocationInfoChoice_it
                0x000000004023a580                CMS_OtherRevocationInfoFormat_it
                0x000000004023a5c0                CMS_SignerInfo_it
                0x000000004023a600                CMS_EncapsulatedContentInfo_it
                0x000000004023a640                CMS_SignerIdentifier_it
                0x000000004023a680                CMS_CertificateChoices_it
                0x000000004023a6c0                CMS_OtherCertificateFormat_it
                0x000000004023a700                CMS_IssuerAndSerialNumber_it
                0x000000004023bf40                ASN1_TIME_it
                0x000000004023bfc0                ASN1_version
                0x000000004023c120                BF_version
                0x000000004023e2c0                CAST_version
                0x000000004023e380                CAST_S_table7
                0x000000004023e780                CAST_S_table6
                0x000000004023eb80                CAST_S_table5
                0x000000004023ef80                CAST_S_table4
                0x000000004023f380                CAST_S_table3
                0x000000004023f780                CAST_S_table2
                0x000000004023fb80                CAST_S_table1
                0x000000004023ff80                CAST_S_table0
                0x00000000402405c0                DHparams_it
                0x00000000402406c0                DSAPublicKey_it
                0x0000000040240700                dsa_pub_internal_it
                0x0000000040240740                DSAparams_it
                0x0000000040240780                DSAPrivateKey_it
                0x00000000402407c0                DSA_SIG_it
                0x0000000040240be0                DSA_version
                0x0000000040240c20                EC_PRIVATEKEY_it
                0x0000000040240c60                ECPKPARAMETERS_it
                0x0000000040240ca0                ECPARAMETERS_it
                0x0000000040240ce0                X9_62_CURVE_it
                0x0000000040240d20                X9_62_FIELDID_it
                0x0000000040240d60                X9_62_CHARACTERISTIC_TWO_it
                0x0000000040240da0                X9_62_PENTANOMIAL_it
                0x0000000040244d60                ECDH_version
                0x0000000040245160                ECDSA_version
                0x0000000040245460                RAND_version
                0x00000000402454a0                NETSCAPE_CERT_SEQUENCE_it
                0x0000000040245580                PBEPARAM_it
                0x0000000040245620                PBKDF2PARAM_it
                0x0000000040245660                PBE2PARAM_it
                0x00000000402457a0                PKCS8_PRIV_KEY_INFO_it
                0x0000000040245960                AUTHORITY_KEYID_it
                0x0000000040245a20                NOTICEREF_it
                0x0000000040245a60                USERNOTICE_it
                0x0000000040245aa0                POLICYQUALINFO_it
                0x0000000040245ae0                POLICYINFO_it
                0x0000000040245b20                CERTIFICATEPOLICIES_it
                0x0000000040245b60                v3_cpols
                0x0000000040245e80                v3_idp
                0x0000000040245f00                ISSUING_DIST_POINT_it
                0x0000000040245f40                CRL_DIST_POINTS_it
                0x0000000040245f80                DIST_POINT_it
                0x0000000040245fc0                DIST_POINT_NAME_it
                0x0000000040246000                v3_freshest_crl
                0x0000000040246080                v3_crld
                0x0000000040246540                GENERAL_NAMES_it
                0x0000000040246580                GENERAL_NAME_it
                0x00000000402465c0                EDIPARTYNAME_it
                0x0000000040246600                OTHERNAME_it
                0x00000000402468c0                NAME_CONSTRAINTS_it
                0x0000000040246900                GENERAL_SUBTREE_it
                0x0000000040246940                v3_name_constraints
                0x0000000040246aa0                POLICY_CONSTRAINTS_it
                0x0000000040246ae0                v3_policy_constraints
                0x0000000040246bc0                POLICY_MAPPINGS_it
                0x0000000040246c00                POLICY_MAPPING_it
                0x0000000040246c40                v3_policy_mappings
                0x0000000040246dc0                X509_VAL_it
                0x0000000040247860                ECDSA_SIG_it
                0x0000000040247900                PKCS12_AUTHSAFES_it
                0x0000000040247940                PKCS12_SAFEBAGS_it
                0x0000000040247980                PKCS12_SAFEBAG_it
                0x00000000402479c0                PKCS12_BAGS_it
                0x0000000040247a00                PKCS12_MAC_DATA_it
                0x0000000040247a40                PKCS12_it
                0x0000000040248080                v3_alt
                0x00000000402481c0                BASIC_CONSTRAINTS_it
                0x0000000040248200                v3_bcons
                0x00000000402482e0                AUTHORITY_INFO_ACCESS_it
                0x0000000040248320                ACCESS_DESCRIPTION_it
                0x0000000040248360                v3_sinfo
                0x00000000402483e0                v3_info
                0x0000000040248500                v3_ocsp_serviceloc
                0x0000000040248580                v3_ocsp_nocheck
                0x0000000040248600                v3_ocsp_nonce
                0x0000000040248680                v3_crl_hold
                0x0000000040248700                v3_crl_invdate
                0x0000000040248780                v3_ocsp_acutoff
                0x0000000040248800                v3_ocsp_crlid
                0x0000000040248880                v3_pci
                0x0000000040248900                PROXY_CERT_INFO_EXTENSION_it
                0x0000000040248940                PROXY_POLICY_it
                0x0000000040248a40                PKEY_USAGE_PERIOD_it
                0x0000000040248a80                v3_pkey_usage_period
                0x0000000040248b60                v3_skey_id
                0x0000000040248be0                SXNET_it
                0x0000000040248c20                SXNETID_it
                0x0000000040248c60                v3_sxnet
                0x0000000040249240                CONF_version
                0x0000000040249280                OCSP_SERVICELOC_it
                0x00000000402492c0                OCSP_CRLID_it
                0x0000000040249300                OCSP_BASICRESP_it
                0x0000000040249340                OCSP_RESPDATA_it
                0x0000000040249380                OCSP_SINGLERESP_it
                0x00000000402493c0                OCSP_CERTSTATUS_it
                0x0000000040249400                OCSP_REVOKEDINFO_it
                0x0000000040249440                OCSP_RESPID_it
                0x0000000040249480                OCSP_RESPONSE_it
                0x00000000402494c0                OCSP_RESPBYTES_it
                0x0000000040249500                OCSP_REQUEST_it
                0x0000000040249540                OCSP_REQINFO_it
                0x0000000040249580                OCSP_ONEREQ_it
                0x00000000402495c0                OCSP_CERTID_it
                0x0000000040249600                OCSP_SIGNATURE_it
                0x0000000040249e00                v3_akey_id
                0x0000000040249e80                v3_key_usage
                0x0000000040249f00                v3_nscert
                0x0000000040249f80                v3_crl_reason
                0x000000004024a000                EXTENDED_KEY_USAGE_it
                0x000000004024a040                v3_ocsp_accresp
                0x000000004024a0c0                v3_ext_ku
                0x000000004024a180                v3_ns_ia5_list
                0x000000004024a4c0                v3_inhibit_anyp
                0x000000004024a540                v3_delta_crl
                0x000000004024a5c0                v3_crl_num
                0x000000004024a640                CONF_def_version

.rodata.str1.1  0x000000004024a66c    0x12c34 load address 0x000000000024a66c
 .rodata.str1.1
                0x000000004024a66c    0x12c34 output.o
                                      0x15050 (size before relaxing)

.rodata.str1.8  0x000000004025d2a0     0x9818 load address 0x000000000025d2a0
 .rodata.str1.8
                0x000000004025d2a0     0x9818 output.o
                                       0x9b3d (size before relaxing)

.eh_frame       0x0000000040266ab8    0x37430 load address 0x0000000000266ab8
 .eh_frame      0x0000000040266ab8    0x37430 output.o

.eh_frame_hdr   0x000000004029dee8        0x8 load address 0x000000000029dee8
 .eh_frame_hdr  0x000000004029dee8        0x8 output.o

.note.gnu.build-id
                0x000000004029def0      0x288 load address 0x000000000029def0
 .note.gnu.build-id
                0x000000004029def0      0x288 output.o

.rela.dyn       0x000000004029e178        0x0 load address 0x000000000029e178
 .rela.iplt     0x0000000000000000        0x0 output.o
 .rela.text     0x0000000000000000        0x0 output.o

.data           0x000000004029f000  0x95b8000 load address 0x000000000029f000
                0x000000004029f000                data = .
 *(.data)
 .data          0x000000004029f000   0x9eaa53 output.o
                0x000000004029f020                config
                0x00000000402af190                use_pae
                0x00000000402af3b0                savemsr_index
                0x00000000402b0000                vmm_pml4
                0x00000000402b1000                vmm_pdp
                0x00000000402b2000                vmm_pd
                0x00000000402b3000                vmm_pd1
                0x00000000402b4000                vmm_pd2
                0x00000000402b5000                guest_int0x15_hook
                0x00000000402b501d                guest_int0x15_e801_fake_ax
                0x00000000402b5020                guest_int0x15_e801_fake_bx
                0x00000000402b5031                guest_int0x15_orig
                0x00000000402b5046                guest_int0x15_e820_data_minus0x18
                0x00000000402b504e                guest_int0x15_e820_end
                0x00000000402b5074                guest_int0x15_hook_end
                0x00000000402b6078                wakeup_entry_start
                0x00000000402b6081                wakeup_entry_addr
                0x00000000402b60a7                wakeup_entry_cr4
                0x00000000402b60b0                wakeup_entry_cr3
                0x00000000402b60b9                wakeup_entry_cr0
                0x00000000402b60c8                wakeup_entry_gdtr
                0x00000000402b60d2                wakeup_entry_end
                0x00000000402b6160                ata_bm_handler_table
                0x00000000402b61a0                ata_ctlblk_handler_table
                0x00000000402b61c0                ata_cmdblk_handler_table
                0x00000000402b6c70                usb_log_level
                0x00000000402b7600                hSessionCnt
                0x00000000402b7608                hObjectCnt
                0x00000000402b7e00                g_rgSCardT1Pci
                0x00000000402b7e10                g_rgSCardT0Pci
                0x00000000402b7e20                FI
                0x00000000402b7e60                DI
                0x00000000402bc480                default_pctx
                0x00000000402bf720                rand_ssleay_meth
                0x0000000040c89a58                . = ALIGN (0x8)
 *fill*         0x0000000040c89a53        0x5 00
                0x0000000040c89a58                __initfunc_start = .
 *(.initfunc)
 .initfunc      0x0000000040c89a58      0x640 output.o
                0x0000000040c89a58                __initfunc_acpi_init_paral
                0x0000000040c89a68                __initfunc_acpi_init_global
                0x0000000040c89a78                __initfunc_beep_init_msg
                0x0000000040c89a88                __initfunc_cache_init_pass
                0x0000000040c89a98                __initfunc_cache_init_vcpu
                0x0000000040c89aa8                __initfunc_cache_init_pcpu
                0x0000000040c89ab8                __initfunc_callrealmode_panic
                0x0000000040c89ac8                __initfunc_callrealmode_init_global
                0x0000000040c89ad8                __initfunc_cpu_mmu_spt_init_pcpu
                0x0000000040c89ae8                __initfunc_cpu_mmu_spt_init_global
                0x0000000040c89af8                __initfunc_cpuid_init
                0x0000000040c89b08                __initfunc_cpuid_pass_init
                0x0000000040c89b18                __initfunc_exint_pass_init
                0x0000000040c89b28                __initfunc_gmm_pass_init
                0x0000000040c89b38                __initfunc_install_int0x15_hook
                0x0000000040c89b48                __initfunc_idman_init
                0x0000000040c89b58                __initfunc_idman_init_global
                0x0000000040c89b68                __initfunc_int_wakeup
                0x0000000040c89b78                __initfunc_int_init_global
                0x0000000040c89b88                __initfunc_io_io_init
                0x0000000040c89b98                __initfunc_setiohooks
                0x0000000040c89ba8                __initfunc_io_iopass_init
                0x0000000040c89bb8                __initfunc_keyboard_init_msg
                0x0000000040c89bc8                __initfunc_localapic_init
                0x0000000040c89bd8                __initfunc_get_shiftflags
                0x0000000040c89be8                __initfunc_copy_minios
                0x0000000040c89bf8                __initfunc_print_boot_msg
                0x0000000040c89c08                __initfunc_debug_on_shift_key
                0x0000000040c89c18                __initfunc_create_pass_vm
                0x0000000040c89c28                __initfunc_virtualization_init_pcpu
                0x0000000040c89c38                __initfunc_unmap_user_area
                0x0000000040c89c48                __initfunc_mm_init_global
                0x0000000040c89c58                __initfunc_mmio_debug
                0x0000000040c89c68                __initfunc_mmio_init
                0x0000000040c89c78                __initfunc_msg_init_global
                0x0000000040c89c88                __initfunc_msr_init
                0x0000000040c89c98                __initfunc_msr_pass_init
                0x0000000040c89ca8                __initfunc_nmi_pass_init_pcpu
                0x0000000040c89cb8                __initfunc_nmi_pass_init
                0x0000000040c89cc8                __initfunc_panic_init_pcpu
                0x0000000040c89cd8                __initfunc_panic_init_msg
                0x0000000040c89ce8                __initfunc_panic_init_global3
                0x0000000040c89cf8                __initfunc_panic_init_global
                0x0000000040c89d08                __initfunc_printf_init_global
                0x0000000040c89d18                __initfunc_process_wakeup
                0x0000000040c89d28                __initfunc_process_init_ap
                0x0000000040c89d38                __initfunc_process_init_global
                0x0000000040c89d48                __initfunc_random_init_config0
                0x0000000040c89d58                __initfunc_random_init_global
                0x0000000040c89d68                __initfunc_reboot_init_msg
                0x0000000040c89d78                __initfunc_segment_init_global
                0x0000000040c89d88                __initfunc_serial_init_msg
                0x0000000040c89d98                __initfunc_sleep_init_msg
                0x0000000040c89da8                __initfunc_sleep_init_global
                0x0000000040c89db8                __initfunc_svm_panic
                0x0000000040c89dc8                __initfunc_sx_init_pass_init
                0x0000000040c89dd8                __initfunc_thread_init_pcpu
                0x0000000040c89de8                __initfunc_thread_init_global
                0x0000000040c89df8                __initfunc_time_init_msg
                0x0000000040c89e08                __initfunc_time_init_pcpu
                0x0000000040c89e18                __initfunc_time_init_global_status
                0x0000000040c89e28                __initfunc_time_init_global
                0x0000000040c89e38                __initfunc_timer_init_global
                0x0000000040c89e48                __initfunc_tty_init_msg
                0x0000000040c89e58                __initfunc_tty_init_global2
                0x0000000040c89e68                __initfunc_tty_init_global
                0x0000000040c89e78                __initfunc_vcpu_init_global
                0x0000000040c89e88                __initfunc_vga_init
                0x0000000040c89e98                __initfunc_vmmcall_init
                0x0000000040c89ea8                __initfunc_vmmcall_boot_init
                0x0000000040c89eb8                __initfunc_vmmcall_dbgsh_init_pcpu
                0x0000000040c89ec8                __initfunc_vmmcall_dbgsh_init_global
                0x0000000040c89ed8                __initfunc_vmmcall_dbgsh_init
                0x0000000040c89ee8                __initfunc_vmmcall_iccard_init
                0x0000000040c89ef8                __initfunc_vmmcall_log_init
                0x0000000040c89f08                __initfunc_vmmcall_status_init
                0x0000000040c89f18                __initfunc_vmmcall_status_init_global
                0x0000000040c89f28                __initfunc_vramwrite_init_bsp
                0x0000000040c89f38                __initfunc_vramwrite_init_msg
                0x0000000040c89f48                __initfunc_vt_register_status_callback
                0x0000000040c89f58                __initfunc_vt_panic
                0x0000000040c89f68                __initfunc_xsetbv_init
                0x0000000040c89f78                __initfunc_xsetbv_pass_init
                0x0000000040c89f88                __initfunc_core_init
                0x0000000040c89f98                __initfunc_ieee1394_init_boot
                0x0000000040c89fa8                __initfunc_ieee1394_init
                0x0000000040c89fb8                __initfunc_iommu_setup
                0x0000000040c89fc8                __initfunc_pci_init
                0x0000000040c89fd8                __initfunc_debug_ata_init
                0x0000000040c89fe8                __initfunc_ata_init
                0x0000000040c89ff8                __initfunc_uhci_init
                0x0000000040c8a008                __initfunc_ehci_init
                0x0000000040c8a018                __initfunc_pro100_init
                0x0000000040c8a028                __initfunc_suspend_pro1000
                0x0000000040c8a038                __initfunc_resume_pro1000
                0x0000000040c8a048                __initfunc_vpn_pro1000_init
                0x0000000040c8a058                __initfunc_storage_kernel_init
                0x0000000040c8a068                __initfunc_storage_io_initfunc
                0x0000000040c8a078                __initfunc_vpn_kernel_init
                0x0000000040c8a088                __initfunc_idman_kernel_init
                0x0000000040c8a098                __initfunc_end = .
                0x0000000040c8a098                __process_builtin = .
 *(.processes)
 .processes     0x0000000040c8a098      0x1a0 output.o
                0x0000000040c8a238                __process_builtin_end = .
                0x0000000040c8a238                bss = .
 *(.bss)
 *fill*         0x0000000040c8a238        0x8 00
 .bss           0x0000000040c8a240  0x8bcb140 output.o
                0x0000000040c8daa0                vmmsize
                0x0000000040c8daa8                memorysize
                0x0000000040f12560                pcpu_default
                0x0000000040f2fdc4                ps2_locked
                0x0000000040f30280                numberOfVMs
                0x0000000040f30288                numberOfProtectedApplications
                0x0000000040f30290                currentRunningApplication
                0x00000000497302a0                handler_descriptor
                0x00000000497304a8                drhd_list_head
                0x0000000049731ce0                pci_driver_list_head
                0x0000000049731ce8                pci_device_list_head
                0x0000000049731e90                uhci_monitor_boost_hc
                0x0000000049731ea8                usb_hc_list_head
                0x0000000049731eb0                usb_busses_head
                0x00000000497397c8                rt
                0x00000000498531f0                hContext
                0x00000000498531f8                sessionTable
                0x0000000049853200                slotTable
                0x0000000049853208                slotFlag
                0x0000000049853209                libInitFlag
                0x0000000049853e60                OPENSSL_NONPIC_relocated
                0x0000000049853e68                OPENSSL_ia32cap_P
                0x0000000049854aa8                cleanse_ctr
                0x0000000049854b08                obj_cleanup_defer
                0x0000000049854b28                _shadow_DES_check_key
                0x0000000049854c28                app_pkey_methods
                0x0000000049854c80                chelp_inited
 *(COMMON)
 COMMON         0x0000000049855380      0xec4 output.o
                0x0000000049855380                clflush_size
                0x00000000498553a0                sReaderContext
                0x0000000049855400                sigx_app
                0x0000000049855408                num_dom
                0x0000000049855420                mszReaders
                0x0000000049855820                prohibit_iccard_init
                0x0000000049855828                curthread
                0x0000000049855830                sig_app
                0x0000000049855840                readerState
                0x00000000498558c0                dom_io
                0x00000000498560c0                acpi_dsdt_system_state
                0x00000000498560e0                ehci_host
                0x00000000498560e8                num_of_processors
                0x00000000498560ec                e801_fake_bx
                0x00000000498560ee                iommu_detected
                0x00000000498560f0                dwReaders
                0x0000000049856100                readerTracker
                0x0000000049856240                handler_descriptor_lock
                0x0000000049856242                e801_fake_ax
                0x0000000049857000                . = ALIGN (0x1000)
 *fill*         0x0000000049856244      0xdbc 00
                0x0000000049857000                end = .

.igot.plt       0x0000000049857000        0x0 load address 0x0000000009857000
 .igot.plt      0x0000000000000000        0x0 output.o

/DISCARD/
 *(.gomi)
LOAD output.o
OUTPUT(bitvisor.elf elf64-x86-64)

.comment        0x0000000000000000       0x2a
 .comment       0x0000000000000000       0x2a output.o
                                       0x5d8f (size before relaxing)

.note.GNU-stack
                0x0000000000000000        0x0
 .note.GNU-stack
                0x0000000000000000        0x0 output.o

.debug_aranges  0x0000000000000000     0x69c0
 .debug_aranges
                0x0000000000000000     0x69c0 output.o

.debug_info     0x0000000000000000   0x29c24a
 .debug_info    0x0000000000000000   0x29c24a output.o

.debug_abbrev   0x0000000000000000    0x440ce
 .debug_abbrev  0x0000000000000000    0x440ce output.o

.debug_line     0x0000000000000000    0x4cd92
 .debug_line    0x0000000000000000    0x4cd92 output.o

.debug_str      0x0000000000000000    0x36a06
 .debug_str     0x0000000000000000    0x36a06 output.o
                                     0x12417b (size before relaxing)

.debug_loc      0x0000000000000000   0x23f41b
 .debug_loc     0x0000000000000000   0x23f41b output.o

.debug_ranges   0x0000000000000000     0x7a80
 .debug_ranges  0x0000000000000000     0x7a80 output.o

Cross Reference Table

Symbol                                            File
ACCESS_DESCRIPTION_free                           output.o
ACCESS_DESCRIPTION_it                             output.o
ACCESS_DESCRIPTION_new                            output.o
AES_cbc_encrypt                                   output.o
AES_cfb128_encrypt                                output.o
AES_cfb1_encrypt                                  output.o
AES_cfb8_encrypt                                  output.o
AES_decrypt                                       output.o
AES_ecb_encrypt                                   output.o
AES_encrypt                                       output.o
AES_ofb128_encrypt                                output.o
AES_set_decrypt_key                               output.o
AES_set_encrypt_key                               output.o
AES_unwrap_key                                    output.o
AES_wrap_key                                      output.o
ASN1_ANY_it                                       output.o
ASN1_BIT_STRING_check                             output.o
ASN1_BIT_STRING_free                              output.o
ASN1_BIT_STRING_get_bit                           output.o
ASN1_BIT_STRING_it                                output.o
ASN1_BIT_STRING_new                               output.o
ASN1_BIT_STRING_set                               output.o
ASN1_BIT_STRING_set_bit                           output.o
ASN1_BMPSTRING_free                               output.o
ASN1_BMPSTRING_it                                 output.o
ASN1_BMPSTRING_new                                output.o
ASN1_BOOLEAN_it                                   output.o
ASN1_ENUMERATED_free                              output.o
ASN1_ENUMERATED_get                               output.o
ASN1_ENUMERATED_it                                output.o
ASN1_ENUMERATED_new                               output.o
ASN1_ENUMERATED_set                               output.o
ASN1_ENUMERATED_to_BN                             output.o
ASN1_FBOOLEAN_it                                  output.o
ASN1_GENERALIZEDTIME_adj                          output.o
ASN1_GENERALIZEDTIME_check                        output.o
ASN1_GENERALIZEDTIME_free                         output.o
ASN1_GENERALIZEDTIME_it                           output.o
ASN1_GENERALIZEDTIME_new                          output.o
ASN1_GENERALIZEDTIME_print                        output.o
ASN1_GENERALIZEDTIME_set                          output.o
ASN1_GENERALIZEDTIME_set_string                   output.o
ASN1_GENERALSTRING_free                           output.o
ASN1_GENERALSTRING_it                             output.o
ASN1_GENERALSTRING_new                            output.o
ASN1_IA5STRING_free                               output.o
ASN1_IA5STRING_it                                 output.o
ASN1_IA5STRING_new                                output.o
ASN1_INTEGER_cmp                                  output.o
ASN1_INTEGER_dup                                  output.o
ASN1_INTEGER_free                                 output.o
ASN1_INTEGER_get                                  output.o
ASN1_INTEGER_it                                   output.o
ASN1_INTEGER_new                                  output.o
ASN1_INTEGER_set                                  output.o
ASN1_INTEGER_to_BN                                output.o
ASN1_NULL_free                                    output.o
ASN1_NULL_it                                      output.o
ASN1_NULL_new                                     output.o
ASN1_OBJECT_create                                output.o
ASN1_OBJECT_free                                  output.o
ASN1_OBJECT_it                                    output.o
ASN1_OBJECT_new                                   output.o
ASN1_OCTET_STRING_NDEF_it                         output.o
ASN1_OCTET_STRING_cmp                             output.o
ASN1_OCTET_STRING_dup                             output.o
ASN1_OCTET_STRING_free                            output.o
ASN1_OCTET_STRING_it                              output.o
ASN1_OCTET_STRING_new                             output.o
ASN1_OCTET_STRING_set                             output.o
ASN1_PCTX_free                                    output.o
ASN1_PCTX_get_cert_flags                          output.o
ASN1_PCTX_get_flags                               output.o
ASN1_PCTX_get_nm_flags                            output.o
ASN1_PCTX_get_oid_flags                           output.o
ASN1_PCTX_get_str_flags                           output.o
ASN1_PCTX_new                                     output.o
ASN1_PCTX_set_cert_flags                          output.o
ASN1_PCTX_set_flags                               output.o
ASN1_PCTX_set_nm_flags                            output.o
ASN1_PCTX_set_oid_flags                           output.o
ASN1_PCTX_set_str_flags                           output.o
ASN1_PRINTABLESTRING_free                         output.o
ASN1_PRINTABLESTRING_it                           output.o
ASN1_PRINTABLESTRING_new                          output.o
ASN1_PRINTABLE_free                               output.o
ASN1_PRINTABLE_it                                 output.o
ASN1_PRINTABLE_new                                output.o
ASN1_PRINTABLE_type                               output.o
ASN1_SEQUENCE_ANY_it                              output.o
ASN1_SEQUENCE_it                                  output.o
ASN1_SET_ANY_it                                   output.o
ASN1_STRING_TABLE_add                             output.o
ASN1_STRING_TABLE_cleanup                         output.o
ASN1_STRING_TABLE_get                             output.o
ASN1_STRING_cmp                                   output.o
ASN1_STRING_copy                                  output.o
ASN1_STRING_data                                  output.o
ASN1_STRING_dup                                   output.o
ASN1_STRING_free                                  output.o
ASN1_STRING_get_default_mask                      output.o
ASN1_STRING_length                                output.o
ASN1_STRING_length_set                            output.o
ASN1_STRING_new                                   output.o
ASN1_STRING_print                                 output.o
ASN1_STRING_print_ex                              output.o
ASN1_STRING_set                                   output.o
ASN1_STRING_set0                                  output.o
ASN1_STRING_set_by_NID                            output.o
ASN1_STRING_set_default_mask                      output.o
ASN1_STRING_set_default_mask_asc                  output.o
ASN1_STRING_to_UTF8                               output.o
ASN1_STRING_type                                  output.o
ASN1_STRING_type_new                              output.o
ASN1_T61STRING_free                               output.o
ASN1_T61STRING_it                                 output.o
ASN1_T61STRING_new                                output.o
ASN1_TBOOLEAN_it                                  output.o
ASN1_TIME_adj                                     output.o
ASN1_TIME_check                                   output.o
ASN1_TIME_free                                    output.o
ASN1_TIME_it                                      output.o
ASN1_TIME_new                                     output.o
ASN1_TIME_print                                   output.o
ASN1_TIME_set                                     output.o
ASN1_TIME_set_string                              output.o
ASN1_TIME_to_generalizedtime                      output.o
ASN1_TYPE_cmp                                     output.o
ASN1_TYPE_free                                    output.o
ASN1_TYPE_get                                     output.o
ASN1_TYPE_get_int_octetstring                     output.o
ASN1_TYPE_get_octetstring                         output.o
ASN1_TYPE_new                                     output.o
ASN1_TYPE_set                                     output.o
ASN1_TYPE_set1                                    output.o
ASN1_TYPE_set_int_octetstring                     output.o
ASN1_TYPE_set_octetstring                         output.o
ASN1_UNIVERSALSTRING_free                         output.o
ASN1_UNIVERSALSTRING_it                           output.o
ASN1_UNIVERSALSTRING_new                          output.o
ASN1_UNIVERSALSTRING_to_string                    output.o
ASN1_UTCTIME_adj                                  output.o
ASN1_UTCTIME_check                                output.o
ASN1_UTCTIME_cmp_time_t                           output.o
ASN1_UTCTIME_free                                 output.o
ASN1_UTCTIME_it                                   output.o
ASN1_UTCTIME_new                                  output.o
ASN1_UTCTIME_print                                output.o
ASN1_UTCTIME_set                                  output.o
ASN1_UTCTIME_set_string                           output.o
ASN1_UTF8STRING_free                              output.o
ASN1_UTF8STRING_it                                output.o
ASN1_UTF8STRING_new                               output.o
ASN1_VISIBLESTRING_free                           output.o
ASN1_VISIBLESTRING_it                             output.o
ASN1_VISIBLESTRING_new                            output.o
ASN1_bn_print                                     output.o
ASN1_check_infinite_end                           output.o
ASN1_const_check_infinite_end                     output.o
ASN1_d2i_bio                                      output.o
ASN1_digest                                       output.o
ASN1_dup                                          output.o
ASN1_generate_nconf                               output.o
ASN1_generate_v3                                  output.o
ASN1_get_object                                   output.o
ASN1_i2d_bio                                      output.o
ASN1_item_d2i                                     output.o
ASN1_item_d2i_bio                                 output.o
ASN1_item_digest                                  output.o
ASN1_item_dup                                     output.o
ASN1_item_ex_d2i                                  output.o
ASN1_item_ex_free                                 output.o
ASN1_item_ex_i2d                                  output.o
ASN1_item_ex_new                                  output.o
ASN1_item_free                                    output.o
ASN1_item_i2d                                     output.o
ASN1_item_i2d_bio                                 output.o
ASN1_item_ndef_i2d                                output.o
ASN1_item_new                                     output.o
ASN1_item_pack                                    output.o
ASN1_item_print                                   output.o
ASN1_item_sign                                    output.o
ASN1_item_unpack                                  output.o
ASN1_item_verify                                  output.o
ASN1_mbstring_copy                                output.o
ASN1_mbstring_ncopy                               output.o
ASN1_object_size                                  output.o
ASN1_pack_string                                  output.o
ASN1_parse                                        output.o
ASN1_parse_dump                                   output.o
ASN1_primitive_free                               output.o
ASN1_primitive_new                                output.o
ASN1_put_eoc                                      output.o
ASN1_put_object                                   output.o
ASN1_seq_pack                                     output.o
ASN1_seq_unpack                                   output.o
ASN1_sign                                         output.o
ASN1_tag2bit                                      output.o
ASN1_tag2str                                      output.o
ASN1_template_d2i                                 output.o
ASN1_template_free                                output.o
ASN1_template_i2d                                 output.o
ASN1_template_new                                 output.o
ASN1_unpack_string                                output.o
ASN1_verify                                       output.o
ASN1_version                                      output.o
AUTHORITY_INFO_ACCESS_free                        output.o
AUTHORITY_INFO_ACCESS_it                          output.o
AUTHORITY_INFO_ACCESS_new                         output.o
AUTHORITY_KEYID_free                              output.o
AUTHORITY_KEYID_it                                output.o
AUTHORITY_KEYID_new                               output.o
AddCertDataByBuf                                  output.o
AddElem                                           output.o
AddIdPassDataByBuf                                output.o
AddObjTblByTlv                                    output.o
BASIC_CONSTRAINTS_free                            output.o
BASIC_CONSTRAINTS_it                              output.o
BASIC_CONSTRAINTS_new                             output.o
BF_cbc_encrypt                                    output.o
BF_cfb64_encrypt                                  output.o
BF_decrypt                                        output.o
BF_ecb_encrypt                                    output.o
BF_encrypt                                        output.o
BF_ofb64_encrypt                                  output.o
BF_options                                        output.o
BF_set_key                                        output.o
BF_version                                        output.o
BIGNUM_it                                         output.o
BIO_asn1_get_prefix                               output.o
BIO_asn1_get_suffix                               output.o
BIO_asn1_set_prefix                               output.o
BIO_asn1_set_suffix                               output.o
BIO_callback_ctrl                                 output.o
BIO_clear_flags                                   output.o
BIO_copy_next_retry                               output.o
BIO_ctrl                                          output.o
BIO_ctrl_pending                                  output.o
BIO_ctrl_wpending                                 output.o
BIO_dump                                          output.o
BIO_dump_cb                                       output.o
BIO_dump_indent                                   output.o
BIO_dump_indent_cb                                output.o
BIO_dup_chain                                     output.o
BIO_f_asn1                                        output.o
BIO_f_base64                                      output.o
BIO_f_buffer                                      output.o
BIO_f_cipher                                      output.o
BIO_f_md                                          output.o
BIO_find_type                                     output.o
BIO_free                                          output.o
BIO_free_all                                      output.o
BIO_get_callback                                  output.o
BIO_get_callback_arg                              output.o
BIO_get_ex_data                                   output.o
BIO_get_ex_new_index                              output.o
BIO_get_retry_BIO                                 output.o
BIO_get_retry_reason                              output.o
BIO_gets                                          output.o
BIO_indent                                        output.o
BIO_int_ctrl                                      output.o
BIO_method_name                                   output.o
BIO_method_type                                   output.o
BIO_new                                           output.o
BIO_new_CMS                                       output.o
BIO_new_NDEF                                      output.o
BIO_new_mem_buf                                   output.o
BIO_next                                          output.o
BIO_number_read                                   output.o
BIO_number_written                                output.o
BIO_pop                                           output.o
BIO_printf                                        output.o
BIO_ptr_ctrl                                      output.o
BIO_push                                          output.o
BIO_puts                                          output.o
BIO_read                                          output.o
BIO_s_mem                                         output.o
BIO_s_null                                        output.o
BIO_set                                           output.o
BIO_set_callback                                  output.o
BIO_set_callback_arg                              output.o
BIO_set_cipher                                    output.o
BIO_set_ex_data                                   output.o
BIO_set_flags                                     output.o
BIO_snprintf                                      output.o
BIO_test_flags                                    output.o
BIO_vfree                                         output.o
BIO_write                                         output.o
BN_BLINDING_convert                               output.o
BN_BLINDING_convert_ex                            output.o
BN_BLINDING_create_param                          output.o
BN_BLINDING_free                                  output.o
BN_BLINDING_get_flags                             output.o
BN_BLINDING_get_thread_id                         output.o
BN_BLINDING_invert                                output.o
BN_BLINDING_invert_ex                             output.o
BN_BLINDING_new                                   output.o
BN_BLINDING_set_flags                             output.o
BN_BLINDING_set_thread_id                         output.o
BN_BLINDING_thread_id                             output.o
BN_BLINDING_update                                output.o
BN_CTX_end                                        output.o
BN_CTX_free                                       output.o
BN_CTX_get                                        output.o
BN_CTX_init                                       output.o
BN_CTX_new                                        output.o
BN_CTX_start                                      output.o
BN_GENCB_call                                     output.o
BN_GF2m_add                                       output.o
BN_GF2m_arr2poly                                  output.o
BN_GF2m_mod                                       output.o
BN_GF2m_mod_arr                                   output.o
BN_GF2m_mod_div                                   output.o
BN_GF2m_mod_div_arr                               output.o
BN_GF2m_mod_exp                                   output.o
BN_GF2m_mod_exp_arr                               output.o
BN_GF2m_mod_inv                                   output.o
BN_GF2m_mod_inv_arr                               output.o
BN_GF2m_mod_mul                                   output.o
BN_GF2m_mod_mul_arr                               output.o
BN_GF2m_mod_solve_quad                            output.o
BN_GF2m_mod_solve_quad_arr                        output.o
BN_GF2m_mod_sqr                                   output.o
BN_GF2m_mod_sqr_arr                               output.o
BN_GF2m_mod_sqrt                                  output.o
BN_GF2m_mod_sqrt_arr                              output.o
BN_GF2m_poly2arr                                  output.o
BN_MONT_CTX_copy                                  output.o
BN_MONT_CTX_free                                  output.o
BN_MONT_CTX_init                                  output.o
BN_MONT_CTX_new                                   output.o
BN_MONT_CTX_set                                   output.o
BN_MONT_CTX_set_locked                            output.o
BN_RECP_CTX_free                                  output.o
BN_RECP_CTX_init                                  output.o
BN_RECP_CTX_new                                   output.o
BN_RECP_CTX_set                                   output.o
BN_add                                            output.o
BN_add_word                                       output.o
BN_asc2bn                                         output.o
BN_bin2bn                                         output.o
BN_bn2bin                                         output.o
BN_bn2dec                                         output.o
BN_bn2hex                                         output.o
BN_bntest_rand                                    output.o
BN_clear                                          output.o
BN_clear_bit                                      output.o
BN_clear_free                                     output.o
BN_cmp                                            output.o
BN_copy                                           output.o
BN_dec2bn                                         output.o
BN_div                                            output.o
BN_div_recp                                       output.o
BN_div_word                                       output.o
BN_dup                                            output.o
BN_exp                                            output.o
BN_free                                           output.o
BN_from_montgomery                                output.o
BN_gcd                                            output.o
BN_generate_prime_ex                              output.o
BN_get0_nist_prime_192                            output.o
BN_get0_nist_prime_224                            output.o
BN_get0_nist_prime_256                            output.o
BN_get0_nist_prime_384                            output.o
BN_get0_nist_prime_521                            output.o
BN_get_params                                     output.o
BN_get_word                                       output.o
BN_hex2bn                                         output.o
BN_init                                           output.o
BN_is_bit_set                                     output.o
BN_is_prime_ex                                    output.o
BN_is_prime_fasttest_ex                           output.o
BN_kronecker                                      output.o
BN_lshift                                         output.o
BN_lshift1                                        output.o
BN_mask_bits                                      output.o
BN_mod_add                                        output.o
BN_mod_add_quick                                  output.o
BN_mod_exp                                        output.o
BN_mod_exp2_mont                                  output.o
BN_mod_exp_mont                                   output.o
BN_mod_exp_mont_consttime                         output.o
BN_mod_exp_mont_word                              output.o
BN_mod_exp_recp                                   output.o
BN_mod_exp_simple                                 output.o
BN_mod_inverse                                    output.o
BN_mod_lshift                                     output.o
BN_mod_lshift1                                    output.o
BN_mod_lshift1_quick                              output.o
BN_mod_lshift_quick                               output.o
BN_mod_mul                                        output.o
BN_mod_mul_montgomery                             output.o
BN_mod_mul_reciprocal                             output.o
BN_mod_sqr                                        output.o
BN_mod_sqrt                                       output.o
BN_mod_sub                                        output.o
BN_mod_sub_quick                                  output.o
BN_mod_word                                       output.o
BN_mul                                            output.o
BN_mul_word                                       output.o
BN_new                                            output.o
BN_nist_mod_192                                   output.o
BN_nist_mod_224                                   output.o
BN_nist_mod_256                                   output.o
BN_nist_mod_384                                   output.o
BN_nist_mod_521                                   output.o
BN_nnmod                                          output.o
BN_num_bits                                       output.o
BN_num_bits_word                                  output.o
BN_options                                        output.o
BN_print                                          output.o
BN_pseudo_rand                                    output.o
BN_pseudo_rand_range                              output.o
BN_rand                                           output.o
BN_rand_range                                     output.o
BN_reciprocal                                     output.o
BN_rshift                                         output.o
BN_rshift1                                        output.o
BN_set_bit                                        output.o
BN_set_negative                                   output.o
BN_set_params                                     output.o
BN_set_word                                       output.o
BN_sqr                                            output.o
BN_sub                                            output.o
BN_sub_word                                       output.o
BN_swap                                           output.o
BN_to_ASN1_ENUMERATED                             output.o
BN_to_ASN1_INTEGER                                output.o
BN_uadd                                           output.o
BN_ucmp                                           output.o
BN_usub                                           output.o
BN_value_one                                      output.o
BN_version                                        output.o
BUF_MEM_free                                      output.o
BUF_MEM_grow                                      output.o
BUF_MEM_grow_clean                                output.o
BUF_MEM_new                                       output.o
BUF_memdup                                        output.o
BUF_reverse                                       output.o
BUF_strdup                                        output.o
BUF_strlcat                                       output.o
BUF_strlcpy                                       output.o
BUF_strndup                                       output.o
BlockSendCardT1                                   output.o
CAST_S_table0                                     output.o
CAST_S_table1                                     output.o
CAST_S_table2                                     output.o
CAST_S_table3                                     output.o
CAST_S_table4                                     output.o
CAST_S_table5                                     output.o
CAST_S_table6                                     output.o
CAST_S_table7                                     output.o
CAST_cbc_encrypt                                  output.o
CAST_cfb64_encrypt                                output.o
CAST_decrypt                                      output.o
CAST_ecb_encrypt                                  output.o
CAST_encrypt                                      output.o
CAST_ofb64_encrypt                                output.o
CAST_set_key                                      output.o
CAST_version                                      output.o
CBIGNUM_it                                        output.o
CERTIFICATEPOLICIES_free                          output.o
CERTIFICATEPOLICIES_it                            output.o
CERTIFICATEPOLICIES_new                           output.o
CMS_Attributes_Sign_it                            output.o
CMS_Attributes_Verify_it                          output.o
CMS_AuthenticatedData_it                          output.o
CMS_CertificateChoices_it                         output.o
CMS_CompressedData_it                             output.o
CMS_ContentInfo_free                              output.o
CMS_ContentInfo_it                                output.o
CMS_ContentInfo_new                               output.o
CMS_ContentInfo_print_ctx                         output.o
CMS_DigestedData_it                               output.o
CMS_EncapsulatedContentInfo_it                    output.o
CMS_EncryptedContentInfo_it                       output.o
CMS_EncryptedData_it                              output.o
CMS_EncryptedData_set1_key                        output.o
CMS_EnvelopedData_create                          output.o
CMS_EnvelopedData_it                              output.o
CMS_IssuerAndSerialNumber_it                      output.o
CMS_KEKIdentifier_it                              output.o
CMS_KEKRecipientInfo_it                           output.o
CMS_KeyAgreeRecipientIdentifier_it                output.o
CMS_KeyAgreeRecipientInfo_it                      output.o
CMS_KeyTransRecipientInfo_it                      output.o
CMS_OriginatorIdentifierOrKey_it                  output.o
CMS_OriginatorInfo_it                             output.o
CMS_OriginatorPublicKey_it                        output.o
CMS_OtherCertificateFormat_it                     output.o
CMS_OtherKeyAttribute_it                          output.o
CMS_OtherRecipientInfo_it                         output.o
CMS_OtherRevocationInfoFormat_it                  output.o
CMS_PasswordRecipientInfo_it                      output.o
CMS_ReceiptRequest_it                             output.o
CMS_Receipt_it                                    output.o
CMS_ReceiptsFrom_it                               output.o
CMS_RecipientEncryptedKey_it                      output.o
CMS_RecipientInfo_decrypt                         output.o
CMS_RecipientInfo_it                              output.o
CMS_RecipientInfo_kekri_get0_id                   output.o
CMS_RecipientInfo_kekri_id_cmp                    output.o
CMS_RecipientInfo_ktri_cert_cmp                   output.o
CMS_RecipientInfo_ktri_get0_algs                  output.o
CMS_RecipientInfo_ktri_get0_signer_id             output.o
CMS_RecipientInfo_set0_key                        output.o
CMS_RecipientInfo_set0_pkey                       output.o
CMS_RecipientInfo_type                            output.o
CMS_RecipientKeyIdentifier_it                     output.o
CMS_RevocationInfoChoice_it                       output.o
CMS_SignedData_init                               output.o
CMS_SignedData_it                                 output.o
CMS_SignerIdentifier_it                           output.o
CMS_SignerInfo_cert_cmp                           output.o
CMS_SignerInfo_get0_algs                          output.o
CMS_SignerInfo_get0_signer_id                     output.o
CMS_SignerInfo_it                                 output.o
CMS_SignerInfo_set1_signer_cert                   output.o
CMS_SignerInfo_sign                               output.o
CMS_SignerInfo_verify                             output.o
CMS_SignerInfo_verify_content                     output.o
CMS_add0_CertificateChoices                       output.o
CMS_add0_RevocationInfoChoice                     output.o
CMS_add0_cert                                     output.o
CMS_add0_crl                                      output.o
CMS_add0_recipient_key                            output.o
CMS_add1_cert                                     output.o
CMS_add1_crl                                      output.o
CMS_add1_recipient_cert                           output.o
CMS_add1_signer                                   output.o
CMS_add_simple_smimecap                           output.o
CMS_add_smimecap                                  output.o
CMS_add_standard_smimecap                         output.o
CMS_dataFinal                                     output.o
CMS_dataInit                                      output.o
CMS_get0_RecipientInfos                           output.o
CMS_get0_SignerInfos                              output.o
CMS_get0_content                                  output.o
CMS_get0_eContentType                             output.o
CMS_get0_signers                                  output.o
CMS_get0_type                                     output.o
CMS_get1_certs                                    output.o
CMS_get1_crls                                     output.o
CMS_is_detached                                   output.o
CMS_set1_eContentType                             output.o
CMS_set1_signers_certs                            output.o
CMS_set_detached                                  output.o
CMS_signed_add1_attr                              output.o
CMS_signed_add1_attr_by_NID                       output.o
CMS_signed_add1_attr_by_OBJ                       output.o
CMS_signed_add1_attr_by_txt                       output.o
CMS_signed_delete_attr                            output.o
CMS_signed_get0_data_by_OBJ                       output.o
CMS_signed_get_attr                               output.o
CMS_signed_get_attr_by_NID                        output.o
CMS_signed_get_attr_by_OBJ                        output.o
CMS_signed_get_attr_count                         output.o
CMS_stream                                        output.o
CMS_unsigned_add1_attr                            output.o
CMS_unsigned_add1_attr_by_NID                     output.o
CMS_unsigned_add1_attr_by_OBJ                     output.o
CMS_unsigned_add1_attr_by_txt                     output.o
CMS_unsigned_delete_attr                          output.o
CMS_unsigned_get0_data_by_OBJ                     output.o
CMS_unsigned_get_attr                             output.o
CMS_unsigned_get_attr_by_NID                      output.o
CMS_unsigned_get_attr_by_OBJ                      output.o
CMS_unsigned_get_attr_count                       output.o
CONF_def_version                                  output.o
CONF_dump_bio                                     output.o
CONF_free                                         output.o
CONF_get1_default_config_file                     output.o
CONF_get_number                                   output.o
CONF_get_section                                  output.o
CONF_get_string                                   output.o
CONF_imodule_get_flags                            output.o
CONF_imodule_get_module                           output.o
CONF_imodule_get_name                             output.o
CONF_imodule_get_usr_data                         output.o
CONF_imodule_get_value                            output.o
CONF_imodule_set_flags                            output.o
CONF_imodule_set_usr_data                         output.o
CONF_load                                         output.o
CONF_load_bio                                     output.o
CONF_module_add                                   output.o
CONF_module_get_usr_data                          output.o
CONF_module_set_usr_data                          output.o
CONF_modules_finish                               output.o
CONF_modules_free                                 output.o
CONF_modules_load                                 output.o
CONF_modules_load_file                            output.o
CONF_modules_unload                               output.o
CONF_parse_list                                   output.o
CONF_set_default_method                           output.o
CONF_set_nconf                                    output.o
CONF_version                                      output.o
CRL_DIST_POINTS_free                              output.o
CRL_DIST_POINTS_it                                output.o
CRL_DIST_POINTS_new                               output.o
CRYPTO_THREADID_cmp                               output.o
CRYPTO_THREADID_cpy                               output.o
CRYPTO_THREADID_current                           output.o
CRYPTO_THREADID_get_callback                      output.o
CRYPTO_THREADID_hash                              output.o
CRYPTO_THREADID_set_callback                      output.o
CRYPTO_THREADID_set_numeric                       output.o
CRYPTO_THREADID_set_pointer                       output.o
CRYPTO_add_lock                                   output.o
CRYPTO_cbc128_decrypt                             output.o
CRYPTO_cbc128_encrypt                             output.o
CRYPTO_cfb128_1_encrypt                           output.o
CRYPTO_cfb128_8_encrypt                           output.o
CRYPTO_cfb128_encrypt                             output.o
CRYPTO_cleanup_all_ex_data                        output.o
CRYPTO_dbg_free                                   output.o
CRYPTO_dbg_get_options                            output.o
CRYPTO_dbg_malloc                                 output.o
CRYPTO_dbg_realloc                                output.o
CRYPTO_dbg_set_options                            output.o
CRYPTO_destroy_dynlockid                          output.o
CRYPTO_dup_ex_data                                output.o
CRYPTO_ex_data_new_class                          output.o
CRYPTO_free                                       output.o
CRYPTO_free_ex_data                               output.o
CRYPTO_free_locked                                output.o
CRYPTO_get_add_lock_callback                      output.o
CRYPTO_get_dynlock_create_callback                output.o
CRYPTO_get_dynlock_destroy_callback               output.o
CRYPTO_get_dynlock_lock_callback                  output.o
CRYPTO_get_dynlock_value                          output.o
CRYPTO_get_ex_data                                output.o
CRYPTO_get_ex_data_implementation                 output.o
CRYPTO_get_ex_new_index                           output.o
CRYPTO_get_id_callback                            output.o
CRYPTO_get_lock_name                              output.o
CRYPTO_get_locked_mem_ex_functions                output.o
CRYPTO_get_locked_mem_functions                   output.o
CRYPTO_get_locking_callback                       output.o
CRYPTO_get_mem_debug_functions                    output.o
CRYPTO_get_mem_debug_options                      output.o
CRYPTO_get_mem_ex_functions                       output.o
CRYPTO_get_mem_functions                          output.o
CRYPTO_get_new_dynlockid                          output.o
CRYPTO_get_new_lockid                             output.o
CRYPTO_is_mem_check_on                            output.o
CRYPTO_lock                                       output.o
CRYPTO_malloc                                     output.o
CRYPTO_malloc_locked                              output.o
CRYPTO_mem_ctrl                                   output.o
CRYPTO_mem_leaks                                  output.o
CRYPTO_mem_leaks_cb                               output.o
CRYPTO_new_ex_data                                output.o
CRYPTO_num_locks                                  output.o
CRYPTO_ofb128_encrypt                             output.o
CRYPTO_pop_info                                   output.o
CRYPTO_push_info_                                 output.o
CRYPTO_realloc                                    output.o
CRYPTO_realloc_clean                              output.o
CRYPTO_remalloc                                   output.o
CRYPTO_remove_all_info                            output.o
CRYPTO_set_add_lock_callback                      output.o
CRYPTO_set_dynlock_create_callback                output.o
CRYPTO_set_dynlock_destroy_callback               output.o
CRYPTO_set_dynlock_lock_callback                  output.o
CRYPTO_set_ex_data                                output.o
CRYPTO_set_ex_data_implementation                 output.o
CRYPTO_set_id_callback                            output.o
CRYPTO_set_locked_mem_ex_functions                output.o
CRYPTO_set_locked_mem_functions                   output.o
CRYPTO_set_locking_callback                       output.o
CRYPTO_set_mem_debug_functions                    output.o
CRYPTO_set_mem_debug_options                      output.o
CRYPTO_set_mem_ex_functions                       output.o
CRYPTO_set_mem_functions                          output.o
CRYPTO_strdup                                     output.o
CRYPTO_thread_id                                  output.o
C_CloseAllSessions                                output.o
C_CloseSession                                    output.o
C_CreateObject                                    output.o
C_DestroyObject                                   output.o
C_DigestFinal                                     output.o
C_DigestInit                                      output.o
C_DigestUpdate                                    output.o
C_Finalize                                        output.o
C_FindObjects                                     output.o
C_FindObjectsFinal                                output.o
C_FindObjectsInit                                 output.o
C_GetAttributeValue                               output.o
C_GetCardStatus                                   output.o
C_GetFunctionList                                 output.o
C_GetInfo                                         output.o
C_GetMechanismInfo                                output.o
C_GetMechanismList                                output.o
C_GetSessionInfo                                  output.o
C_GetSlotInfo                                     output.o
C_GetSlotList                                     output.o
C_GetTokenInfo                                    output.o
C_Initialize                                      output.o
C_Login                                           output.o
C_Logout                                          output.o
C_OpenSession                                     output.o
C_SetAttributeValue                               output.o
C_Sign                                            output.o
C_SignInit                                        output.o
C_Verify                                          output.o
C_VerifyInit                                      output.o
CardConnect                                       output.o
CardDisconnect                                    output.o
CardEstablishContext                              output.o
CardListReaders                                   output.o
CardMechanical                                    output.o
CardReleaseContext                                output.o
CardStateConfirm                                  output.o
CardStatus                                        output.o
CardTransmit                                      output.o
CloseUSB                                          output.o
DES_SPtrans                                       output.o
DES_cfb64_encrypt                                 output.o
DES_cfb_encrypt                                   output.o
DES_check_key_parity                              output.o
DES_decrypt3                                      output.o
DES_ecb3_encrypt                                  output.o
DES_ecb_encrypt                                   output.o
DES_ede3_cbc_encrypt                              output.o
DES_ede3_cfb64_encrypt                            output.o
DES_ede3_cfb_encrypt                              output.o
DES_ede3_ofb64_encrypt                            output.o
DES_encrypt1                                      output.o
DES_encrypt2                                      output.o
DES_encrypt3                                      output.o
DES_is_weak_key                                   output.o
DES_key_sched                                     output.o
DES_ncbc_encrypt                                  output.o
DES_ofb64_encrypt                                 output.o
DES_options                                       output.o
DES_random_key                                    output.o
DES_set_key                                       output.o
DES_set_key_checked                               output.o
DES_set_key_unchecked                             output.o
DES_set_odd_parity                                output.o
DES_xcbc_encrypt                                  output.o
DH_OpenSSL                                        output.o
DH_check                                          output.o
DH_check_pub_key                                  output.o
DH_compute_key                                    output.o
DH_free                                           output.o
DH_generate_key                                   output.o
DH_generate_parameters_ex                         output.o
DH_get_default_method                             output.o
DH_get_ex_data                                    output.o
DH_get_ex_new_index                               output.o
DH_new                                            output.o
DH_new_method                                     output.o
DH_set_default_method                             output.o
DH_set_ex_data                                    output.o
DH_set_method                                     output.o
DH_size                                           output.o
DH_up_ref                                         output.o
DH_version                                        output.o
DHparams_dup                                      output.o
DHparams_it                                       output.o
DHparams_print                                    output.o
DI                                                output.o
DIRECTORYSTRING_free                              output.o
DIRECTORYSTRING_it                                output.o
DIRECTORYSTRING_new                               output.o
DISPLAYTEXT_free                                  output.o
DISPLAYTEXT_it                                    output.o
DISPLAYTEXT_new                                   output.o
DIST_POINT_NAME_free                              output.o
DIST_POINT_NAME_it                                output.o
DIST_POINT_NAME_new                               output.o
DIST_POINT_free                                   output.o
DIST_POINT_it                                     output.o
DIST_POINT_new                                    output.o
DIST_POINT_set_dpname                             output.o
DSAPrivateKey_it                                  output.o
DSAPublicKey_it                                   output.o
DSA_OpenSSL                                       output.o
DSA_SIG_free                                      output.o
DSA_SIG_it                                        output.o
DSA_SIG_new                                       output.o
DSA_do_sign                                       output.o
DSA_do_verify                                     output.o
DSA_dup_DH                                        output.o
DSA_free                                          output.o
DSA_generate_key                                  output.o
DSA_generate_parameters_ex                        output.o
DSA_get_default_method                            output.o
DSA_get_ex_data                                   output.o
DSA_get_ex_new_index                              output.o
DSA_new                                           output.o
DSA_new_method                                    output.o
DSA_set_default_method                            output.o
DSA_set_ex_data                                   output.o
DSA_set_method                                    output.o
DSA_sign                                          output.o
DSA_sign_setup                                    output.o
DSA_size                                          output.o
DSA_up_ref                                        output.o
DSA_verify                                        output.o
DSA_version                                       output.o
DSAparams_dup                                     output.o
DSAparams_it                                      output.o
DSO_METHOD_null                                   output.o
DSO_METHOD_openssl                                output.o
DSO_bind_func                                     output.o
DSO_bind_var                                      output.o
DSO_convert_filename                              output.o
DSO_ctrl                                          output.o
DSO_flags                                         output.o
DSO_free                                          output.o
DSO_get_default_method                            output.o
DSO_get_filename                                  output.o
DSO_get_loaded_filename                           output.o
DSO_get_method                                    output.o
DSO_global_lookup                                 output.o
DSO_load                                          output.o
DSO_merge                                         output.o
DSO_new                                           output.o
DSO_new_method                                    output.o
DSO_pathbyaddr                                    output.o
DSO_set_default_method                            output.o
DSO_set_filename                                  output.o
DSO_set_method                                    output.o
DSO_set_name_converter                            output.o
DSO_up_ref                                        output.o
DelElem                                           output.o
DestroyAttribute                                  output.o
DestroyElem                                       output.o
DestroyList                                       output.o
DestroySessionData                                output.o
DestroySlotData                                   output.o
DestroyTlvData                                    output.o
DestroyTokenData                                  output.o
ECDH_OpenSSL                                      output.o
ECDH_compute_key                                  output.o
ECDH_get_default_method                           output.o
ECDH_get_ex_data                                  output.o
ECDH_get_ex_new_index                             output.o
ECDH_set_default_method                           output.o
ECDH_set_ex_data                                  output.o
ECDH_set_method                                   output.o
ECDH_version                                      output.o
ECDSA_OpenSSL                                     output.o
ECDSA_SIG_free                                    output.o
ECDSA_SIG_it                                      output.o
ECDSA_SIG_new                                     output.o
ECDSA_do_sign                                     output.o
ECDSA_do_sign_ex                                  output.o
ECDSA_do_verify                                   output.o
ECDSA_get_default_method                          output.o
ECDSA_get_ex_data                                 output.o
ECDSA_get_ex_new_index                            output.o
ECDSA_set_default_method                          output.o
ECDSA_set_ex_data                                 output.o
ECDSA_set_method                                  output.o
ECDSA_sign                                        output.o
ECDSA_sign_ex                                     output.o
ECDSA_sign_setup                                  output.o
ECDSA_size                                        output.o
ECDSA_verify                                      output.o
ECDSA_version                                     output.o
ECPARAMETERS_free                                 output.o
ECPARAMETERS_it                                   output.o
ECPARAMETERS_new                                  output.o
ECPKPARAMETERS_free                               output.o
ECPKPARAMETERS_it                                 output.o
ECPKPARAMETERS_new                                output.o
ECPKParameters_print                              output.o
ECParameters_print                                output.o
EC_EX_DATA_clear_free_all_data                    output.o
EC_EX_DATA_clear_free_data                        output.o
EC_EX_DATA_free_all_data                          output.o
EC_EX_DATA_free_data                              output.o
EC_EX_DATA_get_data                               output.o
EC_EX_DATA_set_data                               output.o
EC_GF2m_simple_method                             output.o
EC_GFp_mont_method                                output.o
EC_GFp_nist_method                                output.o
EC_GFp_simple_method                              output.o
EC_GROUP_check_discriminant                       output.o
EC_GROUP_clear_free                               output.o
EC_GROUP_cmp                                      output.o
EC_GROUP_copy                                     output.o
EC_GROUP_dup                                      output.o
EC_GROUP_free                                     output.o
EC_GROUP_get0_generator                           output.o
EC_GROUP_get0_seed                                output.o
EC_GROUP_get_asn1_flag                            output.o
EC_GROUP_get_basis_type                           output.o
EC_GROUP_get_cofactor                             output.o
EC_GROUP_get_curve_GF2m                           output.o
EC_GROUP_get_curve_GFp                            output.o
EC_GROUP_get_curve_name                           output.o
EC_GROUP_get_degree                               output.o
EC_GROUP_get_order                                output.o
EC_GROUP_get_pentanomial_basis                    output.o
EC_GROUP_get_point_conversion_form                output.o
EC_GROUP_get_seed_len                             output.o
EC_GROUP_get_trinomial_basis                      output.o
EC_GROUP_have_precompute_mult                     output.o
EC_GROUP_method_of                                output.o
EC_GROUP_new                                      output.o
EC_GROUP_new_by_curve_name                        output.o
EC_GROUP_new_curve_GF2m                           output.o
EC_GROUP_new_curve_GFp                            output.o
EC_GROUP_precompute_mult                          output.o
EC_GROUP_set_asn1_flag                            output.o
EC_GROUP_set_curve_GF2m                           output.o
EC_GROUP_set_curve_GFp                            output.o
EC_GROUP_set_curve_name                           output.o
EC_GROUP_set_generator                            output.o
EC_GROUP_set_point_conversion_form                output.o
EC_GROUP_set_seed                                 output.o
EC_KEY_check_key                                  output.o
EC_KEY_copy                                       output.o
EC_KEY_dup                                        output.o
EC_KEY_free                                       output.o
EC_KEY_generate_key                               output.o
EC_KEY_get0_group                                 output.o
EC_KEY_get0_private_key                           output.o
EC_KEY_get0_public_key                            output.o
EC_KEY_get_conv_form                              output.o
EC_KEY_get_enc_flags                              output.o
EC_KEY_get_key_method_data                        output.o
EC_KEY_insert_key_method_data                     output.o
EC_KEY_new                                        output.o
EC_KEY_new_by_curve_name                          output.o
EC_KEY_precompute_mult                            output.o
EC_KEY_print                                      output.o
EC_KEY_set_asn1_flag                              output.o
EC_KEY_set_conv_form                              output.o
EC_KEY_set_enc_flags                              output.o
EC_KEY_set_group                                  output.o
EC_KEY_set_private_key                            output.o
EC_KEY_set_public_key                             output.o
EC_KEY_up_ref                                     output.o
EC_METHOD_get_field_type                          output.o
EC_POINT_add                                      output.o
EC_POINT_bn2point                                 output.o
EC_POINT_clear_free                               output.o
EC_POINT_cmp                                      output.o
EC_POINT_copy                                     output.o
EC_POINT_dbl                                      output.o
EC_POINT_dup                                      output.o
EC_POINT_free                                     output.o
EC_POINT_get_Jprojective_coordinates_GFp          output.o
EC_POINT_get_affine_coordinates_GF2m              output.o
EC_POINT_get_affine_coordinates_GFp               output.o
EC_POINT_hex2point                                output.o
EC_POINT_invert                                   output.o
EC_POINT_is_at_infinity                           output.o
EC_POINT_is_on_curve                              output.o
EC_POINT_make_affine                              output.o
EC_POINT_method_of                                output.o
EC_POINT_mul                                      output.o
EC_POINT_new                                      output.o
EC_POINT_oct2point                                output.o
EC_POINT_point2bn                                 output.o
EC_POINT_point2hex                                output.o
EC_POINT_point2oct                                output.o
EC_POINT_set_Jprojective_coordinates_GFp          output.o
EC_POINT_set_affine_coordinates_GF2m              output.o
EC_POINT_set_affine_coordinates_GFp               output.o
EC_POINT_set_compressed_coordinates_GF2m          output.o
EC_POINT_set_compressed_coordinates_GFp           output.o
EC_POINT_set_to_infinity                          output.o
EC_POINTs_make_affine                             output.o
EC_POINTs_mul                                     output.o
EC_PRIVATEKEY_free                                output.o
EC_PRIVATEKEY_it                                  output.o
EC_PRIVATEKEY_new                                 output.o
EC_get_builtin_curves                             output.o
EDIPARTYNAME_free                                 output.o
EDIPARTYNAME_it                                   output.o
EDIPARTYNAME_new                                  output.o
EHDestroyEventHandler                             output.o
EHInitEventHandler                                output.o
EHStatusHandler                                   output.o
ERR_add_error_data                                output.o
ERR_clear_error                                   output.o
ERR_error_string                                  output.o
ERR_error_string_n                                output.o
ERR_free_strings                                  output.o
ERR_func_error_string                             output.o
ERR_get_err_state_table                           output.o
ERR_get_error                                     output.o
ERR_get_error_line                                output.o
ERR_get_error_line_data                           output.o
ERR_get_implementation                            output.o
ERR_get_next_error_library                        output.o
ERR_get_state                                     output.o
ERR_get_string_table                              output.o
ERR_lib_error_string                              output.o
ERR_load_ASN1_strings                             output.o
ERR_load_BIO_strings                              output.o
ERR_load_BN_strings                               output.o
ERR_load_BUF_strings                              output.o
ERR_load_CMS_strings                              output.o
ERR_load_COMP_strings                             output.o
ERR_load_CONF_strings                             output.o
ERR_load_CRYPTO_strings                           output.o
ERR_load_DH_strings                               output.o
ERR_load_DSA_strings                              output.o
ERR_load_DSO_strings                              output.o
ERR_load_ECDH_strings                             output.o
ERR_load_ECDSA_strings                            output.o
ERR_load_EC_strings                               output.o
ERR_load_ERR_strings                              output.o
ERR_load_EVP_strings                              output.o
ERR_load_OBJ_strings                              output.o
ERR_load_OCSP_strings                             output.o
ERR_load_PEM_strings                              output.o
ERR_load_PKCS12_strings                           output.o
ERR_load_PKCS7_strings                            output.o
ERR_load_RAND_strings                             output.o
ERR_load_RSA_strings                              output.o
ERR_load_TS_strings                               output.o
ERR_load_UI_strings                               output.o
ERR_load_X509V3_strings                           output.o
ERR_load_X509_strings                             output.o
ERR_load_crypto_strings                           output.o
ERR_load_strings                                  output.o
ERR_peek_error                                    output.o
ERR_peek_error_line                               output.o
ERR_peek_error_line_data                          output.o
ERR_peek_last_error                               output.o
ERR_peek_last_error_line                          output.o
ERR_peek_last_error_line_data                     output.o
ERR_pop_to_mark                                   output.o
ERR_print_errors                                  output.o
ERR_print_errors_cb                               output.o
ERR_put_error                                     output.o
ERR_reason_error_string                           output.o
ERR_release_err_state_table                       output.o
ERR_remove_state                                  output.o
ERR_remove_thread_state                           output.o
ERR_set_error_data                                output.o
ERR_set_implementation                            output.o
ERR_set_mark                                      output.o
ERR_unload_strings                                output.o
EVP_BytesToKey                                    output.o
EVP_CIPHER_CTX_block_size                         output.o
EVP_CIPHER_CTX_cipher                             output.o
EVP_CIPHER_CTX_cleanup                            output.o
EVP_CIPHER_CTX_clear_flags                        output.o
EVP_CIPHER_CTX_copy                               output.o
EVP_CIPHER_CTX_ctrl                               output.o
EVP_CIPHER_CTX_flags                              output.o
EVP_CIPHER_CTX_free                               output.o
EVP_CIPHER_CTX_get_app_data                       output.o
EVP_CIPHER_CTX_init                               output.o
EVP_CIPHER_CTX_iv_length                          output.o
EVP_CIPHER_CTX_key_length                         output.o
EVP_CIPHER_CTX_new                                output.o
EVP_CIPHER_CTX_nid                                output.o
EVP_CIPHER_CTX_rand_key                           output.o
EVP_CIPHER_CTX_set_app_data                       output.o
EVP_CIPHER_CTX_set_flags                          output.o
EVP_CIPHER_CTX_set_key_length                     output.o
EVP_CIPHER_CTX_set_padding                        output.o
EVP_CIPHER_CTX_test_flags                         output.o
EVP_CIPHER_asn1_to_param                          output.o
EVP_CIPHER_block_size                             output.o
EVP_CIPHER_do_all                                 output.o
EVP_CIPHER_do_all_sorted                          output.o
EVP_CIPHER_flags                                  output.o
EVP_CIPHER_get_asn1_iv                            output.o
EVP_CIPHER_iv_length                              output.o
EVP_CIPHER_key_length                             output.o
EVP_CIPHER_nid                                    output.o
EVP_CIPHER_param_to_asn1                          output.o
EVP_CIPHER_set_asn1_iv                            output.o
EVP_CIPHER_type                                   output.o
EVP_Cipher                                        output.o
EVP_CipherFinal                                   output.o
EVP_CipherFinal_ex                                output.o
EVP_CipherInit                                    output.o
EVP_CipherInit_ex                                 output.o
EVP_CipherUpdate                                  output.o
EVP_DecodeBlock                                   output.o
EVP_DecodeFinal                                   output.o
EVP_DecodeInit                                    output.o
EVP_DecodeUpdate                                  output.o
EVP_DecryptFinal                                  output.o
EVP_DecryptFinal_ex                               output.o
EVP_DecryptInit                                   output.o
EVP_DecryptInit_ex                                output.o
EVP_DecryptUpdate                                 output.o
EVP_Digest                                        output.o
EVP_DigestFinal                                   output.o
EVP_DigestFinal_ex                                output.o
EVP_DigestInit                                    output.o
EVP_DigestInit_ex                                 output.o
EVP_DigestSignFinal                               output.o
EVP_DigestSignInit                                output.o
EVP_DigestUpdate                                  output.o
EVP_DigestVerifyFinal                             output.o
EVP_DigestVerifyInit                              output.o
EVP_EncodeBlock                                   output.o
EVP_EncodeFinal                                   output.o
EVP_EncodeInit                                    output.o
EVP_EncodeUpdate                                  output.o
EVP_EncryptFinal                                  output.o
EVP_EncryptFinal_ex                               output.o
EVP_EncryptInit                                   output.o
EVP_EncryptInit_ex                                output.o
EVP_EncryptUpdate                                 output.o
EVP_MD_CTX_cleanup                                output.o
EVP_MD_CTX_clear_flags                            output.o
EVP_MD_CTX_copy                                   output.o
EVP_MD_CTX_copy_ex                                output.o
EVP_MD_CTX_create                                 output.o
EVP_MD_CTX_destroy                                output.o
EVP_MD_CTX_init                                   output.o
EVP_MD_CTX_md                                     output.o
EVP_MD_CTX_set_flags                              output.o
EVP_MD_CTX_test_flags                             output.o
EVP_MD_block_size                                 output.o
EVP_MD_do_all                                     output.o
EVP_MD_do_all_sorted                              output.o
EVP_MD_flags                                      output.o
EVP_MD_pkey_type                                  output.o
EVP_MD_size                                       output.o
EVP_MD_type                                       output.o
EVP_PBE_CipherInit                                output.o
EVP_PBE_alg_add                                   output.o
EVP_PBE_alg_add_type                              output.o
EVP_PBE_cleanup                                   output.o
EVP_PBE_find                                      output.o
EVP_PKCS82PKEY                                    output.o
EVP_PKEY2PKCS8                                    output.o
EVP_PKEY2PKCS8_broken                             output.o
EVP_PKEY_CTX_ctrl                                 output.o
EVP_PKEY_CTX_ctrl_str                             output.o
EVP_PKEY_CTX_dup                                  output.o
EVP_PKEY_CTX_free                                 output.o
EVP_PKEY_CTX_get0_peerkey                         output.o
EVP_PKEY_CTX_get0_pkey                            output.o
EVP_PKEY_CTX_get_app_data                         output.o
EVP_PKEY_CTX_get_cb                               output.o
EVP_PKEY_CTX_get_data                             output.o
EVP_PKEY_CTX_get_keygen_info                      output.o
EVP_PKEY_CTX_get_operation                        output.o
EVP_PKEY_CTX_new                                  output.o
EVP_PKEY_CTX_new_id                               output.o
EVP_PKEY_CTX_set0_keygen_info                     output.o
EVP_PKEY_CTX_set_app_data                         output.o
EVP_PKEY_CTX_set_cb                               output.o
EVP_PKEY_CTX_set_data                             output.o
EVP_PKEY_add1_attr                                output.o
EVP_PKEY_add1_attr_by_NID                         output.o
EVP_PKEY_add1_attr_by_OBJ                         output.o
EVP_PKEY_add1_attr_by_txt                         output.o
EVP_PKEY_asn1_add0                                output.o
EVP_PKEY_asn1_add_alias                           output.o
EVP_PKEY_asn1_copy                                output.o
EVP_PKEY_asn1_find                                output.o
EVP_PKEY_asn1_find_str                            output.o
EVP_PKEY_asn1_free                                output.o
EVP_PKEY_asn1_get0                                output.o
EVP_PKEY_asn1_get0_info                           output.o
EVP_PKEY_asn1_get_count                           output.o
EVP_PKEY_asn1_new                                 output.o
EVP_PKEY_asn1_set_ctrl                            output.o
EVP_PKEY_asn1_set_free                            output.o
EVP_PKEY_asn1_set_param                           output.o
EVP_PKEY_asn1_set_private                         output.o
EVP_PKEY_asn1_set_public                          output.o
EVP_PKEY_assign                                   output.o
EVP_PKEY_base_id                                  output.o
EVP_PKEY_bits                                     output.o
EVP_PKEY_cmp                                      output.o
EVP_PKEY_cmp_parameters                           output.o
EVP_PKEY_copy_parameters                          output.o
EVP_PKEY_decrypt                                  output.o
EVP_PKEY_decrypt_init                             output.o
EVP_PKEY_delete_attr                              output.o
EVP_PKEY_derive                                   output.o
EVP_PKEY_derive_init                              output.o
EVP_PKEY_derive_set_peer                          output.o
EVP_PKEY_encrypt                                  output.o
EVP_PKEY_encrypt_init                             output.o
EVP_PKEY_free                                     output.o
EVP_PKEY_get0                                     output.o
EVP_PKEY_get0_asn1                                output.o
EVP_PKEY_get1_DH                                  output.o
EVP_PKEY_get1_DSA                                 output.o
EVP_PKEY_get1_EC_KEY                              output.o
EVP_PKEY_get1_RSA                                 output.o
EVP_PKEY_get_attr                                 output.o
EVP_PKEY_get_attr_by_NID                          output.o
EVP_PKEY_get_attr_by_OBJ                          output.o
EVP_PKEY_get_attr_count                           output.o
EVP_PKEY_get_default_digest_nid                   output.o
EVP_PKEY_id                                       output.o
EVP_PKEY_keygen                                   output.o
EVP_PKEY_keygen_init                              output.o
EVP_PKEY_meth_add0                                output.o
EVP_PKEY_meth_find                                output.o
EVP_PKEY_meth_free                                output.o
EVP_PKEY_meth_new                                 output.o
EVP_PKEY_meth_set_cleanup                         output.o
EVP_PKEY_meth_set_copy                            output.o
EVP_PKEY_meth_set_ctrl                            output.o
EVP_PKEY_meth_set_decrypt                         output.o
EVP_PKEY_meth_set_derive                          output.o
EVP_PKEY_meth_set_encrypt                         output.o
EVP_PKEY_meth_set_init                            output.o
EVP_PKEY_meth_set_keygen                          output.o
EVP_PKEY_meth_set_paramgen                        output.o
EVP_PKEY_meth_set_sign                            output.o
EVP_PKEY_meth_set_signctx                         output.o
EVP_PKEY_meth_set_verify                          output.o
EVP_PKEY_meth_set_verify_recover                  output.o
EVP_PKEY_meth_set_verifyctx                       output.o
EVP_PKEY_missing_parameters                       output.o
EVP_PKEY_new                                      output.o
EVP_PKEY_new_mac_key                              output.o
EVP_PKEY_paramgen                                 output.o
EVP_PKEY_paramgen_init                            output.o
EVP_PKEY_print_params                             output.o
EVP_PKEY_print_private                            output.o
EVP_PKEY_print_public                             output.o
EVP_PKEY_save_parameters                          output.o
EVP_PKEY_set1_DH                                  output.o
EVP_PKEY_set1_DSA                                 output.o
EVP_PKEY_set1_EC_KEY                              output.o
EVP_PKEY_set1_RSA                                 output.o
EVP_PKEY_set_type                                 output.o
EVP_PKEY_set_type_str                             output.o
EVP_PKEY_sign                                     output.o
EVP_PKEY_sign_init                                output.o
EVP_PKEY_size                                     output.o
EVP_PKEY_type                                     output.o
EVP_PKEY_verify                                   output.o
EVP_PKEY_verify_init                              output.o
EVP_PKEY_verify_recover                           output.o
EVP_PKEY_verify_recover_init                      output.o
EVP_SignFinal                                     output.o
EVP_VerifyFinal                                   output.o
EVP_add_cipher                                    output.o
EVP_add_digest                                    output.o
EVP_aes_128_cbc                                   output.o
EVP_aes_128_cfb1                                  output.o
EVP_aes_128_cfb128                                output.o
EVP_aes_128_cfb8                                  output.o
EVP_aes_128_ecb                                   output.o
EVP_aes_128_ofb                                   output.o
EVP_aes_192_cbc                                   output.o
EVP_aes_192_cfb1                                  output.o
EVP_aes_192_cfb128                                output.o
EVP_aes_192_cfb8                                  output.o
EVP_aes_192_ecb                                   output.o
EVP_aes_192_ofb                                   output.o
EVP_aes_256_cbc                                   output.o
EVP_aes_256_cfb1                                  output.o
EVP_aes_256_cfb128                                output.o
EVP_aes_256_cfb8                                  output.o
EVP_aes_256_ecb                                   output.o
EVP_aes_256_ofb                                   output.o
EVP_bf_cbc                                        output.o
EVP_bf_cfb64                                      output.o
EVP_bf_ecb                                        output.o
EVP_bf_ofb                                        output.o
EVP_cast5_cbc                                     output.o
EVP_cast5_cfb64                                   output.o
EVP_cast5_ecb                                     output.o
EVP_cast5_ofb                                     output.o
EVP_cleanup                                       output.o
EVP_des_cbc                                       output.o
EVP_des_cfb1                                      output.o
EVP_des_cfb64                                     output.o
EVP_des_cfb8                                      output.o
EVP_des_ecb                                       output.o
EVP_des_ede                                       output.o
EVP_des_ede3                                      output.o
EVP_des_ede3_cbc                                  output.o
EVP_des_ede3_cfb1                                 output.o
EVP_des_ede3_cfb64                                output.o
EVP_des_ede3_cfb8                                 output.o
EVP_des_ede3_ecb                                  output.o
EVP_des_ede3_ofb                                  output.o
EVP_des_ede_cbc                                   output.o
EVP_des_ede_cfb64                                 output.o
EVP_des_ede_ecb                                   output.o
EVP_des_ede_ofb                                   output.o
EVP_des_ofb                                       output.o
EVP_desx_cbc                                      output.o
EVP_dss                                           output.o
EVP_dss1                                          output.o
EVP_ecdsa                                         output.o
EVP_get_cipherbyname                              output.o
EVP_get_digestbyname                              output.o
EVP_get_pw_prompt                                 output.o
EVP_idea_cbc                                      output.o
EVP_idea_cfb64                                    output.o
EVP_idea_ecb                                      output.o
EVP_idea_ofb                                      output.o
EVP_md4                                           output.o
EVP_md5                                           output.o
EVP_rc2_40_cbc                                    output.o
EVP_rc2_64_cbc                                    output.o
EVP_rc2_cbc                                       output.o
EVP_rc2_cfb64                                     output.o
EVP_rc2_ecb                                       output.o
EVP_rc2_ofb                                       output.o
EVP_rc4                                           output.o
EVP_rc4_40                                        output.o
EVP_read_pw_string                                output.o
EVP_read_pw_string_min                            output.o
EVP_ripemd160                                     output.o
EVP_set_pw_prompt                                 output.o
EVP_sha                                           output.o
EVP_sha1                                          output.o
EVP_sha224                                        output.o
EVP_sha256                                        output.o
EVP_sha384                                        output.o
EVP_sha512                                        output.o
EVP_version                                       output.o
EVP_whirlpool                                     output.o
EXTENDED_KEY_USAGE_free                           output.o
EXTENDED_KEY_USAGE_it                             output.o
EXTENDED_KEY_USAGE_new                            output.o
ExchangePPSData                                   output.o
FI                                                output.o
FindBaudRateTable                                 output.o
GENERAL_NAMES_free                                output.o
GENERAL_NAMES_it                                  output.o
GENERAL_NAMES_new                                 output.o
GENERAL_NAME_cmp                                  output.o
GENERAL_NAME_dup                                  output.o
GENERAL_NAME_free                                 output.o
GENERAL_NAME_get0_otherName                       output.o
GENERAL_NAME_get0_value                           output.o
GENERAL_NAME_it                                   output.o
GENERAL_NAME_new                                  output.o
GENERAL_NAME_print                                output.o
GENERAL_NAME_set0_othername                       output.o
GENERAL_NAME_set0_value                           output.o
GENERAL_SUBTREE_free                              output.o
GENERAL_SUBTREE_it                                output.o
GENERAL_SUBTREE_new                               output.o
GetAttrValType                                    output.o
GetBWICWIData                                     output.o
GetCardStatus                                     output.o
GetDirDataByTlv                                   output.o
GetElem                                           output.o
GetICCardData                                     output.o
GetIFSCData                                       output.o
GetLength                                         output.o
GetOdfDataByTlv                                   output.o
GetTlvByBuf                                       output.o
GetTokenDataByTlv                                 output.o
GetUlByByte                                       output.o
GetUlByTxt                                        output.o
GetValueData                                      output.o
GetVerByTex                                       output.o
HMAC                                              output.o
HMAC_CTX_cleanup                                  output.o
HMAC_CTX_copy                                     output.o
HMAC_CTX_init                                     output.o
HMAC_CTX_set_flags                                output.o
HMAC_Final                                        output.o
HMAC_Init                                         output.o
HMAC_Init_ex                                      output.o
HMAC_Update                                       output.o
HPSearchHotPluggables                             output.o
IDEA_version                                      output.o
IDMan_CheckCardStatus                             output.o
IDMan_CmCheckCRL                                  output.o
IDMan_CmChgRSA                                    output.o
IDMan_CmGetCertificateSign                        output.o
IDMan_CmGetDN                                     output.o
IDMan_CmGetPublicKey                              output.o
IDMan_CmMakeRand                                  output.o
IDMan_CmMkHash                                    output.o
IDMan_CmPadding                                   output.o
IDMan_CmPadding2                                  output.o
IDMan_EncryptByIndex                              output.o
IDMan_IPCheckCrlPkcX                              output.o
IDMan_IPCheckPKC                                  output.o
IDMan_IPCheckSignature                            output.o
IDMan_IPCrSignature                               output.o
IDMan_IPFinalize                                  output.o
IDMan_IPFinalizeReader                            output.o
IDMan_IPIdPassListMalloc                          output.o
IDMan_IPInitialize                                output.o
IDMan_IPInitializeReader                          output.o
IDMan_IPMkPublicKeyObj                            output.o
IDMan_IPMkRandHash                                output.o
IDMan_IPRetJudgment                               output.o
IDMan_IPSignatureVerify                           output.o
IDMan_IPgCIndexParamChk                           output.o
IDMan_IPgCParamChk                                output.o
IDMan_IPgIdxSParamChk                             output.o
IDMan_IPgSParamChk                                output.o
IDMan_IPgetCertIdxPKCS                            output.o
IDMan_IPgetCertPKCS                               output.o
IDMan_IPgetCertPkeyIdxPKCSx                       output.o
IDMan_IPgetCertPkeyPKCSx                          output.o
IDMan_IPgetCertPkeyPKCSy                          output.o
IDMan_IPgetHash                                   output.o
IDMan_IPgetMakeRandData                           output.o
IDMan_IPgetPrivateKey                             output.o
IDMan_IPgetPrivateKeyPKCSx                        output.o
IDMan_IPuAPKCS11IdxParamChk                       output.o
IDMan_IPuAPKCS11ParamChk                          output.o
IDMan_IPvSIdxParamChk                             output.o
IDMan_IPvSParamChk                                output.o
IDMan_PaddingParamChk                             output.o
IDMan_SCardConnect                                output.o
IDMan_SCardDisconnect                             output.o
IDMan_SCardEstablishContext                       output.o
IDMan_SCardListReaders                            output.o
IDMan_SCardReleaseContext                         output.o
IDMan_SCardSetBinay                               output.o
IDMan_SCardSizeLongToChar                         output.o
IDMan_SCardStatus                                 output.o
IDMan_SCardTransmit                               output.o
IDMan_StAtoi                                      output.o
IDMan_StAtol                                      output.o
IDMan_StFree                                      output.o
IDMan_StMalloc                                    output.o
IDMan_StMemcmp                                    output.o
IDMan_StMemcpy                                    output.o
IDMan_StMemset                                    output.o
IDMan_StReadSetData                               output.o
IDMan_StStrcat                                    output.o
IDMan_StStrchr                                    output.o
IDMan_StStrcmp                                    output.o
IDMan_StStrcpy                                    output.o
IDMan_StStrlen                                    output.o
IDMan_generateSignature                           output.o
IDMan_generateSignatureByIndex                    output.o
IDMan_getCertificate                              output.o
IDMan_getCertificateByIndex                       output.o
IDMan_getMemoryFree                               output.o
IDMan_getStaticPassword                           output.o
IDMan_userAuthPKCS11                              output.o
IDMan_userAuthPKCS11ByIndex                       output.o
IDMan_verifySignature                             output.o
IDMan_verifySignatureByIndex                      output.o
IFDHCloseChannel                                  output.o
IFDHControl                                       output.o
IFDHCreateChannel                                 output.o
IFDHGetCapabilities                               output.o
IFDHICCPresence                                   output.o
IFDHPowerICC                                      output.o
IFDHSetProtocolParameters                         output.o
IFDHTransmitToICC                                 output.o
ISSUING_DIST_POINT_free                           output.o
ISSUING_DIST_POINT_it                             output.o
ISSUING_DIST_POINT_new                            output.o
InitCryptoLibrary                                 output.o
InitLeaderCardProtocol                            output.o
InternalAuth                                      output.o
LONG_it                                           output.o
MD4_Final                                         output.o
MD4_Init                                          output.o
MD4_Transform                                     output.o
MD4_Update                                        output.o
MD4_version                                       output.o
MD5                                               output.o
MD5_Final                                         output.o
MD5_Init                                          output.o
MD5_Transform                                     output.o
MD5_Update                                        output.o
MD5_version                                       output.o
NAME_CONSTRAINTS_check                            output.o
NAME_CONSTRAINTS_free                             output.o
NAME_CONSTRAINTS_it                               output.o
NAME_CONSTRAINTS_new                              output.o
NCONF_WIN32                                       output.o
NCONF_default                                     output.o
NCONF_dump_bio                                    output.o
NCONF_free                                        output.o
NCONF_free_data                                   output.o
NCONF_get_number_e                                output.o
NCONF_get_section                                 output.o
NCONF_get_string                                  output.o
NCONF_load                                        output.o
NCONF_load_bio                                    output.o
NCONF_new                                         output.o
NETSCAPE_CERT_SEQUENCE_free                       output.o
NETSCAPE_CERT_SEQUENCE_it                         output.o
NETSCAPE_CERT_SEQUENCE_new                        output.o
NETSCAPE_SPKAC_free                               output.o
NETSCAPE_SPKAC_it                                 output.o
NETSCAPE_SPKAC_new                                output.o
NETSCAPE_SPKI_free                                output.o
NETSCAPE_SPKI_it                                  output.o
NETSCAPE_SPKI_new                                 output.o
NETSCAPE_SPKI_sign                                output.o
NETSCAPE_SPKI_verify                              output.o
NOTICEREF_free                                    output.o
NOTICEREF_it                                      output.o
NOTICEREF_new                                     output.o
OBJ_NAME_add                                      output.o
OBJ_NAME_cleanup                                  output.o
OBJ_NAME_do_all                                   output.o
OBJ_NAME_do_all_sorted                            output.o
OBJ_NAME_get                                      output.o
OBJ_NAME_init                                     output.o
OBJ_NAME_new_index                                output.o
OBJ_NAME_remove                                   output.o
OBJ_add_object                                    output.o
OBJ_add_sigid                                     output.o
OBJ_bsearch_                                      output.o
OBJ_bsearch_ex_                                   output.o
OBJ_cleanup                                       output.o
OBJ_cmp                                           output.o
OBJ_create                                        output.o
OBJ_create_objects                                output.o
OBJ_dup                                           output.o
OBJ_find_sigid_algs                               output.o
OBJ_find_sigid_by_algs                            output.o
OBJ_ln2nid                                        output.o
OBJ_new_nid                                       output.o
OBJ_nid2ln                                        output.o
OBJ_nid2obj                                       output.o
OBJ_nid2sn                                        output.o
OBJ_obj2nid                                       output.o
OBJ_obj2txt                                       output.o
OBJ_sigid_free                                    output.o
OBJ_sn2nid                                        output.o
OBJ_txt2nid                                       output.o
OBJ_txt2obj                                       output.o
OCSP_BASICRESP_free                               output.o
OCSP_BASICRESP_it                                 output.o
OCSP_BASICRESP_new                                output.o
OCSP_CERTID_free                                  output.o
OCSP_CERTID_it                                    output.o
OCSP_CERTID_new                                   output.o
OCSP_CERTSTATUS_free                              output.o
OCSP_CERTSTATUS_it                                output.o
OCSP_CERTSTATUS_new                               output.o
OCSP_CRLID_free                                   output.o
OCSP_CRLID_it                                     output.o
OCSP_CRLID_new                                    output.o
OCSP_ONEREQ_free                                  output.o
OCSP_ONEREQ_it                                    output.o
OCSP_ONEREQ_new                                   output.o
OCSP_REQINFO_free                                 output.o
OCSP_REQINFO_it                                   output.o
OCSP_REQINFO_new                                  output.o
OCSP_REQUEST_free                                 output.o
OCSP_REQUEST_it                                   output.o
OCSP_REQUEST_new                                  output.o
OCSP_RESPBYTES_free                               output.o
OCSP_RESPBYTES_it                                 output.o
OCSP_RESPBYTES_new                                output.o
OCSP_RESPDATA_free                                output.o
OCSP_RESPDATA_it                                  output.o
OCSP_RESPDATA_new                                 output.o
OCSP_RESPID_free                                  output.o
OCSP_RESPID_it                                    output.o
OCSP_RESPID_new                                   output.o
OCSP_RESPONSE_free                                output.o
OCSP_RESPONSE_it                                  output.o
OCSP_RESPONSE_new                                 output.o
OCSP_REVOKEDINFO_free                             output.o
OCSP_REVOKEDINFO_it                               output.o
OCSP_REVOKEDINFO_new                              output.o
OCSP_SERVICELOC_free                              output.o
OCSP_SERVICELOC_it                                output.o
OCSP_SERVICELOC_new                               output.o
OCSP_SIGNATURE_free                               output.o
OCSP_SIGNATURE_it                                 output.o
OCSP_SIGNATURE_new                                output.o
OCSP_SINGLERESP_free                              output.o
OCSP_SINGLERESP_it                                output.o
OCSP_SINGLERESP_new                               output.o
OPENSSL_NONPIC_relocated                          output.o
OPENSSL_asc2uni                                   output.o
OPENSSL_cleanse                                   output.o
OPENSSL_cpuid_setup                               output.o
OPENSSL_gmtime                                    output.o
OPENSSL_gmtime_adj                                output.o
OPENSSL_ia32cap_P                                 output.o
OPENSSL_ia32cap_loc                               output.o
OPENSSL_isservice                                 output.o
OPENSSL_showfatal                                 output.o
OPENSSL_stderr                                    output.o
OPENSSL_uni2asc                                   output.o
OSSL_DES_version                                  output.o
OSSL_libdes_version                               output.o
OTHERNAME_cmp                                     output.o
OTHERNAME_free                                    output.o
OTHERNAME_it                                      output.o
OTHERNAME_new                                     output.o
OpenSSLDie                                        output.o
OpenSSL_add_all_ciphers                           output.o
OpenSSL_add_all_digests                           output.o
OpenUSB                                           output.o
PBE2PARAM_free                                    output.o
PBE2PARAM_it                                      output.o
PBE2PARAM_new                                     output.o
PBEPARAM_free                                     output.o
PBEPARAM_it                                       output.o
PBEPARAM_new                                      output.o
PBKDF2PARAM_free                                  output.o
PBKDF2PARAM_it                                    output.o
PBKDF2PARAM_new                                   output.o
PEM_ASN1_read_bio                                 output.o
PEM_ASN1_write_bio                                output.o
PEM_bytes_read_bio                                output.o
PEM_def_callback                                  output.o
PEM_dek_info                                      output.o
PEM_do_header                                     output.o
PEM_get_EVP_CIPHER_INFO                           output.o
PEM_proc_type                                     output.o
PEM_read_bio                                      output.o
PEM_read_bio_CMS                                  output.o
PEM_read_bio_DHparams                             output.o
PEM_read_bio_DSAPrivateKey                        output.o
PEM_read_bio_DSA_PUBKEY                           output.o
PEM_read_bio_DSAparams                            output.o
PEM_read_bio_ECPKParameters                       output.o
PEM_read_bio_ECPrivateKey                         output.o
PEM_read_bio_EC_PUBKEY                            output.o
PEM_read_bio_NETSCAPE_CERT_SEQUENCE               output.o
PEM_read_bio_PKCS7                                output.o
PEM_read_bio_PKCS8                                output.o
PEM_read_bio_PKCS8_PRIV_KEY_INFO                  output.o
PEM_read_bio_PUBKEY                               output.o
PEM_read_bio_Parameters                           output.o
PEM_read_bio_PrivateKey                           output.o
PEM_read_bio_RSAPrivateKey                        output.o
PEM_read_bio_RSAPublicKey                         output.o
PEM_read_bio_RSA_PUBKEY                           output.o
PEM_read_bio_X509                                 output.o
PEM_read_bio_X509_CRL                             output.o
PEM_read_bio_X509_REQ                             output.o
PEM_version                                       output.o
PEM_write_bio                                     output.o
PEM_write_bio_ASN1_stream                         output.o
PEM_write_bio_CMS                                 output.o
PEM_write_bio_CMS_stream                          output.o
PEM_write_bio_DHparams                            output.o
PEM_write_bio_DSAPrivateKey                       output.o
PEM_write_bio_DSA_PUBKEY                          output.o
PEM_write_bio_DSAparams                           output.o
PEM_write_bio_ECPKParameters                      output.o
PEM_write_bio_ECPrivateKey                        output.o
PEM_write_bio_EC_PUBKEY                           output.o
PEM_write_bio_NETSCAPE_CERT_SEQUENCE              output.o
PEM_write_bio_PKCS7                               output.o
PEM_write_bio_PKCS8                               output.o
PEM_write_bio_PKCS8PrivateKey                     output.o
PEM_write_bio_PKCS8PrivateKey_nid                 output.o
PEM_write_bio_PKCS8_PRIV_KEY_INFO                 output.o
PEM_write_bio_PUBKEY                              output.o
PEM_write_bio_Parameters                          output.o
PEM_write_bio_PrivateKey                          output.o
PEM_write_bio_RSAPrivateKey                       output.o
PEM_write_bio_RSAPublicKey                        output.o
PEM_write_bio_RSA_PUBKEY                          output.o
PEM_write_bio_X509                                output.o
PEM_write_bio_X509_CRL                            output.o
PEM_write_bio_X509_REQ                            output.o
PEM_write_bio_X509_REQ_NEW                        output.o
PHGetProtocol                                     output.o
PHSetProtocol                                     output.o
PKCS12_AUTHSAFES_it                               output.o
PKCS12_BAGS_free                                  output.o
PKCS12_BAGS_it                                    output.o
PKCS12_BAGS_new                                   output.o
PKCS12_MAC_DATA_free                              output.o
PKCS12_MAC_DATA_it                                output.o
PKCS12_MAC_DATA_new                               output.o
PKCS12_MAKE_KEYBAG                                output.o
PKCS12_MAKE_SHKEYBAG                              output.o
PKCS12_PBE_add                                    output.o
PKCS12_PBE_keyivgen                               output.o
PKCS12_SAFEBAGS_it                                output.o
PKCS12_SAFEBAG_free                               output.o
PKCS12_SAFEBAG_it                                 output.o
PKCS12_SAFEBAG_new                                output.o
PKCS12_certbag2x509                               output.o
PKCS12_certbag2x509crl                            output.o
PKCS12_decrypt_skey                               output.o
PKCS12_free                                       output.o
PKCS12_it                                         output.o
PKCS12_item_decrypt_d2i                           output.o
PKCS12_item_i2d_encrypt                           output.o
PKCS12_item_pack_safebag                          output.o
PKCS12_key_gen_asc                                output.o
PKCS12_key_gen_uni                                output.o
PKCS12_new                                        output.o
PKCS12_pack_authsafes                             output.o
PKCS12_pack_p7data                                output.o
PKCS12_pack_p7encdata                             output.o
PKCS12_pbe_crypt                                  output.o
PKCS12_unpack_authsafes                           output.o
PKCS12_unpack_p7data                              output.o
PKCS12_unpack_p7encdata                           output.o
PKCS12_x5092certbag                               output.o
PKCS12_x509crl2certbag                            output.o
PKCS1_MGF1                                        output.o
PKCS5_PBE_add                                     output.o
PKCS5_PBE_keyivgen                                output.o
PKCS5_PBKDF2_HMAC                                 output.o
PKCS5_PBKDF2_HMAC_SHA1                            output.o
PKCS5_pbe2_set                                    output.o
PKCS5_pbe2_set_iv                                 output.o
PKCS5_pbe_set                                     output.o
PKCS5_pbe_set0_algor                              output.o
PKCS5_v2_PBE_keyivgen                             output.o
PKCS7_ATTR_SIGN_it                                output.o
PKCS7_ATTR_VERIFY_it                              output.o
PKCS7_DIGEST_free                                 output.o
PKCS7_DIGEST_it                                   output.o
PKCS7_DIGEST_new                                  output.o
PKCS7_ENCRYPT_free                                output.o
PKCS7_ENCRYPT_it                                  output.o
PKCS7_ENCRYPT_new                                 output.o
PKCS7_ENC_CONTENT_free                            output.o
PKCS7_ENC_CONTENT_it                              output.o
PKCS7_ENC_CONTENT_new                             output.o
PKCS7_ENVELOPE_free                               output.o
PKCS7_ENVELOPE_it                                 output.o
PKCS7_ENVELOPE_new                                output.o
PKCS7_ISSUER_AND_SERIAL_digest                    output.o
PKCS7_ISSUER_AND_SERIAL_free                      output.o
PKCS7_ISSUER_AND_SERIAL_it                        output.o
PKCS7_ISSUER_AND_SERIAL_new                       output.o
PKCS7_RECIP_INFO_free                             output.o
PKCS7_RECIP_INFO_get0_alg                         output.o
PKCS7_RECIP_INFO_it                               output.o
PKCS7_RECIP_INFO_new                              output.o
PKCS7_RECIP_INFO_set                              output.o
PKCS7_SIGNED_free                                 output.o
PKCS7_SIGNED_it                                   output.o
PKCS7_SIGNED_new                                  output.o
PKCS7_SIGNER_INFO_free                            output.o
PKCS7_SIGNER_INFO_get0_algs                       output.o
PKCS7_SIGNER_INFO_it                              output.o
PKCS7_SIGNER_INFO_new                             output.o
PKCS7_SIGNER_INFO_set                             output.o
PKCS7_SIGNER_INFO_sign                            output.o
PKCS7_SIGN_ENVELOPE_free                          output.o
PKCS7_SIGN_ENVELOPE_it                            output.o
PKCS7_SIGN_ENVELOPE_new                           output.o
PKCS7_add0_attrib_signing_time                    output.o
PKCS7_add1_attrib_digest                          output.o
PKCS7_add_attrib_content_type                     output.o
PKCS7_add_attrib_smimecap                         output.o
PKCS7_add_attribute                               output.o
PKCS7_add_certificate                             output.o
PKCS7_add_crl                                     output.o
PKCS7_add_recipient                               output.o
PKCS7_add_recipient_info                          output.o
PKCS7_add_signature                               output.o
PKCS7_add_signed_attribute                        output.o
PKCS7_add_signer                                  output.o
PKCS7_cert_from_signer_info                       output.o
PKCS7_content_new                                 output.o
PKCS7_ctrl                                        output.o
PKCS7_dataDecode                                  output.o
PKCS7_dataFinal                                   output.o
PKCS7_dataInit                                    output.o
PKCS7_dataVerify                                  output.o
PKCS7_digest_from_attributes                      output.o
PKCS7_dup                                         output.o
PKCS7_free                                        output.o
PKCS7_get_attribute                               output.o
PKCS7_get_issuer_and_serial                       output.o
PKCS7_get_signed_attribute                        output.o
PKCS7_get_signer_info                             output.o
PKCS7_get_smimecap                                output.o
PKCS7_it                                          output.o
PKCS7_new                                         output.o
PKCS7_print_ctx                                   output.o
PKCS7_set0_type_other                             output.o
PKCS7_set_attributes                              output.o
PKCS7_set_cipher                                  output.o
PKCS7_set_content                                 output.o
PKCS7_set_digest                                  output.o
PKCS7_set_signed_attributes                       output.o
PKCS7_set_type                                    output.o
PKCS7_signatureVerify                             output.o
PKCS7_simple_smimecap                             output.o
PKCS7_stream                                      output.o
PKCS8_PRIV_KEY_INFO_free                          output.o
PKCS8_PRIV_KEY_INFO_it                            output.o
PKCS8_PRIV_KEY_INFO_new                           output.o
PKCS8_decrypt                                     output.o
PKCS8_encrypt                                     output.o
PKCS8_pkey_get0                                   output.o
PKCS8_pkey_set0                                   output.o
PKCS8_set_broken                                  output.o
PKEY_USAGE_PERIOD_free                            output.o
PKEY_USAGE_PERIOD_it                              output.o
PKEY_USAGE_PERIOD_new                             output.o
POLICYINFO_free                                   output.o
POLICYINFO_it                                     output.o
POLICYINFO_new                                    output.o
POLICYQUALINFO_free                               output.o
POLICYQUALINFO_it                                 output.o
POLICYQUALINFO_new                                output.o
POLICY_CONSTRAINTS_free                           output.o
POLICY_CONSTRAINTS_it                             output.o
POLICY_CONSTRAINTS_new                            output.o
POLICY_MAPPINGS_it                                output.o
POLICY_MAPPING_free                               output.o
POLICY_MAPPING_it                                 output.o
POLICY_MAPPING_new                                output.o
PROXY_CERT_INFO_EXTENSION_free                    output.o
PROXY_CERT_INFO_EXTENSION_it                      output.o
PROXY_CERT_INFO_EXTENSION_new                     output.o
PROXY_POLICY_free                                 output.o
PROXY_POLICY_it                                   output.o
PROXY_POLICY_new                                  output.o
PowerOff                                          output.o
PowerOn                                           output.o
RAND_SSLeay                                       output.o
RAND_add                                          output.o
RAND_bytes                                        output.o
RAND_cleanup                                      output.o
RAND_get_rand_method                              output.o
RAND_poll                                         output.o
RAND_pseudo_bytes                                 output.o
RAND_seed                                         output.o
RAND_set_rand_method                              output.o
RAND_status                                       output.o
RAND_version                                      output.o
RC2_cbc_encrypt                                   output.o
RC2_cfb64_encrypt                                 output.o
RC2_decrypt                                       output.o
RC2_ecb_encrypt                                   output.o
RC2_encrypt                                       output.o
RC2_ofb64_encrypt                                 output.o
RC2_set_key                                       output.o
RC2_version                                       output.o
RC4                                               output.o
RC4_options                                       output.o
RC4_set_key                                       output.o
RC4_version                                       output.o
RFAddReader                                       output.o
RFCheckReaderEventState                           output.o
RFReaderInfoById                                  output.o
RFRemoveReader                                    output.o
RIPEMD160_Final                                   output.o
RIPEMD160_Init                                    output.o
RIPEMD160_Transform                               output.o
RIPEMD160_Update                                  output.o
RMD160_version                                    output.o
RSAPrivateKey_dup                                 output.o
RSAPrivateKey_it                                  output.o
RSAPublicKey_dup                                  output.o
RSAPublicKey_it                                   output.o
RSA_PKCS1_SSLeay                                  output.o
RSA_X931_hash_id                                  output.o
RSA_blinding_off                                  output.o
RSA_blinding_on                                   output.o
RSA_flags                                         output.o
RSA_free                                          output.o
RSA_generate_key                                  output.o
RSA_generate_key_ex                               output.o
RSA_get_default_method                            output.o
RSA_get_ex_data                                   output.o
RSA_get_ex_new_index                              output.o
RSA_get_method                                    output.o
RSA_memory_lock                                   output.o
RSA_new                                           output.o
RSA_new_method                                    output.o
RSA_padding_add_PKCS1_OAEP                        output.o
RSA_padding_add_PKCS1_PSS                         output.o
RSA_padding_add_PKCS1_type_1                      output.o
RSA_padding_add_PKCS1_type_2                      output.o
RSA_padding_add_SSLv23                            output.o
RSA_padding_add_X931                              output.o
RSA_padding_add_none                              output.o
RSA_padding_check_PKCS1_OAEP                      output.o
RSA_padding_check_PKCS1_type_1                    output.o
RSA_padding_check_PKCS1_type_2                    output.o
RSA_padding_check_SSLv23                          output.o
RSA_padding_check_X931                            output.o
RSA_padding_check_none                            output.o
RSA_private_decrypt                               output.o
RSA_private_encrypt                               output.o
RSA_public_decrypt                                output.o
RSA_public_encrypt                                output.o
RSA_set_default_method                            output.o
RSA_set_ex_data                                   output.o
RSA_set_method                                    output.o
RSA_setup_blinding                                output.o
RSA_sign                                          output.o
RSA_size                                          output.o
RSA_up_ref                                        output.o
RSA_verify                                        output.o
RSA_verify_PKCS1_PSS                              output.o
RSA_version                                       output.o
ReadBinary                                        output.o
ReadDataT0                                        output.o
ReadUSB                                           output.o
ReceiveReply                                      output.o
SCardBeginTransaction                             output.o
SCardConnect                                      output.o
SCardDisconnect                                   output.o
SCardEndTransaction                               output.o
SCardEstablishContext                             output.o
SCardListReaders                                  output.o
SCardReleaseContext                               output.o
SCardStatus                                       output.o
SCardTransmit                                     output.o
SHA1                                              output.o
SHA1_Final                                        output.o
SHA1_Init                                         output.o
SHA1_Transform                                    output.o
SHA1_Update                                       output.o
SHA1_version                                      output.o
SHA224                                            output.o
SHA224_Final                                      output.o
SHA224_Init                                       output.o
SHA224_Update                                     output.o
SHA256                                            output.o
SHA256_Final                                      output.o
SHA256_Init                                       output.o
SHA256_Transform                                  output.o
SHA256_Update                                     output.o
SHA256_version                                    output.o
SHA384                                            output.o
SHA384_Final                                      output.o
SHA384_Init                                       output.o
SHA384_Update                                     output.o
SHA512                                            output.o
SHA512_Final                                      output.o
SHA512_Init                                       output.o
SHA512_Transform                                  output.o
SHA512_Update                                     output.o
SHA512_version                                    output.o
SHA_Final                                         output.o
SHA_Init                                          output.o
SHA_Transform                                     output.o
SHA_Update                                        output.o
SHA_version                                       output.o
SMIME_crlf_copy                                   output.o
SMIME_read_ASN1                                   output.o
SMIME_read_CMS                                    output.o
SMIME_text                                        output.o
SMIME_write_ASN1                                  output.o
SMIME_write_CMS                                   output.o
STACK_version                                     output.o
SXNETID_free                                      output.o
SXNETID_it                                        output.o
SXNETID_new                                       output.o
SXNET_add_id_INTEGER                              output.o
SXNET_add_id_asc                                  output.o
SXNET_add_id_ulong                                output.o
SXNET_free                                        output.o
SXNET_get_id_INTEGER                              output.o
SXNET_get_id_asc                                  output.o
SXNET_get_id_ulong                                output.o
SXNET_it                                          output.o
SXNET_new                                         output.o
Se4AddArpEntryList                                output.o
Se4AdjustTcpMss                                   output.o
Se4And                                            output.o
Se4BitToHex                                       output.o
Se4BroadcastMacAddress                            output.o
Se4BuildIcmpEchoPacket                            output.o
Se4CheckUnicastAddress                            output.o
Se4Cmp                                            output.o
Se4CmpArpEntry                                    output.o
Se4CmpArpWaitEntry                                output.o
Se4CmpIpCombineList                               output.o
Se4CombineIp                                      output.o
Se4FlushArpEntryList                              output.o
Se4FlushIpCombineList                             output.o
Se4FlushIpWaitList                                output.o
Se4Free                                           output.o
Se4FreeArpEntryList                               output.o
Se4FreeArpWaitList                                output.o
Se4FreeIpCombine                                  output.o
Se4FreeIpCombineList                              output.o
Se4FreeIpFragmentList                             output.o
Se4FreeIpHeaderInfo                               output.o
Se4FreeIpWait                                     output.o
Se4FreeIpWaitList                                 output.o
Se4GenerateSubnetMask                             output.o
Se4GenerateSubnetMask32                           output.o
Se4GetBroadcastAddress                            output.o
Se4GetHostAddress                                 output.o
Se4GetNetworkAddress                              output.o
Se4IPToStr                                        output.o
Se4IPToStr32                                      output.o
Se4IPToUINT                                       output.o
Se4Init                                           output.o
Se4InitArpEntryList                               output.o
Se4InitArpWaitList                                output.o
Se4InitIpCombineList                              output.o
Se4InitIpFragmentList                             output.o
Se4InitIpWaitList                                 output.o
Se4InsertIpCombine                                output.o
Se4InsertIpWait                                   output.o
Se4IpCheckChecksum                                output.o
Se4IpChecksum                                     output.o
Se4IsBroadcastAddress                             output.o
Se4IsInSameNetwork                                output.o
Se4IsSubnetMask                                   output.o
Se4IsZeroIP                                       output.o
Se4MacIpRelationKnown                             output.o
Se4MainProc                                       output.o
Se4Not                                            output.o
Se4Or                                             output.o
Se4ParseIpPacket                                  output.o
Se4ParseIpPacketICMPv4                            output.o
Se4ParseIpPacketUDPv4                             output.o
Se4ProcessArpWaitList                             output.o
Se4RecvArp                                        output.o
Se4RecvArpRequest                                 output.o
Se4RecvArpResponse                                output.o
Se4RecvEthPacket                                  output.o
Se4RecvIp                                         output.o
Se4RecvIpComplete                                 output.o
Se4SearchArpEntryList                             output.o
Se4SearchArpWaitList                              output.o
Se4SearchIpCombineList                            output.o
Se4SendArpDoProcess                               output.o
Se4SendArpRequest                                 output.o
Se4SendArpResponse                                output.o
Se4SendEthPacket                                  output.o
Se4SendIcmp                                       output.o
Se4SendIcmpEchoRequest                            output.o
Se4SendIcmpEchoResponse                           output.o
Se4SendIp                                         output.o
Se4SendIpFragment                                 output.o
Se4SendIpFragmentNow                              output.o
Se4SendRawIp                                      output.o
Se4SendUdp                                        output.o
Se4SendWaitingIpWait                              output.o
Se4StrToIP                                        output.o
Se4StrToIP32                                      output.o
Se4Tick                                           output.o
Se4UINTToIP                                       output.o
Se4ZeroIP                                         output.o
Se6AddGuestNode                                   output.o
Se6AddNeighborEntryList                           output.o
Se6And                                            output.o
Se6BroadcastMacAddress                            output.o
Se6BuildIcmpEchoPacket                            output.o
Se6CalcChecksum                                   output.o
Se6CheckIPItemStr                                 output.o
Se6CheckSubnetLength                              output.o
Se6CheckUnicastAddress                            output.o
Se6Cmp                                            output.o
Se6CmpIpCombineList                               output.o
Se6CmpNdpWaitEntry                                output.o
Se6CmpNeighborEntry                               output.o
Se6CombineIp                                      output.o
Se6FlushIpCombineList                             output.o
Se6FlushIpWaitList                                output.o
Se6FlushNeighborEntryList                         output.o
Se6Free                                           output.o
Se6FreeIpCombine                                  output.o
Se6FreeIpCombineList                              output.o
Se6FreeIpFragmentList                             output.o
Se6FreeIpHeaderInfo                               output.o
Se6FreeIpWait                                     output.o
Se6FreeIpWaitList                                 output.o
Se6FreeNdpWaitList                                output.o
Se6FreeNeighborEntryList                          output.o
Se6GenerateEui64Address                           output.o
Se6GenerateEui64GlobalAddress                     output.o
Se6GenerateEui64LocalAddress                      output.o
Se6GenerateMulticastMacAddress                    output.o
Se6GenerateSubnetMask                             output.o
Se6GetAllNodeMulticastAddr                        output.o
Se6GetAllRouterMulticastAddr                      output.o
Se6GetHostAddress                                 output.o
Se6GetIPAddrType                                  output.o
Se6GetPrefixAddress                               output.o
Se6GetSoliciationMulticastAddr                    output.o
Se6IPItemStrToChars                               output.o
Se6IPToStr                                        output.o
Se6Init                                           output.o
Se6InitIpCombineList                              output.o
Se6InitIpFragmentList                             output.o
Se6InitIpWaitList                                 output.o
Se6InitNdpWaitList                                output.o
Se6InitNeighborEntryList                          output.o
Se6InsertIpCombine                                output.o
Se6InsertIpWait                                   output.o
Se6IpChecksum                                     output.o
Se6IsGuestNode                                    output.o
Se6IsInSameNetwork                                output.o
Se6IsNetworkPrefixAddress                         output.o
Se6IsSubnetMask                                   output.o
Se6IsZeroIP                                       output.o
Se6LocalSubnet                                    output.o
Se6MacIpRelationKnown                             output.o
Se6MainProc                                       output.o
Se6Not                                            output.o
Se6Or                                             output.o
Se6ParseIpPacket                                  output.o
Se6ParseIpPacketICMPv6                            output.o
Se6ParseIpPacketUDPv6                             output.o
Se6ProcessNdpWaitList                             output.o
Se6RecvEthPacket                                  output.o
Se6RecvIp                                         output.o
Se6RecvIpComplete                                 output.o
Se6SearchIpCombineList                            output.o
Se6SearchNdpWaitList                              output.o
Se6SearchNeighborEntryList                        output.o
Se6SendEthPacket                                  output.o
Se6SendIcmp                                       output.o
Se6SendIcmpEchoRequest                            output.o
Se6SendIcmpEchoResponse                           output.o
Se6SendIcmpNeighborAdvertisement                  output.o
Se6SendIcmpNeighborSoliciation                    output.o
Se6SendIcmpRouterAdvertisement                    output.o
Se6SendIp                                         output.o
Se6SendIpFragment                                 output.o
Se6SendIpFragmentNow                              output.o
Se6SendNeighborSoliciation                        output.o
Se6SendNeighborSoliciationDoProcess               output.o
Se6SendRawIp                                      output.o
Se6SendUdp                                        output.o
Se6SendWaitingIpWait                              output.o
Se6StrToIP                                        output.o
Se6SubnetMaskToInt                                output.o
Se6Tick                                           output.o
Se6ZeroIP                                         output.o
SeAdd                                             output.o
SeAddBufStr                                       output.o
SeAdjustBufSize                                   output.o
SeB64CharToCode                                   output.o
SeB64CodeToChar                                   output.o
SeB64Decode                                       output.o
SeB64Encode                                       output.o
SeBSearch                                         output.o
SeBigNumToBuf                                     output.o
SeBigNumToStr                                     output.o
SeBinToBigNum                                     output.o
SeBinToStr                                        output.o
SeBinToStrEx                                      output.o
SeBioToBuf                                        output.o
SeBioToCert                                       output.o
SeBioToKey                                        output.o
SeBufToBigNum                                     output.o
SeBufToBio                                        output.o
SeBufToCert                                       output.o
SeBufToKey                                        output.o
SeBuildAndAddIPv6PacketOptionHeader               output.o
SeBuildICMPv6OptionValue                          output.o
SeBuildICMPv6Options                              output.o
SeBuildIPv6Packet                                 output.o
SeBuildIPv6PacketWithFragment                     output.o
SeCalcReplaceStrEx                                output.o
SeCertToBio                                       output.o
SeCertToBuf                                       output.o
SeCheckCert                                       output.o
SeCheckCertAndKey                                 output.o
SeCheckSignature                                  output.o
SeClearBuf                                        output.o
SeClearFifo                                       output.o
SeClone                                           output.o
SeCloneBuf                                        output.o
SeCloneCert                                       output.o
SeCloneKey                                        output.o
SeCloneList                                       output.o
SeCmp                                             output.o
SeCmpBuf                                          output.o
SeCmpEx                                           output.o
SeCompareCert                                     output.o
SeCompareStr                                      output.o
SeCopy                                            output.o
SeCopyStr                                         output.o
SeCopyToArray                                     output.o
SeDebug                                           output.o
SeDebugBin                                        output.o
SeDefaultTokenSplitChars                          output.o
SeDelete                                          output.o
SeDeleteAll                                       output.o
SeDeleteLock                                      output.o
SeDes3Decrypt                                     output.o
SeDes3Encrypt                                     output.o
SeDes3FreeKey                                     output.o
SeDes3NewKey                                      output.o
SeDes3RandKey                                     output.o
SeDesFreeKey                                      output.o
SeDesFreeKeyValue                                 output.o
SeDesNewKey                                       output.o
SeDesNewKeyValue                                  output.o
SeDesRandKey                                      output.o
SeDesRandKeyValue                                 output.o
SeDhCompute                                       output.o
SeDhFree                                          output.o
SeDhNew                                           output.o
SeDhNewGroup2                                     output.o
SeDumpBuf                                         output.o
SeEndWith                                         output.o
SeEndian16                                        output.o
SeEndian32                                        output.o
SeEndian64                                        output.o
SeError                                           output.o
SeEthAddSenderMacList                             output.o
SeEthDeleteOldSenderMacList                       output.o
SeEthFree                                         output.o
SeEthGenRandMacAddress                            output.o
SeEthGetInfo                                      output.o
SeEthGetNextRecvPacket                            output.o
SeEthIsSenderMacAddressExistsInList               output.o
SeEthNew                                          output.o
SeEthNicCallback                                  output.o
SeEthParseEthernetPacket                          output.o
SeEthSend                                         output.o
SeEthSendAdd                                      output.o
SeEthSendAll                                      output.o
SeFastSwap                                        output.o
SeFatal                                           output.o
SeFifoSize                                        output.o
SeFormat                                          output.o
SeFormatArgs                                      output.o
SeFormatEx                                        output.o
SeFree                                            output.o
SeFreeBio                                         output.o
SeFreeBuf                                         output.o
SeFreeBufWithoutBuffer                            output.o
SeFreeCert                                        output.o
SeFreeConfigEntryList                             output.o
SeFreeCrypto                                      output.o
SeFreeFifo                                        output.o
SeFreeKernel                                      output.o
SeFreeKey                                         output.o
SeFreeList                                        output.o
SeFreePKey                                        output.o
SeFreePacket                                      output.o
SeFreePacketList                                  output.o
SeFreePacketListWithoutBuffer                     output.o
SeFreeQueue                                       output.o
SeFreeStack                                       output.o
SeFreeToken                                       output.o
SeFreeX509                                        output.o
SeGetCertIssuerName                               output.o
SeGetCertMd5                                      output.o
SeGetCertSha1                                     output.o
SeGetCertSubjectName                              output.o
SeGetConfigBin                                    output.o
SeGetConfigBool                                   output.o
SeGetConfigEntry                                  output.o
SeGetConfigInt                                    output.o
SeGetConfigInt64                                  output.o
SeGetConfigStr                                    output.o
SeGetCurrentCpuId                                 output.o
SeGetKeyAndValue                                  output.o
SeGetKeyFromCert                                  output.o
SeGetNext                                         output.o
SeGetNextHeaderFromQueue                          output.o
SeGetNextInt                                      output.o
SeHashForSignBySHA1                               output.o
SeHexTo4Bit                                       output.o
SeHexToInt                                        output.o
SeHexToInt64                                      output.o
SeIkeBuild                                        output.o
SeIkeBuildCertPayload                             output.o
SeIkeBuildCertRequestPayload                      output.o
SeIkeBuildDataPayload                             output.o
SeIkeBuildDeletePayload                           output.o
SeIkeBuildIdPayload                               output.o
SeIkeBuildNoticePayload                           output.o
SeIkeBuildPayload                                 output.o
SeIkeBuildPayloadList                             output.o
SeIkeBuildProposalPayload                         output.o
SeIkeBuildSaPayload                               output.o
SeIkeBuildTransformPayload                        output.o
SeIkeBuildTransformValue                          output.o
SeIkeBuildTransformValueList                      output.o
SeIkeDecrypt                                      output.o
SeIkeEncrypt                                      output.o
SeIkeEncryptWithPadding                           output.o
SeIkeFree                                         output.o
SeIkeFreeCertPayload                              output.o
SeIkeFreeCertRequestPayload                       output.o
SeIkeFreeDataPayload                              output.o
SeIkeFreeDeletePayload                            output.o
SeIkeFreeIdPayload                                output.o
SeIkeFreeNoticePayload                            output.o
SeIkeFreePayload                                  output.o
SeIkeFreePayloadList                              output.o
SeIkeFreeProposalPayload                          output.o
SeIkeFreeSaPayload                                output.o
SeIkeFreeTransformPayload                         output.o
SeIkeFreeTransformValueList                       output.o
SeIkeGetFirstPayloadType                          output.o
SeIkeGetIPv4Address                               output.o
SeIkeGetIPv6Address                               output.o
SeIkeGetPayload                                   output.o
SeIkeGetPayloadNum                                output.o
SeIkeInitIPv4Address                              output.o
SeIkeInitIPv6Address                              output.o
SeIkeIpAddressToStr                               output.o
SeIkeIsZeroIP                                     output.o
SeIkeNew                                          output.o
SeIkeNewCertPayload                               output.o
SeIkeNewCertRequestPayload                        output.o
SeIkeNewDataPayload                               output.o
SeIkeNewDeletePayload                             output.o
SeIkeNewIdPayload                                 output.o
SeIkeNewNoticePayload                             output.o
SeIkeNewPayload                                   output.o
SeIkeNewProposalPayload                           output.o
SeIkeNewSaPayload                                 output.o
SeIkeNewTransformPayload                          output.o
SeIkeNewTransformValue                            output.o
SeIkeParse                                        output.o
SeIkeParseCertPayload                             output.o
SeIkeParseCertRequestPayload                      output.o
SeIkeParseDataPayload                             output.o
SeIkeParseDeletePayload                           output.o
SeIkeParseEx                                      output.o
SeIkeParseHeader                                  output.o
SeIkeParseIdPayload                               output.o
SeIkeParseNoticePayload                           output.o
SeIkeParsePayload                                 output.o
SeIkeParsePayloadList                             output.o
SeIkeParsePayloadListEx                           output.o
SeIkeParseProposalPayload                         output.o
SeIkeParseSaPayload                               output.o
SeIkeParseTransformPayload                        output.o
SeIkeParseTransformValueList                      output.o
SeIkePhase1CryptIdToKeySize                       output.o
SeIkePhase2CryptIdToKeySize                       output.o
SeIkeStrToPassword                                output.o
SeIkeStrToPhase1CryptId                           output.o
SeIkeStrToPhase1HashId                            output.o
SeIkeStrToPhase2CryptId                           output.o
SeIkeStrToPhase2HashId                            output.o
SeInfo                                            output.o
SeInitCrypto                                      output.o
SeInitKernel                                      output.o
SeInsert                                          output.o
SeInsertQueue                                     output.o
SeInsertQueueInt                                  output.o
SeInsertStr                                       output.o
SeIntFree                                         output.o
SeIntInit                                         output.o
SeIsAllLowerStr                                   output.o
SeIsAllUpperStr                                   output.o
SeIsBase64                                        output.o
SeIsBigEndian                                     output.o
SeIsCertSignedByCert                              output.o
SeIsCharInStr                                     output.o
SeIsEmptyStr                                      output.o
SeIsInList                                        output.o
SeIsInListStr                                     output.o
SeIsLittleEndian                                  output.o
SeIsSplitChar                                     output.o
SeIsZero                                          output.o
SeKeyToBio                                        output.o
SeKeyToBuf                                        output.o
SeLoad                                            output.o
SeLoadCert                                        output.o
SeLoadConfigEntryList                             output.o
SeLoadConfigEntryListFromBuf                      output.o
SeLoadKey                                         output.o
SeLock                                            output.o
SeLog                                             output.o
SeLogArgs                                         output.o
SeMacSha1                                         output.o
SeMacSha196                                       output.o
SeMacToStr                                        output.o
SeMakeCharArray                                   output.o
SeMalloc                                          output.o
SeMd5                                             output.o
SeMemSize                                         output.o
SeMemToBuf                                        output.o
SeNewBio                                          output.o
SeNewBuf                                          output.o
SeNewFifo                                         output.o
SeNewList                                         output.o
SeNewLock                                         output.o
SeNewQueue                                        output.o
SeNewStack                                        output.o
SeNormalizeCrlf                                   output.o
SeNullTokenList                                   output.o
SePKeyPasswordCallbackFunction                    output.o
SeParseICMPv6Options                              output.o
SeParseIPv6ExtHeader                              output.o
SeParseIPv6Packet                                 output.o
SeParsePacket                                     output.o
SeParsePacketL2                                   output.o
SeParsePacketL3ARPv4                              output.o
SeParsePacketL3IPv4                               output.o
SeParsePacketL3IPv6                               output.o
SeParseToken                                      output.o
SeParseTokenWithNullStr                           output.o
SePeekFifo                                        output.o
SePeekNext                                        output.o
SePop                                             output.o
SePush                                            output.o
SeQSort                                           output.o
SeRand                                            output.o
SeRand1                                           output.o
SeRand16                                          output.o
SeRand32                                          output.o
SeRand64                                          output.o
SeRand8                                           output.o
SeRandBuf                                         output.o
SeReAlloc                                         output.o
SeReadBuf                                         output.o
SeReadBufFromBuf                                  output.o
SeReadBufInt                                      output.o
SeReadBufInt64                                    output.o
SeReadBufStr                                      output.o
SeReadDump                                        output.o
SeReadFifo                                        output.o
SeReadNextLine                                    output.o
SeReadRemainBuf                                   output.o
SeReplaceListPointer                              output.o
SeReplaceStr                                      output.o
SeReplaceStrEx                                    output.o
SeReplaceStri                                     output.o
SeRsaGen                                          output.o
SeRsaPrivateDecrypt                               output.o
SeRsaPrivateEncrypt                               output.o
SeRsaPublicDecrypt                                output.o
SeRsaPublicEncrypt                                output.o
SeRsaPublicSize                                   output.o
SeRsaPublicToBin                                  output.o
SeRsaPublicToBuf                                  output.o
SeRsaSign                                         output.o
SeRsaSignWithPadding                              output.o
SeRsaSignWithSha1                                 output.o
SeRsaVerifyWithPadding                            output.o
SeRsaVerifyWithSha1                               output.o
SeSave                                            output.o
SeSaveCert                                        output.o
SeSaveKey                                         output.o
SeSearch                                          output.o
SeSearchStr                                       output.o
SeSearchStrEx                                     output.o
SeSearchStri                                      output.o
SeSecAddTimer                                     output.o
SeSecCalcKEYMAT                                   output.o
SeSecCalcKEYMATFull                               output.o
SeSecCalcKa                                       output.o
SeSecCalcP1Iv                                     output.o
SeSecCalcP1KeySet                                 output.o
SeSecCalcP2Iv                                     output.o
SeSecCheckIPsecSaExpires                          output.o
SeSecCheckIkeSaExpires                            output.o
SeSecCmpIkeSa                                     output.o
SeSecDeleteExpiredIPsecSa                         output.o
SeSecDeleteExpiredIkeSa                           output.o
SeSecDoInterval                                   output.o
SeSecEspRecvCallback                              output.o
SeSecForceReconnect                               output.o
SeSecFree                                         output.o
SeSecFreeIPsecSa                                  output.o
SeSecFreeIkeSa                                    output.o
SeSecFreeMain                                     output.o
SeSecFreeP1KeySet                                 output.o
SeSecFreeSaList                                   output.o
SeSecGenIPsecSASpi                                output.o
SeSecGenIkeSaInitCookie                           output.o
SeSecGenIkeSaMessageId                            output.o
SeSecGetIPsecSa                                   output.o
SeSecInit                                         output.o
SeSecInitMain                                     output.o
SeSecInitSaList                                   output.o
SeSecLifeSeconds64bit                             output.o
SeSecNewIPsecSa                                   output.o
SeSecNewIkeSa                                     output.o
SeSecNewSpi                                       output.o
SeSecProcessIkeSaMsg                              output.o
SeSecProcessIkeSaMsgInfo                          output.o
SeSecProcessIkeSaMsgPhase1                        output.o
SeSecProcessIkeSaMsgPhase2                        output.o
SeSecProcessMain                                  output.o
SeSecSearchIPsecSaBySpi                           output.o
SeSecSearchIkeSa                                  output.o
SeSecSearchIkeSaBySpi                             output.o
SeSecSendEsp                                      output.o
SeSecSendIPsecSaDeleteMsg                         output.o
SeSecSendIkeSaDeleteMsg                           output.o
SeSecSendIkeSaMsgInfo                             output.o
SeSecSendIkeSaMsgInfoSimple                       output.o
SeSecSendIkeSaMsgPhase2                           output.o
SeSecSendIkeSaMsgPhase2FinalHash                  output.o
SeSecSendUdp                                      output.o
SeSecSendVirtualIp                                output.o
SeSecSetRecvEspCallback                           output.o
SeSecSetRecvUdpCallback                           output.o
SeSecSetRecvVirtualIpCallback                     output.o
SeSecSetTimerCallback                             output.o
SeSecStartVpnConnect                              output.o
SeSecStrToAuthMethod                              output.o
SeSecTick                                         output.o
SeSecTimerCallback                                output.o
SeSecUdpRecvCallback                              output.o
SeSecVirtualIpRecvCallback                        output.o
SeSeekBuf                                         output.o
SeSetCmp                                          output.o
SeSetSortFlag                                     output.o
SeSha1                                            output.o
SeSort                                            output.o
SeStartWith                                       output.o
SeStrCat                                          output.o
SeStrCheckLen                                     output.o
SeStrCheckSize                                    output.o
SeStrCmp                                          output.o
SeStrCmpi                                         output.o
SeStrCpy                                          output.o
SeStrLen                                          output.o
SeStrLower                                        output.o
SeStrSize                                         output.o
SeStrToBin                                        output.o
SeStrToBinEx                                      output.o
SeStrToMac                                        output.o
SeStrUpper                                        output.o
SeStrnCmp                                         output.o
SeStrnCmpi                                        output.o
SeSwap                                            output.o
SeSwap16                                          output.o
SeSwap32                                          output.o
SeSwap64                                          output.o
SeSysFreeData                                     output.o
SeSysFreeLock                                     output.o
SeSysFreeTimer                                    output.o
SeSysGetCurrentCpuId                              output.o
SeSysGetPhysicalNicInfo                           output.o
SeSysGetTickCount                                 output.o
SeSysGetVirtualNicInfo                            output.o
SeSysLoadData                                     output.o
SeSysLock                                         output.o
SeSysLog                                          output.o
SeSysMemoryAlloc                                  output.o
SeSysMemoryFree                                   output.o
SeSysMemoryReAlloc                                output.o
SeSysNewLock                                      output.o
SeSysNewTimer                                     output.o
SeSysRsaSign                                      output.o
SeSysSaveData                                     output.o
SeSysSendPhysicalNic                              output.o
SeSysSendVirtualNic                               output.o
SeSysSetPhysicalNicRecvCallback                   output.o
SeSysSetTimer                                     output.o
SeSysSetVirtualNicRecvCallback                    output.o
SeSysUnlock                                       output.o
SeTick                                            output.o
SeTick64                                          output.o
SeTick64Internal                                  output.o
SeTimerAdjust                                     output.o
SeTimerCallback                                   output.o
SeTimerEntryCompare                               output.o
SeTimerFree                                       output.o
SeTimerNew                                        output.o
SeTimerSet                                        output.o
SeToArray                                         output.o
SeToHex                                           output.o
SeToHex64                                         output.o
SeToInt                                           output.o
SeToInt64                                         output.o
SeToLower                                         output.o
SeToStr                                           output.o
SeToStr3                                          output.o
SeToStr64                                         output.o
SeToUpper                                         output.o
SeTrim                                            output.o
SeTrimCopy                                        output.o
SeTrimCrlf                                        output.o
SeTrimLeft                                        output.o
SeTrimRight                                       output.o
SeUniqueToken                                     output.o
SeUnlock                                          output.o
SeVpn4ClientAddTimer                              output.o
SeVpn4ClientGetTick                               output.o
SeVpn4ClientSendEsp                               output.o
SeVpn4ClientSendUdp                               output.o
SeVpn4ClientSendVirtualIp                         output.o
SeVpn4ClientSetRecvEspCallback                    output.o
SeVpn4ClientSetRecvUdpCallback                    output.o
SeVpn4ClientSetRecvVirtualIpCallback              output.o
SeVpn4ClientSetTimerCallback                      output.o
SeVpn4DhcpBuildDhcpOptionList                     output.o
SeVpn4DhcpFreeOptionList                          output.o
SeVpn4DhcpOptionsToBuf                            output.o
SeVpn4DhcpParseOptionList                         output.o
SeVpn4DhcpParseOptionListMain                     output.o
SeVpn4DhcpSearchOption                            output.o
SeVpn4DhcpSendResponse                            output.o
SeVpn4DhcpServer                                  output.o
SeVpn4DoInterval                                  output.o
SeVpn4Free                                        output.o
SeVpn4FreeIPsec                                   output.o
SeVpn4IPsecInputFromPhysical                      output.o
SeVpn4IPsecInputFromVirtual                       output.o
SeVpn4IPsecMainProc                               output.o
SeVpn4IPsecSendPing                               output.o
SeVpn4Init                                        output.o
SeVpn4InitIPsec                                   output.o
SeVpn4InitSecConfig                               output.o
SeVpn4MainProc                                    output.o
SeVpn4NewDhcpOption                               output.o
SeVpn4RecvPacketPhysical                          output.o
SeVpn4RecvPacketVirtual                           output.o
SeVpn4SetTimer                                    output.o
SeVpn4Tick                                        output.o
SeVpn6ClientAddTimer                              output.o
SeVpn6ClientGetTick                               output.o
SeVpn6ClientSendEsp                               output.o
SeVpn6ClientSendUdp                               output.o
SeVpn6ClientSendVirtualIp                         output.o
SeVpn6ClientSetRecvEspCallback                    output.o
SeVpn6ClientSetRecvUdpCallback                    output.o
SeVpn6ClientSetRecvVirtualIpCallback              output.o
SeVpn6ClientSetTimerCallback                      output.o
SeVpn6DoInterval                                  output.o
SeVpn6Free                                        output.o
SeVpn6FreeIPsec                                   output.o
SeVpn6IPsecInputFromPhysical                      output.o
SeVpn6IPsecInputFromVirtual                       output.o
SeVpn6IPsecMainProc                               output.o
SeVpn6IPsecSendPing                               output.o
SeVpn6Init                                        output.o
SeVpn6InitIPsec                                   output.o
SeVpn6InitSecConfig                               output.o
SeVpn6MainProc                                    output.o
SeVpn6RecvPacketPhysical                          output.o
SeVpn6RecvPacketVirtual                           output.o
SeVpn6SetTimer                                    output.o
SeVpn6Tick                                        output.o
SeVpn6UpdateGuestOsIpAddress                      output.o
SeVpnAddTimer                                     output.o
SeVpnDoInterval                                   output.o
SeVpnEthRecvCallback                              output.o
SeVpnFree                                         output.o
SeVpnFreeConfig                                   output.o
SeVpnFreeIpStack                                  output.o
SeVpnInit                                         output.o
SeVpnInitIpStack                                  output.o
SeVpnLoadConfig                                   output.o
SeVpnMainFree                                     output.o
SeVpnMainHandler                                  output.o
SeVpnMainInit                                     output.o
SeVpnMainProcRecvEtherPacket                      output.o
SeVpnMainProcess                                  output.o
SeVpnRecvEtherPacket                              output.o
SeVpnRecvIpV4PacketCallback                       output.o
SeVpnRecvIpV6PacketCallback                       output.o
SeVpnSendEtherPacket                              output.o
SeVpnStatusChanged                                output.o
SeVpnTick                                         output.o
SeVpnTimerCallback                                output.o
SeWarning                                         output.o
SeWriteBuf                                        output.o
SeWriteBufBuf                                     output.o
SeWriteBufInt                                     output.o
SeWriteBufInt64                                   output.o
SeWriteBufLine                                    output.o
SeWriteBufStr                                     output.o
SeWriteFifo                                       output.o
SeX509ToCert                                      output.o
SeZero                                            output.o
SeZeroMalloc                                      output.o
SelectFileDF                                      output.o
SelectFileEF                                      output.o
SetATR                                            output.o
SetElem                                           output.o
SetLength                                         output.o
StIsdigit                                         output.o
StIsspace                                         output.o
T0XfrBlockCHAR                                    output.o
T0XfrBlockTPDU                                    output.o
T1NegociateIFSD                                   output.o
T1XfrBlockExtendedAPDU                            output.o
T1XfrBlockTPDU                                    output.o
TransHex2Tex                                      output.o
TransTex2Hex                                      output.o
TransmitCommand                                   output.o
TransmitPPS                                       output.o
UI_OpenSSL                                        output.o
UI_add_error_string                               output.o
UI_add_info_string                                output.o
UI_add_input_boolean                              output.o
UI_add_input_string                               output.o
UI_add_user_data                                  output.o
UI_add_verify_string                              output.o
UI_construct_prompt                               output.o
UI_create_method                                  output.o
UI_ctrl                                           output.o
UI_destroy_method                                 output.o
UI_dup_error_string                               output.o
UI_dup_info_string                                output.o
UI_dup_input_boolean                              output.o
UI_dup_input_string                               output.o
UI_dup_verify_string                              output.o
UI_free                                           output.o
UI_get0_action_string                             output.o
UI_get0_output_string                             output.o
UI_get0_result                                    output.o
UI_get0_result_string                             output.o
UI_get0_test_string                               output.o
UI_get0_user_data                                 output.o
UI_get_default_method                             output.o
UI_get_ex_data                                    output.o
UI_get_ex_new_index                               output.o
UI_get_input_flags                                output.o
UI_get_method                                     output.o
UI_get_result_maxsize                             output.o
UI_get_result_minsize                             output.o
UI_get_string_type                                output.o
UI_method_get_closer                              output.o
UI_method_get_flusher                             output.o
UI_method_get_opener                              output.o
UI_method_get_prompt_constructor                  output.o
UI_method_get_reader                              output.o
UI_method_get_writer                              output.o
UI_method_set_closer                              output.o
UI_method_set_flusher                             output.o
UI_method_set_opener                              output.o
UI_method_set_prompt_constructor                  output.o
UI_method_set_reader                              output.o
UI_method_set_writer                              output.o
UI_new                                            output.o
UI_new_method                                     output.o
UI_process                                        output.o
UI_set_default_method                             output.o
UI_set_ex_data                                    output.o
UI_set_method                                     output.o
UI_set_result                                     output.o
USERNOTICE_free                                   output.o
USERNOTICE_it                                     output.o
USERNOTICE_new                                    output.o
UTF8_getc                                         output.o
UTF8_putc                                         output.o
UpdateBinary                                      output.o
VPN_IPsec_Client_Start                            output.o
VPN_IPsec_Client_Stop                             output.o
VPN_IPsec_Free                                    output.o
VPN_IPsec_Init                                    output.o
Verify                                            output.o
WHIRLPOOL                                         output.o
WHIRLPOOL_BitUpdate                               output.o
WHIRLPOOL_Final                                   output.o
WHIRLPOOL_Init                                    output.o
WHIRLPOOL_Update                                  output.o
WriteUSB                                          output.o
X509V3_EXT_CRL_add_conf                           output.o
X509V3_EXT_CRL_add_nconf                          output.o
X509V3_EXT_REQ_add_conf                           output.o
X509V3_EXT_REQ_add_nconf                          output.o
X509V3_EXT_add                                    output.o
X509V3_EXT_add_alias                              output.o
X509V3_EXT_add_conf                               output.o
X509V3_EXT_add_list                               output.o
X509V3_EXT_add_nconf                              output.o
X509V3_EXT_add_nconf_sk                           output.o
X509V3_EXT_cleanup                                output.o
X509V3_EXT_conf                                   output.o
X509V3_EXT_conf_nid                               output.o
X509V3_EXT_d2i                                    output.o
X509V3_EXT_get                                    output.o
X509V3_EXT_get_nid                                output.o
X509V3_EXT_i2d                                    output.o
X509V3_EXT_nconf                                  output.o
X509V3_EXT_nconf_nid                              output.o
X509V3_EXT_print                                  output.o
X509V3_EXT_val_prn                                output.o
X509V3_NAME_from_section                          output.o
X509V3_add1_i2d                                   output.o
X509V3_add_standard_extensions                    output.o
X509V3_add_value                                  output.o
X509V3_add_value_bool                             output.o
X509V3_add_value_bool_nf                          output.o
X509V3_add_value_int                              output.o
X509V3_add_value_uchar                            output.o
X509V3_conf_free                                  output.o
X509V3_extensions_print                           output.o
X509V3_get_d2i                                    output.o
X509V3_get_section                                output.o
X509V3_get_string                                 output.o
X509V3_get_value_bool                             output.o
X509V3_get_value_int                              output.o
X509V3_parse_list                                 output.o
X509V3_section_free                               output.o
X509V3_set_conf_lhash                             output.o
X509V3_set_ctx                                    output.o
X509V3_set_nconf                                  output.o
X509V3_string_free                                output.o
X509_ALGORS_it                                    output.o
X509_ALGOR_dup                                    output.o
X509_ALGOR_free                                   output.o
X509_ALGOR_get0                                   output.o
X509_ALGOR_it                                     output.o
X509_ALGOR_new                                    output.o
X509_ALGOR_set0                                   output.o
X509_ATTRIBUTE_SET_it                             output.o
X509_ATTRIBUTE_count                              output.o
X509_ATTRIBUTE_create                             output.o
X509_ATTRIBUTE_create_by_NID                      output.o
X509_ATTRIBUTE_create_by_OBJ                      output.o
X509_ATTRIBUTE_create_by_txt                      output.o
X509_ATTRIBUTE_dup                                output.o
X509_ATTRIBUTE_free                               output.o
X509_ATTRIBUTE_get0_data                          output.o
X509_ATTRIBUTE_get0_object                        output.o
X509_ATTRIBUTE_get0_type                          output.o
X509_ATTRIBUTE_it                                 output.o
X509_ATTRIBUTE_new                                output.o
X509_ATTRIBUTE_set1_data                          output.o
X509_ATTRIBUTE_set1_object                        output.o
X509_CERT_AUX_free                                output.o
X509_CERT_AUX_it                                  output.o
X509_CERT_AUX_new                                 output.o
X509_CERT_AUX_print                               output.o
X509_CERT_PAIR_free                               output.o
X509_CERT_PAIR_it                                 output.o
X509_CERT_PAIR_new                                output.o
X509_CINF_free                                    output.o
X509_CINF_it                                      output.o
X509_CINF_new                                     output.o
X509_CRL_INFO_free                                output.o
X509_CRL_INFO_it                                  output.o
X509_CRL_INFO_new                                 output.o
X509_CRL_METHOD_free                              output.o
X509_CRL_METHOD_new                               output.o
X509_CRL_add0_revoked                             output.o
X509_CRL_add1_ext_i2d                             output.o
X509_CRL_add_ext                                  output.o
X509_CRL_cmp                                      output.o
X509_CRL_delete_ext                               output.o
X509_CRL_digest                                   output.o
X509_CRL_dup                                      output.o
X509_CRL_free                                     output.o
X509_CRL_get0_by_cert                             output.o
X509_CRL_get0_by_serial                           output.o
X509_CRL_get_ext                                  output.o
X509_CRL_get_ext_by_NID                           output.o
X509_CRL_get_ext_by_OBJ                           output.o
X509_CRL_get_ext_by_critical                      output.o
X509_CRL_get_ext_count                            output.o
X509_CRL_get_ext_d2i                              output.o
X509_CRL_get_meth_data                            output.o
X509_CRL_it                                       output.o
X509_CRL_match                                    output.o
X509_CRL_new                                      output.o
X509_CRL_set_default_method                       output.o
X509_CRL_set_meth_data                            output.o
X509_CRL_sign                                     output.o
X509_CRL_verify                                   output.o
X509_EXTENSIONS_it                                output.o
X509_EXTENSION_create_by_NID                      output.o
X509_EXTENSION_create_by_OBJ                      output.o
X509_EXTENSION_dup                                output.o
X509_EXTENSION_free                               output.o
X509_EXTENSION_get_critical                       output.o
X509_EXTENSION_get_data                           output.o
X509_EXTENSION_get_object                         output.o
X509_EXTENSION_it                                 output.o
X509_EXTENSION_new                                output.o
X509_EXTENSION_set_critical                       output.o
X509_EXTENSION_set_data                           output.o
X509_EXTENSION_set_object                         output.o
X509_LOOKUP_by_alias                              output.o
X509_LOOKUP_by_fingerprint                        output.o
X509_LOOKUP_by_issuer_serial                      output.o
X509_LOOKUP_by_subject                            output.o
X509_LOOKUP_ctrl                                  output.o
X509_LOOKUP_free                                  output.o
X509_LOOKUP_init                                  output.o
X509_LOOKUP_new                                   output.o
X509_LOOKUP_shutdown                              output.o
X509_NAME_ENTRIES_it                              output.o
X509_NAME_ENTRY_create_by_NID                     output.o
X509_NAME_ENTRY_create_by_OBJ                     output.o
X509_NAME_ENTRY_create_by_txt                     output.o
X509_NAME_ENTRY_dup                               output.o
X509_NAME_ENTRY_free                              output.o
X509_NAME_ENTRY_get_data                          output.o
X509_NAME_ENTRY_get_object                        output.o
X509_NAME_ENTRY_it                                output.o
X509_NAME_ENTRY_new                               output.o
X509_NAME_ENTRY_set_data                          output.o
X509_NAME_ENTRY_set_object                        output.o
X509_NAME_INTERNAL_it                             output.o
X509_NAME_add_entry                               output.o
X509_NAME_add_entry_by_NID                        output.o
X509_NAME_add_entry_by_OBJ                        output.o
X509_NAME_add_entry_by_txt                        output.o
X509_NAME_cmp                                     output.o
X509_NAME_delete_entry                            output.o
X509_NAME_digest                                  output.o
X509_NAME_dup                                     output.o
X509_NAME_entry_count                             output.o
X509_NAME_free                                    output.o
X509_NAME_get_entry                               output.o
X509_NAME_get_index_by_NID                        output.o
X509_NAME_get_index_by_OBJ                        output.o
X509_NAME_get_text_by_NID                         output.o
X509_NAME_get_text_by_OBJ                         output.o
X509_NAME_hash                                    output.o
X509_NAME_hash_old                                output.o
X509_NAME_it                                      output.o
X509_NAME_new                                     output.o
X509_NAME_oneline                                 output.o
X509_NAME_print                                   output.o
X509_NAME_print_ex                                output.o
X509_NAME_set                                     output.o
X509_OBJECT_free_contents                         output.o
X509_OBJECT_idx_by_subject                        output.o
X509_OBJECT_retrieve_by_subject                   output.o
X509_OBJECT_retrieve_match                        output.o
X509_OBJECT_up_ref_count                          output.o
X509_POLICY_NODE_print                            output.o
X509_PUBKEY_free                                  output.o
X509_PUBKEY_get                                   output.o
X509_PUBKEY_get0_param                            output.o
X509_PUBKEY_it                                    output.o
X509_PUBKEY_new                                   output.o
X509_PUBKEY_set                                   output.o
X509_PUBKEY_set0_param                            output.o
X509_PURPOSE_add                                  output.o
X509_PURPOSE_cleanup                              output.o
X509_PURPOSE_get0                                 output.o
X509_PURPOSE_get0_name                            output.o
X509_PURPOSE_get0_sname                           output.o
X509_PURPOSE_get_by_id                            output.o
X509_PURPOSE_get_by_sname                         output.o
X509_PURPOSE_get_count                            output.o
X509_PURPOSE_get_id                               output.o
X509_PURPOSE_get_trust                            output.o
X509_PURPOSE_set                                  output.o
X509_REQ_INFO_free                                output.o
X509_REQ_INFO_it                                  output.o
X509_REQ_INFO_new                                 output.o
X509_REQ_add1_attr                                output.o
X509_REQ_add1_attr_by_NID                         output.o
X509_REQ_add1_attr_by_OBJ                         output.o
X509_REQ_add1_attr_by_txt                         output.o
X509_REQ_add_extensions                           output.o
X509_REQ_add_extensions_nid                       output.o
X509_REQ_check_private_key                        output.o
X509_REQ_delete_attr                              output.o
X509_REQ_digest                                   output.o
X509_REQ_dup                                      output.o
X509_REQ_extension_nid                            output.o
X509_REQ_free                                     output.o
X509_REQ_get1_email                               output.o
X509_REQ_get_attr                                 output.o
X509_REQ_get_attr_by_NID                          output.o
X509_REQ_get_attr_by_OBJ                          output.o
X509_REQ_get_attr_count                           output.o
X509_REQ_get_extension_nids                       output.o
X509_REQ_get_extensions                           output.o
X509_REQ_get_pubkey                               output.o
X509_REQ_it                                       output.o
X509_REQ_new                                      output.o
X509_REQ_set_extension_nids                       output.o
X509_REQ_set_pubkey                               output.o
X509_REQ_set_subject_name                         output.o
X509_REQ_set_version                              output.o
X509_REQ_sign                                     output.o
X509_REQ_verify                                   output.o
X509_REVOKED_add1_ext_i2d                         output.o
X509_REVOKED_add_ext                              output.o
X509_REVOKED_delete_ext                           output.o
X509_REVOKED_free                                 output.o
X509_REVOKED_get_ext                              output.o
X509_REVOKED_get_ext_by_NID                       output.o
X509_REVOKED_get_ext_by_OBJ                       output.o
X509_REVOKED_get_ext_by_critical                  output.o
X509_REVOKED_get_ext_count                        output.o
X509_REVOKED_get_ext_d2i                          output.o
X509_REVOKED_it                                   output.o
X509_REVOKED_new                                  output.o
X509_SIG_free                                     output.o
X509_SIG_it                                       output.o
X509_SIG_new                                      output.o
X509_STORE_CTX_cleanup                            output.o
X509_STORE_CTX_free                               output.o
X509_STORE_CTX_get0_current_crl                   output.o
X509_STORE_CTX_get0_current_issuer                output.o
X509_STORE_CTX_get0_param                         output.o
X509_STORE_CTX_get0_parent_ctx                    output.o
X509_STORE_CTX_get0_policy_tree                   output.o
X509_STORE_CTX_get1_chain                         output.o
X509_STORE_CTX_get1_issuer                        output.o
X509_STORE_CTX_get_chain                          output.o
X509_STORE_CTX_get_current_cert                   output.o
X509_STORE_CTX_get_error                          output.o
X509_STORE_CTX_get_error_depth                    output.o
X509_STORE_CTX_get_ex_data                        output.o
X509_STORE_CTX_get_ex_new_index                   output.o
X509_STORE_CTX_get_explicit_policy                output.o
X509_STORE_CTX_init                               output.o
X509_STORE_CTX_new                                output.o
X509_STORE_CTX_purpose_inherit                    output.o
X509_STORE_CTX_set0_crls                          output.o
X509_STORE_CTX_set0_param                         output.o
X509_STORE_CTX_set_cert                           output.o
X509_STORE_CTX_set_chain                          output.o
X509_STORE_CTX_set_default                        output.o
X509_STORE_CTX_set_depth                          output.o
X509_STORE_CTX_set_error                          output.o
X509_STORE_CTX_set_ex_data                        output.o
X509_STORE_CTX_set_flags                          output.o
X509_STORE_CTX_set_purpose                        output.o
X509_STORE_CTX_set_time                           output.o
X509_STORE_CTX_set_trust                          output.o
X509_STORE_CTX_set_verify_cb                      output.o
X509_STORE_CTX_trusted_stack                      output.o
X509_STORE_add_cert                               output.o
X509_STORE_add_crl                                output.o
X509_STORE_add_lookup                             output.o
X509_STORE_free                                   output.o
X509_STORE_get1_certs                             output.o
X509_STORE_get1_crls                              output.o
X509_STORE_get_by_subject                         output.o
X509_STORE_new                                    output.o
X509_STORE_set1_param                             output.o
X509_STORE_set_depth                              output.o
X509_STORE_set_flags                              output.o
X509_STORE_set_purpose                            output.o
X509_STORE_set_trust                              output.o
X509_STORE_set_verify_cb                          output.o
X509_TRUST_add                                    output.o
X509_TRUST_cleanup                                output.o
X509_TRUST_get0                                   output.o
X509_TRUST_get0_name                              output.o
X509_TRUST_get_by_id                              output.o
X509_TRUST_get_count                              output.o
X509_TRUST_get_flags                              output.o
X509_TRUST_get_trust                              output.o
X509_TRUST_set                                    output.o
X509_TRUST_set_default                            output.o
X509_VAL_free                                     output.o
X509_VAL_it                                       output.o
X509_VAL_new                                      output.o
X509_VERIFY_PARAM_add0_policy                     output.o
X509_VERIFY_PARAM_add0_table                      output.o
X509_VERIFY_PARAM_clear_flags                     output.o
X509_VERIFY_PARAM_free                            output.o
X509_VERIFY_PARAM_get_depth                       output.o
X509_VERIFY_PARAM_get_flags                       output.o
X509_VERIFY_PARAM_inherit                         output.o
X509_VERIFY_PARAM_lookup                          output.o
X509_VERIFY_PARAM_new                             output.o
X509_VERIFY_PARAM_set1                            output.o
X509_VERIFY_PARAM_set1_name                       output.o
X509_VERIFY_PARAM_set1_policies                   output.o
X509_VERIFY_PARAM_set_depth                       output.o
X509_VERIFY_PARAM_set_flags                       output.o
X509_VERIFY_PARAM_set_purpose                     output.o
X509_VERIFY_PARAM_set_time                        output.o
X509_VERIFY_PARAM_set_trust                       output.o
X509_VERIFY_PARAM_table_cleanup                   output.o
X509_add1_ext_i2d                                 output.o
X509_add1_reject_object                           output.o
X509_add1_trust_object                            output.o
X509_add_ext                                      output.o
X509_alias_get0                                   output.o
X509_alias_set1                                   output.o
X509_check_akid                                   output.o
X509_check_ca                                     output.o
X509_check_issued                                 output.o
X509_check_private_key                            output.o
X509_check_purpose                                output.o
X509_check_trust                                  output.o
X509_cmp                                          output.o
X509_cmp_current_time                             output.o
X509_cmp_time                                     output.o
X509_delete_ext                                   output.o
X509_digest                                       output.o
X509_dup                                          output.o
X509_email_free                                   output.o
X509_find_by_issuer_and_serial                    output.o
X509_find_by_subject                              output.o
X509_free                                         output.o
X509_get0_pubkey_bitstr                           output.o
X509_get1_email                                   output.o
X509_get1_ocsp                                    output.o
X509_get_default_cert_area                        output.o
X509_get_default_cert_dir                         output.o
X509_get_default_cert_dir_env                     output.o
X509_get_default_cert_file                        output.o
X509_get_default_cert_file_env                    output.o
X509_get_default_private_dir                      output.o
X509_get_ex_data                                  output.o
X509_get_ex_new_index                             output.o
X509_get_ext                                      output.o
X509_get_ext_by_NID                               output.o
X509_get_ext_by_OBJ                               output.o
X509_get_ext_by_critical                          output.o
X509_get_ext_count                                output.o
X509_get_ext_d2i                                  output.o
X509_get_issuer_name                              output.o
X509_get_pubkey                                   output.o
X509_get_pubkey_parameters                        output.o
X509_get_serialNumber                             output.o
X509_get_subject_name                             output.o
X509_gmtime_adj                                   output.o
X509_issuer_and_serial_cmp                        output.o
X509_issuer_and_serial_hash                       output.o
X509_issuer_name_cmp                              output.o
X509_issuer_name_hash                             output.o
X509_issuer_name_hash_old                         output.o
X509_it                                           output.o
X509_keyid_get0                                   output.o
X509_keyid_set1                                   output.o
X509_new                                          output.o
X509_ocspid_print                                 output.o
X509_policy_check                                 output.o
X509_policy_level_get0_node                       output.o
X509_policy_level_node_count                      output.o
X509_policy_node_get0_parent                      output.o
X509_policy_node_get0_policy                      output.o
X509_policy_node_get0_qualifiers                  output.o
X509_policy_tree_free                             output.o
X509_policy_tree_get0_level                       output.o
X509_policy_tree_get0_policies                    output.o
X509_policy_tree_get0_user_policies               output.o
X509_policy_tree_level_count                      output.o
X509_print                                        output.o
X509_print_ex                                     output.o
X509_pubkey_digest                                output.o
X509_reject_clear                                 output.o
X509_set_ex_data                                  output.o
X509_sign                                         output.o
X509_signature_print                              output.o
X509_subject_name_cmp                             output.o
X509_subject_name_hash                            output.o
X509_subject_name_hash_old                        output.o
X509_supported_extension                          output.o
X509_time_adj                                     output.o
X509_time_adj_ex                                  output.o
X509_to_X509_REQ                                  output.o
X509_trust_clear                                  output.o
X509_verify                                       output.o
X509_verify_cert                                  output.o
X509_version                                      output.o
X509at_add1_attr                                  output.o
X509at_add1_attr_by_NID                           output.o
X509at_add1_attr_by_OBJ                           output.o
X509at_add1_attr_by_txt                           output.o
X509at_delete_attr                                output.o
X509at_get0_data_by_OBJ                           output.o
X509at_get_attr                                   output.o
X509at_get_attr_by_NID                            output.o
X509at_get_attr_by_OBJ                            output.o
X509at_get_attr_count                             output.o
X509v3_add_ext                                    output.o
X509v3_delete_ext                                 output.o
X509v3_get_ext                                    output.o
X509v3_get_ext_by_NID                             output.o
X509v3_get_ext_by_OBJ                             output.o
X509v3_get_ext_by_critical                        output.o
X509v3_get_ext_count                              output.o
X9_62_CHARACTERISTIC_TWO_free                     output.o
X9_62_CHARACTERISTIC_TWO_it                       output.o
X9_62_CHARACTERISTIC_TWO_new                      output.o
X9_62_CURVE_it                                    output.o
X9_62_FIELDID_it                                  output.o
X9_62_PENTANOMIAL_free                            output.o
X9_62_PENTANOMIAL_it                              output.o
X9_62_PENTANOMIAL_new                             output.o
ZLONG_it                                          output.o
_CONF_add_string                                  output.o
_CONF_free_data                                   output.o
_CONF_get_section                                 output.o
_CONF_get_section_values                          output.o
_CONF_get_string                                  output.o
_CONF_new_data                                    output.o
_CONF_new_section                                 output.o
__initfunc_acpi_init_global                       output.o
__initfunc_acpi_init_paral                        output.o
__initfunc_ata_init                               output.o
__initfunc_beep_init_msg                          output.o
__initfunc_cache_init_pass                        output.o
__initfunc_cache_init_pcpu                        output.o
__initfunc_cache_init_vcpu                        output.o
__initfunc_callrealmode_init_global               output.o
__initfunc_callrealmode_panic                     output.o
__initfunc_copy_minios                            output.o
__initfunc_core_init                              output.o
__initfunc_cpu_mmu_spt_init_global                output.o
__initfunc_cpu_mmu_spt_init_pcpu                  output.o
__initfunc_cpuid_init                             output.o
__initfunc_cpuid_pass_init                        output.o
__initfunc_create_pass_vm                         output.o
__initfunc_debug_ata_init                         output.o
__initfunc_debug_on_shift_key                     output.o
__initfunc_ehci_init                              output.o
__initfunc_end                                    output.o
__initfunc_exint_pass_init                        output.o
__initfunc_get_shiftflags                         output.o
__initfunc_gmm_pass_init                          output.o
__initfunc_idman_init                             output.o
__initfunc_idman_init_global                      output.o
__initfunc_idman_kernel_init                      output.o
__initfunc_ieee1394_init                          output.o
__initfunc_ieee1394_init_boot                     output.o
__initfunc_install_int0x15_hook                   output.o
__initfunc_int_init_global                        output.o
__initfunc_int_wakeup                             output.o
__initfunc_io_io_init                             output.o
__initfunc_io_iopass_init                         output.o
__initfunc_iommu_setup                            output.o
__initfunc_keyboard_init_msg                      output.o
__initfunc_localapic_init                         output.o
__initfunc_mm_init_global                         output.o
__initfunc_mmio_debug                             output.o
__initfunc_mmio_init                              output.o
__initfunc_msg_init_global                        output.o
__initfunc_msr_init                               output.o
__initfunc_msr_pass_init                          output.o
__initfunc_nmi_pass_init                          output.o
__initfunc_nmi_pass_init_pcpu                     output.o
__initfunc_panic_init_global                      output.o
__initfunc_panic_init_global3                     output.o
__initfunc_panic_init_msg                         output.o
__initfunc_panic_init_pcpu                        output.o
__initfunc_pci_init                               output.o
__initfunc_print_boot_msg                         output.o
__initfunc_printf_init_global                     output.o
__initfunc_pro100_init                            output.o
__initfunc_process_init_ap                        output.o
__initfunc_process_init_global                    output.o
__initfunc_process_wakeup                         output.o
__initfunc_random_init_config0                    output.o
__initfunc_random_init_global                     output.o
__initfunc_reboot_init_msg                        output.o
__initfunc_resume_pro1000                         output.o
__initfunc_segment_init_global                    output.o
__initfunc_serial_init_msg                        output.o
__initfunc_setiohooks                             output.o
__initfunc_sleep_init_global                      output.o
__initfunc_sleep_init_msg                         output.o
__initfunc_start                                  output.o
__initfunc_storage_io_initfunc                    output.o
__initfunc_storage_kernel_init                    output.o
__initfunc_suspend_pro1000                        output.o
__initfunc_svm_panic                              output.o
__initfunc_sx_init_pass_init                      output.o
__initfunc_thread_init_global                     output.o
__initfunc_thread_init_pcpu                       output.o
__initfunc_time_init_global                       output.o
__initfunc_time_init_global_status                output.o
__initfunc_time_init_msg                          output.o
__initfunc_time_init_pcpu                         output.o
__initfunc_timer_init_global                      output.o
__initfunc_tty_init_global                        output.o
__initfunc_tty_init_global2                       output.o
__initfunc_tty_init_msg                           output.o
__initfunc_uhci_init                              output.o
__initfunc_unmap_user_area                        output.o
__initfunc_vcpu_init_global                       output.o
__initfunc_vga_init                               output.o
__initfunc_virtualization_init_pcpu               output.o
__initfunc_vmmcall_boot_init                      output.o
__initfunc_vmmcall_dbgsh_init                     output.o
__initfunc_vmmcall_dbgsh_init_global              output.o
__initfunc_vmmcall_dbgsh_init_pcpu                output.o
__initfunc_vmmcall_iccard_init                    output.o
__initfunc_vmmcall_init                           output.o
__initfunc_vmmcall_log_init                       output.o
__initfunc_vmmcall_status_init                    output.o
__initfunc_vmmcall_status_init_global             output.o
__initfunc_vpn_kernel_init                        output.o
__initfunc_vpn_pro1000_init                       output.o
__initfunc_vramwrite_init_bsp                     output.o
__initfunc_vramwrite_init_msg                     output.o
__initfunc_vt_panic                               output.o
__initfunc_vt_register_status_callback            output.o
__initfunc_xsetbv_init                            output.o
__initfunc_xsetbv_pass_init                       output.o
__process_builtin                                 output.o
__process_builtin_end                             output.o
_dprintf                                          output.o
_dprintft                                         output.o
_shadow_DES_check_key                             output.o
a2d_ASN1_OBJECT                                   output.o
a2i_ASN1_INTEGER                                  output.o
a2i_ASN1_STRING                                   output.o
a2i_GENERAL_NAME                                  output.o
a2i_IPADDRESS                                     output.o
a2i_IPADDRESS_NC                                  output.o
a2i_ipadd                                         output.o
acpi_dsdt_parse                                   output.o
acpi_dsdt_system_state                            output.o
acpi_iohook                                       output.o
acpi_poweroff                                     output.o
acpi_reset                                        output.o
acpi_smi_hook                                     output.o
add_remap                                         output.o
aes_xts_init                                      output.o
ahci_config_read                                  output.o
ahci_config_write                                 output.o
ahci_new                                          output.o
alloc                                             output.o
alloc2                                            output.o
alloc_handler_descriptor                          output.o
alloc_page                                        output.o
alloc_pages                                       output.o
alloc_realmodemem                                 output.o
allocateNewAppID                                  output.o
allocateNewApplicationIdentifiers                 output.o
allocateNewVMID                                   output.o
ap_start_addr                                     output.o
apic_available                                    output.o
apinit_lock                                       output.o
apinit_procs                                      output.o
apinitproc0                                       output.o
app_pkey_methods                                  output.o
asm_vmlaunch_regs_32                              output.o
asm_vmlaunch_regs_64                              output.o
asm_vmresume_regs_32                              output.o
asm_vmresume_regs_64                              output.o
asm_vmrun_regs_32                                 output.o
asm_vmrun_regs_64                                 output.o
asn1_Finish                                       output.o
asn1_GetSequence                                  output.o
asn1_add_error                                    output.o
asn1_const_Finish                                 output.o
asn1_do_adb                                       output.o
asn1_do_lock                                      output.o
asn1_enc_free                                     output.o
asn1_enc_init                                     output.o
asn1_enc_restore                                  output.o
asn1_enc_save                                     output.o
asn1_ex_c2i                                       output.o
asn1_ex_i2c                                       output.o
asn1_get_choice_selector                          output.o
asn1_get_field_ptr                                output.o
asn1_set_choice_selector                          output.o
asn1_template_print_ctx                           output.o
assertion_failed                                  output.o
ata_ahci_mode                                     output.o
ata_bm_handle_command                             output.o
ata_bm_handle_device_specific                     output.o
ata_bm_handle_prd_table                           output.o
ata_bm_handle_status                              output.o
ata_bm_handler                                    output.o
ata_bm_handler_table                              output.o
ata_channel_lock                                  output.o
ata_channel_unlock                                output.o
ata_cmdblk_handler                                output.o
ata_cmdblk_handler_table                          output.o
ata_config_read                                   output.o
ata_config_write                                  output.o
ata_ctlblk_handler                                output.o
ata_ctlblk_handler_table                          output.o
ata_get_cmd_type                                  output.o
ata_handle_queued_status                          output.o
ata_init_io_handler                               output.o
ata_init_vendor                                   output.o
ata_set_bm_handler                                output.o
ata_set_cmdblk_handler                            output.o
ata_set_ctlblk_handler                            output.o
atapi_handle_cmd_packet                           output.o
atapi_handle_config_data                          output.o
atapi_handle_interrupt_reason                     output.o
atapi_handle_packet_data                          output.o
atapi_handle_pio_identify_packet                  output.o
auto_reboot                                       output.o
backtrace                                         output.o
beep_off                                          output.o
beep_on                                           output.o
beep_set_freq                                     output.o
bn_add_part_words                                 output.o
bn_add_words                                      output.o
bn_cmp_part_words                                 output.o
bn_cmp_words                                      output.o
bn_div_words                                      output.o
bn_dup_expand                                     output.o
bn_expand2                                        output.o
bn_mul_add_words                                  output.o
bn_mul_comba4                                     output.o
bn_mul_comba8                                     output.o
bn_mul_high                                       output.o
bn_mul_low_normal                                 output.o
bn_mul_low_recursive                              output.o
bn_mul_normal                                     output.o
bn_mul_part_recursive                             output.o
bn_mul_recursive                                  output.o
bn_mul_words                                      output.o
bn_sqr_comba4                                     output.o
bn_sqr_comba8                                     output.o
bn_sqr_normal                                     output.o
bn_sqr_recursive                                  output.o
bn_sqr_words                                      output.o
bn_sub_part_words                                 output.o
bn_sub_words                                      output.o
bss                                               output.o
c2i_ASN1_BIT_STRING                               output.o
c2i_ASN1_INTEGER                                  output.o
c2i_ASN1_OBJECT                                   output.o
cache_get_attr                                    output.o
cache_get_gmsr_amd                                output.o
cache_get_gmtrr                                   output.o
cache_get_gmtrr_attr                              output.o
cache_get_gmtrr_type                              output.o
cache_get_gmtrrcap                                output.o
cache_get_gpat                                    output.o
cache_set_gmsr_amd                                output.o
cache_set_gmtrr                                   output.o
cache_set_gpat                                    output.o
call_cpuid                                        output.o
call_initfunc                                     output.o
call_io                                           output.o
call_read_msr                                     output.o
call_write_msr                                    output.o
call_xsetbv                                       output.o
callfunc_and_getint                               output.o
callrealmode_bootcd_getstatus                     output.o
callrealmode_disk_readlba                         output.o
callrealmode_disk_readmbr                         output.o
callrealmode_end                                  output.o
callrealmode_endofcodeaddr                        output.o
callrealmode_getfontinfo                          output.o
callrealmode_getshiftflags                        output.o
callrealmode_getsysmemmap                         output.o
callrealmode_printmsg                             output.o
callrealmode_reboot                               output.o
callrealmode_setcursorpos                         output.o
callrealmode_setvideomode                         output.o
callrealmode_start                                output.o
callrealmode_start2                               output.o
callrealmode_startkernel32                        output.o
callrealmode_tcgbios                              output.o
callrealmode_usevcpu                              output.o
cancel_sleep                                      output.o
changePageStatus                                  output.o
check_defer                                       output.o
chelp_abort                                       output.o
chelp_bsearch                                     output.o
chelp_div_64_32_32                                output.o
chelp_div_64_32_64                                output.o
chelp_free                                        output.o
chelp_inited                                      output.o
chelp_isalnum                                     output.o
chelp_isalpha                                     output.o
chelp_isdigit                                     output.o
chelp_islower                                     output.o
chelp_isspace                                     output.o
chelp_isupper                                     output.o
chelp_isxdigit                                    output.o
chelp_malloc                                      output.o
chelp_memchr                                      output.o
chelp_memcmp                                      output.o
chelp_memcpy                                      output.o
chelp_memmove                                     output.o
chelp_memset                                      output.o
chelp_mod_64_32_32                                output.o
chelp_mul_64_64_64                                output.o
chelp_print                                       output.o
chelp_printf                                      output.o
chelp_qsort                                       output.o
chelp_realloc                                     output.o
chelp_snprintf                                    output.o
chelp_sprintf                                     output.o
chelp_strcat                                      output.o
chelp_strchr                                      output.o
chelp_strcmp                                      output.o
chelp_strcpy                                      output.o
chelp_stricmp                                     output.o
chelp_strlen                                      output.o
chelp_strncasecmp                                 output.o
chelp_strncmp                                     output.o
chelp_strncpy                                     output.o
chelp_strrchr                                     output.o
chelp_strtol                                      output.o
chelp_strtoul                                     output.o
chelp_strtoul_ex                                  output.o
chelp_swap                                        output.o
chelp_tolower                                     output.o
chelp_toupper                                     output.o
cleanse_ctr                                       output.o
clflush_size                                      output.o
closePage                                         output.o
close_syscall_page                                output.o
cmpxchg_gphys_l                                   output.o
cmpxchg_gphys_q                                   output.o
cmpxchg_hphys_l                                   output.o
cmpxchg_hphys_q                                   output.o
cms_Data_create                                   output.o
cms_DigestAlgorithm_find_ctx                      output.o
cms_DigestAlgorithm_init_bio                      output.o
cms_DigestAlgorithm_set                           output.o
cms_DigestedData_create                           output.o
cms_DigestedData_do_final                         output.o
cms_DigestedData_init_bio                         output.o
cms_EncryptedContent_init                         output.o
cms_EncryptedContent_init_bio                     output.o
cms_EncryptedData_init_bio                        output.o
cms_EnvelopedData_init_bio                        output.o
cms_SignedData_final                              output.o
cms_SignedData_init_bio                           output.o
cms_SignerIdentifier_cert_cmp                     output.o
cms_SignerIdentifier_get0_signer_id               output.o
cms_content_bio                                   output.o
cms_set1_SignerIdentifier                         output.o
config                                            output.o
copy_bootsector                                   output.o
core_init                                         output.o
core_io_handle_default                            output.o
core_io_modify_handler                            output.o
core_io_register_handler                          output.o
core_io_unregister_handler                        output.o
core_mm_read_guest_phys                           output.o
core_mm_write_guest_phys                          output.o
cpu_emul_cli                                      output.o
cpu_emul_cpuid                                    output.o
cpu_emul_hlt                                      output.o
cpu_emul_rdmsr                                    output.o
cpu_emul_realmode_int                             output.o
cpu_emul_sti                                      output.o
cpu_emul_wrmsr                                    output.o
cpu_emul_xsetbv                                   output.o
cpu_interpreter                                   output.o
cpu_mmu_get_pte                                   output.o
cpu_mmu_spt_clear_all                             output.o
cpu_mmu_spt_extern_mapsearch                      output.o
cpu_mmu_spt_init                                  output.o
cpu_mmu_spt_invalidate                            output.o
cpu_mmu_spt_map_1mb                               output.o
cpu_mmu_spt_pagefault                             output.o
cpu_mmu_spt_tlbflush                              output.o
cpu_mmu_spt_updatecr3                             output.o
cpu_seg_read_b                                    output.o
cpu_seg_read_l                                    output.o
cpu_seg_read_q                                    output.o
cpu_seg_read_w                                    output.o
cpu_seg_write_b                                   output.o
cpu_seg_write_l                                   output.o
cpu_seg_write_q                                   output.o
cpu_seg_write_w                                   output.o
cpu_stack_get                                     output.o
cpu_stack_pop                                     output.o
cpu_stack_push                                    output.o
cpu_stack_set                                     output.o
cpuinit_end                                       output.o
cpuinit_start                                     output.o
create_dom                                        output.o
crypt_sys_rsa_sign                                output.o
crypto_find                                       output.o
crypto_init                                       output.o
crypto_none_init                                  output.o
crypto_register                                   output.o
currentRunningApplication                         output.o
curthread                                         output.o
d2i_ACCESS_DESCRIPTION                            output.o
d2i_ASN1_BIT_STRING                               output.o
d2i_ASN1_BMPSTRING                                output.o
d2i_ASN1_BOOLEAN                                  output.o
d2i_ASN1_ENUMERATED                               output.o
d2i_ASN1_GENERALIZEDTIME                          output.o
d2i_ASN1_GENERALSTRING                            output.o
d2i_ASN1_IA5STRING                                output.o
d2i_ASN1_INTEGER                                  output.o
d2i_ASN1_NULL                                     output.o
d2i_ASN1_OBJECT                                   output.o
d2i_ASN1_OCTET_STRING                             output.o
d2i_ASN1_PRINTABLE                                output.o
d2i_ASN1_PRINTABLESTRING                          output.o
d2i_ASN1_SEQUENCE_ANY                             output.o
d2i_ASN1_SET                                      output.o
d2i_ASN1_SET_ANY                                  output.o
d2i_ASN1_T61STRING                                output.o
d2i_ASN1_TIME                                     output.o
d2i_ASN1_TYPE                                     output.o
d2i_ASN1_UINTEGER                                 output.o
d2i_ASN1_UNIVERSALSTRING                          output.o
d2i_ASN1_UTCTIME                                  output.o
d2i_ASN1_UTF8STRING                               output.o
d2i_ASN1_VISIBLESTRING                            output.o
d2i_ASN1_bytes                                    output.o
d2i_ASN1_type_bytes                               output.o
d2i_AUTHORITY_INFO_ACCESS                         output.o
d2i_AUTHORITY_KEYID                               output.o
d2i_AutoPrivateKey                                output.o
d2i_BASIC_CONSTRAINTS                             output.o
d2i_CERTIFICATEPOLICIES                           output.o
d2i_CMS_ContentInfo                               output.o
d2i_CMS_bio                                       output.o
d2i_CRL_DIST_POINTS                               output.o
d2i_DHparams                                      output.o
d2i_DIRECTORYSTRING                               output.o
d2i_DISPLAYTEXT                                   output.o
d2i_DIST_POINT                                    output.o
d2i_DIST_POINT_NAME                               output.o
d2i_DSAPrivateKey                                 output.o
d2i_DSAPrivateKey_bio                             output.o
d2i_DSAPublicKey                                  output.o
d2i_DSA_PUBKEY                                    output.o
d2i_DSA_PUBKEY_bio                                output.o
d2i_DSA_SIG                                       output.o
d2i_DSAparams                                     output.o
d2i_ECDSA_SIG                                     output.o
d2i_ECPKPARAMETERS                                output.o
d2i_ECPKParameters                                output.o
d2i_ECParameters                                  output.o
d2i_ECPrivateKey                                  output.o
d2i_ECPrivateKey_bio                              output.o
d2i_EC_PRIVATEKEY                                 output.o
d2i_EC_PUBKEY                                     output.o
d2i_EC_PUBKEY_bio                                 output.o
d2i_EDIPARTYNAME                                  output.o
d2i_EXTENDED_KEY_USAGE                            output.o
d2i_GENERAL_NAME                                  output.o
d2i_GENERAL_NAMES                                 output.o
d2i_ISSUING_DIST_POINT                            output.o
d2i_NETSCAPE_CERT_SEQUENCE                        output.o
d2i_NETSCAPE_SPKAC                                output.o
d2i_NETSCAPE_SPKI                                 output.o
d2i_NOTICEREF                                     output.o
d2i_OCSP_BASICRESP                                output.o
d2i_OCSP_CERTID                                   output.o
d2i_OCSP_CERTSTATUS                               output.o
d2i_OCSP_CRLID                                    output.o
d2i_OCSP_ONEREQ                                   output.o
d2i_OCSP_REQINFO                                  output.o
d2i_OCSP_REQUEST                                  output.o
d2i_OCSP_RESPBYTES                                output.o
d2i_OCSP_RESPDATA                                 output.o
d2i_OCSP_RESPID                                   output.o
d2i_OCSP_RESPONSE                                 output.o
d2i_OCSP_REVOKEDINFO                              output.o
d2i_OCSP_SERVICELOC                               output.o
d2i_OCSP_SIGNATURE                                output.o
d2i_OCSP_SINGLERESP                               output.o
d2i_OTHERNAME                                     output.o
d2i_PBE2PARAM                                     output.o
d2i_PBEPARAM                                      output.o
d2i_PBKDF2PARAM                                   output.o
d2i_PKCS12                                        output.o
d2i_PKCS12_BAGS                                   output.o
d2i_PKCS12_MAC_DATA                               output.o
d2i_PKCS12_SAFEBAG                                output.o
d2i_PKCS12_bio                                    output.o
d2i_PKCS7                                         output.o
d2i_PKCS7_DIGEST                                  output.o
d2i_PKCS7_ENCRYPT                                 output.o
d2i_PKCS7_ENC_CONTENT                             output.o
d2i_PKCS7_ENVELOPE                                output.o
d2i_PKCS7_ISSUER_AND_SERIAL                       output.o
d2i_PKCS7_RECIP_INFO                              output.o
d2i_PKCS7_SIGNED                                  output.o
d2i_PKCS7_SIGNER_INFO                             output.o
d2i_PKCS7_SIGN_ENVELOPE                           output.o
d2i_PKCS7_bio                                     output.o
d2i_PKCS8PrivateKey_bio                           output.o
d2i_PKCS8_PRIV_KEY_INFO                           output.o
d2i_PKCS8_PRIV_KEY_INFO_bio                       output.o
d2i_PKCS8_bio                                     output.o
d2i_PKEY_USAGE_PERIOD                             output.o
d2i_POLICYINFO                                    output.o
d2i_POLICYQUALINFO                                output.o
d2i_PROXY_CERT_INFO_EXTENSION                     output.o
d2i_PROXY_POLICY                                  output.o
d2i_PUBKEY                                        output.o
d2i_PUBKEY_bio                                    output.o
d2i_PrivateKey                                    output.o
d2i_PrivateKey_bio                                output.o
d2i_RSAPrivateKey                                 output.o
d2i_RSAPrivateKey_bio                             output.o
d2i_RSAPublicKey                                  output.o
d2i_RSAPublicKey_bio                              output.o
d2i_RSA_PUBKEY                                    output.o
d2i_RSA_PUBKEY_bio                                output.o
d2i_SXNET                                         output.o
d2i_SXNETID                                       output.o
d2i_USERNOTICE                                    output.o
d2i_X509                                          output.o
d2i_X509_ALGOR                                    output.o
d2i_X509_ALGORS                                   output.o
d2i_X509_ATTRIBUTE                                output.o
d2i_X509_AUX                                      output.o
d2i_X509_CERT_AUX                                 output.o
d2i_X509_CERT_PAIR                                output.o
d2i_X509_CINF                                     output.o
d2i_X509_CRL                                      output.o
d2i_X509_CRL_INFO                                 output.o
d2i_X509_CRL_bio                                  output.o
d2i_X509_EXTENSION                                output.o
d2i_X509_EXTENSIONS                               output.o
d2i_X509_NAME                                     output.o
d2i_X509_NAME_ENTRY                               output.o
d2i_X509_PUBKEY                                   output.o
d2i_X509_REQ                                      output.o
d2i_X509_REQ_INFO                                 output.o
d2i_X509_REQ_bio                                  output.o
d2i_X509_REVOKED                                  output.o
d2i_X509_SIG                                      output.o
d2i_X509_VAL                                      output.o
d2i_X509_bio                                      output.o
deactivate_and_delete_urb                         output.o
debug_addstr                                      output.o
debug_gdb                                         output.o
debug_iohook                                      output.o
debug_msgregister                                 output.o
debug_msgunregister                               output.o
decryptcfg                                        output.o
default_pctx                                      output.o
dh_asn1_meth                                      output.o
dh_pkey_meth                                      output.o
disable_apic                                      output.o
do_exint_pass                                     output.o
do_externalint_enable                             output.o
do_io_nothing                                     output.o
do_iopass_default                                 output.o
do_panic_reboot                                   output.o
dom_io                                            output.o
dprintf_port                                      output.o
drhd_list_head                                    output.o
dsa_asn1_meths                                    output.o
dsa_builtin_paramgen                              output.o
dsa_pkey_meth                                     output.o
dsa_pub_internal_it                               output.o
dump_frame                                        output.o
dump_qh                                           output.o
dump_td                                           output.o
dump_td_byvirt                                    output.o
dwReaders                                         output.o
e801_fake_ax                                      output.o
e801_fake_bx                                      output.o
ec_GF2m_have_precompute_mult                      output.o
ec_GF2m_precompute_mult                           output.o
ec_GF2m_simple_add                                output.o
ec_GF2m_simple_cmp                                output.o
ec_GF2m_simple_dbl                                output.o
ec_GF2m_simple_field_div                          output.o
ec_GF2m_simple_field_mul                          output.o
ec_GF2m_simple_field_sqr                          output.o
ec_GF2m_simple_group_check_discriminant           output.o
ec_GF2m_simple_group_clear_finish                 output.o
ec_GF2m_simple_group_copy                         output.o
ec_GF2m_simple_group_finish                       output.o
ec_GF2m_simple_group_get_curve                    output.o
ec_GF2m_simple_group_get_degree                   output.o
ec_GF2m_simple_group_init                         output.o
ec_GF2m_simple_group_set_curve                    output.o
ec_GF2m_simple_invert                             output.o
ec_GF2m_simple_is_at_infinity                     output.o
ec_GF2m_simple_is_on_curve                        output.o
ec_GF2m_simple_make_affine                        output.o
ec_GF2m_simple_mul                                output.o
ec_GF2m_simple_oct2point                          output.o
ec_GF2m_simple_point2oct                          output.o
ec_GF2m_simple_point_clear_finish                 output.o
ec_GF2m_simple_point_copy                         output.o
ec_GF2m_simple_point_finish                       output.o
ec_GF2m_simple_point_get_affine_coordinates       output.o
ec_GF2m_simple_point_init                         output.o
ec_GF2m_simple_point_set_affine_coordinates       output.o
ec_GF2m_simple_point_set_to_infinity              output.o
ec_GF2m_simple_points_make_affine                 output.o
ec_GF2m_simple_set_compressed_coordinates         output.o
ec_GFp_mont_field_decode                          output.o
ec_GFp_mont_field_encode                          output.o
ec_GFp_mont_field_mul                             output.o
ec_GFp_mont_field_set_to_one                      output.o
ec_GFp_mont_field_sqr                             output.o
ec_GFp_mont_group_clear_finish                    output.o
ec_GFp_mont_group_copy                            output.o
ec_GFp_mont_group_finish                          output.o
ec_GFp_mont_group_init                            output.o
ec_GFp_mont_group_set_curve                       output.o
ec_GFp_nist_field_mul                             output.o
ec_GFp_nist_field_sqr                             output.o
ec_GFp_nist_group_copy                            output.o
ec_GFp_nist_group_set_curve                       output.o
ec_GFp_simple_add                                 output.o
ec_GFp_simple_cmp                                 output.o
ec_GFp_simple_dbl                                 output.o
ec_GFp_simple_field_mul                           output.o
ec_GFp_simple_field_sqr                           output.o
ec_GFp_simple_get_Jprojective_coordinates_GFp     output.o
ec_GFp_simple_group_check_discriminant            output.o
ec_GFp_simple_group_clear_finish                  output.o
ec_GFp_simple_group_copy                          output.o
ec_GFp_simple_group_finish                        output.o
ec_GFp_simple_group_get_curve                     output.o
ec_GFp_simple_group_get_degree                    output.o
ec_GFp_simple_group_init                          output.o
ec_GFp_simple_group_set_curve                     output.o
ec_GFp_simple_invert                              output.o
ec_GFp_simple_is_at_infinity                      output.o
ec_GFp_simple_is_on_curve                         output.o
ec_GFp_simple_make_affine                         output.o
ec_GFp_simple_oct2point                           output.o
ec_GFp_simple_point2oct                           output.o
ec_GFp_simple_point_clear_finish                  output.o
ec_GFp_simple_point_copy                          output.o
ec_GFp_simple_point_finish                        output.o
ec_GFp_simple_point_get_affine_coordinates        output.o
ec_GFp_simple_point_init                          output.o
ec_GFp_simple_point_set_affine_coordinates        output.o
ec_GFp_simple_point_set_to_infinity               output.o
ec_GFp_simple_points_make_affine                  output.o
ec_GFp_simple_set_Jprojective_coordinates_GFp     output.o
ec_GFp_simple_set_compressed_coordinates          output.o
ec_pkey_meth                                      output.o
ec_wNAF_have_precompute_mult                      output.o
ec_wNAF_mul                                       output.o
ec_wNAF_precompute_mult                           output.o
ecdh_check                                        output.o
ecdsa_check                                       output.o
eckey_asn1_meth                                   output.o
ehci_check_advance                                output.o
ehci_check_urb_advance                            output.o
ehci_cleanup_urbs                                 output.o
ehci_conceal_portroute                            output.o
ehci_deactivate_urb                               output.o
ehci_dump_alist                                   output.o
ehci_dump_all                                     output.o
ehci_dump_async                                   output.o
ehci_dump_qtd                                     output.o
ehci_dump_qtdm                                    output.o
ehci_dump_urb                                     output.o
ehci_dump_urblist                                 output.o
ehci_end_monitor_async                            output.o
ehci_host                                         output.o
ehci_init                                         output.o
ehci_monitor_async_list                           output.o
ehci_shadow_async_list                            output.o
ehci_shadow_buffer                                output.o
ehci_submit_bulk                                  output.o
ehci_submit_control                               output.o
ehci_submit_interrupt                             output.o
end                                               output.o
entry                                             output.o
entry_pd                                          output.o
entry_pd0                                         output.o
entry_pdp                                         output.o
evp_pkey_set_cb_translate                         output.o
exitprocess                                       output.o
free                                              output.o
free_config_descriptors                           output.o
free_device                                       output.o
free_page                                         output.o
free_page_phys                                    output.o
g_rgSCardT0Pci                                    output.o
g_rgSCardT1Pci                                    output.o
getMemoryOwnershipTableEntry                      output.o
getMemoryOwnershipTableIndex                      output.o
get_acpi_time                                     output.o
get_acpi_time_raw                                 output.o
get_cpu_id                                        output.o
get_cpu_time                                      output.o
get_ept_base_HPA                                  output.o
get_guest_cr3_value                               output.o
get_guest_eptp_value                              output.o
get_gurb_by_address                               output.o
get_idman_session                                 output.o
get_page_table_base_GPA                           output.o
get_seg_access_rights                             output.o
get_seg_base                                      output.o
get_time                                          output.o
getfakesysmemmap                                  output.o
getsysmemmap                                      output.o
gmm_pass_gp2hp                                    output.o
gpaToHPA                                          output.o
gs_current                                        output.o
gs_currentcpu                                     output.o
gs_init_count                                     output.o
gs_inthandling                                    output.o
gs_nmi                                            output.o
gs_syscallstack                                   output.o
guest_int0x15_e801_fake_ax                        output.o
guest_int0x15_e801_fake_bx                        output.o
guest_int0x15_e820_data_minus0x18                 output.o
guest_int0x15_e820_end                            output.o
guest_int0x15_hook                                output.o
guest_int0x15_hook_end                            output.o
guest_int0x15_orig                                output.o
gvaToGPA                                          output.o
hContext                                          output.o
hObjectCnt                                        output.o
hSessionCnt                                       output.o
handle_connect_status                             output.o
handle_init_to_bsp                                output.o
handle_port_reset                                 output.o
handler_descriptor                                output.o
handler_descriptor_lock                           output.o
head                                              output.o
hex_to_string                                     output.o
hmac_asn1_meth                                    output.o
hmac_pkey_meth                                    output.o
hub_portdevice_register                           output.o
hypercall_handler                                 output.o
i2a_ACCESS_DESCRIPTION                            output.o
i2a_ASN1_INTEGER                                  output.o
i2a_ASN1_OBJECT                                   output.o
i2a_ASN1_STRING                                   output.o
i2c_ASN1_BIT_STRING                               output.o
i2c_ASN1_INTEGER                                  output.o
i2d_ACCESS_DESCRIPTION                            output.o
i2d_ASN1_BIT_STRING                               output.o
i2d_ASN1_BMPSTRING                                output.o
i2d_ASN1_BOOLEAN                                  output.o
i2d_ASN1_ENUMERATED                               output.o
i2d_ASN1_GENERALIZEDTIME                          output.o
i2d_ASN1_GENERALSTRING                            output.o
i2d_ASN1_IA5STRING                                output.o
i2d_ASN1_INTEGER                                  output.o
i2d_ASN1_NULL                                     output.o
i2d_ASN1_OBJECT                                   output.o
i2d_ASN1_OCTET_STRING                             output.o
i2d_ASN1_PRINTABLE                                output.o
i2d_ASN1_PRINTABLESTRING                          output.o
i2d_ASN1_SEQUENCE_ANY                             output.o
i2d_ASN1_SET                                      output.o
i2d_ASN1_SET_ANY                                  output.o
i2d_ASN1_T61STRING                                output.o
i2d_ASN1_TIME                                     output.o
i2d_ASN1_TYPE                                     output.o
i2d_ASN1_UNIVERSALSTRING                          output.o
i2d_ASN1_UTCTIME                                  output.o
i2d_ASN1_UTF8STRING                               output.o
i2d_ASN1_VISIBLESTRING                            output.o
i2d_ASN1_bio_stream                               output.o
i2d_ASN1_bytes                                    output.o
i2d_AUTHORITY_INFO_ACCESS                         output.o
i2d_AUTHORITY_KEYID                               output.o
i2d_BASIC_CONSTRAINTS                             output.o
i2d_CERTIFICATEPOLICIES                           output.o
i2d_CMS_ContentInfo                               output.o
i2d_CMS_bio                                       output.o
i2d_CMS_bio_stream                                output.o
i2d_CRL_DIST_POINTS                               output.o
i2d_DHparams                                      output.o
i2d_DIRECTORYSTRING                               output.o
i2d_DISPLAYTEXT                                   output.o
i2d_DIST_POINT                                    output.o
i2d_DIST_POINT_NAME                               output.o
i2d_DSAPrivateKey                                 output.o
i2d_DSAPrivateKey_bio                             output.o
i2d_DSAPublicKey                                  output.o
i2d_DSA_PUBKEY                                    output.o
i2d_DSA_PUBKEY_bio                                output.o
i2d_DSA_SIG                                       output.o
i2d_DSAparams                                     output.o
i2d_ECDSA_SIG                                     output.o
i2d_ECPKPARAMETERS                                output.o
i2d_ECPKParameters                                output.o
i2d_ECParameters                                  output.o
i2d_ECPrivateKey                                  output.o
i2d_ECPrivateKey_bio                              output.o
i2d_EC_PRIVATEKEY                                 output.o
i2d_EC_PUBKEY                                     output.o
i2d_EC_PUBKEY_bio                                 output.o
i2d_EDIPARTYNAME                                  output.o
i2d_EXTENDED_KEY_USAGE                            output.o
i2d_GENERAL_NAME                                  output.o
i2d_GENERAL_NAMES                                 output.o
i2d_ISSUING_DIST_POINT                            output.o
i2d_NETSCAPE_CERT_SEQUENCE                        output.o
i2d_NETSCAPE_SPKAC                                output.o
i2d_NETSCAPE_SPKI                                 output.o
i2d_NOTICEREF                                     output.o
i2d_OCSP_BASICRESP                                output.o
i2d_OCSP_CERTID                                   output.o
i2d_OCSP_CERTSTATUS                               output.o
i2d_OCSP_CRLID                                    output.o
i2d_OCSP_ONEREQ                                   output.o
i2d_OCSP_REQINFO                                  output.o
i2d_OCSP_REQUEST                                  output.o
i2d_OCSP_RESPBYTES                                output.o
i2d_OCSP_RESPDATA                                 output.o
i2d_OCSP_RESPID                                   output.o
i2d_OCSP_RESPONSE                                 output.o
i2d_OCSP_REVOKEDINFO                              output.o
i2d_OCSP_SERVICELOC                               output.o
i2d_OCSP_SIGNATURE                                output.o
i2d_OCSP_SINGLERESP                               output.o
i2d_OTHERNAME                                     output.o
i2d_PBE2PARAM                                     output.o
i2d_PBEPARAM                                      output.o
i2d_PBKDF2PARAM                                   output.o
i2d_PKCS12                                        output.o
i2d_PKCS12_BAGS                                   output.o
i2d_PKCS12_MAC_DATA                               output.o
i2d_PKCS12_SAFEBAG                                output.o
i2d_PKCS12_bio                                    output.o
i2d_PKCS7                                         output.o
i2d_PKCS7_DIGEST                                  output.o
i2d_PKCS7_ENCRYPT                                 output.o
i2d_PKCS7_ENC_CONTENT                             output.o
i2d_PKCS7_ENVELOPE                                output.o
i2d_PKCS7_ISSUER_AND_SERIAL                       output.o
i2d_PKCS7_NDEF                                    output.o
i2d_PKCS7_RECIP_INFO                              output.o
i2d_PKCS7_SIGNED                                  output.o
i2d_PKCS7_SIGNER_INFO                             output.o
i2d_PKCS7_SIGN_ENVELOPE                           output.o
i2d_PKCS7_bio                                     output.o
i2d_PKCS8PrivateKeyInfo_bio                       output.o
i2d_PKCS8PrivateKey_bio                           output.o
i2d_PKCS8PrivateKey_nid_bio                       output.o
i2d_PKCS8_PRIV_KEY_INFO                           output.o
i2d_PKCS8_PRIV_KEY_INFO_bio                       output.o
i2d_PKCS8_bio                                     output.o
i2d_PKEY_USAGE_PERIOD                             output.o
i2d_POLICYINFO                                    output.o
i2d_POLICYQUALINFO                                output.o
i2d_PROXY_CERT_INFO_EXTENSION                     output.o
i2d_PROXY_POLICY                                  output.o
i2d_PUBKEY                                        output.o
i2d_PUBKEY_bio                                    output.o
i2d_PrivateKey                                    output.o
i2d_PrivateKey_bio                                output.o
i2d_RSAPrivateKey                                 output.o
i2d_RSAPrivateKey_bio                             output.o
i2d_RSAPublicKey                                  output.o
i2d_RSAPublicKey_bio                              output.o
i2d_RSA_PUBKEY                                    output.o
i2d_RSA_PUBKEY_bio                                output.o
i2d_SXNET                                         output.o
i2d_SXNETID                                       output.o
i2d_USERNOTICE                                    output.o
i2d_X509                                          output.o
i2d_X509_ALGOR                                    output.o
i2d_X509_ALGORS                                   output.o
i2d_X509_ATTRIBUTE                                output.o
i2d_X509_AUX                                      output.o
i2d_X509_CERT_AUX                                 output.o
i2d_X509_CERT_PAIR                                output.o
i2d_X509_CINF                                     output.o
i2d_X509_CRL                                      output.o
i2d_X509_CRL_INFO                                 output.o
i2d_X509_CRL_bio                                  output.o
i2d_X509_EXTENSION                                output.o
i2d_X509_EXTENSIONS                               output.o
i2d_X509_NAME                                     output.o
i2d_X509_NAME_ENTRY                               output.o
i2d_X509_PUBKEY                                   output.o
i2d_X509_REQ                                      output.o
i2d_X509_REQ_INFO                                 output.o
i2d_X509_REQ_bio                                  output.o
i2d_X509_REVOKED                                  output.o
i2d_X509_SIG                                      output.o
i2d_X509_VAL                                      output.o
i2d_X509_bio                                      output.o
i2o_ECPublicKey                                   output.o
i2s_ASN1_ENUMERATED                               output.o
i2s_ASN1_ENUMERATED_TABLE                         output.o
i2s_ASN1_INTEGER                                  output.o
i2s_ASN1_OCTET_STRING                             output.o
i2t_ASN1_OBJECT                                   output.o
i2v_ASN1_BIT_STRING                               output.o
i2v_GENERAL_NAME                                  output.o
i2v_GENERAL_NAMES                                 output.o
idea_cbc_encrypt                                  output.o
idea_cfb64_encrypt                                output.o
idea_ecb_encrypt                                  output.o
idea_encrypt                                      output.o
idea_ofb64_encrypt                                output.o
idea_options                                      output.o
idea_set_decrypt_key                              output.o
idea_set_encrypt_key                              output.o
idman_reinit2                                     output.o
idman_reinit_session                              output.o
idman_user_init                                   output.o
ieee1394_init                                     output.o
init_hframelist                                   output.o
initfunc_init                                     output.o
initializeNewProtectedApplication                 output.o
int1a_TCG_CompactHashLogExtendEvent               output.o
int1a_TCG_HashAll                                 output.o
int1a_TCG_HashLogEvent                            output.o
int1a_TCG_HashLogExtendEvent                      output.o
int1a_TCG_PassThroughToTPM                        output.o
int1a_TCG_StatusCheck                             output.o
int1a_TCG_TSS                                     output.o
int_callfunc                                      output.o
int_exceptionHandler                              output.o
int_fatal                                         output.o
int_handler                                       output.o
int_init_ap                                       output.o
int_rsa_verify                                    output.o
iodom_init                                        output.o
iommu_detected                                    output.o
iommu_setup                                       output.o
ipchecksum                                        output.o
keyboard_flush                                    output.o
keyboard_reset                                    output.o
level_add_node                                    output.o
level_find_node                                   output.o
lh_delete                                         output.o
lh_doall                                          output.o
lh_doall_arg                                      output.o
lh_free                                           output.o
lh_insert                                         output.o
lh_new                                            output.o
lh_num_items                                      output.o
lh_retrieve                                       output.o
lh_strhash                                        output.o
lh_version                                        output.o
libInitFlag                                       output.o
load_bootsector                                   output.o
load_minios                                       output.o
load_new_vcpu                                     output.o
localapic_change_base_msr                         output.o
localapic_mmio_register                           output.o
localapic_wait_for_sipi                           output.o
mapHPAintoHVA                                     output.o
mapmem                                            output.o
mapmem_gphys                                      output.o
mapmem_hphys                                      output.o
matched_drhd_u                                    output.o
md4_block_data_order                              output.o
md5_block_data_order                              output.o
memcmp                                            output.o
memcpy                                            output.o
memorysize                                        output.o
mempool_allocmem                                  output.o
mempool_free                                      output.o
mempool_freemem                                   output.o
mempool_new                                       output.o
memset                                            output.o
message_exitcode                                  output.o
message_exitreason                                output.o
mm_flush_wb_cache                                 output.o
mm_force_unlock                                   output.o
mm_process_alloc                                  output.o
mm_process_free                                   output.o
mm_process_map_alloc                              output.o
mm_process_map_shared                             output.o
mm_process_map_shared_physpage                    output.o
mm_process_map_stack                              output.o
mm_process_switch                                 output.o
mm_process_unmap                                  output.o
mm_process_unmap_stack                            output.o
mm_process_unmapall                               output.o
mmio_access_memory                                output.o
mmio_access_page                                  output.o
mmio_lock                                         output.o
mmio_register                                     output.o
mmio_unlock                                       output.o
mmio_unregister                                   output.o
monitor_vmcs_read                                 output.o
move_vmm_area32                                   output.o
move_vmm_area64                                   output.o
mpudiv_128_32                                     output.o
mpumul_64_64                                      output.o
msg_findname                                      output.o
msg_register                                      output.o
msg_unregister                                    output.o
msg_unregister2                                   output.o
msg_unregisterall                                 output.o
msg_usb_bulk_read                                 output.o
msg_usb_bulk_write                                output.o
msg_usb_claim_interface                           output.o
msg_usb_close                                     output.o
msg_usb_control_msg                               output.o
msg_usb_find_busses                               output.o
msg_usb_find_devices                              output.o
msg_usb_get_busses                                output.o
msg_usb_get_string_simple                         output.o
msg_usb_init                                      output.o
msg_usb_open                                      output.o
msg_usb_release_interface                         output.o
msg_usb_reset                                     output.o
msg_vpn_FreeTimer                                 output.o
msg_vpn_GetCurrentCpuId                           output.o
msg_vpn_GetPhysicalNicInfo                        output.o
msg_vpn_GetTickCount                              output.o
msg_vpn_GetVirtualNicInfo                         output.o
msg_vpn_NewTimer                                  output.o
msg_vpn_SendPhysicalNic                           output.o
msg_vpn_SendVirtualNic                            output.o
msg_vpn_SetPhysicalNicRecvCallback                output.o
msg_vpn_SetTimer                                  output.o
msg_vpn_SetVirtualNicRecvCallback                 output.o
msg_vpn_ic_rsa_sign                               output.o
msgclose                                          output.o
msgopen                                           output.o
msgpremapbuf                                      output.o
msgregister                                       output.o
msgsendbuf                                        output.o
msgsenddesc                                       output.o
msgsendint                                        output.o
msgsetfunc                                        output.o
msgunregister                                     output.o
mszReaders                                        output.o
name_cmp                                          output.o
newprocess                                        output.o
num_dom                                           output.o
num_of_available_pages                            output.o
num_of_processors                                 output.o
numberOfProtectedApplications                     output.o
numberOfVMs                                       output.o
o2i_ECPublicKey                                   output.o
obj_cleanup_defer                                 output.o
openPage                                          output.o
open_syscall_page                                 output.o
packet_handle_command                             output.o
packet_handle_config                              output.o
packet_handle_invalid                             output.o
packet_handle_nondata                             output.o
packet_handle_rw                                  output.o
packet_handle_through                             output.o
panic                                             output.o
panic_oom                                         output.o
panic_test                                        output.o
panic_wakeup_all                                  output.o
parse_dmar_bios_report                            output.o
pci_append_device                                 output.o
pci_conceal_config_data_handler                   output.o
pci_conceal_new_device                            output.o
pci_config_addr_handler                           output.o
pci_config_data_handler                           output.o
pci_device_list_head                              output.o
pci_driver_list_head                              output.o
pci_handle_default_config_write                   output.o
pci_possible_new_device                           output.o
pci_print_device                                  output.o
pci_read_config_data16                            output.o
pci_read_config_data32                            output.o
pci_read_config_data8                             output.o
pci_read_config_data_port                         output.o
pci_register_driver                               output.o
pci_restore_config_addr                           output.o
pci_save_config_addr                              output.o
pci_write_config_data16                           output.o
pci_write_config_data32                           output.o
pci_write_config_data8                            output.o
pci_write_config_data_port                        output.o
pcpu_default                                      output.o
pcpu_init                                         output.o
pcpu_list_add                                     output.o
pcpu_list_foreach                                 output.o
pem_check_suffix                                  output.o
phys_in_vmm                                       output.o
phys_to_virt                                      output.o
pmap_autoalloc                                    output.o
pmap_clear                                        output.o
pmap_close                                        output.o
pmap_dump                                         output.o
pmap_getreadlevel                                 output.o
pmap_open_guest                                   output.o
pmap_open_vmm                                     output.o
pmap_pointer                                      output.o
pmap_read                                         output.o
pmap_seek                                         output.o
pmap_setlevel                                     output.o
pmap_write                                        output.o
policy_cache_find_data                            output.o
policy_cache_free                                 output.o
policy_cache_set                                  output.o
policy_cache_set_mapping                          output.o
policy_data_free                                  output.o
policy_data_new                                   output.o
policy_node_cmp_new                               output.o
policy_node_free                                  output.o
policy_node_match                                 output.o
prepare_for_sleep                                 output.o
printexitcode                                     output.o
printexitreason                                   output.o
printf                                            output.o
pro100_alloc_page                                 output.o
pro100_alloc_recv_buffer                          output.o
pro100_beep                                       output.o
pro100_config_read                                output.o
pro100_config_write                               output.o
pro100_exec_cu_op                                 output.o
pro100_flush                                      output.o
pro100_free_page                                  output.o
pro100_generate_int                               output.o
pro100_get_ctx                                    output.o
pro100_get_cu_command_string                      output.o
pro100_get_int_bit_string                         output.o
pro100_get_op_size                                output.o
pro100_get_ru_command_string                      output.o
pro100_get_stat_ack_string                        output.o
pro100_hook_read                                  output.o
pro100_hook_write                                 output.o
pro100_init                                       output.o
pro100_init_cu_base_addr                          output.o
pro100_init_recv_buffer                           output.o
pro100_init_ru_base_addr                          output.o
pro100_init_vpn_client                            output.o
pro100_io_handler                                 output.o
pro100_mem_read                                   output.o
pro100_mem_write                                  output.o
pro100_mm_handler                                 output.o
pro100_new                                        output.o
pro100_poll_ru                                    output.o
pro100_proc_guest_op                              output.o
pro100_read                                       output.o
pro100_read_send_packet                           output.o
pro100_send_packet_to_line                        output.o
pro100_sleep                                      output.o
pro100_wait_cu_ru_accepable                       output.o
pro100_write                                      output.o
pro100_write_recv_packet                          output.o
process_kill                                      output.o
process_syscall                                   output.o
processuser_no_sysenter                           output.o
processuser_syscall                               output.o
processuser_sysenter                              output.o
prohibit_iccard_init                              output.o
protectCurrentApplication                         output.o
ps2_locked                                        output.o
putchar                                           output.o
putchar_set_func                                  output.o
rand_ssleay_meth                                  output.o
read_gphys_b                                      output.o
read_gphys_l                                      output.o
read_gphys_q                                      output.o
read_gphys_w                                      output.o
read_hphys_b                                      output.o
read_hphys_l                                      output.o
read_hphys_q                                      output.o
read_hphys_w                                      output.o
read_linearaddr_b                                 output.o
read_linearaddr_l                                 output.o
read_linearaddr_q                                 output.o
read_linearaddr_tss                               output.o
read_linearaddr_w                                 output.o
readerState                                       output.o
readerTracker                                     output.o
realloc                                           output.o
reboot_test                                       output.o
register_status_callback                          output.o
resume_vm                                         output.o
ret_to_user32                                     output.o
ret_to_user64                                     output.o
ripemd160_block_data_order                        output.o
rsa_asn1_meths                                    output.o
rsa_pkey_meth                                     output.o
rt                                                output.o
s2i_ASN1_INTEGER                                  output.o
s2i_ASN1_OCTET_STRING                             output.o
sReaderContext                                    output.o
savemsr_index                                     output.o
savemsr_load                                      output.o
savemsr_save                                      output.o
scan_gframelist                                   output.o
schedule                                          output.o
security_storage_check_lba                        output.o
segment_init_ap                                   output.o
segment_wakeup                                    output.o
serial_getDebugChar                               output.o
serial_init_iohook                                output.o
serial_putDebugChar                               output.o
serial_putchar                                    output.o
sessionTable                                      output.o
set_int_handler                                   output.o
set_iofunc                                        output.o
setkbdled                                         output.o
shadow_and_activate_urb                           output.o
sig_app                                           output.o
sigx_app                                          output.o
sk_delete                                         output.o
sk_delete_ptr                                     output.o
sk_dup                                            output.o
sk_find                                           output.o
sk_find_ex                                        output.o
sk_free                                           output.o
sk_insert                                         output.o
sk_is_sorted                                      output.o
sk_new                                            output.o
sk_new_null                                       output.o
sk_num                                            output.o
sk_pop                                            output.o
sk_pop_free                                       output.o
sk_push                                           output.o
sk_set                                            output.o
sk_set_cmp_func                                   output.o
sk_shift                                          output.o
sk_sort                                           output.o
sk_unshift                                        output.o
sk_value                                          output.o
sk_zero                                           output.o
sleep_set_timer_counter                           output.o
slotFlag                                          output.o
slotTable                                         output.o
snprintf                                          output.o
start_all_processors                              output.o
storage_free                                      output.o
storage_get_num_hc                                output.o
storage_handle_sectors                            output.o
storage_hc_close                                  output.o
storage_hc_dev_atacommand                         output.o
storage_hc_dev_close                              output.o
storage_hc_dev_open                               output.o
storage_hc_hook_register                          output.o
storage_hc_hook_unregister                        output.o
storage_hc_open                                   output.o
storage_hc_register                               output.o
storage_hc_scandev                                output.o
storage_hc_unregister                             output.o
storage_init                                      output.o
storage_io_aget_size                              output.o
storage_io_aread                                  output.o
storage_io_awrite                                 output.o
storage_io_deinit                                 output.o
storage_io_get_num_devices                        output.o
storage_io_init                                   output.o
storage_new                                       output.o
storage_premap_buf                                output.o
storage_premap_handle_sectors                     output.o
strcmp                                            output.o
string_to_hex                                     output.o
strlen                                            output.o
svm_available                                     output.o
svm_enable_resume                                 output.o
svm_extern_iopass                                 output.o
svm_init                                          output.o
svm_init_signal                                   output.o
svm_ioio                                          output.o
svm_msr_update_lma                                output.o
svm_np_clear_all                                  output.o
svm_np_extern_mapsearch                           output.o
svm_np_init                                       output.o
svm_np_map_1mb                                    output.o
svm_np_pagefault                                  output.o
svm_np_tlbflush                                   output.o
svm_np_updatecr3                                  output.o
svm_paging_apply_fixed_cr0                        output.o
svm_paging_apply_fixed_cr4                        output.o
svm_paging_clear_all                              output.o
svm_paging_extern_flush_tlb_entry                 output.o
svm_paging_flush_guest_tlb                        output.o
svm_paging_get_gpat                               output.o
svm_paging_init                                   output.o
svm_paging_invalidate                             output.o
svm_paging_map_1mb                                output.o
svm_paging_npf                                    output.o
svm_paging_pagefault                              output.o
svm_paging_pg_change                              output.o
svm_paging_set_gpat                               output.o
svm_paging_spt_setcr3                             output.o
svm_paging_start                                  output.o
svm_paging_tlbflush                               output.o
svm_paging_updatecr3                              output.o
svm_panic_dump                                    output.o
svm_read_control_reg                              output.o
svm_read_flags                                    output.o
svm_read_gdtr                                     output.o
svm_read_general_reg                              output.o
svm_read_idtr                                     output.o
svm_read_ip                                       output.o
svm_read_msr                                      output.o
svm_read_sreg_acr                                 output.o
svm_read_sreg_base                                output.o
svm_read_sreg_limit                               output.o
svm_read_sreg_sel                                 output.o
svm_reset                                         output.o
svm_resume                                        output.o
svm_start_vm                                      output.o
svm_vmexit                                        output.o
svm_vminit                                        output.o
svm_write_control_reg                             output.o
svm_write_flags                                   output.o
svm_write_gdtr                                    output.o
svm_write_general_reg                             output.o
svm_write_idtr                                    output.o
svm_write_ip                                      output.o
svm_write_msr                                     output.o
svm_write_realmode_seg                            output.o
svm_writing_sreg                                  output.o
sx_handler                                        output.o
sym_to_phys                                       output.o
sync_all_processors                               output.o
sys_exitprocess                                   output.o
sys_msgclose                                      output.o
sys_msgopen                                       output.o
sys_msgregister                                   output.o
sys_msgret                                        output.o
sys_msgsendbuf                                    output.o
sys_msgsenddesc                                   output.o
sys_msgsendint                                    output.o
sys_msgsetfunc                                    output.o
sys_msgunregister                                 output.o
sys_newprocess                                    output.o
syscall_entry_lret                                output.o
syscall_entry_sysexit                             output.o
syscall_entry_sysret64                            output.o
syscall_handler                                   output.o
tcg_measure                                       output.o
test_gpaToHPA                                     output.o
test_logicalCPUStatus                             output.o
test_start                                        output.o
test_traverseGuestPages                           output.o
thread_exit                                       output.o
thread_gettid                                     output.o
thread_new                                        output.o
thread_set_process_switch                         output.o
thread_start0                                     output.o
thread_start1                                     output.o
thread_switch                                     output.o
thread_wakeup                                     output.o
thread_will_stop                                  output.o
timer_free                                        output.o
timer_new                                         output.o
timer_set                                         output.o
traverseGuestPages                                output.o
traverseIA32ePDPT                                 output.o
traverseIA32ePDT                                  output.o
traverseIA32ePT                                   output.o
traverseIA32ePages                                output.o
tree_find_sk                                      output.o
tty_init_iohook                                   output.o
tty_putchar                                       output.o
tty_udp_register                                  output.o
ttylog_stop                                       output.o
uhci_activate_urb                                 output.o
uhci_check_advance                                output.o
uhci_check_urb_advance                            output.o
uhci_create_urb                                   output.o
uhci_current_frame_number                         output.o
uhci_deactivate_urb                               output.o
uhci_destroy_unlinked_urbs                        output.o
uhci_destroy_urb                                  output.o
uhci_dump_all                                     output.o
uhci_error_status_string                          output.o
uhci_framelist_monitor                            output.o
uhci_init                                         output.o
uhci_monitor_boost_hc                             output.o
uhci_reactivate_urb                               output.o
uhci_shadow_buffer                                output.o
uhci_submit_bulk                                  output.o
uhci_submit_control                               output.o
uhci_submit_interrupt                             output.o
unmapHPAintoHVA                                   output.o
unmapmem                                          output.o
update_mtrr_and_pat                               output.o
usb_bulk_read                                     output.o
usb_bulk_write                                    output.o
usb_busses_head                                   output.o
usb_claim_interface                               output.o
usb_clear_halt                                    output.o
usb_close                                         output.o
usb_control_msg                                   output.o
usb_find_busses                                   output.o
usb_find_devices                                  output.o
usb_get_bus                                       output.o
usb_get_busses                                    output.o
usb_get_descriptor                                output.o
usb_get_descriptor_by_endpoint                    output.o
usb_get_descriptor_early                          output.o
usb_get_string                                    output.o
usb_get_string_simple                             output.o
usb_hc_list_head                                  output.o
usb_hook_process                                  output.o
usb_hook_register                                 output.o
usb_hook_unregister                               output.o
usb_init                                          output.o
usb_init_device_monitor                           output.o
usb_interrupt_read                                output.o
usb_interrupt_write                               output.o
usb_log_level                                     output.o
usb_new_dev_handle                                output.o
usb_open                                          output.o
usb_register_host                                 output.o
usb_release_interface                             output.o
usb_reset                                         output.o
usb_resetep                                       output.o
usb_sc_lock                                       output.o
usb_sc_unlock                                     output.o
usb_set_altinterface                              output.o
usb_set_configuration                             output.o
usb_set_debug                                     output.o
usb_unregister_devices                            output.o
usbccid_init_handle                               output.o
usbhid_init_handle                                output.o
usbhub_init_handle                                output.o
usbmsc_init_handle                                output.o
use_pae                                           output.o
usleep                                            output.o
v2i_ASN1_BIT_STRING                               output.o
v2i_GENERAL_NAME                                  output.o
v2i_GENERAL_NAMES                                 output.o
v2i_GENERAL_NAME_ex                               output.o
v3_akey_id                                        output.o
v3_alt                                            output.o
v3_bcons                                          output.o
v3_cpols                                          output.o
v3_crl_hold                                       output.o
v3_crl_invdate                                    output.o
v3_crl_num                                        output.o
v3_crl_reason                                     output.o
v3_crld                                           output.o
v3_delta_crl                                      output.o
v3_ext_ku                                         output.o
v3_freshest_crl                                   output.o
v3_idp                                            output.o
v3_info                                           output.o
v3_inhibit_anyp                                   output.o
v3_key_usage                                      output.o
v3_name_constraints                               output.o
v3_ns_ia5_list                                    output.o
v3_nscert                                         output.o
v3_ocsp_accresp                                   output.o
v3_ocsp_acutoff                                   output.o
v3_ocsp_crlid                                     output.o
v3_ocsp_nocheck                                   output.o
v3_ocsp_nonce                                     output.o
v3_ocsp_serviceloc                                output.o
v3_pci                                            output.o
v3_pkey_usage_period                              output.o
v3_policy_constraints                             output.o
v3_policy_mappings                                output.o
v3_sinfo                                          output.o
v3_skey_id                                        output.o
v3_sxnet                                          output.o
vcpu_list_foreach                                 output.o
vga_fill_rect                                     output.o
vga_get_screen_size                               output.o
vga_is_ready                                      output.o
vga_register                                      output.o
vga_transfer_image                                output.o
vmctl_svm_init                                    output.o
vmctl_vt_init                                     output.o
vmm_base_cr3                                      output.o
vmm_main                                          output.o
vmm_pd                                            output.o
vmm_pd1                                           output.o
vmm_pd2                                           output.o
vmm_pdp                                           output.o
vmm_pml4                                          output.o
vmm_start_inf                                     output.o
vmm_term_inf                                      output.o
vmmcall                                           output.o
vmmcall_boot_continue                             output.o
vmmcall_boot_enable                               output.o
vmmcall_init                                      output.o
vmmcall_register                                  output.o
vmmsize                                           output.o
vpn_FreeTimer                                     output.o
vpn_GetCurrentCpuId                               output.o
vpn_GetPhysicalNicInfo                            output.o
vpn_GetTickCount                                  output.o
vpn_GetVirtualNicInfo                             output.o
vpn_NewTimer                                      output.o
vpn_SendPhysicalNic                               output.o
vpn_SendVirtualNic                                output.o
vpn_SetPhysicalNicRecvCallback                    output.o
vpn_SetTimer                                      output.o
vpn_SetVirtualNicRecvCallback                     output.o
vpn_ic_rsa_sign                                   output.o
vpn_new_nic                                       output.o
vpn_premap_PhysicalNicRecv                        output.o
vpn_premap_VirtualNicRecv                         output.o
vpn_premap_recvbuf                                output.o
vpn_start                                         output.o
vpn_user_init                                     output.o
vprintf                                           output.o
vramwrite_clearscreen                             output.o
vramwrite_exit_global                             output.o
vramwrite_get_cursor_pos                          output.o
vramwrite_init_global                             output.o
vramwrite_mark1                                   output.o
vramwrite_mark2                                   output.o
vramwrite_mark3                                   output.o
vramwrite_putchar                                 output.o
vramwrite_restore_cursor                          output.o
vramwrite_save_and_move_cursor                    output.o
vsnprintf                                         output.o
vt__vmx_init                                      output.o
vt__vmxon                                         output.o
vt_add_guest_msr                                  output.o
vt_available                                      output.o
vt_enable_resume                                  output.o
vt_ept_clear_all                                  output.o
vt_ept_extern_mapsearch                           output.o
vt_ept_init                                       output.o
vt_ept_map_1mb                                    output.o
vt_ept_tlbflush                                   output.o
vt_ept_updatecr3                                  output.o
vt_ept_violation                                  output.o
vt_extern_iopass                                  output.o
vt_generate_external_int                          output.o
vt_generate_pagefault                             output.o
vt_get_current_regs_in_vmcs                       output.o
vt_get_vmcs_regs_in_vmcs                          output.o
vt_init                                           output.o
vt_init_signal                                    output.o
vt_io                                             output.o
vt_iopass                                         output.o
vt_iopass_init                                    output.o
vt_msr_init                                       output.o
vt_msr_update_lma                                 output.o
vt_paging_apply_fixed_cr0                         output.o
vt_paging_apply_fixed_cr4                         output.o
vt_paging_clear_all                               output.o
vt_paging_extern_flush_tlb_entry                  output.o
vt_paging_flush_guest_tlb                         output.o
vt_paging_get_gpat                                output.o
vt_paging_init                                    output.o
vt_paging_invalidate                              output.o
vt_paging_map_1mb                                 output.o
vt_paging_npf                                     output.o
vt_paging_pagefault                               output.o
vt_paging_pg_change                               output.o
vt_paging_set_gpat                                output.o
vt_paging_spt_setcr3                              output.o
vt_paging_start                                   output.o
vt_paging_tlbflush                                output.o
vt_paging_updatecr3                               output.o
vt_panic_dump                                     output.o
vt_read_control_reg                               output.o
vt_read_flags                                     output.o
vt_read_gdtr                                      output.o
vt_read_general_reg                               output.o
vt_read_guest_msr                                 output.o
vt_read_idtr                                      output.o
vt_read_ip                                        output.o
vt_read_msr                                       output.o
vt_read_sreg_acr                                  output.o
vt_read_sreg_base                                 output.o
vt_read_sreg_limit                                output.o
vt_read_sreg_sel                                  output.o
vt_reset                                          output.o
vt_resume                                         output.o
vt_start_vm                                       output.o
vt_update_exception_bmp                           output.o
vt_vmexit                                         output.o
vt_vminit                                         output.o
vt_vmptrld                                        output.o
vt_write_control_reg                              output.o
vt_write_flags                                    output.o
vt_write_gdtr                                     output.o
vt_write_general_reg                              output.o
vt_write_guest_msr                                output.o
vt_write_idtr                                     output.o
vt_write_ip                                       output.o
vt_write_msr                                      output.o
vt_write_realmode_seg                             output.o
vt_writing_sreg                                   output.o
waitcycles                                        output.o
wakeup_cont                                       output.o
wakeup_entry_addr                                 output.o
wakeup_entry_cr0                                  output.o
wakeup_entry_cr3                                  output.o
wakeup_entry_cr4                                  output.o
wakeup_entry_end                                  output.o
wakeup_entry_gdtr                                 output.o
wakeup_entry_start                                output.o
wakeup_init                                       output.o
wakeup_main                                       output.o
whirlpool_block                                   output.o
write_gphys_b                                     output.o
write_gphys_l                                     output.o
write_gphys_q                                     output.o
write_gphys_w                                     output.o
write_hphys_b                                     output.o
write_hphys_l                                     output.o
write_hphys_q                                     output.o
write_hphys_w                                     output.o
write_linearaddr_b                                output.o
write_linearaddr_l                                output.o
write_linearaddr_ok_b                             output.o
write_linearaddr_ok_l                             output.o
write_linearaddr_ok_w                             output.o
write_linearaddr_q                                output.o
write_linearaddr_tss                              output.o
write_linearaddr_w                                output.o
x509_name_ff                                      output.o
