
Allocating common symbols
Common symbol       size              file

protected_application_table
                    0x730             output.o
clflush_size        0x4               output.o
sReaderContext      0x60              output.o
sigx_app            0x8               output.o
d                   0x8               output.o
c                   0x8               output.o
a                   0x8               output.o
b                   0x8               output.o
num_dom             0x4               output.o
mszReaders          0x400             output.o
zero_page_pool      0x400             output.o
prohibit_iccard_init
                    0x4               output.o
memory_ownership_table
                    0x8800000         output.o
curthread           0x8               output.o
sig_app             0x8               output.o
readerState         0x64              output.o
dom_io              0x800             output.o
acpi_dsdt_system_state
                    0x1e              output.o
ehci_host           0x8               output.o
num_of_processors   0x4               output.o
e801_fake_bx        0x2               output.o
iommu_detected      0x1               output.o
dwReaders           0x8               output.o
readerTracker       0x140             output.o
handler_descriptor_lock
                    0x1               output.o
e801_fake_ax        0x2               output.o

Discarded input sections

 .gomi          0x0000000000000000        0xe output.o

Memory Configuration

Name             Origin             Length             Attributes
*default*        0x0000000000000000 0xffffffffffffffff

Linker script and memory map

                0x0000000040100000                virt = 0x40100000
                0x0000000000100000                phys = 0x100000
                0x0000000040100000                . = virt
                0x0000000040100000                head = .
                0x00000000401000b0                . = (virt + SIZEOF_HEADERS)

.text           0x0000000040101000   0x115387 load address 0x0000000000101000
                0x0000000040101000                code = .
 *(.entry)
 .entry         0x0000000040101000     0x6000 output.o
                0x000000004010100c                entry
                0x000000004010109a                cpuinit_start
                0x00000000401012c8                vmm_base_cr3
                0x00000000401012e0                apinit_procs
                0x00000000401012e8                apinit_lock
                0x00000000401012f0                cpuinit_end
                0x0000000040103000                entry_pdp
                0x0000000040104000                entry_pd0
                0x0000000040105000                entry_pd
 *(.text)
 .text          0x0000000040107000   0x10f387 output.o
                0x000000004010766c                acpi_smi_hook
                0x00000000401076ba                acpi_iohook
                0x000000004010770c                acpi_reset
                0x0000000040107808                acpi_poweroff
                0x0000000040107841                get_acpi_time_raw
                0x000000004010c811                acpi_dsdt_parse
                0x000000004010ccea                apinitproc0
                0x000000004010cd13                apic_available
                0x000000004010cd3f                ap_start_addr
                0x000000004010cf82                panic_wakeup_all
                0x000000004010d006                disable_apic
                0x000000004010d07d                sync_all_processors
                0x000000004010d10d                start_all_processors
                0x000000004010d14c                assertion_failed
                0x000000004010d185                beep_set_freq
                0x000000004010d1b6                beep_on
                0x000000004010d1c6                beep_off
                0x000000004010d80d                update_mtrr_and_pat
                0x000000004010da52                cache_get_gpat
                0x000000004010daa8                cache_set_gpat
                0x000000004010daf2                cache_get_attr
                0x000000004010db98                cache_get_gmtrr_type
                0x000000004010dba3                cache_get_gmtrr_attr
                0x000000004010dbb6                cache_get_gmtrrcap
                0x000000004010dbe4                cache_get_gmtrr
                0x000000004010dd3d                cache_set_gmtrr
                0x000000004010dd97                cache_get_gmsr_amd
                0x000000004010dde7                cache_set_gmsr_amd
                0x000000004010e22b                callrealmode_endofcodeaddr
                0x000000004010e23c                callrealmode_usevcpu
                0x000000004010e249                callrealmode_printmsg
                0x000000004010e266                callrealmode_getsysmemmap
                0x000000004010e2bd                callrealmode_getshiftflags
                0x000000004010e2db                callrealmode_setvideomode
                0x000000004010e2f9                callrealmode_reboot
                0x000000004010e313                callrealmode_tcgbios
                0x000000004010e3a7                callrealmode_disk_readmbr
                0x000000004010e3e7                callrealmode_disk_readlba
                0x000000004010e42f                callrealmode_bootcd_getstatus
                0x000000004010e484                callrealmode_setcursorpos
                0x000000004010e4a9                callrealmode_startkernel32
                0x000000004010e4c9                callrealmode_getfontinfo
                0x000000004010e539                get_cpu_id
                0x000000004010e54d                cpu_emul_cpuid
                0x000000004010e601                cpu_emul_rdmsr
                0x000000004010e67a                cpu_emul_wrmsr
                0x000000004010e703                cpu_emul_hlt
                0x000000004010e71b                cpu_emul_cli
                0x000000004010e754                cpu_emul_sti
                0x000000004010e79b                cpu_emul_realmode_int
                0x000000004010e8fd                cpu_emul_xsetbv
                0x0000000040111118                cpu_interpreter
                0x0000000040113440                cpu_mmu_get_pte
                0x0000000040113bd5                write_linearaddr_ok_b
                0x0000000040113bf7                write_linearaddr_ok_w
                0x0000000040113c02                write_linearaddr_ok_l
                0x0000000040113c0d                write_linearaddr_b
                0x0000000040113c7b                write_linearaddr_w
                0x0000000040113d13                write_linearaddr_l
                0x0000000040113da9                write_linearaddr_q
                0x0000000040113e3d                read_linearaddr_b
                0x0000000040113eaa                read_linearaddr_w
                0x0000000040113f3b                read_linearaddr_l
                0x0000000040113fcc                read_linearaddr_q
                0x000000004011405d                read_linearaddr_tss
                0x00000000401140f0                write_linearaddr_tss
                0x000000004011804f                cpu_mmu_spt_tlbflush
                0x000000004011808a                cpu_mmu_spt_updatecr3
                0x000000004011832a                cpu_mmu_spt_invalidate
                0x00000000401183b2                cpu_mmu_spt_pagefault
                0x00000000401185a9                cpu_mmu_spt_extern_mapsearch
                0x00000000401186e8                cpu_mmu_spt_map_1mb
                0x000000004011889c                cpu_mmu_spt_clear_all
                0x00000000401189fd                cpu_mmu_spt_init
                0x0000000040119011                cpu_seg_read_b
                0x000000004011907e                cpu_seg_read_w
                0x00000000401190eb                cpu_seg_read_l
                0x0000000040119158                cpu_seg_read_q
                0x00000000401191c5                cpu_seg_write_b
                0x0000000040119233                cpu_seg_write_w
                0x00000000401192a1                cpu_seg_write_l
                0x000000004011930e                cpu_seg_write_q
                0x000000004011937b                cpu_stack_get
                0x00000000401193e5                cpu_stack_set
                0x000000004011947a                cpu_stack_push
                0x0000000040119526                cpu_stack_pop
                0x0000000040119611                call_cpuid
                0x00000000401199ca                debug_addstr
                0x00000000401199d0                debug_gdb
                0x00000000401199d6                debug_iohook
                0x00000000401199dc                debug_msgregister
                0x0000000040119a0c                debug_msgunregister
                0x0000000040119aa9                do_exint_pass
                0x0000000040119b47                read_gphys_b
                0x0000000040119bb9                write_gphys_b
                0x0000000040119c3c                read_gphys_w
                0x0000000040119cd9                write_gphys_w
                0x0000000040119d8a                read_gphys_l
                0x0000000040119e27                write_gphys_l
                0x0000000040119edb                read_gphys_q
                0x0000000040119f78                write_gphys_q
                0x000000004011a029                cmpxchg_gphys_l
                0x000000004011a0e7                cmpxchg_gphys_q
                0x000000004011a1a5                gmm_pass_gp2hp
                0x000000004011a66f                idman_reinit_session
                0x000000004011a6ea                idman_reinit2
                0x000000004011a70b                get_idman_session
                0x000000004011a74b                call_initfunc
                0x000000004011a7b0                initfunc_init
                0x000000004011c325                int_fatal
                0x000000004011c684                callfunc_and_getint
                0x000000004011c698                do_externalint_enable
                0x000000004011c6ad                set_int_handler
                0x000000004011c6cc                int_exceptionHandler
                0x000000004011c6d7                int_init_ap
                0x000000004011c72d                do_io_nothing
                0x000000004011c768                set_iofunc
                0x000000004011c80a                call_io
                0x000000004011c8f0                do_iopass_default
                0x000000004011cad6                keyboard_reset
                0x000000004011cb1b                setkbdled
                0x000000004011cb6c                keyboard_flush
                0x000000004011cb86                load_bootsector
                0x000000004011cf41                copy_bootsector
                0x000000004011d1f0                localapic_wait_for_sipi
                0x000000004011d27d                localapic_change_base_msr
                0x000000004011d2c9                localapic_mmio_register
                0x000000004011dc94                resume_vm
                0x000000004011dd4e                vmm_main
                0x000000004011e0d4                getsysmemmap
                0x000000004011e15b                getfakesysmemmap
                0x000000004011e1cd                phys_to_virt
                0x000000004011e1e3                vmm_start_inf
                0x000000004011e1ef                vmm_term_inf
                0x000000004011e200                num_of_available_pages
                0x000000004011e273                alloc_pages
                0x000000004011e2e9                alloc_page
                0x000000004011e2f9                alloc
                0x000000004011e591                alloc2
                0x000000004011e5c9                free
                0x000000004011e6dc                realloc
                0x000000004011e828                free_page
                0x000000004011e83b                free_page_phys
                0x000000004011e85e                mempool_new
                0x000000004011e8cc                mempool_free
                0x000000004011e97d                mempool_allocmem
                0x000000004011eb62                mempool_freemem
                0x000000004011ee1e                sym_to_phys
                0x000000004011ee32                phys_in_vmm
                0x000000004011ee4e                mm_force_unlock
                0x000000004011ee80                mm_process_alloc
                0x000000004011f050                mm_process_free
                0x000000004011f0ad                mm_process_switch
                0x000000004011f0cb                pmap_open_vmm
                0x000000004011f0f6                pmap_open_guest
                0x000000004011f138                pmap_close
                0x000000004011f13e                pmap_getreadlevel
                0x000000004011f14a                pmap_setlevel
                0x000000004011f156                pmap_seek
                0x000000004011f1c6                pmap_read
                0x000000004011f454                pmap_write
                0x000000004011f5ec                mm_process_unmap
                0x000000004011f6d9                mm_process_unmap_stack
                0x000000004011f8b4                mm_process_unmapall
                0x000000004011f95b                pmap_pointer
                0x000000004011f9c6                pmap_clear
                0x000000004011fabc                pmap_autoalloc
                0x000000004011fc69                mm_process_map_alloc
                0x000000004011fdac                mm_process_map_shared_physpage
                0x000000004011fe16                mm_process_map_shared
                0x0000000040120074                mm_process_map_stack
                0x000000004012091e                pmap_dump
                0x0000000040120a36                unmapmem
                0x0000000040120b17                mapmem
                0x000000004012105e                read_hphys_b
                0x00000000401210b3                write_hphys_b
                0x00000000401210e5                read_hphys_w
                0x000000004012111c                write_hphys_w
                0x000000004012114f                read_hphys_l
                0x0000000040121184                write_hphys_l
                0x00000000401211b6                read_hphys_q
                0x00000000401211ed                write_hphys_q
                0x0000000040121221                cmpxchg_hphys_l
                0x0000000040121275                cmpxchg_hphys_q
                0x00000000401212c9                alloc_realmodemem
                0x000000004012136a                mapmem_hphys
                0x0000000040121382                mapmem_gphys
                0x000000004012139a                mm_flush_wb_cache
                0x0000000040121744                mmio_access_memory
                0x00000000401218a2                mmio_access_page
                0x000000004012195e                mmio_register
                0x0000000040121bad                mmio_unregister
                0x0000000040121c34                mmio_lock
                0x0000000040121c4f                mmio_unlock
                0x0000000040121cef                msg_findname
                0x0000000040121d5f                msg_register
                0x0000000040121e2e                msg_unregister
                0x0000000040121ea9                msg_unregisterall
                0x0000000040121f34                msg_unregister2
                0x0000000040122001                call_read_msr
                0x0000000040122015                call_write_msr
                0x00000000401222b1                load_minios
                0x00000000401225e2                backtrace
                0x0000000040122f38                panic
                0x000000004012343d                auto_reboot
                0x000000004012345a                panic_test
                0x000000004012347d                pcpu_list_foreach
                0x00000000401234bc                pcpu_list_add
                0x0000000040123510                pcpu_init
                0x000000004012409a                vprintf
                0x00000000401240d5                printf
                0x0000000040124113                vsnprintf
                0x0000000040124157                snprintf
                0x0000000040124393                sys_msgsetfunc
                0x0000000040124440                sys_msgclose
                0x000000004012445d                sys_msgret
                0x0000000040124549                sys_msgregister
                0x000000004012477a                sys_msgsenddesc
                0x0000000040124f8c                sys_msgsendint
                0x00000000401252bc                sys_newprocess
                0x000000004012531d                sys_msgunregister
                0x00000000401253a9                sys_exitprocess
                0x00000000401253fe                sys_msgsendbuf
                0x0000000040125559                sys_msgopen
                0x00000000401255ba                process_kill
                0x000000004012561b                msgsetfunc
                0x0000000040125630                msgregister
                0x0000000040125646                msgopen
                0x0000000040125659                msgclose
                0x000000004012566b                msgsendint
                0x000000004012567f                msgsenddesc
                0x0000000040125693                newprocess
                0x00000000401256a6                msgsendbuf
                0x00000000401256c0                msgunregister
                0x00000000401256f0                exitprocess
                0x0000000040125703                msgpremapbuf
                0x000000004012581f                process_syscall
                0x00000000401258ca                putchar
                0x0000000040125908                putchar_set_func
                0x0000000040125bda                do_panic_reboot
                0x0000000040125c64                handle_init_to_bsp
                0x0000000040125c85                reboot_test
                0x0000000040125cb4                savemsr_save
                0x0000000040125d21                savemsr_load
                0x0000000040126089                get_seg_base
                0x0000000040126145                get_seg_access_rights
                0x0000000040126165                segment_wakeup
                0x00000000401261a7                segment_init_ap
                0x0000000040126446                serial_putDebugChar
                0x0000000040126458                serial_getDebugChar
                0x000000004012646d                serial_putchar
                0x00000000401264cf                serial_init_iohook
                0x0000000040126515                waitcycles
                0x0000000040126538                usleep
                0x0000000040126657                sleep_set_timer_counter
                0x00000000401267be                vmctl_svm_init
                0x0000000040126866                message_exitcode
                0x0000000040126de9                printexitcode
                0x0000000040126e16                svm_available
                0x0000000040126ec7                svm_reset
                0x0000000040127144                svm_vminit
                0x00000000401274ee                svm_vmexit
                0x00000000401274f4                svm_init
                0x000000004012763b                svm_enable_resume
                0x0000000040127740                svm_resume
                0x0000000040127892                svm_ioio
                0x000000004012799c                svm_extern_iopass
                0x0000000040127b04                svm_init_signal
                0x0000000040127b27                svm_start_vm
                0x0000000040128640                svm_msr_update_lma
                0x00000000401286b5                svm_read_msr
                0x000000004012895a                svm_write_msr
                0x0000000040128ecd                svm_np_init
                0x0000000040128fc1                svm_np_pagefault
                0x0000000040128ff9                svm_np_tlbflush
                0x0000000040128fff                svm_np_updatecr3
                0x000000004012900a                svm_np_clear_all
                0x000000004012909d                svm_np_extern_mapsearch
                0x0000000040129126                svm_np_map_1mb
                0x0000000040129180                svm_paging_extern_flush_tlb_entry
                0x00000000401291a7                svm_paging_map_1mb
                0x00000000401291d1                svm_paging_flush_guest_tlb
                0x0000000040129210                svm_paging_init
                0x000000004012932e                svm_paging_pagefault
                0x000000004012935a                svm_paging_tlbflush
                0x0000000040129381                svm_paging_invalidate
                0x00000000401293af                svm_paging_npf
                0x00000000401293db                svm_paging_updatecr3
                0x0000000040129407                svm_paging_spt_setcr3
                0x000000004012943b                svm_paging_clear_all
                0x0000000040129467                svm_paging_get_gpat
                0x0000000040129472                svm_paging_set_gpat
                0x00000000401294b3                svm_paging_apply_fixed_cr0
                0x00000000401294d6                svm_paging_apply_fixed_cr4
                0x00000000401294fa                svm_paging_pg_change
                0x0000000040129500                svm_paging_start
                0x0000000040129512                svm_panic_dump
                0x00000000401295e0                svm_read_general_reg
                0x000000004012971c                svm_write_general_reg
                0x0000000040129828                svm_read_control_reg
                0x00000000401298c3                svm_write_control_reg
                0x000000004012999f                svm_read_sreg_sel
                0x0000000040129a60                svm_read_sreg_acr
                0x0000000040129b3b                svm_read_sreg_base
                0x0000000040129c57                svm_read_sreg_limit
                0x0000000040129d68                svm_read_ip
                0x0000000040129d87                svm_write_ip
                0x0000000040129dad                svm_read_flags
                0x0000000040129dcc                svm_write_flags
                0x0000000040129de8                svm_read_gdtr
                0x0000000040129e1f                svm_write_gdtr
                0x0000000040129e48                svm_read_idtr
                0x0000000040129e7f                svm_write_idtr
                0x0000000040129ea8                svm_write_realmode_seg
                0x0000000040129fe7                svm_writing_sreg
                0x000000004012a0fe                int1a_TCG_StatusCheck
                0x000000004012a1b1                int1a_TCG_HashLogExtendEvent
                0x000000004012a23c                int1a_TCG_PassThroughToTPM
                0x000000004012a2c7                int1a_TCG_HashLogEvent
                0x000000004012a348                int1a_TCG_HashAll
                0x000000004012a400                int1a_TCG_TSS
                0x000000004012a48b                int1a_TCG_CompactHashLogExtendEvent
                0x000000004012a4ec                tcg_measure
                0x000000004012a7e5                thread_gettid
                0x000000004012a7fa                schedule
                0x000000004012aa40                thread_new
                0x000000004012ab6d                thread_wakeup
                0x000000004012ac52                thread_will_stop
                0x000000004012acca                thread_exit
                0x000000004012ad6e                thread_start1
                0x000000004012ad8c                thread_set_process_switch
                0x000000004012af34                get_cpu_time
                0x000000004012b007                get_acpi_time
                0x000000004012b0b8                get_time
                0x000000004012b295                timer_new
                0x000000004012b316                timer_set
                0x000000004012b40c                timer_free
                0x000000004012b5fe                tty_putchar
                0x000000004012b788                ttylog_stop
                0x000000004012b798                tty_udp_register
                0x000000004012b7dc                tty_init_iohook
                0x000000004012b803                vcpu_list_foreach
                0x000000004012b842                load_new_vcpu
                0x000000004012b904                vga_register
                0x000000004012b978                vga_is_ready
                0x000000004012b9d8                vga_transfer_image
                0x000000004012ba26                vga_fill_rect
                0x000000004012ba61                vga_get_screen_size
                0x000000004012bb85                vmmcall
                0x000000004012bbde                vmmcall_register
                0x000000004012bc1b                vmmcall_init
                0x000000004012bfc5                vmmcall_boot_continue
                0x000000004012c010                vmmcall_boot_enable
                0x000000004012c897                register_status_callback
                0x000000004012c98c                vramwrite_clearscreen
                0x000000004012c9ee                vramwrite_putchar
                0x000000004012cbc5                vramwrite_mark1
                0x000000004012cc06                vramwrite_mark2
                0x000000004012cc4e                vramwrite_mark3
                0x000000004012cc97                vramwrite_save_and_move_cursor
                0x000000004012ccce                vramwrite_restore_cursor
                0x000000004012cce0                vramwrite_get_cursor_pos
                0x000000004012cd2e                vramwrite_init_global
                0x000000004012cd3b                vramwrite_exit_global
                0x000000004012cdee                vt_generate_pagefault
                0x000000004012ce77                vt_generate_external_int
                0x000000004012cec9                vmctl_vt_init
                0x000000004012cf71                vt_vmptrld
                0x000000004012d282                vt_ept_init
                0x000000004012d37e                vt_ept_violation
                0x000000004012d52b                vt_ept_tlbflush
                0x000000004012d531                vt_ept_updatecr3
                0x000000004012d623                vt_ept_clear_all
                0x000000004012d6b6                vt_ept_extern_mapsearch
                0x000000004012d73f                vt_ept_map_1mb
                0x000000004012d791                message_exitreason
                0x000000004012d8f7                printexitreason
                0x000000004012e189                vt_available
                0x000000004012e228                vt__vmx_init
                0x000000004012e270                vt__vmxon
                0x000000004012e31d                vt_vminit
                0x000000004012e379                vt_vmexit
                0x000000004012e393                vt_init
                0x000000004012e3a3                vt_enable_resume
                0x000000004012e4dc                vt_resume
                0x000000004012e675                vt_io
                0x000000004012e796                vt_iopass_init
                0x000000004012e92b                vt_iopass
                0x000000004012e96e                vt_extern_iopass
                0x000000004012f59e                vt_update_exception_bmp
                0x000000004012fb69                vt_init_signal
                0x000000004012fb74                vt_start_vm
                0x000000004012ff4a                vt_add_guest_msr
                0x00000000401300a2                vt_read_guest_msr
                0x00000000401300d5                vt_write_guest_msr
                0x0000000040130105                vt_msr_update_lma
                0x00000000401301dd                vt_read_msr
                0x0000000040130483                vt_write_msr
                0x0000000040130741                vt_msr_init
                0x0000000040130943                vt_paging_extern_flush_tlb_entry
                0x00000000401309a7                vt_paging_map_1mb
                0x00000000401309c7                vt_paging_flush_guest_tlb
                0x0000000040130a27                vt_paging_pagefault
                0x0000000040130a5c                vt_paging_tlbflush
                0x0000000040130a79                vt_paging_invalidate
                0x0000000040130aac                vt_paging_npf
                0x0000000040130ae1                vt_paging_updatecr3
                0x0000000040130b11                vt_paging_spt_setcr3
                0x0000000040130b3c                vt_paging_clear_all
                0x0000000040130b6f                vt_paging_get_gpat
                0x0000000040130b7a                vt_paging_set_gpat
                0x0000000040130bce                vt_paging_apply_fixed_cr0
                0x0000000040130c36                vt_paging_apply_fixed_cr4
                0x0000000040130c7e                vt_paging_pg_change
                0x0000000040130dfe                vt_paging_init
                0x0000000040130e79                vt_paging_start
                0x0000000040130ea6                vt_panic_dump
                0x0000000040131050                vt_read_general_reg
                0x0000000040131171                vt_write_general_reg
                0x0000000040131265                vt_read_control_reg
                0x00000000401312d3                vt_read_sreg_sel
                0x00000000401313dc                vt_read_sreg_acr
                0x0000000040131433                vt_read_sreg_base
                0x00000000401314b5                vt_read_sreg_limit
                0x0000000040131532                vt_read_ip
                0x0000000040131540                vt_write_ip
                0x0000000040131560                vt_read_flags
                0x0000000040131586                vt_write_flags
                0x00000000401315b1                vt_read_gdtr
                0x00000000401315c6                vt_write_gdtr
                0x00000000401315db                vt_read_idtr
                0x000000004013161f                vt_write_idtr
                0x0000000040131655                vt_write_control_reg
                0x0000000040131b28                vt_get_current_regs_in_vmcs
                0x0000000040131db3                vt_get_vmcs_regs_in_vmcs
                0x0000000040131f30                vt_write_realmode_seg
                0x0000000040132079                vt_writing_sreg
                0x0000000040132102                vt_reset
                0x00000000401323e0                prepare_for_sleep
                0x00000000401324a1                cancel_sleep
                0x00000000401324c3                wakeup_main
                0x000000004013254b                wakeup_cont
                0x0000000040132680                wakeup_init
                0x00000000401326c9                call_xsetbv
                0x0000000040132740                mpumul_64_64
                0x0000000040132760                mpudiv_128_32
                0x0000000040132780                ipchecksum
                0x0000000040132810                asm_vmlaunch_regs_32
                0x0000000040132890                asm_vmresume_regs_32
                0x0000000040132910                asm_vmrun_regs_32
                0x0000000040132970                asm_vmlaunch_regs_64
                0x0000000040132a50                asm_vmresume_regs_64
                0x0000000040132b30                asm_vmrun_regs_64
                0x0000000040132bd1                callrealmode_start
                0x0000000040132be7                callrealmode_start2
                0x0000000040133073                move_vmm_area32
                0x0000000040133073                callrealmode_end
                0x0000000040133098                move_vmm_area64
                0x00000000401330c0                int_handler
                0x0000000040133138                int_callfunc
                0x0000000040134000                syscall_entry_sysexit
                0x000000004013402c                syscall_entry_lret
                0x000000004013405c                ret_to_user32
                0x0000000040134068                syscall_entry_sysret64
                0x00000000401340b0                ret_to_user64
                0x0000000040135000                processuser_sysenter
                0x0000000040136000                processuser_no_sysenter
                0x0000000040137000                processuser_syscall
                0x0000000040138140                memset
                0x00000000401381c0                memcpy
                0x0000000040138200                strcmp
                0x0000000040138240                memcmp
                0x0000000040138280                strlen
                0x0000000040138298                sx_handler
                0x00000000401382f0                thread_switch
                0x0000000040138310                thread_start0
                0x000000004013834a                get_guest_cr3_value
                0x0000000040138358                get_guest_eptp_value
                0x0000000040138366                monitor_vmcs_read
                0x000000004013836f                monitor_vmcs_write
                0x0000000040138378                hypercall_handler
                0x00000000401383d1                interrupt_handler
                0x00000000401384d7                get_page_table_base_GPA
                0x00000000401384ed                get_ept_base_HPA
                0x0000000040138503                traverseGuestPages
                0x000000004013850e                saveSystemCallHandlerAddress
                0x000000004013855a                closeSystemCallHandler
                0x00000000401385a9                openSystemCallHandler
                0x00000000401385f8                getSystemCallHandlerGPA
                0x0000000040138605                save_guest_status
                0x000000004013897f                clear_guest_status
                0x0000000040138c6d                restore_guest_status
                0x0000000040138f87                getTSSGVA
                0x0000000040138f97                getGuestRSP
                0x0000000040138fbc                allocateNewVMID
                0x0000000040138fd2                allocateNewAppID
                0x0000000040138fea                allocateNewApplicationIdentifiers
                0x0000000040139014                protectCurrentApplication
                0x0000000040139056                getMemoryOwnershipTableIndex
                0x0000000040139063                remapPage
                0x00000000401390ad                changePageStatus
                0x00000000401391e4                closePage
                0x00000000401392d0                openPage
                0x000000004013935f                getMemoryOwnershipTableEntry
                0x0000000040139397                initializeNewProtectedApplication
                0x00000000401393c0                getCurrentProtectedApplication
                0x0000000040139448                findProtectedApplicationFromRIP
                0x0000000040139492                setCurrentProtectedApplication
                0x000000004013949f                traverseIA32ePages
                0x00000000401397e7                traverseIA32ePDPT
                0x0000000040139a70                traverseIA32ePDT
                0x0000000040139c44                traverseIA32ePT
                0x0000000040139d71                gvaToGPA
                0x0000000040139fff                mapHPAintoHVA
                0x000000004013a00f                gpaToHPA
                0x000000004013a20a                unmapHPAintoHVA
                0x000000004013a215                monitor_memset
                0x000000004013a22f                virt_to_phys
                0x000000004013a23c                test_gpaToHPA
                0x000000004013a285                test_start
                0x000000004013a2e3                test_traverseGuestPages
                0x000000004013a323                test_logicalCPUStatus
                0x000000004013a34a                restore_register
                0x000000004013a3f7                handleSystemCall
                0x000000004013a41d                initPagePool
                0x000000004013a44f                findUnmappedPage
                0x000000004013a489                allocateNewZeroPage
                0x000000004013a4f0                core_init
                0x000000004013a501                core_mm_read_guest_phys
                0x000000004013a57b                core_mm_write_guest_phys
                0x000000004013a5f5                alloc_handler_descriptor
                0x000000004013a605                core_io_modify_handler
                0x000000004013a6c6                core_io_unregister_handler
                0x000000004013a74d                core_io_handle_default
                0x000000004013a9e5                panic_oom
                0x000000004013a9f8                core_io_register_handler
                0x000000004013ab40                matched_drhd_u
                0x000000004013ab9e                parse_dmar_bios_report
                0x000000004013abe9                ieee1394_init
                0x000000004013ac22                iommu_setup
                0x000000004013ac28                iodom_init
                0x000000004013adf8                add_remap
                0x000000004013ae82                create_dom
                0x000000004013b1b1                pci_conceal_new_device
                0x000000004013b587                pci_conceal_config_data_handler
                0x000000004013b5ac                pci_save_config_addr
                0x000000004013b5be                pci_restore_config_addr
                0x000000004013b5d0                pci_append_device
                0x000000004013b602                pci_config_data_handler
                0x000000004013b935                pci_config_addr_handler
                0x000000004013b97e                pci_register_driver
                0x000000004013ba1d                pci_read_config_data8
                0x000000004013ba63                pci_read_config_data16
                0x000000004013baaa                pci_read_config_data32
                0x000000004013baf0                pci_write_config_data8
                0x000000004013bb36                pci_write_config_data16
                0x000000004013bb7d                pci_write_config_data32
                0x000000004013bbc3                pci_read_config_data_port
                0x000000004013bbf5                pci_write_config_data_port
                0x000000004013bc2b                pci_handle_default_config_write
                0x000000004013bc5e                pci_print_device
                0x000000004013bfc9                pci_possible_new_device
                0x000000004013bff1                security_storage_check_lba
                0x000000004013f326                ahci_new
                0x000000004013f5b0                ahci_config_read
                0x000000004013f617                ahci_config_write
                0x000000004013f8cf                ata_bm_handle_command
                0x000000004013fa06                ata_bm_handle_status
                0x000000004013fab7                ata_bm_handle_prd_table
                0x000000004013fbb6                ata_bm_handler
                0x000000004013fcb9                ata_get_cmd_type
                0x0000000040140023                ata_handle_queued_status
                0x00000000401409e9                ata_channel_lock
                0x0000000040140a65                ata_channel_unlock
                0x0000000040140a8c                ata_cmdblk_handler
                0x0000000040140b9e                ata_ctlblk_handler
                0x00000000401417cf                ata_ahci_mode
                0x0000000040141cd5                ata_init_io_handler
                0x0000000040141d7a                ata_set_bm_handler
                0x0000000040141dd1                ata_set_cmdblk_handler
                0x0000000040141e0a                ata_set_ctlblk_handler
                0x0000000040141e45                ata_config_read
                0x0000000040141eeb                ata_config_write
                0x0000000040142065                ata_init_vendor
                0x000000004014208c                ata_bm_handle_device_specific
                0x0000000040142190                atapi_handle_config_data
                0x00000000401423d0                atapi_handle_interrupt_reason
                0x0000000040142416                atapi_handle_pio_identify_packet
                0x00000000401425b0                atapi_handle_packet_data
                0x00000000401425bb                atapi_handle_cmd_packet
                0x0000000040142639                packet_handle_through
                0x000000004014266c                packet_handle_nondata
                0x0000000040142686                packet_handle_config
                0x00000000401426d0                packet_handle_rw
                0x0000000040142751                packet_handle_invalid
                0x000000004014276b                packet_handle_command
                0x00000000401427a0                uhci_init
                0x000000004014301f                uhci_current_frame_number
                0x0000000040143040                dump_td_byvirt
                0x0000000040143219                dump_td
                0x00000000401432eb                dump_qh
                0x00000000401434c0                dump_frame
                0x00000000401435ca                uhci_dump_all
                0x000000004014378c                uhci_error_status_string
                0x0000000040143a6b                uhci_shadow_buffer
                0x0000000040143cee                uhci_framelist_monitor
                0x0000000040145c6e                scan_gframelist
                0x000000004014651b                uhci_create_urb
                0x000000004014667f                uhci_destroy_urb
                0x00000000401467ac                uhci_destroy_unlinked_urbs
                0x0000000040146881                uhci_deactivate_urb
                0x0000000040146c0e                uhci_activate_urb
                0x00000000401471ca                uhci_reactivate_urb
                0x0000000040147270                uhci_submit_control
                0x00000000401478a4                uhci_submit_interrupt
                0x000000004014790c                uhci_submit_bulk
                0x0000000040147974                uhci_check_urb_advance
                0x00000000401479af                uhci_check_advance
                0x0000000040147bb5                init_hframelist
                0x0000000040147e91                ehci_conceal_portroute
                0x0000000040147ed9                ehci_init
                0x0000000040149c97                ehci_dump_qtd
                0x0000000040149d0a                ehci_dump_qtdm
                0x0000000040149d3f                ehci_dump_alist
                0x0000000040149e02                ehci_dump_urblist
                0x0000000040149e98                ehci_dump_urb
                0x000000004014a355                ehci_dump_async
                0x000000004014a7d6                ehci_dump_all
                0x000000004014bd53                ehci_shadow_buffer
                0x000000004014c00f                get_gurb_by_address
                0x000000004014c0a5                shadow_and_activate_urb
                0x000000004014c389                ehci_deactivate_urb
                0x000000004014c523                deactivate_and_delete_urb
                0x000000004014c78c                ehci_check_urb_advance
                0x000000004014c956                ehci_check_advance
                0x000000004014cba4                ehci_shadow_async_list
                0x000000004014ccbe                ehci_cleanup_urbs
                0x000000004014ce2b                ehci_end_monitor_async
                0x000000004014ce94                ehci_monitor_async_list
                0x000000004014d553                ehci_submit_control
                0x000000004014dae3                ehci_submit_bulk
                0x000000004014daee                ehci_submit_interrupt
                0x000000004014f693                usbmsc_init_handle
                0x000000004014fa6e                usbhub_init_handle
                0x000000004014fae7                hub_portdevice_register
                0x00000000401501b0                usbccid_init_handle
                0x00000000401502d0                usb_set_debug
                0x00000000401502dc                usb_init
                0x00000000401502e2                usb_find_busses
                0x00000000401503c3                usb_get_busses
                0x00000000401503d0                usb_get_bus
                0x00000000401503ff                usb_find_devices
                0x000000004015044f                usb_open
                0x00000000401504b9                usb_close
                0x00000000401504c9                usb_resetep
                0x00000000401504d4                usb_clear_halt
                0x00000000401504df                usb_reset
                0x00000000401504ea                usb_claim_interface
                0x00000000401504f8                usb_release_interface
                0x000000004015050a                usb_set_configuration
                0x00000000401507b5                usb_set_altinterface
                0x0000000040150a62                usb_control_msg
                0x0000000040150db1                usb_get_string
                0x00000000401510ec                usb_get_string_simple
                0x00000000401512ec                usb_get_descriptor
                0x000000004015162d                usb_get_descriptor_early
                0x0000000040151976                usb_get_descriptor_by_endpoint
                0x0000000040151cbc                usb_bulk_write
                0x0000000040151ef0                usb_interrupt_write
                0x0000000040152122                usb_bulk_read
                0x00000000401523de                usb_interrupt_read
                0x000000004015269d                usb_register_host
                0x00000000401527b8                usb_unregister_devices
                0x00000000401527ea                usb_sc_lock
                0x0000000040152862                usb_sc_unlock
                0x0000000040152f78                free_config_descriptors
                0x00000000401530c9                free_device
                0x0000000040153235                handle_connect_status
                0x0000000040153330                handle_port_reset
                0x0000000040153411                dprintf_port
                0x00000000401543b9                usb_init_device_monitor
                0x0000000040154423                usb_new_dev_handle
                0x00000000401544d4                usbhid_init_handle
                0x000000004015460a                usb_hook_process
                0x000000004015490a                usb_hook_register
                0x00000000401549e4                usb_hook_unregister
                0x0000000040154a68                _dprintf
                0x0000000040154ab5                _dprintft
                0x0000000040154b68                pro100_io_handler
                0x0000000040154b73                pro100_config_read
                0x0000000040154b88                pro100_config_write
                0x0000000040154cb2                pro100_init
                0x0000000040154ccc                pro100_init_vpn_client
                0x0000000040154d0b                pro100_sleep
                0x0000000040154d3b                pro100_beep
                0x0000000040154d65                pro100_get_ctx
                0x0000000040154e08                pro100_alloc_page
                0x0000000040154e42                pro100_free_page
                0x0000000040154e67                pro100_get_op_size
                0x0000000040154eaa                pro100_mem_read
                0x0000000040154f20                pro100_read_send_packet
                0x0000000040155132                pro100_mem_write
                0x00000000401551a6                pro100_write
                0x0000000040155219                pro100_read
                0x0000000040155298                pro100_wait_cu_ru_accepable
                0x00000000401552d3                pro100_init_cu_base_addr
                0x0000000040155333                pro100_init_ru_base_addr
                0x0000000040155393                pro100_flush
                0x00000000401553ae                pro100_exec_cu_op
                0x00000000401554f2                pro100_send_packet_to_line
                0x000000004015562f                pro100_generate_int
                0x000000004015565f                pro100_write_recv_packet
                0x00000000401557db                pro100_proc_guest_op
                0x00000000401559e6                pro100_get_int_bit_string
                0x0000000040155a5c                pro100_get_stat_ack_string
                0x0000000040155ac7                pro100_get_cu_command_string
                0x0000000040155b49                pro100_get_ru_command_string
                0x0000000040155b93                pro100_init_recv_buffer
                0x0000000040155cca                pro100_poll_ru
                0x0000000040155dc5                pro100_hook_write
                0x000000004015608b                pro100_hook_read
                0x0000000040156242                pro100_mm_handler
                0x0000000040156396                pro100_alloc_recv_buffer
                0x0000000040156403                pro100_new
                0x0000000040158653                storage_premap_buf
                0x000000004015865e                storage_premap_handle_sectors
                0x0000000040158992                storage_get_num_hc
                0x00000000401589c4                storage_hc_open
                0x0000000040158ab8                storage_hc_close
                0x0000000040158b02                storage_hc_hook_register
                0x0000000040158b79                storage_hc_hook_unregister
                0x0000000040158c13                storage_hc_register
                0x0000000040158df1                storage_hc_unregister
                0x0000000040158efa                storage_hc_scandev
                0x0000000040158f41                storage_hc_dev_open
                0x000000004015907e                storage_hc_dev_atacommand
                0x0000000040159255                storage_hc_dev_close
                0x000000004015931d                storage_io_init
                0x0000000040159332                storage_io_deinit
                0x000000004015933d                storage_io_get_num_devices
                0x00000000401593fb                storage_io_aget_size
                0x000000004015956d                storage_io_aread
                0x00000000401597ae                storage_io_awrite
                0x0000000040159f32                storage_handle_sectors
                0x000000004015a17b                storage_new
                0x000000004015a3c2                storage_free
                0x000000004015a5c1                storage_init
                0x000000004015a7f5                aes_xts_init
                0x000000004015a828                crypto_find
                0x000000004015a87b                crypto_register
                0x000000004015a8cb                crypto_init
                0x000000004015a922                crypto_none_init
                0x000000004015a95a                vpn_GetCurrentCpuId
                0x000000004015a965                vpn_GetTickCount
                0x000000004015a995                vpn_NewTimer
                0x000000004015a9af                vpn_SetTimer
                0x000000004015a9c3                vpn_FreeTimer
                0x000000004015a9ce                vpn_GetPhysicalNicInfo
                0x000000004015a9dd                vpn_SendPhysicalNic
                0x000000004015a9ec                vpn_SetPhysicalNicRecvCallback
                0x000000004015a9fb                vpn_GetVirtualNicInfo
                0x000000004015aa0b                vpn_SendVirtualNic
                0x000000004015aa1b                vpn_SetVirtualNicRecvCallback
                0x000000004015aa2b                vpn_premap_PhysicalNicRecv
                0x000000004015aa44                vpn_premap_VirtualNicRecv
                0x000000004015aa5d                vpn_premap_recvbuf
                0x000000004015aa68                vpn_ic_rsa_sign
                0x000000004015ab01                vpn_new_nic
                0x000000004015b111                msg_vpn_GetCurrentCpuId
                0x000000004015b12b                msg_vpn_ic_rsa_sign
                0x000000004015b1d7                msg_vpn_GetTickCount
                0x000000004015b215                msg_vpn_GetPhysicalNicInfo
                0x000000004015b279                msg_vpn_SendPhysicalNic
                0x000000004015b333                msg_vpn_SetPhysicalNicRecvCallback
                0x000000004015b37f                msg_vpn_GetVirtualNicInfo
                0x000000004015b3e3                msg_vpn_SendVirtualNic
                0x000000004015b49d                msg_vpn_SetVirtualNicRecvCallback
                0x000000004015b4e9                msg_vpn_NewTimer
                0x000000004015b559                msg_vpn_SetTimer
                0x000000004015b62c                msg_vpn_FreeTimer
                0x000000004015b692                vpn_start
                0x000000004015ba1c                vpn_user_init
                0x000000004015ba80                SeFreeConfigEntryList
                0x000000004015bade                SeGetConfigEntry
                0x000000004015bb4f                SeGetConfigStr
                0x000000004015bb7c                SeGetConfigBool
                0x000000004015bc28                SeGetConfigInt
                0x000000004015bc4c                SeGetConfigInt64
                0x000000004015bc70                SeGetConfigBin
                0x000000004015bc94                SeIsSplitChar
                0x000000004015bd07                SeGetKeyAndValue
                0x000000004015be97                SeLoadConfigEntryListFromBuf
                0x000000004015c00f                SeLoadConfigEntryList
                0x000000004015c060                SePKeyPasswordCallbackFunction
                0x000000004015c08d                SeDhFree
                0x000000004015c0c7                SeRsaVerifyWithPadding
                0x000000004015c1a1                SeRsaSignWithPadding
                0x000000004015c265                SeRsaPublicDecrypt
                0x000000004015c30e                SeRsaPrivateEncrypt
                0x000000004015c3b7                SeRsaPrivateDecrypt
                0x000000004015c458                SeRsaPublicEncrypt
                0x000000004015c4f9                SeGetCertSha1
                0x000000004015c541                SeGetCertMd5
                0x000000004015c589                SeBinToBigNum
                0x000000004015c5d4                SeBufToBigNum
                0x000000004015c5ef                SeDhCompute
                0x000000004015c67b                SeBigNumToBuf
                0x000000004015c714                SeRsaPublicSize
                0x000000004015c75f                SeRsaPublicToBin
                0x000000004015c7c3                SeRsaPublicToBuf
                0x000000004015c807                SeDhNew
                0x000000004015c8dd                SeDhNewGroup2
                0x000000004015c8f2                SeCheckSignature
                0x000000004015c91c                SeGetKeyFromCert
                0x000000004015c958                SeCompareCert
                0x000000004015c982                SeCheckCertAndKey
                0x000000004015c9ac                SeIsBase64
                0x000000004015ca6d                SeFreePKey
                0x000000004015ca7d                SeFreeKey
                0x000000004015caa5                SeIsCertSignedByCert
                0x000000004015cb15                SeCheckCert
                0x000000004015cb7b                SeBioToKey
                0x000000004015cc89                SeGetCertIssuerName
                0x000000004015cd15                SeGetCertSubjectName
                0x000000004015cd9f                SeFreeX509
                0x000000004015cdaf                SeFreeCert
                0x000000004015cddd                SeFreeBio
                0x000000004015cded                SeNewBio
                0x000000004015ce00                SeCertToBio
                0x000000004015ce61                SeKeyToBio
                0x000000004015cf5d                SeRsaGen
                0x000000004015d0c8                SeBioToBuf
                0x000000004015d169                SeCertToBuf
                0x000000004015d1b4                SeSaveCert
                0x000000004015d215                SeKeyToBuf
                0x000000004015d260                SeSaveKey
                0x000000004015d2c4                SeX509ToCert
                0x000000004015d37c                SeBioToCert
                0x000000004015d3c7                SeBigNumToStr
                0x000000004015d433                SeBufToBio
                0x000000004015d48c                SeBufToKey
                0x000000004015d4f8                SeLoadKey
                0x000000004015d5a3                SeCloneKey
                0x000000004015d60d                SeBufToCert
                0x000000004015d662                SeLoadCert
                0x000000004015d6af                SeCloneCert
                0x000000004015d700                SeSha1
                0x000000004015d720                SeHashForSignBySHA1
                0x000000004015d7ca                SeRsaSignWithSha1
                0x000000004015d86d                SeRsaVerifyWithSha1
                0x000000004015d90f                SeMacSha1
                0x000000004015da66                SeMacSha196
                0x000000004015daad                SeMd5
                0x000000004015dacd                SeDes3Encrypt
                0x000000004015db65                SeDes3Decrypt
                0x000000004015dbff                SeDesNewKeyValue
                0x000000004015dc51                SeDes3NewKey
                0x000000004015dcd2                SeDesNewKey
                0x000000004015dce3                SeDesRandKeyValue
                0x000000004015dcff                SeDesRandKey
                0x000000004015dd49                SeDes3RandKey
                0x000000004015dd92                SeDesFreeKeyValue
                0x000000004015ddba                SeDes3FreeKey
                0x000000004015ddf4                SeDesFreeKey
                0x000000004015ddff                SeRand
                0x000000004015de13                SeRand64
                0x000000004015de2f                SeRand32
                0x000000004015de4a                SeRand16
                0x000000004015de66                SeRand8
                0x000000004015de82                SeRand1
                0x000000004015de95                SeInitCrypto
                0x000000004015ded8                SeFreeCrypto
                0x000000004015def0                SeIkeStrToPassword
                0x000000004015df5d                SeIkePhase1CryptIdToKeySize
                0x000000004015df7c                SeIkePhase2CryptIdToKeySize
                0x000000004015df9b                SeIkeStrToPhase1CryptId
                0x000000004015e001                SeIkeStrToPhase1HashId
                0x000000004015e040                SeIkeStrToPhase2CryptId
                0x000000004015e0ab                SeIkeStrToPhase2HashId
                0x000000004015e0ea                SeIkeIsZeroIP
                0x000000004015e118                SeIkeInitIPv6Address
                0x000000004015e165                SeIkeInitIPv4Address
                0x000000004015e1a8                SeIkeGetIPv6Address
                0x000000004015e1e2                SeIkeGetIPv4Address
                0x000000004015e1fb                SeIkeIpAddressToStr
                0x000000004015e255                SeIkeBuildDataPayload
                0x000000004015e29e                SeIkeBuildTransformValue
                0x000000004015e358                SeIkeBuildTransformValueList
                0x000000004015e3c0                SeIkeBuildTransformPayload
                0x000000004015e43d                SeIkeBuildIdPayload
                0x000000004015e4b4                SeIkeBuildCertPayload
                0x000000004015e517                SeIkeBuildCertRequestPayload
                0x000000004015e57a                SeIkeBuildNoticePayload
                0x000000004015e607                SeIkeBuildDeletePayload
                0x000000004015e6d7                SeIkeGetFirstPayloadType
                0x000000004015e6f6                SeIkeBuildPayloadList
                0x000000004015e801                SeIkeBuildProposalPayload
                0x000000004015e8ac                SeIkeBuildSaPayload
                0x000000004015e935                SeIkeBuildPayload
                0x000000004015ea0e                SeIkeGetPayload
                0x000000004015ea5c                SeIkeGetPayloadNum
                0x000000004015ea98                SeIkeNewPayload
                0x000000004015eab6                SeIkeNewDataPayload
                0x000000004015eb06                SeIkeNewSaPayload
                0x000000004015eb31                SeIkeNewProposalPayload
                0x000000004015ebbb                SeIkeNewTransformPayload
                0x000000004015ec06                SeIkeNewIdPayload
                0x000000004015ec86                SeIkeNewCertPayload
                0x000000004015ecea                SeIkeNewCertRequestPayload
                0x000000004015ed4e                SeIkeNewNoticePayload
                0x000000004015edea                SeIkeNewDeletePayload
                0x000000004015ee26                SeIkeNewTransformValue
                0x000000004015ee55                SeIkeFreeTransformValueList
                0x000000004015ee91                SeIkeParseTransformValueList
                0x000000004015effd                SeIkeParseTransformPayload
                0x000000004015f069                SeIkeFreeTransformPayload
                0x000000004015f097                SeIkeParseIdPayload
                0x000000004015f114                SeIkeFreeIdPayload
                0x000000004015f142                SeIkeParseCertPayload
                0x000000004015f1ab                SeIkeFreeCertPayload
                0x000000004015f1d9                SeIkeParseCertRequestPayload
                0x000000004015f242                SeIkeFreeCertRequestPayload
                0x000000004015f270                SeIkeParseNoticePayload
                0x000000004015f334                SeIkeFreeNoticePayload
                0x000000004015f378                SeIkeFreeDeletePayload
                0x000000004015f3d7                SeIkeParseDeletePayload
                0x000000004015f4e5                SeIkeParseDataPayload
                0x000000004015f51f                SeIkeFreeDataPayload
                0x000000004015f532                SeIkeFreePayloadList
                0x000000004015f56e                SeIkeParsePayloadListEx
                0x000000004015f6f1                SeIkeParsePayloadList
                0x000000004015f704                SeIkeParseProposalPayload
                0x000000004015f7b4                SeIkeParseSaPayload
                0x000000004015f881                SeIkeParsePayload
                0x000000004015f981                SeIkeFreeProposalPayload
                0x000000004015f9c5                SeIkeFreeSaPayload
                0x000000004015f9f1                SeIkeFreePayload
                0x000000004015fa98                SeIkeEncrypt
                0x000000004015fb53                SeIkeEncryptWithPadding
                0x000000004015fc03                SeIkeBuild
                0x000000004015fd5c                SeIkeDecrypt
                0x000000004015fe17                SeIkeFree
                0x000000004015fe53                SeIkeParseEx
                0x000000004016003b                SeIkeParse
                0x000000004016004b                SeIkeParseHeader
                0x000000004016005b                SeIkeNew
                0x00000000401600e0                VPN_IPsec_Client_Start
                0x0000000040160106                VPN_IPsec_Client_Stop
                0x0000000040160116                SeIntInit
                0x0000000040160139                SeIntFree
                0x0000000040160153                VPN_IPsec_Init
                0x00000000401601af                VPN_IPsec_Free
                0x00000000401601e1                SeSysMemoryAlloc
                0x00000000401601fd                SeSysMemoryReAlloc
                0x0000000040160226                SeSysMemoryFree
                0x000000004016023e                SeSysGetCurrentCpuId
                0x0000000040160256                SeSysNewLock
                0x000000004016026e                SeSysLock
                0x0000000040160286                SeSysUnlock
                0x000000004016029e                SeSysFreeLock
                0x00000000401602b6                SeSysGetTickCount
                0x00000000401602ce                SeSysNewTimer
                0x00000000401602f2                SeSysSetTimer
                0x000000004016030a                SeSysFreeTimer
                0x0000000040160322                SeSysGetPhysicalNicInfo
                0x000000004016033f                SeSysSendPhysicalNic
                0x0000000040160365                SeSysSetPhysicalNicRecvCallback
                0x0000000040160387                SeSysGetVirtualNicInfo
                0x00000000401603a4                SeSysSendVirtualNic
                0x00000000401603cd                SeSysSetVirtualNicRecvCallback
                0x00000000401603f2                SeSysSaveData
                0x0000000040160419                SeSysLoadData
                0x0000000040160440                SeSysFreeData
                0x000000004016045b                SeSysRsaSign
                0x0000000040160493                SeSysLog
                0x00000000401604c1                SeRsaSign
                0x0000000040160560                Se4ParseIpPacketUDPv4
                0x000000004016065b                Se4FreeIpHeaderInfo
                0x000000004016068f                Se4IpChecksum
                0x0000000040160702                Se4IpCheckChecksum
                0x0000000040160751                Se4ParseIpPacketICMPv4
                0x0000000040160880                Se4BuildIcmpEchoPacket
                0x000000004016093c                Se4AdjustTcpMss
                0x0000000040160ae1                Se4Tick
                0x0000000040160af9                Se4BroadcastMacAddress
                0x0000000040160b04                Se4SendEthPacket
                0x0000000040160bdb                Se4SendIpFragmentNow
                0x0000000040160c04                Se4InitArpEntryList
                0x0000000040160c14                Se4FreeArpEntryList
                0x0000000040160c50                Se4FlushArpEntryList
                0x0000000040160cfd                Se4SearchArpEntryList
                0x0000000040160d89                Se4AddArpEntryList
                0x0000000040160e76                Se4SearchArpWaitList
                0x0000000040160ebe                Se4InitArpWaitList
                0x0000000040160ece                Se4FreeArpWaitList
                0x0000000040160f0a                Se4InsertIpWait
                0x0000000040160f8c                Se4InitIpWaitList
                0x0000000040160f9c                Se4FreeIpWait
                0x0000000040160fc5                Se4FlushIpWaitList
                0x0000000040161087                Se4FreeIpWaitList
                0x00000000401610c3                Se4InitIpCombineList
                0x00000000401610d3                Se4SearchIpCombineList
                0x0000000040161149                Se4InitIpFragmentList
                0x0000000040161159                Se4InsertIpCombine
                0x0000000040161258                Se4FreeIpFragmentList
                0x0000000040161294                Se4FreeIpCombine
                0x00000000401612cc                Se4FlushIpCombineList
                0x00000000401613b5                Se4FreeIpCombineList
                0x0000000040161403                Se4Free
                0x0000000040161447                Se4And
                0x0000000040161476                Se4GetNetworkAddress
                0x0000000040161481                Se4Or
                0x00000000401614b0                Se4Not
                0x00000000401614da                Se4GetBroadcastAddress
                0x000000004016151f                Se4GetHostAddress
                0x0000000040161539                Se4GenerateSubnetMask32
                0x000000004016155a                Se4IPToStr
                0x000000004016159d                Se4ZeroIP
                0x00000000401615b8                Se4StrToIP
                0x0000000040161659                Se4IPToUINT
                0x000000004016167b                Se4StrToIP32
                0x000000004016168d                Se4IsZeroIP
                0x00000000401616a0                Se4Init
                0x00000000401617b6                Se4Cmp
                0x00000000401617ef                Se4CheckUnicastAddress
                0x0000000040161840                Se4IsInSameNetwork
                0x000000004016188f                Se4CmpIpCombineList
                0x000000004016192d                Se4SendWaitingIpWait
                0x0000000040161a0e                Se4MacIpRelationKnown
                0x0000000040161aba                Se4CmpArpWaitEntry
                0x0000000040161af1                Se4CmpArpEntry
                0x0000000040161b28                Se4ParseIpPacket
                0x0000000040161c7e                Se4IsBroadcastAddress
                0x0000000040161c92                Se4SendArpResponse
                0x0000000040161d79                Se4SendArpDoProcess
                0x0000000040161e7f                Se4ProcessArpWaitList
                0x0000000040161f33                Se4MainProc
                0x0000000040161f64                Se4SendArpRequest
                0x0000000040161fd9                Se4UINTToIP
                0x0000000040161ffb                Se4IPToStr32
                0x000000004016201f                Se4GenerateSubnetMask
                0x0000000040162031                Se4IsSubnetMask
                0x000000004016206e                Se4RecvArpResponse
                0x00000000401620b3                Se4RecvArpRequest
                0x00000000401621dd                Se4RecvArp
                0x000000004016229a                Se4SendRawIp
                0x00000000401623fd                Se4SendIpFragment
                0x0000000040162530                Se4SendIp
                0x0000000040162612                Se4SendUdp
                0x0000000040162744                Se4SendIcmp
                0x00000000401627fd                Se4SendIcmpEchoResponse
                0x0000000040162892                Se4RecvIpComplete
                0x000000004016295f                Se4CombineIp
                0x0000000040162b5d                Se4SendIcmpEchoRequest
                0x0000000040162bf2                Se4RecvIp
                0x0000000040162e8c                Se4RecvEthPacket
                0x0000000040162f20                Se6FreeIpHeaderInfo
                0x0000000040162f54                Se6IpChecksum
                0x0000000040162fc7                Se6CalcChecksum
                0x0000000040163088                Se6ParseIpPacketICMPv6
                0x00000000401632c6                Se6ParseIpPacketUDPv6
                0x0000000040163415                Se6BuildIcmpEchoPacket
                0x00000000401634fe                Se6BroadcastMacAddress
                0x0000000040163509                Se6SendEthPacket
                0x00000000401635e0                Se6SendIpFragmentNow
                0x0000000040163609                Se6InitNeighborEntryList
                0x0000000040163619                Se6FreeNeighborEntryList
                0x0000000040163655                Se6FlushNeighborEntryList
                0x0000000040163702                Se6SearchNeighborEntryList
                0x0000000040163759                Se6AddNeighborEntryList
                0x0000000040163843                Se6SearchNdpWaitList
                0x0000000040163892                Se6InitNdpWaitList
                0x00000000401638a2                Se6FreeNdpWaitList
                0x00000000401638de                Se6InsertIpWait
                0x000000004016396d                Se6InitIpWaitList
                0x000000004016397d                Se6FreeIpWait
                0x00000000401639a6                Se6FreeIpWaitList
                0x00000000401639e2                Se6InitIpCombineList
                0x00000000401639f2                Se6SearchIpCombineList
                0x0000000040163a96                Se6InitIpFragmentList
                0x0000000040163aa6                Se6FreeIpFragmentList
                0x0000000040163ae2                Se6FreeIpCombine
                0x0000000040163b1d                Se6FreeIpCombineList
                0x0000000040163b6b                Se6Free
                0x0000000040163bbb                Se6Tick
                0x0000000040163bd3                Se6InsertIpCombine
                0x0000000040163d0a                Se6FlushIpCombineList
                0x0000000040163df6                Se6FlushIpWaitList
                0x0000000040163ebe                Se6GenerateEui64Address
                0x0000000040163f1f                Se6GenerateMulticastMacAddress
                0x0000000040163f55                Se6GetAllNodeMulticastAddr
                0x0000000040163f81                Se6GetAllRouterMulticastAddr
                0x0000000040163fad                Se6And
                0x0000000040163feb                Se6GetPrefixAddress
                0x0000000040163ffa                Se6Or
                0x0000000040164038                Se6Not
                0x000000004016406c                Se6GetHostAddress
                0x00000000401640a8                Se6GenerateSubnetMask
                0x000000004016410d                Se6GetSoliciationMulticastAddr
                0x00000000401641be                Se6LocalSubnet
                0x00000000401641d2                Se6Cmp
                0x00000000401641fe                Se6GetIPAddrType
                0x000000004016430c                Se6IsInSameNetwork
                0x00000000401643d3                Se6SendRawIp
                0x0000000040164545                Se6SendIpFragment
                0x0000000040164561                Se6SendIp
                0x00000000401646de                Se6SendUdp
                0x000000004016480a                Se6SendIcmp
                0x0000000040164906                Se6SendIcmpNeighborSoliciation
                0x0000000040164a7c                Se6SendNeighborSoliciationDoProcess
                0x0000000040164b36                Se6SendNeighborSoliciation
                0x0000000040164bbe                Se6ProcessNdpWaitList
                0x0000000040164c78                Se6SendIcmpNeighborAdvertisement
                0x0000000040164dbc                Se6SendIcmpEchoResponse
                0x0000000040164e81                Se6SendIcmpEchoRequest
                0x0000000040164f46                Se6IsSubnetMask
                0x0000000040164fa8                Se6SubnetMaskToInt
                0x0000000040165002                Se6SendIcmpRouterAdvertisement
                0x00000000401651da                Se6MainProc
                0x0000000040165234                Se6CmpIpCombineList
                0x00000000401652c5                Se6SendWaitingIpWait
                0x00000000401653bc                Se6MacIpRelationKnown
                0x00000000401654de                Se6CmpNdpWaitEntry
                0x000000004016551f                Se6CmpNeighborEntry
                0x0000000040165560                Se6ParseIpPacket
                0x0000000040165702                Se6IsZeroIP
                0x0000000040165722                Se6CheckUnicastAddress
                0x0000000040165756                Se6IsNetworkPrefixAddress
                0x0000000040165798                Se6IsGuestNode
                0x000000004016583c                Se6AddGuestNode
                0x0000000040165910                Se6RecvIpComplete
                0x0000000040165bc7                Se6CombineIp
                0x0000000040165ddd                Se6RecvIp
                0x000000004016601a                Se6RecvEthPacket
                0x000000004016608c                Se6IPToStr
                0x00000000401661ea                Se6IPItemStrToChars
                0x00000000401662ca                Se6CheckIPItemStr
                0x0000000040166333                Se6ZeroIP
                0x0000000040166353                Se6StrToIP
                0x000000004016651f                Se6GenerateEui64LocalAddress
                0x0000000040166592                Se6Init
                0x00000000401666f1                Se6GenerateEui64GlobalAddress
                0x00000000401667f2                Se6CheckSubnetLength
                0x0000000040166810                SeTimerEntryCompare
                0x0000000040166850                SeEthGetInfo
                0x0000000040166874                SeEthSendAdd
                0x00000000401668a7                SeEthParseEthernetPacket
                0x00000000401669a8                SeEthGenRandMacAddress
                0x00000000401669fa                SeLoad
                0x0000000040166a5f                SeSave
                0x0000000040166a7b                SeTick
                0x0000000040166a8b                SeGetCurrentCpuId
                0x0000000040166a9b                SeNewLock
                0x0000000040166ad6                SeEthNew
                0x0000000040166bec                SeTimerNew
                0x0000000040166c62                SeLock
                0x0000000040166cac                SeUnlock
                0x0000000040166cd3                SeTick64Internal
                0x0000000040166d29                SeTick64
                0x0000000040166d48                SeInitKernel
                0x0000000040166d82                SeEthGetNextRecvPacket
                0x0000000040166dcb                SeEthDeleteOldSenderMacList
                0x0000000040166e9f                SeEthIsSenderMacAddressExistsInList
                0x0000000040166f46                SeEthNicCallback
                0x0000000040167047                SeEthAddSenderMacList
                0x0000000040167141                SeEthSend
                0x00000000401671c7                SeEthSendAll
                0x0000000040167298                SeTimerAdjust
                0x000000004016731e                SeTimerSet
                0x00000000401673a4                SeTimerCallback
                0x00000000401674b4                SeDeleteLock
                0x00000000401674dc                SeEthFree
                0x0000000040167585                SeTimerFree
                0x00000000401675df                SeFreeKernel
                0x00000000401675f5                SeLogArgs
                0x0000000040167633                SeWarning
                0x0000000040167679                SeError
                0x00000000401676bf                SeInfo
                0x0000000040167705                SeFatal
                0x000000004016774b                SeDebug
                0x0000000040167791                SeDebugBin
                0x00000000401677ff                SeLog
                0x0000000040167840                SeB64CodeToChar
                0x0000000040167886                SeB64CharToCode
                0x00000000401678cd                SeIsZero
                0x0000000040167916                SeReplaceListPointer
                0x0000000040167972                SeIsInListStr
                0x00000000401679e3                SeIsInList
                0x0000000040167a2e                SeCompareStr
                0x0000000040167a50                SeSetSortFlag
                0x0000000040167a5e                SeSetCmp
                0x0000000040167a7f                SeFastSwap
                0x0000000040167ab3                SeQSort
                0x0000000040167dcb                SeSort
                0x0000000040167e03                SeBSearch
                0x0000000040167ed2                SeSearch
                0x0000000040167f3a                SeFifoSize
                0x0000000040167f4d                SeDumpBuf
                0x0000000040167f75                SeSeekBuf
                0x0000000040167fab                SeClearBuf
                0x0000000040167fc4                SeSwap16
                0x0000000040167fdf                SeSwap32
                0x0000000040168009                SeSwap64
                0x0000000040168060                SeMalloc
                0x00000000401680a2                SeNewBuf
                0x00000000401680e4                SeNewFifo
                0x0000000040168126                SeReAlloc
                0x0000000040168197                SeAdjustBufSize
                0x00000000401681cc                SeClearFifo
                0x0000000040168209                SeAdd
                0x0000000040168273                SeInsert
                0x00000000401683a1                SeInsertStr
                0x00000000401683f4                SeDelete
                0x00000000401684af                SeDeleteAll
                0x00000000401684e6                SePop
                0x000000004016854d                SePush
                0x00000000401685b0                SeMemSize
                0x00000000401685e2                SeFree
                0x0000000040168611                SeFreeBuf
                0x0000000040168639                SeFreeBufWithoutBuffer
                0x0000000040168649                SeFreeFifo
                0x0000000040168671                SeFreeList
                0x000000004016869a                SeFreeQueue
                0x00000000401686c3                SeFreeStack
                0x00000000401686ec                SeIsLittleEndian
                0x00000000401686ff                SeEndian16
                0x0000000040168723                SeEndian32
                0x0000000040168746                SeEndian64
                0x000000004016876d                SeIsBigEndian
                0x0000000040168785                SeCmp
                0x00000000401687f4                SeCmpEx
                0x0000000040168829                SeCmpBuf
                0x000000004016886a                SeCopy
                0x0000000040168892                SeClone
                0x00000000401688df                SeSwap
                0x0000000040168939                SeWriteBuf
                0x00000000401689b0                SeMemToBuf
                0x0000000040168a16                SeRandBuf
                0x0000000040168a5c                SeCloneBuf
                0x0000000040168a77                SeWriteBufLine
                0x0000000040168acf                SeWriteBufBuf
                0x0000000040168aea                SeWriteBufInt
                0x0000000040168b2a                SeWriteBufInt64
                0x0000000040168b6d                SeWriteBufStr
                0x0000000040168bdb                SeAddBufStr
                0x0000000040168c1a                SeReadDump
                0x0000000040168c7f                SePeekFifo
                0x0000000040168cbd                SePeekNext
                0x0000000040168cfb                SeReadFifo
                0x0000000040168de8                SeGetNext
                0x0000000040168e32                SeGetNextInt
                0x0000000040168e68                SeWriteFifo
                0x0000000040168efc                SeInsertQueue
                0x0000000040168f32                SeInsertQueueInt
                0x0000000040168f66                SeCopyToArray
                0x0000000040168f8a                SeToArray
                0x0000000040168fcf                SeZero
                0x0000000040168ff1                SeZeroMalloc
                0x0000000040169029                SeNewList
                0x000000004016907c                SeCloneList
                0x00000000401690ca                SeNewQueue
                0x00000000401690fe                SeNewStack
                0x0000000040169139                SeB64Decode
                0x0000000040169308                SeB64Encode
                0x00000000401694c1                SeReadBuf
                0x000000004016955b                SeReadBufFromBuf
                0x00000000401695f7                SeReadRemainBuf
                0x000000004016961f                SeReadBufInt
                0x0000000040169654                SeReadBufInt64
                0x000000004016968c                SeReadBufStr
                0x0000000040169740                SeBuildICMPv6OptionValue
                0x00000000401697cf                SeBuildICMPv6Options
                0x000000004016987a                SeParseICMPv6Options
                0x0000000040169953                SeFreePacketList
                0x000000004016998f                SeFreePacketListWithoutBuffer
                0x00000000401699cb                SeGetNextHeaderFromQueue
                0x00000000401699f7                SeBuildAndAddIPv6PacketOptionHeader
                0x0000000040169a94                SeBuildIPv6Packet
                0x0000000040169c79                SeBuildIPv6PacketWithFragment
                0x0000000040169e35                SeParseIPv6ExtHeader
                0x0000000040169f22                SeParseIPv6Packet
                0x0000000040169f9d                SeParsePacketL3IPv6
                0x0000000040169fde                SeParsePacketL3IPv4
                0x000000004016a097                SeParsePacketL3ARPv4
                0x000000004016a0c1                SeParsePacketL2
                0x000000004016a163                SeFreePacket
                0x000000004016a173                SeParsePacket
                0x000000004016a210                SeSecCmpIkeSa
                0x000000004016a2e8                SeSecCalcP2Iv
                0x000000004016a39c                SeSecCalcP1Iv
                0x000000004016a449                SeSecCalcKEYMATFull
                0x000000004016a553                SeSecCalcKEYMAT
                0x000000004016a61a                SeSecCalcKa
                0x000000004016a6ef                SeSecCalcP1KeySet
                0x000000004016a906                SeSecForceReconnect
                0x000000004016a93f                SeSecLifeSeconds64bit
                0x000000004016a95f                SeSecGetIPsecSa
                0x000000004016a9ab                SeSecNewIkeSa
                0x000000004016aa5c                SeSecFreeP1KeySet
                0x000000004016aaaa                SeSecGenIkeSaMessageId
                0x000000004016ab19                SeSecGenIkeSaInitCookie
                0x000000004016ab88                SeSecInitSaList
                0x000000004016abc2                SeSecSearchIPsecSaBySpi
                0x000000004016ac51                SeSecSearchIkeSaBySpi
                0x000000004016ad1c                SeSecSearchIkeSa
                0x000000004016ade8                SeSecNewSpi
                0x000000004016adff                SeSecGenIPsecSASpi
                0x000000004016ae6e                SeSecStrToAuthMethod
                0x000000004016aed9                SeSecTick
                0x000000004016aef3                SeSecCheckIPsecSaExpires
                0x000000004016afb6                SeSecCheckIkeSaExpires
                0x000000004016b075                SeSecSetTimerCallback
                0x000000004016b095                SeSecAddTimer
                0x000000004016b0b5                SeSecDoInterval
                0x000000004016b126                SeSecNewIPsecSa
                0x000000004016b293                SeSecSetRecvUdpCallback
                0x000000004016b2b3                SeSecSetRecvEspCallback
                0x000000004016b2d3                SeSecSetRecvVirtualIpCallback
                0x000000004016b2f3                SeSecSendUdp
                0x000000004016b33c                SeSecProcessIkeSaMsgPhase1
                0x000000004016bc45                SeSecSendIkeSaMsgPhase2
                0x000000004016c167                SeSecSendIkeSaMsgPhase2FinalHash
                0x000000004016c307                SeSecProcessIkeSaMsgPhase2
                0x000000004016c766                SeSecSendIkeSaMsgInfo
                0x000000004016c9ce                SeSecSendIkeSaMsgInfoSimple
                0x000000004016ca36                SeSecSendIPsecSaDeleteMsg
                0x000000004016caba                SeSecFreeIPsecSa
                0x000000004016cb3a                SeSecDeleteExpiredIPsecSa
                0x000000004016cbe0                SeSecProcessIkeSaMsgInfo
                0x000000004016cf05                SeSecProcessIkeSaMsg
                0x000000004016cf59                SeSecUdpRecvCallback
                0x000000004016d1c5                SeSecSendIkeSaDeleteMsg
                0x000000004016d262                SeSecFreeIkeSa
                0x000000004016d41b                SeSecFreeSaList
                0x000000004016d494                SeSecFreeMain
                0x000000004016d4a4                SeSecFree
                0x000000004016d4d3                SeSecDeleteExpiredIkeSa
                0x000000004016d636                SeSecStartVpnConnect
                0x000000004016dc6a                SeSecProcessMain
                0x000000004016dd5c                SeSecTimerCallback
                0x000000004016dd6f                SeSecInitMain
                0x000000004016dd94                SeSecInit
                0x000000004016dec8                SeSecSendEsp
                0x000000004016df01                SeSecVirtualIpRecvCallback
                0x000000004016e10a                SeSecSendVirtualIp
                0x000000004016e132                SeSecEspRecvCallback
                0x000000004016e2e0                SeMakeCharArray
                0x000000004016e314                SeFreeToken
                0x000000004016e362                SeNullTokenList
                0x000000004016e396                SeDefaultTokenSplitChars
                0x000000004016e3a1                Se4BitToHex
                0x000000004016e3b6                SeHexTo4Bit
                0x000000004016e3f2                SeStrCmp
                0x000000004016e486                SeStrnCmp
                0x000000004016e553                SeToUpper
                0x000000004016e567                SeStrnCmpi
                0x000000004016e632                SeStrCmpi
                0x000000004016e6e2                SeToLower
                0x000000004016e6f6                SeStrCheckLen
                0x000000004016e732                SeStrCheckSize
                0x000000004016e750                SeStrLen
                0x000000004016e777                SeStrSize
                0x000000004016e78f                SeStrCpy
                0x000000004016e85a                SeStrCat
                0x000000004016e8fc                SeStrUpper
                0x000000004016e93c                SeStrLower
                0x000000004016e97c                SeToInt64
                0x000000004016e9d2                SeToInt
                0x000000004016ea20                SeToStr64
                0x000000004016eae7                SeToStr
                0x000000004016eba1                SeToHex
                0x000000004016ec55                SeToHex64
                0x000000004016ed09                SeHexToInt
                0x000000004016ed91                SeHexToInt64
                0x000000004016ee1b                SeTrimLeft
                0x000000004016eec8                SeTrimRight
                0x000000004016efda                SeTrim
                0x000000004016efff                SeCopyStr
                0x000000004016f054                SeTrimCopy
                0x000000004016f081                SeUniqueToken
                0x000000004016f1db                SeSearchStrEx
                0x000000004016f32f                SeSearchStri
                0x000000004016f33f                SeSearchStr
                0x000000004016f34f                SeCalcReplaceStrEx
                0x000000004016f40a                SeReplaceStrEx
                0x000000004016f55f                SeReplaceStr
                0x000000004016f570                SeReplaceStri
                0x000000004016f581                SeTrimCrlf
                0x000000004016f5c8                SeStartWith
                0x000000004016f66e                SeEndWith
                0x000000004016f6d7                SeIsEmptyStr
                0x000000004016f721                SeNormalizeCrlf
                0x000000004016f7b4                SeIsCharInStr
                0x000000004016f80c                SeParseToken
                0x000000004016f9a7                SeParseTokenWithNullStr
                0x000000004016fb04                SeToStr3
                0x000000004016fc52                SeIsAllUpperStr
                0x000000004016fcc4                SeIsAllLowerStr
                0x000000004016fd36                SeFormatEx
                0x0000000040170249                SeFormatArgs
                0x00000000401702a9                SeFormat
                0x00000000401702df                SeBinToStr
                0x0000000040170386                SeBinToStrEx
                0x000000004017042f                SeMacToStr
                0x0000000040170480                SeStrToBin
                0x000000004017056f                SeStrToBinEx
                0x00000000401705e2                SeStrToMac
                0x00000000401705f5                SeReadNextLine
                0x00000000401706c0                SeVpnRecvIpV6PacketCallback
                0x0000000040170710                SeVpnRecvIpV4PacketCallback
                0x0000000040170760                SeVpnInitIpStack
                0x0000000040170ac2                SeVpnFreeIpStack
                0x0000000040170b62                SeVpnMainInit
                0x0000000040170c7b                SeVpnMainFree
                0x0000000040170c9f                SeVpnRecvEtherPacket
                0x0000000040170d06                SeVpnSendEtherPacket
                0x0000000040170d2b                SeVpnMainProcRecvEtherPacket
                0x0000000040170dda                SeVpnStatusChanged
                0x0000000040170dec                SeVpnMainProcess
                0x0000000040170eea                SeVpnMainHandler
                0x0000000040170f37                SeVpnEthRecvCallback
                0x0000000040170f4f                SeVpnTimerCallback
                0x0000000040170f67                SeVpnTick
                0x0000000040170f7b                SeVpnAddTimer
                0x0000000040170f8f                SeVpnDoInterval
                0x0000000040170fff                SeVpnFreeConfig
                0x000000004017100f                SeVpnFree
                0x0000000040171060                SeVpnLoadConfig
                0x00000000401723be                SeVpnInit
                0x00000000401724e0                SeVpn4ClientSetTimerCallback
                0x00000000401724f3                SeVpn4ClientSetRecvUdpCallback
                0x0000000040172506                SeVpn4ClientSetRecvEspCallback
                0x0000000040172519                SeVpn4ClientSetRecvVirtualIpCallback
                0x000000004017252c                SeVpn4ClientSendVirtualIp
                0x000000004017256b                SeVpn4ClientSendEsp
                0x00000000401725eb                SeVpn4ClientSendUdp
                0x0000000040172676                SeVpn4IPsecSendPing
                0x00000000401727be                SeVpn4IPsecInputFromPhysical
                0x0000000040172889                SeVpn4IPsecInputFromVirtual
                0x00000000401728fd                SeVpn4FreeIPsec
                0x0000000040172911                SeVpn4InitSecConfig
                0x0000000040172af2                SeVpn4InitIPsec
                0x0000000040172bc3                SeVpn4DoInterval
                0x0000000040172bdb                SeVpn4Tick
                0x0000000040172bf3                SeVpn4ClientGetTick
                0x0000000040172c08                SeVpn4IPsecMainProc
                0x0000000040172c90                SeVpn4MainProc
                0x0000000040172cab                SeVpn4SetTimer
                0x0000000040172cbe                SeVpn4ClientAddTimer
                0x0000000040172cd6                SeVpn4DhcpSendResponse
                0x0000000040172deb                SeVpn4DhcpOptionsToBuf
                0x0000000040172ea9                SeVpn4NewDhcpOption
                0x0000000040172f10                SeVpn4DhcpBuildDhcpOptionList
                0x00000000401730ee                SeVpn4DhcpSearchOption
                0x000000004017312a                SeVpn4DhcpFreeOptionList
                0x0000000040173180                SeVpn4DhcpParseOptionListMain
                0x000000004017326e                SeVpn4DhcpParseOptionList
                0x0000000040173361                SeVpn4DhcpServer
                0x000000004017362c                SeVpn4RecvPacketPhysical
                0x0000000040173701                SeVpn4RecvPacketVirtual
                0x0000000040173863                SeVpn4Init
                0x00000000401738c8                SeVpn4Free
                0x0000000040173900                SeVpn6ClientSetTimerCallback
                0x0000000040173913                SeVpn6ClientSetRecvUdpCallback
                0x0000000040173926                SeVpn6ClientSetRecvEspCallback
                0x0000000040173939                SeVpn6ClientSetRecvVirtualIpCallback
                0x000000004017394c                SeVpn6ClientSendVirtualIp
                0x000000004017398b                SeVpn6ClientSendEsp
                0x0000000040173a2b                SeVpn6ClientSendUdp
                0x0000000040173ae0                SeVpn6IPsecSendPing
                0x0000000040173cc6                SeVpn6UpdateGuestOsIpAddress
                0x0000000040173d9a                SeVpn6IPsecInputFromPhysical
                0x0000000040173e65                SeVpn6IPsecInputFromVirtual
                0x0000000040173e99                SeVpn6InitSecConfig
                0x000000004017408b                SeVpn6InitIPsec
                0x000000004017416c                SeVpn6FreeIPsec
                0x0000000040174180                SeVpn6DoInterval
                0x0000000040174198                SeVpn6Tick
                0x00000000401741b0                SeVpn6ClientGetTick
                0x00000000401741c5                SeVpn6IPsecMainProc
                0x0000000040174255                SeVpn6MainProc
                0x0000000040174270                SeVpn6SetTimer
                0x0000000040174283                SeVpn6ClientAddTimer
                0x000000004017429b                SeVpn6RecvPacketPhysical
                0x000000004017431d                SeVpn6RecvPacketVirtual
                0x0000000040174454                SeVpn6Init
                0x00000000401744ca                SeVpn6Free
                0x0000000040174500                crypt_sys_rsa_sign
                0x0000000040174895                msg_usb_bulk_read
                0x00000000401748f5                msg_usb_bulk_write
                0x0000000040174955                msg_usb_claim_interface
                0x000000004017499b                msg_usb_close
                0x00000000401749f5                msg_usb_control_msg
                0x0000000040174a6a                msg_usb_find_busses
                0x0000000040174aa8                msg_usb_find_devices
                0x0000000040174ae6                msg_usb_get_busses
                0x0000000040174b4d                msg_usb_get_string_simple
                0x0000000040174ba9                msg_usb_init
                0x0000000040174bbe                msg_usb_open
                0x0000000040174c37                msg_usb_release_interface
                0x0000000040174c7d                msg_usb_reset
                0x0000000040174cc0                IDMan_StReadSetData
                0x00000000401753a5                idman_user_init
                0x0000000040175400                IDMan_IPIdPassListMalloc
                0x00000000401754eb                IDMan_IPRetJudgment
                0x0000000040175567                IDMan_IPFinalizeReader
                0x0000000040175589                IDMan_IPFinalize
                0x00000000401755df                IDMan_IPInitialize
                0x00000000401756e8                IDMan_IPInitializeReader
                0x0000000040175715                IDMan_getMemoryFree
                0x000000004017575d                IDMan_PaddingParamChk
                0x0000000040175822                IDMan_CmPadding
                0x00000000401759de                IDMan_CmPadding2
                0x0000000040175b5a                IDMan_IPgetCertPKCS
                0x0000000040176252                IDMan_IPgetCertIdxPKCS
                0x0000000040176725                IDMan_IPCheckPKC
                0x000000004017694e                IDMan_CheckCardStatus
                0x0000000040176980                IDMan_IPgSParamChk
                0x0000000040176ab0                IDMan_IPgIdxSParamChk
                0x0000000040176ae8                IDMan_IPgetPrivateKey
                0x0000000040176cdb                IDMan_IPgetHash
                0x0000000040176dd2                IDMan_IPCrSignature
                0x0000000040176f3a                IDMan_generateSignature
                0x0000000040177074                IDMan_generateSignatureByIndex
                0x000000004017719b                IDMan_EncryptByIndex
                0x00000000401772c4                IDMan_IPgCParamChk
                0x00000000401773b6                IDMan_getCertificate
                0x00000000401776d8                IDMan_IPgCIndexParamChk
                0x0000000040177711                IDMan_getCertificateByIndex
                0x0000000040177aa8                IDMan_getStaticPassword
                0x0000000040177dc0                IDMan_IPuAPKCS11ParamChk
                0x0000000040177ec1                IDMan_IPuAPKCS11IdxParamChk
                0x0000000040177ee8                IDMan_IPgetCertPkeyPKCSx
                0x00000000401783ab                IDMan_IPgetCertPkeyIdxPKCSx
                0x00000000401787d4                IDMan_IPgetCertPkeyPKCSy
                0x0000000040178922                IDMan_IPCheckCrlPkcX
                0x0000000040178a5f                IDMan_IPgetMakeRandData
                0x0000000040178ad7                IDMan_IPMkRandHash
                0x0000000040178b94                IDMan_IPgetPrivateKeyPKCSx
                0x0000000040178d67                IDMan_IPSignatureVerify
                0x0000000040178ee0                IDMan_userAuthPKCS11
                0x0000000040179365                IDMan_userAuthPKCS11ByIndex
                0x00000000401797f0                IDMan_IPvSParamChk
                0x000000004017996e                IDMan_IPvSIdxParamChk
                0x00000000401799d1                IDMan_IPMkPublicKeyObj
                0x0000000040179b15                IDMan_IPCheckSignature
                0x0000000040179ccf                IDMan_verifySignature
                0x0000000040179eac                IDMan_verifySignatureByIndex
                0x000000004017a070                CardEstablishContext
                0x000000004017a088                CardReleaseContext
                0x000000004017a0b9                CardListReaders
                0x000000004017a0d1                CardConnect
                0x000000004017a10f                CardDisconnect
                0x000000004017a12c                CardStatus
                0x000000004017a17d                CardTransmit
                0x000000004017a1b9                SelectFileDF
                0x000000004017a2ac                SelectFileEF
                0x000000004017a397                Verify
                0x000000004017a4ab                InternalAuth
                0x000000004017a5ef                ReadBinary
                0x000000004017abdf                UpdateBinary
                0x000000004017ad09                GetICCardData
                0x000000004017b0f0                GetUlByTxt
                0x000000004017b12f                GetVerByTex
                0x000000004017b217                GetUlByByte
                0x000000004017b25c                TransHex2Tex
                0x000000004017b2ef                TransTex2Hex
                0x000000004017b3a6                GetLength
                0x000000004017b413                SetLength
                0x000000004017b478                GetTlvByBuf
                0x000000004017b7f5                GetDirDataByTlv
                0x000000004017b91a                GetOdfDataByTlv
                0x000000004017ba8d                GetTokenDataByTlv
                0x000000004017bef3                AddObjTblByTlv
                0x000000004017c597                AddCertDataByBuf
                0x000000004017c69d                AddIdPassDataByBuf
                0x000000004017ca3d                GetValueData
                0x000000004017cde0                AddElem
                0x000000004017ce7e                SetElem
                0x000000004017cf45                GetElem
                0x000000004017cf81                GetAttrValType
                0x000000004017d0f5                DestroyAttribute
                0x000000004017d13f                DestroyTlvData
                0x000000004017d154                DestroyElem
                0x000000004017d1da                DestroyList
                0x000000004017d217                DestroySessionData
                0x000000004017d255                DestroyTokenData
                0x000000004017d2b5                DestroySlotData
                0x000000004017d2f1                DelElem
                0x000000004017d360                C_GetFunctionList
                0x000000004017d372                C_Initialize
                0x000000004017d4df                C_Finalize
                0x000000004017d57a                C_GetInfo
                0x000000004017d600                C_GetSlotList
                0x000000004017dee4                C_GetSlotInfo
                0x000000004017dfcc                C_GetTokenInfo
                0x000000004017e803                C_GetMechanismList
                0x000000004017e8d4                C_GetMechanismInfo
                0x000000004017e990                C_OpenSession
                0x000000004017eb4b                C_CloseSession
                0x000000004017ec24                C_CloseAllSessions
                0x000000004017ed30                C_GetSessionInfo
                0x000000004017edac                C_Login
                0x000000004017f203                C_Logout
                0x000000004017f31a                C_FindObjectsInit
                0x000000004017f591                C_FindObjects
                0x000000004017faea                C_FindObjectsFinal
                0x000000004017fb60                C_GetAttributeValue
                0x000000004017fe81                C_SignInit
                0x000000004017ff48                C_Sign
                0x00000000401802cf                C_DigestInit
                0x000000004018034a                C_DigestUpdate
                0x00000000401803d2                C_DigestFinal
                0x0000000040180519                C_VerifyInit
                0x00000000401805e0                C_Verify
                0x0000000040180752                C_CreateObject
                0x00000000401809ff                C_DestroyObject
                0x0000000040180abf                C_SetAttributeValue
                0x00000000401816c9                C_GetCardStatus
                0x0000000040181760                IDMan_StFree
                0x0000000040181770                IDMan_StMemcpy
                0x0000000040181794                IDMan_StMemset
                0x00000000401817b2                IDMan_StMalloc
                0x00000000401817f9                IDMan_StMemcmp
                0x0000000040181852                IDMan_StStrlen
                0x000000004018186c                IDMan_StStrcat
                0x00000000401818a9                IDMan_StStrchr
                0x00000000401818e6                IDMan_StStrcpy
                0x000000004018190d                IDMan_StStrcmp
                0x0000000040181958                StIsspace
                0x00000000401819d5                StIsdigit
                0x00000000401819e7                IDMan_StAtoi
                0x0000000040181a43                IDMan_StAtol
                0x0000000040181aab                IDMan_CmMkHash
                0x0000000040181c66                IDMan_CmChgRSA
                0x0000000040181e2f                IDMan_CmGetDN
                0x00000000401820d6                IDMan_CmGetCertificateSign
                0x0000000040182300                IDMan_CmGetPublicKey
                0x00000000401824dc                IDMan_CmMakeRand
                0x000000004018257a                IDMan_CmCheckCRL
                0x0000000040182900                IDMan_SCardEstablishContext
                0x000000004018291d                IDMan_SCardReleaseContext
                0x0000000040182928                IDMan_SCardListReaders
                0x0000000040182958                IDMan_SCardConnect
                0x0000000040182988                IDMan_SCardDisconnect
                0x0000000040182993                IDMan_SCardStatus
                0x0000000040182a15                IDMan_SCardSizeLongToChar
                0x0000000040182a56                IDMan_SCardSetBinay
                0x0000000040182df5                IDMan_SCardTransmit
                0x0000000040182e60                EHDestroyEventHandler
                0x0000000040182ecd                EHInitEventHandler
                0x0000000040182f83                EHStatusHandler
                0x0000000040183120                HPSearchHotPluggables
                0x0000000040183470                PHGetProtocol
                0x000000004018384b                PHSetProtocol
                0x00000000401838b4                RFAddReader
                0x00000000401839cf                RFRemoveReader
                0x0000000040183a89                RFReaderInfoById
                0x0000000040183ab9                RFCheckReaderEventState
                0x0000000040183af0                SCardEstablishContext
                0x0000000040183be0                SCardListReaders
                0x0000000040183c8d                SCardConnect
                0x0000000040183f11                SCardDisconnect
                0x00000000401840c2                SCardBeginTransaction
                0x0000000040184116                SCardEndTransaction
                0x00000000401842de                SCardStatus
                0x00000000401844e9                SCardReleaseContext
                0x00000000401845af                SCardTransmit
                0x0000000040184800                SetATR
                0x0000000040184a6d                GetIFSCData
                0x0000000040184ac3                GetBWICWIData
                0x0000000040184b61                IFDHCloseChannel
                0x0000000040184bed                IFDHGetCapabilities
                0x0000000040184c2c                IFDHSetProtocolParameters
                0x000000004018532b                IFDHPowerICC
                0x000000004018552a                IFDHTransmitToICC
                0x00000000401857ea                IFDHControl
                0x0000000040185903                IFDHICCPresence
                0x00000000401859b8                IFDHCreateChannel
                0x0000000040185a6c                FindBaudRateTable
                0x0000000040185aac                ExchangePPSData
                0x0000000040186196                InitLeaderCardProtocol
                0x00000000401862af                T1XfrBlockTPDU
                0x000000004018691c                T1NegociateIFSD
                0x0000000040186a64                CardStateConfirm
                0x0000000040186a99                GetCardStatus
                0x0000000040186b90                PowerOn
                0x0000000040186d50                PowerOff
                0x0000000040186eb8                CardMechanical
                0x0000000040186fd0                TransmitPPS
                0x000000004018716a                TransmitCommand
                0x0000000040187237                ReceiveReply
                0x00000000401873fc                BlockSendCardT1
                0x0000000040187654                ReadDataT0
                0x0000000040187719                T0XfrBlockCHAR
                0x0000000040187c9f                T0XfrBlockTPDU
                0x0000000040187d21                T1XfrBlockExtendedAPDU
                0x000000004018809b                OpenUSB
                0x0000000040188435                WriteUSB
                0x0000000040188466                ReadUSB
                0x00000000401884c4                CloseUSB
                0x0000000040188534                AES_set_encrypt_key
                0x0000000040188940                AES_set_decrypt_key
                0x0000000040188b66                AES_encrypt
                0x000000004018901f                AES_decrypt
                0x00000000401894c0                BIO_set
                0x0000000040189595                BIO_new
                0x000000004018960e                BIO_free
                0x00000000401896bd                BIO_vfree
                0x00000000401896c8                BIO_clear_flags
                0x00000000401896d3                BIO_test_flags
                0x00000000401896de                BIO_set_flags
                0x00000000401896e7                BIO_get_callback
                0x00000000401896f1                BIO_set_callback
                0x00000000401896fb                BIO_set_callback_arg
                0x0000000040189705                BIO_get_callback_arg
                0x000000004018970f                BIO_method_name
                0x000000004018971c                BIO_method_type
                0x0000000040189727                BIO_read
                0x0000000040189822                BIO_write
                0x0000000040189926                BIO_puts
                0x0000000040189a18                BIO_gets
                0x0000000040189b08                BIO_indent
                0x0000000040189b4d                BIO_ctrl
                0x0000000040189c23                BIO_ptr_ctrl
                0x0000000040189c4e                BIO_int_ctrl
                0x0000000040189c64                BIO_callback_ctrl
                0x0000000040189d30                BIO_ctrl_pending
                0x0000000040189d4a                BIO_ctrl_wpending
                0x0000000040189d64                BIO_push
                0x0000000040189db2                BIO_pop
                0x0000000040189e17                BIO_get_retry_BIO
                0x0000000040189e66                BIO_get_retry_reason
                0x0000000040189e6f                BIO_find_type
                0x0000000040189ea4                BIO_next
                0x0000000040189eba                BIO_free_all
                0x0000000040189ee8                BIO_dup_chain
                0x0000000040189fd7                BIO_copy_next_retry
                0x000000004018a004                BIO_get_ex_new_index
                0x000000004018a023                BIO_set_ex_data
                0x000000004018a032                BIO_get_ex_data
                0x000000004018a041                BIO_number_read
                0x000000004018a055                BIO_number_written
                0x000000004018a1bf                BN_set_params
                0x000000004018a252                BN_get_params
                0x000000004018a287                BN_value_one
                0x000000004018a292                BN_options
                0x000000004018a2d4                BN_num_bits_word
                0x000000004018a32f                BN_num_bits
                0x000000004018a359                BN_clear_free
                0x000000004018a3c0                BN_free
                0x000000004018a409                BN_init
                0x000000004018a41e                BN_new
                0x000000004018a491                bn_expand2
                0x000000004018a4e9                BN_copy
                0x000000004018a5d7                BN_dup
                0x000000004018a62b                bn_dup_expand
                0x000000004018a6ad                BN_swap
                0x000000004018a710                BN_clear
                0x000000004018a749                BN_get_word
                0x000000004018a76b                BN_set_word
                0x000000004018a7ce                BN_bin2bn
                0x000000004018a911                BN_bn2bin
                0x000000004018a97f                BN_ucmp
                0x000000004018a9cc                BN_cmp
                0x000000004018aa80                BN_set_bit
                0x000000004018ab45                BN_clear_bit
                0x000000004018abc3                BN_is_bit_set
                0x000000004018ac00                BN_mask_bits
                0x000000004018ac9c                BN_set_negative
                0x000000004018acbc                bn_cmp_words
                0x000000004018ad1e                bn_cmp_part_words
                0x000000004018adb0                BN_bn2hex
                0x000000004018ae96                BN_bn2dec
                0x000000004018b0a5                BN_hex2bn
                0x000000004018b282                BN_dec2bn
                0x000000004018b433                BN_asc2bn
                0x000000004018b4a3                BN_print
                0x000000004018b987                BN_pseudo_rand
                0x000000004018b9a1                BN_rand
                0x000000004018b9bb                BN_bntest_rand
                0x000000004018b9d5                BN_rand_range
                0x000000004018b9eb                BN_pseudo_rand_range
                0x000000004018ba10                BN_mod_word
                0x000000004018ba65                BN_div_word
                0x000000004018bb4b                BN_sub_word
                0x000000004018bc4a                BN_add_word
                0x000000004018bd1d                BN_mul_word
                0x000000004018c204                BIO_s_mem
                0x000000004018c20f                BIO_new_mem_buf
                0x000000004018c288                BUF_MEM_new
                0x000000004018c2ef                BUF_MEM_free
                0x000000004018c32f                BUF_MEM_grow
                0x000000004018c429                BUF_MEM_grow_clean
                0x000000004018c53f                BUF_memdup
                0x000000004018c5b4                BUF_strlcpy
                0x000000004018c618                BUF_strndup
                0x000000004018c697                BUF_strdup
                0x000000004018c6c3                BUF_strlcat
                0x000000004018c6fd                BUF_reverse
                0x000000004018c754                OpenSSL_add_all_ciphers
                0x000000004018cc00                OpenSSL_add_all_digests
                0x000000004018cd70                CRYPTO_get_new_lockid
                0x000000004018ce28                CRYPTO_num_locks
                0x000000004018ce33                CRYPTO_get_dynlock_create_callback
                0x000000004018ce40                CRYPTO_get_dynlock_lock_callback
                0x000000004018ce4d                CRYPTO_get_dynlock_destroy_callback
                0x000000004018ce5a                CRYPTO_set_dynlock_create_callback
                0x000000004018ce67                CRYPTO_set_dynlock_lock_callback
                0x000000004018ce74                CRYPTO_set_dynlock_destroy_callback
                0x000000004018ce81                CRYPTO_get_locking_callback
                0x000000004018ce8e                CRYPTO_get_add_lock_callback
                0x000000004018ce9b                CRYPTO_set_locking_callback
                0x000000004018cea8                CRYPTO_set_add_lock_callback
                0x000000004018ceb5                CRYPTO_THREADID_set_numeric
                0x000000004018cee8                CRYPTO_THREADID_set_pointer
                0x000000004018cf1e                CRYPTO_THREADID_set_callback
                0x000000004018cf3c                CRYPTO_THREADID_get_callback
                0x000000004018cf49                CRYPTO_THREADID_current
                0x000000004018cf93                CRYPTO_THREADID_cmp
                0x000000004018cfa3                CRYPTO_THREADID_cpy
                0x000000004018cfb3                CRYPTO_THREADID_hash
                0x000000004018cfbd                CRYPTO_get_id_callback
                0x000000004018cfca                CRYPTO_set_id_callback
                0x000000004018cfd7                CRYPTO_thread_id
                0x000000004018cff0                CRYPTO_get_lock_name
                0x000000004018d043                OPENSSL_ia32cap_loc
                0x000000004018d04e                OPENSSL_cpuid_setup
                0x000000004018d054                OPENSSL_showfatal
                0x000000004018d09f                OPENSSL_isservice
                0x000000004018d0aa                OpenSSLDie
                0x000000004018d0cc                CRYPTO_lock
                0x000000004018d163                CRYPTO_add_lock
                0x000000004018d1e7                CRYPTO_get_dynlock_value
                0x000000004018d286                CRYPTO_destroy_dynlockid
                0x000000004018d37e                CRYPTO_get_new_dynlockid
                0x000000004018d59a                OPENSSL_stderr
                0x000000004018d5a8                DES_encrypt1
                0x000000004018d9b6                DES_encrypt2
                0x000000004018dcc1                DES_encrypt3
                0x000000004018de1e                DES_decrypt3
                0x000000004018df7e                DES_ncbc_encrypt
                0x000000004018e5bb                DES_ede3_cbc_encrypt
                0x000000004018f016                DH_generate_key
                0x000000004018f026                DH_compute_key
                0x000000004018f036                DH_OpenSSL
                0x000000004018f044                DH_set_default_method
                0x000000004018f051                DH_get_default_method
                0x000000004018f074                DH_set_method
                0x000000004018f0c1                DH_new_method
                0x000000004018f1d7                DH_new
                0x000000004018f1e7                DH_free
                0x000000004018f2c7                DH_up_ref
                0x000000004018f2f4                DH_get_ex_new_index
                0x000000004018f313                DH_set_ex_data
                0x000000004018f322                DH_get_ex_data
                0x000000004018f331                DH_size
                0x000000004019003a                EVP_aes_128_cbc
                0x0000000040190045                EVP_aes_128_cfb128
                0x0000000040190050                EVP_aes_128_ofb
                0x000000004019005b                EVP_aes_128_ecb
                0x0000000040190066                EVP_aes_192_cbc
                0x0000000040190071                EVP_aes_192_cfb128
                0x000000004019007c                EVP_aes_192_ofb
                0x0000000040190087                EVP_aes_192_ecb
                0x0000000040190092                EVP_aes_256_cbc
                0x000000004019009d                EVP_aes_256_cfb128
                0x00000000401900a8                EVP_aes_256_ofb
                0x00000000401900b3                EVP_aes_256_ecb
                0x00000000401900be                EVP_aes_128_cfb1
                0x00000000401900c9                EVP_aes_192_cfb1
                0x00000000401900d4                EVP_aes_256_cfb1
                0x00000000401900df                EVP_aes_128_cfb8
                0x00000000401900ea                EVP_aes_192_cfb8
                0x00000000401900f5                EVP_aes_256_cfb8
                0x0000000040190416                EVP_bf_cbc
                0x0000000040190421                EVP_bf_cfb64
                0x000000004019042c                EVP_bf_ofb
                0x0000000040190437                EVP_bf_ecb
                0x000000004019075a                EVP_cast5_cbc
                0x0000000040190765                EVP_cast5_cfb64
                0x0000000040190770                EVP_cast5_ofb
                0x000000004019077b                EVP_cast5_ecb
                0x0000000040190d3b                EVP_des_cbc
                0x0000000040190d46                EVP_des_cfb64
                0x0000000040190d51                EVP_des_ofb
                0x0000000040190d5c                EVP_des_ecb
                0x0000000040190d67                EVP_des_cfb1
                0x0000000040190d72                EVP_des_cfb8
                0x00000000401913a6                EVP_des_ede_cbc
                0x00000000401913b1                EVP_des_ede_cfb64
                0x00000000401913bc                EVP_des_ede_ofb
                0x00000000401913c7                EVP_des_ede_ecb
                0x00000000401913d2                EVP_des_ede3_cbc
                0x00000000401913dd                EVP_des_ede3_cfb64
                0x00000000401913e8                EVP_des_ede3_ofb
                0x00000000401913f3                EVP_des_ede3_ecb
                0x00000000401913fe                EVP_des_ede3_cfb1
                0x0000000040191409                EVP_des_ede3_cfb8
                0x0000000040191414                EVP_des_ede
                0x000000004019141f                EVP_des_ede3
                0x00000000401917a7                EVP_idea_cbc
                0x00000000401917b2                EVP_idea_cfb64
                0x00000000401917bd                EVP_idea_ofb
                0x00000000401917c8                EVP_idea_ecb
                0x0000000040191d0f                EVP_rc2_cbc
                0x0000000040191d1a                EVP_rc2_cfb64
                0x0000000040191d25                EVP_rc2_ofb
                0x0000000040191d30                EVP_rc2_ecb
                0x0000000040191d3b                EVP_rc2_64_cbc
                0x0000000040191d46                EVP_rc2_40_cbc
                0x0000000040191da9                EVP_rc4
                0x0000000040191db4                EVP_rc4_40
                0x0000000040191f2a                EVP_desx_cbc
                0x0000000040191f38                DES_ecb3_encrypt
                0x0000000040192008                DES_options
                0x000000004019205c                DES_ecb_encrypt
                0x0000000040192824                ERR_get_implementation
                0x0000000040192836                ERR_set_implementation
                0x000000004019289f                ERR_load_ERR_strings
                0x00000000401929d1                ERR_load_strings
                0x0000000040192a01                ERR_unload_strings
                0x0000000040192a53                ERR_free_strings
                0x0000000040192a68                ERR_get_string_table
                0x0000000040192a81                ERR_get_err_state_table
                0x0000000040192a9b                ERR_release_err_state_table
                0x0000000040192ac0                ERR_lib_error_string
                0x0000000040192b00                ERR_func_error_string
                0x0000000040192b40                ERR_reason_error_string
                0x0000000040192baf                ERR_error_string_n
                0x0000000040192d27                ERR_error_string
                0x0000000040192d56                ERR_remove_thread_state
                0x0000000040192d9b                ERR_remove_state
                0x0000000040192dab                ERR_get_state
                0x00000000401930a3                ERR_peek_last_error_line_data
                0x00000000401930c4                ERR_peek_last_error_line
                0x00000000401930eb                ERR_peek_last_error
                0x0000000040193116                ERR_peek_error_line_data
                0x0000000040193137                ERR_peek_error_line
                0x000000004019315e                ERR_peek_error
                0x0000000040193189                ERR_get_error_line_data
                0x00000000401931aa                ERR_get_error_line
                0x00000000401931d1                ERR_get_error
                0x00000000401931fc                ERR_clear_error
                0x00000000401932b7                ERR_put_error
                0x00000000401933bf                ERR_get_next_error_library
                0x00000000401933d4                ERR_set_error_data
                0x0000000040193451                ERR_add_error_data
                0x000000004019358e                ERR_set_mark
                0x00000000401935b9                ERR_pop_to_mark
                0x0000000040193690                ERR_load_crypto_strings
                0x000000004019372c                ASN1_TYPE_set_octetstring
                0x00000000401937a4                ASN1_TYPE_get_octetstring
                0x0000000040193800                ASN1_TYPE_set_int_octetstring
                0x000000004019392d                ASN1_TYPE_get_int_octetstring
                0x0000000040193b20                EVP_CIPHER_CTX_init
                0x0000000040193b35                EVP_CIPHER_CTX_new
                0x0000000040193b6c                EVP_EncryptUpdate
                0x0000000040193d18                EVP_EncryptFinal_ex
                0x0000000040193dec                EVP_EncryptFinal
                0x0000000040193df7                EVP_DecryptUpdate
                0x0000000040193f26                EVP_CipherUpdate
                0x0000000040193f41                EVP_DecryptFinal_ex
                0x00000000401940dc                EVP_DecryptFinal
                0x00000000401940e7                EVP_CipherFinal
                0x0000000040194107                EVP_CipherFinal_ex
                0x0000000040194127                EVP_CIPHER_CTX_cleanup
                0x0000000040194192                EVP_CIPHER_CTX_free
                0x00000000401941b7                EVP_CIPHER_CTX_set_padding
                0x00000000401941d8                EVP_CIPHER_CTX_ctrl
                0x0000000040194268                EVP_CIPHER_CTX_set_key_length
                0x00000000401942c9                EVP_CipherInit_ex
                0x000000004019451a                EVP_DecryptInit_ex
                0x000000004019452b                EVP_EncryptInit_ex
                0x000000004019453c                EVP_CipherInit
                0x00000000401945a0                EVP_DecryptInit
                0x00000000401945b1                EVP_EncryptInit
                0x00000000401945c2                EVP_CIPHER_CTX_rand_key
                0x00000000401945f8                EVP_CIPHER_CTX_copy
                0x00000000401946d8                ERR_load_EVP_strings
                0x0000000040194710                EVP_CIPHER_param_to_asn1
                0x000000004019472b                EVP_CIPHER_asn1_to_param
                0x0000000040194746                EVP_CIPHER_block_size
                0x000000004019474f                EVP_CIPHER_CTX_block_size
                0x000000004019475b                EVP_Cipher
                0x0000000040194769                EVP_CIPHER_CTX_cipher
                0x0000000040194772                EVP_CIPHER_flags
                0x000000004019477c                EVP_CIPHER_CTX_flags
                0x0000000040194789                EVP_CIPHER_CTX_get_app_data
                0x0000000040194793                EVP_CIPHER_CTX_set_app_data
                0x000000004019479d                EVP_CIPHER_iv_length
                0x00000000401947a6                EVP_CIPHER_CTX_iv_length
                0x00000000401947b2                EVP_CIPHER_set_asn1_iv
                0x0000000040194814                EVP_CIPHER_get_asn1_iv
                0x00000000401948ac                EVP_CIPHER_key_length
                0x00000000401948b5                EVP_CIPHER_CTX_key_length
                0x00000000401948be                EVP_CIPHER_nid
                0x00000000401948c6                EVP_CIPHER_type
                0x0000000040194a05                EVP_CIPHER_CTX_nid
                0x0000000040194a10                EVP_MD_block_size
                0x0000000040194a19                EVP_MD_type
                0x0000000040194a21                EVP_MD_pkey_type
                0x0000000040194a2a                EVP_MD_size
                0x0000000040194a5c                EVP_MD_flags
                0x0000000040194a66                EVP_MD_CTX_md
                0x0000000040194a7b                EVP_MD_CTX_set_flags
                0x0000000040194a88                EVP_MD_CTX_clear_flags
                0x0000000040194a97                EVP_MD_CTX_test_flags
                0x0000000040194aa2                EVP_CIPHER_CTX_set_flags
                0x0000000040194aaf                EVP_CIPHER_CTX_clear_flags
                0x0000000040194abe                EVP_CIPHER_CTX_test_flags
                0x0000000040194ed9                CRYPTO_get_ex_data_implementation
                0x0000000040194ef5                CRYPTO_set_ex_data_implementation
                0x0000000040194f5e                CRYPTO_ex_data_new_class
                0x0000000040194f7c                CRYPTO_cleanup_all_ex_data
                0x0000000040194f9b                CRYPTO_get_ex_new_index
                0x000000004019500a                CRYPTO_new_ex_data
                0x0000000040195057                CRYPTO_dup_ex_data
                0x00000000401950a4                CRYPTO_free_ex_data
                0x00000000401950f1                CRYPTO_set_ex_data
                0x00000000401951aa                CRYPTO_get_ex_data
                0x00000000401956a4                idea_encrypt
                0x0000000040195fe8                idea_cbc_encrypt
                0x0000000040196610                idea_cfb64_encrypt
                0x0000000040196830                idea_options
                0x000000004019683b                idea_ecb_encrypt
                0x00000000401968f4                idea_ofb64_encrypt
                0x0000000040196b2d                idea_set_encrypt_key
                0x0000000040196cb6                idea_set_decrypt_key
                0x0000000040196ead                lh_strhash
                0x0000000040196f20                lh_new
                0x0000000040197081                lh_free
                0x00000000401970ec                lh_insert
                0x0000000040197278                lh_delete
                0x00000000401973a4                lh_retrieve
                0x00000000401973e7                lh_doall
                0x0000000040197405                lh_doall_arg
                0x0000000040197420                lh_num_items
                0x0000000040197467                EVP_dss
                0x00000000401974a7                EVP_dss1
                0x00000000401974e7                EVP_ecdsa
                0x0000000040197527                EVP_md4
                0x0000000040197567                EVP_md5
                0x00000000401975a7                EVP_ripemd160
                0x00000000401975e7                EVP_sha
                0x00000000401976ab                EVP_sha1
                0x00000000401976b6                EVP_sha224
                0x00000000401976c1                EVP_sha256
                0x00000000401976cc                EVP_sha384
                0x00000000401976d7                EVP_sha512
                0x00000000401976e4                MD4_Init
                0x0000000040197726                md4_block_data_order
                0x0000000040197ce9                MD4_Final
                0x0000000040197db6                MD4_Transform
                0x0000000040197dc6                MD4_Update
                0x0000000040197f08                MD5_Init
                0x0000000040197f4a                md5_block_data_order
                0x000000004019878a                MD5_Final
                0x0000000040198857                MD5_Transform
                0x0000000040198867                MD5_Update
                0x00000000401989a8                MD5
                0x0000000040198a44                CRYPTO_set_mem_functions
                0x0000000040198ab4                CRYPTO_set_mem_ex_functions
                0x0000000040198b24                CRYPTO_set_locked_mem_functions
                0x0000000040198b64                CRYPTO_set_locked_mem_ex_functions
                0x0000000040198ba4                CRYPTO_set_mem_debug_functions
                0x0000000040198bdd                CRYPTO_get_mem_functions
                0x0000000040198c32                CRYPTO_get_mem_ex_functions
                0x0000000040198c83                CRYPTO_get_locked_mem_functions
                0x0000000040198cb8                CRYPTO_get_locked_mem_ex_functions
                0x0000000040198ceb                CRYPTO_get_mem_debug_functions
                0x0000000040198d3c                CRYPTO_malloc_locked
                0x0000000040198df8                CRYPTO_free_locked
                0x0000000040198e3f                CRYPTO_malloc
                0x0000000040198efb                CRYPTO_strdup
                0x0000000040198f4a                CRYPTO_realloc
                0x0000000040199005                CRYPTO_realloc_clean
                0x00000000401990e0                CRYPTO_free
                0x0000000040199127                CRYPTO_remalloc
                0x0000000040199154                CRYPTO_set_mem_debug_options
                0x0000000040199168                CRYPTO_get_mem_debug_options
                0x0000000040199184                OPENSSL_cleanse
                0x00000000401995fc                CRYPTO_mem_ctrl
                0x0000000040199786                CRYPTO_is_mem_check_on
                0x0000000040199802                CRYPTO_dbg_set_options
                0x000000004019980f                CRYPTO_dbg_get_options
                0x000000004019981c                CRYPTO_push_info_
                0x00000000401998fb                CRYPTO_pop_info
                0x000000004019993d                CRYPTO_remove_all_info
                0x0000000040199980                CRYPTO_dbg_malloc
                0x0000000040199b1f                CRYPTO_dbg_free
                0x0000000040199b94                CRYPTO_dbg_realloc
                0x0000000040199c34                CRYPTO_mem_leaks
                0x0000000040199d53                CRYPTO_mem_leaks_cb
                0x0000000040199e2e                EVP_add_cipher
                0x0000000040199e7a                EVP_add_digest
                0x0000000040199f1b                EVP_get_cipherbyname
                0x0000000040199f2b                EVP_get_digestbyname
                0x0000000040199f3b                EVP_cleanup
                0x0000000040199f81                EVP_CIPHER_do_all
                0x0000000040199fa6                EVP_CIPHER_do_all_sorted
                0x0000000040199fcb                EVP_MD_do_all
                0x0000000040199ff0                EVP_MD_do_all_sorted
                0x000000004019a124                OBJ_NAME_init
                0x000000004019a171                OBJ_NAME_new_index
                0x000000004019a2d9                OBJ_NAME_get
                0x000000004019a37c                OBJ_NAME_add
                0x000000004019a463                OBJ_NAME_remove
                0x000000004019a50e                OBJ_NAME_do_all
                0x000000004019a538                OBJ_NAME_do_all_sorted
                0x000000004019a5db                OBJ_NAME_cleanup
                0x000000004019a8aa                check_defer
                0x000000004019a8cb                OBJ_cleanup
                0x000000004019a93d                OBJ_new_nid
                0x000000004019a951                OBJ_add_object
                0x000000004019ab03                OBJ_nid2obj
                0x000000004019abbf                OBJ_nid2sn
                0x000000004019ac7e                OBJ_nid2ln
                0x000000004019ad3e                OBJ_bsearch_ex_
                0x000000004019ae37                OBJ_bsearch_
                0x000000004019ae48                OBJ_sn2nid
                0x000000004019aec4                OBJ_ln2nid
                0x000000004019af40                OBJ_txt2obj
                0x000000004019b048                OBJ_obj2nid
                0x000000004019b0d0                OBJ_txt2nid
                0x000000004019b10d                OBJ_obj2txt
                0x000000004019b460                OBJ_create
                0x000000004019b565                OBJ_create_objects
                0x000000004019b6b8                ERR_load_OBJ_strings
                0x000000004019b6f0                OBJ_dup
                0x000000004019b8ca                OBJ_cmp
                0x000000004019b8e8                ERR_load_OCSP_strings
                0x000000004019b920                DES_ede3_ofb64_encrypt
                0x000000004019baf0                DES_ofb64_encrypt
                0x000000004019be11                EVP_PKEY_bits
                0x000000004019be35                EVP_PKEY_size
                0x000000004019be59                EVP_PKEY_save_parameters
                0x000000004019be8b                EVP_PKEY_missing_parameters
                0x000000004019beaa                EVP_PKEY_copy_parameters
                0x000000004019bf4a                EVP_PKEY_cmp_parameters
                0x000000004019bf80                EVP_PKEY_cmp
                0x000000004019bfdb                EVP_PKEY_new
                0x000000004019c066                EVP_PKEY_set_type
                0x000000004019c07b                EVP_PKEY_set_type_str
                0x000000004019c090                EVP_PKEY_assign
                0x000000004019c0cd                EVP_PKEY_get0
                0x000000004019c0d7                EVP_PKEY_set1_RSA
                0x000000004019c111                EVP_PKEY_get1_RSA
                0x000000004019c15c                EVP_PKEY_set1_DSA
                0x000000004019c196                EVP_PKEY_get1_DSA
                0x000000004019c1e1                EVP_PKEY_set1_EC_KEY
                0x000000004019c21b                EVP_PKEY_get1_EC_KEY
                0x000000004019c269                EVP_PKEY_set1_DH
                0x000000004019c2a3                EVP_PKEY_get1_DH
                0x000000004019c2ee                EVP_PKEY_type
                0x000000004019c311                EVP_PKEY_id
                0x000000004019c319                EVP_PKEY_base_id
                0x000000004019c326                EVP_PKEY_free
                0x000000004019c383                EVP_PKEY_print_public
                0x000000004019c3a9                EVP_PKEY_print_private
                0x000000004019c3d1                EVP_PKEY_print_params
                0x000000004019c3fa                EVP_PKEY_get_default_digest_nid
                0x000000004019c434                PEM_read_bio_X509_REQ
                0x000000004019c455                PEM_write_bio_X509_REQ
                0x000000004019c499                PEM_write_bio_X509_REQ_NEW
                0x000000004019c4dd                PEM_read_bio_X509_CRL
                0x000000004019c4fe                PEM_write_bio_X509_CRL
                0x000000004019c542                PEM_read_bio_PKCS7
                0x000000004019c563                PEM_write_bio_PKCS7
                0x000000004019c5a7                PEM_read_bio_NETSCAPE_CERT_SEQUENCE
                0x000000004019c5c8                PEM_write_bio_NETSCAPE_CERT_SEQUENCE
                0x000000004019c60c                PEM_read_bio_RSAPrivateKey
                0x000000004019c675                PEM_write_bio_RSAPrivateKey
                0x000000004019c6ac                PEM_read_bio_RSAPublicKey
                0x000000004019c6cd                PEM_write_bio_RSAPublicKey
                0x000000004019c711                PEM_read_bio_RSA_PUBKEY
                0x000000004019c732                PEM_write_bio_RSA_PUBKEY
                0x000000004019c776                PEM_read_bio_DSAPrivateKey
                0x000000004019c7df                PEM_write_bio_DSAPrivateKey
                0x000000004019c816                PEM_read_bio_DSA_PUBKEY
                0x000000004019c837                PEM_write_bio_DSA_PUBKEY
                0x000000004019c87b                PEM_read_bio_DSAparams
                0x000000004019c89c                PEM_write_bio_DSAparams
                0x000000004019c8e0                PEM_read_bio_ECPrivateKey
                0x000000004019c949                PEM_read_bio_ECPKParameters
                0x000000004019c96a                PEM_write_bio_ECPKParameters
                0x000000004019c9ae                PEM_write_bio_ECPrivateKey
                0x000000004019c9e5                PEM_read_bio_EC_PUBKEY
                0x000000004019ca06                PEM_write_bio_EC_PUBKEY
                0x000000004019ca4a                PEM_read_bio_DHparams
                0x000000004019ca6b                PEM_write_bio_DHparams
                0x000000004019caaf                PEM_read_bio_PUBKEY
                0x000000004019cad0                PEM_write_bio_PUBKEY
                0x000000004019cb14                ERR_load_PEM_strings
                0x000000004019cb50                PEM_def_callback
                0x000000004019cb7a                PEM_proc_type
                0x000000004019cbe2                PEM_dek_info
                0x000000004019cca1                PEM_do_header
                0x000000004019ce7a                PEM_get_EVP_CIPHER_INFO
                0x000000004019d119                PEM_write_bio
                0x000000004019d3e8                PEM_ASN1_write_bio
                0x000000004019d803                PEM_read_bio
                0x000000004019deec                pem_check_suffix
                0x000000004019df61                PEM_bytes_read_bio
                0x000000004019e2ac                PEM_ASN1_read_bio
                0x000000004019e358                PEM_read_bio_PrivateKey
                0x000000004019e5b4                PEM_write_bio_PrivateKey
                0x000000004019e680                PEM_read_bio_Parameters
                0x000000004019e7a2                PEM_write_bio_Parameters
                0x000000004019e824                PEM_read_bio_X509
                0x000000004019e845                PEM_write_bio_X509
                0x000000004019e88c                ERR_load_PKCS12_strings
                0x000000004019e99a                d2i_PKCS7
                0x000000004019e9aa                i2d_PKCS7
                0x000000004019e9ba                PKCS7_new
                0x000000004019e9ca                PKCS7_free
                0x000000004019e9da                i2d_PKCS7_NDEF
                0x000000004019e9ea                PKCS7_dup
                0x000000004019e9fd                d2i_PKCS7_SIGNED
                0x000000004019ea0d                i2d_PKCS7_SIGNED
                0x000000004019ea1d                PKCS7_SIGNED_new
                0x000000004019ea2d                PKCS7_SIGNED_free
                0x000000004019ea3d                d2i_PKCS7_SIGNER_INFO
                0x000000004019ea4d                i2d_PKCS7_SIGNER_INFO
                0x000000004019ea5d                PKCS7_SIGNER_INFO_new
                0x000000004019ea6d                PKCS7_SIGNER_INFO_free
                0x000000004019ea7d                d2i_PKCS7_ISSUER_AND_SERIAL
                0x000000004019ea8d                i2d_PKCS7_ISSUER_AND_SERIAL
                0x000000004019ea9d                PKCS7_ISSUER_AND_SERIAL_new
                0x000000004019eaad                PKCS7_ISSUER_AND_SERIAL_free
                0x000000004019eabd                d2i_PKCS7_ENVELOPE
                0x000000004019eacd                i2d_PKCS7_ENVELOPE
                0x000000004019eadd                PKCS7_ENVELOPE_new
                0x000000004019eaed                PKCS7_ENVELOPE_free
                0x000000004019eafd                d2i_PKCS7_RECIP_INFO
                0x000000004019eb0d                i2d_PKCS7_RECIP_INFO
                0x000000004019eb1d                PKCS7_RECIP_INFO_new
                0x000000004019eb2d                PKCS7_RECIP_INFO_free
                0x000000004019eb3d                d2i_PKCS7_ENC_CONTENT
                0x000000004019eb4d                i2d_PKCS7_ENC_CONTENT
                0x000000004019eb5d                PKCS7_ENC_CONTENT_new
                0x000000004019eb6d                PKCS7_ENC_CONTENT_free
                0x000000004019eb7d                d2i_PKCS7_SIGN_ENVELOPE
                0x000000004019eb8d                i2d_PKCS7_SIGN_ENVELOPE
                0x000000004019eb9d                PKCS7_SIGN_ENVELOPE_new
                0x000000004019ebad                PKCS7_SIGN_ENVELOPE_free
                0x000000004019ebbd                d2i_PKCS7_ENCRYPT
                0x000000004019ebcd                i2d_PKCS7_ENCRYPT
                0x000000004019ebdd                PKCS7_ENCRYPT_new
                0x000000004019ebed                PKCS7_ENCRYPT_free
                0x000000004019ebfd                d2i_PKCS7_DIGEST
                0x000000004019ec0d                i2d_PKCS7_DIGEST
                0x000000004019ec1d                PKCS7_DIGEST_new
                0x000000004019ec2d                PKCS7_DIGEST_free
                0x000000004019ec3d                PKCS7_print_ctx
                0x000000004019f1b9                PKCS7_dataInit
                0x000000004019f88e                PKCS7_dataDecode
                0x000000004019ff35                PKCS7_SIGNER_INFO_sign
                0x00000000401a00fe                PKCS7_get_issuer_and_serial
                0x00000000401a016d                PKCS7_get_signed_attribute
                0x00000000401a017c                PKCS7_dataFinal
                0x00000000401a072e                PKCS7_get_attribute
                0x00000000401a073d                PKCS7_digest_from_attributes
                0x00000000401a075d                PKCS7_signatureVerify
                0x00000000401a0a64                PKCS7_dataVerify
                0x00000000401a0be2                PKCS7_set_signed_attributes
                0x00000000401a0c75                PKCS7_set_attributes
                0x00000000401a0d08                PKCS7_add_signed_attribute
                0x00000000401a0d17                PKCS7_add_attribute
                0x00000000401a0d30                PKCS7_ctrl
                0x00000000401a0e6c                PKCS7_set_content
                0x00000000401a0efd                PKCS7_set_type
                0x00000000401a110e                PKCS7_content_new
                0x00000000401a117a                PKCS7_set0_type_other
                0x00000000401a11ae                PKCS7_add_signer
                0x00000000401a130b                PKCS7_add_certificate
                0x00000000401a13ec                PKCS7_add_crl
                0x00000000401a14cc                PKCS7_SIGNER_INFO_set
                0x00000000401a163c                PKCS7_add_signature
                0x00000000401a1710                PKCS7_set_digest
                0x00000000401a17dc                PKCS7_get_signer_info
                0x00000000401a1825                PKCS7_SIGNER_INFO_get0_algs
                0x00000000401a184f                PKCS7_RECIP_INFO_get0_alg
                0x00000000401a1861                PKCS7_add_recipient_info
                0x00000000401a18d0                PKCS7_RECIP_INFO_set
                0x00000000401a1a5b                PKCS7_add_recipient
                0x00000000401a1ac0                PKCS7_cert_from_signer_info
                0x00000000401a1b12                PKCS7_set_cipher
                0x00000000401a1bac                PKCS7_stream
                0x00000000401a1c78                ERR_load_PKCS7_strings
                0x00000000401a1cb0                ERR_load_RAND_strings
                0x00000000401a1ce8                DES_random_key
                0x00000000401a1d30                RAND_set_rand_method
                0x00000000401a1d42                RAND_get_rand_method
                0x00000000401a1d65                RAND_cleanup
                0x00000000401a1d8a                RAND_seed
                0x00000000401a1dc2                RAND_add
                0x00000000401a1e0b                RAND_bytes
                0x00000000401a1e52                RAND_pseudo_bytes
                0x00000000401a1e99                RAND_status
                0x00000000401a1ebc                RC2_encrypt
                0x00000000401a201a                RC2_decrypt
                0x00000000401a2180                RC2_cbc_encrypt
                0x00000000401a27a8                RC2_ecb_encrypt
                0x00000000401a2870                RC2_set_key
                0x00000000401a29a0                RC2_cfb64_encrypt
                0x00000000401a2bb4                RC2_ofb64_encrypt
                0x00000000401a2d68                RC4
                0x00000000401a3204                RC4_options
                0x00000000401a320f                RC4_set_key
                0x00000000401a3314                RIPEMD160_Init
                0x00000000401a335d                ripemd160_block_data_order
                0x00000000401a49b2                RIPEMD160_Final
                0x00000000401a4a87                RIPEMD160_Transform
                0x00000000401a4a97                RIPEMD160_Update
                0x00000000401a4c22                d2i_RSAPrivateKey
                0x00000000401a4c32                i2d_RSAPrivateKey
                0x00000000401a4c42                d2i_RSAPublicKey
                0x00000000401a4c52                i2d_RSAPublicKey
                0x00000000401a4c62                RSAPublicKey_dup
                0x00000000401a4c75                RSAPrivateKey_dup
                0x00000000401a4c90                RSA_generate_key
                0x00000000401a4d50                ERR_load_RSA_strings
                0x00000000401a4d90                RSA_generate_key_ex
                0x00000000401a5360                RSA_set_default_method
                0x00000000401a536d                RSA_get_default_method
                0x00000000401a5390                RSA_get_method
                0x00000000401a539a                RSA_set_method
                0x00000000401a53e1                RSA_new_method
                0x00000000401a552d                RSA_new
                0x00000000401a553d                RSA_free
                0x00000000401a564d                RSA_up_ref
                0x00000000401a567a                RSA_get_ex_new_index
                0x00000000401a5699                RSA_set_ex_data
                0x00000000401a56a8                RSA_get_ex_data
                0x00000000401a56b7                RSA_size
                0x00000000401a56d2                RSA_public_encrypt
                0x00000000401a56df                RSA_private_encrypt
                0x00000000401a56ec                RSA_private_decrypt
                0x00000000401a56f9                RSA_public_decrypt
                0x00000000401a5706                RSA_flags
                0x00000000401a571d                RSA_blinding_off
                0x00000000401a5757                RSA_setup_blinding
                0x00000000401a5a00                RSA_blinding_on
                0x00000000401a5a5e                RSA_memory_lock
                0x00000000401a5bb0                RSA_sign
                0x00000000401a5e15                int_rsa_verify
                0x00000000401a61af                RSA_verify
                0x00000000401a61f0                DES_set_odd_parity
                0x00000000401a6213                DES_check_key_parity
                0x00000000401a6254                DES_is_weak_key
                0x00000000401a62a3                DES_set_key_unchecked
                0x00000000401a6547                DES_set_key_checked
                0x00000000401a6598                DES_set_key
                0x00000000401a65bc                DES_key_sched
                0x00000000401a65c8                SHA1
                0x00000000401a777b                SHA1_Update
                0x00000000401a78ba                SHA1_Transform
                0x00000000401a78ca                SHA1_Final
                0x00000000401a79ad                SHA1_Init
                0x00000000401a9210                SHA224_Init
                0x00000000401a9275                SHA256_Init
                0x00000000401a92da                SHA256_Update
                0x00000000401a9419                SHA224_Update
                0x00000000401a9424                SHA256_Transform
                0x00000000401a9434                SHA256_Final
                0x00000000401a955e                SHA224_Final
                0x00000000401a9569                SHA256
                0x00000000401a95e4                SHA224
                0x00000000401aae55                SHA384_Init
                0x00000000401aaef3                SHA512_Init
                0x00000000401aaf91                SHA512_Final
                0x00000000401ab1f6                SHA384_Final
                0x00000000401ab201                SHA512_Update
                0x00000000401ab311                SHA384_Update
                0x00000000401ab31c                SHA512_Transform
                0x00000000401ab32c                SHA384
                0x00000000401ab3a7                SHA512
                0x00000000401ac3f7                SHA_Update
                0x00000000401ac536                SHA_Transform
                0x00000000401ac546                SHA_Final
                0x00000000401ac629                SHA_Init
                0x00000000401ac680                sk_set_cmp_func
                0x00000000401ac69a                sk_new
                0x00000000401ac737                sk_new_null
                0x00000000401ac747                sk_insert
                0x00000000401ac802                sk_delete
                0x00000000401ac85e                sk_delete_ptr
                0x00000000401ac8a4                sk_push
                0x00000000401ac8b1                sk_unshift
                0x00000000401ac8c1                sk_shift
                0x00000000401ac8e7                sk_pop
                0x00000000401ac90c                sk_zero
                0x00000000401ac941                sk_free
                0x00000000401ac96f                sk_pop_free
                0x00000000401ac9c1                sk_dup
                0x00000000401aca47                sk_num
                0x00000000401aca5b                sk_value
                0x00000000401aca8a                sk_set
                0x00000000401acabe                sk_sort
                0x00000000401acb9c                sk_find_ex
                0x00000000401acbac                sk_find
                0x00000000401acbbc                sk_is_sorted
                0x00000000401ad062                ASN1_tag2bit
                0x00000000401ad07d                asn1_ex_c2i
                0x00000000401ad8cd                ASN1_item_ex_d2i
                0x00000000401ae7aa                ASN1_template_d2i
                0x00000000401ae7c7                ASN1_item_d2i
                0x00000000401ae871                asn1_ex_i2c
                0x00000000401aeb3a                ASN1_item_ex_i2d
                0x00000000401af399                ASN1_template_i2d
                0x00000000401af475                ASN1_item_i2d
                0x00000000401af485                ASN1_item_ndef_i2d
                0x00000000401af4a0                ASN1_primitive_free
                0x00000000401af7c6                ASN1_template_free
                0x00000000401af84a                ASN1_item_ex_free
                0x00000000401af85a                ASN1_item_free
                0x00000000401af942                ASN1_primitive_new
                0x00000000401afd6c                ASN1_template_new
                0x00000000401afdf9                ASN1_item_ex_new
                0x00000000401afe09                ASN1_item_new
                0x00000000401afe38                d2i_ASN1_INTEGER
                0x00000000401afe48                i2d_ASN1_INTEGER
                0x00000000401afe58                ASN1_INTEGER_new
                0x00000000401afe68                ASN1_INTEGER_free
                0x00000000401afe78                d2i_ASN1_ENUMERATED
                0x00000000401afe88                i2d_ASN1_ENUMERATED
                0x00000000401afe98                ASN1_ENUMERATED_new
                0x00000000401afea8                ASN1_ENUMERATED_free
                0x00000000401afeb8                d2i_ASN1_BIT_STRING
                0x00000000401afec8                i2d_ASN1_BIT_STRING
                0x00000000401afed8                ASN1_BIT_STRING_new
                0x00000000401afee8                ASN1_BIT_STRING_free
                0x00000000401afef8                d2i_ASN1_OCTET_STRING
                0x00000000401aff08                i2d_ASN1_OCTET_STRING
                0x00000000401aff18                ASN1_OCTET_STRING_new
                0x00000000401aff28                ASN1_OCTET_STRING_free
                0x00000000401aff38                d2i_ASN1_NULL
                0x00000000401aff48                i2d_ASN1_NULL
                0x00000000401aff58                ASN1_NULL_new
                0x00000000401aff68                ASN1_NULL_free
                0x00000000401aff78                d2i_ASN1_UTF8STRING
                0x00000000401aff88                i2d_ASN1_UTF8STRING
                0x00000000401aff98                ASN1_UTF8STRING_new
                0x00000000401affa8                ASN1_UTF8STRING_free
                0x00000000401affb8                d2i_ASN1_PRINTABLESTRING
                0x00000000401affc8                i2d_ASN1_PRINTABLESTRING
                0x00000000401affd8                ASN1_PRINTABLESTRING_new
                0x00000000401affe8                ASN1_PRINTABLESTRING_free
                0x00000000401afff8                d2i_ASN1_T61STRING
                0x00000000401b0008                i2d_ASN1_T61STRING
                0x00000000401b0018                ASN1_T61STRING_new
                0x00000000401b0028                ASN1_T61STRING_free
                0x00000000401b0038                d2i_ASN1_IA5STRING
                0x00000000401b0048                i2d_ASN1_IA5STRING
                0x00000000401b0058                ASN1_IA5STRING_new
                0x00000000401b0068                ASN1_IA5STRING_free
                0x00000000401b0078                d2i_ASN1_GENERALSTRING
                0x00000000401b0088                i2d_ASN1_GENERALSTRING
                0x00000000401b0098                ASN1_GENERALSTRING_new
                0x00000000401b00a8                ASN1_GENERALSTRING_free
                0x00000000401b00b8                d2i_ASN1_UTCTIME
                0x00000000401b00c8                i2d_ASN1_UTCTIME
                0x00000000401b00d8                ASN1_UTCTIME_new
                0x00000000401b00e8                ASN1_UTCTIME_free
                0x00000000401b00f8                d2i_ASN1_GENERALIZEDTIME
                0x00000000401b0108                i2d_ASN1_GENERALIZEDTIME
                0x00000000401b0118                ASN1_GENERALIZEDTIME_new
                0x00000000401b0128                ASN1_GENERALIZEDTIME_free
                0x00000000401b0138                d2i_ASN1_VISIBLESTRING
                0x00000000401b0148                i2d_ASN1_VISIBLESTRING
                0x00000000401b0158                ASN1_VISIBLESTRING_new
                0x00000000401b0168                ASN1_VISIBLESTRING_free
                0x00000000401b0178                d2i_ASN1_UNIVERSALSTRING
                0x00000000401b0188                i2d_ASN1_UNIVERSALSTRING
                0x00000000401b0198                ASN1_UNIVERSALSTRING_new
                0x00000000401b01a8                ASN1_UNIVERSALSTRING_free
                0x00000000401b01b8                d2i_ASN1_BMPSTRING
                0x00000000401b01c8                i2d_ASN1_BMPSTRING
                0x00000000401b01d8                ASN1_BMPSTRING_new
                0x00000000401b01e8                ASN1_BMPSTRING_free
                0x00000000401b01f8                d2i_ASN1_TYPE
                0x00000000401b0208                i2d_ASN1_TYPE
                0x00000000401b0218                ASN1_TYPE_new
                0x00000000401b0228                ASN1_TYPE_free
                0x00000000401b0238                d2i_ASN1_PRINTABLE
                0x00000000401b0248                i2d_ASN1_PRINTABLE
                0x00000000401b0258                ASN1_PRINTABLE_new
                0x00000000401b0268                ASN1_PRINTABLE_free
                0x00000000401b0278                d2i_DISPLAYTEXT
                0x00000000401b0288                i2d_DISPLAYTEXT
                0x00000000401b0298                DISPLAYTEXT_new
                0x00000000401b02a8                DISPLAYTEXT_free
                0x00000000401b02b8                d2i_DIRECTORYSTRING
                0x00000000401b02c8                i2d_DIRECTORYSTRING
                0x00000000401b02d8                DIRECTORYSTRING_new
                0x00000000401b02e8                DIRECTORYSTRING_free
                0x00000000401b02f8                d2i_ASN1_SEQUENCE_ANY
                0x00000000401b0308                i2d_ASN1_SEQUENCE_ANY
                0x00000000401b0318                d2i_ASN1_SET_ANY
                0x00000000401b0328                i2d_ASN1_SET_ANY
                0x00000000401b0383                asn1_get_choice_selector
                0x00000000401b0393                asn1_set_choice_selector
                0x00000000401b03a7                asn1_do_lock
                0x00000000401b0401                asn1_enc_init
                0x00000000401b0427                asn1_enc_free
                0x00000000401b0467                asn1_enc_save
                0x00000000401b04f1                asn1_enc_restore
                0x00000000401b056b                asn1_get_field_ptr
                0x00000000401b0583                asn1_do_adb
                0x00000000401b0640                ERR_load_UI_strings
                0x00000000401b0678                ERR_load_X509V3_strings
                0x00000000401b06b0                X509_issuer_and_serial_hash
                0x00000000401b077f                X509_CRL_match
                0x00000000401b0797                X509_get_issuer_name
                0x00000000401b07a4                X509_get_subject_name
                0x00000000401b07b1                X509_get_serialNumber
                0x00000000401b07be                X509_cmp
                0x00000000401b0818                X509_NAME_cmp
                0x00000000401b0891                X509_CRL_cmp
                0x00000000401b08aa                X509_subject_name_cmp
                0x00000000401b08c3                X509_issuer_name_cmp
                0x00000000401b08dc                X509_issuer_and_serial_cmp
                0x00000000401b091c                X509_NAME_hash
                0x00000000401b0982                X509_subject_name_hash
                0x00000000401b0994                X509_issuer_name_hash
                0x00000000401b09a6                X509_NAME_hash_old
                0x00000000401b0a0f                X509_subject_name_hash_old
                0x00000000401b0a21                X509_issuer_name_hash_old
                0x00000000401b0a33                X509_find_by_issuer_and_serial
                0x00000000401b0ab6                X509_find_by_subject
                0x00000000401b0b13                X509_get_pubkey
                0x00000000401b0b3b                X509_get0_pubkey_bitstr
                0x00000000401b0b58                X509_check_private_key
                0x00000000401b0c14                ERR_load_X509_strings
                0x00000000401b0c4c                X509_NAME_oneline
                0x00000000401b148a                X509_time_adj_ex
                0x00000000401b14d7                X509_time_adj
                0x00000000401b14ed                X509_gmtime_adj
                0x00000000401b14fd                X509_cmp_time
                0x00000000401b25c2                X509_cmp_current_time
                0x00000000401b25d2                X509_get_pubkey_parameters
                0x00000000401b26fe                X509_verify_cert
                0x00000000401b3091                X509_STORE_CTX_get_ex_new_index
                0x00000000401b30b0                X509_STORE_CTX_set_ex_data
                0x00000000401b30c2                X509_STORE_CTX_get_ex_data
                0x00000000401b30d4                X509_STORE_CTX_get_error
                0x00000000401b30e0                X509_STORE_CTX_set_error
                0x00000000401b30ec                X509_STORE_CTX_get_error_depth
                0x00000000401b30f8                X509_STORE_CTX_get_current_cert
                0x00000000401b3105                X509_STORE_CTX_get_chain
                0x00000000401b3112                X509_STORE_CTX_get1_chain
                0x00000000401b317e                X509_STORE_CTX_get0_current_issuer
                0x00000000401b318b                X509_STORE_CTX_get0_current_crl
                0x00000000401b3198                X509_STORE_CTX_get0_parent_ctx
                0x00000000401b31a5                X509_STORE_CTX_set_cert
                0x00000000401b31af                X509_STORE_CTX_set_chain
                0x00000000401b31b9                X509_STORE_CTX_set0_crls
                0x00000000401b31c3                X509_STORE_CTX_purpose_inherit
                0x00000000401b32f0                X509_STORE_CTX_set_trust
                0x00000000401b3307                X509_STORE_CTX_set_purpose
                0x00000000401b331e                X509_STORE_CTX_new
                0x00000000401b3380                X509_STORE_CTX_init
                0x00000000401b36df                X509_STORE_CTX_trusted_stack
                0x00000000401b36f1                X509_STORE_CTX_cleanup
                0x00000000401b3794                X509_STORE_CTX_free
                0x00000000401b37b4                X509_STORE_CTX_set_depth
                0x00000000401b37c3                X509_STORE_CTX_set_flags
                0x00000000401b37d2                X509_STORE_CTX_set_time
                0x00000000401b37e3                X509_STORE_CTX_set_verify_cb
                0x00000000401b37ed                X509_STORE_CTX_get0_policy_tree
                0x00000000401b37fa                X509_STORE_CTX_get_explicit_policy
                0x00000000401b3806                X509_STORE_CTX_set_default
                0x00000000401b3837                X509_STORE_CTX_get0_param
                0x00000000401b3841                X509_STORE_CTX_set0_param
                0x00000000401b3c37                X509_VERIFY_PARAM_free
                0x00000000401b3c57                X509_VERIFY_PARAM_new
                0x00000000401b3c9b                X509_VERIFY_PARAM_set1_name
                0x00000000401b3cdc                X509_VERIFY_PARAM_set_flags
                0x00000000401b3d00                X509_VERIFY_PARAM_clear_flags
                0x00000000401b3d12                X509_VERIFY_PARAM_get_flags
                0x00000000401b3d1c                X509_VERIFY_PARAM_set_purpose
                0x00000000401b3d2b                X509_VERIFY_PARAM_set_trust
                0x00000000401b3d3a                X509_VERIFY_PARAM_set_depth
                0x00000000401b3d43                X509_VERIFY_PARAM_set_time
                0x00000000401b3d51                X509_VERIFY_PARAM_add0_policy
                0x00000000401b3da2                X509_VERIFY_PARAM_set1_policies
                0x00000000401b3e69                X509_VERIFY_PARAM_inherit
                0x00000000401b3f7f                X509_VERIFY_PARAM_set1
                0x00000000401b3fb4                X509_VERIFY_PARAM_get_depth
                0x00000000401b3fbd                X509_VERIFY_PARAM_add0_table
                0x00000000401b4044                X509_VERIFY_PARAM_lookup
                0x00000000401b409a                X509_VERIFY_PARAM_table_cleanup
                0x00000000401b40c4                d2i_X509_ALGOR
                0x00000000401b40d4                i2d_X509_ALGOR
                0x00000000401b40e4                X509_ALGOR_new
                0x00000000401b40f4                X509_ALGOR_free
                0x00000000401b4104                d2i_X509_ALGORS
                0x00000000401b4114                i2d_X509_ALGORS
                0x00000000401b4124                X509_ALGOR_dup
                0x00000000401b4137                X509_ALGOR_set0
                0x00000000401b41e9                X509_ALGOR_get0
                0x00000000401b4224                X509_verify
                0x00000000401b4245                X509_REQ_verify
                0x00000000401b4266                NETSCAPE_SPKI_verify
                0x00000000401b4287                X509_sign
                0x00000000401b42c1                X509_REQ_sign
                0x00000000401b42ef                X509_CRL_sign
                0x00000000401b4329                NETSCAPE_SPKI_sign
                0x00000000401b4357                d2i_X509_bio
                0x00000000401b436d                i2d_X509_bio
                0x00000000401b4383                d2i_X509_CRL_bio
                0x00000000401b4399                i2d_X509_CRL_bio
                0x00000000401b43af                d2i_PKCS7_bio
                0x00000000401b43c5                i2d_PKCS7_bio
                0x00000000401b43db                d2i_X509_REQ_bio
                0x00000000401b43f1                i2d_X509_REQ_bio
                0x00000000401b4407                d2i_RSAPrivateKey_bio
                0x00000000401b441d                i2d_RSAPrivateKey_bio
                0x00000000401b4433                d2i_RSAPublicKey_bio
                0x00000000401b4449                d2i_RSA_PUBKEY_bio
                0x00000000401b4464                i2d_RSAPublicKey_bio
                0x00000000401b447a                i2d_RSA_PUBKEY_bio
                0x00000000401b4490                d2i_DSAPrivateKey_bio
                0x00000000401b44ab                i2d_DSAPrivateKey_bio
                0x00000000401b44c1                d2i_DSA_PUBKEY_bio
                0x00000000401b44dc                i2d_DSA_PUBKEY_bio
                0x00000000401b44f2                d2i_EC_PUBKEY_bio
                0x00000000401b450d                i2d_EC_PUBKEY_bio
                0x00000000401b4523                d2i_ECPrivateKey_bio
                0x00000000401b453e                i2d_ECPrivateKey_bio
                0x00000000401b4554                X509_pubkey_digest
                0x00000000401b45ac                X509_digest
                0x00000000401b45c5                X509_CRL_digest
                0x00000000401b45de                X509_REQ_digest
                0x00000000401b45f7                X509_NAME_digest
                0x00000000401b4610                PKCS7_ISSUER_AND_SERIAL_digest
                0x00000000401b4629                d2i_PKCS8_bio
                0x00000000401b4644                i2d_PKCS8_bio
                0x00000000401b465a                d2i_PKCS8_PRIV_KEY_INFO_bio
                0x00000000401b4675                i2d_PKCS8_PRIV_KEY_INFO_bio
                0x00000000401b468b                i2d_PKCS8PrivateKeyInfo_bio
                0x00000000401b46df                i2d_PrivateKey_bio
                0x00000000401b46f5                d2i_PrivateKey_bio
                0x00000000401b4710                i2d_PUBKEY_bio
                0x00000000401b4726                d2i_PUBKEY_bio
                0x00000000401b4744                d2i_X509_ATTRIBUTE
                0x00000000401b4754                i2d_X509_ATTRIBUTE
                0x00000000401b4764                X509_ATTRIBUTE_new
                0x00000000401b4774                X509_ATTRIBUTE_free
                0x00000000401b4784                X509_ATTRIBUTE_dup
                0x00000000401b4797                X509_ATTRIBUTE_create
                0x00000000401b4fce                d2i_X509_REVOKED
                0x00000000401b4fde                i2d_X509_REVOKED
                0x00000000401b4fee                X509_REVOKED_new
                0x00000000401b4ffe                X509_REVOKED_free
                0x00000000401b500e                d2i_X509_CRL_INFO
                0x00000000401b501e                i2d_X509_CRL_INFO
                0x00000000401b502e                X509_CRL_INFO_new
                0x00000000401b503e                X509_CRL_INFO_free
                0x00000000401b504e                d2i_X509_CRL
                0x00000000401b505e                i2d_X509_CRL
                0x00000000401b506e                X509_CRL_new
                0x00000000401b507e                X509_CRL_free
                0x00000000401b508e                X509_CRL_dup
                0x00000000401b50a1                X509_CRL_add0_revoked
                0x00000000401b5122                X509_CRL_verify
                0x00000000401b513c                X509_CRL_get0_by_serial
                0x00000000401b515c                X509_CRL_get0_by_cert
                0x00000000401b51cb                X509_CRL_set_default_method
                0x00000000401b51e4                X509_CRL_METHOD_new
                0x00000000401b5249                X509_CRL_METHOD_free
                0x00000000401b5259                X509_CRL_set_meth_data
                0x00000000401b5263                X509_CRL_get_meth_data
                0x00000000401b5270                d2i_X509_EXTENSION
                0x00000000401b5280                i2d_X509_EXTENSION
                0x00000000401b5290                X509_EXTENSION_new
                0x00000000401b52a0                X509_EXTENSION_free
                0x00000000401b52b0                d2i_X509_EXTENSIONS
                0x00000000401b52c0                i2d_X509_EXTENSIONS
                0x00000000401b52d0                X509_EXTENSION_dup
                0x00000000401b566d                X509_NAME_ENTRY_free
                0x00000000401b567d                d2i_X509_NAME_ENTRY
                0x00000000401b568d                i2d_X509_NAME_ENTRY
                0x00000000401b569d                X509_NAME_ENTRY_new
                0x00000000401b5bcc                X509_NAME_ENTRY_dup
                0x00000000401b5bdf                d2i_X509_NAME
                0x00000000401b5bef                i2d_X509_NAME
                0x00000000401b5bff                X509_NAME_new
                0x00000000401b5c0f                X509_NAME_free
                0x00000000401b5dc1                X509_NAME_dup
                0x00000000401b5dd4                X509_NAME_set
                0x00000000401b5e4c                d2i_X509_PUBKEY
                0x00000000401b5e5c                i2d_X509_PUBKEY
                0x00000000401b5e6c                X509_PUBKEY_new
                0x00000000401b5e7c                X509_PUBKEY_free
                0x00000000401b5e8c                X509_PUBKEY_set
                0x00000000401b5f7d                X509_PUBKEY_get
                0x00000000401b60dc                d2i_PUBKEY
                0x00000000401b6145                i2d_PUBKEY
                0x00000000401b619d                d2i_RSA_PUBKEY
                0x00000000401b6222                i2d_RSA_PUBKEY
                0x00000000401b62af                d2i_DSA_PUBKEY
                0x00000000401b6334                i2d_DSA_PUBKEY
                0x00000000401b63c1                d2i_EC_PUBKEY
                0x00000000401b6446                i2d_EC_PUBKEY
                0x00000000401b64d3                X509_PUBKEY_set0_param
                0x00000000401b6550                X509_PUBKEY_get0_param
                0x00000000401b65bb                d2i_X509_REQ_INFO
                0x00000000401b65cb                i2d_X509_REQ_INFO
                0x00000000401b65db                X509_REQ_INFO_new
                0x00000000401b65eb                X509_REQ_INFO_free
                0x00000000401b65fb                d2i_X509_REQ
                0x00000000401b660b                i2d_X509_REQ
                0x00000000401b661b                X509_REQ_new
                0x00000000401b662b                X509_REQ_free
                0x00000000401b663b                X509_REQ_dup
                0x00000000401b6650                d2i_X509_SIG
                0x00000000401b6660                i2d_X509_SIG
                0x00000000401b6670                X509_SIG_new
                0x00000000401b6680                X509_SIG_free
                0x00000000401b6690                d2i_NETSCAPE_SPKAC
                0x00000000401b66a0                i2d_NETSCAPE_SPKAC
                0x00000000401b66b0                NETSCAPE_SPKAC_new
                0x00000000401b66c0                NETSCAPE_SPKAC_free
                0x00000000401b66d0                d2i_NETSCAPE_SPKI
                0x00000000401b66e0                i2d_NETSCAPE_SPKI
                0x00000000401b66f0                NETSCAPE_SPKI_new
                0x00000000401b6700                NETSCAPE_SPKI_free
                0x00000000401b682c                d2i_X509_CINF
                0x00000000401b683c                i2d_X509_CINF
                0x00000000401b684c                X509_CINF_new
                0x00000000401b685c                X509_CINF_free
                0x00000000401b686c                d2i_X509
                0x00000000401b687c                i2d_X509
                0x00000000401b688c                X509_new
                0x00000000401b689c                X509_free
                0x00000000401b68ac                X509_dup
                0x00000000401b68bf                X509_get_ex_new_index
                0x00000000401b68de                X509_set_ex_data
                0x00000000401b68ed                X509_get_ex_data
                0x00000000401b68fc                d2i_X509_AUX
                0x00000000401b696c                i2d_X509_AUX
                0x00000000401b69b8                d2i_X509_CERT_AUX
                0x00000000401b69c8                i2d_X509_CERT_AUX
                0x00000000401b69d8                X509_CERT_AUX_new
                0x00000000401b6a30                X509_CERT_AUX_free
                0x00000000401b6a40                X509_alias_set1
                0x00000000401b6ae8                X509_keyid_set1
                0x00000000401b6b90                X509_alias_get0
                0x00000000401b6bd1                X509_keyid_get0
                0x00000000401b6c12                X509_add1_trust_object
                0x00000000401b6c7f                X509_add1_reject_object
                0x00000000401b6ce1                X509_trust_clear
                0x00000000401b6d20                X509_reject_clear
                0x00000000401b6d61                d2i_X509_CERT_PAIR
                0x00000000401b6d71                i2d_X509_CERT_PAIR
                0x00000000401b6d81                X509_CERT_PAIR_new
                0x00000000401b6d91                X509_CERT_PAIR_free
                0x00000000401b6da4                DES_xcbc_encrypt
                0x00000000401b751c                ERR_load_TS_strings
                0x00000000401b7554                ERR_load_CMS_strings
                0x00000000401b75d6                OBJ_find_sigid_algs
                0x00000000401b765e                OBJ_find_sigid_by_algs
                0x00000000401b76e6                OBJ_add_sigid
                0x00000000401b77f4                OBJ_sigid_free
                0x00000000401b786b                EVP_whirlpool
                0x00000000401b789b                EVP_PKEY_meth_find
                0x00000000401b7914                EVP_PKEY_meth_new
                0x00000000401b7a32                EVP_PKEY_meth_free
                0x00000000401b7a48                EVP_PKEY_meth_add0
                0x00000000401b7aab                EVP_PKEY_CTX_free
                0x00000000401b7afa                EVP_PKEY_CTX_dup
                0x00000000401b7d30                EVP_PKEY_CTX_new_id
                0x00000000401b7d42                EVP_PKEY_CTX_new
                0x00000000401b7d52                EVP_PKEY_CTX_ctrl
                0x00000000401b7e4a                EVP_PKEY_CTX_ctrl_str
                0x00000000401b7f2f                EVP_PKEY_CTX_get_operation
                0x00000000401b7f38                EVP_PKEY_CTX_set0_keygen_info
                0x00000000401b7f45                EVP_PKEY_CTX_set_data
                0x00000000401b7f4f                EVP_PKEY_CTX_get_data
                0x00000000401b7f59                EVP_PKEY_CTX_get0_pkey
                0x00000000401b7f63                EVP_PKEY_CTX_get0_peerkey
                0x00000000401b7f6d                EVP_PKEY_CTX_set_app_data
                0x00000000401b7f77                EVP_PKEY_CTX_get_app_data
                0x00000000401b7f81                EVP_PKEY_meth_set_init
                0x00000000401b7f8b                EVP_PKEY_meth_set_copy
                0x00000000401b7f95                EVP_PKEY_meth_set_cleanup
                0x00000000401b7f9f                EVP_PKEY_meth_set_paramgen
                0x00000000401b7fad                EVP_PKEY_meth_set_keygen
                0x00000000401b7fbb                EVP_PKEY_meth_set_sign
                0x00000000401b7fc9                EVP_PKEY_meth_set_verify
                0x00000000401b7fd7                EVP_PKEY_meth_set_verify_recover
                0x00000000401b7fe5                EVP_PKEY_meth_set_signctx
                0x00000000401b7ff3                EVP_PKEY_meth_set_verifyctx
                0x00000000401b8007                EVP_PKEY_meth_set_encrypt
                0x00000000401b801b                EVP_PKEY_meth_set_decrypt
                0x00000000401b802f                EVP_PKEY_meth_set_derive
                0x00000000401b8043                EVP_PKEY_meth_set_ctrl
                0x00000000401b8073                EVP_PKEY_asn1_get_count
                0x00000000401b8092                EVP_PKEY_asn1_get0
                0x00000000401b80c2                EVP_PKEY_asn1_find
                0x00000000401b8165                EVP_PKEY_asn1_find_str
                0x00000000401b81ec                EVP_PKEY_asn1_add0
                0x00000000401b824f                EVP_PKEY_asn1_get0_info
                0x00000000401b82a1                EVP_PKEY_get0_asn1
                0x00000000401b82ab                EVP_PKEY_asn1_copy
                0x00000000401b8373                EVP_PKEY_asn1_free
                0x00000000401b83b5                EVP_PKEY_asn1_new
                0x00000000401b852a                EVP_PKEY_asn1_add_alias
                0x00000000401b8567                EVP_PKEY_asn1_set_public
                0x00000000401b8589                EVP_PKEY_asn1_set_private
                0x00000000401b859b                EVP_PKEY_asn1_set_param
                0x00000000401b85c6                EVP_PKEY_asn1_set_free
                0x00000000401b85d3                EVP_PKEY_asn1_set_ctrl
                0x00000000401b85e0                EVP_PKEY_sign_init
                0x00000000401b864f                EVP_PKEY_sign
                0x00000000401b875b                EVP_PKEY_verify_init
                0x00000000401b87ca                EVP_PKEY_verify
                0x00000000401b883a                EVP_PKEY_verify_recover_init
                0x00000000401b88a9                EVP_PKEY_verify_recover
                0x00000000401b89b5                EVP_PKEY_encrypt_init
                0x00000000401b8a2a                EVP_PKEY_encrypt
                0x00000000401b8b3f                EVP_PKEY_decrypt_init
                0x00000000401b8bb4                EVP_PKEY_decrypt
                0x00000000401b8cc9                EVP_PKEY_derive_init
                0x00000000401b8d3e                EVP_PKEY_derive_set_peer
                0x00000000401b8f20                EVP_PKEY_derive
                0x00000000401b9136                ASN1_PCTX_new
                0x00000000401b91ad                ASN1_PCTX_free
                0x00000000401b91b8                ASN1_PCTX_get_flags
                0x00000000401b91c1                ASN1_PCTX_set_flags
                0x00000000401b91ca                ASN1_PCTX_get_nm_flags
                0x00000000401b91d4                ASN1_PCTX_set_nm_flags
                0x00000000401b91de                ASN1_PCTX_get_cert_flags
                0x00000000401b91e8                ASN1_PCTX_set_cert_flags
                0x00000000401b91f2                ASN1_PCTX_get_oid_flags
                0x00000000401b91fc                ASN1_PCTX_set_oid_flags
                0x00000000401b9206                ASN1_PCTX_get_str_flags
                0x00000000401b9210                ASN1_PCTX_set_str_flags
                0x00000000401b921a                asn1_template_print_ctx
                0x00000000401b9b55                ASN1_item_print
                0x00000000401b9d2f                EVP_DigestSignInit
                0x00000000401b9d40                EVP_DigestVerifyInit
                0x00000000401b9d51                EVP_DigestSignFinal
                0x00000000401b9e90                EVP_DigestVerifyFinal
                0x00000000401b9f70                WHIRLPOOL_Init
                0x00000000401b9f8a                WHIRLPOOL_BitUpdate
                0x00000000401ba293                WHIRLPOOL_Update
                0x00000000401ba34f                WHIRLPOOL_Final
                0x00000000401ba456                WHIRLPOOL
                0x00000000401bd869                DHparams_print
                0x00000000401bf84c                whirlpool_block
                0x00000000401c03d9                EVP_PKEY_paramgen_init
                0x00000000401c0448                EVP_PKEY_paramgen
                0x00000000401c0501                EVP_PKEY_keygen_init
                0x00000000401c0570                EVP_PKEY_keygen
                0x00000000401c0629                EVP_PKEY_CTX_set_cb
                0x00000000401c0633                EVP_PKEY_CTX_get_cb
                0x00000000401c063d                evp_pkey_set_cb_translate
                0x00000000401c0655                EVP_PKEY_CTX_get_keygen_info
                0x00000000401c067d                EVP_PKEY_new_mac_key
                0x00000000401c080c                CMS_SignedData_init
                0x00000000401c0820                cms_set1_SignerIdentifier
                0x00000000401c0940                cms_SignerIdentifier_get0_signer_id
                0x00000000401c0997                cms_SignerIdentifier_cert_cmp
                0x00000000401c0a14                CMS_get0_SignerInfos
                0x00000000401c0a2f                CMS_get0_signers
                0x00000000401c0ab4                CMS_SignerInfo_set1_signer_cert
                0x00000000401c0b15                CMS_SignerInfo_get0_signer_id
                0x00000000401c0b24                CMS_SignerInfo_cert_cmp
                0x00000000401c0b33                CMS_set1_signers_certs
                0x00000000401c0c65                CMS_SignerInfo_get0_algs
                0x00000000401c0c9b                CMS_SignerInfo_sign
                0x00000000401c0eef                cms_SignedData_final
                0x00000000401c1110                CMS_SignerInfo_verify
                0x00000000401c123d                cms_SignedData_init_bio
                0x00000000401c140a                CMS_SignerInfo_verify_content
                0x00000000401c15be                CMS_add_smimecap
                0x00000000401c161e                CMS_add_simple_smimecap
                0x00000000401c1766                CMS_add_standard_smimecap
                0x00000000401c18a3                CMS_add1_signer
                0x00000000401c1e04                CMS_get0_RecipientInfos
                0x00000000401c1e1f                CMS_RecipientInfo_type
                0x00000000401c1e27                CMS_EnvelopedData_create
                0x00000000401c1f32                CMS_add1_recipient_cert
                0x00000000401c2116                CMS_RecipientInfo_ktri_get0_algs
                0x00000000401c2179                CMS_RecipientInfo_ktri_get0_signer_id
                0x00000000401c21b7                CMS_RecipientInfo_ktri_cert_cmp
                0x00000000401c21f5                CMS_RecipientInfo_set0_pkey
                0x00000000401c2233                CMS_RecipientInfo_kekri_id_cmp
                0x00000000401c2292                CMS_add0_recipient_key
                0x00000000401c24e1                CMS_RecipientInfo_kekri_get0_id
                0x00000000401c2587                CMS_RecipientInfo_set0_key
                0x00000000401c25c9                CMS_RecipientInfo_decrypt
                0x00000000401c299f                cms_EnvelopedData_init_bio
                0x00000000401c2e1c                EC_KEY_print
                0x00000000401c2e97                ECParameters_print
                0x00000000401c2f09                ECPKParameters_print
                0x00000000401c3b2c                CMS_signed_get_attr_count
                0x00000000401c3b3b                CMS_signed_get_attr_by_NID
                0x00000000401c3b4a                CMS_signed_get_attr_by_OBJ
                0x00000000401c3b59                CMS_signed_get_attr
                0x00000000401c3b68                CMS_signed_delete_attr
                0x00000000401c3b77                CMS_signed_add1_attr
                0x00000000401c3b8f                CMS_signed_add1_attr_by_OBJ
                0x00000000401c3ba7                CMS_signed_add1_attr_by_NID
                0x00000000401c3bbf                CMS_signed_add1_attr_by_txt
                0x00000000401c3bd7                CMS_signed_get0_data_by_OBJ
                0x00000000401c3be6                CMS_unsigned_get_attr_count
                0x00000000401c3bf5                CMS_unsigned_get_attr_by_NID
                0x00000000401c3c04                CMS_unsigned_get_attr_by_OBJ
                0x00000000401c3c13                CMS_unsigned_get_attr
                0x00000000401c3c22                CMS_unsigned_delete_attr
                0x00000000401c3c31                CMS_unsigned_add1_attr
                0x00000000401c3c49                CMS_unsigned_add1_attr_by_OBJ
                0x00000000401c3c61                CMS_unsigned_add1_attr_by_NID
                0x00000000401c3c79                CMS_unsigned_add1_attr_by_txt
                0x00000000401c3c91                CMS_unsigned_get0_data_by_OBJ
                0x00000000401c3e0e                d2i_CMS_ContentInfo
                0x00000000401c3e1e                i2d_CMS_ContentInfo
                0x00000000401c3e2e                CMS_ContentInfo_new
                0x00000000401c3e3e                CMS_ContentInfo_free
                0x00000000401c3e4e                CMS_ContentInfo_print_ctx
                0x00000000401c3e61                CMS_get0_type
                0x00000000401c3e6a                CMS_get0_content
                0x00000000401c3f45                CMS_dataFinal
                0x00000000401c40b9                cms_content_bio
                0x00000000401c4109                CMS_dataInit
                0x00000000401c420a                CMS_get0_eContentType
                0x00000000401c4224                CMS_set1_eContentType
                0x00000000401c427f                CMS_is_detached
                0x00000000401c42a0                CMS_set_detached
                0x00000000401c4336                cms_Data_create
                0x00000000401c4370                cms_DigestAlgorithm_set
                0x00000000401c43c1                cms_DigestAlgorithm_init_bio
                0x00000000401c4494                cms_DigestAlgorithm_find_ctx
                0x00000000401c4574                CMS_add0_CertificateChoices
                0x00000000401c45e5                CMS_add0_cert
                0x00000000401c468e                CMS_add1_cert
                0x00000000401c46d7                CMS_add0_RevocationInfoChoice
                0x00000000401c4748                CMS_add0_crl
                0x00000000401c4779                CMS_add1_crl
                0x00000000401c47c2                CMS_get1_certs
                0x00000000401c487f                CMS_get1_crls
                0x00000000401c4a70                cms_EncryptedContent_init_bio
                0x00000000401c4e56                cms_EncryptedContent_init
                0x00000000401c4ee2                CMS_EncryptedData_set1_key
                0x00000000401c4fec                cms_EncryptedData_init_bio
                0x00000000401c5018                AES_wrap_key
                0x00000000401c514f                AES_unwrap_key
                0x00000000401c52b0                cms_DigestedData_create
                0x00000000401c5347                cms_DigestedData_init_bio
                0x00000000401c535a                cms_DigestedData_do_final
                0x00000000401c5478                CMS_stream
                0x00000000401c54f4                d2i_CMS_bio
                0x00000000401c550a                i2d_CMS_bio
                0x00000000401c5520                PEM_read_bio_CMS
                0x00000000401c5541                PEM_write_bio_CMS
                0x00000000401c5585                BIO_new_CMS
                0x00000000401c5595                i2d_CMS_bio_stream
                0x00000000401c55a6                PEM_write_bio_CMS_stream
                0x00000000401c55bd                SMIME_write_CMS
                0x00000000401c564d                SMIME_read_CMS
                0x00000000401c5f8b                SMIME_read_ASN1
                0x00000000401c63b0                SMIME_crlf_copy
                0x00000000401c64db                i2d_ASN1_bio_stream
                0x00000000401c6673                SMIME_write_ASN1
                0x00000000401c6d00                PEM_write_bio_ASN1_stream
                0x00000000401c6d87                SMIME_text
                0x00000000401c70d5                BIO_new_NDEF
                0x00000000401c78f1                BIO_f_asn1
                0x00000000401c78fc                BIO_asn1_set_prefix
                0x00000000401c7912                BIO_asn1_get_prefix
                0x00000000401c7928                BIO_asn1_set_suffix
                0x00000000401c793e                BIO_asn1_get_suffix
                0x00000000401c7960                chelp_snprintf
                0x00000000401c799d                chelp_sprintf
                0x00000000401c79e4                chelp_print
                0x00000000401c79fc                chelp_printf
                0x00000000401c7a64                chelp_mod_64_32_32
                0x00000000401c7a79                chelp_div_64_32_64
                0x00000000401c7a8c                chelp_div_64_32_32
                0x00000000401c7a97                chelp_mul_64_64_64
                0x00000000401c7aa4                BIO_printf
                0x00000000401c7ae1                BIO_snprintf
                0x00000000401c7b17                chelp_abort
                0x00000000401c7b2a                RAND_poll
                0x00000000401c7b49                InitCryptoLibrary
                0x00000000401c7bc0                chelp_malloc
                0x00000000401c7bd7                chelp_realloc
                0x00000000401c7bfa                chelp_free
                0x00000000401c7c0a                chelp_swap
                0x00000000401c7c3e                chelp_qsort
                0x00000000401c7f52                chelp_bsearch
                0x00000000401c8021                chelp_memchr
                0x00000000401c805a                chelp_memmove
                0x00000000401c80d9                chelp_memcmp
                0x00000000401c8148                chelp_memcpy
                0x00000000401c8174                chelp_memset
                0x00000000401c81a0                chelp_isupper
                0x00000000401c81b3                chelp_islower
                0x00000000401c81c6                chelp_toupper
                0x00000000401c81d2                chelp_tolower
                0x00000000401c81de                chelp_isspace
                0x00000000401c81fa                chelp_isdigit
                0x00000000401c820d                chelp_isxdigit
                0x00000000401c8235                chelp_isalpha
                0x00000000401c8252                chelp_isalnum
                0x00000000401c827b                chelp_strtoul_ex
                0x00000000401c844c                chelp_strtoul
                0x00000000401c845c                chelp_strtol
                0x00000000401c846c                chelp_strcpy
                0x00000000401c849a                chelp_strncpy
                0x00000000401c8507                chelp_strcat
                0x00000000401c8548                chelp_strcmp
                0x00000000401c85a8                chelp_strncmp
                0x00000000401c872a                chelp_stricmp
                0x00000000401c8769                chelp_strchr
                0x00000000401c87a1                chelp_strrchr
                0x00000000401c87d5                chelp_strlen
                0x00000000401c87fc                chelp_strncasecmp
                0x00000000401c8850                decryptcfg
                0x00000000401c88d8                ASN1_BIT_STRING_set
                0x00000000401c88e3                i2c_ASN1_BIT_STRING
                0x00000000401c89f0                c2i_ASN1_BIT_STRING
                0x00000000401c8b69                ASN1_BIT_STRING_set_bit
                0x00000000401c8cc8                ASN1_BIT_STRING_get_bit
                0x00000000401c8d10                ASN1_BIT_STRING_check
                0x00000000401c8d70                d2i_ASN1_type_bytes
                0x00000000401c8f15                i2d_ASN1_bytes
                0x00000000401c8fcc                d2i_ASN1_bytes
                0x00000000401c961b                ASN1_d2i_bio
                0x00000000401c968d                ASN1_item_d2i_bio
                0x00000000401c9704                ASN1_digest
                0x00000000401c97cb                ASN1_item_digest
                0x00000000401c9848                ASN1_dup
                0x00000000401c9903                ASN1_item_dup
                0x00000000401c998c                ASN1_ENUMERATED_set
                0x00000000401c9aa1                ASN1_ENUMERATED_get
                0x00000000401c9b19                BN_to_ASN1_ENUMERATED
                0x00000000401c9c20                ASN1_ENUMERATED_to_BN
                0x00000000401c9c90                ASN1_GENERALIZEDTIME_check
                0x00000000401c9f02                ASN1_GENERALIZEDTIME_set_string
                0x00000000401c9f7f                ASN1_GENERALIZEDTIME_adj
                0x00000000401ca0db                ASN1_GENERALIZEDTIME_set
                0x00000000401ca0f0                ASN1_i2d_bio
                0x00000000401ca1ae                ASN1_item_i2d_bio
                0x00000000401ca250                ASN1_INTEGER_dup
                0x00000000401ca25b                ASN1_INTEGER_cmp
                0x00000000401ca29b                i2c_ASN1_INTEGER
                0x00000000401ca413                c2i_ASN1_INTEGER
                0x00000000401ca60f                d2i_ASN1_UINTEGER
                0x00000000401ca77e                ASN1_INTEGER_set
                0x00000000401ca893                ASN1_INTEGER_get
                0x00000000401ca90d                BN_to_ASN1_INTEGER
                0x00000000401caa25                ASN1_INTEGER_to_BN
                0x00000000401caaa0                i2d_ASN1_OBJECT
                0x00000000401cab37                a2d_ASN1_OBJECT
                0x00000000401cb03e                i2t_ASN1_OBJECT
                0x00000000401cb04e                i2a_ASN1_OBJECT
                0x00000000401cb134                ASN1_OBJECT_new
                0x00000000401cb1b0                ASN1_OBJECT_free
                0x00000000401cb229                c2i_ASN1_OBJECT
                0x00000000401cb3d4                d2i_ASN1_OBJECT
                0x00000000401cb460                ASN1_OBJECT_create
                0x00000000401cb48c                ASN1_OCTET_STRING_dup
                0x00000000401cb497                ASN1_OCTET_STRING_cmp
                0x00000000401cb4a2                ASN1_OCTET_STRING_set
                0x00000000401cb4b0                ASN1_sign
                0x00000000401cb74e                ASN1_item_sign
                0x00000000401cc162                X509_NAME_print_ex
                0x00000000401cc642                ASN1_STRING_print_ex
                0x00000000401cc658                ASN1_STRING_to_UTF8
                0x00000000401cc6cc                d2i_ASN1_TIME
                0x00000000401cc6dc                i2d_ASN1_TIME
                0x00000000401cc6ec                ASN1_TIME_new
                0x00000000401cc6fc                ASN1_TIME_free
                0x00000000401cc70c                ASN1_TIME_adj
                0x00000000401cc7cf                ASN1_TIME_set
                0x00000000401cc7e4                ASN1_TIME_check
                0x00000000401cc808                ASN1_TIME_to_generalizedtime
                0x00000000401cc8fb                ASN1_TIME_set_string
                0x00000000401cc97c                ASN1_TYPE_get
                0x00000000401cc995                ASN1_TYPE_set
                0x00000000401cc9f6                ASN1_TYPE_set1
                0x00000000401cca82                ASN1_TYPE_cmp
                0x00000000401ccad0                ASN1_UTCTIME_check
                0x00000000401cccf4                ASN1_UTCTIME_set_string
                0x00000000401ccd71                ASN1_UTCTIME_adj
                0x00000000401ccef9                ASN1_UTCTIME_set
                0x00000000401ccf0e                ASN1_UTCTIME_cmp_time_t
                0x00000000401cd080                UTF8_getc
                0x00000000401cd40f                UTF8_putc
                0x00000000401cd638                ASN1_verify
                0x00000000401cd7a7                ASN1_item_verify
                0x00000000401cd9a0                AES_cbc_encrypt
                0x00000000401cd9c4                AES_cfb128_encrypt
                0x00000000401cd9e2                AES_cfb1_encrypt
                0x00000000401cda00                AES_cfb8_encrypt
                0x00000000401cda20                AES_ecb_encrypt
                0x00000000401cda38                AES_ofb128_encrypt
                0x00000000401cda50                ERR_load_ASN1_strings
                0x00000000401cdabf                ASN1_check_infinite_end
                0x00000000401cdaca                ASN1_const_check_infinite_end
                0x00000000401cdb2e                ASN1_get_object
                0x00000000401cdcf0                ASN1_put_object
                0x00000000401cddf2                ASN1_put_eoc
                0x00000000401cde0e                ASN1_object_size
                0x00000000401cde4a                asn1_Finish
                0x00000000401cde55                asn1_const_Finish
                0x00000000401cde60                asn1_GetSequence
                0x00000000401cdf0e                ASN1_STRING_set
                0x00000000401ce010                ASN1_STRING_copy
                0x00000000401ce061                ASN1_STRING_set0
                0x00000000401ce0a1                ASN1_STRING_type_new
                0x00000000401ce118                ASN1_STRING_new
                0x00000000401ce128                ASN1_STRING_free
                0x00000000401ce15c                ASN1_STRING_dup
                0x00000000401ce1af                ASN1_STRING_cmp
                0x00000000401ce1f0                asn1_add_error
                0x00000000401ce258                ASN1_STRING_length
                0x00000000401ce260                ASN1_STRING_length_set
                0x00000000401ce268                ASN1_STRING_type
                0x00000000401ce271                ASN1_STRING_data
                0x00000000401ce280                ASN1_tag2str
                0x00000000401cee5f                ASN1_parse_dump
                0x00000000401cee88                ASN1_parse
                0x00000000401ceeca                BIO_dump_indent_cb
                0x00000000401cf2de                BIO_dump_cb
                0x00000000401cf2ef                BIO_dump
                0x00000000401cf307                BIO_dump_indent
                0x00000000401cfcdc                BIO_f_buffer
                0x00000000401cfcf0                BF_cfb64_encrypt
                0x00000000401cfed8                BF_options
                0x00000000401cfee3                BF_ecb_encrypt
                0x00000000401cff94                BF_encrypt
                0x00000000401d0355                BF_decrypt
                0x00000000401d0716                BF_cbc_encrypt
                0x00000000401d0ca8                BF_ofb64_encrypt
                0x00000000401d0e38                BF_set_key
                0x00000000401d1c61                BIO_f_base64
                0x00000000401d2360                BIO_f_cipher
                0x00000000401d236b                BIO_set_cipher
                0x00000000401d2420                ERR_load_BIO_strings
                0x00000000401d27da                BIO_f_md
                0x00000000401d27f0                BN_uadd
                0x00000000401d2934                BN_usub
                0x00000000401d2b2e                BN_add
                0x00000000401d2bd9                BN_sub
                0x00000000401d2cec                bn_mul_add_words
                0x00000000401d2f54                bn_mul_words
                0x00000000401d31a0                bn_sqr_words
                0x00000000401d32f3                bn_div_words
                0x00000000401d3443                bn_add_words
                0x00000000401d352f                bn_sub_words
                0x00000000401d3639                bn_mul_comba8
                0x00000000401d4ede                bn_mul_comba4
                0x00000000401d54fd                bn_sqr_comba8
                0x00000000401d6547                bn_sqr_comba4
                0x00000000401d6940                BN_BLINDING_free
                0x00000000401d6997                BN_BLINDING_new
                0x00000000401d6a82                BN_BLINDING_invert_ex
                0x00000000401d6ae5                BN_BLINDING_invert
                0x00000000401d6afb                BN_BLINDING_get_thread_id
                0x00000000401d6b05                BN_BLINDING_set_thread_id
                0x00000000401d6b0f                BN_BLINDING_thread_id
                0x00000000401d6b19                BN_BLINDING_get_flags
                0x00000000401d6b23                BN_BLINDING_set_flags
                0x00000000401d6b2d                BN_BLINDING_create_param
                0x00000000401d6cc1                BN_BLINDING_update
                0x00000000401d6db3                BN_BLINDING_convert_ex
                0x00000000401d6e8e                BN_BLINDING_convert
                0x00000000401d6ea4                BN_CTX_init
                0x00000000401d6f1f                BN_CTX_new
                0x00000000401d6fbf                BN_CTX_free
                0x00000000401d703f                BN_CTX_start
                0x00000000401d7125                BN_CTX_end
                0x00000000401d719a                BN_CTX_get
                0x00000000401d7300                BN_div
                0x00000000401d7e24                ERR_load_BN_strings
                0x00000000401d7f3d                BN_exp
                0x00000000401d80dd                BN_mod_exp_recp
                0x00000000401d8569                BN_mod_exp_mont_consttime
                0x00000000401d8b9c                BN_mod_exp_mont
                0x00000000401d917b                BN_mod_exp_mont_word
                0x00000000401d95bd                BN_mod_exp
                0x00000000401d9609                BN_mod_exp_simple
                0x00000000401d9a80                BN_gcd
                0x00000000401d9c96                BN_mod_inverse
                0x00000000401da710                BN_nnmod
                0x00000000401da76c                BN_mod_add
                0x00000000401da7ba                BN_mod_add_quick
                0x00000000401da80e                BN_mod_sub
                0x00000000401da85c                BN_mod_sub_quick
                0x00000000401da8a4                BN_mod_mul
                0x00000000401da95c                BN_mod_sqr
                0x00000000401da9b2                BN_mod_lshift1
                0x00000000401daa00                BN_mod_lshift1_quick
                0x00000000401daa54                BN_mod_lshift_quick
                0x00000000401dab4f                BN_mod_lshift
                0x00000000401daf5c                BN_mod_mul_montgomery
                0x00000000401db011                BN_from_montgomery
                0x00000000401db09b                BN_MONT_CTX_init
                0x00000000401db0e4                BN_MONT_CTX_new
                0x00000000401db122                BN_MONT_CTX_free
                0x00000000401db163                BN_MONT_CTX_set
                0x00000000401db35d                BN_MONT_CTX_copy
                0x00000000401db3dd                BN_MONT_CTX_set_locked
                0x00000000401db4e0                bn_sub_part_words
                0x00000000401db773                bn_add_part_words
                0x00000000401dbb31                bn_mul_normal
                0x00000000401dbc99                bn_mul_recursive
                0x00000000401dc12b                bn_mul_high
                0x00000000401dc5a7                bn_mul_part_recursive
                0x00000000401dca7b                BN_mul
                0x00000000401dcdcb                bn_mul_low_normal
                0x00000000401dcead                bn_mul_low_recursive
                0x00000000401dd0e7                BN_GENCB_call
                0x00000000401dd135                BN_is_prime_fasttest_ex
                0x00000000401dd604                BN_is_prime_ex
                0x00000000401dd617                BN_generate_prime_ex
                0x00000000401ddb68                BN_RECP_CTX_init
                0x00000000401ddb97                BN_RECP_CTX_new
                0x00000000401ddbd5                BN_RECP_CTX_free
                0x00000000401ddc09                BN_RECP_CTX_set
                0x00000000401ddc5f                BN_reciprocal
                0x00000000401ddcf8                BN_div_recp
                0x00000000401ddfa3                BN_mod_mul_reciprocal
                0x00000000401de06c                BN_lshift1
                0x00000000401de12b                BN_rshift1
                0x00000000401de203                BN_lshift
                0x00000000401de363                BN_rshift
                0x00000000401de510                bn_sqr_normal
                0x00000000401de5ec                bn_sqr_recursive
                0x00000000401de7aa                BN_sqr
                0x00000000401dea94                BIO_s_null
                0x00000000401deaa0                ERR_load_BUF_strings
                0x00000000401deae0                CAST_cfb64_encrypt
                0x00000000401decc8                CAST_ecb_encrypt
                0x00000000401ded78                CAST_encrypt
                0x00000000401df1d4                CAST_decrypt
                0x00000000401df656                CAST_cbc_encrypt
                0x00000000401dfbe8                CAST_ofb64_encrypt
                0x00000000401dfd78                CAST_set_key
                0x00000000401e0810                DES_ede3_cfb64_encrypt
                0x00000000401e0a3b                DES_ede3_cfb_encrypt
                0x00000000401e1240                DES_cfb64_encrypt
                0x00000000401e1460                DES_cfb_encrypt
                0x00000000401e1a8c                ERR_load_COMP_strings
                0x00000000401e1ac4                ERR_load_CONF_strings
                0x00000000401e1afc                ERR_load_CRYPTO_strings
                0x00000000401e1b40                d2i_PrivateKey
                0x00000000401e1ca1                d2i_AutoPrivateKey
                0x00000000401e1e0e                d2i_DHparams
                0x00000000401e1e1e                i2d_DHparams
                0x00000000401e1e2e                DHparams_dup
                0x00000000401e1e50                DH_check
                0x00000000401e1f89                DH_check_pub_key
                0x00000000401e2034                ERR_load_DH_strings
                0x00000000401e2070                DH_generate_parameters_ex
                0x00000000401e2278                EVP_MD_CTX_init
                0x00000000401e228d                EVP_MD_CTX_create
                0x00000000401e22c4                EVP_DigestInit_ex
                0x00000000401e23a3                EVP_DigestInit
                0x00000000401e23d8                EVP_DigestUpdate
                0x00000000401e23e4                EVP_DigestFinal_ex
                0x00000000401e247f                EVP_MD_CTX_cleanup
                0x00000000401e251c                EVP_MD_CTX_destroy
                0x00000000401e253c                EVP_Digest
                0x00000000401e25e6                EVP_MD_CTX_copy_ex
                0x00000000401e2723                EVP_MD_CTX_copy
                0x00000000401e2753                EVP_DigestFinal
                0x00000000401e283e                d2i_DSA_SIG
                0x00000000401e284e                i2d_DSA_SIG
                0x00000000401e285e                DSA_SIG_new
                0x00000000401e286e                DSA_SIG_free
                0x00000000401e287e                d2i_DSAPrivateKey
                0x00000000401e288e                i2d_DSAPrivateKey
                0x00000000401e289e                d2i_DSAparams
                0x00000000401e28ae                i2d_DSAparams
                0x00000000401e28be                d2i_DSAPublicKey
                0x00000000401e28ce                i2d_DSAPublicKey
                0x00000000401e28de                DSAparams_dup
                0x00000000401e28f4                ERR_load_DSA_strings
                0x00000000401e2930                dsa_builtin_paramgen
                0x00000000401e3225                DSA_generate_parameters_ex
                0x00000000401e32d0                DSA_generate_key
                0x00000000401e3438                DSA_set_default_method
                0x00000000401e3445                DSA_get_default_method
                0x00000000401e3468                DSA_set_method
                0x00000000401e34af                DSA_new_method
                0x00000000401e35b0                DSA_new
                0x00000000401e35c0                DSA_free
                0x00000000401e368f                DSA_up_ref
                0x00000000401e36bc                DSA_size
                0x00000000401e3711                DSA_get_ex_new_index
                0x00000000401e3730                DSA_set_ex_data
                0x00000000401e373f                DSA_get_ex_data
                0x00000000401e374e                DSA_dup_DH
                0x00000000401e40ec                DSA_OpenSSL
                0x00000000401e40f8                DSA_do_sign
                0x00000000401e4105                DSA_sign
                0x00000000401e4189                DSA_sign_setup
                0x00000000401e4198                DSA_do_verify
                0x00000000401e41a5                DSA_verify
                0x00000000401e4230                ERR_load_DSO_strings
                0x00000000401e4b81                EC_GROUP_get_basis_type
                0x00000000401e4be6                EC_GROUP_get_trinomial_basis
                0x00000000401e4c6f                EC_GROUP_get_pentanomial_basis
                0x00000000401e4d46                X9_62_PENTANOMIAL_new
                0x00000000401e4d56                X9_62_PENTANOMIAL_free
                0x00000000401e4d66                X9_62_CHARACTERISTIC_TWO_new
                0x00000000401e4d76                X9_62_CHARACTERISTIC_TWO_free
                0x00000000401e4d86                ECPARAMETERS_new
                0x00000000401e4d96                ECPARAMETERS_free
                0x00000000401e4da6                d2i_ECPKPARAMETERS
                0x00000000401e4db6                i2d_ECPKPARAMETERS
                0x00000000401e4dc6                ECPKPARAMETERS_new
                0x00000000401e4dd6                ECPKPARAMETERS_free
                0x00000000401e59de                d2i_EC_PRIVATEKEY
                0x00000000401e59ee                i2d_EC_PRIVATEKEY
                0x00000000401e59fe                EC_PRIVATEKEY_new
                0x00000000401e5a0e                EC_PRIVATEKEY_free
                0x00000000401e5a1e                d2i_ECPKParameters
                0x00000000401e5adb                i2d_ECPKParameters
                0x00000000401e5b69                d2i_ECPrivateKey
                0x00000000401e5de6                i2d_ECPrivateKey
                0x00000000401e6176                i2d_ECParameters
                0x00000000401e61ae                d2i_ECParameters
                0x00000000401e6294                o2i_ECPublicKey
                0x00000000401e638e                i2o_ECPublicKey
                0x00000000401e64d8                EC_GROUP_new_by_curve_name
                0x00000000401e69ec                EC_get_builtin_curves
                0x00000000401e6a40                EC_GROUP_new_curve_GFp
                0x00000000401e6b28                EC_GROUP_new_curve_GF2m
                0x00000000401e6ba4                ERR_load_EC_strings
                0x00000000401e6be0                EC_KEY_new
                0x00000000401e6c6b                EC_KEY_free
                0x00000000401e6ced                EC_KEY_new_by_curve_name
                0x00000000401e6d38                EC_KEY_copy
                0x00000000401e6ef3                EC_KEY_dup
                0x00000000401e6f3d                EC_KEY_up_ref
                0x00000000401e6f6a                EC_KEY_generate_key
                0x00000000401e7149                EC_KEY_check_key
                0x00000000401e73f9                EC_KEY_get0_group
                0x00000000401e7403                EC_KEY_set_group
                0x00000000401e7446                EC_KEY_get0_private_key
                0x00000000401e7450                EC_KEY_set_private_key
                0x00000000401e7493                EC_KEY_get0_public_key
                0x00000000401e749d                EC_KEY_set_public_key
                0x00000000401e74e4                EC_KEY_get_enc_flags
                0x00000000401e74ed                EC_KEY_set_enc_flags
                0x00000000401e74f6                EC_KEY_get_conv_form
                0x00000000401e74ff                EC_KEY_set_conv_form
                0x00000000401e7516                EC_KEY_get_key_method_data
                0x00000000401e7525                EC_KEY_insert_key_method_data
                0x00000000401e75c4                EC_KEY_set_asn1_flag
                0x00000000401e75d8                EC_KEY_precompute_mult
                0x00000000401e7600                EC_GROUP_new
                0x00000000401e7710                EC_GROUP_method_of
                0x00000000401e7719                EC_METHOD_get_field_type
                0x00000000401e7721                EC_GROUP_get0_generator
                0x00000000401e772b                EC_GROUP_get_order
                0x00000000401e7760                EC_GROUP_get_cofactor
                0x00000000401e7795                EC_GROUP_set_curve_name
                0x00000000401e779e                EC_GROUP_get_curve_name
                0x00000000401e77a7                EC_GROUP_set_asn1_flag
                0x00000000401e77b0                EC_GROUP_get_asn1_flag
                0x00000000401e77b9                EC_GROUP_set_point_conversion_form
                0x00000000401e77c2                EC_GROUP_get_point_conversion_form
                0x00000000401e77cb                EC_GROUP_set_seed
                0x00000000401e785e                EC_GROUP_get0_seed
                0x00000000401e7868                EC_GROUP_get_seed_len
                0x00000000401e7872                EC_GROUP_set_curve_GFp
                0x00000000401e78b1                EC_GROUP_get_curve_GFp
                0x00000000401e78eb                EC_GROUP_set_curve_GF2m
                0x00000000401e7925                EC_GROUP_get_curve_GF2m
                0x00000000401e7961                EC_GROUP_get_degree
                0x00000000401e799b                EC_GROUP_check_discriminant
                0x00000000401e79d5                EC_EX_DATA_set_data
                0x00000000401e7aa5                EC_EX_DATA_get_data
                0x00000000401e7ada                EC_EX_DATA_free_data
                0x00000000401e7b29                EC_EX_DATA_clear_free_data
                0x00000000401e7b78                EC_EX_DATA_free_all_data
                0x00000000401e7bc4                EC_EX_DATA_clear_free_all_data
                0x00000000401e7c10                EC_POINT_new
                0x00000000401e7cde                EC_POINT_free
                0x00000000401e7d0c                EC_GROUP_free
                0x00000000401e7d71                EC_POINT_clear_free
                0x00000000401e7db9                EC_GROUP_clear_free
                0x00000000401e7e45                EC_POINT_copy
                0x00000000401e7eb1                EC_GROUP_set_generator
                0x00000000401e7fa0                EC_GROUP_copy
                0x00000000401e81ca                EC_GROUP_dup
                0x00000000401e8220                EC_POINT_dup
                0x00000000401e8276                EC_POINT_method_of
                0x00000000401e827f                EC_POINT_set_to_infinity
                0x00000000401e82e4                EC_POINT_set_Jprojective_coordinates_GFp
                0x00000000401e8349                EC_POINT_get_Jprojective_coordinates_GFp
                0x00000000401e83b1                EC_POINT_set_affine_coordinates_GFp
                0x00000000401e8419                EC_POINT_set_affine_coordinates_GF2m
                0x00000000401e8481                EC_POINT_get_affine_coordinates_GFp
                0x00000000401e84e9                EC_POINT_get_affine_coordinates_GF2m
                0x00000000401e8551                EC_POINT_set_compressed_coordinates_GFp
                0x00000000401e85b9                EC_POINT_set_compressed_coordinates_GF2m
                0x00000000401e8621                EC_POINT_point2oct
                0x00000000401e8689                EC_POINT_oct2point
                0x00000000401e86f1                EC_POINT_add
                0x00000000401e8763                EC_POINT_dbl
                0x00000000401e87d1                EC_POINT_invert
                0x00000000401e883b                EC_POINT_is_at_infinity
                0x00000000401e88a3                EC_POINT_is_on_curve
                0x00000000401e890b                EC_POINT_cmp
                0x00000000401e8978                EC_GROUP_cmp
                0x00000000401e8bfd                EC_POINT_make_affine
                0x00000000401e8c65                EC_POINTs_make_affine
                0x00000000401e8cf1                EC_POINTs_mul
                0x00000000401e8d21                EC_POINT_mul
                0x00000000401e8d59                EC_GROUP_precompute_mult
                0x00000000401e8d86                EC_GROUP_have_precompute_mult
                0x00000000401e91be                ec_wNAF_mul
                0x00000000401ea09f                ec_wNAF_precompute_mult
                0x00000000401ea6f0                ec_wNAF_have_precompute_mult
                0x00000000401ea720                EC_POINT_point2bn
                0x00000000401ea7e6                EC_POINT_bn2point
                0x00000000401ea8df                EC_POINT_point2hex
                0x00000000401ea9e8                EC_POINT_hex2point
                0x00000000401eaa58                ERR_load_ECDH_strings
                0x00000000401eaa90                ECDH_compute_key
                0x00000000401eab35                ECDH_set_default_method
                0x00000000401eab42                ECDH_get_default_method
                0x00000000401eabf9                ecdh_check
                0x00000000401eac59                ECDH_set_method
                0x00000000401eac83                ECDH_get_ex_new_index
                0x00000000401eaca2                ECDH_set_ex_data
                0x00000000401eace3                ECDH_get_ex_data
                0x00000000401eb0d1                ECDH_OpenSSL
                0x00000000401eb0dc                ec_GFp_mont_field_set_to_one
                0x00000000401eb126                ec_GFp_mont_field_decode
                0x00000000401eb169                ec_GFp_mont_field_encode
                0x00000000401eb1b6                ec_GFp_mont_field_sqr
                0x00000000401eb1ff                ec_GFp_mont_field_mul
                0x00000000401eb248                ec_GFp_mont_group_set_curve
                0x00000000401eb3f0                ec_GFp_mont_group_copy
                0x00000000401eb4d8                ec_GFp_mont_group_clear_finish
                0x00000000401eb52b                ec_GFp_mont_group_finish
                0x00000000401eb57e                ec_GFp_mont_group_init
                0x00000000401eb5ac                EC_GFp_mont_method
                0x00000000401eb5c0                ec_GFp_nist_field_sqr
                0x00000000401eb69b                ec_GFp_nist_field_mul
                0x00000000401eb784                ec_GFp_nist_group_set_curve
                0x00000000401eb90e                ec_GFp_nist_group_copy
                0x00000000401eb927                EC_GFp_nist_method
                0x00000000401eb940                ec_GFp_simple_is_at_infinity
                0x00000000401eb950                ec_GFp_simple_field_sqr
                0x00000000401eb968                ec_GFp_simple_field_mul
                0x00000000401eb983                ec_GFp_simple_point_copy
                0x00000000401eb9e8                ec_GFp_simple_group_copy
                0x00000000401eba5f                ec_GFp_simple_point_set_to_infinity
                0x00000000401eba7f                ec_GFp_simple_get_Jprojective_coordinates_GFp
                0x00000000401ebc06                ec_GFp_simple_group_get_curve
                0x00000000401ebd75                ec_GFp_simple_point_clear_finish
                0x00000000401ebdaa                ec_GFp_simple_group_clear_finish
                0x00000000401ebdde                ec_GFp_simple_points_make_affine
                0x00000000401ec34e                ec_GFp_simple_point_get_affine_coordinates
                0x00000000401ec68d                ec_GFp_simple_make_affine
                0x00000000401ec7a4                ec_GFp_simple_cmp
                0x00000000401eca57                ec_GFp_simple_is_on_curve
                0x00000000401ecd5f                ec_GFp_simple_invert
                0x00000000401ecda8                ec_GFp_simple_dbl
                0x00000000401ed254                ec_GFp_simple_add
                0x00000000401ed85b                ec_GFp_simple_group_get_degree
                0x00000000401ed86a                ec_GFp_simple_oct2point
                0x00000000401edbf7                ec_GFp_simple_point2oct
                0x00000000401edf76                ec_GFp_simple_set_Jprojective_coordinates_GFp
                0x00000000401ee15c                ec_GFp_simple_set_compressed_coordinates
                0x00000000401ee5e8                ec_GFp_simple_point_set_affine_coordinates
                0x00000000401ee675                ec_GFp_simple_point_finish
                0x00000000401ee6a3                ec_GFp_simple_group_finish
                0x00000000401ee6d7                ec_GFp_simple_point_init
                0x00000000401ee711                ec_GFp_simple_group_init
                0x00000000401ee754                ec_GFp_simple_group_check_discriminant
                0x00000000401ee985                ec_GFp_simple_group_set_curve
                0x00000000401eeb7d                EC_GFp_simple_method
                0x00000000401eeb88                ERR_load_ECDSA_strings
                0x00000000401eebf9                ECDSA_set_default_method
                0x00000000401eec06                ECDSA_get_default_method
                0x00000000401eecbd                ecdsa_check
                0x00000000401eed1d                ECDSA_set_method
                0x00000000401eed47                ECDSA_size
                0x00000000401eee09                ECDSA_get_ex_new_index
                0x00000000401eee28                ECDSA_set_ex_data
                0x00000000401eee69                ECDSA_get_ex_data
                0x00000000401efb9b                ECDSA_OpenSSL
                0x00000000401efba8                ECDSA_do_sign_ex
                0x00000000401efc14                ECDSA_do_sign
                0x00000000401efc2c                ECDSA_sign_ex
                0x00000000401efcb8                ECDSA_sign
                0x00000000401efcda                ECDSA_sign_setup
                0x00000000401efd38                ECDSA_do_verify
                0x00000000401efd96                ECDSA_verify
                0x00000000401efe20                EVP_EncodeInit
                0x00000000401efe3a                EVP_EncodeBlock
                0x00000000401eff75                EVP_EncodeFinal
                0x00000000401effd2                EVP_EncodeUpdate
                0x00000000401f0102                EVP_DecodeInit
                0x00000000401f0123                EVP_DecodeBlock
                0x00000000401f0285                EVP_DecodeUpdate
                0x00000000401f055f                EVP_DecodeFinal
                0x00000000401f05c0                EVP_set_pw_prompt
                0x00000000401f05ed                EVP_get_pw_prompt
                0x00000000401f0608                EVP_read_pw_string_min
                0x00000000401f06e2                EVP_read_pw_string
                0x00000000401f06fa                EVP_BytesToKey
                0x00000000401f09c5                EVP_PBE_alg_add_type
                0x00000000401f0a85                EVP_PBE_alg_add
                0x00000000401f0af5                EVP_PBE_find
                0x00000000401f0bbc                EVP_PBE_CipherInit
                0x00000000401f0d96                EVP_PBE_cleanup
                0x00000000401f0dc0                EVP_PKCS82PKEY
                0x00000000401f0efb                EVP_PKEY2PKCS8_broken
                0x00000000401f1003                EVP_PKEY2PKCS8
                0x00000000401f1013                PKCS8_set_broken
                0x00000000401f1065                EVP_PKEY_get_attr_count
                0x00000000401f1074                EVP_PKEY_get_attr_by_NID
                0x00000000401f1083                EVP_PKEY_get_attr_by_OBJ
                0x00000000401f1092                EVP_PKEY_get_attr
                0x00000000401f10a1                EVP_PKEY_delete_attr
                0x00000000401f10b0                EVP_PKEY_add1_attr
                0x00000000401f10c8                EVP_PKEY_add1_attr_by_OBJ
                0x00000000401f10e0                EVP_PKEY_add1_attr_by_NID
                0x00000000401f10f8                EVP_PKEY_add1_attr_by_txt
                0x00000000401f1110                HMAC_Init_ex
                0x00000000401f1344                HMAC_Update
                0x00000000401f1353                HMAC_Final
                0x00000000401f13e8                HMAC_CTX_init
                0x00000000401f1416                HMAC_Init
                0x00000000401f1472                HMAC_CTX_copy
                0x00000000401f1508                HMAC_CTX_cleanup
                0x00000000401f1548                HMAC
                0x00000000401f1619                HMAC_CTX_set_flags
                0x00000000401f1660                i2d_PrivateKey
                0x00000000401f2050                RAND_SSLeay
                0x00000000401f2084                d2i_NETSCAPE_CERT_SEQUENCE
                0x00000000401f2094                i2d_NETSCAPE_CERT_SEQUENCE
                0x00000000401f20a4                NETSCAPE_CERT_SEQUENCE_new
                0x00000000401f20b4                NETSCAPE_CERT_SEQUENCE_free
                0x00000000401f20c4                OPENSSL_gmtime
                0x00000000401f20cf                OPENSSL_gmtime_adj
                0x00000000401f2378                PKCS12_PBE_add
                0x00000000401f237e                PKCS12_PBE_keyivgen
                0x00000000401f258c                PKCS12_key_gen_uni
                0x00000000401f2aa9                PKCS12_key_gen_asc
                0x00000000401f2b88                PKCS8_decrypt
                0x00000000401f2bac                OPENSSL_asc2uni
                0x00000000401f2c3b                OPENSSL_uni2asc
                0x00000000401f2cbc                i2d_PKCS12_bio
                0x00000000401f2cd2                d2i_PKCS12_bio
                0x00000000401f2ce8                PKCS12_x5092certbag
                0x00000000401f2d02                PKCS12_x509crl2certbag
                0x00000000401f2d1c                PKCS12_certbag2x509
                0x00000000401f2d73                PKCS12_certbag2x509crl
                0x00000000401f2dcc                PKCS5_PBE_add
                0x00000000401f2dd2                PKCS5_PBE_keyivgen
                0x00000000401f30b4                PKCS5_PBKDF2_HMAC
                0x00000000401f32d4                PKCS5_PBKDF2_HMAC_SHA1
                0x00000000401f3342                PKCS5_v2_PBE_keyivgen
                0x00000000401f3744                d2i_PBEPARAM
                0x00000000401f3754                i2d_PBEPARAM
                0x00000000401f3764                PBEPARAM_new
                0x00000000401f3774                PBEPARAM_free
                0x00000000401f3784                PKCS5_pbe_set0_algor
                0x00000000401f393f                PKCS5_pbe_set
                0x00000000401f39d4                d2i_PBE2PARAM
                0x00000000401f39e4                i2d_PBE2PARAM
                0x00000000401f39f4                PBE2PARAM_new
                0x00000000401f3a04                PBE2PARAM_free
                0x00000000401f3a14                d2i_PBKDF2PARAM
                0x00000000401f3a24                i2d_PBKDF2PARAM
                0x00000000401f3a34                PBKDF2PARAM_new
                0x00000000401f3a44                PBKDF2PARAM_free
                0x00000000401f3a54                PKCS5_pbe2_set_iv
                0x00000000401f3f6d                PKCS5_pbe2_set
                0x00000000401f3fb0                d2i_PKCS8_PRIV_KEY_INFO
                0x00000000401f3fc0                i2d_PKCS8_PRIV_KEY_INFO
                0x00000000401f3fd0                PKCS8_PRIV_KEY_INFO_new
                0x00000000401f3fe0                PKCS8_PRIV_KEY_INFO_free
                0x00000000401f3ff0                PKCS8_pkey_set0
                0x00000000401f40bb                PKCS8_pkey_get0
                0x00000000401f4150                EVP_SignFinal
                0x00000000401f4330                EVP_VerifyFinal
                0x00000000401f4521                policy_cache_free
                0x00000000401f4561                policy_cache_set
                0x00000000401f48b5                policy_cache_find_data
                0x00000000401f48f0                policy_data_free
                0x00000000401f4935                policy_data_new
                0x00000000401f4a34                policy_cache_set_mapping
                0x00000000401f4c9e                X509_policy_tree_free
                0x00000000401f4d4a                X509_policy_check
                0x00000000401f57b8                d2i_PKCS8PrivateKey_bio
                0x00000000401f58cc                PEM_read_bio_PKCS8
                0x00000000401f58ed                PEM_write_bio_PKCS8
                0x00000000401f5931                PEM_read_bio_PKCS8_PRIV_KEY_INFO
                0x00000000401f5952                PEM_write_bio_PKCS8_PRIV_KEY_INFO
                0x00000000401f5b98                i2d_PKCS8PrivateKey_nid_bio
                0x00000000401f5bc9                i2d_PKCS8PrivateKey_bio
                0x00000000401f5bfa                PEM_write_bio_PKCS8PrivateKey
                0x00000000401f5c2b                PEM_write_bio_PKCS8PrivateKey_nid
                0x00000000401f5c5c                PKCS7_add_attrib_smimecap
                0x00000000401f5cdf                PKCS7_get_smimecap
                0x00000000401f5d2e                PKCS7_simple_smimecap
                0x00000000401f5e74                PKCS7_add_attrib_content_type
                0x00000000401f5ed3                PKCS7_add0_attrib_signing_time
                0x00000000401f5f36                PKCS7_add1_attrib_digest
                0x00000000401f78b2                RSA_PKCS1_SSLeay
                0x00000000401f78c0                RSA_padding_add_none
                0x00000000401f792c                RSA_padding_check_none
                0x00000000401f79b4                PKCS1_MGF1
                0x00000000401f7ba9                RSA_padding_check_PKCS1_OAEP
                0x00000000401f7e2d                RSA_padding_add_PKCS1_OAEP
                0x00000000401f8030                RSA_padding_add_PKCS1_type_1
                0x00000000401f80cb                RSA_padding_check_PKCS1_type_1
                0x00000000401f8214                RSA_padding_add_PKCS1_type_2
                0x00000000401f82d5                RSA_padding_check_PKCS1_type_2
                0x00000000401f83f0                RSA_verify_PKCS1_PSS
                0x00000000401f87a3                RSA_padding_add_PKCS1_PSS
                0x00000000401f8a7c                RSA_padding_add_SSLv23
                0x00000000401f8b50                RSA_padding_check_SSLv23
                0x00000000401f8cb0                RSA_padding_add_X931
                0x00000000401f8d66                RSA_padding_check_X931
                0x00000000401f8e82                RSA_X931_hash_id
                0x00000000401f8ec4                ASN1_bn_print
                0x00000000401f90c0                X509_ocspid_print
                0x00000000401f9248                X509_signature_print
                0x00000000401f934a                ASN1_STRING_print
                0x00000000401f9403                ASN1_GENERALIZEDTIME_print
                0x00000000401f96b8                ASN1_UTCTIME_print
                0x00000000401f9824                ASN1_TIME_print
                0x00000000401f985d                X509_print_ex
                0x00000000401f9da1                X509_print
                0x00000000401f9db6                X509_NAME_print
                0x00000000401f9eac                X509_CERT_AUX_print
                0x00000000401fa44c                UI_free
                0x00000000401fa48b                UI_add_input_string
                0x00000000401fa4bc                UI_dup_input_string
                0x00000000401fa564                UI_add_verify_string
                0x00000000401fa595                UI_dup_verify_string
                0x00000000401fa63d                UI_add_input_boolean
                0x00000000401fa667                UI_dup_input_boolean
                0x00000000401fa80f                UI_add_info_string
                0x00000000401fa84c                UI_dup_info_string
                0x00000000401fa8d3                UI_add_error_string
                0x00000000401fa910                UI_dup_error_string
                0x00000000401fa997                UI_construct_prompt
                0x00000000401faac7                UI_add_user_data
                0x00000000401faad5                UI_get0_user_data
                0x00000000401faadf                UI_process
                0x00000000401fac14                UI_ctrl
                0x00000000401faca1                UI_get_ex_new_index
                0x00000000401facc0                UI_set_ex_data
                0x00000000401faccf                UI_get_ex_data
                0x00000000401facde                UI_set_default_method
                0x00000000401faceb                UI_get_default_method
                0x00000000401fad0e                UI_new_method
                0x00000000401fad9d                UI_new
                0x00000000401fadad                UI_get_method
                0x00000000401fadb6                UI_set_method
                0x00000000401fadc2                UI_create_method
                0x00000000401fae1b                UI_destroy_method
                0x00000000401fae45                UI_method_set_opener
                0x00000000401fae60                UI_method_set_writer
                0x00000000401fae7b                UI_method_set_flusher
                0x00000000401fae96                UI_method_set_reader
                0x00000000401faeb1                UI_method_set_closer
                0x00000000401faecc                UI_method_set_prompt_constructor
                0x00000000401faee7                UI_method_get_opener
                0x00000000401faefd                UI_method_get_writer
                0x00000000401faf13                UI_method_get_flusher
                0x00000000401faf29                UI_method_get_reader
                0x00000000401faf3f                UI_method_get_closer
                0x00000000401faf55                UI_method_get_prompt_constructor
                0x00000000401faf6b                UI_get_string_type
                0x00000000401faf7d                UI_get_input_flags
                0x00000000401faf90                UI_get0_output_string
                0x00000000401fafa6                UI_get0_action_string
                0x00000000401fafcf                UI_get0_result_string
                0x00000000401faff4                UI_get0_result
                0x00000000401fb086                UI_get0_test_string
                0x00000000401fb0a6                UI_get_result_minsize
                0x00000000401fb0ca                UI_get_result_maxsize
                0x00000000401fb0ee                UI_set_result
                0x00000000401fb5e4                UI_OpenSSL
                0x00000000401fb5f0                d2i_AUTHORITY_KEYID
                0x00000000401fb600                i2d_AUTHORITY_KEYID
                0x00000000401fb610                AUTHORITY_KEYID_new
                0x00000000401fb620                AUTHORITY_KEYID_free
                0x00000000401fb8c3                POLICYINFO_free
                0x00000000401fb8d3                d2i_CERTIFICATEPOLICIES
                0x00000000401fb8e3                i2d_CERTIFICATEPOLICIES
                0x00000000401fb8f3                CERTIFICATEPOLICIES_new
                0x00000000401fb903                CERTIFICATEPOLICIES_free
                0x00000000401fb913                d2i_POLICYINFO
                0x00000000401fb923                i2d_POLICYINFO
                0x00000000401fb933                POLICYINFO_new
                0x00000000401fb943                d2i_POLICYQUALINFO
                0x00000000401fb953                i2d_POLICYQUALINFO
                0x00000000401fb963                POLICYQUALINFO_new
                0x00000000401fb973                POLICYQUALINFO_free
                0x00000000401fb983                d2i_USERNOTICE
                0x00000000401fb993                i2d_USERNOTICE
                0x00000000401fb9a3                USERNOTICE_new
                0x00000000401fb9b3                USERNOTICE_free
                0x00000000401fb9c3                d2i_NOTICEREF
                0x00000000401fb9d3                i2d_NOTICEREF
                0x00000000401fb9e3                NOTICEREF_new
                0x00000000401fc328                NOTICEREF_free
                0x00000000401fc338                X509_POLICY_NODE_print
                0x00000000401fc970                DIST_POINT_free
                0x00000000401fc980                d2i_DIST_POINT_NAME
                0x00000000401fc990                i2d_DIST_POINT_NAME
                0x00000000401fc9a0                DIST_POINT_NAME_new
                0x00000000401fcbba                DIST_POINT_NAME_free
                0x00000000401fcbca                d2i_DIST_POINT
                0x00000000401fcbda                i2d_DIST_POINT
                0x00000000401fcbea                DIST_POINT_new
                0x00000000401fce8d                d2i_CRL_DIST_POINTS
                0x00000000401fce9d                i2d_CRL_DIST_POINTS
                0x00000000401fcead                CRL_DIST_POINTS_new
                0x00000000401fcebd                CRL_DIST_POINTS_free
                0x00000000401fcecd                d2i_ISSUING_DIST_POINT
                0x00000000401fcedd                i2d_ISSUING_DIST_POINT
                0x00000000401fceed                ISSUING_DIST_POINT_new
                0x00000000401fcefd                ISSUING_DIST_POINT_free
                0x00000000401fd10a                DIST_POINT_set_dpname
                0x00000000401fd1f8                i2d_GENERAL_NAME
                0x00000000401fd208                d2i_GENERAL_NAME
                0x00000000401fd218                d2i_OTHERNAME
                0x00000000401fd228                i2d_OTHERNAME
                0x00000000401fd238                OTHERNAME_new
                0x00000000401fd248                OTHERNAME_free
                0x00000000401fd258                d2i_EDIPARTYNAME
                0x00000000401fd268                i2d_EDIPARTYNAME
                0x00000000401fd278                EDIPARTYNAME_new
                0x00000000401fd288                EDIPARTYNAME_free
                0x00000000401fd298                GENERAL_NAME_new
                0x00000000401fd2a8                GENERAL_NAME_free
                0x00000000401fd2b8                d2i_GENERAL_NAMES
                0x00000000401fd2c8                i2d_GENERAL_NAMES
                0x00000000401fd2d8                GENERAL_NAMES_new
                0x00000000401fd2e8                GENERAL_NAMES_free
                0x00000000401fd2f8                GENERAL_NAME_dup
                0x00000000401fd310                OTHERNAME_cmp
                0x00000000401fd35e                GENERAL_NAME_cmp
                0x00000000401fd3e6                GENERAL_NAME_set0_value
                0x00000000401fd41e                GENERAL_NAME_get0_value
                0x00000000401fd462                GENERAL_NAME_set0_othername
                0x00000000401fd4b8                GENERAL_NAME_get0_otherName
                0x00000000401fdb1e                GENERAL_SUBTREE_new
                0x00000000401fdb2e                GENERAL_SUBTREE_free
                0x00000000401fdb3e                NAME_CONSTRAINTS_new
                0x00000000401fdb4e                NAME_CONSTRAINTS_free
                0x00000000401fdcec                NAME_CONSTRAINTS_check
                0x00000000401fde1e                POLICY_CONSTRAINTS_new
                0x00000000401fde2e                POLICY_CONSTRAINTS_free
                0x00000000401fe033                POLICY_MAPPING_free
                0x00000000401fe043                POLICY_MAPPING_new
                0x00000000401fe2e7                X509V3_EXT_val_prn
                0x00000000401fe40e                X509V3_EXT_print
                0x00000000401fe5ea                X509V3_extensions_print
                0x00000000401feaf1                X509_PURPOSE_get_count
                0x00000000401feb10                X509_PURPOSE_get0
                0x00000000401feb46                X509_PURPOSE_get_by_sname
                0x00000000401feb86                X509_PURPOSE_get_by_id
                0x00000000401febc6                X509_PURPOSE_set
                0x00000000401fec20                X509_PURPOSE_add
                0x00000000401fede9                X509_PURPOSE_cleanup
                0x00000000401fee38                X509_PURPOSE_get_id
                0x00000000401fee40                X509_PURPOSE_get0_name
                0x00000000401fee4a                X509_PURPOSE_get0_sname
                0x00000000401fee54                X509_PURPOSE_get_trust
                0x00000000401fee5d                X509_supported_extension
                0x00000000401ff3ce                X509_check_purpose
                0x00000000401ff468                X509_check_ca
                0x00000000401ff4c3                X509_check_akid
                0x00000000401ff5a0                X509_check_issued
                0x00000000401ff780                X509V3_conf_free
                0x00000000401ff879                X509V3_add_value
                0x00000000401ff9aa                X509V3_add_value_uchar
                0x00000000401ff9b5                X509V3_add_value_bool
                0x00000000401ff9d5                X509V3_add_value_bool_nf
                0x00000000401ff9ee                i2s_ASN1_ENUMERATED
                0x00000000401ffa68                i2s_ASN1_INTEGER
                0x00000000401ffae2                s2i_ASN1_INTEGER
                0x00000000401ffc1f                X509V3_add_value_int
                0x00000000401ffc87                X509V3_get_value_bool
                0x00000000401ffdfe                X509V3_get_value_int
                0x00000000401ffe6f                X509V3_parse_list
                0x00000000402000a2                hex_to_string
                0x0000000040200169                string_to_hex
                0x0000000040200326                name_cmp
                0x0000000040200385                X509_email_free
                0x00000000402004f1                X509_REQ_get1_email
                0x0000000040200567                X509_get1_email
                0x00000000402005c1                X509_get1_ocsp
                0x0000000040200660                a2i_ipadd
                0x00000000402007d1                a2i_IPADDRESS_NC
                0x00000000402008c1                a2i_IPADDRESS
                0x000000004020091d                X509V3_NAME_from_section
                0x0000000040200a10                X509at_get_attr_count
                0x0000000040200a1b                X509at_get_attr_by_OBJ
                0x0000000040200a89                X509at_get_attr_by_NID
                0x0000000040200ac8                X509at_get_attr
                0x0000000040200b13                X509at_delete_attr
                0x0000000040200b5e                X509at_add1_attr
                0x0000000040200c39                X509_ATTRIBUTE_set1_object
                0x0000000040200c82                X509_ATTRIBUTE_set1_data
                0x0000000040200e0a                X509_ATTRIBUTE_create_by_OBJ
                0x0000000040200ede                X509_ATTRIBUTE_create_by_txt
                0x0000000040200f96                X509at_add1_attr_by_txt
                0x0000000040200fec                X509_ATTRIBUTE_create_by_NID
                0x0000000040201086                X509at_add1_attr_by_NID
                0x00000000402010dc                X509at_add1_attr_by_OBJ
                0x0000000040201132                X509_ATTRIBUTE_count
                0x0000000040201154                X509_ATTRIBUTE_get0_object
                0x0000000040201169                X509_ATTRIBUTE_get0_type
                0x00000000402011c0                X509_ATTRIBUTE_get0_data
                0x0000000040201226                X509at_get0_data_by_OBJ
                0x00000000402012d4                X509_CRL_get_ext_count
                0x00000000402012e6                X509_CRL_get_ext_by_NID
                0x00000000402012f8                X509_CRL_get_ext_by_OBJ
                0x000000004020130a                X509_CRL_get_ext_by_critical
                0x000000004020131c                X509_CRL_get_ext
                0x000000004020132e                X509_CRL_delete_ext
                0x0000000040201340                X509_CRL_get_ext_d2i
                0x0000000040201352                X509_CRL_add1_ext_i2d
                0x0000000040201364                X509_CRL_add_ext
                0x000000004020137f                X509_get_ext_count
                0x0000000040201391                X509_get_ext_by_NID
                0x00000000402013a3                X509_get_ext_by_OBJ
                0x00000000402013b5                X509_get_ext_by_critical
                0x00000000402013c7                X509_get_ext
                0x00000000402013d9                X509_delete_ext
                0x00000000402013eb                X509_add_ext
                0x0000000040201406                X509_get_ext_d2i
                0x0000000040201418                X509_add1_ext_i2d
                0x000000004020142a                X509_REVOKED_get_ext_count
                0x0000000040201439                X509_REVOKED_get_ext_by_NID
                0x0000000040201448                X509_REVOKED_get_ext_by_OBJ
                0x0000000040201457                X509_REVOKED_get_ext_by_critical
                0x0000000040201466                X509_REVOKED_get_ext
                0x0000000040201475                X509_REVOKED_delete_ext
                0x0000000040201484                X509_REVOKED_add_ext
                0x000000004020149c                X509_REVOKED_get_ext_d2i
                0x00000000402014ab                X509_REVOKED_add1_ext_i2d
                0x000000004020162e                X509_LOOKUP_new
                0x000000004020169d                X509_LOOKUP_free
                0x00000000402016d1                X509_LOOKUP_init
                0x00000000402016f2                X509_LOOKUP_shutdown
                0x0000000040201713                X509_LOOKUP_ctrl
                0x000000004020173a                X509_LOOKUP_by_subject
                0x0000000040201761                X509_LOOKUP_by_issuer_serial
                0x0000000040201781                X509_LOOKUP_by_fingerprint
                0x00000000402017a1                X509_LOOKUP_by_alias
                0x00000000402017c1                X509_STORE_new
                0x00000000402018b9                X509_STORE_free
                0x0000000040201949                X509_STORE_add_lookup
                0x00000000402019d1                X509_OBJECT_up_ref_count
                0x0000000040201a2b                X509_OBJECT_free_contents
                0x0000000040201a53                X509_OBJECT_idx_by_subject
                0x0000000040201a63                X509_OBJECT_retrieve_by_subject
                0x0000000040201a8f                X509_STORE_get_by_subject
                0x0000000040201ba3                X509_STORE_get1_certs
                0x0000000040201d75                X509_STORE_get1_crls
                0x0000000040201f38                X509_OBJECT_retrieve_match
                0x000000004020200b                X509_STORE_add_crl
                0x000000004020211f                X509_STORE_add_cert
                0x0000000040202233                X509_STORE_CTX_get1_issuer
                0x00000000402023f9                X509_STORE_set_flags
                0x0000000040202408                X509_STORE_set_depth
                0x000000004020241c                X509_STORE_set_purpose
                0x000000004020242b                X509_STORE_set_trust
                0x000000004020243a                X509_STORE_set1_param
                0x0000000040202449                X509_STORE_set_verify_cb
                0x0000000040202460                X509_to_X509_REQ
                0x000000004020256c                X509_REQ_get_pubkey
                0x0000000040202594                X509_REQ_check_private_key
                0x00000000402026c9                X509_REQ_extension_nid
                0x0000000040202708                X509_REQ_get_extension_nids
                0x0000000040202715                X509_REQ_set_extension_nids
                0x0000000040202722                X509_REQ_add_extensions_nid
                0x0000000040202845                X509_REQ_add_extensions
                0x0000000040202855                X509_REQ_get_attr_count
                0x0000000040202867                X509_REQ_get_attr_by_NID
                0x0000000040202879                X509_REQ_get_attr_by_OBJ
                0x000000004020288b                X509_REQ_get_attr
                0x000000004020289d                X509_REQ_get_extensions
                0x000000004020299f                X509_REQ_delete_attr
                0x00000000402029b1                X509_REQ_add1_attr
                0x00000000402029cc                X509_REQ_add1_attr_by_OBJ
                0x00000000402029e7                X509_REQ_add1_attr_by_NID
                0x0000000040202a02                X509_REQ_add1_attr_by_txt
                0x0000000040202ba5                X509_TRUST_set_default
                0x0000000040202bb9                X509_TRUST_get_count
                0x0000000040202bd8                X509_TRUST_get0
                0x0000000040202c0c                X509_TRUST_get_by_id
                0x0000000040202c4c                X509_check_trust
                0x0000000040202caf                X509_TRUST_set
                0x0000000040202d09                X509_TRUST_add
                0x0000000040202eb5                X509_TRUST_cleanup
                0x0000000040202f01                X509_TRUST_get_flags
                0x0000000040202f0a                X509_TRUST_get0_name
                0x0000000040202f14                X509_TRUST_get_trust
                0x0000000040202f20                X509v3_get_ext_count
                0x0000000040202f35                X509v3_get_ext_by_OBJ
                0x0000000040202fa3                X509v3_get_ext_by_NID
                0x0000000040202fe2                X509v3_get_ext_by_critical
                0x0000000040203058                X509v3_get_ext
                0x00000000402030a3                X509v3_delete_ext
                0x00000000402030ee                X509v3_add_ext
                0x00000000402031f3                X509_EXTENSION_set_object
                0x000000004020323c                X509_EXTENSION_set_critical
                0x000000004020325b                X509_EXTENSION_set_data
                0x0000000040203285                X509_EXTENSION_create_by_OBJ
                0x000000004020335f                X509_EXTENSION_create_by_NID
                0x00000000402033eb                X509_EXTENSION_get_object
                0x0000000040203400                X509_EXTENSION_get_data
                0x0000000040203416                X509_EXTENSION_get_critical
                0x0000000040203430                X509_NAME_entry_count
                0x0000000040203448                X509_NAME_get_index_by_OBJ
                0x00000000402034bb                X509_NAME_get_index_by_NID
                0x00000000402034fa                X509_NAME_get_entry
                0x0000000040203548                X509_NAME_delete_entry
                0x0000000040203614                X509_NAME_add_entry
                0x0000000040203788                X509_NAME_ENTRY_set_object
                0x00000000402037f4                X509_NAME_ENTRY_set_data
                0x00000000402038d9                X509_NAME_ENTRY_create_by_OBJ
                0x000000004020398c                X509_NAME_ENTRY_create_by_NID
                0x0000000040203a22                X509_NAME_add_entry_by_NID
                0x0000000040203a89                X509_NAME_ENTRY_create_by_txt
                0x0000000040203b41                X509_NAME_add_entry_by_txt
                0x0000000040203ba8                X509_NAME_add_entry_by_OBJ
                0x0000000040203c0f                X509_NAME_ENTRY_get_object
                0x0000000040203c24                X509_NAME_ENTRY_get_data
                0x0000000040203c3a                X509_NAME_get_text_by_OBJ
                0x0000000040203cbc                X509_NAME_get_text_by_NID
                0x0000000040203d0c                X509_REQ_set_version
                0x0000000040203d28                X509_REQ_set_subject_name
                0x0000000040203d49                X509_REQ_set_pubkey
                0x0000000040203d6c                d2i_X509_VAL
                0x0000000040203d7c                i2d_X509_VAL
                0x0000000040203d8c                X509_VAL_new
                0x0000000040203d9c                X509_VAL_free
                0x0000000040203db0                CRYPTO_cbc128_encrypt
                0x0000000040203efb                CRYPTO_cbc128_decrypt
                0x0000000040204244                CRYPTO_cfb128_encrypt
                0x00000000402044f5                CRYPTO_cfb128_1_encrypt
                0x00000000402045bf                CRYPTO_cfb128_8_encrypt
                0x000000004020462c                CRYPTO_ofb128_encrypt
                0x0000000040204758                i2d_ASN1_BOOLEAN
                0x00000000402047d2                d2i_ASN1_BOOLEAN
                0x0000000040204b10                ASN1_mbstring_ncopy
                0x0000000040205015                ASN1_mbstring_copy
                0x0000000040205040                ASN1_PRINTABLE_type
                0x0000000040205101                ASN1_UNIVERSALSTRING_to_string
                0x00000000402051ef                ASN1_STRING_set_default_mask
                0x00000000402051fc                ASN1_STRING_get_default_mask
                0x0000000040205209                ASN1_STRING_set_default_mask_asc
                0x00000000402052cc                ASN1_STRING_TABLE_get
                0x0000000040205332                ASN1_STRING_set_by_NID
                0x00000000402053f1                ASN1_STRING_TABLE_add
                0x0000000040205526                ASN1_STRING_TABLE_cleanup
                0x0000000040205550                ASN1_seq_unpack
                0x00000000402055b5                ASN1_seq_pack
                0x00000000402056b3                ASN1_unpack_string
                0x0000000040205706                ASN1_pack_string
                0x0000000040205808                ASN1_item_pack
                0x0000000040205901                ASN1_item_unpack
                0x0000000040205958                BN_mod_exp2_mont
                0x00000000402061e4                BN_kronecker
                0x000000004020650a                BN_get0_nist_prime_192
                0x0000000040206515                BN_get0_nist_prime_224
                0x0000000040206520                BN_get0_nist_prime_256
                0x000000004020652b                BN_get0_nist_prime_384
                0x0000000040206536                BN_get0_nist_prime_521
                0x0000000040206541                BN_nist_mod_192
                0x00000000402067af                BN_nist_mod_224
                0x0000000040206af5                BN_nist_mod_256
                0x0000000040206f8d                BN_nist_mod_384
                0x000000004020752d                BN_nist_mod_521
                0x0000000040207710                BN_mod_sqrt
                0x00000000402080bb                CONF_modules_load
                0x000000004020853c                CONF_modules_finish
                0x00000000402085b6                CONF_modules_unload
                0x000000004020866c                CONF_module_add
                0x000000004020868e                CONF_modules_free
                0x00000000402086a3                CONF_imodule_get_name
                0x00000000402086ad                CONF_imodule_get_value
                0x00000000402086b7                CONF_imodule_get_usr_data
                0x00000000402086c1                CONF_imodule_set_usr_data
                0x00000000402086cb                CONF_imodule_get_module
                0x00000000402086d4                CONF_imodule_get_flags
                0x00000000402086de                CONF_imodule_set_flags
                0x00000000402086e8                CONF_module_get_usr_data
                0x00000000402086f2                CONF_module_set_usr_data
                0x00000000402086fc                CONF_get1_default_config_file
                0x0000000040208777                CONF_modules_load_file
                0x0000000040208851                CONF_parse_list
                0x0000000040208960                DSO_set_default_method
                0x000000004020896d                DSO_get_default_method
                0x000000004020897a                DSO_get_method
                0x0000000040208983                DSO_set_method
                0x000000004020898f                DSO_new_method
                0x0000000040208a82                DSO_new
                0x0000000040208a92                DSO_free
                0x0000000040208ba8                DSO_flags
                0x0000000040208bbb                DSO_up_ref
                0x0000000040208c0d                DSO_bind_var
                0x0000000040208cab                DSO_bind_func
                0x0000000040208d49                DSO_ctrl
                0x0000000040208de1                DSO_set_name_converter
                0x0000000040208e25                DSO_get_filename
                0x0000000040208e58                DSO_set_filename
                0x0000000040208f55                DSO_load
                0x0000000040209104                DSO_merge
                0x0000000040209167                DSO_convert_filename
                0x0000000040209277                DSO_get_loaded_filename
                0x00000000402092aa                DSO_pathbyaddr
                0x000000004020931e                DSO_global_lookup
                0x0000000040209378                DSO_METHOD_openssl
                0x0000000040209390                ec_GF2m_simple_is_at_infinity
                0x00000000402093a0                ec_GF2m_simple_points_make_affine
                0x0000000040209409                ec_GF2m_simple_field_div
                0x0000000040209424                ec_GF2m_simple_field_sqr
                0x000000004020943f                ec_GF2m_simple_field_mul
                0x000000004020945d                ec_GF2m_simple_point_copy
                0x00000000402094c2                ec_GF2m_simple_group_get_curve
                0x000000004020954a                ec_GF2m_simple_point_set_to_infinity
                0x000000004020956a                ec_GF2m_simple_make_affine
                0x000000004020967e                ec_GF2m_simple_cmp
                0x000000004020981b                ec_GF2m_simple_is_on_curve
                0x00000000402099b9                ec_GF2m_simple_invert
                0x0000000040209a23                ec_GF2m_simple_add
                0x0000000040209e3a                ec_GF2m_simple_dbl
                0x0000000040209e4b                ec_GF2m_simple_oct2point
                0x000000004020a20b                ec_GF2m_simple_group_get_degree
                0x000000004020a21d                ec_GF2m_simple_point2oct
                0x000000004020a5ce                ec_GF2m_simple_group_check_discriminant
                0x000000004020a6a5                ec_GF2m_simple_set_compressed_coordinates
                0x000000004020a939                ec_GF2m_simple_point_get_affine_coordinates
                0x000000004020aa2d                ec_GF2m_simple_point_set_affine_coordinates
                0x000000004020ab0d                ec_GF2m_simple_point_clear_finish
                0x000000004020ab42                ec_GF2m_simple_group_clear_finish
                0x000000004020abb2                ec_GF2m_simple_point_finish
                0x000000004020abe0                ec_GF2m_simple_group_finish
                0x000000004020ac14                ec_GF2m_simple_point_init
                0x000000004020ac47                ec_GF2m_simple_group_init
                0x000000004020ac80                ec_GF2m_simple_group_set_curve
                0x000000004020ae2e                ec_GF2m_simple_group_copy
                0x000000004020afcd                EC_GF2m_simple_method
                0x000000004020afd8                d2i_ECDSA_SIG
                0x000000004020afe8                i2d_ECDSA_SIG
                0x000000004020aff8                ECDSA_SIG_new
                0x000000004020b008                ECDSA_SIG_free
                0x000000004020b02e                ERR_print_errors_cb
                0x000000004020b11e                ERR_print_errors
                0x000000004020b134                PKCS12_item_pack_safebag
                0x000000004020b230                PKCS12_MAKE_KEYBAG
                0x000000004020b28f                PKCS12_MAKE_SHKEYBAG
                0x000000004020b380                PKCS12_pack_p7data
                0x000000004020b444                PKCS12_unpack_p7data
                0x000000004020b499                PKCS12_pack_p7encdata
                0x000000004020b63a                PKCS12_unpack_p7encdata
                0x000000004020b6a4                PKCS12_decrypt_skey
                0x000000004020b6b3                PKCS12_pack_authsafes
                0x000000004020b6da                PKCS12_unpack_authsafes
                0x000000004020b738                d2i_PKCS12
                0x000000004020b748                i2d_PKCS12
                0x000000004020b758                PKCS12_new
                0x000000004020b768                PKCS12_free
                0x000000004020b778                d2i_PKCS12_MAC_DATA
                0x000000004020b788                i2d_PKCS12_MAC_DATA
                0x000000004020b798                PKCS12_MAC_DATA_new
                0x000000004020b7a8                PKCS12_MAC_DATA_free
                0x000000004020b7b8                d2i_PKCS12_BAGS
                0x000000004020b7c8                i2d_PKCS12_BAGS
                0x000000004020b7d8                PKCS12_BAGS_new
                0x000000004020b7e8                PKCS12_BAGS_free
                0x000000004020b7f8                d2i_PKCS12_SAFEBAG
                0x000000004020b808                i2d_PKCS12_SAFEBAG
                0x000000004020b818                PKCS12_SAFEBAG_new
                0x000000004020b828                PKCS12_SAFEBAG_free
                0x000000004020b838                PKCS12_pbe_crypt
                0x000000004020b9b8                PKCS12_item_decrypt_d2i
                0x000000004020ba84                PKCS12_item_i2d_encrypt
                0x000000004020bbc0                PKCS8_encrypt
                0x000000004020bcf8                X509_policy_tree_level_count
                0x000000004020bd0b                X509_policy_tree_get0_level
                0x000000004020bd3a                X509_policy_tree_get0_policies
                0x000000004020bd50                X509_policy_tree_get0_user_policies
                0x000000004020bd72                X509_policy_level_node_count
                0x000000004020bda9                X509_policy_level_get0_node
                0x000000004020bdd4                X509_policy_node_get0_policy
                0x000000004020bded                X509_policy_node_get0_qualifiers
                0x000000004020be06                X509_policy_node_get0_parent
                0x000000004020be3b                policy_node_cmp_new
                0x000000004020be4b                tree_find_sk
                0x000000004020be87                level_find_node
                0x000000004020befb                policy_node_free
                0x000000004020bf06                level_add_node
                0x000000004020c002                policy_node_match
                0x000000004020c209                i2v_GENERAL_NAME
                0x000000004020c490                i2v_GENERAL_NAMES
                0x000000004020c4f4                GENERAL_NAME_print
                0x000000004020c698                a2i_GENERAL_NAME
                0x000000004020ca5c                v2i_GENERAL_NAME_ex
                0x000000004020cbc9                v2i_GENERAL_NAME
                0x000000004020cf14                v2i_GENERAL_NAMES
                0x000000004020d00d                d2i_BASIC_CONSTRAINTS
                0x000000004020d01d                i2d_BASIC_CONSTRAINTS
                0x000000004020d02d                BASIC_CONSTRAINTS_new
                0x000000004020d03d                BASIC_CONSTRAINTS_free
                0x000000004020d7d5                X509V3_EXT_nconf
                0x000000004020d8ac                X509V3_EXT_nconf_nid
                0x000000004020d93c                X509V3_EXT_i2d
                0x000000004020d9a6                X509V3_EXT_add_nconf_sk
                0x000000004020da4e                X509V3_EXT_add_nconf
                0x000000004020da6d                X509V3_EXT_CRL_add_nconf
                0x000000004020da8c                X509V3_EXT_REQ_add_nconf
                0x000000004020daeb                X509V3_get_string
                0x000000004020db36                X509V3_get_section
                0x000000004020db82                X509V3_string_free
                0x000000004020dba0                X509V3_section_free
                0x000000004020dbbe                X509V3_set_nconf
                0x000000004020dbd0                X509V3_set_ctx
                0x000000004020dbe9                X509V3_EXT_conf
                0x000000004020dc32                X509V3_EXT_conf_nid
                0x000000004020dc7b                X509V3_set_conf_lhash
                0x000000004020dc8d                X509V3_EXT_add_conf
                0x000000004020dcd6                X509V3_EXT_CRL_add_conf
                0x000000004020dd1f                X509V3_EXT_REQ_add_conf
                0x000000004020debf                ACCESS_DESCRIPTION_free
                0x000000004020decf                d2i_ACCESS_DESCRIPTION
                0x000000004020dedf                i2d_ACCESS_DESCRIPTION
                0x000000004020deef                ACCESS_DESCRIPTION_new
                0x000000004020e119                d2i_AUTHORITY_INFO_ACCESS
                0x000000004020e129                i2d_AUTHORITY_INFO_ACCESS
                0x000000004020e139                AUTHORITY_INFO_ACCESS_new
                0x000000004020e149                AUTHORITY_INFO_ACCESS_free
                0x000000004020e159                i2a_ACCESS_DESCRIPTION
                0x000000004020e19c                X509V3_EXT_add
                0x000000004020e230                X509V3_EXT_get_nid
                0x000000004020e2a8                X509V3_EXT_get
                0x000000004020e2c6                X509V3_EXT_add_list
                0x000000004020e304                X509V3_EXT_add_alias
                0x000000004020e3ff                X509V3_EXT_cleanup
                0x000000004020e421                X509V3_add_standard_extensions
                0x000000004020e42c                X509V3_EXT_d2i
                0x000000004020e487                X509V3_get_d2i
                0x000000004020e5af                X509V3_add1_i2d
                0x000000004020f570                d2i_PROXY_POLICY
                0x000000004020f580                i2d_PROXY_POLICY
                0x000000004020f590                PROXY_POLICY_new
                0x000000004020f5a0                PROXY_POLICY_free
                0x000000004020f5b0                d2i_PROXY_CERT_INFO_EXTENSION
                0x000000004020f5c0                i2d_PROXY_CERT_INFO_EXTENSION
                0x000000004020f5d0                PROXY_CERT_INFO_EXTENSION_new
                0x000000004020f5e0                PROXY_CERT_INFO_EXTENSION_free
                0x000000004020f681                d2i_PKEY_USAGE_PERIOD
                0x000000004020f691                i2d_PKEY_USAGE_PERIOD
                0x000000004020f6a1                PKEY_USAGE_PERIOD_new
                0x000000004020f6b1                PKEY_USAGE_PERIOD_free
                0x000000004020f6d0                i2s_ASN1_OCTET_STRING
                0x000000004020f6e5                s2i_ASN1_OCTET_STRING
                0x000000004020f997                d2i_SXNETID
                0x000000004020f9a7                i2d_SXNETID
                0x000000004020f9b7                SXNETID_new
                0x000000004020f9c7                SXNETID_free
                0x000000004020f9d7                d2i_SXNET
                0x000000004020f9e7                i2d_SXNET
                0x000000004020f9f7                SXNET_new
                0x000000004020fa07                SXNET_free
                0x000000004020fa17                SXNET_get_id_INTEGER
                0x000000004020fa76                SXNET_get_id_ulong
                0x000000004020fb07                SXNET_get_id_asc
                0x000000004020fb76                SXNET_add_id_INTEGER
                0x000000004020fd36                SXNET_add_id_ulong
                0x000000004020fdd4                SXNET_add_id_asc
                0x000000004020fea8                X509_get_default_private_dir
                0x000000004020feb3                X509_get_default_cert_area
                0x000000004020febe                X509_get_default_cert_dir
                0x000000004020fec9                X509_get_default_cert_file
                0x000000004020fed4                X509_get_default_cert_dir_env
                0x000000004020fedf                X509_get_default_cert_file_env
                0x000000004020ff31                i2d_ASN1_SET
                0x000000004021019a                d2i_ASN1_SET
                0x0000000040210a5f                ASN1_generate_v3
                0x0000000040211391                ASN1_generate_nconf
                0x000000004021159c                BN_GF2m_add
                0x000000004021167a                BN_GF2m_mod_arr
                0x0000000040211916                BN_GF2m_mod_sqr_arr
                0x0000000040211aba                BN_GF2m_mod_mul_arr
                0x0000000040211d20                BN_GF2m_mod_exp_arr
                0x0000000040211e57                BN_GF2m_mod_sqrt_arr
                0x0000000040211eff                BN_GF2m_mod_solve_quad_arr
                0x00000000402122c9                BN_GF2m_poly2arr
                0x0000000040212353                BN_GF2m_mod_solve_quad
                0x0000000040212420                BN_GF2m_mod_sqrt
                0x00000000402124ed                BN_GF2m_mod_exp
                0x00000000402125c2                BN_GF2m_mod_sqr
                0x000000004021268f                BN_GF2m_mod_mul
                0x0000000040212764                BN_GF2m_mod
                0x0000000040212829                BN_GF2m_mod_inv
                0x0000000040212a09                BN_GF2m_mod_div
                0x0000000040212aa6                BN_GF2m_arr2poly
                0x0000000040212b0b                BN_GF2m_mod_div_arr
                0x0000000040212b9f                BN_GF2m_mod_inv_arr
                0x0000000040212c30                CONF_set_nconf
                0x0000000040212c77                CONF_set_default_method
                0x0000000040212c89                CONF_load
                0x0000000040212cb3                NCONF_new
                0x0000000040212d00                NCONF_free
                0x0000000040212d11                NCONF_free_data
                0x0000000040212d22                CONF_free
                0x0000000040212d41                NCONF_load
                0x0000000040212d76                NCONF_load_bio
                0x0000000040212dab                CONF_load_bio
                0x0000000040212df5                NCONF_get_section
                0x0000000040212e52                CONF_get_section
                0x0000000040212e87                NCONF_get_string
                0x0000000040212f2e                CONF_get_string
                0x0000000040212f75                NCONF_get_number_e
                0x0000000040213010                CONF_get_number
                0x000000004021306e                NCONF_dump_bio
                0x00000000402130a3                CONF_dump_bio
                0x00000000402130d0                DSO_METHOD_null
                0x000000004021399a                ec_GF2m_simple_mul
                0x0000000040213bf5                ec_GF2m_precompute_mult
                0x0000000040213c00                ec_GF2m_have_precompute_mult
                0x0000000040213c0c                i2a_ASN1_INTEGER
                0x0000000040213d4d                a2i_ASN1_INTEGER
                0x0000000040214050                i2a_ASN1_STRING
                0x0000000040214161                a2i_ASN1_STRING
                0x0000000040214418                d2i_OCSP_SIGNATURE
                0x0000000040214428                i2d_OCSP_SIGNATURE
                0x0000000040214438                OCSP_SIGNATURE_new
                0x0000000040214448                OCSP_SIGNATURE_free
                0x0000000040214458                d2i_OCSP_CERTID
                0x0000000040214468                i2d_OCSP_CERTID
                0x0000000040214478                OCSP_CERTID_new
                0x0000000040214488                OCSP_CERTID_free
                0x0000000040214498                d2i_OCSP_ONEREQ
                0x00000000402144a8                i2d_OCSP_ONEREQ
                0x00000000402144b8                OCSP_ONEREQ_new
                0x00000000402144c8                OCSP_ONEREQ_free
                0x00000000402144d8                d2i_OCSP_REQINFO
                0x00000000402144e8                i2d_OCSP_REQINFO
                0x00000000402144f8                OCSP_REQINFO_new
                0x0000000040214508                OCSP_REQINFO_free
                0x0000000040214518                d2i_OCSP_REQUEST
                0x0000000040214528                i2d_OCSP_REQUEST
                0x0000000040214538                OCSP_REQUEST_new
                0x0000000040214548                OCSP_REQUEST_free
                0x0000000040214558                d2i_OCSP_RESPBYTES
                0x0000000040214568                i2d_OCSP_RESPBYTES
                0x0000000040214578                OCSP_RESPBYTES_new
                0x0000000040214588                OCSP_RESPBYTES_free
                0x0000000040214598                d2i_OCSP_RESPONSE
                0x00000000402145a8                i2d_OCSP_RESPONSE
                0x00000000402145b8                OCSP_RESPONSE_new
                0x00000000402145c8                OCSP_RESPONSE_free
                0x00000000402145d8                d2i_OCSP_RESPID
                0x00000000402145e8                i2d_OCSP_RESPID
                0x00000000402145f8                OCSP_RESPID_new
                0x0000000040214608                OCSP_RESPID_free
                0x0000000040214618                d2i_OCSP_REVOKEDINFO
                0x0000000040214628                i2d_OCSP_REVOKEDINFO
                0x0000000040214638                OCSP_REVOKEDINFO_new
                0x0000000040214648                OCSP_REVOKEDINFO_free
                0x0000000040214658                d2i_OCSP_CERTSTATUS
                0x0000000040214668                i2d_OCSP_CERTSTATUS
                0x0000000040214678                OCSP_CERTSTATUS_new
                0x0000000040214688                OCSP_CERTSTATUS_free
                0x0000000040214698                d2i_OCSP_SINGLERESP
                0x00000000402146a8                i2d_OCSP_SINGLERESP
                0x00000000402146b8                OCSP_SINGLERESP_new
                0x00000000402146c8                OCSP_SINGLERESP_free
                0x00000000402146d8                d2i_OCSP_RESPDATA
                0x00000000402146e8                i2d_OCSP_RESPDATA
                0x00000000402146f8                OCSP_RESPDATA_new
                0x0000000040214708                OCSP_RESPDATA_free
                0x0000000040214718                d2i_OCSP_BASICRESP
                0x0000000040214728                i2d_OCSP_BASICRESP
                0x0000000040214738                OCSP_BASICRESP_new
                0x0000000040214748                OCSP_BASICRESP_free
                0x0000000040214758                d2i_OCSP_CRLID
                0x0000000040214768                i2d_OCSP_CRLID
                0x0000000040214778                OCSP_CRLID_new
                0x0000000040214788                OCSP_CRLID_free
                0x0000000040214798                d2i_OCSP_SERVICELOC
                0x00000000402147a8                i2d_OCSP_SERVICELOC
                0x00000000402147b8                OCSP_SERVICELOC_new
                0x00000000402147c8                OCSP_SERVICELOC_free
                0x0000000040214b8c                v2i_ASN1_BIT_STRING
                0x0000000040214d0f                i2v_ASN1_BIT_STRING
                0x0000000040214d64                i2s_ASN1_ENUMERATED_TABLE
                0x0000000040214f30                d2i_EXTENDED_KEY_USAGE
                0x0000000040214f40                i2d_EXTENDED_KEY_USAGE
                0x0000000040214f50                EXTENDED_KEY_USAGE_new
                0x0000000040214f60                EXTENDED_KEY_USAGE_free
                0x00000000402151d8                _CONF_get_section
                0x000000004021520c                _CONF_get_section_values
                0x0000000040215227                _CONF_add_string
                0x00000000402152b2                _CONF_get_string
                0x0000000040215350                _CONF_new_data
                0x0000000040215392                _CONF_free_data
                0x00000000402153e3                _CONF_new_section
                0x0000000040216371                NCONF_default
                0x000000004021637c                NCONF_WIN32
                0x0000000040216387                codeend = .

.iplt           0x0000000040216390        0x0 load address 0x0000000000216390
 .iplt          0x0000000000000000        0x0 output.o

.rodata         0x00000000402163a0    0x34fcc load address 0x00000000002163a0
 .rodata        0x00000000402163a0    0x34fcc output.o
                0x0000000040224540                BN_version
                0x0000000040224960                DES_SPtrans
                0x0000000040225960                DH_version
                0x0000000040226e40                OSSL_DES_version
                0x0000000040226e80                OSSL_libdes_version
                0x0000000040226f60                EVP_version
                0x0000000040227020                IDEA_version
                0x0000000040227060                lh_version
                0x00000000402276a0                MD4_version
                0x00000000402276e0                MD5_version
                0x0000000040234260                PEM_version
                0x00000000402342c0                PKCS7_ATTR_VERIFY_it
                0x0000000040234300                PKCS7_ATTR_SIGN_it
                0x0000000040234340                PKCS7_DIGEST_it
                0x0000000040234380                PKCS7_ENCRYPT_it
                0x00000000402343c0                PKCS7_SIGN_ENVELOPE_it
                0x0000000040234400                PKCS7_ENC_CONTENT_it
                0x0000000040234440                PKCS7_RECIP_INFO_it
                0x0000000040234480                PKCS7_ENVELOPE_it
                0x00000000402344c0                PKCS7_ISSUER_AND_SERIAL_it
                0x0000000040234500                PKCS7_SIGNER_INFO_it
                0x0000000040234540                PKCS7_SIGNED_it
                0x0000000040234580                PKCS7_it
                0x0000000040235040                RC2_version
                0x0000000040235180                RC4_version
                0x00000000402351c0                RMD160_version
                0x0000000040235200                RSAPublicKey_it
                0x0000000040235240                RSAPrivateKey_it
                0x00000000402354e0                RSA_version
                0x00000000402366e0                SHA1_version
                0x0000000040236720                SHA256_version
                0x0000000040236860                SHA512_version
                0x0000000040236b20                SHA_version
                0x0000000040236b60                STACK_version
                0x0000000040236dc0                ASN1_SET_ANY_it
                0x0000000040236e00                ASN1_SEQUENCE_ANY_it
                0x0000000040236e40                ASN1_OCTET_STRING_NDEF_it
                0x0000000040236e80                ASN1_FBOOLEAN_it
                0x0000000040236ec0                ASN1_TBOOLEAN_it
                0x0000000040236f00                ASN1_BOOLEAN_it
                0x0000000040236f40                DIRECTORYSTRING_it
                0x0000000040236f80                DISPLAYTEXT_it
                0x0000000040236fc0                ASN1_PRINTABLE_it
                0x0000000040237000                ASN1_SEQUENCE_it
                0x0000000040237040                ASN1_ANY_it
                0x0000000040237080                ASN1_BMPSTRING_it
                0x00000000402370c0                ASN1_UNIVERSALSTRING_it
                0x0000000040237100                ASN1_VISIBLESTRING_it
                0x0000000040237140                ASN1_GENERALIZEDTIME_it
                0x0000000040237180                ASN1_UTCTIME_it
                0x00000000402371c0                ASN1_GENERALSTRING_it
                0x0000000040237200                ASN1_IA5STRING_it
                0x0000000040237240                ASN1_T61STRING_it
                0x0000000040237280                ASN1_PRINTABLESTRING_it
                0x00000000402372c0                ASN1_UTF8STRING_it
                0x0000000040237300                ASN1_OBJECT_it
                0x0000000040237340                ASN1_NULL_it
                0x0000000040237380                ASN1_OCTET_STRING_it
                0x00000000402373c0                ASN1_BIT_STRING_it
                0x0000000040237400                ASN1_ENUMERATED_it
                0x0000000040237440                ASN1_INTEGER_it
                0x0000000040237520                X509_version
                0x0000000040237680                X509_ALGORS_it
                0x00000000402376c0                X509_ALGOR_it
                0x00000000402377a0                X509_ATTRIBUTE_it
                0x00000000402377e0                X509_ATTRIBUTE_SET_it
                0x00000000402378e0                CBIGNUM_it
                0x0000000040237920                BIGNUM_it
                0x0000000040237960                X509_CRL_it
                0x00000000402379a0                X509_CRL_INFO_it
                0x00000000402379e0                X509_REVOKED_it
                0x0000000040237cc0                X509_EXTENSIONS_it
                0x0000000040237d00                X509_EXTENSION_it
                0x0000000040237e00                ZLONG_it
                0x0000000040237e40                LONG_it
                0x0000000040237e80                X509_NAME_it
                0x0000000040237ec0                x509_name_ff
                0x0000000040237f00                X509_NAME_INTERNAL_it
                0x0000000040237f40                X509_NAME_ENTRIES_it
                0x0000000040237f80                X509_NAME_ENTRY_it
                0x00000000402380a0                X509_PUBKEY_it
                0x0000000040238180                X509_REQ_it
                0x00000000402381c0                X509_REQ_INFO_it
                0x00000000402383a0                X509_SIG_it
                0x0000000040238440                NETSCAPE_SPKI_it
                0x0000000040238480                NETSCAPE_SPKAC_it
                0x00000000402385a0                X509_it
                0x00000000402385e0                X509_CINF_it
                0x00000000402388c0                X509_CERT_PAIR_it
                0x0000000040238900                X509_CERT_AUX_it
                0x0000000040238f00                rsa_pkey_meth
                0x0000000040238fe0                dh_pkey_meth
                0x00000000402390c0                dsa_pkey_meth
                0x00000000402391a0                ec_pkey_meth
                0x0000000040239280                hmac_pkey_meth
                0x00000000402393a0                rsa_asn1_meths
                0x0000000040239520                dh_asn1_meth
                0x00000000402395e0                dsa_asn1_meths
                0x0000000040239980                eckey_asn1_meth
                0x0000000040239a40                hmac_asn1_meth
                0x000000004023ab80                CMS_Receipt_it
                0x000000004023abc0                CMS_ReceiptRequest_it
                0x000000004023ac00                CMS_ReceiptsFrom_it
                0x000000004023ac40                CMS_Attributes_Verify_it
                0x000000004023ac80                CMS_Attributes_Sign_it
                0x000000004023acc0                CMS_ContentInfo_it
                0x000000004023ad00                CMS_CompressedData_it
                0x000000004023ad40                CMS_AuthenticatedData_it
                0x000000004023ad80                CMS_EncryptedData_it
                0x000000004023adc0                CMS_DigestedData_it
                0x000000004023ae00                CMS_EnvelopedData_it
                0x000000004023ae40                CMS_RecipientInfo_it
                0x000000004023ae80                CMS_OtherRecipientInfo_it
                0x000000004023aec0                CMS_PasswordRecipientInfo_it
                0x000000004023af00                CMS_KEKRecipientInfo_it
                0x000000004023af40                CMS_KEKIdentifier_it
                0x000000004023af80                CMS_KeyAgreeRecipientInfo_it
                0x000000004023afc0                CMS_OriginatorIdentifierOrKey_it
                0x000000004023b000                CMS_OriginatorPublicKey_it
                0x000000004023b040                CMS_RecipientEncryptedKey_it
                0x000000004023b080                CMS_KeyAgreeRecipientIdentifier_it
                0x000000004023b0c0                CMS_RecipientKeyIdentifier_it
                0x000000004023b100                CMS_OtherKeyAttribute_it
                0x000000004023b140                CMS_KeyTransRecipientInfo_it
                0x000000004023b180                CMS_EncryptedContentInfo_it
                0x000000004023b1c0                CMS_OriginatorInfo_it
                0x000000004023b200                CMS_SignedData_it
                0x000000004023b240                CMS_RevocationInfoChoice_it
                0x000000004023b280                CMS_OtherRevocationInfoFormat_it
                0x000000004023b2c0                CMS_SignerInfo_it
                0x000000004023b300                CMS_EncapsulatedContentInfo_it
                0x000000004023b340                CMS_SignerIdentifier_it
                0x000000004023b380                CMS_CertificateChoices_it
                0x000000004023b3c0                CMS_OtherCertificateFormat_it
                0x000000004023b400                CMS_IssuerAndSerialNumber_it
                0x000000004023cc40                ASN1_TIME_it
                0x000000004023ccc0                ASN1_version
                0x000000004023ce20                BF_version
                0x000000004023efc0                CAST_version
                0x000000004023f080                CAST_S_table7
                0x000000004023f480                CAST_S_table6
                0x000000004023f880                CAST_S_table5
                0x000000004023fc80                CAST_S_table4
                0x0000000040240080                CAST_S_table3
                0x0000000040240480                CAST_S_table2
                0x0000000040240880                CAST_S_table1
                0x0000000040240c80                CAST_S_table0
                0x00000000402412c0                DHparams_it
                0x00000000402413c0                DSAPublicKey_it
                0x0000000040241400                dsa_pub_internal_it
                0x0000000040241440                DSAparams_it
                0x0000000040241480                DSAPrivateKey_it
                0x00000000402414c0                DSA_SIG_it
                0x00000000402418e0                DSA_version
                0x0000000040241920                EC_PRIVATEKEY_it
                0x0000000040241960                ECPKPARAMETERS_it
                0x00000000402419a0                ECPARAMETERS_it
                0x00000000402419e0                X9_62_CURVE_it
                0x0000000040241a20                X9_62_FIELDID_it
                0x0000000040241a60                X9_62_CHARACTERISTIC_TWO_it
                0x0000000040241aa0                X9_62_PENTANOMIAL_it
                0x0000000040245a60                ECDH_version
                0x0000000040245e60                ECDSA_version
                0x0000000040246160                RAND_version
                0x00000000402461a0                NETSCAPE_CERT_SEQUENCE_it
                0x0000000040246280                PBEPARAM_it
                0x0000000040246320                PBKDF2PARAM_it
                0x0000000040246360                PBE2PARAM_it
                0x00000000402464a0                PKCS8_PRIV_KEY_INFO_it
                0x0000000040246660                AUTHORITY_KEYID_it
                0x0000000040246720                NOTICEREF_it
                0x0000000040246760                USERNOTICE_it
                0x00000000402467a0                POLICYQUALINFO_it
                0x00000000402467e0                POLICYINFO_it
                0x0000000040246820                CERTIFICATEPOLICIES_it
                0x0000000040246860                v3_cpols
                0x0000000040246b80                v3_idp
                0x0000000040246c00                ISSUING_DIST_POINT_it
                0x0000000040246c40                CRL_DIST_POINTS_it
                0x0000000040246c80                DIST_POINT_it
                0x0000000040246cc0                DIST_POINT_NAME_it
                0x0000000040246d00                v3_freshest_crl
                0x0000000040246d80                v3_crld
                0x0000000040247240                GENERAL_NAMES_it
                0x0000000040247280                GENERAL_NAME_it
                0x00000000402472c0                EDIPARTYNAME_it
                0x0000000040247300                OTHERNAME_it
                0x00000000402475c0                NAME_CONSTRAINTS_it
                0x0000000040247600                GENERAL_SUBTREE_it
                0x0000000040247640                v3_name_constraints
                0x00000000402477a0                POLICY_CONSTRAINTS_it
                0x00000000402477e0                v3_policy_constraints
                0x00000000402478c0                POLICY_MAPPINGS_it
                0x0000000040247900                POLICY_MAPPING_it
                0x0000000040247940                v3_policy_mappings
                0x0000000040247ac0                X509_VAL_it
                0x0000000040248560                ECDSA_SIG_it
                0x0000000040248600                PKCS12_AUTHSAFES_it
                0x0000000040248640                PKCS12_SAFEBAGS_it
                0x0000000040248680                PKCS12_SAFEBAG_it
                0x00000000402486c0                PKCS12_BAGS_it
                0x0000000040248700                PKCS12_MAC_DATA_it
                0x0000000040248740                PKCS12_it
                0x0000000040248d80                v3_alt
                0x0000000040248ec0                BASIC_CONSTRAINTS_it
                0x0000000040248f00                v3_bcons
                0x0000000040248fe0                AUTHORITY_INFO_ACCESS_it
                0x0000000040249020                ACCESS_DESCRIPTION_it
                0x0000000040249060                v3_sinfo
                0x00000000402490e0                v3_info
                0x0000000040249200                v3_ocsp_serviceloc
                0x0000000040249280                v3_ocsp_nocheck
                0x0000000040249300                v3_ocsp_nonce
                0x0000000040249380                v3_crl_hold
                0x0000000040249400                v3_crl_invdate
                0x0000000040249480                v3_ocsp_acutoff
                0x0000000040249500                v3_ocsp_crlid
                0x0000000040249580                v3_pci
                0x0000000040249600                PROXY_CERT_INFO_EXTENSION_it
                0x0000000040249640                PROXY_POLICY_it
                0x0000000040249740                PKEY_USAGE_PERIOD_it
                0x0000000040249780                v3_pkey_usage_period
                0x0000000040249860                v3_skey_id
                0x00000000402498e0                SXNET_it
                0x0000000040249920                SXNETID_it
                0x0000000040249960                v3_sxnet
                0x0000000040249f40                CONF_version
                0x0000000040249f80                OCSP_SERVICELOC_it
                0x0000000040249fc0                OCSP_CRLID_it
                0x000000004024a000                OCSP_BASICRESP_it
                0x000000004024a040                OCSP_RESPDATA_it
                0x000000004024a080                OCSP_SINGLERESP_it
                0x000000004024a0c0                OCSP_CERTSTATUS_it
                0x000000004024a100                OCSP_REVOKEDINFO_it
                0x000000004024a140                OCSP_RESPID_it
                0x000000004024a180                OCSP_RESPONSE_it
                0x000000004024a1c0                OCSP_RESPBYTES_it
                0x000000004024a200                OCSP_REQUEST_it
                0x000000004024a240                OCSP_REQINFO_it
                0x000000004024a280                OCSP_ONEREQ_it
                0x000000004024a2c0                OCSP_CERTID_it
                0x000000004024a300                OCSP_SIGNATURE_it
                0x000000004024ab00                v3_akey_id
                0x000000004024ab80                v3_key_usage
                0x000000004024ac00                v3_nscert
                0x000000004024ac80                v3_crl_reason
                0x000000004024ad00                EXTENDED_KEY_USAGE_it
                0x000000004024ad40                v3_ocsp_accresp
                0x000000004024adc0                v3_ext_ku
                0x000000004024ae80                v3_ns_ia5_list
                0x000000004024b1c0                v3_inhibit_anyp
                0x000000004024b240                v3_delta_crl
                0x000000004024b2c0                v3_crl_num
                0x000000004024b340                CONF_def_version

.rodata.str1.8  0x000000004024b370     0x9908 load address 0x000000000024b370
 .rodata.str1.8
                0x000000004024b370     0x9908 output.o
                                       0x9c2d (size before relaxing)

.rodata.str1.1  0x0000000040254c78    0x12c6b load address 0x0000000000254c78
 .rodata.str1.1
                0x0000000040254c78    0x12c6b output.o
                                      0x15082 (size before relaxing)

.eh_frame       0x00000000402678e8    0x371d0 load address 0x00000000002678e8
 .eh_frame      0x00000000402678e8    0x371d0 output.o

.eh_frame_hdr   0x000000004029eab8        0x8 load address 0x000000000029eab8
 .eh_frame_hdr  0x000000004029eab8        0x8 output.o

.note.gnu.build-id
                0x000000004029eac0      0x288 load address 0x000000000029eac0
 .note.gnu.build-id
                0x000000004029eac0      0x288 output.o

.rela.dyn       0x000000004029ed48        0x0 load address 0x000000000029ed48
 .rela.iplt     0x0000000000000000        0x0 output.o
 .rela.text     0x0000000000000000        0x0 output.o

.data           0x000000004029f000  0x9837000 load address 0x000000000029f000
                0x000000004029f000                data = .
 *(.data)
 .data          0x000000004029f000   0x9eaa3c output.o
                0x000000004029f020                config
                0x00000000402af190                use_pae
                0x00000000402af3b0                savemsr_index
                0x00000000402b0000                vmm_pml4
                0x00000000402b1000                vmm_pdp
                0x00000000402b2000                vmm_pd
                0x00000000402b3000                vmm_pd1
                0x00000000402b4000                vmm_pd2
                0x00000000402b5000                guest_int0x15_hook
                0x00000000402b501d                guest_int0x15_e801_fake_ax
                0x00000000402b5020                guest_int0x15_e801_fake_bx
                0x00000000402b5031                guest_int0x15_orig
                0x00000000402b5046                guest_int0x15_e820_data_minus0x18
                0x00000000402b504e                guest_int0x15_e820_end
                0x00000000402b5074                guest_int0x15_hook_end
                0x00000000402b6078                wakeup_entry_start
                0x00000000402b6081                wakeup_entry_addr
                0x00000000402b60a7                wakeup_entry_cr4
                0x00000000402b60b0                wakeup_entry_cr3
                0x00000000402b60b9                wakeup_entry_cr0
                0x00000000402b60c8                wakeup_entry_gdtr
                0x00000000402b60d2                wakeup_entry_end
                0x00000000402b60d4                ept_spinlock
                0x00000000402b6160                ata_bm_handler_table
                0x00000000402b61c0                ata_ctlblk_handler_table
                0x00000000402b61e0                ata_cmdblk_handler_table
                0x00000000402b6c70                usb_log_level
                0x00000000402b7600                hSessionCnt
                0x00000000402b7608                hObjectCnt
                0x00000000402b7e00                g_rgSCardT1Pci
                0x00000000402b7e10                g_rgSCardT0Pci
                0x00000000402b7e20                FI
                0x00000000402b7e60                DI
                0x00000000402bc480                default_pctx
                0x00000000402bf720                rand_ssleay_meth
                0x0000000040c89a40                . = ALIGN (0x8)
 *fill*         0x0000000040c89a3c        0x4 
                0x0000000040c89a40                __initfunc_start = .
 *(.initfunc)
 .initfunc      0x0000000040c89a40      0x640 output.o
                0x0000000040c89a40                __initfunc_acpi_init_paral
                0x0000000040c89a50                __initfunc_acpi_init_global
                0x0000000040c89a60                __initfunc_beep_init_msg
                0x0000000040c89a70                __initfunc_cache_init_pass
                0x0000000040c89a80                __initfunc_cache_init_vcpu
                0x0000000040c89a90                __initfunc_cache_init_pcpu
                0x0000000040c89aa0                __initfunc_callrealmode_panic
                0x0000000040c89ab0                __initfunc_callrealmode_init_global
                0x0000000040c89ac0                __initfunc_cpu_mmu_spt_init_pcpu
                0x0000000040c89ad0                __initfunc_cpu_mmu_spt_init_global
                0x0000000040c89ae0                __initfunc_cpuid_init
                0x0000000040c89af0                __initfunc_cpuid_pass_init
                0x0000000040c89b00                __initfunc_exint_pass_init
                0x0000000040c89b10                __initfunc_gmm_pass_init
                0x0000000040c89b20                __initfunc_install_int0x15_hook
                0x0000000040c89b30                __initfunc_idman_init
                0x0000000040c89b40                __initfunc_idman_init_global
                0x0000000040c89b50                __initfunc_int_wakeup
                0x0000000040c89b60                __initfunc_int_init_global
                0x0000000040c89b70                __initfunc_io_io_init
                0x0000000040c89b80                __initfunc_setiohooks
                0x0000000040c89b90                __initfunc_io_iopass_init
                0x0000000040c89ba0                __initfunc_keyboard_init_msg
                0x0000000040c89bb0                __initfunc_localapic_init
                0x0000000040c89bc0                __initfunc_get_shiftflags
                0x0000000040c89bd0                __initfunc_copy_minios
                0x0000000040c89be0                __initfunc_print_boot_msg
                0x0000000040c89bf0                __initfunc_debug_on_shift_key
                0x0000000040c89c00                __initfunc_create_pass_vm
                0x0000000040c89c10                __initfunc_virtualization_init_pcpu
                0x0000000040c89c20                __initfunc_unmap_user_area
                0x0000000040c89c30                __initfunc_mm_init_global
                0x0000000040c89c40                __initfunc_mmio_debug
                0x0000000040c89c50                __initfunc_mmio_init
                0x0000000040c89c60                __initfunc_msg_init_global
                0x0000000040c89c70                __initfunc_msr_init
                0x0000000040c89c80                __initfunc_msr_pass_init
                0x0000000040c89c90                __initfunc_nmi_pass_init_pcpu
                0x0000000040c89ca0                __initfunc_nmi_pass_init
                0x0000000040c89cb0                __initfunc_panic_init_pcpu
                0x0000000040c89cc0                __initfunc_panic_init_msg
                0x0000000040c89cd0                __initfunc_panic_init_global3
                0x0000000040c89ce0                __initfunc_panic_init_global
                0x0000000040c89cf0                __initfunc_printf_init_global
                0x0000000040c89d00                __initfunc_process_wakeup
                0x0000000040c89d10                __initfunc_process_init_ap
                0x0000000040c89d20                __initfunc_process_init_global
                0x0000000040c89d30                __initfunc_random_init_config0
                0x0000000040c89d40                __initfunc_random_init_global
                0x0000000040c89d50                __initfunc_reboot_init_msg
                0x0000000040c89d60                __initfunc_segment_init_global
                0x0000000040c89d70                __initfunc_serial_init_msg
                0x0000000040c89d80                __initfunc_sleep_init_msg
                0x0000000040c89d90                __initfunc_sleep_init_global
                0x0000000040c89da0                __initfunc_svm_panic
                0x0000000040c89db0                __initfunc_sx_init_pass_init
                0x0000000040c89dc0                __initfunc_thread_init_pcpu
                0x0000000040c89dd0                __initfunc_thread_init_global
                0x0000000040c89de0                __initfunc_time_init_msg
                0x0000000040c89df0                __initfunc_time_init_pcpu
                0x0000000040c89e00                __initfunc_time_init_global_status
                0x0000000040c89e10                __initfunc_time_init_global
                0x0000000040c89e20                __initfunc_timer_init_global
                0x0000000040c89e30                __initfunc_tty_init_msg
                0x0000000040c89e40                __initfunc_tty_init_global2
                0x0000000040c89e50                __initfunc_tty_init_global
                0x0000000040c89e60                __initfunc_vcpu_init_global
                0x0000000040c89e70                __initfunc_vga_init
                0x0000000040c89e80                __initfunc_vmmcall_init
                0x0000000040c89e90                __initfunc_vmmcall_boot_init
                0x0000000040c89ea0                __initfunc_vmmcall_dbgsh_init_pcpu
                0x0000000040c89eb0                __initfunc_vmmcall_dbgsh_init_global
                0x0000000040c89ec0                __initfunc_vmmcall_dbgsh_init
                0x0000000040c89ed0                __initfunc_vmmcall_iccard_init
                0x0000000040c89ee0                __initfunc_vmmcall_log_init
                0x0000000040c89ef0                __initfunc_vmmcall_status_init
                0x0000000040c89f00                __initfunc_vmmcall_status_init_global
                0x0000000040c89f10                __initfunc_vramwrite_init_bsp
                0x0000000040c89f20                __initfunc_vramwrite_init_msg
                0x0000000040c89f30                __initfunc_vt_register_status_callback
                0x0000000040c89f40                __initfunc_vt_panic
                0x0000000040c89f50                __initfunc_xsetbv_init
                0x0000000040c89f60                __initfunc_xsetbv_pass_init
                0x0000000040c89f70                __initfunc_core_init
                0x0000000040c89f80                __initfunc_ieee1394_init_boot
                0x0000000040c89f90                __initfunc_ieee1394_init
                0x0000000040c89fa0                __initfunc_iommu_setup
                0x0000000040c89fb0                __initfunc_pci_init
                0x0000000040c89fc0                __initfunc_debug_ata_init
                0x0000000040c89fd0                __initfunc_ata_init
                0x0000000040c89fe0                __initfunc_uhci_init
                0x0000000040c89ff0                __initfunc_ehci_init
                0x0000000040c8a000                __initfunc_pro100_init
                0x0000000040c8a010                __initfunc_suspend_pro1000
                0x0000000040c8a020                __initfunc_resume_pro1000
                0x0000000040c8a030                __initfunc_vpn_pro1000_init
                0x0000000040c8a040                __initfunc_storage_kernel_init
                0x0000000040c8a050                __initfunc_storage_io_initfunc
                0x0000000040c8a060                __initfunc_vpn_kernel_init
                0x0000000040c8a070                __initfunc_idman_kernel_init
                0x0000000040c8a080                __initfunc_end = .
                0x0000000040c8a080                __process_builtin = .
 *(.processes)
 .processes     0x0000000040c8a080      0x1a0 output.o
                0x0000000040c8a220                __process_builtin_end = .
                0x0000000040c8a220                bss = .
 *(.bss)
 .bss           0x0000000040c8a220   0x64a0a0 output.o
                0x0000000040c8da40                vmmsize
                0x0000000040c8da48                memorysize
                0x00000000411914e0                pcpu_default
                0x00000000411aed04                ps2_locked
                0x00000000411af1a8                protecting
                0x00000000411af1b0                syscallHandlerAddress
                0x00000000411af1b8                currentProtectedApplication
                0x00000000411af1c0                numberOfVMs
                0x00000000411af1c8                numberOfProtectedApplications
                0x00000000411af1d0                currentRunningApplication
                0x00000000411af1e0                syscall_metatata_table
                0x00000000411af200                handler_descriptor
                0x00000000411af408                drhd_list_head
                0x00000000411b0c40                pci_driver_list_head
                0x00000000411b0c48                pci_device_list_head
                0x00000000411b0df0                uhci_monitor_boost_hc
                0x00000000411b0e08                usb_hc_list_head
                0x00000000411b0e10                usb_busses_head
                0x00000000411b8708                rt
                0x00000000412d2130                hContext
                0x00000000412d2138                sessionTable
                0x00000000412d2140                slotTable
                0x00000000412d2148                slotFlag
                0x00000000412d2149                libInitFlag
                0x00000000412d2da0                OPENSSL_NONPIC_relocated
                0x00000000412d2da8                OPENSSL_ia32cap_P
                0x00000000412d39e8                cleanse_ctr
                0x00000000412d3a48                obj_cleanup_defer
                0x00000000412d3a68                _shadow_DES_check_key
                0x00000000412d3b68                app_pkey_methods
                0x00000000412d3bc0                chelp_inited
 *(COMMON)
 COMMON         0x00000000412d42c0  0x8801a24 output.o
                0x00000000412d42c0                protected_application_table
                0x00000000412d49f0                clflush_size
                0x00000000412d4a00                sReaderContext
                0x00000000412d4a60                sigx_app
                0x00000000412d4a68                d
                0x00000000412d4a70                c
                0x00000000412d4a78                a
                0x00000000412d4a80                b
                0x00000000412d4a88                num_dom
                0x00000000412d4aa0                mszReaders
                0x00000000412d4ea0                zero_page_pool
                0x00000000412d52a0                prohibit_iccard_init
                0x00000000412d52c0                memory_ownership_table
                0x0000000049ad52c0                curthread
                0x0000000049ad52c8                sig_app
                0x0000000049ad52e0                readerState
                0x0000000049ad5360                dom_io
                0x0000000049ad5b60                acpi_dsdt_system_state
                0x0000000049ad5b80                ehci_host
                0x0000000049ad5b88                num_of_processors
                0x0000000049ad5b8c                e801_fake_bx
                0x0000000049ad5b8e                iommu_detected
                0x0000000049ad5b90                dwReaders
                0x0000000049ad5ba0                readerTracker
                0x0000000049ad5ce0                handler_descriptor_lock
                0x0000000049ad5ce2                e801_fake_ax
                0x0000000049ad6000                . = ALIGN (0x1000)
 *fill*         0x0000000049ad5ce4      0x31c 

.igot.plt       0x0000000049ad6000        0x0 load address 0x0000000009ad6000
 .igot.plt      0x0000000000000000        0x0 output.o
                0x0000000049ad6000                . = ALIGN (0x1000)
                0x0000000049ad6000                PAGE_POOL_START = .
                0x0000000049ed6000                . = (PAGE_POOL_START + 0x400000)
                0x0000000049ed6000                end = .

/DISCARD/
 *(.gomi)
LOAD output.o
OUTPUT(bitvisor.elf elf64-x86-64)

.comment        0x0000000000000000       0x55
 .comment       0x0000000000000000       0x55 output.o
                                       0x5e74 (size before relaxing)

.note.GNU-stack
                0x0000000000000000        0x0
 .note.GNU-stack
                0x0000000000000000        0x0 output.o

.debug_aranges  0x0000000000000000     0x6a80
 .debug_aranges
                0x0000000000000000     0x6a80 output.o

.debug_info     0x0000000000000000   0x2c64dd
 .debug_info    0x0000000000000000   0x2c64dd output.o

.debug_abbrev   0x0000000000000000    0x49ab8
 .debug_abbrev  0x0000000000000000    0x49ab8 output.o

.debug_line     0x0000000000000000    0x4e780
 .debug_line    0x0000000000000000    0x4e780 output.o

.debug_str      0x0000000000000000    0x370d4
 .debug_str     0x0000000000000000    0x370d4 output.o
                                     0x13167f (size before relaxing)

.debug_loc      0x0000000000000000   0x244ac2
 .debug_loc     0x0000000000000000   0x244ac2 output.o

.debug_ranges   0x0000000000000000     0x63a0
 .debug_ranges  0x0000000000000000     0x63a0 output.o

Cross Reference Table

Symbol                                            File
ACCESS_DESCRIPTION_free                           output.o
ACCESS_DESCRIPTION_it                             output.o
ACCESS_DESCRIPTION_new                            output.o
AES_cbc_encrypt                                   output.o
AES_cfb128_encrypt                                output.o
AES_cfb1_encrypt                                  output.o
AES_cfb8_encrypt                                  output.o
AES_decrypt                                       output.o
AES_ecb_encrypt                                   output.o
AES_encrypt                                       output.o
AES_ofb128_encrypt                                output.o
AES_set_decrypt_key                               output.o
AES_set_encrypt_key                               output.o
AES_unwrap_key                                    output.o
AES_wrap_key                                      output.o
ASN1_ANY_it                                       output.o
ASN1_BIT_STRING_check                             output.o
ASN1_BIT_STRING_free                              output.o
ASN1_BIT_STRING_get_bit                           output.o
ASN1_BIT_STRING_it                                output.o
ASN1_BIT_STRING_new                               output.o
ASN1_BIT_STRING_set                               output.o
ASN1_BIT_STRING_set_bit                           output.o
ASN1_BMPSTRING_free                               output.o
ASN1_BMPSTRING_it                                 output.o
ASN1_BMPSTRING_new                                output.o
ASN1_BOOLEAN_it                                   output.o
ASN1_ENUMERATED_free                              output.o
ASN1_ENUMERATED_get                               output.o
ASN1_ENUMERATED_it                                output.o
ASN1_ENUMERATED_new                               output.o
ASN1_ENUMERATED_set                               output.o
ASN1_ENUMERATED_to_BN                             output.o
ASN1_FBOOLEAN_it                                  output.o
ASN1_GENERALIZEDTIME_adj                          output.o
ASN1_GENERALIZEDTIME_check                        output.o
ASN1_GENERALIZEDTIME_free                         output.o
ASN1_GENERALIZEDTIME_it                           output.o
ASN1_GENERALIZEDTIME_new                          output.o
ASN1_GENERALIZEDTIME_print                        output.o
ASN1_GENERALIZEDTIME_set                          output.o
ASN1_GENERALIZEDTIME_set_string                   output.o
ASN1_GENERALSTRING_free                           output.o
ASN1_GENERALSTRING_it                             output.o
ASN1_GENERALSTRING_new                            output.o
ASN1_IA5STRING_free                               output.o
ASN1_IA5STRING_it                                 output.o
ASN1_IA5STRING_new                                output.o
ASN1_INTEGER_cmp                                  output.o
ASN1_INTEGER_dup                                  output.o
ASN1_INTEGER_free                                 output.o
ASN1_INTEGER_get                                  output.o
ASN1_INTEGER_it                                   output.o
ASN1_INTEGER_new                                  output.o
ASN1_INTEGER_set                                  output.o
ASN1_INTEGER_to_BN                                output.o
ASN1_NULL_free                                    output.o
ASN1_NULL_it                                      output.o
ASN1_NULL_new                                     output.o
ASN1_OBJECT_create                                output.o
ASN1_OBJECT_free                                  output.o
ASN1_OBJECT_it                                    output.o
ASN1_OBJECT_new                                   output.o
ASN1_OCTET_STRING_NDEF_it                         output.o
ASN1_OCTET_STRING_cmp                             output.o
ASN1_OCTET_STRING_dup                             output.o
ASN1_OCTET_STRING_free                            output.o
ASN1_OCTET_STRING_it                              output.o
ASN1_OCTET_STRING_new                             output.o
ASN1_OCTET_STRING_set                             output.o
ASN1_PCTX_free                                    output.o
ASN1_PCTX_get_cert_flags                          output.o
ASN1_PCTX_get_flags                               output.o
ASN1_PCTX_get_nm_flags                            output.o
ASN1_PCTX_get_oid_flags                           output.o
ASN1_PCTX_get_str_flags                           output.o
ASN1_PCTX_new                                     output.o
ASN1_PCTX_set_cert_flags                          output.o
ASN1_PCTX_set_flags                               output.o
ASN1_PCTX_set_nm_flags                            output.o
ASN1_PCTX_set_oid_flags                           output.o
ASN1_PCTX_set_str_flags                           output.o
ASN1_PRINTABLESTRING_free                         output.o
ASN1_PRINTABLESTRING_it                           output.o
ASN1_PRINTABLESTRING_new                          output.o
ASN1_PRINTABLE_free                               output.o
ASN1_PRINTABLE_it                                 output.o
ASN1_PRINTABLE_new                                output.o
ASN1_PRINTABLE_type                               output.o
ASN1_SEQUENCE_ANY_it                              output.o
ASN1_SEQUENCE_it                                  output.o
ASN1_SET_ANY_it                                   output.o
ASN1_STRING_TABLE_add                             output.o
ASN1_STRING_TABLE_cleanup                         output.o
ASN1_STRING_TABLE_get                             output.o
ASN1_STRING_cmp                                   output.o
ASN1_STRING_copy                                  output.o
ASN1_STRING_data                                  output.o
ASN1_STRING_dup                                   output.o
ASN1_STRING_free                                  output.o
ASN1_STRING_get_default_mask                      output.o
ASN1_STRING_length                                output.o
ASN1_STRING_length_set                            output.o
ASN1_STRING_new                                   output.o
ASN1_STRING_print                                 output.o
ASN1_STRING_print_ex                              output.o
ASN1_STRING_set                                   output.o
ASN1_STRING_set0                                  output.o
ASN1_STRING_set_by_NID                            output.o
ASN1_STRING_set_default_mask                      output.o
ASN1_STRING_set_default_mask_asc                  output.o
ASN1_STRING_to_UTF8                               output.o
ASN1_STRING_type                                  output.o
ASN1_STRING_type_new                              output.o
ASN1_T61STRING_free                               output.o
ASN1_T61STRING_it                                 output.o
ASN1_T61STRING_new                                output.o
ASN1_TBOOLEAN_it                                  output.o
ASN1_TIME_adj                                     output.o
ASN1_TIME_check                                   output.o
ASN1_TIME_free                                    output.o
ASN1_TIME_it                                      output.o
ASN1_TIME_new                                     output.o
ASN1_TIME_print                                   output.o
ASN1_TIME_set                                     output.o
ASN1_TIME_set_string                              output.o
ASN1_TIME_to_generalizedtime                      output.o
ASN1_TYPE_cmp                                     output.o
ASN1_TYPE_free                                    output.o
ASN1_TYPE_get                                     output.o
ASN1_TYPE_get_int_octetstring                     output.o
ASN1_TYPE_get_octetstring                         output.o
ASN1_TYPE_new                                     output.o
ASN1_TYPE_set                                     output.o
ASN1_TYPE_set1                                    output.o
ASN1_TYPE_set_int_octetstring                     output.o
ASN1_TYPE_set_octetstring                         output.o
ASN1_UNIVERSALSTRING_free                         output.o
ASN1_UNIVERSALSTRING_it                           output.o
ASN1_UNIVERSALSTRING_new                          output.o
ASN1_UNIVERSALSTRING_to_string                    output.o
ASN1_UTCTIME_adj                                  output.o
ASN1_UTCTIME_check                                output.o
ASN1_UTCTIME_cmp_time_t                           output.o
ASN1_UTCTIME_free                                 output.o
ASN1_UTCTIME_it                                   output.o
ASN1_UTCTIME_new                                  output.o
ASN1_UTCTIME_print                                output.o
ASN1_UTCTIME_set                                  output.o
ASN1_UTCTIME_set_string                           output.o
ASN1_UTF8STRING_free                              output.o
ASN1_UTF8STRING_it                                output.o
ASN1_UTF8STRING_new                               output.o
ASN1_VISIBLESTRING_free                           output.o
ASN1_VISIBLESTRING_it                             output.o
ASN1_VISIBLESTRING_new                            output.o
ASN1_bn_print                                     output.o
ASN1_check_infinite_end                           output.o
ASN1_const_check_infinite_end                     output.o
ASN1_d2i_bio                                      output.o
ASN1_digest                                       output.o
ASN1_dup                                          output.o
ASN1_generate_nconf                               output.o
ASN1_generate_v3                                  output.o
ASN1_get_object                                   output.o
ASN1_i2d_bio                                      output.o
ASN1_item_d2i                                     output.o
ASN1_item_d2i_bio                                 output.o
ASN1_item_digest                                  output.o
ASN1_item_dup                                     output.o
ASN1_item_ex_d2i                                  output.o
ASN1_item_ex_free                                 output.o
ASN1_item_ex_i2d                                  output.o
ASN1_item_ex_new                                  output.o
ASN1_item_free                                    output.o
ASN1_item_i2d                                     output.o
ASN1_item_i2d_bio                                 output.o
ASN1_item_ndef_i2d                                output.o
ASN1_item_new                                     output.o
ASN1_item_pack                                    output.o
ASN1_item_print                                   output.o
ASN1_item_sign                                    output.o
ASN1_item_unpack                                  output.o
ASN1_item_verify                                  output.o
ASN1_mbstring_copy                                output.o
ASN1_mbstring_ncopy                               output.o
ASN1_object_size                                  output.o
ASN1_pack_string                                  output.o
ASN1_parse                                        output.o
ASN1_parse_dump                                   output.o
ASN1_primitive_free                               output.o
ASN1_primitive_new                                output.o
ASN1_put_eoc                                      output.o
ASN1_put_object                                   output.o
ASN1_seq_pack                                     output.o
ASN1_seq_unpack                                   output.o
ASN1_sign                                         output.o
ASN1_tag2bit                                      output.o
ASN1_tag2str                                      output.o
ASN1_template_d2i                                 output.o
ASN1_template_free                                output.o
ASN1_template_i2d                                 output.o
ASN1_template_new                                 output.o
ASN1_unpack_string                                output.o
ASN1_verify                                       output.o
ASN1_version                                      output.o
AUTHORITY_INFO_ACCESS_free                        output.o
AUTHORITY_INFO_ACCESS_it                          output.o
AUTHORITY_INFO_ACCESS_new                         output.o
AUTHORITY_KEYID_free                              output.o
AUTHORITY_KEYID_it                                output.o
AUTHORITY_KEYID_new                               output.o
AddCertDataByBuf                                  output.o
AddElem                                           output.o
AddIdPassDataByBuf                                output.o
AddObjTblByTlv                                    output.o
BASIC_CONSTRAINTS_free                            output.o
BASIC_CONSTRAINTS_it                              output.o
BASIC_CONSTRAINTS_new                             output.o
BF_cbc_encrypt                                    output.o
BF_cfb64_encrypt                                  output.o
BF_decrypt                                        output.o
BF_ecb_encrypt                                    output.o
BF_encrypt                                        output.o
BF_ofb64_encrypt                                  output.o
BF_options                                        output.o
BF_set_key                                        output.o
BF_version                                        output.o
BIGNUM_it                                         output.o
BIO_asn1_get_prefix                               output.o
BIO_asn1_get_suffix                               output.o
BIO_asn1_set_prefix                               output.o
BIO_asn1_set_suffix                               output.o
BIO_callback_ctrl                                 output.o
BIO_clear_flags                                   output.o
BIO_copy_next_retry                               output.o
BIO_ctrl                                          output.o
BIO_ctrl_pending                                  output.o
BIO_ctrl_wpending                                 output.o
BIO_dump                                          output.o
BIO_dump_cb                                       output.o
BIO_dump_indent                                   output.o
BIO_dump_indent_cb                                output.o
BIO_dup_chain                                     output.o
BIO_f_asn1                                        output.o
BIO_f_base64                                      output.o
BIO_f_buffer                                      output.o
BIO_f_cipher                                      output.o
BIO_f_md                                          output.o
BIO_find_type                                     output.o
BIO_free                                          output.o
BIO_free_all                                      output.o
BIO_get_callback                                  output.o
BIO_get_callback_arg                              output.o
BIO_get_ex_data                                   output.o
BIO_get_ex_new_index                              output.o
BIO_get_retry_BIO                                 output.o
BIO_get_retry_reason                              output.o
BIO_gets                                          output.o
BIO_indent                                        output.o
BIO_int_ctrl                                      output.o
BIO_method_name                                   output.o
BIO_method_type                                   output.o
BIO_new                                           output.o
BIO_new_CMS                                       output.o
BIO_new_NDEF                                      output.o
BIO_new_mem_buf                                   output.o
BIO_next                                          output.o
BIO_number_read                                   output.o
BIO_number_written                                output.o
BIO_pop                                           output.o
BIO_printf                                        output.o
BIO_ptr_ctrl                                      output.o
BIO_push                                          output.o
BIO_puts                                          output.o
BIO_read                                          output.o
BIO_s_mem                                         output.o
BIO_s_null                                        output.o
BIO_set                                           output.o
BIO_set_callback                                  output.o
BIO_set_callback_arg                              output.o
BIO_set_cipher                                    output.o
BIO_set_ex_data                                   output.o
BIO_set_flags                                     output.o
BIO_snprintf                                      output.o
BIO_test_flags                                    output.o
BIO_vfree                                         output.o
BIO_write                                         output.o
BN_BLINDING_convert                               output.o
BN_BLINDING_convert_ex                            output.o
BN_BLINDING_create_param                          output.o
BN_BLINDING_free                                  output.o
BN_BLINDING_get_flags                             output.o
BN_BLINDING_get_thread_id                         output.o
BN_BLINDING_invert                                output.o
BN_BLINDING_invert_ex                             output.o
BN_BLINDING_new                                   output.o
BN_BLINDING_set_flags                             output.o
BN_BLINDING_set_thread_id                         output.o
BN_BLINDING_thread_id                             output.o
BN_BLINDING_update                                output.o
BN_CTX_end                                        output.o
BN_CTX_free                                       output.o
BN_CTX_get                                        output.o
BN_CTX_init                                       output.o
BN_CTX_new                                        output.o
BN_CTX_start                                      output.o
BN_GENCB_call                                     output.o
BN_GF2m_add                                       output.o
BN_GF2m_arr2poly                                  output.o
BN_GF2m_mod                                       output.o
BN_GF2m_mod_arr                                   output.o
BN_GF2m_mod_div                                   output.o
BN_GF2m_mod_div_arr                               output.o
BN_GF2m_mod_exp                                   output.o
BN_GF2m_mod_exp_arr                               output.o
BN_GF2m_mod_inv                                   output.o
BN_GF2m_mod_inv_arr                               output.o
BN_GF2m_mod_mul                                   output.o
BN_GF2m_mod_mul_arr                               output.o
BN_GF2m_mod_solve_quad                            output.o
BN_GF2m_mod_solve_quad_arr                        output.o
BN_GF2m_mod_sqr                                   output.o
BN_GF2m_mod_sqr_arr                               output.o
BN_GF2m_mod_sqrt                                  output.o
BN_GF2m_mod_sqrt_arr                              output.o
BN_GF2m_poly2arr                                  output.o
BN_MONT_CTX_copy                                  output.o
BN_MONT_CTX_free                                  output.o
BN_MONT_CTX_init                                  output.o
BN_MONT_CTX_new                                   output.o
BN_MONT_CTX_set                                   output.o
BN_MONT_CTX_set_locked                            output.o
BN_RECP_CTX_free                                  output.o
BN_RECP_CTX_init                                  output.o
BN_RECP_CTX_new                                   output.o
BN_RECP_CTX_set                                   output.o
BN_add                                            output.o
BN_add_word                                       output.o
BN_asc2bn                                         output.o
BN_bin2bn                                         output.o
BN_bn2bin                                         output.o
BN_bn2dec                                         output.o
BN_bn2hex                                         output.o
BN_bntest_rand                                    output.o
BN_clear                                          output.o
BN_clear_bit                                      output.o
BN_clear_free                                     output.o
BN_cmp                                            output.o
BN_copy                                           output.o
BN_dec2bn                                         output.o
BN_div                                            output.o
BN_div_recp                                       output.o
BN_div_word                                       output.o
BN_dup                                            output.o
BN_exp                                            output.o
BN_free                                           output.o
BN_from_montgomery                                output.o
BN_gcd                                            output.o
BN_generate_prime_ex                              output.o
BN_get0_nist_prime_192                            output.o
BN_get0_nist_prime_224                            output.o
BN_get0_nist_prime_256                            output.o
BN_get0_nist_prime_384                            output.o
BN_get0_nist_prime_521                            output.o
BN_get_params                                     output.o
BN_get_word                                       output.o
BN_hex2bn                                         output.o
BN_init                                           output.o
BN_is_bit_set                                     output.o
BN_is_prime_ex                                    output.o
BN_is_prime_fasttest_ex                           output.o
BN_kronecker                                      output.o
BN_lshift                                         output.o
BN_lshift1                                        output.o
BN_mask_bits                                      output.o
BN_mod_add                                        output.o
BN_mod_add_quick                                  output.o
BN_mod_exp                                        output.o
BN_mod_exp2_mont                                  output.o
BN_mod_exp_mont                                   output.o
BN_mod_exp_mont_consttime                         output.o
BN_mod_exp_mont_word                              output.o
BN_mod_exp_recp                                   output.o
BN_mod_exp_simple                                 output.o
BN_mod_inverse                                    output.o
BN_mod_lshift                                     output.o
BN_mod_lshift1                                    output.o
BN_mod_lshift1_quick                              output.o
BN_mod_lshift_quick                               output.o
BN_mod_mul                                        output.o
BN_mod_mul_montgomery                             output.o
BN_mod_mul_reciprocal                             output.o
BN_mod_sqr                                        output.o
BN_mod_sqrt                                       output.o
BN_mod_sub                                        output.o
BN_mod_sub_quick                                  output.o
BN_mod_word                                       output.o
BN_mul                                            output.o
BN_mul_word                                       output.o
BN_new                                            output.o
BN_nist_mod_192                                   output.o
BN_nist_mod_224                                   output.o
BN_nist_mod_256                                   output.o
BN_nist_mod_384                                   output.o
BN_nist_mod_521                                   output.o
BN_nnmod                                          output.o
BN_num_bits                                       output.o
BN_num_bits_word                                  output.o
BN_options                                        output.o
BN_print                                          output.o
BN_pseudo_rand                                    output.o
BN_pseudo_rand_range                              output.o
BN_rand                                           output.o
BN_rand_range                                     output.o
BN_reciprocal                                     output.o
BN_rshift                                         output.o
BN_rshift1                                        output.o
BN_set_bit                                        output.o
BN_set_negative                                   output.o
BN_set_params                                     output.o
BN_set_word                                       output.o
BN_sqr                                            output.o
BN_sub                                            output.o
BN_sub_word                                       output.o
BN_swap                                           output.o
BN_to_ASN1_ENUMERATED                             output.o
BN_to_ASN1_INTEGER                                output.o
BN_uadd                                           output.o
BN_ucmp                                           output.o
BN_usub                                           output.o
BN_value_one                                      output.o
BN_version                                        output.o
BUF_MEM_free                                      output.o
BUF_MEM_grow                                      output.o
BUF_MEM_grow_clean                                output.o
BUF_MEM_new                                       output.o
BUF_memdup                                        output.o
BUF_reverse                                       output.o
BUF_strdup                                        output.o
BUF_strlcat                                       output.o
BUF_strlcpy                                       output.o
BUF_strndup                                       output.o
BlockSendCardT1                                   output.o
CAST_S_table0                                     output.o
CAST_S_table1                                     output.o
CAST_S_table2                                     output.o
CAST_S_table3                                     output.o
CAST_S_table4                                     output.o
CAST_S_table5                                     output.o
CAST_S_table6                                     output.o
CAST_S_table7                                     output.o
CAST_cbc_encrypt                                  output.o
CAST_cfb64_encrypt                                output.o
CAST_decrypt                                      output.o
CAST_ecb_encrypt                                  output.o
CAST_encrypt                                      output.o
CAST_ofb64_encrypt                                output.o
CAST_set_key                                      output.o
CAST_version                                      output.o
CBIGNUM_it                                        output.o
CERTIFICATEPOLICIES_free                          output.o
CERTIFICATEPOLICIES_it                            output.o
CERTIFICATEPOLICIES_new                           output.o
CMS_Attributes_Sign_it                            output.o
CMS_Attributes_Verify_it                          output.o
CMS_AuthenticatedData_it                          output.o
CMS_CertificateChoices_it                         output.o
CMS_CompressedData_it                             output.o
CMS_ContentInfo_free                              output.o
CMS_ContentInfo_it                                output.o
CMS_ContentInfo_new                               output.o
CMS_ContentInfo_print_ctx                         output.o
CMS_DigestedData_it                               output.o
CMS_EncapsulatedContentInfo_it                    output.o
CMS_EncryptedContentInfo_it                       output.o
CMS_EncryptedData_it                              output.o
CMS_EncryptedData_set1_key                        output.o
CMS_EnvelopedData_create                          output.o
CMS_EnvelopedData_it                              output.o
CMS_IssuerAndSerialNumber_it                      output.o
CMS_KEKIdentifier_it                              output.o
CMS_KEKRecipientInfo_it                           output.o
CMS_KeyAgreeRecipientIdentifier_it                output.o
CMS_KeyAgreeRecipientInfo_it                      output.o
CMS_KeyTransRecipientInfo_it                      output.o
CMS_OriginatorIdentifierOrKey_it                  output.o
CMS_OriginatorInfo_it                             output.o
CMS_OriginatorPublicKey_it                        output.o
CMS_OtherCertificateFormat_it                     output.o
CMS_OtherKeyAttribute_it                          output.o
CMS_OtherRecipientInfo_it                         output.o
CMS_OtherRevocationInfoFormat_it                  output.o
CMS_PasswordRecipientInfo_it                      output.o
CMS_ReceiptRequest_it                             output.o
CMS_Receipt_it                                    output.o
CMS_ReceiptsFrom_it                               output.o
CMS_RecipientEncryptedKey_it                      output.o
CMS_RecipientInfo_decrypt                         output.o
CMS_RecipientInfo_it                              output.o
CMS_RecipientInfo_kekri_get0_id                   output.o
CMS_RecipientInfo_kekri_id_cmp                    output.o
CMS_RecipientInfo_ktri_cert_cmp                   output.o
CMS_RecipientInfo_ktri_get0_algs                  output.o
CMS_RecipientInfo_ktri_get0_signer_id             output.o
CMS_RecipientInfo_set0_key                        output.o
CMS_RecipientInfo_set0_pkey                       output.o
CMS_RecipientInfo_type                            output.o
CMS_RecipientKeyIdentifier_it                     output.o
CMS_RevocationInfoChoice_it                       output.o
CMS_SignedData_init                               output.o
CMS_SignedData_it                                 output.o
CMS_SignerIdentifier_it                           output.o
CMS_SignerInfo_cert_cmp                           output.o
CMS_SignerInfo_get0_algs                          output.o
CMS_SignerInfo_get0_signer_id                     output.o
CMS_SignerInfo_it                                 output.o
CMS_SignerInfo_set1_signer_cert                   output.o
CMS_SignerInfo_sign                               output.o
CMS_SignerInfo_verify                             output.o
CMS_SignerInfo_verify_content                     output.o
CMS_add0_CertificateChoices                       output.o
CMS_add0_RevocationInfoChoice                     output.o
CMS_add0_cert                                     output.o
CMS_add0_crl                                      output.o
CMS_add0_recipient_key                            output.o
CMS_add1_cert                                     output.o
CMS_add1_crl                                      output.o
CMS_add1_recipient_cert                           output.o
CMS_add1_signer                                   output.o
CMS_add_simple_smimecap                           output.o
CMS_add_smimecap                                  output.o
CMS_add_standard_smimecap                         output.o
CMS_dataFinal                                     output.o
CMS_dataInit                                      output.o
CMS_get0_RecipientInfos                           output.o
CMS_get0_SignerInfos                              output.o
CMS_get0_content                                  output.o
CMS_get0_eContentType                             output.o
CMS_get0_signers                                  output.o
CMS_get0_type                                     output.o
CMS_get1_certs                                    output.o
CMS_get1_crls                                     output.o
CMS_is_detached                                   output.o
CMS_set1_eContentType                             output.o
CMS_set1_signers_certs                            output.o
CMS_set_detached                                  output.o
CMS_signed_add1_attr                              output.o
CMS_signed_add1_attr_by_NID                       output.o
CMS_signed_add1_attr_by_OBJ                       output.o
CMS_signed_add1_attr_by_txt                       output.o
CMS_signed_delete_attr                            output.o
CMS_signed_get0_data_by_OBJ                       output.o
CMS_signed_get_attr                               output.o
CMS_signed_get_attr_by_NID                        output.o
CMS_signed_get_attr_by_OBJ                        output.o
CMS_signed_get_attr_count                         output.o
CMS_stream                                        output.o
CMS_unsigned_add1_attr                            output.o
CMS_unsigned_add1_attr_by_NID                     output.o
CMS_unsigned_add1_attr_by_OBJ                     output.o
CMS_unsigned_add1_attr_by_txt                     output.o
CMS_unsigned_delete_attr                          output.o
CMS_unsigned_get0_data_by_OBJ                     output.o
CMS_unsigned_get_attr                             output.o
CMS_unsigned_get_attr_by_NID                      output.o
CMS_unsigned_get_attr_by_OBJ                      output.o
CMS_unsigned_get_attr_count                       output.o
CONF_def_version                                  output.o
CONF_dump_bio                                     output.o
CONF_free                                         output.o
CONF_get1_default_config_file                     output.o
CONF_get_number                                   output.o
CONF_get_section                                  output.o
CONF_get_string                                   output.o
CONF_imodule_get_flags                            output.o
CONF_imodule_get_module                           output.o
CONF_imodule_get_name                             output.o
CONF_imodule_get_usr_data                         output.o
CONF_imodule_get_value                            output.o
CONF_imodule_set_flags                            output.o
CONF_imodule_set_usr_data                         output.o
CONF_load                                         output.o
CONF_load_bio                                     output.o
CONF_module_add                                   output.o
CONF_module_get_usr_data                          output.o
CONF_module_set_usr_data                          output.o
CONF_modules_finish                               output.o
CONF_modules_free                                 output.o
CONF_modules_load                                 output.o
CONF_modules_load_file                            output.o
CONF_modules_unload                               output.o
CONF_parse_list                                   output.o
CONF_set_default_method                           output.o
CONF_set_nconf                                    output.o
CONF_version                                      output.o
CRL_DIST_POINTS_free                              output.o
CRL_DIST_POINTS_it                                output.o
CRL_DIST_POINTS_new                               output.o
CRYPTO_THREADID_cmp                               output.o
CRYPTO_THREADID_cpy                               output.o
CRYPTO_THREADID_current                           output.o
CRYPTO_THREADID_get_callback                      output.o
CRYPTO_THREADID_hash                              output.o
CRYPTO_THREADID_set_callback                      output.o
CRYPTO_THREADID_set_numeric                       output.o
CRYPTO_THREADID_set_pointer                       output.o
CRYPTO_add_lock                                   output.o
CRYPTO_cbc128_decrypt                             output.o
CRYPTO_cbc128_encrypt                             output.o
CRYPTO_cfb128_1_encrypt                           output.o
CRYPTO_cfb128_8_encrypt                           output.o
CRYPTO_cfb128_encrypt                             output.o
CRYPTO_cleanup_all_ex_data                        output.o
CRYPTO_dbg_free                                   output.o
CRYPTO_dbg_get_options                            output.o
CRYPTO_dbg_malloc                                 output.o
CRYPTO_dbg_realloc                                output.o
CRYPTO_dbg_set_options                            output.o
CRYPTO_destroy_dynlockid                          output.o
CRYPTO_dup_ex_data                                output.o
CRYPTO_ex_data_new_class                          output.o
CRYPTO_free                                       output.o
CRYPTO_free_ex_data                               output.o
CRYPTO_free_locked                                output.o
CRYPTO_get_add_lock_callback                      output.o
CRYPTO_get_dynlock_create_callback                output.o
CRYPTO_get_dynlock_destroy_callback               output.o
CRYPTO_get_dynlock_lock_callback                  output.o
CRYPTO_get_dynlock_value                          output.o
CRYPTO_get_ex_data                                output.o
CRYPTO_get_ex_data_implementation                 output.o
CRYPTO_get_ex_new_index                           output.o
CRYPTO_get_id_callback                            output.o
CRYPTO_get_lock_name                              output.o
CRYPTO_get_locked_mem_ex_functions                output.o
CRYPTO_get_locked_mem_functions                   output.o
CRYPTO_get_locking_callback                       output.o
CRYPTO_get_mem_debug_functions                    output.o
CRYPTO_get_mem_debug_options                      output.o
CRYPTO_get_mem_ex_functions                       output.o
CRYPTO_get_mem_functions                          output.o
CRYPTO_get_new_dynlockid                          output.o
CRYPTO_get_new_lockid                             output.o
CRYPTO_is_mem_check_on                            output.o
CRYPTO_lock                                       output.o
CRYPTO_malloc                                     output.o
CRYPTO_malloc_locked                              output.o
CRYPTO_mem_ctrl                                   output.o
CRYPTO_mem_leaks                                  output.o
CRYPTO_mem_leaks_cb                               output.o
CRYPTO_new_ex_data                                output.o
CRYPTO_num_locks                                  output.o
CRYPTO_ofb128_encrypt                             output.o
CRYPTO_pop_info                                   output.o
CRYPTO_push_info_                                 output.o
CRYPTO_realloc                                    output.o
CRYPTO_realloc_clean                              output.o
CRYPTO_remalloc                                   output.o
CRYPTO_remove_all_info                            output.o
CRYPTO_set_add_lock_callback                      output.o
CRYPTO_set_dynlock_create_callback                output.o
CRYPTO_set_dynlock_destroy_callback               output.o
CRYPTO_set_dynlock_lock_callback                  output.o
CRYPTO_set_ex_data                                output.o
CRYPTO_set_ex_data_implementation                 output.o
CRYPTO_set_id_callback                            output.o
CRYPTO_set_locked_mem_ex_functions                output.o
CRYPTO_set_locked_mem_functions                   output.o
CRYPTO_set_locking_callback                       output.o
CRYPTO_set_mem_debug_functions                    output.o
CRYPTO_set_mem_debug_options                      output.o
CRYPTO_set_mem_ex_functions                       output.o
CRYPTO_set_mem_functions                          output.o
CRYPTO_strdup                                     output.o
CRYPTO_thread_id                                  output.o
C_CloseAllSessions                                output.o
C_CloseSession                                    output.o
C_CreateObject                                    output.o
C_DestroyObject                                   output.o
C_DigestFinal                                     output.o
C_DigestInit                                      output.o
C_DigestUpdate                                    output.o
C_Finalize                                        output.o
C_FindObjects                                     output.o
C_FindObjectsFinal                                output.o
C_FindObjectsInit                                 output.o
C_GetAttributeValue                               output.o
C_GetCardStatus                                   output.o
C_GetFunctionList                                 output.o
C_GetInfo                                         output.o
C_GetMechanismInfo                                output.o
C_GetMechanismList                                output.o
C_GetSessionInfo                                  output.o
C_GetSlotInfo                                     output.o
C_GetSlotList                                     output.o
C_GetTokenInfo                                    output.o
C_Initialize                                      output.o
C_Login                                           output.o
C_Logout                                          output.o
C_OpenSession                                     output.o
C_SetAttributeValue                               output.o
C_Sign                                            output.o
C_SignInit                                        output.o
C_Verify                                          output.o
C_VerifyInit                                      output.o
CardConnect                                       output.o
CardDisconnect                                    output.o
CardEstablishContext                              output.o
CardListReaders                                   output.o
CardMechanical                                    output.o
CardReleaseContext                                output.o
CardStateConfirm                                  output.o
CardStatus                                        output.o
CardTransmit                                      output.o
CloseUSB                                          output.o
DES_SPtrans                                       output.o
DES_cfb64_encrypt                                 output.o
DES_cfb_encrypt                                   output.o
DES_check_key_parity                              output.o
DES_decrypt3                                      output.o
DES_ecb3_encrypt                                  output.o
DES_ecb_encrypt                                   output.o
DES_ede3_cbc_encrypt                              output.o
DES_ede3_cfb64_encrypt                            output.o
DES_ede3_cfb_encrypt                              output.o
DES_ede3_ofb64_encrypt                            output.o
DES_encrypt1                                      output.o
DES_encrypt2                                      output.o
DES_encrypt3                                      output.o
DES_is_weak_key                                   output.o
DES_key_sched                                     output.o
DES_ncbc_encrypt                                  output.o
DES_ofb64_encrypt                                 output.o
DES_options                                       output.o
DES_random_key                                    output.o
DES_set_key                                       output.o
DES_set_key_checked                               output.o
DES_set_key_unchecked                             output.o
DES_set_odd_parity                                output.o
DES_xcbc_encrypt                                  output.o
DH_OpenSSL                                        output.o
DH_check                                          output.o
DH_check_pub_key                                  output.o
DH_compute_key                                    output.o
DH_free                                           output.o
DH_generate_key                                   output.o
DH_generate_parameters_ex                         output.o
DH_get_default_method                             output.o
DH_get_ex_data                                    output.o
DH_get_ex_new_index                               output.o
DH_new                                            output.o
DH_new_method                                     output.o
DH_set_default_method                             output.o
DH_set_ex_data                                    output.o
DH_set_method                                     output.o
DH_size                                           output.o
DH_up_ref                                         output.o
DH_version                                        output.o
DHparams_dup                                      output.o
DHparams_it                                       output.o
DHparams_print                                    output.o
DI                                                output.o
DIRECTORYSTRING_free                              output.o
DIRECTORYSTRING_it                                output.o
DIRECTORYSTRING_new                               output.o
DISPLAYTEXT_free                                  output.o
DISPLAYTEXT_it                                    output.o
DISPLAYTEXT_new                                   output.o
DIST_POINT_NAME_free                              output.o
DIST_POINT_NAME_it                                output.o
DIST_POINT_NAME_new                               output.o
DIST_POINT_free                                   output.o
DIST_POINT_it                                     output.o
DIST_POINT_new                                    output.o
DIST_POINT_set_dpname                             output.o
DSAPrivateKey_it                                  output.o
DSAPublicKey_it                                   output.o
DSA_OpenSSL                                       output.o
DSA_SIG_free                                      output.o
DSA_SIG_it                                        output.o
DSA_SIG_new                                       output.o
DSA_do_sign                                       output.o
DSA_do_verify                                     output.o
DSA_dup_DH                                        output.o
DSA_free                                          output.o
DSA_generate_key                                  output.o
DSA_generate_parameters_ex                        output.o
DSA_get_default_method                            output.o
DSA_get_ex_data                                   output.o
DSA_get_ex_new_index                              output.o
DSA_new                                           output.o
DSA_new_method                                    output.o
DSA_set_default_method                            output.o
DSA_set_ex_data                                   output.o
DSA_set_method                                    output.o
DSA_sign                                          output.o
DSA_sign_setup                                    output.o
DSA_size                                          output.o
DSA_up_ref                                        output.o
DSA_verify                                        output.o
DSA_version                                       output.o
DSAparams_dup                                     output.o
DSAparams_it                                      output.o
DSO_METHOD_null                                   output.o
DSO_METHOD_openssl                                output.o
DSO_bind_func                                     output.o
DSO_bind_var                                      output.o
DSO_convert_filename                              output.o
DSO_ctrl                                          output.o
DSO_flags                                         output.o
DSO_free                                          output.o
DSO_get_default_method                            output.o
DSO_get_filename                                  output.o
DSO_get_loaded_filename                           output.o
DSO_get_method                                    output.o
DSO_global_lookup                                 output.o
DSO_load                                          output.o
DSO_merge                                         output.o
DSO_new                                           output.o
DSO_new_method                                    output.o
DSO_pathbyaddr                                    output.o
DSO_set_default_method                            output.o
DSO_set_filename                                  output.o
DSO_set_method                                    output.o
DSO_set_name_converter                            output.o
DSO_up_ref                                        output.o
DelElem                                           output.o
DestroyAttribute                                  output.o
DestroyElem                                       output.o
DestroyList                                       output.o
DestroySessionData                                output.o
DestroySlotData                                   output.o
DestroyTlvData                                    output.o
DestroyTokenData                                  output.o
ECDH_OpenSSL                                      output.o
ECDH_compute_key                                  output.o
ECDH_get_default_method                           output.o
ECDH_get_ex_data                                  output.o
ECDH_get_ex_new_index                             output.o
ECDH_set_default_method                           output.o
ECDH_set_ex_data                                  output.o
ECDH_set_method                                   output.o
ECDH_version                                      output.o
ECDSA_OpenSSL                                     output.o
ECDSA_SIG_free                                    output.o
ECDSA_SIG_it                                      output.o
ECDSA_SIG_new                                     output.o
ECDSA_do_sign                                     output.o
ECDSA_do_sign_ex                                  output.o
ECDSA_do_verify                                   output.o
ECDSA_get_default_method                          output.o
ECDSA_get_ex_data                                 output.o
ECDSA_get_ex_new_index                            output.o
ECDSA_set_default_method                          output.o
ECDSA_set_ex_data                                 output.o
ECDSA_set_method                                  output.o
ECDSA_sign                                        output.o
ECDSA_sign_ex                                     output.o
ECDSA_sign_setup                                  output.o
ECDSA_size                                        output.o
ECDSA_verify                                      output.o
ECDSA_version                                     output.o
ECPARAMETERS_free                                 output.o
ECPARAMETERS_it                                   output.o
ECPARAMETERS_new                                  output.o
ECPKPARAMETERS_free                               output.o
ECPKPARAMETERS_it                                 output.o
ECPKPARAMETERS_new                                output.o
ECPKParameters_print                              output.o
ECParameters_print                                output.o
EC_EX_DATA_clear_free_all_data                    output.o
EC_EX_DATA_clear_free_data                        output.o
EC_EX_DATA_free_all_data                          output.o
EC_EX_DATA_free_data                              output.o
EC_EX_DATA_get_data                               output.o
EC_EX_DATA_set_data                               output.o
EC_GF2m_simple_method                             output.o
EC_GFp_mont_method                                output.o
EC_GFp_nist_method                                output.o
EC_GFp_simple_method                              output.o
EC_GROUP_check_discriminant                       output.o
EC_GROUP_clear_free                               output.o
EC_GROUP_cmp                                      output.o
EC_GROUP_copy                                     output.o
EC_GROUP_dup                                      output.o
EC_GROUP_free                                     output.o
EC_GROUP_get0_generator                           output.o
EC_GROUP_get0_seed                                output.o
EC_GROUP_get_asn1_flag                            output.o
EC_GROUP_get_basis_type                           output.o
EC_GROUP_get_cofactor                             output.o
EC_GROUP_get_curve_GF2m                           output.o
EC_GROUP_get_curve_GFp                            output.o
EC_GROUP_get_curve_name                           output.o
EC_GROUP_get_degree                               output.o
EC_GROUP_get_order                                output.o
EC_GROUP_get_pentanomial_basis                    output.o
EC_GROUP_get_point_conversion_form                output.o
EC_GROUP_get_seed_len                             output.o
EC_GROUP_get_trinomial_basis                      output.o
EC_GROUP_have_precompute_mult                     output.o
EC_GROUP_method_of                                output.o
EC_GROUP_new                                      output.o
EC_GROUP_new_by_curve_name                        output.o
EC_GROUP_new_curve_GF2m                           output.o
EC_GROUP_new_curve_GFp                            output.o
EC_GROUP_precompute_mult                          output.o
EC_GROUP_set_asn1_flag                            output.o
EC_GROUP_set_curve_GF2m                           output.o
EC_GROUP_set_curve_GFp                            output.o
EC_GROUP_set_curve_name                           output.o
EC_GROUP_set_generator                            output.o
EC_GROUP_set_point_conversion_form                output.o
EC_GROUP_set_seed                                 output.o
EC_KEY_check_key                                  output.o
EC_KEY_copy                                       output.o
EC_KEY_dup                                        output.o
EC_KEY_free                                       output.o
EC_KEY_generate_key                               output.o
EC_KEY_get0_group                                 output.o
EC_KEY_get0_private_key                           output.o
EC_KEY_get0_public_key                            output.o
EC_KEY_get_conv_form                              output.o
EC_KEY_get_enc_flags                              output.o
EC_KEY_get_key_method_data                        output.o
EC_KEY_insert_key_method_data                     output.o
EC_KEY_new                                        output.o
EC_KEY_new_by_curve_name                          output.o
EC_KEY_precompute_mult                            output.o
EC_KEY_print                                      output.o
EC_KEY_set_asn1_flag                              output.o
EC_KEY_set_conv_form                              output.o
EC_KEY_set_enc_flags                              output.o
EC_KEY_set_group                                  output.o
EC_KEY_set_private_key                            output.o
EC_KEY_set_public_key                             output.o
EC_KEY_up_ref                                     output.o
EC_METHOD_get_field_type                          output.o
EC_POINT_add                                      output.o
EC_POINT_bn2point                                 output.o
EC_POINT_clear_free                               output.o
EC_POINT_cmp                                      output.o
EC_POINT_copy                                     output.o
EC_POINT_dbl                                      output.o
EC_POINT_dup                                      output.o
EC_POINT_free                                     output.o
EC_POINT_get_Jprojective_coordinates_GFp          output.o
EC_POINT_get_affine_coordinates_GF2m              output.o
EC_POINT_get_affine_coordinates_GFp               output.o
EC_POINT_hex2point                                output.o
EC_POINT_invert                                   output.o
EC_POINT_is_at_infinity                           output.o
EC_POINT_is_on_curve                              output.o
EC_POINT_make_affine                              output.o
EC_POINT_method_of                                output.o
EC_POINT_mul                                      output.o
EC_POINT_new                                      output.o
EC_POINT_oct2point                                output.o
EC_POINT_point2bn                                 output.o
EC_POINT_point2hex                                output.o
EC_POINT_point2oct                                output.o
EC_POINT_set_Jprojective_coordinates_GFp          output.o
EC_POINT_set_affine_coordinates_GF2m              output.o
EC_POINT_set_affine_coordinates_GFp               output.o
EC_POINT_set_compressed_coordinates_GF2m          output.o
EC_POINT_set_compressed_coordinates_GFp           output.o
EC_POINT_set_to_infinity                          output.o
EC_POINTs_make_affine                             output.o
EC_POINTs_mul                                     output.o
EC_PRIVATEKEY_free                                output.o
EC_PRIVATEKEY_it                                  output.o
EC_PRIVATEKEY_new                                 output.o
EC_get_builtin_curves                             output.o
EDIPARTYNAME_free                                 output.o
EDIPARTYNAME_it                                   output.o
EDIPARTYNAME_new                                  output.o
EHDestroyEventHandler                             output.o
EHInitEventHandler                                output.o
EHStatusHandler                                   output.o
ERR_add_error_data                                output.o
ERR_clear_error                                   output.o
ERR_error_string                                  output.o
ERR_error_string_n                                output.o
ERR_free_strings                                  output.o
ERR_func_error_string                             output.o
ERR_get_err_state_table                           output.o
ERR_get_error                                     output.o
ERR_get_error_line                                output.o
ERR_get_error_line_data                           output.o
ERR_get_implementation                            output.o
ERR_get_next_error_library                        output.o
ERR_get_state                                     output.o
ERR_get_string_table                              output.o
ERR_lib_error_string                              output.o
ERR_load_ASN1_strings                             output.o
ERR_load_BIO_strings                              output.o
ERR_load_BN_strings                               output.o
ERR_load_BUF_strings                              output.o
ERR_load_CMS_strings                              output.o
ERR_load_COMP_strings                             output.o
ERR_load_CONF_strings                             output.o
ERR_load_CRYPTO_strings                           output.o
ERR_load_DH_strings                               output.o
ERR_load_DSA_strings                              output.o
ERR_load_DSO_strings                              output.o
ERR_load_ECDH_strings                             output.o
ERR_load_ECDSA_strings                            output.o
ERR_load_EC_strings                               output.o
ERR_load_ERR_strings                              output.o
ERR_load_EVP_strings                              output.o
ERR_load_OBJ_strings                              output.o
ERR_load_OCSP_strings                             output.o
ERR_load_PEM_strings                              output.o
ERR_load_PKCS12_strings                           output.o
ERR_load_PKCS7_strings                            output.o
ERR_load_RAND_strings                             output.o
ERR_load_RSA_strings                              output.o
ERR_load_TS_strings                               output.o
ERR_load_UI_strings                               output.o
ERR_load_X509V3_strings                           output.o
ERR_load_X509_strings                             output.o
ERR_load_crypto_strings                           output.o
ERR_load_strings                                  output.o
ERR_peek_error                                    output.o
ERR_peek_error_line                               output.o
ERR_peek_error_line_data                          output.o
ERR_peek_last_error                               output.o
ERR_peek_last_error_line                          output.o
ERR_peek_last_error_line_data                     output.o
ERR_pop_to_mark                                   output.o
ERR_print_errors                                  output.o
ERR_print_errors_cb                               output.o
ERR_put_error                                     output.o
ERR_reason_error_string                           output.o
ERR_release_err_state_table                       output.o
ERR_remove_state                                  output.o
ERR_remove_thread_state                           output.o
ERR_set_error_data                                output.o
ERR_set_implementation                            output.o
ERR_set_mark                                      output.o
ERR_unload_strings                                output.o
EVP_BytesToKey                                    output.o
EVP_CIPHER_CTX_block_size                         output.o
EVP_CIPHER_CTX_cipher                             output.o
EVP_CIPHER_CTX_cleanup                            output.o
EVP_CIPHER_CTX_clear_flags                        output.o
EVP_CIPHER_CTX_copy                               output.o
EVP_CIPHER_CTX_ctrl                               output.o
EVP_CIPHER_CTX_flags                              output.o
EVP_CIPHER_CTX_free                               output.o
EVP_CIPHER_CTX_get_app_data                       output.o
EVP_CIPHER_CTX_init                               output.o
EVP_CIPHER_CTX_iv_length                          output.o
EVP_CIPHER_CTX_key_length                         output.o
EVP_CIPHER_CTX_new                                output.o
EVP_CIPHER_CTX_nid                                output.o
EVP_CIPHER_CTX_rand_key                           output.o
EVP_CIPHER_CTX_set_app_data                       output.o
EVP_CIPHER_CTX_set_flags                          output.o
EVP_CIPHER_CTX_set_key_length                     output.o
EVP_CIPHER_CTX_set_padding                        output.o
EVP_CIPHER_CTX_test_flags                         output.o
EVP_CIPHER_asn1_to_param                          output.o
EVP_CIPHER_block_size                             output.o
EVP_CIPHER_do_all                                 output.o
EVP_CIPHER_do_all_sorted                          output.o
EVP_CIPHER_flags                                  output.o
EVP_CIPHER_get_asn1_iv                            output.o
EVP_CIPHER_iv_length                              output.o
EVP_CIPHER_key_length                             output.o
EVP_CIPHER_nid                                    output.o
EVP_CIPHER_param_to_asn1                          output.o
EVP_CIPHER_set_asn1_iv                            output.o
EVP_CIPHER_type                                   output.o
EVP_Cipher                                        output.o
EVP_CipherFinal                                   output.o
EVP_CipherFinal_ex                                output.o
EVP_CipherInit                                    output.o
EVP_CipherInit_ex                                 output.o
EVP_CipherUpdate                                  output.o
EVP_DecodeBlock                                   output.o
EVP_DecodeFinal                                   output.o
EVP_DecodeInit                                    output.o
EVP_DecodeUpdate                                  output.o
EVP_DecryptFinal                                  output.o
EVP_DecryptFinal_ex                               output.o
EVP_DecryptInit                                   output.o
EVP_DecryptInit_ex                                output.o
EVP_DecryptUpdate                                 output.o
EVP_Digest                                        output.o
EVP_DigestFinal                                   output.o
EVP_DigestFinal_ex                                output.o
EVP_DigestInit                                    output.o
EVP_DigestInit_ex                                 output.o
EVP_DigestSignFinal                               output.o
EVP_DigestSignInit                                output.o
EVP_DigestUpdate                                  output.o
EVP_DigestVerifyFinal                             output.o
EVP_DigestVerifyInit                              output.o
EVP_EncodeBlock                                   output.o
EVP_EncodeFinal                                   output.o
EVP_EncodeInit                                    output.o
EVP_EncodeUpdate                                  output.o
EVP_EncryptFinal                                  output.o
EVP_EncryptFinal_ex                               output.o
EVP_EncryptInit                                   output.o
EVP_EncryptInit_ex                                output.o
EVP_EncryptUpdate                                 output.o
EVP_MD_CTX_cleanup                                output.o
EVP_MD_CTX_clear_flags                            output.o
EVP_MD_CTX_copy                                   output.o
EVP_MD_CTX_copy_ex                                output.o
EVP_MD_CTX_create                                 output.o
EVP_MD_CTX_destroy                                output.o
EVP_MD_CTX_init                                   output.o
EVP_MD_CTX_md                                     output.o
EVP_MD_CTX_set_flags                              output.o
EVP_MD_CTX_test_flags                             output.o
EVP_MD_block_size                                 output.o
EVP_MD_do_all                                     output.o
EVP_MD_do_all_sorted                              output.o
EVP_MD_flags                                      output.o
EVP_MD_pkey_type                                  output.o
EVP_MD_size                                       output.o
EVP_MD_type                                       output.o
EVP_PBE_CipherInit                                output.o
EVP_PBE_alg_add                                   output.o
EVP_PBE_alg_add_type                              output.o
EVP_PBE_cleanup                                   output.o
EVP_PBE_find                                      output.o
EVP_PKCS82PKEY                                    output.o
EVP_PKEY2PKCS8                                    output.o
EVP_PKEY2PKCS8_broken                             output.o
EVP_PKEY_CTX_ctrl                                 output.o
EVP_PKEY_CTX_ctrl_str                             output.o
EVP_PKEY_CTX_dup                                  output.o
EVP_PKEY_CTX_free                                 output.o
EVP_PKEY_CTX_get0_peerkey                         output.o
EVP_PKEY_CTX_get0_pkey                            output.o
EVP_PKEY_CTX_get_app_data                         output.o
EVP_PKEY_CTX_get_cb                               output.o
EVP_PKEY_CTX_get_data                             output.o
EVP_PKEY_CTX_get_keygen_info                      output.o
EVP_PKEY_CTX_get_operation                        output.o
EVP_PKEY_CTX_new                                  output.o
EVP_PKEY_CTX_new_id                               output.o
EVP_PKEY_CTX_set0_keygen_info                     output.o
EVP_PKEY_CTX_set_app_data                         output.o
EVP_PKEY_CTX_set_cb                               output.o
EVP_PKEY_CTX_set_data                             output.o
EVP_PKEY_add1_attr                                output.o
EVP_PKEY_add1_attr_by_NID                         output.o
EVP_PKEY_add1_attr_by_OBJ                         output.o
EVP_PKEY_add1_attr_by_txt                         output.o
EVP_PKEY_asn1_add0                                output.o
EVP_PKEY_asn1_add_alias                           output.o
EVP_PKEY_asn1_copy                                output.o
EVP_PKEY_asn1_find                                output.o
EVP_PKEY_asn1_find_str                            output.o
EVP_PKEY_asn1_free                                output.o
EVP_PKEY_asn1_get0                                output.o
EVP_PKEY_asn1_get0_info                           output.o
EVP_PKEY_asn1_get_count                           output.o
EVP_PKEY_asn1_new                                 output.o
EVP_PKEY_asn1_set_ctrl                            output.o
EVP_PKEY_asn1_set_free                            output.o
EVP_PKEY_asn1_set_param                           output.o
EVP_PKEY_asn1_set_private                         output.o
EVP_PKEY_asn1_set_public                          output.o
EVP_PKEY_assign                                   output.o
EVP_PKEY_base_id                                  output.o
EVP_PKEY_bits                                     output.o
EVP_PKEY_cmp                                      output.o
EVP_PKEY_cmp_parameters                           output.o
EVP_PKEY_copy_parameters                          output.o
EVP_PKEY_decrypt                                  output.o
EVP_PKEY_decrypt_init                             output.o
EVP_PKEY_delete_attr                              output.o
EVP_PKEY_derive                                   output.o
EVP_PKEY_derive_init                              output.o
EVP_PKEY_derive_set_peer                          output.o
EVP_PKEY_encrypt                                  output.o
EVP_PKEY_encrypt_init                             output.o
EVP_PKEY_free                                     output.o
EVP_PKEY_get0                                     output.o
EVP_PKEY_get0_asn1                                output.o
EVP_PKEY_get1_DH                                  output.o
EVP_PKEY_get1_DSA                                 output.o
EVP_PKEY_get1_EC_KEY                              output.o
EVP_PKEY_get1_RSA                                 output.o
EVP_PKEY_get_attr                                 output.o
EVP_PKEY_get_attr_by_NID                          output.o
EVP_PKEY_get_attr_by_OBJ                          output.o
EVP_PKEY_get_attr_count                           output.o
EVP_PKEY_get_default_digest_nid                   output.o
EVP_PKEY_id                                       output.o
EVP_PKEY_keygen                                   output.o
EVP_PKEY_keygen_init                              output.o
EVP_PKEY_meth_add0                                output.o
EVP_PKEY_meth_find                                output.o
EVP_PKEY_meth_free                                output.o
EVP_PKEY_meth_new                                 output.o
EVP_PKEY_meth_set_cleanup                         output.o
EVP_PKEY_meth_set_copy                            output.o
EVP_PKEY_meth_set_ctrl                            output.o
EVP_PKEY_meth_set_decrypt                         output.o
EVP_PKEY_meth_set_derive                          output.o
EVP_PKEY_meth_set_encrypt                         output.o
EVP_PKEY_meth_set_init                            output.o
EVP_PKEY_meth_set_keygen                          output.o
EVP_PKEY_meth_set_paramgen                        output.o
EVP_PKEY_meth_set_sign                            output.o
EVP_PKEY_meth_set_signctx                         output.o
EVP_PKEY_meth_set_verify                          output.o
EVP_PKEY_meth_set_verify_recover                  output.o
EVP_PKEY_meth_set_verifyctx                       output.o
EVP_PKEY_missing_parameters                       output.o
EVP_PKEY_new                                      output.o
EVP_PKEY_new_mac_key                              output.o
EVP_PKEY_paramgen                                 output.o
EVP_PKEY_paramgen_init                            output.o
EVP_PKEY_print_params                             output.o
EVP_PKEY_print_private                            output.o
EVP_PKEY_print_public                             output.o
EVP_PKEY_save_parameters                          output.o
EVP_PKEY_set1_DH                                  output.o
EVP_PKEY_set1_DSA                                 output.o
EVP_PKEY_set1_EC_KEY                              output.o
EVP_PKEY_set1_RSA                                 output.o
EVP_PKEY_set_type                                 output.o
EVP_PKEY_set_type_str                             output.o
EVP_PKEY_sign                                     output.o
EVP_PKEY_sign_init                                output.o
EVP_PKEY_size                                     output.o
EVP_PKEY_type                                     output.o
EVP_PKEY_verify                                   output.o
EVP_PKEY_verify_init                              output.o
EVP_PKEY_verify_recover                           output.o
EVP_PKEY_verify_recover_init                      output.o
EVP_SignFinal                                     output.o
EVP_VerifyFinal                                   output.o
EVP_add_cipher                                    output.o
EVP_add_digest                                    output.o
EVP_aes_128_cbc                                   output.o
EVP_aes_128_cfb1                                  output.o
EVP_aes_128_cfb128                                output.o
EVP_aes_128_cfb8                                  output.o
EVP_aes_128_ecb                                   output.o
EVP_aes_128_ofb                                   output.o
EVP_aes_192_cbc                                   output.o
EVP_aes_192_cfb1                                  output.o
EVP_aes_192_cfb128                                output.o
EVP_aes_192_cfb8                                  output.o
EVP_aes_192_ecb                                   output.o
EVP_aes_192_ofb                                   output.o
EVP_aes_256_cbc                                   output.o
EVP_aes_256_cfb1                                  output.o
EVP_aes_256_cfb128                                output.o
EVP_aes_256_cfb8                                  output.o
EVP_aes_256_ecb                                   output.o
EVP_aes_256_ofb                                   output.o
EVP_bf_cbc                                        output.o
EVP_bf_cfb64                                      output.o
EVP_bf_ecb                                        output.o
EVP_bf_ofb                                        output.o
EVP_cast5_cbc                                     output.o
EVP_cast5_cfb64                                   output.o
EVP_cast5_ecb                                     output.o
EVP_cast5_ofb                                     output.o
EVP_cleanup                                       output.o
EVP_des_cbc                                       output.o
EVP_des_cfb1                                      output.o
EVP_des_cfb64                                     output.o
EVP_des_cfb8                                      output.o
EVP_des_ecb                                       output.o
EVP_des_ede                                       output.o
EVP_des_ede3                                      output.o
EVP_des_ede3_cbc                                  output.o
EVP_des_ede3_cfb1                                 output.o
EVP_des_ede3_cfb64                                output.o
EVP_des_ede3_cfb8                                 output.o
EVP_des_ede3_ecb                                  output.o
EVP_des_ede3_ofb                                  output.o
EVP_des_ede_cbc                                   output.o
EVP_des_ede_cfb64                                 output.o
EVP_des_ede_ecb                                   output.o
EVP_des_ede_ofb                                   output.o
EVP_des_ofb                                       output.o
EVP_desx_cbc                                      output.o
EVP_dss                                           output.o
EVP_dss1                                          output.o
EVP_ecdsa                                         output.o
EVP_get_cipherbyname                              output.o
EVP_get_digestbyname                              output.o
EVP_get_pw_prompt                                 output.o
EVP_idea_cbc                                      output.o
EVP_idea_cfb64                                    output.o
EVP_idea_ecb                                      output.o
EVP_idea_ofb                                      output.o
EVP_md4                                           output.o
EVP_md5                                           output.o
EVP_rc2_40_cbc                                    output.o
EVP_rc2_64_cbc                                    output.o
EVP_rc2_cbc                                       output.o
EVP_rc2_cfb64                                     output.o
EVP_rc2_ecb                                       output.o
EVP_rc2_ofb                                       output.o
EVP_rc4                                           output.o
EVP_rc4_40                                        output.o
EVP_read_pw_string                                output.o
EVP_read_pw_string_min                            output.o
EVP_ripemd160                                     output.o
EVP_set_pw_prompt                                 output.o
EVP_sha                                           output.o
EVP_sha1                                          output.o
EVP_sha224                                        output.o
EVP_sha256                                        output.o
EVP_sha384                                        output.o
EVP_sha512                                        output.o
EVP_version                                       output.o
EVP_whirlpool                                     output.o
EXTENDED_KEY_USAGE_free                           output.o
EXTENDED_KEY_USAGE_it                             output.o
EXTENDED_KEY_USAGE_new                            output.o
ExchangePPSData                                   output.o
FI                                                output.o
FindBaudRateTable                                 output.o
GENERAL_NAMES_free                                output.o
GENERAL_NAMES_it                                  output.o
GENERAL_NAMES_new                                 output.o
GENERAL_NAME_cmp                                  output.o
GENERAL_NAME_dup                                  output.o
GENERAL_NAME_free                                 output.o
GENERAL_NAME_get0_otherName                       output.o
GENERAL_NAME_get0_value                           output.o
GENERAL_NAME_it                                   output.o
GENERAL_NAME_new                                  output.o
GENERAL_NAME_print                                output.o
GENERAL_NAME_set0_othername                       output.o
GENERAL_NAME_set0_value                           output.o
GENERAL_SUBTREE_free                              output.o
GENERAL_SUBTREE_it                                output.o
GENERAL_SUBTREE_new                               output.o
GetAttrValType                                    output.o
GetBWICWIData                                     output.o
GetCardStatus                                     output.o
GetDirDataByTlv                                   output.o
GetElem                                           output.o
GetICCardData                                     output.o
GetIFSCData                                       output.o
GetLength                                         output.o
GetOdfDataByTlv                                   output.o
GetTlvByBuf                                       output.o
GetTokenDataByTlv                                 output.o
GetUlByByte                                       output.o
GetUlByTxt                                        output.o
GetValueData                                      output.o
GetVerByTex                                       output.o
HMAC                                              output.o
HMAC_CTX_cleanup                                  output.o
HMAC_CTX_copy                                     output.o
HMAC_CTX_init                                     output.o
HMAC_CTX_set_flags                                output.o
HMAC_Final                                        output.o
HMAC_Init                                         output.o
HMAC_Init_ex                                      output.o
HMAC_Update                                       output.o
HPSearchHotPluggables                             output.o
IDEA_version                                      output.o
IDMan_CheckCardStatus                             output.o
IDMan_CmCheckCRL                                  output.o
IDMan_CmChgRSA                                    output.o
IDMan_CmGetCertificateSign                        output.o
IDMan_CmGetDN                                     output.o
IDMan_CmGetPublicKey                              output.o
IDMan_CmMakeRand                                  output.o
IDMan_CmMkHash                                    output.o
IDMan_CmPadding                                   output.o
IDMan_CmPadding2                                  output.o
IDMan_EncryptByIndex                              output.o
IDMan_IPCheckCrlPkcX                              output.o
IDMan_IPCheckPKC                                  output.o
IDMan_IPCheckSignature                            output.o
IDMan_IPCrSignature                               output.o
IDMan_IPFinalize                                  output.o
IDMan_IPFinalizeReader                            output.o
IDMan_IPIdPassListMalloc                          output.o
IDMan_IPInitialize                                output.o
IDMan_IPInitializeReader                          output.o
IDMan_IPMkPublicKeyObj                            output.o
IDMan_IPMkRandHash                                output.o
IDMan_IPRetJudgment                               output.o
IDMan_IPSignatureVerify                           output.o
IDMan_IPgCIndexParamChk                           output.o
IDMan_IPgCParamChk                                output.o
IDMan_IPgIdxSParamChk                             output.o
IDMan_IPgSParamChk                                output.o
IDMan_IPgetCertIdxPKCS                            output.o
IDMan_IPgetCertPKCS                               output.o
IDMan_IPgetCertPkeyIdxPKCSx                       output.o
IDMan_IPgetCertPkeyPKCSx                          output.o
IDMan_IPgetCertPkeyPKCSy                          output.o
IDMan_IPgetHash                                   output.o
IDMan_IPgetMakeRandData                           output.o
IDMan_IPgetPrivateKey                             output.o
IDMan_IPgetPrivateKeyPKCSx                        output.o
IDMan_IPuAPKCS11IdxParamChk                       output.o
IDMan_IPuAPKCS11ParamChk                          output.o
IDMan_IPvSIdxParamChk                             output.o
IDMan_IPvSParamChk                                output.o
IDMan_PaddingParamChk                             output.o
IDMan_SCardConnect                                output.o
IDMan_SCardDisconnect                             output.o
IDMan_SCardEstablishContext                       output.o
IDMan_SCardListReaders                            output.o
IDMan_SCardReleaseContext                         output.o
IDMan_SCardSetBinay                               output.o
IDMan_SCardSizeLongToChar                         output.o
IDMan_SCardStatus                                 output.o
IDMan_SCardTransmit                               output.o
IDMan_StAtoi                                      output.o
IDMan_StAtol                                      output.o
IDMan_StFree                                      output.o
IDMan_StMalloc                                    output.o
IDMan_StMemcmp                                    output.o
IDMan_StMemcpy                                    output.o
IDMan_StMemset                                    output.o
IDMan_StReadSetData                               output.o
IDMan_StStrcat                                    output.o
IDMan_StStrchr                                    output.o
IDMan_StStrcmp                                    output.o
IDMan_StStrcpy                                    output.o
IDMan_StStrlen                                    output.o
IDMan_generateSignature                           output.o
IDMan_generateSignatureByIndex                    output.o
IDMan_getCertificate                              output.o
IDMan_getCertificateByIndex                       output.o
IDMan_getMemoryFree                               output.o
IDMan_getStaticPassword                           output.o
IDMan_userAuthPKCS11                              output.o
IDMan_userAuthPKCS11ByIndex                       output.o
IDMan_verifySignature                             output.o
IDMan_verifySignatureByIndex                      output.o
IFDHCloseChannel                                  output.o
IFDHControl                                       output.o
IFDHCreateChannel                                 output.o
IFDHGetCapabilities                               output.o
IFDHICCPresence                                   output.o
IFDHPowerICC                                      output.o
IFDHSetProtocolParameters                         output.o
IFDHTransmitToICC                                 output.o
ISSUING_DIST_POINT_free                           output.o
ISSUING_DIST_POINT_it                             output.o
ISSUING_DIST_POINT_new                            output.o
InitCryptoLibrary                                 output.o
InitLeaderCardProtocol                            output.o
InternalAuth                                      output.o
LONG_it                                           output.o
MD4_Final                                         output.o
MD4_Init                                          output.o
MD4_Transform                                     output.o
MD4_Update                                        output.o
MD4_version                                       output.o
MD5                                               output.o
MD5_Final                                         output.o
MD5_Init                                          output.o
MD5_Transform                                     output.o
MD5_Update                                        output.o
MD5_version                                       output.o
NAME_CONSTRAINTS_check                            output.o
NAME_CONSTRAINTS_free                             output.o
NAME_CONSTRAINTS_it                               output.o
NAME_CONSTRAINTS_new                              output.o
NCONF_WIN32                                       output.o
NCONF_default                                     output.o
NCONF_dump_bio                                    output.o
NCONF_free                                        output.o
NCONF_free_data                                   output.o
NCONF_get_number_e                                output.o
NCONF_get_section                                 output.o
NCONF_get_string                                  output.o
NCONF_load                                        output.o
NCONF_load_bio                                    output.o
NCONF_new                                         output.o
NETSCAPE_CERT_SEQUENCE_free                       output.o
NETSCAPE_CERT_SEQUENCE_it                         output.o
NETSCAPE_CERT_SEQUENCE_new                        output.o
NETSCAPE_SPKAC_free                               output.o
NETSCAPE_SPKAC_it                                 output.o
NETSCAPE_SPKAC_new                                output.o
NETSCAPE_SPKI_free                                output.o
NETSCAPE_SPKI_it                                  output.o
NETSCAPE_SPKI_new                                 output.o
NETSCAPE_SPKI_sign                                output.o
NETSCAPE_SPKI_verify                              output.o
NOTICEREF_free                                    output.o
NOTICEREF_it                                      output.o
NOTICEREF_new                                     output.o
OBJ_NAME_add                                      output.o
OBJ_NAME_cleanup                                  output.o
OBJ_NAME_do_all                                   output.o
OBJ_NAME_do_all_sorted                            output.o
OBJ_NAME_get                                      output.o
OBJ_NAME_init                                     output.o
OBJ_NAME_new_index                                output.o
OBJ_NAME_remove                                   output.o
OBJ_add_object                                    output.o
OBJ_add_sigid                                     output.o
OBJ_bsearch_                                      output.o
OBJ_bsearch_ex_                                   output.o
OBJ_cleanup                                       output.o
OBJ_cmp                                           output.o
OBJ_create                                        output.o
OBJ_create_objects                                output.o
OBJ_dup                                           output.o
OBJ_find_sigid_algs                               output.o
OBJ_find_sigid_by_algs                            output.o
OBJ_ln2nid                                        output.o
OBJ_new_nid                                       output.o
OBJ_nid2ln                                        output.o
OBJ_nid2obj                                       output.o
OBJ_nid2sn                                        output.o
OBJ_obj2nid                                       output.o
OBJ_obj2txt                                       output.o
OBJ_sigid_free                                    output.o
OBJ_sn2nid                                        output.o
OBJ_txt2nid                                       output.o
OBJ_txt2obj                                       output.o
OCSP_BASICRESP_free                               output.o
OCSP_BASICRESP_it                                 output.o
OCSP_BASICRESP_new                                output.o
OCSP_CERTID_free                                  output.o
OCSP_CERTID_it                                    output.o
OCSP_CERTID_new                                   output.o
OCSP_CERTSTATUS_free                              output.o
OCSP_CERTSTATUS_it                                output.o
OCSP_CERTSTATUS_new                               output.o
OCSP_CRLID_free                                   output.o
OCSP_CRLID_it                                     output.o
OCSP_CRLID_new                                    output.o
OCSP_ONEREQ_free                                  output.o
OCSP_ONEREQ_it                                    output.o
OCSP_ONEREQ_new                                   output.o
OCSP_REQINFO_free                                 output.o
OCSP_REQINFO_it                                   output.o
OCSP_REQINFO_new                                  output.o
OCSP_REQUEST_free                                 output.o
OCSP_REQUEST_it                                   output.o
OCSP_REQUEST_new                                  output.o
OCSP_RESPBYTES_free                               output.o
OCSP_RESPBYTES_it                                 output.o
OCSP_RESPBYTES_new                                output.o
OCSP_RESPDATA_free                                output.o
OCSP_RESPDATA_it                                  output.o
OCSP_RESPDATA_new                                 output.o
OCSP_RESPID_free                                  output.o
OCSP_RESPID_it                                    output.o
OCSP_RESPID_new                                   output.o
OCSP_RESPONSE_free                                output.o
OCSP_RESPONSE_it                                  output.o
OCSP_RESPONSE_new                                 output.o
OCSP_REVOKEDINFO_free                             output.o
OCSP_REVOKEDINFO_it                               output.o
OCSP_REVOKEDINFO_new                              output.o
OCSP_SERVICELOC_free                              output.o
OCSP_SERVICELOC_it                                output.o
OCSP_SERVICELOC_new                               output.o
OCSP_SIGNATURE_free                               output.o
OCSP_SIGNATURE_it                                 output.o
OCSP_SIGNATURE_new                                output.o
OCSP_SINGLERESP_free                              output.o
OCSP_SINGLERESP_it                                output.o
OCSP_SINGLERESP_new                               output.o
OPENSSL_NONPIC_relocated                          output.o
OPENSSL_asc2uni                                   output.o
OPENSSL_cleanse                                   output.o
OPENSSL_cpuid_setup                               output.o
OPENSSL_gmtime                                    output.o
OPENSSL_gmtime_adj                                output.o
OPENSSL_ia32cap_P                                 output.o
OPENSSL_ia32cap_loc                               output.o
OPENSSL_isservice                                 output.o
OPENSSL_showfatal                                 output.o
OPENSSL_stderr                                    output.o
OPENSSL_uni2asc                                   output.o
OSSL_DES_version                                  output.o
OSSL_libdes_version                               output.o
OTHERNAME_cmp                                     output.o
OTHERNAME_free                                    output.o
OTHERNAME_it                                      output.o
OTHERNAME_new                                     output.o
OpenSSLDie                                        output.o
OpenSSL_add_all_ciphers                           output.o
OpenSSL_add_all_digests                           output.o
OpenUSB                                           output.o
PAGE_POOL_START                                   output.o
PBE2PARAM_free                                    output.o
PBE2PARAM_it                                      output.o
PBE2PARAM_new                                     output.o
PBEPARAM_free                                     output.o
PBEPARAM_it                                       output.o
PBEPARAM_new                                      output.o
PBKDF2PARAM_free                                  output.o
PBKDF2PARAM_it                                    output.o
PBKDF2PARAM_new                                   output.o
PEM_ASN1_read_bio                                 output.o
PEM_ASN1_write_bio                                output.o
PEM_bytes_read_bio                                output.o
PEM_def_callback                                  output.o
PEM_dek_info                                      output.o
PEM_do_header                                     output.o
PEM_get_EVP_CIPHER_INFO                           output.o
PEM_proc_type                                     output.o
PEM_read_bio                                      output.o
PEM_read_bio_CMS                                  output.o
PEM_read_bio_DHparams                             output.o
PEM_read_bio_DSAPrivateKey                        output.o
PEM_read_bio_DSA_PUBKEY                           output.o
PEM_read_bio_DSAparams                            output.o
PEM_read_bio_ECPKParameters                       output.o
PEM_read_bio_ECPrivateKey                         output.o
PEM_read_bio_EC_PUBKEY                            output.o
PEM_read_bio_NETSCAPE_CERT_SEQUENCE               output.o
PEM_read_bio_PKCS7                                output.o
PEM_read_bio_PKCS8                                output.o
PEM_read_bio_PKCS8_PRIV_KEY_INFO                  output.o
PEM_read_bio_PUBKEY                               output.o
PEM_read_bio_Parameters                           output.o
PEM_read_bio_PrivateKey                           output.o
PEM_read_bio_RSAPrivateKey                        output.o
PEM_read_bio_RSAPublicKey                         output.o
PEM_read_bio_RSA_PUBKEY                           output.o
PEM_read_bio_X509                                 output.o
PEM_read_bio_X509_CRL                             output.o
PEM_read_bio_X509_REQ                             output.o
PEM_version                                       output.o
PEM_write_bio                                     output.o
PEM_write_bio_ASN1_stream                         output.o
PEM_write_bio_CMS                                 output.o
PEM_write_bio_CMS_stream                          output.o
PEM_write_bio_DHparams                            output.o
PEM_write_bio_DSAPrivateKey                       output.o
PEM_write_bio_DSA_PUBKEY                          output.o
PEM_write_bio_DSAparams                           output.o
PEM_write_bio_ECPKParameters                      output.o
PEM_write_bio_ECPrivateKey                        output.o
PEM_write_bio_EC_PUBKEY                           output.o
PEM_write_bio_NETSCAPE_CERT_SEQUENCE              output.o
PEM_write_bio_PKCS7                               output.o
PEM_write_bio_PKCS8                               output.o
PEM_write_bio_PKCS8PrivateKey                     output.o
PEM_write_bio_PKCS8PrivateKey_nid                 output.o
PEM_write_bio_PKCS8_PRIV_KEY_INFO                 output.o
PEM_write_bio_PUBKEY                              output.o
PEM_write_bio_Parameters                          output.o
PEM_write_bio_PrivateKey                          output.o
PEM_write_bio_RSAPrivateKey                       output.o
PEM_write_bio_RSAPublicKey                        output.o
PEM_write_bio_RSA_PUBKEY                          output.o
PEM_write_bio_X509                                output.o
PEM_write_bio_X509_CRL                            output.o
PEM_write_bio_X509_REQ                            output.o
PEM_write_bio_X509_REQ_NEW                        output.o
PHGetProtocol                                     output.o
PHSetProtocol                                     output.o
PKCS12_AUTHSAFES_it                               output.o
PKCS12_BAGS_free                                  output.o
PKCS12_BAGS_it                                    output.o
PKCS12_BAGS_new                                   output.o
PKCS12_MAC_DATA_free                              output.o
PKCS12_MAC_DATA_it                                output.o
PKCS12_MAC_DATA_new                               output.o
PKCS12_MAKE_KEYBAG                                output.o
PKCS12_MAKE_SHKEYBAG                              output.o
PKCS12_PBE_add                                    output.o
PKCS12_PBE_keyivgen                               output.o
PKCS12_SAFEBAGS_it                                output.o
PKCS12_SAFEBAG_free                               output.o
PKCS12_SAFEBAG_it                                 output.o
PKCS12_SAFEBAG_new                                output.o
PKCS12_certbag2x509                               output.o
PKCS12_certbag2x509crl                            output.o
PKCS12_decrypt_skey                               output.o
PKCS12_free                                       output.o
PKCS12_it                                         output.o
PKCS12_item_decrypt_d2i                           output.o
PKCS12_item_i2d_encrypt                           output.o
PKCS12_item_pack_safebag                          output.o
PKCS12_key_gen_asc                                output.o
PKCS12_key_gen_uni                                output.o
PKCS12_new                                        output.o
PKCS12_pack_authsafes                             output.o
PKCS12_pack_p7data                                output.o
PKCS12_pack_p7encdata                             output.o
PKCS12_pbe_crypt                                  output.o
PKCS12_unpack_authsafes                           output.o
PKCS12_unpack_p7data                              output.o
PKCS12_unpack_p7encdata                           output.o
PKCS12_x5092certbag                               output.o
PKCS12_x509crl2certbag                            output.o
PKCS1_MGF1                                        output.o
PKCS5_PBE_add                                     output.o
PKCS5_PBE_keyivgen                                output.o
PKCS5_PBKDF2_HMAC                                 output.o
PKCS5_PBKDF2_HMAC_SHA1                            output.o
PKCS5_pbe2_set                                    output.o
PKCS5_pbe2_set_iv                                 output.o
PKCS5_pbe_set                                     output.o
PKCS5_pbe_set0_algor                              output.o
PKCS5_v2_PBE_keyivgen                             output.o
PKCS7_ATTR_SIGN_it                                output.o
PKCS7_ATTR_VERIFY_it                              output.o
PKCS7_DIGEST_free                                 output.o
PKCS7_DIGEST_it                                   output.o
PKCS7_DIGEST_new                                  output.o
PKCS7_ENCRYPT_free                                output.o
PKCS7_ENCRYPT_it                                  output.o
PKCS7_ENCRYPT_new                                 output.o
PKCS7_ENC_CONTENT_free                            output.o
PKCS7_ENC_CONTENT_it                              output.o
PKCS7_ENC_CONTENT_new                             output.o
PKCS7_ENVELOPE_free                               output.o
PKCS7_ENVELOPE_it                                 output.o
PKCS7_ENVELOPE_new                                output.o
PKCS7_ISSUER_AND_SERIAL_digest                    output.o
PKCS7_ISSUER_AND_SERIAL_free                      output.o
PKCS7_ISSUER_AND_SERIAL_it                        output.o
PKCS7_ISSUER_AND_SERIAL_new                       output.o
PKCS7_RECIP_INFO_free                             output.o
PKCS7_RECIP_INFO_get0_alg                         output.o
PKCS7_RECIP_INFO_it                               output.o
PKCS7_RECIP_INFO_new                              output.o
PKCS7_RECIP_INFO_set                              output.o
PKCS7_SIGNED_free                                 output.o
PKCS7_SIGNED_it                                   output.o
PKCS7_SIGNED_new                                  output.o
PKCS7_SIGNER_INFO_free                            output.o
PKCS7_SIGNER_INFO_get0_algs                       output.o
PKCS7_SIGNER_INFO_it                              output.o
PKCS7_SIGNER_INFO_new                             output.o
PKCS7_SIGNER_INFO_set                             output.o
PKCS7_SIGNER_INFO_sign                            output.o
PKCS7_SIGN_ENVELOPE_free                          output.o
PKCS7_SIGN_ENVELOPE_it                            output.o
PKCS7_SIGN_ENVELOPE_new                           output.o
PKCS7_add0_attrib_signing_time                    output.o
PKCS7_add1_attrib_digest                          output.o
PKCS7_add_attrib_content_type                     output.o
PKCS7_add_attrib_smimecap                         output.o
PKCS7_add_attribute                               output.o
PKCS7_add_certificate                             output.o
PKCS7_add_crl                                     output.o
PKCS7_add_recipient                               output.o
PKCS7_add_recipient_info                          output.o
PKCS7_add_signature                               output.o
PKCS7_add_signed_attribute                        output.o
PKCS7_add_signer                                  output.o
PKCS7_cert_from_signer_info                       output.o
PKCS7_content_new                                 output.o
PKCS7_ctrl                                        output.o
PKCS7_dataDecode                                  output.o
PKCS7_dataFinal                                   output.o
PKCS7_dataInit                                    output.o
PKCS7_dataVerify                                  output.o
PKCS7_digest_from_attributes                      output.o
PKCS7_dup                                         output.o
PKCS7_free                                        output.o
PKCS7_get_attribute                               output.o
PKCS7_get_issuer_and_serial                       output.o
PKCS7_get_signed_attribute                        output.o
PKCS7_get_signer_info                             output.o
PKCS7_get_smimecap                                output.o
PKCS7_it                                          output.o
PKCS7_new                                         output.o
PKCS7_print_ctx                                   output.o
PKCS7_set0_type_other                             output.o
PKCS7_set_attributes                              output.o
PKCS7_set_cipher                                  output.o
PKCS7_set_content                                 output.o
PKCS7_set_digest                                  output.o
PKCS7_set_signed_attributes                       output.o
PKCS7_set_type                                    output.o
PKCS7_signatureVerify                             output.o
PKCS7_simple_smimecap                             output.o
PKCS7_stream                                      output.o
PKCS8_PRIV_KEY_INFO_free                          output.o
PKCS8_PRIV_KEY_INFO_it                            output.o
PKCS8_PRIV_KEY_INFO_new                           output.o
PKCS8_decrypt                                     output.o
PKCS8_encrypt                                     output.o
PKCS8_pkey_get0                                   output.o
PKCS8_pkey_set0                                   output.o
PKCS8_set_broken                                  output.o
PKEY_USAGE_PERIOD_free                            output.o
PKEY_USAGE_PERIOD_it                              output.o
PKEY_USAGE_PERIOD_new                             output.o
POLICYINFO_free                                   output.o
POLICYINFO_it                                     output.o
POLICYINFO_new                                    output.o
POLICYQUALINFO_free                               output.o
POLICYQUALINFO_it                                 output.o
POLICYQUALINFO_new                                output.o
POLICY_CONSTRAINTS_free                           output.o
POLICY_CONSTRAINTS_it                             output.o
POLICY_CONSTRAINTS_new                            output.o
POLICY_MAPPINGS_it                                output.o
POLICY_MAPPING_free                               output.o
POLICY_MAPPING_it                                 output.o
POLICY_MAPPING_new                                output.o
PROXY_CERT_INFO_EXTENSION_free                    output.o
PROXY_CERT_INFO_EXTENSION_it                      output.o
PROXY_CERT_INFO_EXTENSION_new                     output.o
PROXY_POLICY_free                                 output.o
PROXY_POLICY_it                                   output.o
PROXY_POLICY_new                                  output.o
PowerOff                                          output.o
PowerOn                                           output.o
RAND_SSLeay                                       output.o
RAND_add                                          output.o
RAND_bytes                                        output.o
RAND_cleanup                                      output.o
RAND_get_rand_method                              output.o
RAND_poll                                         output.o
RAND_pseudo_bytes                                 output.o
RAND_seed                                         output.o
RAND_set_rand_method                              output.o
RAND_status                                       output.o
RAND_version                                      output.o
RC2_cbc_encrypt                                   output.o
RC2_cfb64_encrypt                                 output.o
RC2_decrypt                                       output.o
RC2_ecb_encrypt                                   output.o
RC2_encrypt                                       output.o
RC2_ofb64_encrypt                                 output.o
RC2_set_key                                       output.o
RC2_version                                       output.o
RC4                                               output.o
RC4_options                                       output.o
RC4_set_key                                       output.o
RC4_version                                       output.o
RFAddReader                                       output.o
RFCheckReaderEventState                           output.o
RFReaderInfoById                                  output.o
RFRemoveReader                                    output.o
RIPEMD160_Final                                   output.o
RIPEMD160_Init                                    output.o
RIPEMD160_Transform                               output.o
RIPEMD160_Update                                  output.o
RMD160_version                                    output.o
RSAPrivateKey_dup                                 output.o
RSAPrivateKey_it                                  output.o
RSAPublicKey_dup                                  output.o
RSAPublicKey_it                                   output.o
RSA_PKCS1_SSLeay                                  output.o
RSA_X931_hash_id                                  output.o
RSA_blinding_off                                  output.o
RSA_blinding_on                                   output.o
RSA_flags                                         output.o
RSA_free                                          output.o
RSA_generate_key                                  output.o
RSA_generate_key_ex                               output.o
RSA_get_default_method                            output.o
RSA_get_ex_data                                   output.o
RSA_get_ex_new_index                              output.o
RSA_get_method                                    output.o
RSA_memory_lock                                   output.o
RSA_new                                           output.o
RSA_new_method                                    output.o
RSA_padding_add_PKCS1_OAEP                        output.o
RSA_padding_add_PKCS1_PSS                         output.o
RSA_padding_add_PKCS1_type_1                      output.o
RSA_padding_add_PKCS1_type_2                      output.o
RSA_padding_add_SSLv23                            output.o
RSA_padding_add_X931                              output.o
RSA_padding_add_none                              output.o
RSA_padding_check_PKCS1_OAEP                      output.o
RSA_padding_check_PKCS1_type_1                    output.o
RSA_padding_check_PKCS1_type_2                    output.o
RSA_padding_check_SSLv23                          output.o
RSA_padding_check_X931                            output.o
RSA_padding_check_none                            output.o
RSA_private_decrypt                               output.o
RSA_private_encrypt                               output.o
RSA_public_decrypt                                output.o
RSA_public_encrypt                                output.o
RSA_set_default_method                            output.o
RSA_set_ex_data                                   output.o
RSA_set_method                                    output.o
RSA_setup_blinding                                output.o
RSA_sign                                          output.o
RSA_size                                          output.o
RSA_up_ref                                        output.o
RSA_verify                                        output.o
RSA_verify_PKCS1_PSS                              output.o
RSA_version                                       output.o
ReadBinary                                        output.o
ReadDataT0                                        output.o
ReadUSB                                           output.o
ReceiveReply                                      output.o
SCardBeginTransaction                             output.o
SCardConnect                                      output.o
SCardDisconnect                                   output.o
SCardEndTransaction                               output.o
SCardEstablishContext                             output.o
SCardListReaders                                  output.o
SCardReleaseContext                               output.o
SCardStatus                                       output.o
SCardTransmit                                     output.o
SHA1                                              output.o
SHA1_Final                                        output.o
SHA1_Init                                         output.o
SHA1_Transform                                    output.o
SHA1_Update                                       output.o
SHA1_version                                      output.o
SHA224                                            output.o
SHA224_Final                                      output.o
SHA224_Init                                       output.o
SHA224_Update                                     output.o
SHA256                                            output.o
SHA256_Final                                      output.o
SHA256_Init                                       output.o
SHA256_Transform                                  output.o
SHA256_Update                                     output.o
SHA256_version                                    output.o
SHA384                                            output.o
SHA384_Final                                      output.o
SHA384_Init                                       output.o
SHA384_Update                                     output.o
SHA512                                            output.o
SHA512_Final                                      output.o
SHA512_Init                                       output.o
SHA512_Transform                                  output.o
SHA512_Update                                     output.o
SHA512_version                                    output.o
SHA_Final                                         output.o
SHA_Init                                          output.o
SHA_Transform                                     output.o
SHA_Update                                        output.o
SHA_version                                       output.o
SMIME_crlf_copy                                   output.o
SMIME_read_ASN1                                   output.o
SMIME_read_CMS                                    output.o
SMIME_text                                        output.o
SMIME_write_ASN1                                  output.o
SMIME_write_CMS                                   output.o
STACK_version                                     output.o
SXNETID_free                                      output.o
SXNETID_it                                        output.o
SXNETID_new                                       output.o
SXNET_add_id_INTEGER                              output.o
SXNET_add_id_asc                                  output.o
SXNET_add_id_ulong                                output.o
SXNET_free                                        output.o
SXNET_get_id_INTEGER                              output.o
SXNET_get_id_asc                                  output.o
SXNET_get_id_ulong                                output.o
SXNET_it                                          output.o
SXNET_new                                         output.o
Se4AddArpEntryList                                output.o
Se4AdjustTcpMss                                   output.o
Se4And                                            output.o
Se4BitToHex                                       output.o
Se4BroadcastMacAddress                            output.o
Se4BuildIcmpEchoPacket                            output.o
Se4CheckUnicastAddress                            output.o
Se4Cmp                                            output.o
Se4CmpArpEntry                                    output.o
Se4CmpArpWaitEntry                                output.o
Se4CmpIpCombineList                               output.o
Se4CombineIp                                      output.o
Se4FlushArpEntryList                              output.o
Se4FlushIpCombineList                             output.o
Se4FlushIpWaitList                                output.o
Se4Free                                           output.o
Se4FreeArpEntryList                               output.o
Se4FreeArpWaitList                                output.o
Se4FreeIpCombine                                  output.o
Se4FreeIpCombineList                              output.o
Se4FreeIpFragmentList                             output.o
Se4FreeIpHeaderInfo                               output.o
Se4FreeIpWait                                     output.o
Se4FreeIpWaitList                                 output.o
Se4GenerateSubnetMask                             output.o
Se4GenerateSubnetMask32                           output.o
Se4GetBroadcastAddress                            output.o
Se4GetHostAddress                                 output.o
Se4GetNetworkAddress                              output.o
Se4IPToStr                                        output.o
Se4IPToStr32                                      output.o
Se4IPToUINT                                       output.o
Se4Init                                           output.o
Se4InitArpEntryList                               output.o
Se4InitArpWaitList                                output.o
Se4InitIpCombineList                              output.o
Se4InitIpFragmentList                             output.o
Se4InitIpWaitList                                 output.o
Se4InsertIpCombine                                output.o
Se4InsertIpWait                                   output.o
Se4IpCheckChecksum                                output.o
Se4IpChecksum                                     output.o
Se4IsBroadcastAddress                             output.o
Se4IsInSameNetwork                                output.o
Se4IsSubnetMask                                   output.o
Se4IsZeroIP                                       output.o
Se4MacIpRelationKnown                             output.o
Se4MainProc                                       output.o
Se4Not                                            output.o
Se4Or                                             output.o
Se4ParseIpPacket                                  output.o
Se4ParseIpPacketICMPv4                            output.o
Se4ParseIpPacketUDPv4                             output.o
Se4ProcessArpWaitList                             output.o
Se4RecvArp                                        output.o
Se4RecvArpRequest                                 output.o
Se4RecvArpResponse                                output.o
Se4RecvEthPacket                                  output.o
Se4RecvIp                                         output.o
Se4RecvIpComplete                                 output.o
Se4SearchArpEntryList                             output.o
Se4SearchArpWaitList                              output.o
Se4SearchIpCombineList                            output.o
Se4SendArpDoProcess                               output.o
Se4SendArpRequest                                 output.o
Se4SendArpResponse                                output.o
Se4SendEthPacket                                  output.o
Se4SendIcmp                                       output.o
Se4SendIcmpEchoRequest                            output.o
Se4SendIcmpEchoResponse                           output.o
Se4SendIp                                         output.o
Se4SendIpFragment                                 output.o
Se4SendIpFragmentNow                              output.o
Se4SendRawIp                                      output.o
Se4SendUdp                                        output.o
Se4SendWaitingIpWait                              output.o
Se4StrToIP                                        output.o
Se4StrToIP32                                      output.o
Se4Tick                                           output.o
Se4UINTToIP                                       output.o
Se4ZeroIP                                         output.o
Se6AddGuestNode                                   output.o
Se6AddNeighborEntryList                           output.o
Se6And                                            output.o
Se6BroadcastMacAddress                            output.o
Se6BuildIcmpEchoPacket                            output.o
Se6CalcChecksum                                   output.o
Se6CheckIPItemStr                                 output.o
Se6CheckSubnetLength                              output.o
Se6CheckUnicastAddress                            output.o
Se6Cmp                                            output.o
Se6CmpIpCombineList                               output.o
Se6CmpNdpWaitEntry                                output.o
Se6CmpNeighborEntry                               output.o
Se6CombineIp                                      output.o
Se6FlushIpCombineList                             output.o
Se6FlushIpWaitList                                output.o
Se6FlushNeighborEntryList                         output.o
Se6Free                                           output.o
Se6FreeIpCombine                                  output.o
Se6FreeIpCombineList                              output.o
Se6FreeIpFragmentList                             output.o
Se6FreeIpHeaderInfo                               output.o
Se6FreeIpWait                                     output.o
Se6FreeIpWaitList                                 output.o
Se6FreeNdpWaitList                                output.o
Se6FreeNeighborEntryList                          output.o
Se6GenerateEui64Address                           output.o
Se6GenerateEui64GlobalAddress                     output.o
Se6GenerateEui64LocalAddress                      output.o
Se6GenerateMulticastMacAddress                    output.o
Se6GenerateSubnetMask                             output.o
Se6GetAllNodeMulticastAddr                        output.o
Se6GetAllRouterMulticastAddr                      output.o
Se6GetHostAddress                                 output.o
Se6GetIPAddrType                                  output.o
Se6GetPrefixAddress                               output.o
Se6GetSoliciationMulticastAddr                    output.o
Se6IPItemStrToChars                               output.o
Se6IPToStr                                        output.o
Se6Init                                           output.o
Se6InitIpCombineList                              output.o
Se6InitIpFragmentList                             output.o
Se6InitIpWaitList                                 output.o
Se6InitNdpWaitList                                output.o
Se6InitNeighborEntryList                          output.o
Se6InsertIpCombine                                output.o
Se6InsertIpWait                                   output.o
Se6IpChecksum                                     output.o
Se6IsGuestNode                                    output.o
Se6IsInSameNetwork                                output.o
Se6IsNetworkPrefixAddress                         output.o
Se6IsSubnetMask                                   output.o
Se6IsZeroIP                                       output.o
Se6LocalSubnet                                    output.o
Se6MacIpRelationKnown                             output.o
Se6MainProc                                       output.o
Se6Not                                            output.o
Se6Or                                             output.o
Se6ParseIpPacket                                  output.o
Se6ParseIpPacketICMPv6                            output.o
Se6ParseIpPacketUDPv6                             output.o
Se6ProcessNdpWaitList                             output.o
Se6RecvEthPacket                                  output.o
Se6RecvIp                                         output.o
Se6RecvIpComplete                                 output.o
Se6SearchIpCombineList                            output.o
Se6SearchNdpWaitList                              output.o
Se6SearchNeighborEntryList                        output.o
Se6SendEthPacket                                  output.o
Se6SendIcmp                                       output.o
Se6SendIcmpEchoRequest                            output.o
Se6SendIcmpEchoResponse                           output.o
Se6SendIcmpNeighborAdvertisement                  output.o
Se6SendIcmpNeighborSoliciation                    output.o
Se6SendIcmpRouterAdvertisement                    output.o
Se6SendIp                                         output.o
Se6SendIpFragment                                 output.o
Se6SendIpFragmentNow                              output.o
Se6SendNeighborSoliciation                        output.o
Se6SendNeighborSoliciationDoProcess               output.o
Se6SendRawIp                                      output.o
Se6SendUdp                                        output.o
Se6SendWaitingIpWait                              output.o
Se6StrToIP                                        output.o
Se6SubnetMaskToInt                                output.o
Se6Tick                                           output.o
Se6ZeroIP                                         output.o
SeAdd                                             output.o
SeAddBufStr                                       output.o
SeAdjustBufSize                                   output.o
SeB64CharToCode                                   output.o
SeB64CodeToChar                                   output.o
SeB64Decode                                       output.o
SeB64Encode                                       output.o
SeBSearch                                         output.o
SeBigNumToBuf                                     output.o
SeBigNumToStr                                     output.o
SeBinToBigNum                                     output.o
SeBinToStr                                        output.o
SeBinToStrEx                                      output.o
SeBioToBuf                                        output.o
SeBioToCert                                       output.o
SeBioToKey                                        output.o
SeBufToBigNum                                     output.o
SeBufToBio                                        output.o
SeBufToCert                                       output.o
SeBufToKey                                        output.o
SeBuildAndAddIPv6PacketOptionHeader               output.o
SeBuildICMPv6OptionValue                          output.o
SeBuildICMPv6Options                              output.o
SeBuildIPv6Packet                                 output.o
SeBuildIPv6PacketWithFragment                     output.o
SeCalcReplaceStrEx                                output.o
SeCertToBio                                       output.o
SeCertToBuf                                       output.o
SeCheckCert                                       output.o
SeCheckCertAndKey                                 output.o
SeCheckSignature                                  output.o
SeClearBuf                                        output.o
SeClearFifo                                       output.o
SeClone                                           output.o
SeCloneBuf                                        output.o
SeCloneCert                                       output.o
SeCloneKey                                        output.o
SeCloneList                                       output.o
SeCmp                                             output.o
SeCmpBuf                                          output.o
SeCmpEx                                           output.o
SeCompareCert                                     output.o
SeCompareStr                                      output.o
SeCopy                                            output.o
SeCopyStr                                         output.o
SeCopyToArray                                     output.o
SeDebug                                           output.o
SeDebugBin                                        output.o
SeDefaultTokenSplitChars                          output.o
SeDelete                                          output.o
SeDeleteAll                                       output.o
SeDeleteLock                                      output.o
SeDes3Decrypt                                     output.o
SeDes3Encrypt                                     output.o
SeDes3FreeKey                                     output.o
SeDes3NewKey                                      output.o
SeDes3RandKey                                     output.o
SeDesFreeKey                                      output.o
SeDesFreeKeyValue                                 output.o
SeDesNewKey                                       output.o
SeDesNewKeyValue                                  output.o
SeDesRandKey                                      output.o
SeDesRandKeyValue                                 output.o
SeDhCompute                                       output.o
SeDhFree                                          output.o
SeDhNew                                           output.o
SeDhNewGroup2                                     output.o
SeDumpBuf                                         output.o
SeEndWith                                         output.o
SeEndian16                                        output.o
SeEndian32                                        output.o
SeEndian64                                        output.o
SeError                                           output.o
SeEthAddSenderMacList                             output.o
SeEthDeleteOldSenderMacList                       output.o
SeEthFree                                         output.o
SeEthGenRandMacAddress                            output.o
SeEthGetInfo                                      output.o
SeEthGetNextRecvPacket                            output.o
SeEthIsSenderMacAddressExistsInList               output.o
SeEthNew                                          output.o
SeEthNicCallback                                  output.o
SeEthParseEthernetPacket                          output.o
SeEthSend                                         output.o
SeEthSendAdd                                      output.o
SeEthSendAll                                      output.o
SeFastSwap                                        output.o
SeFatal                                           output.o
SeFifoSize                                        output.o
SeFormat                                          output.o
SeFormatArgs                                      output.o
SeFormatEx                                        output.o
SeFree                                            output.o
SeFreeBio                                         output.o
SeFreeBuf                                         output.o
SeFreeBufWithoutBuffer                            output.o
SeFreeCert                                        output.o
SeFreeConfigEntryList                             output.o
SeFreeCrypto                                      output.o
SeFreeFifo                                        output.o
SeFreeKernel                                      output.o
SeFreeKey                                         output.o
SeFreeList                                        output.o
SeFreePKey                                        output.o
SeFreePacket                                      output.o
SeFreePacketList                                  output.o
SeFreePacketListWithoutBuffer                     output.o
SeFreeQueue                                       output.o
SeFreeStack                                       output.o
SeFreeToken                                       output.o
SeFreeX509                                        output.o
SeGetCertIssuerName                               output.o
SeGetCertMd5                                      output.o
SeGetCertSha1                                     output.o
SeGetCertSubjectName                              output.o
SeGetConfigBin                                    output.o
SeGetConfigBool                                   output.o
SeGetConfigEntry                                  output.o
SeGetConfigInt                                    output.o
SeGetConfigInt64                                  output.o
SeGetConfigStr                                    output.o
SeGetCurrentCpuId                                 output.o
SeGetKeyAndValue                                  output.o
SeGetKeyFromCert                                  output.o
SeGetNext                                         output.o
SeGetNextHeaderFromQueue                          output.o
SeGetNextInt                                      output.o
SeHashForSignBySHA1                               output.o
SeHexTo4Bit                                       output.o
SeHexToInt                                        output.o
SeHexToInt64                                      output.o
SeIkeBuild                                        output.o
SeIkeBuildCertPayload                             output.o
SeIkeBuildCertRequestPayload                      output.o
SeIkeBuildDataPayload                             output.o
SeIkeBuildDeletePayload                           output.o
SeIkeBuildIdPayload                               output.o
SeIkeBuildNoticePayload                           output.o
SeIkeBuildPayload                                 output.o
SeIkeBuildPayloadList                             output.o
SeIkeBuildProposalPayload                         output.o
SeIkeBuildSaPayload                               output.o
SeIkeBuildTransformPayload                        output.o
SeIkeBuildTransformValue                          output.o
SeIkeBuildTransformValueList                      output.o
SeIkeDecrypt                                      output.o
SeIkeEncrypt                                      output.o
SeIkeEncryptWithPadding                           output.o
SeIkeFree                                         output.o
SeIkeFreeCertPayload                              output.o
SeIkeFreeCertRequestPayload                       output.o
SeIkeFreeDataPayload                              output.o
SeIkeFreeDeletePayload                            output.o
SeIkeFreeIdPayload                                output.o
SeIkeFreeNoticePayload                            output.o
SeIkeFreePayload                                  output.o
SeIkeFreePayloadList                              output.o
SeIkeFreeProposalPayload                          output.o
SeIkeFreeSaPayload                                output.o
SeIkeFreeTransformPayload                         output.o
SeIkeFreeTransformValueList                       output.o
SeIkeGetFirstPayloadType                          output.o
SeIkeGetIPv4Address                               output.o
SeIkeGetIPv6Address                               output.o
SeIkeGetPayload                                   output.o
SeIkeGetPayloadNum                                output.o
SeIkeInitIPv4Address                              output.o
SeIkeInitIPv6Address                              output.o
SeIkeIpAddressToStr                               output.o
SeIkeIsZeroIP                                     output.o
SeIkeNew                                          output.o
SeIkeNewCertPayload                               output.o
SeIkeNewCertRequestPayload                        output.o
SeIkeNewDataPayload                               output.o
SeIkeNewDeletePayload                             output.o
SeIkeNewIdPayload                                 output.o
SeIkeNewNoticePayload                             output.o
SeIkeNewPayload                                   output.o
SeIkeNewProposalPayload                           output.o
SeIkeNewSaPayload                                 output.o
SeIkeNewTransformPayload                          output.o
SeIkeNewTransformValue                            output.o
SeIkeParse                                        output.o
SeIkeParseCertPayload                             output.o
SeIkeParseCertRequestPayload                      output.o
SeIkeParseDataPayload                             output.o
SeIkeParseDeletePayload                           output.o
SeIkeParseEx                                      output.o
SeIkeParseHeader                                  output.o
SeIkeParseIdPayload                               output.o
SeIkeParseNoticePayload                           output.o
SeIkeParsePayload                                 output.o
SeIkeParsePayloadList                             output.o
SeIkeParsePayloadListEx                           output.o
SeIkeParseProposalPayload                         output.o
SeIkeParseSaPayload                               output.o
SeIkeParseTransformPayload                        output.o
SeIkeParseTransformValueList                      output.o
SeIkePhase1CryptIdToKeySize                       output.o
SeIkePhase2CryptIdToKeySize                       output.o
SeIkeStrToPassword                                output.o
SeIkeStrToPhase1CryptId                           output.o
SeIkeStrToPhase1HashId                            output.o
SeIkeStrToPhase2CryptId                           output.o
SeIkeStrToPhase2HashId                            output.o
SeInfo                                            output.o
SeInitCrypto                                      output.o
SeInitKernel                                      output.o
SeInsert                                          output.o
SeInsertQueue                                     output.o
SeInsertQueueInt                                  output.o
SeInsertStr                                       output.o
SeIntFree                                         output.o
SeIntInit                                         output.o
SeIsAllLowerStr                                   output.o
SeIsAllUpperStr                                   output.o
SeIsBase64                                        output.o
SeIsBigEndian                                     output.o
SeIsCertSignedByCert                              output.o
SeIsCharInStr                                     output.o
SeIsEmptyStr                                      output.o
SeIsInList                                        output.o
SeIsInListStr                                     output.o
SeIsLittleEndian                                  output.o
SeIsSplitChar                                     output.o
SeIsZero                                          output.o
SeKeyToBio                                        output.o
SeKeyToBuf                                        output.o
SeLoad                                            output.o
SeLoadCert                                        output.o
SeLoadConfigEntryList                             output.o
SeLoadConfigEntryListFromBuf                      output.o
SeLoadKey                                         output.o
SeLock                                            output.o
SeLog                                             output.o
SeLogArgs                                         output.o
SeMacSha1                                         output.o
SeMacSha196                                       output.o
SeMacToStr                                        output.o
SeMakeCharArray                                   output.o
SeMalloc                                          output.o
SeMd5                                             output.o
SeMemSize                                         output.o
SeMemToBuf                                        output.o
SeNewBio                                          output.o
SeNewBuf                                          output.o
SeNewFifo                                         output.o
SeNewList                                         output.o
SeNewLock                                         output.o
SeNewQueue                                        output.o
SeNewStack                                        output.o
SeNormalizeCrlf                                   output.o
SeNullTokenList                                   output.o
SePKeyPasswordCallbackFunction                    output.o
SeParseICMPv6Options                              output.o
SeParseIPv6ExtHeader                              output.o
SeParseIPv6Packet                                 output.o
SeParsePacket                                     output.o
SeParsePacketL2                                   output.o
SeParsePacketL3ARPv4                              output.o
SeParsePacketL3IPv4                               output.o
SeParsePacketL3IPv6                               output.o
SeParseToken                                      output.o
SeParseTokenWithNullStr                           output.o
SePeekFifo                                        output.o
SePeekNext                                        output.o
SePop                                             output.o
SePush                                            output.o
SeQSort                                           output.o
SeRand                                            output.o
SeRand1                                           output.o
SeRand16                                          output.o
SeRand32                                          output.o
SeRand64                                          output.o
SeRand8                                           output.o
SeRandBuf                                         output.o
SeReAlloc                                         output.o
SeReadBuf                                         output.o
SeReadBufFromBuf                                  output.o
SeReadBufInt                                      output.o
SeReadBufInt64                                    output.o
SeReadBufStr                                      output.o
SeReadDump                                        output.o
SeReadFifo                                        output.o
SeReadNextLine                                    output.o
SeReadRemainBuf                                   output.o
SeReplaceListPointer                              output.o
SeReplaceStr                                      output.o
SeReplaceStrEx                                    output.o
SeReplaceStri                                     output.o
SeRsaGen                                          output.o
SeRsaPrivateDecrypt                               output.o
SeRsaPrivateEncrypt                               output.o
SeRsaPublicDecrypt                                output.o
SeRsaPublicEncrypt                                output.o
SeRsaPublicSize                                   output.o
SeRsaPublicToBin                                  output.o
SeRsaPublicToBuf                                  output.o
SeRsaSign                                         output.o
SeRsaSignWithPadding                              output.o
SeRsaSignWithSha1                                 output.o
SeRsaVerifyWithPadding                            output.o
SeRsaVerifyWithSha1                               output.o
SeSave                                            output.o
SeSaveCert                                        output.o
SeSaveKey                                         output.o
SeSearch                                          output.o
SeSearchStr                                       output.o
SeSearchStrEx                                     output.o
SeSearchStri                                      output.o
SeSecAddTimer                                     output.o
SeSecCalcKEYMAT                                   output.o
SeSecCalcKEYMATFull                               output.o
SeSecCalcKa                                       output.o
SeSecCalcP1Iv                                     output.o
SeSecCalcP1KeySet                                 output.o
SeSecCalcP2Iv                                     output.o
SeSecCheckIPsecSaExpires                          output.o
SeSecCheckIkeSaExpires                            output.o
SeSecCmpIkeSa                                     output.o
SeSecDeleteExpiredIPsecSa                         output.o
SeSecDeleteExpiredIkeSa                           output.o
SeSecDoInterval                                   output.o
SeSecEspRecvCallback                              output.o
SeSecForceReconnect                               output.o
SeSecFree                                         output.o
SeSecFreeIPsecSa                                  output.o
SeSecFreeIkeSa                                    output.o
SeSecFreeMain                                     output.o
SeSecFreeP1KeySet                                 output.o
SeSecFreeSaList                                   output.o
SeSecGenIPsecSASpi                                output.o
SeSecGenIkeSaInitCookie                           output.o
SeSecGenIkeSaMessageId                            output.o
SeSecGetIPsecSa                                   output.o
SeSecInit                                         output.o
SeSecInitMain                                     output.o
SeSecInitSaList                                   output.o
SeSecLifeSeconds64bit                             output.o
SeSecNewIPsecSa                                   output.o
SeSecNewIkeSa                                     output.o
SeSecNewSpi                                       output.o
SeSecProcessIkeSaMsg                              output.o
SeSecProcessIkeSaMsgInfo                          output.o
SeSecProcessIkeSaMsgPhase1                        output.o
SeSecProcessIkeSaMsgPhase2                        output.o
SeSecProcessMain                                  output.o
SeSecSearchIPsecSaBySpi                           output.o
SeSecSearchIkeSa                                  output.o
SeSecSearchIkeSaBySpi                             output.o
SeSecSendEsp                                      output.o
SeSecSendIPsecSaDeleteMsg                         output.o
SeSecSendIkeSaDeleteMsg                           output.o
SeSecSendIkeSaMsgInfo                             output.o
SeSecSendIkeSaMsgInfoSimple                       output.o
SeSecSendIkeSaMsgPhase2                           output.o
SeSecSendIkeSaMsgPhase2FinalHash                  output.o
SeSecSendUdp                                      output.o
SeSecSendVirtualIp                                output.o
SeSecSetRecvEspCallback                           output.o
SeSecSetRecvUdpCallback                           output.o
SeSecSetRecvVirtualIpCallback                     output.o
SeSecSetTimerCallback                             output.o
SeSecStartVpnConnect                              output.o
SeSecStrToAuthMethod                              output.o
SeSecTick                                         output.o
SeSecTimerCallback                                output.o
SeSecUdpRecvCallback                              output.o
SeSecVirtualIpRecvCallback                        output.o
SeSeekBuf                                         output.o
SeSetCmp                                          output.o
SeSetSortFlag                                     output.o
SeSha1                                            output.o
SeSort                                            output.o
SeStartWith                                       output.o
SeStrCat                                          output.o
SeStrCheckLen                                     output.o
SeStrCheckSize                                    output.o
SeStrCmp                                          output.o
SeStrCmpi                                         output.o
SeStrCpy                                          output.o
SeStrLen                                          output.o
SeStrLower                                        output.o
SeStrSize                                         output.o
SeStrToBin                                        output.o
SeStrToBinEx                                      output.o
SeStrToMac                                        output.o
SeStrUpper                                        output.o
SeStrnCmp                                         output.o
SeStrnCmpi                                        output.o
SeSwap                                            output.o
SeSwap16                                          output.o
SeSwap32                                          output.o
SeSwap64                                          output.o
SeSysFreeData                                     output.o
SeSysFreeLock                                     output.o
SeSysFreeTimer                                    output.o
SeSysGetCurrentCpuId                              output.o
SeSysGetPhysicalNicInfo                           output.o
SeSysGetTickCount                                 output.o
SeSysGetVirtualNicInfo                            output.o
SeSysLoadData                                     output.o
SeSysLock                                         output.o
SeSysLog                                          output.o
SeSysMemoryAlloc                                  output.o
SeSysMemoryFree                                   output.o
SeSysMemoryReAlloc                                output.o
SeSysNewLock                                      output.o
SeSysNewTimer                                     output.o
SeSysRsaSign                                      output.o
SeSysSaveData                                     output.o
SeSysSendPhysicalNic                              output.o
SeSysSendVirtualNic                               output.o
SeSysSetPhysicalNicRecvCallback                   output.o
SeSysSetTimer                                     output.o
SeSysSetVirtualNicRecvCallback                    output.o
SeSysUnlock                                       output.o
SeTick                                            output.o
SeTick64                                          output.o
SeTick64Internal                                  output.o
SeTimerAdjust                                     output.o
SeTimerCallback                                   output.o
SeTimerEntryCompare                               output.o
SeTimerFree                                       output.o
SeTimerNew                                        output.o
SeTimerSet                                        output.o
SeToArray                                         output.o
SeToHex                                           output.o
SeToHex64                                         output.o
SeToInt                                           output.o
SeToInt64                                         output.o
SeToLower                                         output.o
SeToStr                                           output.o
SeToStr3                                          output.o
SeToStr64                                         output.o
SeToUpper                                         output.o
SeTrim                                            output.o
SeTrimCopy                                        output.o
SeTrimCrlf                                        output.o
SeTrimLeft                                        output.o
SeTrimRight                                       output.o
SeUniqueToken                                     output.o
SeUnlock                                          output.o
SeVpn4ClientAddTimer                              output.o
SeVpn4ClientGetTick                               output.o
SeVpn4ClientSendEsp                               output.o
SeVpn4ClientSendUdp                               output.o
SeVpn4ClientSendVirtualIp                         output.o
SeVpn4ClientSetRecvEspCallback                    output.o
SeVpn4ClientSetRecvUdpCallback                    output.o
SeVpn4ClientSetRecvVirtualIpCallback              output.o
SeVpn4ClientSetTimerCallback                      output.o
SeVpn4DhcpBuildDhcpOptionList                     output.o
SeVpn4DhcpFreeOptionList                          output.o
SeVpn4DhcpOptionsToBuf                            output.o
SeVpn4DhcpParseOptionList                         output.o
SeVpn4DhcpParseOptionListMain                     output.o
SeVpn4DhcpSearchOption                            output.o
SeVpn4DhcpSendResponse                            output.o
SeVpn4DhcpServer                                  output.o
SeVpn4DoInterval                                  output.o
SeVpn4Free                                        output.o
SeVpn4FreeIPsec                                   output.o
SeVpn4IPsecInputFromPhysical                      output.o
SeVpn4IPsecInputFromVirtual                       output.o
SeVpn4IPsecMainProc                               output.o
SeVpn4IPsecSendPing                               output.o
SeVpn4Init                                        output.o
SeVpn4InitIPsec                                   output.o
SeVpn4InitSecConfig                               output.o
SeVpn4MainProc                                    output.o
SeVpn4NewDhcpOption                               output.o
SeVpn4RecvPacketPhysical                          output.o
SeVpn4RecvPacketVirtual                           output.o
SeVpn4SetTimer                                    output.o
SeVpn4Tick                                        output.o
SeVpn6ClientAddTimer                              output.o
SeVpn6ClientGetTick                               output.o
SeVpn6ClientSendEsp                               output.o
SeVpn6ClientSendUdp                               output.o
SeVpn6ClientSendVirtualIp                         output.o
SeVpn6ClientSetRecvEspCallback                    output.o
SeVpn6ClientSetRecvUdpCallback                    output.o
SeVpn6ClientSetRecvVirtualIpCallback              output.o
SeVpn6ClientSetTimerCallback                      output.o
SeVpn6DoInterval                                  output.o
SeVpn6Free                                        output.o
SeVpn6FreeIPsec                                   output.o
SeVpn6IPsecInputFromPhysical                      output.o
SeVpn6IPsecInputFromVirtual                       output.o
SeVpn6IPsecMainProc                               output.o
SeVpn6IPsecSendPing                               output.o
SeVpn6Init                                        output.o
SeVpn6InitIPsec                                   output.o
SeVpn6InitSecConfig                               output.o
SeVpn6MainProc                                    output.o
SeVpn6RecvPacketPhysical                          output.o
SeVpn6RecvPacketVirtual                           output.o
SeVpn6SetTimer                                    output.o
SeVpn6Tick                                        output.o
SeVpn6UpdateGuestOsIpAddress                      output.o
SeVpnAddTimer                                     output.o
SeVpnDoInterval                                   output.o
SeVpnEthRecvCallback                              output.o
SeVpnFree                                         output.o
SeVpnFreeConfig                                   output.o
SeVpnFreeIpStack                                  output.o
SeVpnInit                                         output.o
SeVpnInitIpStack                                  output.o
SeVpnLoadConfig                                   output.o
SeVpnMainFree                                     output.o
SeVpnMainHandler                                  output.o
SeVpnMainInit                                     output.o
SeVpnMainProcRecvEtherPacket                      output.o
SeVpnMainProcess                                  output.o
SeVpnRecvEtherPacket                              output.o
SeVpnRecvIpV4PacketCallback                       output.o
SeVpnRecvIpV6PacketCallback                       output.o
SeVpnSendEtherPacket                              output.o
SeVpnStatusChanged                                output.o
SeVpnTick                                         output.o
SeVpnTimerCallback                                output.o
SeWarning                                         output.o
SeWriteBuf                                        output.o
SeWriteBufBuf                                     output.o
SeWriteBufInt                                     output.o
SeWriteBufInt64                                   output.o
SeWriteBufLine                                    output.o
SeWriteBufStr                                     output.o
SeWriteFifo                                       output.o
SeX509ToCert                                      output.o
SeZero                                            output.o
SeZeroMalloc                                      output.o
SelectFileDF                                      output.o
SelectFileEF                                      output.o
SetATR                                            output.o
SetElem                                           output.o
SetLength                                         output.o
StIsdigit                                         output.o
StIsspace                                         output.o
T0XfrBlockCHAR                                    output.o
T0XfrBlockTPDU                                    output.o
T1NegociateIFSD                                   output.o
T1XfrBlockExtendedAPDU                            output.o
T1XfrBlockTPDU                                    output.o
TransHex2Tex                                      output.o
TransTex2Hex                                      output.o
TransmitCommand                                   output.o
TransmitPPS                                       output.o
UI_OpenSSL                                        output.o
UI_add_error_string                               output.o
UI_add_info_string                                output.o
UI_add_input_boolean                              output.o
UI_add_input_string                               output.o
UI_add_user_data                                  output.o
UI_add_verify_string                              output.o
UI_construct_prompt                               output.o
UI_create_method                                  output.o
UI_ctrl                                           output.o
UI_destroy_method                                 output.o
UI_dup_error_string                               output.o
UI_dup_info_string                                output.o
UI_dup_input_boolean                              output.o
UI_dup_input_string                               output.o
UI_dup_verify_string                              output.o
UI_free                                           output.o
UI_get0_action_string                             output.o
UI_get0_output_string                             output.o
UI_get0_result                                    output.o
UI_get0_result_string                             output.o
UI_get0_test_string                               output.o
UI_get0_user_data                                 output.o
UI_get_default_method                             output.o
UI_get_ex_data                                    output.o
UI_get_ex_new_index                               output.o
UI_get_input_flags                                output.o
UI_get_method                                     output.o
UI_get_result_maxsize                             output.o
UI_get_result_minsize                             output.o
UI_get_string_type                                output.o
UI_method_get_closer                              output.o
UI_method_get_flusher                             output.o
UI_method_get_opener                              output.o
UI_method_get_prompt_constructor                  output.o
UI_method_get_reader                              output.o
UI_method_get_writer                              output.o
UI_method_set_closer                              output.o
UI_method_set_flusher                             output.o
UI_method_set_opener                              output.o
UI_method_set_prompt_constructor                  output.o
UI_method_set_reader                              output.o
UI_method_set_writer                              output.o
UI_new                                            output.o
UI_new_method                                     output.o
UI_process                                        output.o
UI_set_default_method                             output.o
UI_set_ex_data                                    output.o
UI_set_method                                     output.o
UI_set_result                                     output.o
USERNOTICE_free                                   output.o
USERNOTICE_it                                     output.o
USERNOTICE_new                                    output.o
UTF8_getc                                         output.o
UTF8_putc                                         output.o
UpdateBinary                                      output.o
VPN_IPsec_Client_Start                            output.o
VPN_IPsec_Client_Stop                             output.o
VPN_IPsec_Free                                    output.o
VPN_IPsec_Init                                    output.o
Verify                                            output.o
WHIRLPOOL                                         output.o
WHIRLPOOL_BitUpdate                               output.o
WHIRLPOOL_Final                                   output.o
WHIRLPOOL_Init                                    output.o
WHIRLPOOL_Update                                  output.o
WriteUSB                                          output.o
X509V3_EXT_CRL_add_conf                           output.o
X509V3_EXT_CRL_add_nconf                          output.o
X509V3_EXT_REQ_add_conf                           output.o
X509V3_EXT_REQ_add_nconf                          output.o
X509V3_EXT_add                                    output.o
X509V3_EXT_add_alias                              output.o
X509V3_EXT_add_conf                               output.o
X509V3_EXT_add_list                               output.o
X509V3_EXT_add_nconf                              output.o
X509V3_EXT_add_nconf_sk                           output.o
X509V3_EXT_cleanup                                output.o
X509V3_EXT_conf                                   output.o
X509V3_EXT_conf_nid                               output.o
X509V3_EXT_d2i                                    output.o
X509V3_EXT_get                                    output.o
X509V3_EXT_get_nid                                output.o
X509V3_EXT_i2d                                    output.o
X509V3_EXT_nconf                                  output.o
X509V3_EXT_nconf_nid                              output.o
X509V3_EXT_print                                  output.o
X509V3_EXT_val_prn                                output.o
X509V3_NAME_from_section                          output.o
X509V3_add1_i2d                                   output.o
X509V3_add_standard_extensions                    output.o
X509V3_add_value                                  output.o
X509V3_add_value_bool                             output.o
X509V3_add_value_bool_nf                          output.o
X509V3_add_value_int                              output.o
X509V3_add_value_uchar                            output.o
X509V3_conf_free                                  output.o
X509V3_extensions_print                           output.o
X509V3_get_d2i                                    output.o
X509V3_get_section                                output.o
X509V3_get_string                                 output.o
X509V3_get_value_bool                             output.o
X509V3_get_value_int                              output.o
X509V3_parse_list                                 output.o
X509V3_section_free                               output.o
X509V3_set_conf_lhash                             output.o
X509V3_set_ctx                                    output.o
X509V3_set_nconf                                  output.o
X509V3_string_free                                output.o
X509_ALGORS_it                                    output.o
X509_ALGOR_dup                                    output.o
X509_ALGOR_free                                   output.o
X509_ALGOR_get0                                   output.o
X509_ALGOR_it                                     output.o
X509_ALGOR_new                                    output.o
X509_ALGOR_set0                                   output.o
X509_ATTRIBUTE_SET_it                             output.o
X509_ATTRIBUTE_count                              output.o
X509_ATTRIBUTE_create                             output.o
X509_ATTRIBUTE_create_by_NID                      output.o
X509_ATTRIBUTE_create_by_OBJ                      output.o
X509_ATTRIBUTE_create_by_txt                      output.o
X509_ATTRIBUTE_dup                                output.o
X509_ATTRIBUTE_free                               output.o
X509_ATTRIBUTE_get0_data                          output.o
X509_ATTRIBUTE_get0_object                        output.o
X509_ATTRIBUTE_get0_type                          output.o
X509_ATTRIBUTE_it                                 output.o
X509_ATTRIBUTE_new                                output.o
X509_ATTRIBUTE_set1_data                          output.o
X509_ATTRIBUTE_set1_object                        output.o
X509_CERT_AUX_free                                output.o
X509_CERT_AUX_it                                  output.o
X509_CERT_AUX_new                                 output.o
X509_CERT_AUX_print                               output.o
X509_CERT_PAIR_free                               output.o
X509_CERT_PAIR_it                                 output.o
X509_CERT_PAIR_new                                output.o
X509_CINF_free                                    output.o
X509_CINF_it                                      output.o
X509_CINF_new                                     output.o
X509_CRL_INFO_free                                output.o
X509_CRL_INFO_it                                  output.o
X509_CRL_INFO_new                                 output.o
X509_CRL_METHOD_free                              output.o
X509_CRL_METHOD_new                               output.o
X509_CRL_add0_revoked                             output.o
X509_CRL_add1_ext_i2d                             output.o
X509_CRL_add_ext                                  output.o
X509_CRL_cmp                                      output.o
X509_CRL_delete_ext                               output.o
X509_CRL_digest                                   output.o
X509_CRL_dup                                      output.o
X509_CRL_free                                     output.o
X509_CRL_get0_by_cert                             output.o
X509_CRL_get0_by_serial                           output.o
X509_CRL_get_ext                                  output.o
X509_CRL_get_ext_by_NID                           output.o
X509_CRL_get_ext_by_OBJ                           output.o
X509_CRL_get_ext_by_critical                      output.o
X509_CRL_get_ext_count                            output.o
X509_CRL_get_ext_d2i                              output.o
X509_CRL_get_meth_data                            output.o
X509_CRL_it                                       output.o
X509_CRL_match                                    output.o
X509_CRL_new                                      output.o
X509_CRL_set_default_method                       output.o
X509_CRL_set_meth_data                            output.o
X509_CRL_sign                                     output.o
X509_CRL_verify                                   output.o
X509_EXTENSIONS_it                                output.o
X509_EXTENSION_create_by_NID                      output.o
X509_EXTENSION_create_by_OBJ                      output.o
X509_EXTENSION_dup                                output.o
X509_EXTENSION_free                               output.o
X509_EXTENSION_get_critical                       output.o
X509_EXTENSION_get_data                           output.o
X509_EXTENSION_get_object                         output.o
X509_EXTENSION_it                                 output.o
X509_EXTENSION_new                                output.o
X509_EXTENSION_set_critical                       output.o
X509_EXTENSION_set_data                           output.o
X509_EXTENSION_set_object                         output.o
X509_LOOKUP_by_alias                              output.o
X509_LOOKUP_by_fingerprint                        output.o
X509_LOOKUP_by_issuer_serial                      output.o
X509_LOOKUP_by_subject                            output.o
X509_LOOKUP_ctrl                                  output.o
X509_LOOKUP_free                                  output.o
X509_LOOKUP_init                                  output.o
X509_LOOKUP_new                                   output.o
X509_LOOKUP_shutdown                              output.o
X509_NAME_ENTRIES_it                              output.o
X509_NAME_ENTRY_create_by_NID                     output.o
X509_NAME_ENTRY_create_by_OBJ                     output.o
X509_NAME_ENTRY_create_by_txt                     output.o
X509_NAME_ENTRY_dup                               output.o
X509_NAME_ENTRY_free                              output.o
X509_NAME_ENTRY_get_data                          output.o
X509_NAME_ENTRY_get_object                        output.o
X509_NAME_ENTRY_it                                output.o
X509_NAME_ENTRY_new                               output.o
X509_NAME_ENTRY_set_data                          output.o
X509_NAME_ENTRY_set_object                        output.o
X509_NAME_INTERNAL_it                             output.o
X509_NAME_add_entry                               output.o
X509_NAME_add_entry_by_NID                        output.o
X509_NAME_add_entry_by_OBJ                        output.o
X509_NAME_add_entry_by_txt                        output.o
X509_NAME_cmp                                     output.o
X509_NAME_delete_entry                            output.o
X509_NAME_digest                                  output.o
X509_NAME_dup                                     output.o
X509_NAME_entry_count                             output.o
X509_NAME_free                                    output.o
X509_NAME_get_entry                               output.o
X509_NAME_get_index_by_NID                        output.o
X509_NAME_get_index_by_OBJ                        output.o
X509_NAME_get_text_by_NID                         output.o
X509_NAME_get_text_by_OBJ                         output.o
X509_NAME_hash                                    output.o
X509_NAME_hash_old                                output.o
X509_NAME_it                                      output.o
X509_NAME_new                                     output.o
X509_NAME_oneline                                 output.o
X509_NAME_print                                   output.o
X509_NAME_print_ex                                output.o
X509_NAME_set                                     output.o
X509_OBJECT_free_contents                         output.o
X509_OBJECT_idx_by_subject                        output.o
X509_OBJECT_retrieve_by_subject                   output.o
X509_OBJECT_retrieve_match                        output.o
X509_OBJECT_up_ref_count                          output.o
X509_POLICY_NODE_print                            output.o
X509_PUBKEY_free                                  output.o
X509_PUBKEY_get                                   output.o
X509_PUBKEY_get0_param                            output.o
X509_PUBKEY_it                                    output.o
X509_PUBKEY_new                                   output.o
X509_PUBKEY_set                                   output.o
X509_PUBKEY_set0_param                            output.o
X509_PURPOSE_add                                  output.o
X509_PURPOSE_cleanup                              output.o
X509_PURPOSE_get0                                 output.o
X509_PURPOSE_get0_name                            output.o
X509_PURPOSE_get0_sname                           output.o
X509_PURPOSE_get_by_id                            output.o
X509_PURPOSE_get_by_sname                         output.o
X509_PURPOSE_get_count                            output.o
X509_PURPOSE_get_id                               output.o
X509_PURPOSE_get_trust                            output.o
X509_PURPOSE_set                                  output.o
X509_REQ_INFO_free                                output.o
X509_REQ_INFO_it                                  output.o
X509_REQ_INFO_new                                 output.o
X509_REQ_add1_attr                                output.o
X509_REQ_add1_attr_by_NID                         output.o
X509_REQ_add1_attr_by_OBJ                         output.o
X509_REQ_add1_attr_by_txt                         output.o
X509_REQ_add_extensions                           output.o
X509_REQ_add_extensions_nid                       output.o
X509_REQ_check_private_key                        output.o
X509_REQ_delete_attr                              output.o
X509_REQ_digest                                   output.o
X509_REQ_dup                                      output.o
X509_REQ_extension_nid                            output.o
X509_REQ_free                                     output.o
X509_REQ_get1_email                               output.o
X509_REQ_get_attr                                 output.o
X509_REQ_get_attr_by_NID                          output.o
X509_REQ_get_attr_by_OBJ                          output.o
X509_REQ_get_attr_count                           output.o
X509_REQ_get_extension_nids                       output.o
X509_REQ_get_extensions                           output.o
X509_REQ_get_pubkey                               output.o
X509_REQ_it                                       output.o
X509_REQ_new                                      output.o
X509_REQ_set_extension_nids                       output.o
X509_REQ_set_pubkey                               output.o
X509_REQ_set_subject_name                         output.o
X509_REQ_set_version                              output.o
X509_REQ_sign                                     output.o
X509_REQ_verify                                   output.o
X509_REVOKED_add1_ext_i2d                         output.o
X509_REVOKED_add_ext                              output.o
X509_REVOKED_delete_ext                           output.o
X509_REVOKED_free                                 output.o
X509_REVOKED_get_ext                              output.o
X509_REVOKED_get_ext_by_NID                       output.o
X509_REVOKED_get_ext_by_OBJ                       output.o
X509_REVOKED_get_ext_by_critical                  output.o
X509_REVOKED_get_ext_count                        output.o
X509_REVOKED_get_ext_d2i                          output.o
X509_REVOKED_it                                   output.o
X509_REVOKED_new                                  output.o
X509_SIG_free                                     output.o
X509_SIG_it                                       output.o
X509_SIG_new                                      output.o
X509_STORE_CTX_cleanup                            output.o
X509_STORE_CTX_free                               output.o
X509_STORE_CTX_get0_current_crl                   output.o
X509_STORE_CTX_get0_current_issuer                output.o
X509_STORE_CTX_get0_param                         output.o
X509_STORE_CTX_get0_parent_ctx                    output.o
X509_STORE_CTX_get0_policy_tree                   output.o
X509_STORE_CTX_get1_chain                         output.o
X509_STORE_CTX_get1_issuer                        output.o
X509_STORE_CTX_get_chain                          output.o
X509_STORE_CTX_get_current_cert                   output.o
X509_STORE_CTX_get_error                          output.o
X509_STORE_CTX_get_error_depth                    output.o
X509_STORE_CTX_get_ex_data                        output.o
X509_STORE_CTX_get_ex_new_index                   output.o
X509_STORE_CTX_get_explicit_policy                output.o
X509_STORE_CTX_init                               output.o
X509_STORE_CTX_new                                output.o
X509_STORE_CTX_purpose_inherit                    output.o
X509_STORE_CTX_set0_crls                          output.o
X509_STORE_CTX_set0_param                         output.o
X509_STORE_CTX_set_cert                           output.o
X509_STORE_CTX_set_chain                          output.o
X509_STORE_CTX_set_default                        output.o
X509_STORE_CTX_set_depth                          output.o
X509_STORE_CTX_set_error                          output.o
X509_STORE_CTX_set_ex_data                        output.o
X509_STORE_CTX_set_flags                          output.o
X509_STORE_CTX_set_purpose                        output.o
X509_STORE_CTX_set_time                           output.o
X509_STORE_CTX_set_trust                          output.o
X509_STORE_CTX_set_verify_cb                      output.o
X509_STORE_CTX_trusted_stack                      output.o
X509_STORE_add_cert                               output.o
X509_STORE_add_crl                                output.o
X509_STORE_add_lookup                             output.o
X509_STORE_free                                   output.o
X509_STORE_get1_certs                             output.o
X509_STORE_get1_crls                              output.o
X509_STORE_get_by_subject                         output.o
X509_STORE_new                                    output.o
X509_STORE_set1_param                             output.o
X509_STORE_set_depth                              output.o
X509_STORE_set_flags                              output.o
X509_STORE_set_purpose                            output.o
X509_STORE_set_trust                              output.o
X509_STORE_set_verify_cb                          output.o
X509_TRUST_add                                    output.o
X509_TRUST_cleanup                                output.o
X509_TRUST_get0                                   output.o
X509_TRUST_get0_name                              output.o
X509_TRUST_get_by_id                              output.o
X509_TRUST_get_count                              output.o
X509_TRUST_get_flags                              output.o
X509_TRUST_get_trust                              output.o
X509_TRUST_set                                    output.o
X509_TRUST_set_default                            output.o
X509_VAL_free                                     output.o
X509_VAL_it                                       output.o
X509_VAL_new                                      output.o
X509_VERIFY_PARAM_add0_policy                     output.o
X509_VERIFY_PARAM_add0_table                      output.o
X509_VERIFY_PARAM_clear_flags                     output.o
X509_VERIFY_PARAM_free                            output.o
X509_VERIFY_PARAM_get_depth                       output.o
X509_VERIFY_PARAM_get_flags                       output.o
X509_VERIFY_PARAM_inherit                         output.o
X509_VERIFY_PARAM_lookup                          output.o
X509_VERIFY_PARAM_new                             output.o
X509_VERIFY_PARAM_set1                            output.o
X509_VERIFY_PARAM_set1_name                       output.o
X509_VERIFY_PARAM_set1_policies                   output.o
X509_VERIFY_PARAM_set_depth                       output.o
X509_VERIFY_PARAM_set_flags                       output.o
X509_VERIFY_PARAM_set_purpose                     output.o
X509_VERIFY_PARAM_set_time                        output.o
X509_VERIFY_PARAM_set_trust                       output.o
X509_VERIFY_PARAM_table_cleanup                   output.o
X509_add1_ext_i2d                                 output.o
X509_add1_reject_object                           output.o
X509_add1_trust_object                            output.o
X509_add_ext                                      output.o
X509_alias_get0                                   output.o
X509_alias_set1                                   output.o
X509_check_akid                                   output.o
X509_check_ca                                     output.o
X509_check_issued                                 output.o
X509_check_private_key                            output.o
X509_check_purpose                                output.o
X509_check_trust                                  output.o
X509_cmp                                          output.o
X509_cmp_current_time                             output.o
X509_cmp_time                                     output.o
X509_delete_ext                                   output.o
X509_digest                                       output.o
X509_dup                                          output.o
X509_email_free                                   output.o
X509_find_by_issuer_and_serial                    output.o
X509_find_by_subject                              output.o
X509_free                                         output.o
X509_get0_pubkey_bitstr                           output.o
X509_get1_email                                   output.o
X509_get1_ocsp                                    output.o
X509_get_default_cert_area                        output.o
X509_get_default_cert_dir                         output.o
X509_get_default_cert_dir_env                     output.o
X509_get_default_cert_file                        output.o
X509_get_default_cert_file_env                    output.o
X509_get_default_private_dir                      output.o
X509_get_ex_data                                  output.o
X509_get_ex_new_index                             output.o
X509_get_ext                                      output.o
X509_get_ext_by_NID                               output.o
X509_get_ext_by_OBJ                               output.o
X509_get_ext_by_critical                          output.o
X509_get_ext_count                                output.o
X509_get_ext_d2i                                  output.o
X509_get_issuer_name                              output.o
X509_get_pubkey                                   output.o
X509_get_pubkey_parameters                        output.o
X509_get_serialNumber                             output.o
X509_get_subject_name                             output.o
X509_gmtime_adj                                   output.o
X509_issuer_and_serial_cmp                        output.o
X509_issuer_and_serial_hash                       output.o
X509_issuer_name_cmp                              output.o
X509_issuer_name_hash                             output.o
X509_issuer_name_hash_old                         output.o
X509_it                                           output.o
X509_keyid_get0                                   output.o
X509_keyid_set1                                   output.o
X509_new                                          output.o
X509_ocspid_print                                 output.o
X509_policy_check                                 output.o
X509_policy_level_get0_node                       output.o
X509_policy_level_node_count                      output.o
X509_policy_node_get0_parent                      output.o
X509_policy_node_get0_policy                      output.o
X509_policy_node_get0_qualifiers                  output.o
X509_policy_tree_free                             output.o
X509_policy_tree_get0_level                       output.o
X509_policy_tree_get0_policies                    output.o
X509_policy_tree_get0_user_policies               output.o
X509_policy_tree_level_count                      output.o
X509_print                                        output.o
X509_print_ex                                     output.o
X509_pubkey_digest                                output.o
X509_reject_clear                                 output.o
X509_set_ex_data                                  output.o
X509_sign                                         output.o
X509_signature_print                              output.o
X509_subject_name_cmp                             output.o
X509_subject_name_hash                            output.o
X509_subject_name_hash_old                        output.o
X509_supported_extension                          output.o
X509_time_adj                                     output.o
X509_time_adj_ex                                  output.o
X509_to_X509_REQ                                  output.o
X509_trust_clear                                  output.o
X509_verify                                       output.o
X509_verify_cert                                  output.o
X509_version                                      output.o
X509at_add1_attr                                  output.o
X509at_add1_attr_by_NID                           output.o
X509at_add1_attr_by_OBJ                           output.o
X509at_add1_attr_by_txt                           output.o
X509at_delete_attr                                output.o
X509at_get0_data_by_OBJ                           output.o
X509at_get_attr                                   output.o
X509at_get_attr_by_NID                            output.o
X509at_get_attr_by_OBJ                            output.o
X509at_get_attr_count                             output.o
X509v3_add_ext                                    output.o
X509v3_delete_ext                                 output.o
X509v3_get_ext                                    output.o
X509v3_get_ext_by_NID                             output.o
X509v3_get_ext_by_OBJ                             output.o
X509v3_get_ext_by_critical                        output.o
X509v3_get_ext_count                              output.o
X9_62_CHARACTERISTIC_TWO_free                     output.o
X9_62_CHARACTERISTIC_TWO_it                       output.o
X9_62_CHARACTERISTIC_TWO_new                      output.o
X9_62_CURVE_it                                    output.o
X9_62_FIELDID_it                                  output.o
X9_62_PENTANOMIAL_free                            output.o
X9_62_PENTANOMIAL_it                              output.o
X9_62_PENTANOMIAL_new                             output.o
ZLONG_it                                          output.o
_CONF_add_string                                  output.o
_CONF_free_data                                   output.o
_CONF_get_section                                 output.o
_CONF_get_section_values                          output.o
_CONF_get_string                                  output.o
_CONF_new_data                                    output.o
_CONF_new_section                                 output.o
__initfunc_acpi_init_global                       output.o
__initfunc_acpi_init_paral                        output.o
__initfunc_ata_init                               output.o
__initfunc_beep_init_msg                          output.o
__initfunc_cache_init_pass                        output.o
__initfunc_cache_init_pcpu                        output.o
__initfunc_cache_init_vcpu                        output.o
__initfunc_callrealmode_init_global               output.o
__initfunc_callrealmode_panic                     output.o
__initfunc_copy_minios                            output.o
__initfunc_core_init                              output.o
__initfunc_cpu_mmu_spt_init_global                output.o
__initfunc_cpu_mmu_spt_init_pcpu                  output.o
__initfunc_cpuid_init                             output.o
__initfunc_cpuid_pass_init                        output.o
__initfunc_create_pass_vm                         output.o
__initfunc_debug_ata_init                         output.o
__initfunc_debug_on_shift_key                     output.o
__initfunc_ehci_init                              output.o
__initfunc_end                                    output.o
__initfunc_exint_pass_init                        output.o
__initfunc_get_shiftflags                         output.o
__initfunc_gmm_pass_init                          output.o
__initfunc_idman_init                             output.o
__initfunc_idman_init_global                      output.o
__initfunc_idman_kernel_init                      output.o
__initfunc_ieee1394_init                          output.o
__initfunc_ieee1394_init_boot                     output.o
__initfunc_install_int0x15_hook                   output.o
__initfunc_int_init_global                        output.o
__initfunc_int_wakeup                             output.o
__initfunc_io_io_init                             output.o
__initfunc_io_iopass_init                         output.o
__initfunc_iommu_setup                            output.o
__initfunc_keyboard_init_msg                      output.o
__initfunc_localapic_init                         output.o
__initfunc_mm_init_global                         output.o
__initfunc_mmio_debug                             output.o
__initfunc_mmio_init                              output.o
__initfunc_msg_init_global                        output.o
__initfunc_msr_init                               output.o
__initfunc_msr_pass_init                          output.o
__initfunc_nmi_pass_init                          output.o
__initfunc_nmi_pass_init_pcpu                     output.o
__initfunc_panic_init_global                      output.o
__initfunc_panic_init_global3                     output.o
__initfunc_panic_init_msg                         output.o
__initfunc_panic_init_pcpu                        output.o
__initfunc_pci_init                               output.o
__initfunc_print_boot_msg                         output.o
__initfunc_printf_init_global                     output.o
__initfunc_pro100_init                            output.o
__initfunc_process_init_ap                        output.o
__initfunc_process_init_global                    output.o
__initfunc_process_wakeup                         output.o
__initfunc_random_init_config0                    output.o
__initfunc_random_init_global                     output.o
__initfunc_reboot_init_msg                        output.o
__initfunc_resume_pro1000                         output.o
__initfunc_segment_init_global                    output.o
__initfunc_serial_init_msg                        output.o
__initfunc_setiohooks                             output.o
__initfunc_sleep_init_global                      output.o
__initfunc_sleep_init_msg                         output.o
__initfunc_start                                  output.o
__initfunc_storage_io_initfunc                    output.o
__initfunc_storage_kernel_init                    output.o
__initfunc_suspend_pro1000                        output.o
__initfunc_svm_panic                              output.o
__initfunc_sx_init_pass_init                      output.o
__initfunc_thread_init_global                     output.o
__initfunc_thread_init_pcpu                       output.o
__initfunc_time_init_global                       output.o
__initfunc_time_init_global_status                output.o
__initfunc_time_init_msg                          output.o
__initfunc_time_init_pcpu                         output.o
__initfunc_timer_init_global                      output.o
__initfunc_tty_init_global                        output.o
__initfunc_tty_init_global2                       output.o
__initfunc_tty_init_msg                           output.o
__initfunc_uhci_init                              output.o
__initfunc_unmap_user_area                        output.o
__initfunc_vcpu_init_global                       output.o
__initfunc_vga_init                               output.o
__initfunc_virtualization_init_pcpu               output.o
__initfunc_vmmcall_boot_init                      output.o
__initfunc_vmmcall_dbgsh_init                     output.o
__initfunc_vmmcall_dbgsh_init_global              output.o
__initfunc_vmmcall_dbgsh_init_pcpu                output.o
__initfunc_vmmcall_iccard_init                    output.o
__initfunc_vmmcall_init                           output.o
__initfunc_vmmcall_log_init                       output.o
__initfunc_vmmcall_status_init                    output.o
__initfunc_vmmcall_status_init_global             output.o
__initfunc_vpn_kernel_init                        output.o
__initfunc_vpn_pro1000_init                       output.o
__initfunc_vramwrite_init_bsp                     output.o
__initfunc_vramwrite_init_msg                     output.o
__initfunc_vt_panic                               output.o
__initfunc_vt_register_status_callback            output.o
__initfunc_xsetbv_init                            output.o
__initfunc_xsetbv_pass_init                       output.o
__process_builtin                                 output.o
__process_builtin_end                             output.o
_dprintf                                          output.o
_dprintft                                         output.o
_shadow_DES_check_key                             output.o
a                                                 output.o
a2d_ASN1_OBJECT                                   output.o
a2i_ASN1_INTEGER                                  output.o
a2i_ASN1_STRING                                   output.o
a2i_GENERAL_NAME                                  output.o
a2i_IPADDRESS                                     output.o
a2i_IPADDRESS_NC                                  output.o
a2i_ipadd                                         output.o
acpi_dsdt_parse                                   output.o
acpi_dsdt_system_state                            output.o
acpi_iohook                                       output.o
acpi_poweroff                                     output.o
acpi_reset                                        output.o
acpi_smi_hook                                     output.o
add_remap                                         output.o
aes_xts_init                                      output.o
ahci_config_read                                  output.o
ahci_config_write                                 output.o
ahci_new                                          output.o
alloc                                             output.o
alloc2                                            output.o
alloc_handler_descriptor                          output.o
alloc_page                                        output.o
alloc_pages                                       output.o
alloc_realmodemem                                 output.o
allocateNewAppID                                  output.o
allocateNewApplicationIdentifiers                 output.o
allocateNewVMID                                   output.o
allocateNewZeroPage                               output.o
ap_start_addr                                     output.o
apic_available                                    output.o
apinit_lock                                       output.o
apinit_procs                                      output.o
apinitproc0                                       output.o
app_pkey_methods                                  output.o
asm_vmlaunch_regs_32                              output.o
asm_vmlaunch_regs_64                              output.o
asm_vmresume_regs_32                              output.o
asm_vmresume_regs_64                              output.o
asm_vmrun_regs_32                                 output.o
asm_vmrun_regs_64                                 output.o
asn1_Finish                                       output.o
asn1_GetSequence                                  output.o
asn1_add_error                                    output.o
asn1_const_Finish                                 output.o
asn1_do_adb                                       output.o
asn1_do_lock                                      output.o
asn1_enc_free                                     output.o
asn1_enc_init                                     output.o
asn1_enc_restore                                  output.o
asn1_enc_save                                     output.o
asn1_ex_c2i                                       output.o
asn1_ex_i2c                                       output.o
asn1_get_choice_selector                          output.o
asn1_get_field_ptr                                output.o
asn1_set_choice_selector                          output.o
asn1_template_print_ctx                           output.o
assertion_failed                                  output.o
ata_ahci_mode                                     output.o
ata_bm_handle_command                             output.o
ata_bm_handle_device_specific                     output.o
ata_bm_handle_prd_table                           output.o
ata_bm_handle_status                              output.o
ata_bm_handler                                    output.o
ata_bm_handler_table                              output.o
ata_channel_lock                                  output.o
ata_channel_unlock                                output.o
ata_cmdblk_handler                                output.o
ata_cmdblk_handler_table                          output.o
ata_config_read                                   output.o
ata_config_write                                  output.o
ata_ctlblk_handler                                output.o
ata_ctlblk_handler_table                          output.o
ata_get_cmd_type                                  output.o
ata_handle_queued_status                          output.o
ata_init_io_handler                               output.o
ata_init_vendor                                   output.o
ata_set_bm_handler                                output.o
ata_set_cmdblk_handler                            output.o
ata_set_ctlblk_handler                            output.o
atapi_handle_cmd_packet                           output.o
atapi_handle_config_data                          output.o
atapi_handle_interrupt_reason                     output.o
atapi_handle_packet_data                          output.o
atapi_handle_pio_identify_packet                  output.o
auto_reboot                                       output.o
b                                                 output.o
backtrace                                         output.o
beep_off                                          output.o
beep_on                                           output.o
beep_set_freq                                     output.o
bn_add_part_words                                 output.o
bn_add_words                                      output.o
bn_cmp_part_words                                 output.o
bn_cmp_words                                      output.o
bn_div_words                                      output.o
bn_dup_expand                                     output.o
bn_expand2                                        output.o
bn_mul_add_words                                  output.o
bn_mul_comba4                                     output.o
bn_mul_comba8                                     output.o
bn_mul_high                                       output.o
bn_mul_low_normal                                 output.o
bn_mul_low_recursive                              output.o
bn_mul_normal                                     output.o
bn_mul_part_recursive                             output.o
bn_mul_recursive                                  output.o
bn_mul_words                                      output.o
bn_sqr_comba4                                     output.o
bn_sqr_comba8                                     output.o
bn_sqr_normal                                     output.o
bn_sqr_recursive                                  output.o
bn_sqr_words                                      output.o
bn_sub_part_words                                 output.o
bn_sub_words                                      output.o
bss                                               output.o
c                                                 output.o
c2i_ASN1_BIT_STRING                               output.o
c2i_ASN1_INTEGER                                  output.o
c2i_ASN1_OBJECT                                   output.o
cache_get_attr                                    output.o
cache_get_gmsr_amd                                output.o
cache_get_gmtrr                                   output.o
cache_get_gmtrr_attr                              output.o
cache_get_gmtrr_type                              output.o
cache_get_gmtrrcap                                output.o
cache_get_gpat                                    output.o
cache_set_gmsr_amd                                output.o
cache_set_gmtrr                                   output.o
cache_set_gpat                                    output.o
call_cpuid                                        output.o
call_initfunc                                     output.o
call_io                                           output.o
call_read_msr                                     output.o
call_write_msr                                    output.o
call_xsetbv                                       output.o
callfunc_and_getint                               output.o
callrealmode_bootcd_getstatus                     output.o
callrealmode_disk_readlba                         output.o
callrealmode_disk_readmbr                         output.o
callrealmode_end                                  output.o
callrealmode_endofcodeaddr                        output.o
callrealmode_getfontinfo                          output.o
callrealmode_getshiftflags                        output.o
callrealmode_getsysmemmap                         output.o
callrealmode_printmsg                             output.o
callrealmode_reboot                               output.o
callrealmode_setcursorpos                         output.o
callrealmode_setvideomode                         output.o
callrealmode_start                                output.o
callrealmode_start2                               output.o
callrealmode_startkernel32                        output.o
callrealmode_tcgbios                              output.o
callrealmode_usevcpu                              output.o
cancel_sleep                                      output.o
changePageStatus                                  output.o
check_defer                                       output.o
chelp_abort                                       output.o
chelp_bsearch                                     output.o
chelp_div_64_32_32                                output.o
chelp_div_64_32_64                                output.o
chelp_free                                        output.o
chelp_inited                                      output.o
chelp_isalnum                                     output.o
chelp_isalpha                                     output.o
chelp_isdigit                                     output.o
chelp_islower                                     output.o
chelp_isspace                                     output.o
chelp_isupper                                     output.o
chelp_isxdigit                                    output.o
chelp_malloc                                      output.o
chelp_memchr                                      output.o
chelp_memcmp                                      output.o
chelp_memcpy                                      output.o
chelp_memmove                                     output.o
chelp_memset                                      output.o
chelp_mod_64_32_32                                output.o
chelp_mul_64_64_64                                output.o
chelp_print                                       output.o
chelp_printf                                      output.o
chelp_qsort                                       output.o
chelp_realloc                                     output.o
chelp_snprintf                                    output.o
chelp_sprintf                                     output.o
chelp_strcat                                      output.o
chelp_strchr                                      output.o
chelp_strcmp                                      output.o
chelp_strcpy                                      output.o
chelp_stricmp                                     output.o
chelp_strlen                                      output.o
chelp_strncasecmp                                 output.o
chelp_strncmp                                     output.o
chelp_strncpy                                     output.o
chelp_strrchr                                     output.o
chelp_strtol                                      output.o
chelp_strtoul                                     output.o
chelp_strtoul_ex                                  output.o
chelp_swap                                        output.o
chelp_tolower                                     output.o
chelp_toupper                                     output.o
cleanse_ctr                                       output.o
clear_guest_status                                output.o
clflush_size                                      output.o
closePage                                         output.o
closeSystemCallHandler                            output.o
cmpxchg_gphys_l                                   output.o
cmpxchg_gphys_q                                   output.o
cmpxchg_hphys_l                                   output.o
cmpxchg_hphys_q                                   output.o
cms_Data_create                                   output.o
cms_DigestAlgorithm_find_ctx                      output.o
cms_DigestAlgorithm_init_bio                      output.o
cms_DigestAlgorithm_set                           output.o
cms_DigestedData_create                           output.o
cms_DigestedData_do_final                         output.o
cms_DigestedData_init_bio                         output.o
cms_EncryptedContent_init                         output.o
cms_EncryptedContent_init_bio                     output.o
cms_EncryptedData_init_bio                        output.o
cms_EnvelopedData_init_bio                        output.o
cms_SignedData_final                              output.o
cms_SignedData_init_bio                           output.o
cms_SignerIdentifier_cert_cmp                     output.o
cms_SignerIdentifier_get0_signer_id               output.o
cms_content_bio                                   output.o
cms_set1_SignerIdentifier                         output.o
config                                            output.o
copy_bootsector                                   output.o
core_init                                         output.o
core_io_handle_default                            output.o
core_io_modify_handler                            output.o
core_io_register_handler                          output.o
core_io_unregister_handler                        output.o
core_mm_read_guest_phys                           output.o
core_mm_write_guest_phys                          output.o
cpu_emul_cli                                      output.o
cpu_emul_cpuid                                    output.o
cpu_emul_hlt                                      output.o
cpu_emul_rdmsr                                    output.o
cpu_emul_realmode_int                             output.o
cpu_emul_sti                                      output.o
cpu_emul_wrmsr                                    output.o
cpu_emul_xsetbv                                   output.o
cpu_interpreter                                   output.o
cpu_mmu_get_pte                                   output.o
cpu_mmu_spt_clear_all                             output.o
cpu_mmu_spt_extern_mapsearch                      output.o
cpu_mmu_spt_init                                  output.o
cpu_mmu_spt_invalidate                            output.o
cpu_mmu_spt_map_1mb                               output.o
cpu_mmu_spt_pagefault                             output.o
cpu_mmu_spt_tlbflush                              output.o
cpu_mmu_spt_updatecr3                             output.o
cpu_seg_read_b                                    output.o
cpu_seg_read_l                                    output.o
cpu_seg_read_q                                    output.o
cpu_seg_read_w                                    output.o
cpu_seg_write_b                                   output.o
cpu_seg_write_l                                   output.o
cpu_seg_write_q                                   output.o
cpu_seg_write_w                                   output.o
cpu_stack_get                                     output.o
cpu_stack_pop                                     output.o
cpu_stack_push                                    output.o
cpu_stack_set                                     output.o
cpuinit_end                                       output.o
cpuinit_start                                     output.o
create_dom                                        output.o
crypt_sys_rsa_sign                                output.o
crypto_find                                       output.o
crypto_init                                       output.o
crypto_none_init                                  output.o
crypto_register                                   output.o
currentProtectedApplication                       output.o
currentRunningApplication                         output.o
curthread                                         output.o
d                                                 output.o
d2i_ACCESS_DESCRIPTION                            output.o
d2i_ASN1_BIT_STRING                               output.o
d2i_ASN1_BMPSTRING                                output.o
d2i_ASN1_BOOLEAN                                  output.o
d2i_ASN1_ENUMERATED                               output.o
d2i_ASN1_GENERALIZEDTIME                          output.o
d2i_ASN1_GENERALSTRING                            output.o
d2i_ASN1_IA5STRING                                output.o
d2i_ASN1_INTEGER                                  output.o
d2i_ASN1_NULL                                     output.o
d2i_ASN1_OBJECT                                   output.o
d2i_ASN1_OCTET_STRING                             output.o
d2i_ASN1_PRINTABLE                                output.o
d2i_ASN1_PRINTABLESTRING                          output.o
d2i_ASN1_SEQUENCE_ANY                             output.o
d2i_ASN1_SET                                      output.o
d2i_ASN1_SET_ANY                                  output.o
d2i_ASN1_T61STRING                                output.o
d2i_ASN1_TIME                                     output.o
d2i_ASN1_TYPE                                     output.o
d2i_ASN1_UINTEGER                                 output.o
d2i_ASN1_UNIVERSALSTRING                          output.o
d2i_ASN1_UTCTIME                                  output.o
d2i_ASN1_UTF8STRING                               output.o
d2i_ASN1_VISIBLESTRING                            output.o
d2i_ASN1_bytes                                    output.o
d2i_ASN1_type_bytes                               output.o
d2i_AUTHORITY_INFO_ACCESS                         output.o
d2i_AUTHORITY_KEYID                               output.o
d2i_AutoPrivateKey                                output.o
d2i_BASIC_CONSTRAINTS                             output.o
d2i_CERTIFICATEPOLICIES                           output.o
d2i_CMS_ContentInfo                               output.o
d2i_CMS_bio                                       output.o
d2i_CRL_DIST_POINTS                               output.o
d2i_DHparams                                      output.o
d2i_DIRECTORYSTRING                               output.o
d2i_DISPLAYTEXT                                   output.o
d2i_DIST_POINT                                    output.o
d2i_DIST_POINT_NAME                               output.o
d2i_DSAPrivateKey                                 output.o
d2i_DSAPrivateKey_bio                             output.o
d2i_DSAPublicKey                                  output.o
d2i_DSA_PUBKEY                                    output.o
d2i_DSA_PUBKEY_bio                                output.o
d2i_DSA_SIG                                       output.o
d2i_DSAparams                                     output.o
d2i_ECDSA_SIG                                     output.o
d2i_ECPKPARAMETERS                                output.o
d2i_ECPKParameters                                output.o
d2i_ECParameters                                  output.o
d2i_ECPrivateKey                                  output.o
d2i_ECPrivateKey_bio                              output.o
d2i_EC_PRIVATEKEY                                 output.o
d2i_EC_PUBKEY                                     output.o
d2i_EC_PUBKEY_bio                                 output.o
d2i_EDIPARTYNAME                                  output.o
d2i_EXTENDED_KEY_USAGE                            output.o
d2i_GENERAL_NAME                                  output.o
d2i_GENERAL_NAMES                                 output.o
d2i_ISSUING_DIST_POINT                            output.o
d2i_NETSCAPE_CERT_SEQUENCE                        output.o
d2i_NETSCAPE_SPKAC                                output.o
d2i_NETSCAPE_SPKI                                 output.o
d2i_NOTICEREF                                     output.o
d2i_OCSP_BASICRESP                                output.o
d2i_OCSP_CERTID                                   output.o
d2i_OCSP_CERTSTATUS                               output.o
d2i_OCSP_CRLID                                    output.o
d2i_OCSP_ONEREQ                                   output.o
d2i_OCSP_REQINFO                                  output.o
d2i_OCSP_REQUEST                                  output.o
d2i_OCSP_RESPBYTES                                output.o
d2i_OCSP_RESPDATA                                 output.o
d2i_OCSP_RESPID                                   output.o
d2i_OCSP_RESPONSE                                 output.o
d2i_OCSP_REVOKEDINFO                              output.o
d2i_OCSP_SERVICELOC                               output.o
d2i_OCSP_SIGNATURE                                output.o
d2i_OCSP_SINGLERESP                               output.o
d2i_OTHERNAME                                     output.o
d2i_PBE2PARAM                                     output.o
d2i_PBEPARAM                                      output.o
d2i_PBKDF2PARAM                                   output.o
d2i_PKCS12                                        output.o
d2i_PKCS12_BAGS                                   output.o
d2i_PKCS12_MAC_DATA                               output.o
d2i_PKCS12_SAFEBAG                                output.o
d2i_PKCS12_bio                                    output.o
d2i_PKCS7                                         output.o
d2i_PKCS7_DIGEST                                  output.o
d2i_PKCS7_ENCRYPT                                 output.o
d2i_PKCS7_ENC_CONTENT                             output.o
d2i_PKCS7_ENVELOPE                                output.o
d2i_PKCS7_ISSUER_AND_SERIAL                       output.o
d2i_PKCS7_RECIP_INFO                              output.o
d2i_PKCS7_SIGNED                                  output.o
d2i_PKCS7_SIGNER_INFO                             output.o
d2i_PKCS7_SIGN_ENVELOPE                           output.o
d2i_PKCS7_bio                                     output.o
d2i_PKCS8PrivateKey_bio                           output.o
d2i_PKCS8_PRIV_KEY_INFO                           output.o
d2i_PKCS8_PRIV_KEY_INFO_bio                       output.o
d2i_PKCS8_bio                                     output.o
d2i_PKEY_USAGE_PERIOD                             output.o
d2i_POLICYINFO                                    output.o
d2i_POLICYQUALINFO                                output.o
d2i_PROXY_CERT_INFO_EXTENSION                     output.o
d2i_PROXY_POLICY                                  output.o
d2i_PUBKEY                                        output.o
d2i_PUBKEY_bio                                    output.o
d2i_PrivateKey                                    output.o
d2i_PrivateKey_bio                                output.o
d2i_RSAPrivateKey                                 output.o
d2i_RSAPrivateKey_bio                             output.o
d2i_RSAPublicKey                                  output.o
d2i_RSAPublicKey_bio                              output.o
d2i_RSA_PUBKEY                                    output.o
d2i_RSA_PUBKEY_bio                                output.o
d2i_SXNET                                         output.o
d2i_SXNETID                                       output.o
d2i_USERNOTICE                                    output.o
d2i_X509                                          output.o
d2i_X509_ALGOR                                    output.o
d2i_X509_ALGORS                                   output.o
d2i_X509_ATTRIBUTE                                output.o
d2i_X509_AUX                                      output.o
d2i_X509_CERT_AUX                                 output.o
d2i_X509_CERT_PAIR                                output.o
d2i_X509_CINF                                     output.o
d2i_X509_CRL                                      output.o
d2i_X509_CRL_INFO                                 output.o
d2i_X509_CRL_bio                                  output.o
d2i_X509_EXTENSION                                output.o
d2i_X509_EXTENSIONS                               output.o
d2i_X509_NAME                                     output.o
d2i_X509_NAME_ENTRY                               output.o
d2i_X509_PUBKEY                                   output.o
d2i_X509_REQ                                      output.o
d2i_X509_REQ_INFO                                 output.o
d2i_X509_REQ_bio                                  output.o
d2i_X509_REVOKED                                  output.o
d2i_X509_SIG                                      output.o
d2i_X509_VAL                                      output.o
d2i_X509_bio                                      output.o
deactivate_and_delete_urb                         output.o
debug_addstr                                      output.o
debug_gdb                                         output.o
debug_iohook                                      output.o
debug_msgregister                                 output.o
debug_msgunregister                               output.o
decryptcfg                                        output.o
default_pctx                                      output.o
dh_asn1_meth                                      output.o
dh_pkey_meth                                      output.o
disable_apic                                      output.o
do_exint_pass                                     output.o
do_externalint_enable                             output.o
do_io_nothing                                     output.o
do_iopass_default                                 output.o
do_panic_reboot                                   output.o
dom_io                                            output.o
dprintf_port                                      output.o
drhd_list_head                                    output.o
dsa_asn1_meths                                    output.o
dsa_builtin_paramgen                              output.o
dsa_pkey_meth                                     output.o
dsa_pub_internal_it                               output.o
dump_frame                                        output.o
dump_qh                                           output.o
dump_td                                           output.o
dump_td_byvirt                                    output.o
dwReaders                                         output.o
e801_fake_ax                                      output.o
e801_fake_bx                                      output.o
ec_GF2m_have_precompute_mult                      output.o
ec_GF2m_precompute_mult                           output.o
ec_GF2m_simple_add                                output.o
ec_GF2m_simple_cmp                                output.o
ec_GF2m_simple_dbl                                output.o
ec_GF2m_simple_field_div                          output.o
ec_GF2m_simple_field_mul                          output.o
ec_GF2m_simple_field_sqr                          output.o
ec_GF2m_simple_group_check_discriminant           output.o
ec_GF2m_simple_group_clear_finish                 output.o
ec_GF2m_simple_group_copy                         output.o
ec_GF2m_simple_group_finish                       output.o
ec_GF2m_simple_group_get_curve                    output.o
ec_GF2m_simple_group_get_degree                   output.o
ec_GF2m_simple_group_init                         output.o
ec_GF2m_simple_group_set_curve                    output.o
ec_GF2m_simple_invert                             output.o
ec_GF2m_simple_is_at_infinity                     output.o
ec_GF2m_simple_is_on_curve                        output.o
ec_GF2m_simple_make_affine                        output.o
ec_GF2m_simple_mul                                output.o
ec_GF2m_simple_oct2point                          output.o
ec_GF2m_simple_point2oct                          output.o
ec_GF2m_simple_point_clear_finish                 output.o
ec_GF2m_simple_point_copy                         output.o
ec_GF2m_simple_point_finish                       output.o
ec_GF2m_simple_point_get_affine_coordinates       output.o
ec_GF2m_simple_point_init                         output.o
ec_GF2m_simple_point_set_affine_coordinates       output.o
ec_GF2m_simple_point_set_to_infinity              output.o
ec_GF2m_simple_points_make_affine                 output.o
ec_GF2m_simple_set_compressed_coordinates         output.o
ec_GFp_mont_field_decode                          output.o
ec_GFp_mont_field_encode                          output.o
ec_GFp_mont_field_mul                             output.o
ec_GFp_mont_field_set_to_one                      output.o
ec_GFp_mont_field_sqr                             output.o
ec_GFp_mont_group_clear_finish                    output.o
ec_GFp_mont_group_copy                            output.o
ec_GFp_mont_group_finish                          output.o
ec_GFp_mont_group_init                            output.o
ec_GFp_mont_group_set_curve                       output.o
ec_GFp_nist_field_mul                             output.o
ec_GFp_nist_field_sqr                             output.o
ec_GFp_nist_group_copy                            output.o
ec_GFp_nist_group_set_curve                       output.o
ec_GFp_simple_add                                 output.o
ec_GFp_simple_cmp                                 output.o
ec_GFp_simple_dbl                                 output.o
ec_GFp_simple_field_mul                           output.o
ec_GFp_simple_field_sqr                           output.o
ec_GFp_simple_get_Jprojective_coordinates_GFp     output.o
ec_GFp_simple_group_check_discriminant            output.o
ec_GFp_simple_group_clear_finish                  output.o
ec_GFp_simple_group_copy                          output.o
ec_GFp_simple_group_finish                        output.o
ec_GFp_simple_group_get_curve                     output.o
ec_GFp_simple_group_get_degree                    output.o
ec_GFp_simple_group_init                          output.o
ec_GFp_simple_group_set_curve                     output.o
ec_GFp_simple_invert                              output.o
ec_GFp_simple_is_at_infinity                      output.o
ec_GFp_simple_is_on_curve                         output.o
ec_GFp_simple_make_affine                         output.o
ec_GFp_simple_oct2point                           output.o
ec_GFp_simple_point2oct                           output.o
ec_GFp_simple_point_clear_finish                  output.o
ec_GFp_simple_point_copy                          output.o
ec_GFp_simple_point_finish                        output.o
ec_GFp_simple_point_get_affine_coordinates        output.o
ec_GFp_simple_point_init                          output.o
ec_GFp_simple_point_set_affine_coordinates        output.o
ec_GFp_simple_point_set_to_infinity               output.o
ec_GFp_simple_points_make_affine                  output.o
ec_GFp_simple_set_Jprojective_coordinates_GFp     output.o
ec_GFp_simple_set_compressed_coordinates          output.o
ec_pkey_meth                                      output.o
ec_wNAF_have_precompute_mult                      output.o
ec_wNAF_mul                                       output.o
ec_wNAF_precompute_mult                           output.o
ecdh_check                                        output.o
ecdsa_check                                       output.o
eckey_asn1_meth                                   output.o
ehci_check_advance                                output.o
ehci_check_urb_advance                            output.o
ehci_cleanup_urbs                                 output.o
ehci_conceal_portroute                            output.o
ehci_deactivate_urb                               output.o
ehci_dump_alist                                   output.o
ehci_dump_all                                     output.o
ehci_dump_async                                   output.o
ehci_dump_qtd                                     output.o
ehci_dump_qtdm                                    output.o
ehci_dump_urb                                     output.o
ehci_dump_urblist                                 output.o
ehci_end_monitor_async                            output.o
ehci_host                                         output.o
ehci_init                                         output.o
ehci_monitor_async_list                           output.o
ehci_shadow_async_list                            output.o
ehci_shadow_buffer                                output.o
ehci_submit_bulk                                  output.o
ehci_submit_control                               output.o
ehci_submit_interrupt                             output.o
end                                               output.o
entry                                             output.o
entry_pd                                          output.o
entry_pd0                                         output.o
entry_pdp                                         output.o
ept_spinlock                                      output.o
evp_pkey_set_cb_translate                         output.o
exitprocess                                       output.o
findProtectedApplicationFromRIP                   output.o
findUnmappedPage                                  output.o
free                                              output.o
free_config_descriptors                           output.o
free_device                                       output.o
free_page                                         output.o
free_page_phys                                    output.o
g_rgSCardT0Pci                                    output.o
g_rgSCardT1Pci                                    output.o
getCurrentProtectedApplication                    output.o
getGuestRSP                                       output.o
getMemoryOwnershipTableEntry                      output.o
getMemoryOwnershipTableIndex                      output.o
getSystemCallHandlerGPA                           output.o
getTSSGVA                                         output.o
get_acpi_time                                     output.o
get_acpi_time_raw                                 output.o
get_cpu_id                                        output.o
get_cpu_time                                      output.o
get_ept_base_HPA                                  output.o
get_guest_cr3_value                               output.o
get_guest_eptp_value                              output.o
get_gurb_by_address                               output.o
get_idman_session                                 output.o
get_page_table_base_GPA                           output.o
get_seg_access_rights                             output.o
get_seg_base                                      output.o
get_time                                          output.o
getfakesysmemmap                                  output.o
getsysmemmap                                      output.o
gmm_pass_gp2hp                                    output.o
gpaToHPA                                          output.o
gs_current                                        output.o
gs_currentcpu                                     output.o
gs_init_count                                     output.o
gs_inthandling                                    output.o
gs_nmi                                            output.o
gs_syscallstack                                   output.o
guest_int0x15_e801_fake_ax                        output.o
guest_int0x15_e801_fake_bx                        output.o
guest_int0x15_e820_data_minus0x18                 output.o
guest_int0x15_e820_end                            output.o
guest_int0x15_hook                                output.o
guest_int0x15_hook_end                            output.o
guest_int0x15_orig                                output.o
gvaToGPA                                          output.o
hContext                                          output.o
hObjectCnt                                        output.o
hSessionCnt                                       output.o
handleSystemCall                                  output.o
handle_connect_status                             output.o
handle_init_to_bsp                                output.o
handle_port_reset                                 output.o
handler_descriptor                                output.o
handler_descriptor_lock                           output.o
head                                              output.o
hex_to_string                                     output.o
hmac_asn1_meth                                    output.o
hmac_pkey_meth                                    output.o
hub_portdevice_register                           output.o
hypercall_handler                                 output.o
i2a_ACCESS_DESCRIPTION                            output.o
i2a_ASN1_INTEGER                                  output.o
i2a_ASN1_OBJECT                                   output.o
i2a_ASN1_STRING                                   output.o
i2c_ASN1_BIT_STRING                               output.o
i2c_ASN1_INTEGER                                  output.o
i2d_ACCESS_DESCRIPTION                            output.o
i2d_ASN1_BIT_STRING                               output.o
i2d_ASN1_BMPSTRING                                output.o
i2d_ASN1_BOOLEAN                                  output.o
i2d_ASN1_ENUMERATED                               output.o
i2d_ASN1_GENERALIZEDTIME                          output.o
i2d_ASN1_GENERALSTRING                            output.o
i2d_ASN1_IA5STRING                                output.o
i2d_ASN1_INTEGER                                  output.o
i2d_ASN1_NULL                                     output.o
i2d_ASN1_OBJECT                                   output.o
i2d_ASN1_OCTET_STRING                             output.o
i2d_ASN1_PRINTABLE                                output.o
i2d_ASN1_PRINTABLESTRING                          output.o
i2d_ASN1_SEQUENCE_ANY                             output.o
i2d_ASN1_SET                                      output.o
i2d_ASN1_SET_ANY                                  output.o
i2d_ASN1_T61STRING                                output.o
i2d_ASN1_TIME                                     output.o
i2d_ASN1_TYPE                                     output.o
i2d_ASN1_UNIVERSALSTRING                          output.o
i2d_ASN1_UTCTIME                                  output.o
i2d_ASN1_UTF8STRING                               output.o
i2d_ASN1_VISIBLESTRING                            output.o
i2d_ASN1_bio_stream                               output.o
i2d_ASN1_bytes                                    output.o
i2d_AUTHORITY_INFO_ACCESS                         output.o
i2d_AUTHORITY_KEYID                               output.o
i2d_BASIC_CONSTRAINTS                             output.o
i2d_CERTIFICATEPOLICIES                           output.o
i2d_CMS_ContentInfo                               output.o
i2d_CMS_bio                                       output.o
i2d_CMS_bio_stream                                output.o
i2d_CRL_DIST_POINTS                               output.o
i2d_DHparams                                      output.o
i2d_DIRECTORYSTRING                               output.o
i2d_DISPLAYTEXT                                   output.o
i2d_DIST_POINT                                    output.o
i2d_DIST_POINT_NAME                               output.o
i2d_DSAPrivateKey                                 output.o
i2d_DSAPrivateKey_bio                             output.o
i2d_DSAPublicKey                                  output.o
i2d_DSA_PUBKEY                                    output.o
i2d_DSA_PUBKEY_bio                                output.o
i2d_DSA_SIG                                       output.o
i2d_DSAparams                                     output.o
i2d_ECDSA_SIG                                     output.o
i2d_ECPKPARAMETERS                                output.o
i2d_ECPKParameters                                output.o
i2d_ECParameters                                  output.o
i2d_ECPrivateKey                                  output.o
i2d_ECPrivateKey_bio                              output.o
i2d_EC_PRIVATEKEY                                 output.o
i2d_EC_PUBKEY                                     output.o
i2d_EC_PUBKEY_bio                                 output.o
i2d_EDIPARTYNAME                                  output.o
i2d_EXTENDED_KEY_USAGE                            output.o
i2d_GENERAL_NAME                                  output.o
i2d_GENERAL_NAMES                                 output.o
i2d_ISSUING_DIST_POINT                            output.o
i2d_NETSCAPE_CERT_SEQUENCE                        output.o
i2d_NETSCAPE_SPKAC                                output.o
i2d_NETSCAPE_SPKI                                 output.o
i2d_NOTICEREF                                     output.o
i2d_OCSP_BASICRESP                                output.o
i2d_OCSP_CERTID                                   output.o
i2d_OCSP_CERTSTATUS                               output.o
i2d_OCSP_CRLID                                    output.o
i2d_OCSP_ONEREQ                                   output.o
i2d_OCSP_REQINFO                                  output.o
i2d_OCSP_REQUEST                                  output.o
i2d_OCSP_RESPBYTES                                output.o
i2d_OCSP_RESPDATA                                 output.o
i2d_OCSP_RESPID                                   output.o
i2d_OCSP_RESPONSE                                 output.o
i2d_OCSP_REVOKEDINFO                              output.o
i2d_OCSP_SERVICELOC                               output.o
i2d_OCSP_SIGNATURE                                output.o
i2d_OCSP_SINGLERESP                               output.o
i2d_OTHERNAME                                     output.o
i2d_PBE2PARAM                                     output.o
i2d_PBEPARAM                                      output.o
i2d_PBKDF2PARAM                                   output.o
i2d_PKCS12                                        output.o
i2d_PKCS12_BAGS                                   output.o
i2d_PKCS12_MAC_DATA                               output.o
i2d_PKCS12_SAFEBAG                                output.o
i2d_PKCS12_bio                                    output.o
i2d_PKCS7                                         output.o
i2d_PKCS7_DIGEST                                  output.o
i2d_PKCS7_ENCRYPT                                 output.o
i2d_PKCS7_ENC_CONTENT                             output.o
i2d_PKCS7_ENVELOPE                                output.o
i2d_PKCS7_ISSUER_AND_SERIAL                       output.o
i2d_PKCS7_NDEF                                    output.o
i2d_PKCS7_RECIP_INFO                              output.o
i2d_PKCS7_SIGNED                                  output.o
i2d_PKCS7_SIGNER_INFO                             output.o
i2d_PKCS7_SIGN_ENVELOPE                           output.o
i2d_PKCS7_bio                                     output.o
i2d_PKCS8PrivateKeyInfo_bio                       output.o
i2d_PKCS8PrivateKey_bio                           output.o
i2d_PKCS8PrivateKey_nid_bio                       output.o
i2d_PKCS8_PRIV_KEY_INFO                           output.o
i2d_PKCS8_PRIV_KEY_INFO_bio                       output.o
i2d_PKCS8_bio                                     output.o
i2d_PKEY_USAGE_PERIOD                             output.o
i2d_POLICYINFO                                    output.o
i2d_POLICYQUALINFO                                output.o
i2d_PROXY_CERT_INFO_EXTENSION                     output.o
i2d_PROXY_POLICY                                  output.o
i2d_PUBKEY                                        output.o
i2d_PUBKEY_bio                                    output.o
i2d_PrivateKey                                    output.o
i2d_PrivateKey_bio                                output.o
i2d_RSAPrivateKey                                 output.o
i2d_RSAPrivateKey_bio                             output.o
i2d_RSAPublicKey                                  output.o
i2d_RSAPublicKey_bio                              output.o
i2d_RSA_PUBKEY                                    output.o
i2d_RSA_PUBKEY_bio                                output.o
i2d_SXNET                                         output.o
i2d_SXNETID                                       output.o
i2d_USERNOTICE                                    output.o
i2d_X509                                          output.o
i2d_X509_ALGOR                                    output.o
i2d_X509_ALGORS                                   output.o
i2d_X509_ATTRIBUTE                                output.o
i2d_X509_AUX                                      output.o
i2d_X509_CERT_AUX                                 output.o
i2d_X509_CERT_PAIR                                output.o
i2d_X509_CINF                                     output.o
i2d_X509_CRL                                      output.o
i2d_X509_CRL_INFO                                 output.o
i2d_X509_CRL_bio                                  output.o
i2d_X509_EXTENSION                                output.o
i2d_X509_EXTENSIONS                               output.o
i2d_X509_NAME                                     output.o
i2d_X509_NAME_ENTRY                               output.o
i2d_X509_PUBKEY                                   output.o
i2d_X509_REQ                                      output.o
i2d_X509_REQ_INFO                                 output.o
i2d_X509_REQ_bio                                  output.o
i2d_X509_REVOKED                                  output.o
i2d_X509_SIG                                      output.o
i2d_X509_VAL                                      output.o
i2d_X509_bio                                      output.o
i2o_ECPublicKey                                   output.o
i2s_ASN1_ENUMERATED                               output.o
i2s_ASN1_ENUMERATED_TABLE                         output.o
i2s_ASN1_INTEGER                                  output.o
i2s_ASN1_OCTET_STRING                             output.o
i2t_ASN1_OBJECT                                   output.o
i2v_ASN1_BIT_STRING                               output.o
i2v_GENERAL_NAME                                  output.o
i2v_GENERAL_NAMES                                 output.o
idea_cbc_encrypt                                  output.o
idea_cfb64_encrypt                                output.o
idea_ecb_encrypt                                  output.o
idea_encrypt                                      output.o
idea_ofb64_encrypt                                output.o
idea_options                                      output.o
idea_set_decrypt_key                              output.o
idea_set_encrypt_key                              output.o
idman_reinit2                                     output.o
idman_reinit_session                              output.o
idman_user_init                                   output.o
ieee1394_init                                     output.o
initPagePool                                      output.o
init_hframelist                                   output.o
initfunc_init                                     output.o
initializeNewProtectedApplication                 output.o
int1a_TCG_CompactHashLogExtendEvent               output.o
int1a_TCG_HashAll                                 output.o
int1a_TCG_HashLogEvent                            output.o
int1a_TCG_HashLogExtendEvent                      output.o
int1a_TCG_PassThroughToTPM                        output.o
int1a_TCG_StatusCheck                             output.o
int1a_TCG_TSS                                     output.o
int_callfunc                                      output.o
int_exceptionHandler                              output.o
int_fatal                                         output.o
int_handler                                       output.o
int_init_ap                                       output.o
int_rsa_verify                                    output.o
interrupt_handler                                 output.o
iodom_init                                        output.o
iommu_detected                                    output.o
iommu_setup                                       output.o
ipchecksum                                        output.o
keyboard_flush                                    output.o
keyboard_reset                                    output.o
level_add_node                                    output.o
level_find_node                                   output.o
lh_delete                                         output.o
lh_doall                                          output.o
lh_doall_arg                                      output.o
lh_free                                           output.o
lh_insert                                         output.o
lh_new                                            output.o
lh_num_items                                      output.o
lh_retrieve                                       output.o
lh_strhash                                        output.o
lh_version                                        output.o
libInitFlag                                       output.o
load_bootsector                                   output.o
load_minios                                       output.o
load_new_vcpu                                     output.o
localapic_change_base_msr                         output.o
localapic_mmio_register                           output.o
localapic_wait_for_sipi                           output.o
mapHPAintoHVA                                     output.o
mapmem                                            output.o
mapmem_gphys                                      output.o
mapmem_hphys                                      output.o
matched_drhd_u                                    output.o
md4_block_data_order                              output.o
md5_block_data_order                              output.o
memcmp                                            output.o
memcpy                                            output.o
memory_ownership_table                            output.o
memorysize                                        output.o
mempool_allocmem                                  output.o
mempool_free                                      output.o
mempool_freemem                                   output.o
mempool_new                                       output.o
memset                                            output.o
message_exitcode                                  output.o
message_exitreason                                output.o
mm_flush_wb_cache                                 output.o
mm_force_unlock                                   output.o
mm_process_alloc                                  output.o
mm_process_free                                   output.o
mm_process_map_alloc                              output.o
mm_process_map_shared                             output.o
mm_process_map_shared_physpage                    output.o
mm_process_map_stack                              output.o
mm_process_switch                                 output.o
mm_process_unmap                                  output.o
mm_process_unmap_stack                            output.o
mm_process_unmapall                               output.o
mmio_access_memory                                output.o
mmio_access_page                                  output.o
mmio_lock                                         output.o
mmio_register                                     output.o
mmio_unlock                                       output.o
mmio_unregister                                   output.o
monitor_memset                                    output.o
monitor_vmcs_read                                 output.o
monitor_vmcs_write                                output.o
move_vmm_area32                                   output.o
move_vmm_area64                                   output.o
mpudiv_128_32                                     output.o
mpumul_64_64                                      output.o
msg_findname                                      output.o
msg_register                                      output.o
msg_unregister                                    output.o
msg_unregister2                                   output.o
msg_unregisterall                                 output.o
msg_usb_bulk_read                                 output.o
msg_usb_bulk_write                                output.o
msg_usb_claim_interface                           output.o
msg_usb_close                                     output.o
msg_usb_control_msg                               output.o
msg_usb_find_busses                               output.o
msg_usb_find_devices                              output.o
msg_usb_get_busses                                output.o
msg_usb_get_string_simple                         output.o
msg_usb_init                                      output.o
msg_usb_open                                      output.o
msg_usb_release_interface                         output.o
msg_usb_reset                                     output.o
msg_vpn_FreeTimer                                 output.o
msg_vpn_GetCurrentCpuId                           output.o
msg_vpn_GetPhysicalNicInfo                        output.o
msg_vpn_GetTickCount                              output.o
msg_vpn_GetVirtualNicInfo                         output.o
msg_vpn_NewTimer                                  output.o
msg_vpn_SendPhysicalNic                           output.o
msg_vpn_SendVirtualNic                            output.o
msg_vpn_SetPhysicalNicRecvCallback                output.o
msg_vpn_SetTimer                                  output.o
msg_vpn_SetVirtualNicRecvCallback                 output.o
msg_vpn_ic_rsa_sign                               output.o
msgclose                                          output.o
msgopen                                           output.o
msgpremapbuf                                      output.o
msgregister                                       output.o
msgsendbuf                                        output.o
msgsenddesc                                       output.o
msgsendint                                        output.o
msgsetfunc                                        output.o
msgunregister                                     output.o
mszReaders                                        output.o
name_cmp                                          output.o
newprocess                                        output.o
num_dom                                           output.o
num_of_available_pages                            output.o
num_of_processors                                 output.o
numberOfProtectedApplications                     output.o
numberOfVMs                                       output.o
o2i_ECPublicKey                                   output.o
obj_cleanup_defer                                 output.o
openPage                                          output.o
openSystemCallHandler                             output.o
packet_handle_command                             output.o
packet_handle_config                              output.o
packet_handle_invalid                             output.o
packet_handle_nondata                             output.o
packet_handle_rw                                  output.o
packet_handle_through                             output.o
panic                                             output.o
panic_oom                                         output.o
panic_test                                        output.o
panic_wakeup_all                                  output.o
parse_dmar_bios_report                            output.o
pci_append_device                                 output.o
pci_conceal_config_data_handler                   output.o
pci_conceal_new_device                            output.o
pci_config_addr_handler                           output.o
pci_config_data_handler                           output.o
pci_device_list_head                              output.o
pci_driver_list_head                              output.o
pci_handle_default_config_write                   output.o
pci_possible_new_device                           output.o
pci_print_device                                  output.o
pci_read_config_data16                            output.o
pci_read_config_data32                            output.o
pci_read_config_data8                             output.o
pci_read_config_data_port                         output.o
pci_register_driver                               output.o
pci_restore_config_addr                           output.o
pci_save_config_addr                              output.o
pci_write_config_data16                           output.o
pci_write_config_data32                           output.o
pci_write_config_data8                            output.o
pci_write_config_data_port                        output.o
pcpu_default                                      output.o
pcpu_init                                         output.o
pcpu_list_add                                     output.o
pcpu_list_foreach                                 output.o
pem_check_suffix                                  output.o
phys_in_vmm                                       output.o
phys_to_virt                                      output.o
pmap_autoalloc                                    output.o
pmap_clear                                        output.o
pmap_close                                        output.o
pmap_dump                                         output.o
pmap_getreadlevel                                 output.o
pmap_open_guest                                   output.o
pmap_open_vmm                                     output.o
pmap_pointer                                      output.o
pmap_read                                         output.o
pmap_seek                                         output.o
pmap_setlevel                                     output.o
pmap_write                                        output.o
policy_cache_find_data                            output.o
policy_cache_free                                 output.o
policy_cache_set                                  output.o
policy_cache_set_mapping                          output.o
policy_data_free                                  output.o
policy_data_new                                   output.o
policy_node_cmp_new                               output.o
policy_node_free                                  output.o
policy_node_match                                 output.o
prepare_for_sleep                                 output.o
printexitcode                                     output.o
printexitreason                                   output.o
printf                                            output.o
pro100_alloc_page                                 output.o
pro100_alloc_recv_buffer                          output.o
pro100_beep                                       output.o
pro100_config_read                                output.o
pro100_config_write                               output.o
pro100_exec_cu_op                                 output.o
pro100_flush                                      output.o
pro100_free_page                                  output.o
pro100_generate_int                               output.o
pro100_get_ctx                                    output.o
pro100_get_cu_command_string                      output.o
pro100_get_int_bit_string                         output.o
pro100_get_op_size                                output.o
pro100_get_ru_command_string                      output.o
pro100_get_stat_ack_string                        output.o
pro100_hook_read                                  output.o
pro100_hook_write                                 output.o
pro100_init                                       output.o
pro100_init_cu_base_addr                          output.o
pro100_init_recv_buffer                           output.o
pro100_init_ru_base_addr                          output.o
pro100_init_vpn_client                            output.o
pro100_io_handler                                 output.o
pro100_mem_read                                   output.o
pro100_mem_write                                  output.o
pro100_mm_handler                                 output.o
pro100_new                                        output.o
pro100_poll_ru                                    output.o
pro100_proc_guest_op                              output.o
pro100_read                                       output.o
pro100_read_send_packet                           output.o
pro100_send_packet_to_line                        output.o
pro100_sleep                                      output.o
pro100_wait_cu_ru_accepable                       output.o
pro100_write                                      output.o
pro100_write_recv_packet                          output.o
process_kill                                      output.o
process_syscall                                   output.o
processuser_no_sysenter                           output.o
processuser_syscall                               output.o
processuser_sysenter                              output.o
prohibit_iccard_init                              output.o
protectCurrentApplication                         output.o
protected_application_table                       output.o
protecting                                        output.o
ps2_locked                                        output.o
putchar                                           output.o
putchar_set_func                                  output.o
rand_ssleay_meth                                  output.o
read_gphys_b                                      output.o
read_gphys_l                                      output.o
read_gphys_q                                      output.o
read_gphys_w                                      output.o
read_hphys_b                                      output.o
read_hphys_l                                      output.o
read_hphys_q                                      output.o
read_hphys_w                                      output.o
read_linearaddr_b                                 output.o
read_linearaddr_l                                 output.o
read_linearaddr_q                                 output.o
read_linearaddr_tss                               output.o
read_linearaddr_w                                 output.o
readerState                                       output.o
readerTracker                                     output.o
realloc                                           output.o
reboot_test                                       output.o
register_status_callback                          output.o
remapPage                                         output.o
restore_guest_status                              output.o
restore_register                                  output.o
resume_vm                                         output.o
ret_to_user32                                     output.o
ret_to_user64                                     output.o
ripemd160_block_data_order                        output.o
rsa_asn1_meths                                    output.o
rsa_pkey_meth                                     output.o
rt                                                output.o
s2i_ASN1_INTEGER                                  output.o
s2i_ASN1_OCTET_STRING                             output.o
sReaderContext                                    output.o
saveSystemCallHandlerAddress                      output.o
save_guest_status                                 output.o
savemsr_index                                     output.o
savemsr_load                                      output.o
savemsr_save                                      output.o
scan_gframelist                                   output.o
schedule                                          output.o
security_storage_check_lba                        output.o
segment_init_ap                                   output.o
segment_wakeup                                    output.o
serial_getDebugChar                               output.o
serial_init_iohook                                output.o
serial_putDebugChar                               output.o
serial_putchar                                    output.o
sessionTable                                      output.o
setCurrentProtectedApplication                    output.o
set_int_handler                                   output.o
set_iofunc                                        output.o
setkbdled                                         output.o
shadow_and_activate_urb                           output.o
sig_app                                           output.o
sigx_app                                          output.o
sk_delete                                         output.o
sk_delete_ptr                                     output.o
sk_dup                                            output.o
sk_find                                           output.o
sk_find_ex                                        output.o
sk_free                                           output.o
sk_insert                                         output.o
sk_is_sorted                                      output.o
sk_new                                            output.o
sk_new_null                                       output.o
sk_num                                            output.o
sk_pop                                            output.o
sk_pop_free                                       output.o
sk_push                                           output.o
sk_set                                            output.o
sk_set_cmp_func                                   output.o
sk_shift                                          output.o
sk_sort                                           output.o
sk_unshift                                        output.o
sk_value                                          output.o
sk_zero                                           output.o
sleep_set_timer_counter                           output.o
slotFlag                                          output.o
slotTable                                         output.o
snprintf                                          output.o
start_all_processors                              output.o
storage_free                                      output.o
storage_get_num_hc                                output.o
storage_handle_sectors                            output.o
storage_hc_close                                  output.o
storage_hc_dev_atacommand                         output.o
storage_hc_dev_close                              output.o
storage_hc_dev_open                               output.o
storage_hc_hook_register                          output.o
storage_hc_hook_unregister                        output.o
storage_hc_open                                   output.o
storage_hc_register                               output.o
storage_hc_scandev                                output.o
storage_hc_unregister                             output.o
storage_init                                      output.o
storage_io_aget_size                              output.o
storage_io_aread                                  output.o
storage_io_awrite                                 output.o
storage_io_deinit                                 output.o
storage_io_get_num_devices                        output.o
storage_io_init                                   output.o
storage_new                                       output.o
storage_premap_buf                                output.o
storage_premap_handle_sectors                     output.o
strcmp                                            output.o
string_to_hex                                     output.o
strlen                                            output.o
svm_available                                     output.o
svm_enable_resume                                 output.o
svm_extern_iopass                                 output.o
svm_init                                          output.o
svm_init_signal                                   output.o
svm_ioio                                          output.o
svm_msr_update_lma                                output.o
svm_np_clear_all                                  output.o
svm_np_extern_mapsearch                           output.o
svm_np_init                                       output.o
svm_np_map_1mb                                    output.o
svm_np_pagefault                                  output.o
svm_np_tlbflush                                   output.o
svm_np_updatecr3                                  output.o
svm_paging_apply_fixed_cr0                        output.o
svm_paging_apply_fixed_cr4                        output.o
svm_paging_clear_all                              output.o
svm_paging_extern_flush_tlb_entry                 output.o
svm_paging_flush_guest_tlb                        output.o
svm_paging_get_gpat                               output.o
svm_paging_init                                   output.o
svm_paging_invalidate                             output.o
svm_paging_map_1mb                                output.o
svm_paging_npf                                    output.o
svm_paging_pagefault                              output.o
svm_paging_pg_change                              output.o
svm_paging_set_gpat                               output.o
svm_paging_spt_setcr3                             output.o
svm_paging_start                                  output.o
svm_paging_tlbflush                               output.o
svm_paging_updatecr3                              output.o
svm_panic_dump                                    output.o
svm_read_control_reg                              output.o
svm_read_flags                                    output.o
svm_read_gdtr                                     output.o
svm_read_general_reg                              output.o
svm_read_idtr                                     output.o
svm_read_ip                                       output.o
svm_read_msr                                      output.o
svm_read_sreg_acr                                 output.o
svm_read_sreg_base                                output.o
svm_read_sreg_limit                               output.o
svm_read_sreg_sel                                 output.o
svm_reset                                         output.o
svm_resume                                        output.o
svm_start_vm                                      output.o
svm_vmexit                                        output.o
svm_vminit                                        output.o
svm_write_control_reg                             output.o
svm_write_flags                                   output.o
svm_write_gdtr                                    output.o
svm_write_general_reg                             output.o
svm_write_idtr                                    output.o
svm_write_ip                                      output.o
svm_write_msr                                     output.o
svm_write_realmode_seg                            output.o
svm_writing_sreg                                  output.o
sx_handler                                        output.o
sym_to_phys                                       output.o
sync_all_processors                               output.o
sys_exitprocess                                   output.o
sys_msgclose                                      output.o
sys_msgopen                                       output.o
sys_msgregister                                   output.o
sys_msgret                                        output.o
sys_msgsendbuf                                    output.o
sys_msgsenddesc                                   output.o
sys_msgsendint                                    output.o
sys_msgsetfunc                                    output.o
sys_msgunregister                                 output.o
sys_newprocess                                    output.o
syscallHandlerAddress                             output.o
syscall_entry_lret                                output.o
syscall_entry_sysexit                             output.o
syscall_entry_sysret64                            output.o
syscall_metatata_table                            output.o
tcg_measure                                       output.o
test_gpaToHPA                                     output.o
test_logicalCPUStatus                             output.o
test_start                                        output.o
test_traverseGuestPages                           output.o
thread_exit                                       output.o
thread_gettid                                     output.o
thread_new                                        output.o
thread_set_process_switch                         output.o
thread_start0                                     output.o
thread_start1                                     output.o
thread_switch                                     output.o
thread_wakeup                                     output.o
thread_will_stop                                  output.o
timer_free                                        output.o
timer_new                                         output.o
timer_set                                         output.o
traverseGuestPages                                output.o
traverseIA32ePDPT                                 output.o
traverseIA32ePDT                                  output.o
traverseIA32ePT                                   output.o
traverseIA32ePages                                output.o
tree_find_sk                                      output.o
tty_init_iohook                                   output.o
tty_putchar                                       output.o
tty_udp_register                                  output.o
ttylog_stop                                       output.o
uhci_activate_urb                                 output.o
uhci_check_advance                                output.o
uhci_check_urb_advance                            output.o
uhci_create_urb                                   output.o
uhci_current_frame_number                         output.o
uhci_deactivate_urb                               output.o
uhci_destroy_unlinked_urbs                        output.o
uhci_destroy_urb                                  output.o
uhci_dump_all                                     output.o
uhci_error_status_string                          output.o
uhci_framelist_monitor                            output.o
uhci_init                                         output.o
uhci_monitor_boost_hc                             output.o
uhci_reactivate_urb                               output.o
uhci_shadow_buffer                                output.o
uhci_submit_bulk                                  output.o
uhci_submit_control                               output.o
uhci_submit_interrupt                             output.o
unmapHPAintoHVA                                   output.o
unmapmem                                          output.o
update_mtrr_and_pat                               output.o
usb_bulk_read                                     output.o
usb_bulk_write                                    output.o
usb_busses_head                                   output.o
usb_claim_interface                               output.o
usb_clear_halt                                    output.o
usb_close                                         output.o
usb_control_msg                                   output.o
usb_find_busses                                   output.o
usb_find_devices                                  output.o
usb_get_bus                                       output.o
usb_get_busses                                    output.o
usb_get_descriptor                                output.o
usb_get_descriptor_by_endpoint                    output.o
usb_get_descriptor_early                          output.o
usb_get_string                                    output.o
usb_get_string_simple                             output.o
usb_hc_list_head                                  output.o
usb_hook_process                                  output.o
usb_hook_register                                 output.o
usb_hook_unregister                               output.o
usb_init                                          output.o
usb_init_device_monitor                           output.o
usb_interrupt_read                                output.o
usb_interrupt_write                               output.o
usb_log_level                                     output.o
usb_new_dev_handle                                output.o
usb_open                                          output.o
usb_register_host                                 output.o
usb_release_interface                             output.o
usb_reset                                         output.o
usb_resetep                                       output.o
usb_sc_lock                                       output.o
usb_sc_unlock                                     output.o
usb_set_altinterface                              output.o
usb_set_configuration                             output.o
usb_set_debug                                     output.o
usb_unregister_devices                            output.o
usbccid_init_handle                               output.o
usbhid_init_handle                                output.o
usbhub_init_handle                                output.o
usbmsc_init_handle                                output.o
use_pae                                           output.o
usleep                                            output.o
v2i_ASN1_BIT_STRING                               output.o
v2i_GENERAL_NAME                                  output.o
v2i_GENERAL_NAMES                                 output.o
v2i_GENERAL_NAME_ex                               output.o
v3_akey_id                                        output.o
v3_alt                                            output.o
v3_bcons                                          output.o
v3_cpols                                          output.o
v3_crl_hold                                       output.o
v3_crl_invdate                                    output.o
v3_crl_num                                        output.o
v3_crl_reason                                     output.o
v3_crld                                           output.o
v3_delta_crl                                      output.o
v3_ext_ku                                         output.o
v3_freshest_crl                                   output.o
v3_idp                                            output.o
v3_info                                           output.o
v3_inhibit_anyp                                   output.o
v3_key_usage                                      output.o
v3_name_constraints                               output.o
v3_ns_ia5_list                                    output.o
v3_nscert                                         output.o
v3_ocsp_accresp                                   output.o
v3_ocsp_acutoff                                   output.o
v3_ocsp_crlid                                     output.o
v3_ocsp_nocheck                                   output.o
v3_ocsp_nonce                                     output.o
v3_ocsp_serviceloc                                output.o
v3_pci                                            output.o
v3_pkey_usage_period                              output.o
v3_policy_constraints                             output.o
v3_policy_mappings                                output.o
v3_sinfo                                          output.o
v3_skey_id                                        output.o
v3_sxnet                                          output.o
vcpu_list_foreach                                 output.o
vga_fill_rect                                     output.o
vga_get_screen_size                               output.o
vga_is_ready                                      output.o
vga_register                                      output.o
vga_transfer_image                                output.o
virt_to_phys                                      output.o
vmctl_svm_init                                    output.o
vmctl_vt_init                                     output.o
vmm_base_cr3                                      output.o
vmm_main                                          output.o
vmm_pd                                            output.o
vmm_pd1                                           output.o
vmm_pd2                                           output.o
vmm_pdp                                           output.o
vmm_pml4                                          output.o
vmm_start_inf                                     output.o
vmm_term_inf                                      output.o
vmmcall                                           output.o
vmmcall_boot_continue                             output.o
vmmcall_boot_enable                               output.o
vmmcall_init                                      output.o
vmmcall_register                                  output.o
vmmsize                                           output.o
vpn_FreeTimer                                     output.o
vpn_GetCurrentCpuId                               output.o
vpn_GetPhysicalNicInfo                            output.o
vpn_GetTickCount                                  output.o
vpn_GetVirtualNicInfo                             output.o
vpn_NewTimer                                      output.o
vpn_SendPhysicalNic                               output.o
vpn_SendVirtualNic                                output.o
vpn_SetPhysicalNicRecvCallback                    output.o
vpn_SetTimer                                      output.o
vpn_SetVirtualNicRecvCallback                     output.o
vpn_ic_rsa_sign                                   output.o
vpn_new_nic                                       output.o
vpn_premap_PhysicalNicRecv                        output.o
vpn_premap_VirtualNicRecv                         output.o
vpn_premap_recvbuf                                output.o
vpn_start                                         output.o
vpn_user_init                                     output.o
vprintf                                           output.o
vramwrite_clearscreen                             output.o
vramwrite_exit_global                             output.o
vramwrite_get_cursor_pos                          output.o
vramwrite_init_global                             output.o
vramwrite_mark1                                   output.o
vramwrite_mark2                                   output.o
vramwrite_mark3                                   output.o
vramwrite_putchar                                 output.o
vramwrite_restore_cursor                          output.o
vramwrite_save_and_move_cursor                    output.o
vsnprintf                                         output.o
vt__vmx_init                                      output.o
vt__vmxon                                         output.o
vt_add_guest_msr                                  output.o
vt_available                                      output.o
vt_enable_resume                                  output.o
vt_ept_clear_all                                  output.o
vt_ept_extern_mapsearch                           output.o
vt_ept_init                                       output.o
vt_ept_map_1mb                                    output.o
vt_ept_tlbflush                                   output.o
vt_ept_updatecr3                                  output.o
vt_ept_violation                                  output.o
vt_extern_iopass                                  output.o
vt_generate_external_int                          output.o
vt_generate_pagefault                             output.o
vt_get_current_regs_in_vmcs                       output.o
vt_get_vmcs_regs_in_vmcs                          output.o
vt_init                                           output.o
vt_init_signal                                    output.o
vt_io                                             output.o
vt_iopass                                         output.o
vt_iopass_init                                    output.o
vt_msr_init                                       output.o
vt_msr_update_lma                                 output.o
vt_paging_apply_fixed_cr0                         output.o
vt_paging_apply_fixed_cr4                         output.o
vt_paging_clear_all                               output.o
vt_paging_extern_flush_tlb_entry                  output.o
vt_paging_flush_guest_tlb                         output.o
vt_paging_get_gpat                                output.o
vt_paging_init                                    output.o
vt_paging_invalidate                              output.o
vt_paging_map_1mb                                 output.o
vt_paging_npf                                     output.o
vt_paging_pagefault                               output.o
vt_paging_pg_change                               output.o
vt_paging_set_gpat                                output.o
vt_paging_spt_setcr3                              output.o
vt_paging_start                                   output.o
vt_paging_tlbflush                                output.o
vt_paging_updatecr3                               output.o
vt_panic_dump                                     output.o
vt_read_control_reg                               output.o
vt_read_flags                                     output.o
vt_read_gdtr                                      output.o
vt_read_general_reg                               output.o
vt_read_guest_msr                                 output.o
vt_read_idtr                                      output.o
vt_read_ip                                        output.o
vt_read_msr                                       output.o
vt_read_sreg_acr                                  output.o
vt_read_sreg_base                                 output.o
vt_read_sreg_limit                                output.o
vt_read_sreg_sel                                  output.o
vt_reset                                          output.o
vt_resume                                         output.o
vt_start_vm                                       output.o
vt_update_exception_bmp                           output.o
vt_vmexit                                         output.o
vt_vminit                                         output.o
vt_vmptrld                                        output.o
vt_write_control_reg                              output.o
vt_write_flags                                    output.o
vt_write_gdtr                                     output.o
vt_write_general_reg                              output.o
vt_write_guest_msr                                output.o
vt_write_idtr                                     output.o
vt_write_ip                                       output.o
vt_write_msr                                      output.o
vt_write_realmode_seg                             output.o
vt_writing_sreg                                   output.o
waitcycles                                        output.o
wakeup_cont                                       output.o
wakeup_entry_addr                                 output.o
wakeup_entry_cr0                                  output.o
wakeup_entry_cr3                                  output.o
wakeup_entry_cr4                                  output.o
wakeup_entry_end                                  output.o
wakeup_entry_gdtr                                 output.o
wakeup_entry_start                                output.o
wakeup_init                                       output.o
wakeup_main                                       output.o
whirlpool_block                                   output.o
write_gphys_b                                     output.o
write_gphys_l                                     output.o
write_gphys_q                                     output.o
write_gphys_w                                     output.o
write_hphys_b                                     output.o
write_hphys_l                                     output.o
write_hphys_q                                     output.o
write_hphys_w                                     output.o
write_linearaddr_b                                output.o
write_linearaddr_l                                output.o
write_linearaddr_ok_b                             output.o
write_linearaddr_ok_l                             output.o
write_linearaddr_ok_w                             output.o
write_linearaddr_q                                output.o
write_linearaddr_tss                              output.o
write_linearaddr_w                                output.o
x509_name_ff                                      output.o
zero_page_pool                                    output.o
