
Allocating common symbols
Common symbol       size              file

clflush_size        0x4               output.o
sReaderContext      0x60              output.o
sigx_app            0x8               output.o
d                   0x8               output.o
c                   0x8               output.o
a                   0x8               output.o
b                   0x8               output.o
num_dom             0x4               output.o
mszReaders          0x400             output.o
zero_page_pool      0x400             output.o
prohibit_iccard_init
                    0x4               output.o
curthread           0x8               output.o
sig_app             0x8               output.o
readerState         0x64              output.o
dom_io              0x800             output.o
acpi_dsdt_system_state
                    0x1e              output.o
ehci_host           0x8               output.o
num_of_processors   0x4               output.o
e801_fake_bx        0x2               output.o
iommu_detected      0x1               output.o
dwReaders           0x8               output.o
readerTracker       0x140             output.o
handler_descriptor_lock
                    0x1               output.o
e801_fake_ax        0x2               output.o

Discarded input sections

 .gomi          0x0000000000000000        0xe output.o

Memory Configuration

Name             Origin             Length             Attributes
*default*        0x0000000000000000 0xffffffffffffffff

Linker script and memory map

                0x0000000040100000                virt = 0x40100000
                0x0000000000100000                phys = 0x100000
                0x0000000040100000                . = virt
                0x0000000040100000                head = .
                0x00000000401000b0                . = (virt + SIZEOF_HEADERS)

.text           0x0000000040101000   0x1153d7 load address 0x0000000000101000
                0x0000000040101000                code = .
 *(.entry)
 .entry         0x0000000040101000     0x6000 output.o
                0x000000004010100c                entry
                0x000000004010109a                cpuinit_start
                0x00000000401012c8                vmm_base_cr3
                0x00000000401012e0                apinit_procs
                0x00000000401012e8                apinit_lock
                0x00000000401012f0                cpuinit_end
                0x0000000040103000                entry_pdp
                0x0000000040104000                entry_pd0
                0x0000000040105000                entry_pd
 *(.text)
 .text          0x0000000040107000   0x10f3d7 output.o
                0x000000004010766c                acpi_smi_hook
                0x00000000401076ba                acpi_iohook
                0x000000004010770c                acpi_reset
                0x0000000040107808                acpi_poweroff
                0x0000000040107841                get_acpi_time_raw
                0x000000004010c811                acpi_dsdt_parse
                0x000000004010ccea                apinitproc0
                0x000000004010cd13                apic_available
                0x000000004010cd3f                ap_start_addr
                0x000000004010cf82                panic_wakeup_all
                0x000000004010d006                disable_apic
                0x000000004010d07d                sync_all_processors
                0x000000004010d10d                start_all_processors
                0x000000004010d14c                assertion_failed
                0x000000004010d185                beep_set_freq
                0x000000004010d1b6                beep_on
                0x000000004010d1c6                beep_off
                0x000000004010d80d                update_mtrr_and_pat
                0x000000004010da52                cache_get_gpat
                0x000000004010daa8                cache_set_gpat
                0x000000004010daf2                cache_get_attr
                0x000000004010db98                cache_get_gmtrr_type
                0x000000004010dba3                cache_get_gmtrr_attr
                0x000000004010dbb6                cache_get_gmtrrcap
                0x000000004010dbe4                cache_get_gmtrr
                0x000000004010dd3d                cache_set_gmtrr
                0x000000004010dd97                cache_get_gmsr_amd
                0x000000004010dde7                cache_set_gmsr_amd
                0x000000004010e22b                callrealmode_endofcodeaddr
                0x000000004010e23c                callrealmode_usevcpu
                0x000000004010e249                callrealmode_printmsg
                0x000000004010e266                callrealmode_getsysmemmap
                0x000000004010e2bd                callrealmode_getshiftflags
                0x000000004010e2db                callrealmode_setvideomode
                0x000000004010e2f9                callrealmode_reboot
                0x000000004010e313                callrealmode_tcgbios
                0x000000004010e3a7                callrealmode_disk_readmbr
                0x000000004010e3e7                callrealmode_disk_readlba
                0x000000004010e42f                callrealmode_bootcd_getstatus
                0x000000004010e484                callrealmode_setcursorpos
                0x000000004010e4a9                callrealmode_startkernel32
                0x000000004010e4c9                callrealmode_getfontinfo
                0x000000004010e539                get_cpu_id
                0x000000004010e54d                cpu_emul_cpuid
                0x000000004010e601                cpu_emul_rdmsr
                0x000000004010e67a                cpu_emul_wrmsr
                0x000000004010e703                cpu_emul_hlt
                0x000000004010e71b                cpu_emul_cli
                0x000000004010e754                cpu_emul_sti
                0x000000004010e79b                cpu_emul_realmode_int
                0x000000004010e8fd                cpu_emul_xsetbv
                0x0000000040111118                cpu_interpreter
                0x0000000040113440                cpu_mmu_get_pte
                0x0000000040113bd5                write_linearaddr_ok_b
                0x0000000040113bf7                write_linearaddr_ok_w
                0x0000000040113c02                write_linearaddr_ok_l
                0x0000000040113c0d                write_linearaddr_b
                0x0000000040113c7b                write_linearaddr_w
                0x0000000040113d13                write_linearaddr_l
                0x0000000040113da9                write_linearaddr_q
                0x0000000040113e3d                read_linearaddr_b
                0x0000000040113eaa                read_linearaddr_w
                0x0000000040113f3b                read_linearaddr_l
                0x0000000040113fcc                read_linearaddr_q
                0x000000004011405d                read_linearaddr_tss
                0x00000000401140f0                write_linearaddr_tss
                0x000000004011804f                cpu_mmu_spt_tlbflush
                0x000000004011808a                cpu_mmu_spt_updatecr3
                0x000000004011832a                cpu_mmu_spt_invalidate
                0x00000000401183b2                cpu_mmu_spt_pagefault
                0x00000000401185a9                cpu_mmu_spt_extern_mapsearch
                0x00000000401186e8                cpu_mmu_spt_map_1mb
                0x000000004011889c                cpu_mmu_spt_clear_all
                0x00000000401189fd                cpu_mmu_spt_init
                0x0000000040119011                cpu_seg_read_b
                0x000000004011907e                cpu_seg_read_w
                0x00000000401190eb                cpu_seg_read_l
                0x0000000040119158                cpu_seg_read_q
                0x00000000401191c5                cpu_seg_write_b
                0x0000000040119233                cpu_seg_write_w
                0x00000000401192a1                cpu_seg_write_l
                0x000000004011930e                cpu_seg_write_q
                0x000000004011937b                cpu_stack_get
                0x00000000401193e5                cpu_stack_set
                0x000000004011947a                cpu_stack_push
                0x0000000040119526                cpu_stack_pop
                0x0000000040119611                call_cpuid
                0x00000000401199ca                debug_addstr
                0x00000000401199d0                debug_gdb
                0x00000000401199d6                debug_iohook
                0x00000000401199dc                debug_msgregister
                0x0000000040119a0c                debug_msgunregister
                0x0000000040119aa9                do_exint_pass
                0x0000000040119b47                read_gphys_b
                0x0000000040119bb9                write_gphys_b
                0x0000000040119c3c                read_gphys_w
                0x0000000040119cd9                write_gphys_w
                0x0000000040119d8a                read_gphys_l
                0x0000000040119e27                write_gphys_l
                0x0000000040119edb                read_gphys_q
                0x0000000040119f78                write_gphys_q
                0x000000004011a029                cmpxchg_gphys_l
                0x000000004011a0e7                cmpxchg_gphys_q
                0x000000004011a1a5                gmm_pass_gp2hp
                0x000000004011a66f                idman_reinit_session
                0x000000004011a6ea                idman_reinit2
                0x000000004011a70b                get_idman_session
                0x000000004011a74b                call_initfunc
                0x000000004011a7b0                initfunc_init
                0x000000004011c325                int_fatal
                0x000000004011c684                callfunc_and_getint
                0x000000004011c698                do_externalint_enable
                0x000000004011c6ad                set_int_handler
                0x000000004011c6cc                int_exceptionHandler
                0x000000004011c6d7                int_init_ap
                0x000000004011c72d                do_io_nothing
                0x000000004011c768                set_iofunc
                0x000000004011c80a                call_io
                0x000000004011c8f0                do_iopass_default
                0x000000004011cad6                keyboard_reset
                0x000000004011cb1b                setkbdled
                0x000000004011cb6c                keyboard_flush
                0x000000004011cb86                load_bootsector
                0x000000004011cf41                copy_bootsector
                0x000000004011d1f0                localapic_wait_for_sipi
                0x000000004011d27d                localapic_change_base_msr
                0x000000004011d2c9                localapic_mmio_register
                0x000000004011dc94                resume_vm
                0x000000004011dd4e                vmm_main
                0x000000004011e0d4                getsysmemmap
                0x000000004011e15b                getfakesysmemmap
                0x000000004011e1cd                phys_to_virt
                0x000000004011e1e3                vmm_start_inf
                0x000000004011e1ef                vmm_term_inf
                0x000000004011e200                num_of_available_pages
                0x000000004011e273                alloc_pages
                0x000000004011e2e9                alloc_page
                0x000000004011e2f9                alloc
                0x000000004011e591                alloc2
                0x000000004011e5c9                free
                0x000000004011e6dc                realloc
                0x000000004011e828                free_page
                0x000000004011e83b                free_page_phys
                0x000000004011e85e                mempool_new
                0x000000004011e8cc                mempool_free
                0x000000004011e97d                mempool_allocmem
                0x000000004011eb62                mempool_freemem
                0x000000004011ee1e                sym_to_phys
                0x000000004011ee32                phys_in_vmm
                0x000000004011ee4e                mm_force_unlock
                0x000000004011ee80                mm_process_alloc
                0x000000004011f050                mm_process_free
                0x000000004011f0ad                mm_process_switch
                0x000000004011f0cb                pmap_open_vmm
                0x000000004011f0f6                pmap_open_guest
                0x000000004011f138                pmap_close
                0x000000004011f13e                pmap_getreadlevel
                0x000000004011f14a                pmap_setlevel
                0x000000004011f156                pmap_seek
                0x000000004011f1c6                pmap_read
                0x000000004011f454                pmap_write
                0x000000004011f5ec                mm_process_unmap
                0x000000004011f6d9                mm_process_unmap_stack
                0x000000004011f8b4                mm_process_unmapall
                0x000000004011f95b                pmap_pointer
                0x000000004011f9c6                pmap_clear
                0x000000004011fabc                pmap_autoalloc
                0x000000004011fc69                mm_process_map_alloc
                0x000000004011fdac                mm_process_map_shared_physpage
                0x000000004011fe16                mm_process_map_shared
                0x0000000040120074                mm_process_map_stack
                0x000000004012091e                pmap_dump
                0x0000000040120a36                unmapmem
                0x0000000040120b17                mapmem
                0x000000004012105e                read_hphys_b
                0x00000000401210b3                write_hphys_b
                0x00000000401210e5                read_hphys_w
                0x000000004012111c                write_hphys_w
                0x000000004012114f                read_hphys_l
                0x0000000040121184                write_hphys_l
                0x00000000401211b6                read_hphys_q
                0x00000000401211ed                write_hphys_q
                0x0000000040121221                cmpxchg_hphys_l
                0x0000000040121275                cmpxchg_hphys_q
                0x00000000401212c9                alloc_realmodemem
                0x000000004012136a                mapmem_hphys
                0x0000000040121382                mapmem_gphys
                0x000000004012139a                mm_flush_wb_cache
                0x0000000040121744                mmio_access_memory
                0x00000000401218a2                mmio_access_page
                0x000000004012195e                mmio_register
                0x0000000040121bad                mmio_unregister
                0x0000000040121c34                mmio_lock
                0x0000000040121c4f                mmio_unlock
                0x0000000040121cef                msg_findname
                0x0000000040121d5f                msg_register
                0x0000000040121e2e                msg_unregister
                0x0000000040121ea9                msg_unregisterall
                0x0000000040121f34                msg_unregister2
                0x0000000040122001                call_read_msr
                0x0000000040122015                call_write_msr
                0x00000000401222b1                load_minios
                0x00000000401225e2                backtrace
                0x0000000040122f38                panic
                0x000000004012343d                auto_reboot
                0x000000004012345a                panic_test
                0x000000004012347d                pcpu_list_foreach
                0x00000000401234bc                pcpu_list_add
                0x0000000040123510                pcpu_init
                0x000000004012409a                vprintf
                0x00000000401240d5                printf
                0x0000000040124113                vsnprintf
                0x0000000040124157                snprintf
                0x0000000040124393                sys_msgsetfunc
                0x0000000040124440                sys_msgclose
                0x000000004012445d                sys_msgret
                0x0000000040124549                sys_msgregister
                0x000000004012477a                sys_msgsenddesc
                0x0000000040124f8c                sys_msgsendint
                0x00000000401252bc                sys_newprocess
                0x000000004012531d                sys_msgunregister
                0x00000000401253a9                sys_exitprocess
                0x00000000401253fe                sys_msgsendbuf
                0x0000000040125559                sys_msgopen
                0x00000000401255ba                process_kill
                0x000000004012561b                msgsetfunc
                0x0000000040125630                msgregister
                0x0000000040125646                msgopen
                0x0000000040125659                msgclose
                0x000000004012566b                msgsendint
                0x000000004012567f                msgsenddesc
                0x0000000040125693                newprocess
                0x00000000401256a6                msgsendbuf
                0x00000000401256c0                msgunregister
                0x00000000401256f0                exitprocess
                0x0000000040125703                msgpremapbuf
                0x000000004012581f                process_syscall
                0x00000000401258ca                putchar
                0x0000000040125908                putchar_set_func
                0x0000000040125bda                do_panic_reboot
                0x0000000040125c64                handle_init_to_bsp
                0x0000000040125c85                reboot_test
                0x0000000040125cb4                savemsr_save
                0x0000000040125d21                savemsr_load
                0x0000000040126089                get_seg_base
                0x0000000040126145                get_seg_access_rights
                0x0000000040126165                segment_wakeup
                0x00000000401261a7                segment_init_ap
                0x0000000040126446                serial_putDebugChar
                0x0000000040126458                serial_getDebugChar
                0x000000004012646d                serial_putchar
                0x00000000401264cf                serial_init_iohook
                0x0000000040126515                waitcycles
                0x0000000040126538                usleep
                0x0000000040126657                sleep_set_timer_counter
                0x00000000401267be                vmctl_svm_init
                0x0000000040126866                message_exitcode
                0x0000000040126de9                printexitcode
                0x0000000040126e16                svm_available
                0x0000000040126ec7                svm_reset
                0x0000000040127144                svm_vminit
                0x00000000401274ee                svm_vmexit
                0x00000000401274f4                svm_init
                0x000000004012763b                svm_enable_resume
                0x0000000040127740                svm_resume
                0x0000000040127892                svm_ioio
                0x000000004012799c                svm_extern_iopass
                0x0000000040127b04                svm_init_signal
                0x0000000040127b27                svm_start_vm
                0x0000000040128640                svm_msr_update_lma
                0x00000000401286b5                svm_read_msr
                0x000000004012895a                svm_write_msr
                0x0000000040128ecd                svm_np_init
                0x0000000040128fc1                svm_np_pagefault
                0x0000000040128ff9                svm_np_tlbflush
                0x0000000040128fff                svm_np_updatecr3
                0x000000004012900a                svm_np_clear_all
                0x000000004012909d                svm_np_extern_mapsearch
                0x0000000040129126                svm_np_map_1mb
                0x0000000040129180                svm_paging_extern_flush_tlb_entry
                0x00000000401291a7                svm_paging_map_1mb
                0x00000000401291d1                svm_paging_flush_guest_tlb
                0x0000000040129210                svm_paging_init
                0x000000004012932e                svm_paging_pagefault
                0x000000004012935a                svm_paging_tlbflush
                0x0000000040129381                svm_paging_invalidate
                0x00000000401293af                svm_paging_npf
                0x00000000401293db                svm_paging_updatecr3
                0x0000000040129407                svm_paging_spt_setcr3
                0x000000004012943b                svm_paging_clear_all
                0x0000000040129467                svm_paging_get_gpat
                0x0000000040129472                svm_paging_set_gpat
                0x00000000401294b3                svm_paging_apply_fixed_cr0
                0x00000000401294d6                svm_paging_apply_fixed_cr4
                0x00000000401294fa                svm_paging_pg_change
                0x0000000040129500                svm_paging_start
                0x0000000040129512                svm_panic_dump
                0x00000000401295e0                svm_read_general_reg
                0x000000004012971c                svm_write_general_reg
                0x0000000040129828                svm_read_control_reg
                0x00000000401298c3                svm_write_control_reg
                0x000000004012999f                svm_read_sreg_sel
                0x0000000040129a60                svm_read_sreg_acr
                0x0000000040129b3b                svm_read_sreg_base
                0x0000000040129c57                svm_read_sreg_limit
                0x0000000040129d68                svm_read_ip
                0x0000000040129d87                svm_write_ip
                0x0000000040129dad                svm_read_flags
                0x0000000040129dcc                svm_write_flags
                0x0000000040129de8                svm_read_gdtr
                0x0000000040129e1f                svm_write_gdtr
                0x0000000040129e48                svm_read_idtr
                0x0000000040129e7f                svm_write_idtr
                0x0000000040129ea8                svm_write_realmode_seg
                0x0000000040129fe7                svm_writing_sreg
                0x000000004012a0fe                int1a_TCG_StatusCheck
                0x000000004012a1b1                int1a_TCG_HashLogExtendEvent
                0x000000004012a23c                int1a_TCG_PassThroughToTPM
                0x000000004012a2c7                int1a_TCG_HashLogEvent
                0x000000004012a348                int1a_TCG_HashAll
                0x000000004012a400                int1a_TCG_TSS
                0x000000004012a48b                int1a_TCG_CompactHashLogExtendEvent
                0x000000004012a4ec                tcg_measure
                0x000000004012a7e5                thread_gettid
                0x000000004012a7fa                schedule
                0x000000004012aa40                thread_new
                0x000000004012ab6d                thread_wakeup
                0x000000004012ac52                thread_will_stop
                0x000000004012acca                thread_exit
                0x000000004012ad6e                thread_start1
                0x000000004012ad8c                thread_set_process_switch
                0x000000004012af34                get_cpu_time
                0x000000004012b007                get_acpi_time
                0x000000004012b0b8                get_time
                0x000000004012b295                timer_new
                0x000000004012b316                timer_set
                0x000000004012b40c                timer_free
                0x000000004012b5fe                tty_putchar
                0x000000004012b788                ttylog_stop
                0x000000004012b798                tty_udp_register
                0x000000004012b7dc                tty_init_iohook
                0x000000004012b803                vcpu_list_foreach
                0x000000004012b842                load_new_vcpu
                0x000000004012b904                vga_register
                0x000000004012b978                vga_is_ready
                0x000000004012b9d8                vga_transfer_image
                0x000000004012ba26                vga_fill_rect
                0x000000004012ba61                vga_get_screen_size
                0x000000004012bb85                vmmcall
                0x000000004012bbde                vmmcall_register
                0x000000004012bc1b                vmmcall_init
                0x000000004012bfc5                vmmcall_boot_continue
                0x000000004012c010                vmmcall_boot_enable
                0x000000004012c897                register_status_callback
                0x000000004012c98c                vramwrite_clearscreen
                0x000000004012c9ee                vramwrite_putchar
                0x000000004012cbc5                vramwrite_mark1
                0x000000004012cc06                vramwrite_mark2
                0x000000004012cc4e                vramwrite_mark3
                0x000000004012cc97                vramwrite_save_and_move_cursor
                0x000000004012ccce                vramwrite_restore_cursor
                0x000000004012cce0                vramwrite_get_cursor_pos
                0x000000004012cd2e                vramwrite_init_global
                0x000000004012cd3b                vramwrite_exit_global
                0x000000004012cdee                vt_generate_pagefault
                0x000000004012ce77                vt_generate_external_int
                0x000000004012cec9                vmctl_vt_init
                0x000000004012cf71                vt_vmptrld
                0x000000004012d282                vt_ept_init
                0x000000004012d37e                vt_ept_violation
                0x000000004012d6ee                vt_ept_tlbflush
                0x000000004012d6f4                vt_ept_updatecr3
                0x000000004012d7e6                vt_ept_clear_all
                0x000000004012d879                vt_ept_extern_mapsearch
                0x000000004012d902                vt_ept_map_1mb
                0x000000004012d954                message_exitreason
                0x000000004012daba                printexitreason
                0x000000004012e34c                vt_available
                0x000000004012e3eb                vt__vmx_init
                0x000000004012e433                vt__vmxon
                0x000000004012e4e0                vt_vminit
                0x000000004012e53c                vt_vmexit
                0x000000004012e556                vt_init
                0x000000004012e566                vt_enable_resume
                0x000000004012e69f                vt_resume
                0x000000004012e835                vt_io
                0x000000004012e956                vt_iopass_init
                0x000000004012eaeb                vt_iopass
                0x000000004012eb2e                vt_extern_iopass
                0x000000004012f75e                vt_update_exception_bmp
                0x000000004012fd29                vt_init_signal
                0x000000004012fd34                vt_start_vm
                0x000000004013010a                vt_add_guest_msr
                0x0000000040130262                vt_read_guest_msr
                0x0000000040130295                vt_write_guest_msr
                0x00000000401302c5                vt_msr_update_lma
                0x000000004013039d                vt_read_msr
                0x0000000040130643                vt_write_msr
                0x0000000040130901                vt_msr_init
                0x0000000040130b03                vt_paging_extern_flush_tlb_entry
                0x0000000040130b67                vt_paging_map_1mb
                0x0000000040130b87                vt_paging_flush_guest_tlb
                0x0000000040130be7                vt_paging_pagefault
                0x0000000040130c1c                vt_paging_tlbflush
                0x0000000040130c39                vt_paging_invalidate
                0x0000000040130c6c                vt_paging_npf
                0x0000000040130ca1                vt_paging_updatecr3
                0x0000000040130cd1                vt_paging_spt_setcr3
                0x0000000040130cfc                vt_paging_clear_all
                0x0000000040130d2f                vt_paging_get_gpat
                0x0000000040130d3a                vt_paging_set_gpat
                0x0000000040130d8e                vt_paging_apply_fixed_cr0
                0x0000000040130df6                vt_paging_apply_fixed_cr4
                0x0000000040130e3e                vt_paging_pg_change
                0x0000000040130fbe                vt_paging_init
                0x0000000040131039                vt_paging_start
                0x0000000040131066                vt_panic_dump
                0x0000000040131210                vt_read_general_reg
                0x0000000040131331                vt_write_general_reg
                0x0000000040131425                vt_read_control_reg
                0x0000000040131493                vt_read_sreg_sel
                0x000000004013159c                vt_read_sreg_acr
                0x00000000401315f3                vt_read_sreg_base
                0x0000000040131675                vt_read_sreg_limit
                0x00000000401316f2                vt_read_ip
                0x0000000040131700                vt_write_ip
                0x0000000040131720                vt_read_flags
                0x0000000040131746                vt_write_flags
                0x0000000040131771                vt_read_gdtr
                0x0000000040131786                vt_write_gdtr
                0x000000004013179b                vt_read_idtr
                0x00000000401317df                vt_write_idtr
                0x0000000040131815                vt_write_control_reg
                0x0000000040131ce8                vt_get_current_regs_in_vmcs
                0x0000000040131f73                vt_get_vmcs_regs_in_vmcs
                0x00000000401320f0                vt_write_realmode_seg
                0x0000000040132239                vt_writing_sreg
                0x00000000401322c2                vt_reset
                0x00000000401325a0                prepare_for_sleep
                0x0000000040132661                cancel_sleep
                0x0000000040132683                wakeup_main
                0x000000004013270b                wakeup_cont
                0x0000000040132840                wakeup_init
                0x0000000040132889                call_xsetbv
                0x0000000040132900                mpumul_64_64
                0x0000000040132920                mpudiv_128_32
                0x0000000040132940                ipchecksum
                0x00000000401329d0                asm_vmlaunch_regs_32
                0x0000000040132a50                asm_vmresume_regs_32
                0x0000000040132ad0                asm_vmrun_regs_32
                0x0000000040132b30                asm_vmlaunch_regs_64
                0x0000000040132c10                asm_vmresume_regs_64
                0x0000000040132cf0                asm_vmrun_regs_64
                0x0000000040132d91                callrealmode_start
                0x0000000040132da7                callrealmode_start2
                0x0000000040133233                move_vmm_area32
                0x0000000040133233                callrealmode_end
                0x0000000040133258                move_vmm_area64
                0x0000000040133280                int_handler
                0x00000000401332f8                int_callfunc
                0x0000000040134000                syscall_entry_sysexit
                0x000000004013402c                syscall_entry_lret
                0x000000004013405c                ret_to_user32
                0x0000000040134068                syscall_entry_sysret64
                0x00000000401340b0                ret_to_user64
                0x0000000040135000                processuser_sysenter
                0x0000000040136000                processuser_no_sysenter
                0x0000000040137000                processuser_syscall
                0x0000000040138140                memset
                0x00000000401381c0                memcpy
                0x0000000040138200                strcmp
                0x0000000040138240                memcmp
                0x0000000040138280                strlen
                0x0000000040138298                sx_handler
                0x00000000401382f0                thread_switch
                0x0000000040138310                thread_start0
                0x000000004013834a                get_guest_cr3_value
                0x0000000040138358                get_guest_eptp_value
                0x0000000040138366                monitor_vmcs_read
                0x000000004013836f                monitor_vmcs_write
                0x0000000040138378                hypercall_handler
                0x00000000401383d1                interrupt_handler
                0x00000000401384a1                get_page_table_base_GPA
                0x00000000401384b7                get_ept_base_HPA
                0x00000000401384cd                traverseGuestPages
                0x00000000401384d8                saveSystemCallHandlerAddress
                0x0000000040138524                closeSystemCallHandler
                0x0000000040138573                openSystemCallHandler
                0x00000000401385c2                getSystemCallHandlerGPA
                0x00000000401385cf                save_guest_status
                0x0000000040138949                clear_guest_status
                0x0000000040138c37                restore_guest_status
                0x0000000040138f51                getTSSGVA
                0x0000000040138f61                getGuestRSP
                0x0000000040138f86                allocateNewVMID
                0x0000000040138f9c                allocateNewAppID
                0x0000000040138fb4                allocateNewApplicationIdentifiers
                0x0000000040138fde                protectCurrentApplication
                0x0000000040139020                getMemoryOwnershipTableIndex
                0x000000004013902d                remapPage
                0x0000000040139077                changePageStatus
                0x00000000401391ae                closePage
                0x000000004013929a                openPage
                0x000000004013933b                getMemoryOwnershipTableEntry
                0x0000000040139373                initializeNewProtectedApplication
                0x000000004013939c                getCurrentProtectedApplication
                0x0000000040139424                findProtectedApplicationFromRIP
                0x00000000401394e6                setCurrentProtectedApplication
                0x00000000401394f3                traverseIA32ePages
                0x000000004013983b                traverseIA32ePDPT
                0x0000000040139ac4                traverseIA32ePDT
                0x0000000040139c98                traverseIA32ePT
                0x0000000040139dc5                gvaToGPA
                0x000000004013a053                mapHPAintoHVA
                0x000000004013a063                gpaToHPA
                0x000000004013a25e                unmapHPAintoHVA
                0x000000004013a269                monitor_memset
                0x000000004013a283                virt_to_phys
                0x000000004013a290                test_gpaToHPA
                0x000000004013a2d9                test_start
                0x000000004013a337                test_traverseGuestPages
                0x000000004013a377                test_logicalCPUStatus
                0x000000004013a39e                restore_register
                0x000000004013a44b                handleSystemCall
                0x000000004013a471                initPagePool
                0x000000004013a4a3                findUnmappedPage
                0x000000004013a4dd                allocateNewZeroPage
                0x000000004013a540                core_init
                0x000000004013a551                core_mm_read_guest_phys
                0x000000004013a5cb                core_mm_write_guest_phys
                0x000000004013a645                alloc_handler_descriptor
                0x000000004013a655                core_io_modify_handler
                0x000000004013a716                core_io_unregister_handler
                0x000000004013a79d                core_io_handle_default
                0x000000004013aa35                panic_oom
                0x000000004013aa48                core_io_register_handler
                0x000000004013ab90                matched_drhd_u
                0x000000004013abee                parse_dmar_bios_report
                0x000000004013ac39                ieee1394_init
                0x000000004013ac72                iommu_setup
                0x000000004013ac78                iodom_init
                0x000000004013ae48                add_remap
                0x000000004013aed2                create_dom
                0x000000004013b201                pci_conceal_new_device
                0x000000004013b5d7                pci_conceal_config_data_handler
                0x000000004013b5fc                pci_save_config_addr
                0x000000004013b60e                pci_restore_config_addr
                0x000000004013b620                pci_append_device
                0x000000004013b652                pci_config_data_handler
                0x000000004013b985                pci_config_addr_handler
                0x000000004013b9ce                pci_register_driver
                0x000000004013ba6d                pci_read_config_data8
                0x000000004013bab3                pci_read_config_data16
                0x000000004013bafa                pci_read_config_data32
                0x000000004013bb40                pci_write_config_data8
                0x000000004013bb86                pci_write_config_data16
                0x000000004013bbcd                pci_write_config_data32
                0x000000004013bc13                pci_read_config_data_port
                0x000000004013bc45                pci_write_config_data_port
                0x000000004013bc7b                pci_handle_default_config_write
                0x000000004013bcae                pci_print_device
                0x000000004013c019                pci_possible_new_device
                0x000000004013c041                security_storage_check_lba
                0x000000004013f376                ahci_new
                0x000000004013f600                ahci_config_read
                0x000000004013f667                ahci_config_write
                0x000000004013f91f                ata_bm_handle_command
                0x000000004013fa56                ata_bm_handle_status
                0x000000004013fb07                ata_bm_handle_prd_table
                0x000000004013fc06                ata_bm_handler
                0x000000004013fd09                ata_get_cmd_type
                0x0000000040140073                ata_handle_queued_status
                0x0000000040140a39                ata_channel_lock
                0x0000000040140ab5                ata_channel_unlock
                0x0000000040140adc                ata_cmdblk_handler
                0x0000000040140bee                ata_ctlblk_handler
                0x000000004014181f                ata_ahci_mode
                0x0000000040141d25                ata_init_io_handler
                0x0000000040141dca                ata_set_bm_handler
                0x0000000040141e21                ata_set_cmdblk_handler
                0x0000000040141e5a                ata_set_ctlblk_handler
                0x0000000040141e95                ata_config_read
                0x0000000040141f3b                ata_config_write
                0x00000000401420b5                ata_init_vendor
                0x00000000401420dc                ata_bm_handle_device_specific
                0x00000000401421e0                atapi_handle_config_data
                0x0000000040142420                atapi_handle_interrupt_reason
                0x0000000040142466                atapi_handle_pio_identify_packet
                0x0000000040142600                atapi_handle_packet_data
                0x000000004014260b                atapi_handle_cmd_packet
                0x0000000040142689                packet_handle_through
                0x00000000401426bc                packet_handle_nondata
                0x00000000401426d6                packet_handle_config
                0x0000000040142720                packet_handle_rw
                0x00000000401427a1                packet_handle_invalid
                0x00000000401427bb                packet_handle_command
                0x00000000401427f0                uhci_init
                0x000000004014306f                uhci_current_frame_number
                0x0000000040143090                dump_td_byvirt
                0x0000000040143269                dump_td
                0x000000004014333b                dump_qh
                0x0000000040143510                dump_frame
                0x000000004014361a                uhci_dump_all
                0x00000000401437dc                uhci_error_status_string
                0x0000000040143abb                uhci_shadow_buffer
                0x0000000040143d3e                uhci_framelist_monitor
                0x0000000040145cbe                scan_gframelist
                0x000000004014656b                uhci_create_urb
                0x00000000401466cf                uhci_destroy_urb
                0x00000000401467fc                uhci_destroy_unlinked_urbs
                0x00000000401468d1                uhci_deactivate_urb
                0x0000000040146c5e                uhci_activate_urb
                0x000000004014721a                uhci_reactivate_urb
                0x00000000401472c0                uhci_submit_control
                0x00000000401478f4                uhci_submit_interrupt
                0x000000004014795c                uhci_submit_bulk
                0x00000000401479c4                uhci_check_urb_advance
                0x00000000401479ff                uhci_check_advance
                0x0000000040147c05                init_hframelist
                0x0000000040147ee1                ehci_conceal_portroute
                0x0000000040147f29                ehci_init
                0x0000000040149ce7                ehci_dump_qtd
                0x0000000040149d5a                ehci_dump_qtdm
                0x0000000040149d8f                ehci_dump_alist
                0x0000000040149e52                ehci_dump_urblist
                0x0000000040149ee8                ehci_dump_urb
                0x000000004014a3a5                ehci_dump_async
                0x000000004014a826                ehci_dump_all
                0x000000004014bda3                ehci_shadow_buffer
                0x000000004014c05f                get_gurb_by_address
                0x000000004014c0f5                shadow_and_activate_urb
                0x000000004014c3d9                ehci_deactivate_urb
                0x000000004014c573                deactivate_and_delete_urb
                0x000000004014c7dc                ehci_check_urb_advance
                0x000000004014c9a6                ehci_check_advance
                0x000000004014cbf4                ehci_shadow_async_list
                0x000000004014cd0e                ehci_cleanup_urbs
                0x000000004014ce7b                ehci_end_monitor_async
                0x000000004014cee4                ehci_monitor_async_list
                0x000000004014d5a3                ehci_submit_control
                0x000000004014db33                ehci_submit_bulk
                0x000000004014db3e                ehci_submit_interrupt
                0x000000004014f6e3                usbmsc_init_handle
                0x000000004014fabe                usbhub_init_handle
                0x000000004014fb37                hub_portdevice_register
                0x0000000040150200                usbccid_init_handle
                0x0000000040150320                usb_set_debug
                0x000000004015032c                usb_init
                0x0000000040150332                usb_find_busses
                0x0000000040150413                usb_get_busses
                0x0000000040150420                usb_get_bus
                0x000000004015044f                usb_find_devices
                0x000000004015049f                usb_open
                0x0000000040150509                usb_close
                0x0000000040150519                usb_resetep
                0x0000000040150524                usb_clear_halt
                0x000000004015052f                usb_reset
                0x000000004015053a                usb_claim_interface
                0x0000000040150548                usb_release_interface
                0x000000004015055a                usb_set_configuration
                0x0000000040150805                usb_set_altinterface
                0x0000000040150ab2                usb_control_msg
                0x0000000040150e01                usb_get_string
                0x000000004015113c                usb_get_string_simple
                0x000000004015133c                usb_get_descriptor
                0x000000004015167d                usb_get_descriptor_early
                0x00000000401519c6                usb_get_descriptor_by_endpoint
                0x0000000040151d0c                usb_bulk_write
                0x0000000040151f40                usb_interrupt_write
                0x0000000040152172                usb_bulk_read
                0x000000004015242e                usb_interrupt_read
                0x00000000401526ed                usb_register_host
                0x0000000040152808                usb_unregister_devices
                0x000000004015283a                usb_sc_lock
                0x00000000401528b2                usb_sc_unlock
                0x0000000040152fc8                free_config_descriptors
                0x0000000040153119                free_device
                0x0000000040153285                handle_connect_status
                0x0000000040153380                handle_port_reset
                0x0000000040153461                dprintf_port
                0x0000000040154409                usb_init_device_monitor
                0x0000000040154473                usb_new_dev_handle
                0x0000000040154524                usbhid_init_handle
                0x000000004015465a                usb_hook_process
                0x000000004015495a                usb_hook_register
                0x0000000040154a34                usb_hook_unregister
                0x0000000040154ab8                _dprintf
                0x0000000040154b05                _dprintft
                0x0000000040154bb8                pro100_io_handler
                0x0000000040154bc3                pro100_config_read
                0x0000000040154bd8                pro100_config_write
                0x0000000040154d02                pro100_init
                0x0000000040154d1c                pro100_init_vpn_client
                0x0000000040154d5b                pro100_sleep
                0x0000000040154d8b                pro100_beep
                0x0000000040154db5                pro100_get_ctx
                0x0000000040154e58                pro100_alloc_page
                0x0000000040154e92                pro100_free_page
                0x0000000040154eb7                pro100_get_op_size
                0x0000000040154efa                pro100_mem_read
                0x0000000040154f70                pro100_read_send_packet
                0x0000000040155182                pro100_mem_write
                0x00000000401551f6                pro100_write
                0x0000000040155269                pro100_read
                0x00000000401552e8                pro100_wait_cu_ru_accepable
                0x0000000040155323                pro100_init_cu_base_addr
                0x0000000040155383                pro100_init_ru_base_addr
                0x00000000401553e3                pro100_flush
                0x00000000401553fe                pro100_exec_cu_op
                0x0000000040155542                pro100_send_packet_to_line
                0x000000004015567f                pro100_generate_int
                0x00000000401556af                pro100_write_recv_packet
                0x000000004015582b                pro100_proc_guest_op
                0x0000000040155a36                pro100_get_int_bit_string
                0x0000000040155aac                pro100_get_stat_ack_string
                0x0000000040155b17                pro100_get_cu_command_string
                0x0000000040155b99                pro100_get_ru_command_string
                0x0000000040155be3                pro100_init_recv_buffer
                0x0000000040155d1a                pro100_poll_ru
                0x0000000040155e15                pro100_hook_write
                0x00000000401560db                pro100_hook_read
                0x0000000040156292                pro100_mm_handler
                0x00000000401563e6                pro100_alloc_recv_buffer
                0x0000000040156453                pro100_new
                0x00000000401586a3                storage_premap_buf
                0x00000000401586ae                storage_premap_handle_sectors
                0x00000000401589e2                storage_get_num_hc
                0x0000000040158a14                storage_hc_open
                0x0000000040158b08                storage_hc_close
                0x0000000040158b52                storage_hc_hook_register
                0x0000000040158bc9                storage_hc_hook_unregister
                0x0000000040158c63                storage_hc_register
                0x0000000040158e41                storage_hc_unregister
                0x0000000040158f4a                storage_hc_scandev
                0x0000000040158f91                storage_hc_dev_open
                0x00000000401590ce                storage_hc_dev_atacommand
                0x00000000401592a5                storage_hc_dev_close
                0x000000004015936d                storage_io_init
                0x0000000040159382                storage_io_deinit
                0x000000004015938d                storage_io_get_num_devices
                0x000000004015944b                storage_io_aget_size
                0x00000000401595bd                storage_io_aread
                0x00000000401597fe                storage_io_awrite
                0x0000000040159f82                storage_handle_sectors
                0x000000004015a1cb                storage_new
                0x000000004015a412                storage_free
                0x000000004015a611                storage_init
                0x000000004015a845                aes_xts_init
                0x000000004015a878                crypto_find
                0x000000004015a8cb                crypto_register
                0x000000004015a91b                crypto_init
                0x000000004015a972                crypto_none_init
                0x000000004015a9aa                vpn_GetCurrentCpuId
                0x000000004015a9b5                vpn_GetTickCount
                0x000000004015a9e5                vpn_NewTimer
                0x000000004015a9ff                vpn_SetTimer
                0x000000004015aa13                vpn_FreeTimer
                0x000000004015aa1e                vpn_GetPhysicalNicInfo
                0x000000004015aa2d                vpn_SendPhysicalNic
                0x000000004015aa3c                vpn_SetPhysicalNicRecvCallback
                0x000000004015aa4b                vpn_GetVirtualNicInfo
                0x000000004015aa5b                vpn_SendVirtualNic
                0x000000004015aa6b                vpn_SetVirtualNicRecvCallback
                0x000000004015aa7b                vpn_premap_PhysicalNicRecv
                0x000000004015aa94                vpn_premap_VirtualNicRecv
                0x000000004015aaad                vpn_premap_recvbuf
                0x000000004015aab8                vpn_ic_rsa_sign
                0x000000004015ab51                vpn_new_nic
                0x000000004015b161                msg_vpn_GetCurrentCpuId
                0x000000004015b17b                msg_vpn_ic_rsa_sign
                0x000000004015b227                msg_vpn_GetTickCount
                0x000000004015b265                msg_vpn_GetPhysicalNicInfo
                0x000000004015b2c9                msg_vpn_SendPhysicalNic
                0x000000004015b383                msg_vpn_SetPhysicalNicRecvCallback
                0x000000004015b3cf                msg_vpn_GetVirtualNicInfo
                0x000000004015b433                msg_vpn_SendVirtualNic
                0x000000004015b4ed                msg_vpn_SetVirtualNicRecvCallback
                0x000000004015b539                msg_vpn_NewTimer
                0x000000004015b5a9                msg_vpn_SetTimer
                0x000000004015b67c                msg_vpn_FreeTimer
                0x000000004015b6e2                vpn_start
                0x000000004015ba6c                vpn_user_init
                0x000000004015bad0                SeFreeConfigEntryList
                0x000000004015bb2e                SeGetConfigEntry
                0x000000004015bb9f                SeGetConfigStr
                0x000000004015bbcc                SeGetConfigBool
                0x000000004015bc78                SeGetConfigInt
                0x000000004015bc9c                SeGetConfigInt64
                0x000000004015bcc0                SeGetConfigBin
                0x000000004015bce4                SeIsSplitChar
                0x000000004015bd57                SeGetKeyAndValue
                0x000000004015bee7                SeLoadConfigEntryListFromBuf
                0x000000004015c05f                SeLoadConfigEntryList
                0x000000004015c0b0                SePKeyPasswordCallbackFunction
                0x000000004015c0dd                SeDhFree
                0x000000004015c117                SeRsaVerifyWithPadding
                0x000000004015c1f1                SeRsaSignWithPadding
                0x000000004015c2b5                SeRsaPublicDecrypt
                0x000000004015c35e                SeRsaPrivateEncrypt
                0x000000004015c407                SeRsaPrivateDecrypt
                0x000000004015c4a8                SeRsaPublicEncrypt
                0x000000004015c549                SeGetCertSha1
                0x000000004015c591                SeGetCertMd5
                0x000000004015c5d9                SeBinToBigNum
                0x000000004015c624                SeBufToBigNum
                0x000000004015c63f                SeDhCompute
                0x000000004015c6cb                SeBigNumToBuf
                0x000000004015c764                SeRsaPublicSize
                0x000000004015c7af                SeRsaPublicToBin
                0x000000004015c813                SeRsaPublicToBuf
                0x000000004015c857                SeDhNew
                0x000000004015c92d                SeDhNewGroup2
                0x000000004015c942                SeCheckSignature
                0x000000004015c96c                SeGetKeyFromCert
                0x000000004015c9a8                SeCompareCert
                0x000000004015c9d2                SeCheckCertAndKey
                0x000000004015c9fc                SeIsBase64
                0x000000004015cabd                SeFreePKey
                0x000000004015cacd                SeFreeKey
                0x000000004015caf5                SeIsCertSignedByCert
                0x000000004015cb65                SeCheckCert
                0x000000004015cbcb                SeBioToKey
                0x000000004015ccd9                SeGetCertIssuerName
                0x000000004015cd65                SeGetCertSubjectName
                0x000000004015cdef                SeFreeX509
                0x000000004015cdff                SeFreeCert
                0x000000004015ce2d                SeFreeBio
                0x000000004015ce3d                SeNewBio
                0x000000004015ce50                SeCertToBio
                0x000000004015ceb1                SeKeyToBio
                0x000000004015cfad                SeRsaGen
                0x000000004015d118                SeBioToBuf
                0x000000004015d1b9                SeCertToBuf
                0x000000004015d204                SeSaveCert
                0x000000004015d265                SeKeyToBuf
                0x000000004015d2b0                SeSaveKey
                0x000000004015d314                SeX509ToCert
                0x000000004015d3cc                SeBioToCert
                0x000000004015d417                SeBigNumToStr
                0x000000004015d483                SeBufToBio
                0x000000004015d4dc                SeBufToKey
                0x000000004015d548                SeLoadKey
                0x000000004015d5f3                SeCloneKey
                0x000000004015d65d                SeBufToCert
                0x000000004015d6b2                SeLoadCert
                0x000000004015d6ff                SeCloneCert
                0x000000004015d750                SeSha1
                0x000000004015d770                SeHashForSignBySHA1
                0x000000004015d81a                SeRsaSignWithSha1
                0x000000004015d8bd                SeRsaVerifyWithSha1
                0x000000004015d95f                SeMacSha1
                0x000000004015dab6                SeMacSha196
                0x000000004015dafd                SeMd5
                0x000000004015db1d                SeDes3Encrypt
                0x000000004015dbb5                SeDes3Decrypt
                0x000000004015dc4f                SeDesNewKeyValue
                0x000000004015dca1                SeDes3NewKey
                0x000000004015dd22                SeDesNewKey
                0x000000004015dd33                SeDesRandKeyValue
                0x000000004015dd4f                SeDesRandKey
                0x000000004015dd99                SeDes3RandKey
                0x000000004015dde2                SeDesFreeKeyValue
                0x000000004015de0a                SeDes3FreeKey
                0x000000004015de44                SeDesFreeKey
                0x000000004015de4f                SeRand
                0x000000004015de63                SeRand64
                0x000000004015de7f                SeRand32
                0x000000004015de9a                SeRand16
                0x000000004015deb6                SeRand8
                0x000000004015ded2                SeRand1
                0x000000004015dee5                SeInitCrypto
                0x000000004015df28                SeFreeCrypto
                0x000000004015df40                SeIkeStrToPassword
                0x000000004015dfad                SeIkePhase1CryptIdToKeySize
                0x000000004015dfcc                SeIkePhase2CryptIdToKeySize
                0x000000004015dfeb                SeIkeStrToPhase1CryptId
                0x000000004015e051                SeIkeStrToPhase1HashId
                0x000000004015e090                SeIkeStrToPhase2CryptId
                0x000000004015e0fb                SeIkeStrToPhase2HashId
                0x000000004015e13a                SeIkeIsZeroIP
                0x000000004015e168                SeIkeInitIPv6Address
                0x000000004015e1b5                SeIkeInitIPv4Address
                0x000000004015e1f8                SeIkeGetIPv6Address
                0x000000004015e232                SeIkeGetIPv4Address
                0x000000004015e24b                SeIkeIpAddressToStr
                0x000000004015e2a5                SeIkeBuildDataPayload
                0x000000004015e2ee                SeIkeBuildTransformValue
                0x000000004015e3a8                SeIkeBuildTransformValueList
                0x000000004015e410                SeIkeBuildTransformPayload
                0x000000004015e48d                SeIkeBuildIdPayload
                0x000000004015e504                SeIkeBuildCertPayload
                0x000000004015e567                SeIkeBuildCertRequestPayload
                0x000000004015e5ca                SeIkeBuildNoticePayload
                0x000000004015e657                SeIkeBuildDeletePayload
                0x000000004015e727                SeIkeGetFirstPayloadType
                0x000000004015e746                SeIkeBuildPayloadList
                0x000000004015e851                SeIkeBuildProposalPayload
                0x000000004015e8fc                SeIkeBuildSaPayload
                0x000000004015e985                SeIkeBuildPayload
                0x000000004015ea5e                SeIkeGetPayload
                0x000000004015eaac                SeIkeGetPayloadNum
                0x000000004015eae8                SeIkeNewPayload
                0x000000004015eb06                SeIkeNewDataPayload
                0x000000004015eb56                SeIkeNewSaPayload
                0x000000004015eb81                SeIkeNewProposalPayload
                0x000000004015ec0b                SeIkeNewTransformPayload
                0x000000004015ec56                SeIkeNewIdPayload
                0x000000004015ecd6                SeIkeNewCertPayload
                0x000000004015ed3a                SeIkeNewCertRequestPayload
                0x000000004015ed9e                SeIkeNewNoticePayload
                0x000000004015ee3a                SeIkeNewDeletePayload
                0x000000004015ee76                SeIkeNewTransformValue
                0x000000004015eea5                SeIkeFreeTransformValueList
                0x000000004015eee1                SeIkeParseTransformValueList
                0x000000004015f04d                SeIkeParseTransformPayload
                0x000000004015f0b9                SeIkeFreeTransformPayload
                0x000000004015f0e7                SeIkeParseIdPayload
                0x000000004015f164                SeIkeFreeIdPayload
                0x000000004015f192                SeIkeParseCertPayload
                0x000000004015f1fb                SeIkeFreeCertPayload
                0x000000004015f229                SeIkeParseCertRequestPayload
                0x000000004015f292                SeIkeFreeCertRequestPayload
                0x000000004015f2c0                SeIkeParseNoticePayload
                0x000000004015f384                SeIkeFreeNoticePayload
                0x000000004015f3c8                SeIkeFreeDeletePayload
                0x000000004015f427                SeIkeParseDeletePayload
                0x000000004015f535                SeIkeParseDataPayload
                0x000000004015f56f                SeIkeFreeDataPayload
                0x000000004015f582                SeIkeFreePayloadList
                0x000000004015f5be                SeIkeParsePayloadListEx
                0x000000004015f741                SeIkeParsePayloadList
                0x000000004015f754                SeIkeParseProposalPayload
                0x000000004015f804                SeIkeParseSaPayload
                0x000000004015f8d1                SeIkeParsePayload
                0x000000004015f9d1                SeIkeFreeProposalPayload
                0x000000004015fa15                SeIkeFreeSaPayload
                0x000000004015fa41                SeIkeFreePayload
                0x000000004015fae8                SeIkeEncrypt
                0x000000004015fba3                SeIkeEncryptWithPadding
                0x000000004015fc53                SeIkeBuild
                0x000000004015fdac                SeIkeDecrypt
                0x000000004015fe67                SeIkeFree
                0x000000004015fea3                SeIkeParseEx
                0x000000004016008b                SeIkeParse
                0x000000004016009b                SeIkeParseHeader
                0x00000000401600ab                SeIkeNew
                0x0000000040160130                VPN_IPsec_Client_Start
                0x0000000040160156                VPN_IPsec_Client_Stop
                0x0000000040160166                SeIntInit
                0x0000000040160189                SeIntFree
                0x00000000401601a3                VPN_IPsec_Init
                0x00000000401601ff                VPN_IPsec_Free
                0x0000000040160231                SeSysMemoryAlloc
                0x000000004016024d                SeSysMemoryReAlloc
                0x0000000040160276                SeSysMemoryFree
                0x000000004016028e                SeSysGetCurrentCpuId
                0x00000000401602a6                SeSysNewLock
                0x00000000401602be                SeSysLock
                0x00000000401602d6                SeSysUnlock
                0x00000000401602ee                SeSysFreeLock
                0x0000000040160306                SeSysGetTickCount
                0x000000004016031e                SeSysNewTimer
                0x0000000040160342                SeSysSetTimer
                0x000000004016035a                SeSysFreeTimer
                0x0000000040160372                SeSysGetPhysicalNicInfo
                0x000000004016038f                SeSysSendPhysicalNic
                0x00000000401603b5                SeSysSetPhysicalNicRecvCallback
                0x00000000401603d7                SeSysGetVirtualNicInfo
                0x00000000401603f4                SeSysSendVirtualNic
                0x000000004016041d                SeSysSetVirtualNicRecvCallback
                0x0000000040160442                SeSysSaveData
                0x0000000040160469                SeSysLoadData
                0x0000000040160490                SeSysFreeData
                0x00000000401604ab                SeSysRsaSign
                0x00000000401604e3                SeSysLog
                0x0000000040160511                SeRsaSign
                0x00000000401605b0                Se4ParseIpPacketUDPv4
                0x00000000401606ab                Se4FreeIpHeaderInfo
                0x00000000401606df                Se4IpChecksum
                0x0000000040160752                Se4IpCheckChecksum
                0x00000000401607a1                Se4ParseIpPacketICMPv4
                0x00000000401608d0                Se4BuildIcmpEchoPacket
                0x000000004016098c                Se4AdjustTcpMss
                0x0000000040160b31                Se4Tick
                0x0000000040160b49                Se4BroadcastMacAddress
                0x0000000040160b54                Se4SendEthPacket
                0x0000000040160c2b                Se4SendIpFragmentNow
                0x0000000040160c54                Se4InitArpEntryList
                0x0000000040160c64                Se4FreeArpEntryList
                0x0000000040160ca0                Se4FlushArpEntryList
                0x0000000040160d4d                Se4SearchArpEntryList
                0x0000000040160dd9                Se4AddArpEntryList
                0x0000000040160ec6                Se4SearchArpWaitList
                0x0000000040160f0e                Se4InitArpWaitList
                0x0000000040160f1e                Se4FreeArpWaitList
                0x0000000040160f5a                Se4InsertIpWait
                0x0000000040160fdc                Se4InitIpWaitList
                0x0000000040160fec                Se4FreeIpWait
                0x0000000040161015                Se4FlushIpWaitList
                0x00000000401610d7                Se4FreeIpWaitList
                0x0000000040161113                Se4InitIpCombineList
                0x0000000040161123                Se4SearchIpCombineList
                0x0000000040161199                Se4InitIpFragmentList
                0x00000000401611a9                Se4InsertIpCombine
                0x00000000401612a8                Se4FreeIpFragmentList
                0x00000000401612e4                Se4FreeIpCombine
                0x000000004016131c                Se4FlushIpCombineList
                0x0000000040161405                Se4FreeIpCombineList
                0x0000000040161453                Se4Free
                0x0000000040161497                Se4And
                0x00000000401614c6                Se4GetNetworkAddress
                0x00000000401614d1                Se4Or
                0x0000000040161500                Se4Not
                0x000000004016152a                Se4GetBroadcastAddress
                0x000000004016156f                Se4GetHostAddress
                0x0000000040161589                Se4GenerateSubnetMask32
                0x00000000401615aa                Se4IPToStr
                0x00000000401615ed                Se4ZeroIP
                0x0000000040161608                Se4StrToIP
                0x00000000401616a9                Se4IPToUINT
                0x00000000401616cb                Se4StrToIP32
                0x00000000401616dd                Se4IsZeroIP
                0x00000000401616f0                Se4Init
                0x0000000040161806                Se4Cmp
                0x000000004016183f                Se4CheckUnicastAddress
                0x0000000040161890                Se4IsInSameNetwork
                0x00000000401618df                Se4CmpIpCombineList
                0x000000004016197d                Se4SendWaitingIpWait
                0x0000000040161a5e                Se4MacIpRelationKnown
                0x0000000040161b0a                Se4CmpArpWaitEntry
                0x0000000040161b41                Se4CmpArpEntry
                0x0000000040161b78                Se4ParseIpPacket
                0x0000000040161cce                Se4IsBroadcastAddress
                0x0000000040161ce2                Se4SendArpResponse
                0x0000000040161dc9                Se4SendArpDoProcess
                0x0000000040161ecf                Se4ProcessArpWaitList
                0x0000000040161f83                Se4MainProc
                0x0000000040161fb4                Se4SendArpRequest
                0x0000000040162029                Se4UINTToIP
                0x000000004016204b                Se4IPToStr32
                0x000000004016206f                Se4GenerateSubnetMask
                0x0000000040162081                Se4IsSubnetMask
                0x00000000401620be                Se4RecvArpResponse
                0x0000000040162103                Se4RecvArpRequest
                0x000000004016222d                Se4RecvArp
                0x00000000401622ea                Se4SendRawIp
                0x000000004016244d                Se4SendIpFragment
                0x0000000040162580                Se4SendIp
                0x0000000040162662                Se4SendUdp
                0x0000000040162794                Se4SendIcmp
                0x000000004016284d                Se4SendIcmpEchoResponse
                0x00000000401628e2                Se4RecvIpComplete
                0x00000000401629af                Se4CombineIp
                0x0000000040162bad                Se4SendIcmpEchoRequest
                0x0000000040162c42                Se4RecvIp
                0x0000000040162edc                Se4RecvEthPacket
                0x0000000040162f70                Se6FreeIpHeaderInfo
                0x0000000040162fa4                Se6IpChecksum
                0x0000000040163017                Se6CalcChecksum
                0x00000000401630d8                Se6ParseIpPacketICMPv6
                0x0000000040163316                Se6ParseIpPacketUDPv6
                0x0000000040163465                Se6BuildIcmpEchoPacket
                0x000000004016354e                Se6BroadcastMacAddress
                0x0000000040163559                Se6SendEthPacket
                0x0000000040163630                Se6SendIpFragmentNow
                0x0000000040163659                Se6InitNeighborEntryList
                0x0000000040163669                Se6FreeNeighborEntryList
                0x00000000401636a5                Se6FlushNeighborEntryList
                0x0000000040163752                Se6SearchNeighborEntryList
                0x00000000401637a9                Se6AddNeighborEntryList
                0x0000000040163893                Se6SearchNdpWaitList
                0x00000000401638e2                Se6InitNdpWaitList
                0x00000000401638f2                Se6FreeNdpWaitList
                0x000000004016392e                Se6InsertIpWait
                0x00000000401639bd                Se6InitIpWaitList
                0x00000000401639cd                Se6FreeIpWait
                0x00000000401639f6                Se6FreeIpWaitList
                0x0000000040163a32                Se6InitIpCombineList
                0x0000000040163a42                Se6SearchIpCombineList
                0x0000000040163ae6                Se6InitIpFragmentList
                0x0000000040163af6                Se6FreeIpFragmentList
                0x0000000040163b32                Se6FreeIpCombine
                0x0000000040163b6d                Se6FreeIpCombineList
                0x0000000040163bbb                Se6Free
                0x0000000040163c0b                Se6Tick
                0x0000000040163c23                Se6InsertIpCombine
                0x0000000040163d5a                Se6FlushIpCombineList
                0x0000000040163e46                Se6FlushIpWaitList
                0x0000000040163f0e                Se6GenerateEui64Address
                0x0000000040163f6f                Se6GenerateMulticastMacAddress
                0x0000000040163fa5                Se6GetAllNodeMulticastAddr
                0x0000000040163fd1                Se6GetAllRouterMulticastAddr
                0x0000000040163ffd                Se6And
                0x000000004016403b                Se6GetPrefixAddress
                0x000000004016404a                Se6Or
                0x0000000040164088                Se6Not
                0x00000000401640bc                Se6GetHostAddress
                0x00000000401640f8                Se6GenerateSubnetMask
                0x000000004016415d                Se6GetSoliciationMulticastAddr
                0x000000004016420e                Se6LocalSubnet
                0x0000000040164222                Se6Cmp
                0x000000004016424e                Se6GetIPAddrType
                0x000000004016435c                Se6IsInSameNetwork
                0x0000000040164423                Se6SendRawIp
                0x0000000040164595                Se6SendIpFragment
                0x00000000401645b1                Se6SendIp
                0x000000004016472e                Se6SendUdp
                0x000000004016485a                Se6SendIcmp
                0x0000000040164956                Se6SendIcmpNeighborSoliciation
                0x0000000040164acc                Se6SendNeighborSoliciationDoProcess
                0x0000000040164b86                Se6SendNeighborSoliciation
                0x0000000040164c0e                Se6ProcessNdpWaitList
                0x0000000040164cc8                Se6SendIcmpNeighborAdvertisement
                0x0000000040164e0c                Se6SendIcmpEchoResponse
                0x0000000040164ed1                Se6SendIcmpEchoRequest
                0x0000000040164f96                Se6IsSubnetMask
                0x0000000040164ff8                Se6SubnetMaskToInt
                0x0000000040165052                Se6SendIcmpRouterAdvertisement
                0x000000004016522a                Se6MainProc
                0x0000000040165284                Se6CmpIpCombineList
                0x0000000040165315                Se6SendWaitingIpWait
                0x000000004016540c                Se6MacIpRelationKnown
                0x000000004016552e                Se6CmpNdpWaitEntry
                0x000000004016556f                Se6CmpNeighborEntry
                0x00000000401655b0                Se6ParseIpPacket
                0x0000000040165752                Se6IsZeroIP
                0x0000000040165772                Se6CheckUnicastAddress
                0x00000000401657a6                Se6IsNetworkPrefixAddress
                0x00000000401657e8                Se6IsGuestNode
                0x000000004016588c                Se6AddGuestNode
                0x0000000040165960                Se6RecvIpComplete
                0x0000000040165c17                Se6CombineIp
                0x0000000040165e2d                Se6RecvIp
                0x000000004016606a                Se6RecvEthPacket
                0x00000000401660dc                Se6IPToStr
                0x000000004016623a                Se6IPItemStrToChars
                0x000000004016631a                Se6CheckIPItemStr
                0x0000000040166383                Se6ZeroIP
                0x00000000401663a3                Se6StrToIP
                0x000000004016656f                Se6GenerateEui64LocalAddress
                0x00000000401665e2                Se6Init
                0x0000000040166741                Se6GenerateEui64GlobalAddress
                0x0000000040166842                Se6CheckSubnetLength
                0x0000000040166860                SeTimerEntryCompare
                0x00000000401668a0                SeEthGetInfo
                0x00000000401668c4                SeEthSendAdd
                0x00000000401668f7                SeEthParseEthernetPacket
                0x00000000401669f8                SeEthGenRandMacAddress
                0x0000000040166a4a                SeLoad
                0x0000000040166aaf                SeSave
                0x0000000040166acb                SeTick
                0x0000000040166adb                SeGetCurrentCpuId
                0x0000000040166aeb                SeNewLock
                0x0000000040166b26                SeEthNew
                0x0000000040166c3c                SeTimerNew
                0x0000000040166cb2                SeLock
                0x0000000040166cfc                SeUnlock
                0x0000000040166d23                SeTick64Internal
                0x0000000040166d79                SeTick64
                0x0000000040166d98                SeInitKernel
                0x0000000040166dd2                SeEthGetNextRecvPacket
                0x0000000040166e1b                SeEthDeleteOldSenderMacList
                0x0000000040166eef                SeEthIsSenderMacAddressExistsInList
                0x0000000040166f96                SeEthNicCallback
                0x0000000040167097                SeEthAddSenderMacList
                0x0000000040167191                SeEthSend
                0x0000000040167217                SeEthSendAll
                0x00000000401672e8                SeTimerAdjust
                0x000000004016736e                SeTimerSet
                0x00000000401673f4                SeTimerCallback
                0x0000000040167504                SeDeleteLock
                0x000000004016752c                SeEthFree
                0x00000000401675d5                SeTimerFree
                0x000000004016762f                SeFreeKernel
                0x0000000040167645                SeLogArgs
                0x0000000040167683                SeWarning
                0x00000000401676c9                SeError
                0x000000004016770f                SeInfo
                0x0000000040167755                SeFatal
                0x000000004016779b                SeDebug
                0x00000000401677e1                SeDebugBin
                0x000000004016784f                SeLog
                0x0000000040167890                SeB64CodeToChar
                0x00000000401678d6                SeB64CharToCode
                0x000000004016791d                SeIsZero
                0x0000000040167966                SeReplaceListPointer
                0x00000000401679c2                SeIsInListStr
                0x0000000040167a33                SeIsInList
                0x0000000040167a7e                SeCompareStr
                0x0000000040167aa0                SeSetSortFlag
                0x0000000040167aae                SeSetCmp
                0x0000000040167acf                SeFastSwap
                0x0000000040167b03                SeQSort
                0x0000000040167e1b                SeSort
                0x0000000040167e53                SeBSearch
                0x0000000040167f22                SeSearch
                0x0000000040167f8a                SeFifoSize
                0x0000000040167f9d                SeDumpBuf
                0x0000000040167fc5                SeSeekBuf
                0x0000000040167ffb                SeClearBuf
                0x0000000040168014                SeSwap16
                0x000000004016802f                SeSwap32
                0x0000000040168059                SeSwap64
                0x00000000401680b0                SeMalloc
                0x00000000401680f2                SeNewBuf
                0x0000000040168134                SeNewFifo
                0x0000000040168176                SeReAlloc
                0x00000000401681e7                SeAdjustBufSize
                0x000000004016821c                SeClearFifo
                0x0000000040168259                SeAdd
                0x00000000401682c3                SeInsert
                0x00000000401683f1                SeInsertStr
                0x0000000040168444                SeDelete
                0x00000000401684ff                SeDeleteAll
                0x0000000040168536                SePop
                0x000000004016859d                SePush
                0x0000000040168600                SeMemSize
                0x0000000040168632                SeFree
                0x0000000040168661                SeFreeBuf
                0x0000000040168689                SeFreeBufWithoutBuffer
                0x0000000040168699                SeFreeFifo
                0x00000000401686c1                SeFreeList
                0x00000000401686ea                SeFreeQueue
                0x0000000040168713                SeFreeStack
                0x000000004016873c                SeIsLittleEndian
                0x000000004016874f                SeEndian16
                0x0000000040168773                SeEndian32
                0x0000000040168796                SeEndian64
                0x00000000401687bd                SeIsBigEndian
                0x00000000401687d5                SeCmp
                0x0000000040168844                SeCmpEx
                0x0000000040168879                SeCmpBuf
                0x00000000401688ba                SeCopy
                0x00000000401688e2                SeClone
                0x000000004016892f                SeSwap
                0x0000000040168989                SeWriteBuf
                0x0000000040168a00                SeMemToBuf
                0x0000000040168a66                SeRandBuf
                0x0000000040168aac                SeCloneBuf
                0x0000000040168ac7                SeWriteBufLine
                0x0000000040168b1f                SeWriteBufBuf
                0x0000000040168b3a                SeWriteBufInt
                0x0000000040168b7a                SeWriteBufInt64
                0x0000000040168bbd                SeWriteBufStr
                0x0000000040168c2b                SeAddBufStr
                0x0000000040168c6a                SeReadDump
                0x0000000040168ccf                SePeekFifo
                0x0000000040168d0d                SePeekNext
                0x0000000040168d4b                SeReadFifo
                0x0000000040168e38                SeGetNext
                0x0000000040168e82                SeGetNextInt
                0x0000000040168eb8                SeWriteFifo
                0x0000000040168f4c                SeInsertQueue
                0x0000000040168f82                SeInsertQueueInt
                0x0000000040168fb6                SeCopyToArray
                0x0000000040168fda                SeToArray
                0x000000004016901f                SeZero
                0x0000000040169041                SeZeroMalloc
                0x0000000040169079                SeNewList
                0x00000000401690cc                SeCloneList
                0x000000004016911a                SeNewQueue
                0x000000004016914e                SeNewStack
                0x0000000040169189                SeB64Decode
                0x0000000040169358                SeB64Encode
                0x0000000040169511                SeReadBuf
                0x00000000401695ab                SeReadBufFromBuf
                0x0000000040169647                SeReadRemainBuf
                0x000000004016966f                SeReadBufInt
                0x00000000401696a4                SeReadBufInt64
                0x00000000401696dc                SeReadBufStr
                0x0000000040169790                SeBuildICMPv6OptionValue
                0x000000004016981f                SeBuildICMPv6Options
                0x00000000401698ca                SeParseICMPv6Options
                0x00000000401699a3                SeFreePacketList
                0x00000000401699df                SeFreePacketListWithoutBuffer
                0x0000000040169a1b                SeGetNextHeaderFromQueue
                0x0000000040169a47                SeBuildAndAddIPv6PacketOptionHeader
                0x0000000040169ae4                SeBuildIPv6Packet
                0x0000000040169cc9                SeBuildIPv6PacketWithFragment
                0x0000000040169e85                SeParseIPv6ExtHeader
                0x0000000040169f72                SeParseIPv6Packet
                0x0000000040169fed                SeParsePacketL3IPv6
                0x000000004016a02e                SeParsePacketL3IPv4
                0x000000004016a0e7                SeParsePacketL3ARPv4
                0x000000004016a111                SeParsePacketL2
                0x000000004016a1b3                SeFreePacket
                0x000000004016a1c3                SeParsePacket
                0x000000004016a260                SeSecCmpIkeSa
                0x000000004016a338                SeSecCalcP2Iv
                0x000000004016a3ec                SeSecCalcP1Iv
                0x000000004016a499                SeSecCalcKEYMATFull
                0x000000004016a5a3                SeSecCalcKEYMAT
                0x000000004016a66a                SeSecCalcKa
                0x000000004016a73f                SeSecCalcP1KeySet
                0x000000004016a956                SeSecForceReconnect
                0x000000004016a98f                SeSecLifeSeconds64bit
                0x000000004016a9af                SeSecGetIPsecSa
                0x000000004016a9fb                SeSecNewIkeSa
                0x000000004016aaac                SeSecFreeP1KeySet
                0x000000004016aafa                SeSecGenIkeSaMessageId
                0x000000004016ab69                SeSecGenIkeSaInitCookie
                0x000000004016abd8                SeSecInitSaList
                0x000000004016ac12                SeSecSearchIPsecSaBySpi
                0x000000004016aca1                SeSecSearchIkeSaBySpi
                0x000000004016ad6c                SeSecSearchIkeSa
                0x000000004016ae38                SeSecNewSpi
                0x000000004016ae4f                SeSecGenIPsecSASpi
                0x000000004016aebe                SeSecStrToAuthMethod
                0x000000004016af29                SeSecTick
                0x000000004016af43                SeSecCheckIPsecSaExpires
                0x000000004016b006                SeSecCheckIkeSaExpires
                0x000000004016b0c5                SeSecSetTimerCallback
                0x000000004016b0e5                SeSecAddTimer
                0x000000004016b105                SeSecDoInterval
                0x000000004016b176                SeSecNewIPsecSa
                0x000000004016b2e3                SeSecSetRecvUdpCallback
                0x000000004016b303                SeSecSetRecvEspCallback
                0x000000004016b323                SeSecSetRecvVirtualIpCallback
                0x000000004016b343                SeSecSendUdp
                0x000000004016b38c                SeSecProcessIkeSaMsgPhase1
                0x000000004016bc95                SeSecSendIkeSaMsgPhase2
                0x000000004016c1b7                SeSecSendIkeSaMsgPhase2FinalHash
                0x000000004016c357                SeSecProcessIkeSaMsgPhase2
                0x000000004016c7b6                SeSecSendIkeSaMsgInfo
                0x000000004016ca1e                SeSecSendIkeSaMsgInfoSimple
                0x000000004016ca86                SeSecSendIPsecSaDeleteMsg
                0x000000004016cb0a                SeSecFreeIPsecSa
                0x000000004016cb8a                SeSecDeleteExpiredIPsecSa
                0x000000004016cc30                SeSecProcessIkeSaMsgInfo
                0x000000004016cf55                SeSecProcessIkeSaMsg
                0x000000004016cfa9                SeSecUdpRecvCallback
                0x000000004016d215                SeSecSendIkeSaDeleteMsg
                0x000000004016d2b2                SeSecFreeIkeSa
                0x000000004016d46b                SeSecFreeSaList
                0x000000004016d4e4                SeSecFreeMain
                0x000000004016d4f4                SeSecFree
                0x000000004016d523                SeSecDeleteExpiredIkeSa
                0x000000004016d686                SeSecStartVpnConnect
                0x000000004016dcba                SeSecProcessMain
                0x000000004016ddac                SeSecTimerCallback
                0x000000004016ddbf                SeSecInitMain
                0x000000004016dde4                SeSecInit
                0x000000004016df18                SeSecSendEsp
                0x000000004016df51                SeSecVirtualIpRecvCallback
                0x000000004016e15a                SeSecSendVirtualIp
                0x000000004016e182                SeSecEspRecvCallback
                0x000000004016e330                SeMakeCharArray
                0x000000004016e364                SeFreeToken
                0x000000004016e3b2                SeNullTokenList
                0x000000004016e3e6                SeDefaultTokenSplitChars
                0x000000004016e3f1                Se4BitToHex
                0x000000004016e406                SeHexTo4Bit
                0x000000004016e442                SeStrCmp
                0x000000004016e4d6                SeStrnCmp
                0x000000004016e5a3                SeToUpper
                0x000000004016e5b7                SeStrnCmpi
                0x000000004016e682                SeStrCmpi
                0x000000004016e732                SeToLower
                0x000000004016e746                SeStrCheckLen
                0x000000004016e782                SeStrCheckSize
                0x000000004016e7a0                SeStrLen
                0x000000004016e7c7                SeStrSize
                0x000000004016e7df                SeStrCpy
                0x000000004016e8aa                SeStrCat
                0x000000004016e94c                SeStrUpper
                0x000000004016e98c                SeStrLower
                0x000000004016e9cc                SeToInt64
                0x000000004016ea22                SeToInt
                0x000000004016ea70                SeToStr64
                0x000000004016eb37                SeToStr
                0x000000004016ebf1                SeToHex
                0x000000004016eca5                SeToHex64
                0x000000004016ed59                SeHexToInt
                0x000000004016ede1                SeHexToInt64
                0x000000004016ee6b                SeTrimLeft
                0x000000004016ef18                SeTrimRight
                0x000000004016f02a                SeTrim
                0x000000004016f04f                SeCopyStr
                0x000000004016f0a4                SeTrimCopy
                0x000000004016f0d1                SeUniqueToken
                0x000000004016f22b                SeSearchStrEx
                0x000000004016f37f                SeSearchStri
                0x000000004016f38f                SeSearchStr
                0x000000004016f39f                SeCalcReplaceStrEx
                0x000000004016f45a                SeReplaceStrEx
                0x000000004016f5af                SeReplaceStr
                0x000000004016f5c0                SeReplaceStri
                0x000000004016f5d1                SeTrimCrlf
                0x000000004016f618                SeStartWith
                0x000000004016f6be                SeEndWith
                0x000000004016f727                SeIsEmptyStr
                0x000000004016f771                SeNormalizeCrlf
                0x000000004016f804                SeIsCharInStr
                0x000000004016f85c                SeParseToken
                0x000000004016f9f7                SeParseTokenWithNullStr
                0x000000004016fb54                SeToStr3
                0x000000004016fca2                SeIsAllUpperStr
                0x000000004016fd14                SeIsAllLowerStr
                0x000000004016fd86                SeFormatEx
                0x0000000040170299                SeFormatArgs
                0x00000000401702f9                SeFormat
                0x000000004017032f                SeBinToStr
                0x00000000401703d6                SeBinToStrEx
                0x000000004017047f                SeMacToStr
                0x00000000401704d0                SeStrToBin
                0x00000000401705bf                SeStrToBinEx
                0x0000000040170632                SeStrToMac
                0x0000000040170645                SeReadNextLine
                0x0000000040170710                SeVpnRecvIpV6PacketCallback
                0x0000000040170760                SeVpnRecvIpV4PacketCallback
                0x00000000401707b0                SeVpnInitIpStack
                0x0000000040170b12                SeVpnFreeIpStack
                0x0000000040170bb2                SeVpnMainInit
                0x0000000040170ccb                SeVpnMainFree
                0x0000000040170cef                SeVpnRecvEtherPacket
                0x0000000040170d56                SeVpnSendEtherPacket
                0x0000000040170d7b                SeVpnMainProcRecvEtherPacket
                0x0000000040170e2a                SeVpnStatusChanged
                0x0000000040170e3c                SeVpnMainProcess
                0x0000000040170f3a                SeVpnMainHandler
                0x0000000040170f87                SeVpnEthRecvCallback
                0x0000000040170f9f                SeVpnTimerCallback
                0x0000000040170fb7                SeVpnTick
                0x0000000040170fcb                SeVpnAddTimer
                0x0000000040170fdf                SeVpnDoInterval
                0x000000004017104f                SeVpnFreeConfig
                0x000000004017105f                SeVpnFree
                0x00000000401710b0                SeVpnLoadConfig
                0x000000004017240e                SeVpnInit
                0x0000000040172530                SeVpn4ClientSetTimerCallback
                0x0000000040172543                SeVpn4ClientSetRecvUdpCallback
                0x0000000040172556                SeVpn4ClientSetRecvEspCallback
                0x0000000040172569                SeVpn4ClientSetRecvVirtualIpCallback
                0x000000004017257c                SeVpn4ClientSendVirtualIp
                0x00000000401725bb                SeVpn4ClientSendEsp
                0x000000004017263b                SeVpn4ClientSendUdp
                0x00000000401726c6                SeVpn4IPsecSendPing
                0x000000004017280e                SeVpn4IPsecInputFromPhysical
                0x00000000401728d9                SeVpn4IPsecInputFromVirtual
                0x000000004017294d                SeVpn4FreeIPsec
                0x0000000040172961                SeVpn4InitSecConfig
                0x0000000040172b42                SeVpn4InitIPsec
                0x0000000040172c13                SeVpn4DoInterval
                0x0000000040172c2b                SeVpn4Tick
                0x0000000040172c43                SeVpn4ClientGetTick
                0x0000000040172c58                SeVpn4IPsecMainProc
                0x0000000040172ce0                SeVpn4MainProc
                0x0000000040172cfb                SeVpn4SetTimer
                0x0000000040172d0e                SeVpn4ClientAddTimer
                0x0000000040172d26                SeVpn4DhcpSendResponse
                0x0000000040172e3b                SeVpn4DhcpOptionsToBuf
                0x0000000040172ef9                SeVpn4NewDhcpOption
                0x0000000040172f60                SeVpn4DhcpBuildDhcpOptionList
                0x000000004017313e                SeVpn4DhcpSearchOption
                0x000000004017317a                SeVpn4DhcpFreeOptionList
                0x00000000401731d0                SeVpn4DhcpParseOptionListMain
                0x00000000401732be                SeVpn4DhcpParseOptionList
                0x00000000401733b1                SeVpn4DhcpServer
                0x000000004017367c                SeVpn4RecvPacketPhysical
                0x0000000040173751                SeVpn4RecvPacketVirtual
                0x00000000401738b3                SeVpn4Init
                0x0000000040173918                SeVpn4Free
                0x0000000040173950                SeVpn6ClientSetTimerCallback
                0x0000000040173963                SeVpn6ClientSetRecvUdpCallback
                0x0000000040173976                SeVpn6ClientSetRecvEspCallback
                0x0000000040173989                SeVpn6ClientSetRecvVirtualIpCallback
                0x000000004017399c                SeVpn6ClientSendVirtualIp
                0x00000000401739db                SeVpn6ClientSendEsp
                0x0000000040173a7b                SeVpn6ClientSendUdp
                0x0000000040173b30                SeVpn6IPsecSendPing
                0x0000000040173d16                SeVpn6UpdateGuestOsIpAddress
                0x0000000040173dea                SeVpn6IPsecInputFromPhysical
                0x0000000040173eb5                SeVpn6IPsecInputFromVirtual
                0x0000000040173ee9                SeVpn6InitSecConfig
                0x00000000401740db                SeVpn6InitIPsec
                0x00000000401741bc                SeVpn6FreeIPsec
                0x00000000401741d0                SeVpn6DoInterval
                0x00000000401741e8                SeVpn6Tick
                0x0000000040174200                SeVpn6ClientGetTick
                0x0000000040174215                SeVpn6IPsecMainProc
                0x00000000401742a5                SeVpn6MainProc
                0x00000000401742c0                SeVpn6SetTimer
                0x00000000401742d3                SeVpn6ClientAddTimer
                0x00000000401742eb                SeVpn6RecvPacketPhysical
                0x000000004017436d                SeVpn6RecvPacketVirtual
                0x00000000401744a4                SeVpn6Init
                0x000000004017451a                SeVpn6Free
                0x0000000040174550                crypt_sys_rsa_sign
                0x00000000401748e5                msg_usb_bulk_read
                0x0000000040174945                msg_usb_bulk_write
                0x00000000401749a5                msg_usb_claim_interface
                0x00000000401749eb                msg_usb_close
                0x0000000040174a45                msg_usb_control_msg
                0x0000000040174aba                msg_usb_find_busses
                0x0000000040174af8                msg_usb_find_devices
                0x0000000040174b36                msg_usb_get_busses
                0x0000000040174b9d                msg_usb_get_string_simple
                0x0000000040174bf9                msg_usb_init
                0x0000000040174c0e                msg_usb_open
                0x0000000040174c87                msg_usb_release_interface
                0x0000000040174ccd                msg_usb_reset
                0x0000000040174d10                IDMan_StReadSetData
                0x00000000401753f5                idman_user_init
                0x0000000040175450                IDMan_IPIdPassListMalloc
                0x000000004017553b                IDMan_IPRetJudgment
                0x00000000401755b7                IDMan_IPFinalizeReader
                0x00000000401755d9                IDMan_IPFinalize
                0x000000004017562f                IDMan_IPInitialize
                0x0000000040175738                IDMan_IPInitializeReader
                0x0000000040175765                IDMan_getMemoryFree
                0x00000000401757ad                IDMan_PaddingParamChk
                0x0000000040175872                IDMan_CmPadding
                0x0000000040175a2e                IDMan_CmPadding2
                0x0000000040175baa                IDMan_IPgetCertPKCS
                0x00000000401762a2                IDMan_IPgetCertIdxPKCS
                0x0000000040176775                IDMan_IPCheckPKC
                0x000000004017699e                IDMan_CheckCardStatus
                0x00000000401769d0                IDMan_IPgSParamChk
                0x0000000040176b00                IDMan_IPgIdxSParamChk
                0x0000000040176b38                IDMan_IPgetPrivateKey
                0x0000000040176d2b                IDMan_IPgetHash
                0x0000000040176e22                IDMan_IPCrSignature
                0x0000000040176f8a                IDMan_generateSignature
                0x00000000401770c4                IDMan_generateSignatureByIndex
                0x00000000401771eb                IDMan_EncryptByIndex
                0x0000000040177314                IDMan_IPgCParamChk
                0x0000000040177406                IDMan_getCertificate
                0x0000000040177728                IDMan_IPgCIndexParamChk
                0x0000000040177761                IDMan_getCertificateByIndex
                0x0000000040177af8                IDMan_getStaticPassword
                0x0000000040177e10                IDMan_IPuAPKCS11ParamChk
                0x0000000040177f11                IDMan_IPuAPKCS11IdxParamChk
                0x0000000040177f38                IDMan_IPgetCertPkeyPKCSx
                0x00000000401783fb                IDMan_IPgetCertPkeyIdxPKCSx
                0x0000000040178824                IDMan_IPgetCertPkeyPKCSy
                0x0000000040178972                IDMan_IPCheckCrlPkcX
                0x0000000040178aaf                IDMan_IPgetMakeRandData
                0x0000000040178b27                IDMan_IPMkRandHash
                0x0000000040178be4                IDMan_IPgetPrivateKeyPKCSx
                0x0000000040178db7                IDMan_IPSignatureVerify
                0x0000000040178f30                IDMan_userAuthPKCS11
                0x00000000401793b5                IDMan_userAuthPKCS11ByIndex
                0x0000000040179840                IDMan_IPvSParamChk
                0x00000000401799be                IDMan_IPvSIdxParamChk
                0x0000000040179a21                IDMan_IPMkPublicKeyObj
                0x0000000040179b65                IDMan_IPCheckSignature
                0x0000000040179d1f                IDMan_verifySignature
                0x0000000040179efc                IDMan_verifySignatureByIndex
                0x000000004017a0c0                CardEstablishContext
                0x000000004017a0d8                CardReleaseContext
                0x000000004017a109                CardListReaders
                0x000000004017a121                CardConnect
                0x000000004017a15f                CardDisconnect
                0x000000004017a17c                CardStatus
                0x000000004017a1cd                CardTransmit
                0x000000004017a209                SelectFileDF
                0x000000004017a2fc                SelectFileEF
                0x000000004017a3e7                Verify
                0x000000004017a4fb                InternalAuth
                0x000000004017a63f                ReadBinary
                0x000000004017ac2f                UpdateBinary
                0x000000004017ad59                GetICCardData
                0x000000004017b140                GetUlByTxt
                0x000000004017b17f                GetVerByTex
                0x000000004017b267                GetUlByByte
                0x000000004017b2ac                TransHex2Tex
                0x000000004017b33f                TransTex2Hex
                0x000000004017b3f6                GetLength
                0x000000004017b463                SetLength
                0x000000004017b4c8                GetTlvByBuf
                0x000000004017b845                GetDirDataByTlv
                0x000000004017b96a                GetOdfDataByTlv
                0x000000004017badd                GetTokenDataByTlv
                0x000000004017bf43                AddObjTblByTlv
                0x000000004017c5e7                AddCertDataByBuf
                0x000000004017c6ed                AddIdPassDataByBuf
                0x000000004017ca8d                GetValueData
                0x000000004017ce30                AddElem
                0x000000004017cece                SetElem
                0x000000004017cf95                GetElem
                0x000000004017cfd1                GetAttrValType
                0x000000004017d145                DestroyAttribute
                0x000000004017d18f                DestroyTlvData
                0x000000004017d1a4                DestroyElem
                0x000000004017d22a                DestroyList
                0x000000004017d267                DestroySessionData
                0x000000004017d2a5                DestroyTokenData
                0x000000004017d305                DestroySlotData
                0x000000004017d341                DelElem
                0x000000004017d3b0                C_GetFunctionList
                0x000000004017d3c2                C_Initialize
                0x000000004017d52f                C_Finalize
                0x000000004017d5ca                C_GetInfo
                0x000000004017d650                C_GetSlotList
                0x000000004017df34                C_GetSlotInfo
                0x000000004017e01c                C_GetTokenInfo
                0x000000004017e853                C_GetMechanismList
                0x000000004017e924                C_GetMechanismInfo
                0x000000004017e9e0                C_OpenSession
                0x000000004017eb9b                C_CloseSession
                0x000000004017ec74                C_CloseAllSessions
                0x000000004017ed80                C_GetSessionInfo
                0x000000004017edfc                C_Login
                0x000000004017f253                C_Logout
                0x000000004017f36a                C_FindObjectsInit
                0x000000004017f5e1                C_FindObjects
                0x000000004017fb3a                C_FindObjectsFinal
                0x000000004017fbb0                C_GetAttributeValue
                0x000000004017fed1                C_SignInit
                0x000000004017ff98                C_Sign
                0x000000004018031f                C_DigestInit
                0x000000004018039a                C_DigestUpdate
                0x0000000040180422                C_DigestFinal
                0x0000000040180569                C_VerifyInit
                0x0000000040180630                C_Verify
                0x00000000401807a2                C_CreateObject
                0x0000000040180a4f                C_DestroyObject
                0x0000000040180b0f                C_SetAttributeValue
                0x0000000040181719                C_GetCardStatus
                0x00000000401817b0                IDMan_StFree
                0x00000000401817c0                IDMan_StMemcpy
                0x00000000401817e4                IDMan_StMemset
                0x0000000040181802                IDMan_StMalloc
                0x0000000040181849                IDMan_StMemcmp
                0x00000000401818a2                IDMan_StStrlen
                0x00000000401818bc                IDMan_StStrcat
                0x00000000401818f9                IDMan_StStrchr
                0x0000000040181936                IDMan_StStrcpy
                0x000000004018195d                IDMan_StStrcmp
                0x00000000401819a8                StIsspace
                0x0000000040181a25                StIsdigit
                0x0000000040181a37                IDMan_StAtoi
                0x0000000040181a93                IDMan_StAtol
                0x0000000040181afb                IDMan_CmMkHash
                0x0000000040181cb6                IDMan_CmChgRSA
                0x0000000040181e7f                IDMan_CmGetDN
                0x0000000040182126                IDMan_CmGetCertificateSign
                0x0000000040182350                IDMan_CmGetPublicKey
                0x000000004018252c                IDMan_CmMakeRand
                0x00000000401825ca                IDMan_CmCheckCRL
                0x0000000040182950                IDMan_SCardEstablishContext
                0x000000004018296d                IDMan_SCardReleaseContext
                0x0000000040182978                IDMan_SCardListReaders
                0x00000000401829a8                IDMan_SCardConnect
                0x00000000401829d8                IDMan_SCardDisconnect
                0x00000000401829e3                IDMan_SCardStatus
                0x0000000040182a65                IDMan_SCardSizeLongToChar
                0x0000000040182aa6                IDMan_SCardSetBinay
                0x0000000040182e45                IDMan_SCardTransmit
                0x0000000040182eb0                EHDestroyEventHandler
                0x0000000040182f1d                EHInitEventHandler
                0x0000000040182fd3                EHStatusHandler
                0x0000000040183170                HPSearchHotPluggables
                0x00000000401834c0                PHGetProtocol
                0x000000004018389b                PHSetProtocol
                0x0000000040183904                RFAddReader
                0x0000000040183a1f                RFRemoveReader
                0x0000000040183ad9                RFReaderInfoById
                0x0000000040183b09                RFCheckReaderEventState
                0x0000000040183b40                SCardEstablishContext
                0x0000000040183c30                SCardListReaders
                0x0000000040183cdd                SCardConnect
                0x0000000040183f61                SCardDisconnect
                0x0000000040184112                SCardBeginTransaction
                0x0000000040184166                SCardEndTransaction
                0x000000004018432e                SCardStatus
                0x0000000040184539                SCardReleaseContext
                0x00000000401845ff                SCardTransmit
                0x0000000040184850                SetATR
                0x0000000040184abd                GetIFSCData
                0x0000000040184b13                GetBWICWIData
                0x0000000040184bb1                IFDHCloseChannel
                0x0000000040184c3d                IFDHGetCapabilities
                0x0000000040184c7c                IFDHSetProtocolParameters
                0x000000004018537b                IFDHPowerICC
                0x000000004018557a                IFDHTransmitToICC
                0x000000004018583a                IFDHControl
                0x0000000040185953                IFDHICCPresence
                0x0000000040185a08                IFDHCreateChannel
                0x0000000040185abc                FindBaudRateTable
                0x0000000040185afc                ExchangePPSData
                0x00000000401861e6                InitLeaderCardProtocol
                0x00000000401862ff                T1XfrBlockTPDU
                0x000000004018696c                T1NegociateIFSD
                0x0000000040186ab4                CardStateConfirm
                0x0000000040186ae9                GetCardStatus
                0x0000000040186be0                PowerOn
                0x0000000040186da0                PowerOff
                0x0000000040186f08                CardMechanical
                0x0000000040187020                TransmitPPS
                0x00000000401871ba                TransmitCommand
                0x0000000040187287                ReceiveReply
                0x000000004018744c                BlockSendCardT1
                0x00000000401876a4                ReadDataT0
                0x0000000040187769                T0XfrBlockCHAR
                0x0000000040187cef                T0XfrBlockTPDU
                0x0000000040187d71                T1XfrBlockExtendedAPDU
                0x00000000401880eb                OpenUSB
                0x0000000040188485                WriteUSB
                0x00000000401884b6                ReadUSB
                0x0000000040188514                CloseUSB
                0x0000000040188584                AES_set_encrypt_key
                0x0000000040188990                AES_set_decrypt_key
                0x0000000040188bb6                AES_encrypt
                0x000000004018906f                AES_decrypt
                0x0000000040189510                BIO_set
                0x00000000401895e5                BIO_new
                0x000000004018965e                BIO_free
                0x000000004018970d                BIO_vfree
                0x0000000040189718                BIO_clear_flags
                0x0000000040189723                BIO_test_flags
                0x000000004018972e                BIO_set_flags
                0x0000000040189737                BIO_get_callback
                0x0000000040189741                BIO_set_callback
                0x000000004018974b                BIO_set_callback_arg
                0x0000000040189755                BIO_get_callback_arg
                0x000000004018975f                BIO_method_name
                0x000000004018976c                BIO_method_type
                0x0000000040189777                BIO_read
                0x0000000040189872                BIO_write
                0x0000000040189976                BIO_puts
                0x0000000040189a68                BIO_gets
                0x0000000040189b58                BIO_indent
                0x0000000040189b9d                BIO_ctrl
                0x0000000040189c73                BIO_ptr_ctrl
                0x0000000040189c9e                BIO_int_ctrl
                0x0000000040189cb4                BIO_callback_ctrl
                0x0000000040189d80                BIO_ctrl_pending
                0x0000000040189d9a                BIO_ctrl_wpending
                0x0000000040189db4                BIO_push
                0x0000000040189e02                BIO_pop
                0x0000000040189e67                BIO_get_retry_BIO
                0x0000000040189eb6                BIO_get_retry_reason
                0x0000000040189ebf                BIO_find_type
                0x0000000040189ef4                BIO_next
                0x0000000040189f0a                BIO_free_all
                0x0000000040189f38                BIO_dup_chain
                0x000000004018a027                BIO_copy_next_retry
                0x000000004018a054                BIO_get_ex_new_index
                0x000000004018a073                BIO_set_ex_data
                0x000000004018a082                BIO_get_ex_data
                0x000000004018a091                BIO_number_read
                0x000000004018a0a5                BIO_number_written
                0x000000004018a20f                BN_set_params
                0x000000004018a2a2                BN_get_params
                0x000000004018a2d7                BN_value_one
                0x000000004018a2e2                BN_options
                0x000000004018a324                BN_num_bits_word
                0x000000004018a37f                BN_num_bits
                0x000000004018a3a9                BN_clear_free
                0x000000004018a410                BN_free
                0x000000004018a459                BN_init
                0x000000004018a46e                BN_new
                0x000000004018a4e1                bn_expand2
                0x000000004018a539                BN_copy
                0x000000004018a627                BN_dup
                0x000000004018a67b                bn_dup_expand
                0x000000004018a6fd                BN_swap
                0x000000004018a760                BN_clear
                0x000000004018a799                BN_get_word
                0x000000004018a7bb                BN_set_word
                0x000000004018a81e                BN_bin2bn
                0x000000004018a961                BN_bn2bin
                0x000000004018a9cf                BN_ucmp
                0x000000004018aa1c                BN_cmp
                0x000000004018aad0                BN_set_bit
                0x000000004018ab95                BN_clear_bit
                0x000000004018ac13                BN_is_bit_set
                0x000000004018ac50                BN_mask_bits
                0x000000004018acec                BN_set_negative
                0x000000004018ad0c                bn_cmp_words
                0x000000004018ad6e                bn_cmp_part_words
                0x000000004018ae00                BN_bn2hex
                0x000000004018aee6                BN_bn2dec
                0x000000004018b0f5                BN_hex2bn
                0x000000004018b2d2                BN_dec2bn
                0x000000004018b483                BN_asc2bn
                0x000000004018b4f3                BN_print
                0x000000004018b9d7                BN_pseudo_rand
                0x000000004018b9f1                BN_rand
                0x000000004018ba0b                BN_bntest_rand
                0x000000004018ba25                BN_rand_range
                0x000000004018ba3b                BN_pseudo_rand_range
                0x000000004018ba60                BN_mod_word
                0x000000004018bab5                BN_div_word
                0x000000004018bb9b                BN_sub_word
                0x000000004018bc9a                BN_add_word
                0x000000004018bd6d                BN_mul_word
                0x000000004018c254                BIO_s_mem
                0x000000004018c25f                BIO_new_mem_buf
                0x000000004018c2d8                BUF_MEM_new
                0x000000004018c33f                BUF_MEM_free
                0x000000004018c37f                BUF_MEM_grow
                0x000000004018c479                BUF_MEM_grow_clean
                0x000000004018c58f                BUF_memdup
                0x000000004018c604                BUF_strlcpy
                0x000000004018c668                BUF_strndup
                0x000000004018c6e7                BUF_strdup
                0x000000004018c713                BUF_strlcat
                0x000000004018c74d                BUF_reverse
                0x000000004018c7a4                OpenSSL_add_all_ciphers
                0x000000004018cc50                OpenSSL_add_all_digests
                0x000000004018cdc0                CRYPTO_get_new_lockid
                0x000000004018ce78                CRYPTO_num_locks
                0x000000004018ce83                CRYPTO_get_dynlock_create_callback
                0x000000004018ce90                CRYPTO_get_dynlock_lock_callback
                0x000000004018ce9d                CRYPTO_get_dynlock_destroy_callback
                0x000000004018ceaa                CRYPTO_set_dynlock_create_callback
                0x000000004018ceb7                CRYPTO_set_dynlock_lock_callback
                0x000000004018cec4                CRYPTO_set_dynlock_destroy_callback
                0x000000004018ced1                CRYPTO_get_locking_callback
                0x000000004018cede                CRYPTO_get_add_lock_callback
                0x000000004018ceeb                CRYPTO_set_locking_callback
                0x000000004018cef8                CRYPTO_set_add_lock_callback
                0x000000004018cf05                CRYPTO_THREADID_set_numeric
                0x000000004018cf38                CRYPTO_THREADID_set_pointer
                0x000000004018cf6e                CRYPTO_THREADID_set_callback
                0x000000004018cf8c                CRYPTO_THREADID_get_callback
                0x000000004018cf99                CRYPTO_THREADID_current
                0x000000004018cfe3                CRYPTO_THREADID_cmp
                0x000000004018cff3                CRYPTO_THREADID_cpy
                0x000000004018d003                CRYPTO_THREADID_hash
                0x000000004018d00d                CRYPTO_get_id_callback
                0x000000004018d01a                CRYPTO_set_id_callback
                0x000000004018d027                CRYPTO_thread_id
                0x000000004018d040                CRYPTO_get_lock_name
                0x000000004018d093                OPENSSL_ia32cap_loc
                0x000000004018d09e                OPENSSL_cpuid_setup
                0x000000004018d0a4                OPENSSL_showfatal
                0x000000004018d0ef                OPENSSL_isservice
                0x000000004018d0fa                OpenSSLDie
                0x000000004018d11c                CRYPTO_lock
                0x000000004018d1b3                CRYPTO_add_lock
                0x000000004018d237                CRYPTO_get_dynlock_value
                0x000000004018d2d6                CRYPTO_destroy_dynlockid
                0x000000004018d3ce                CRYPTO_get_new_dynlockid
                0x000000004018d5ea                OPENSSL_stderr
                0x000000004018d5f8                DES_encrypt1
                0x000000004018da06                DES_encrypt2
                0x000000004018dd11                DES_encrypt3
                0x000000004018de6e                DES_decrypt3
                0x000000004018dfce                DES_ncbc_encrypt
                0x000000004018e60b                DES_ede3_cbc_encrypt
                0x000000004018f066                DH_generate_key
                0x000000004018f076                DH_compute_key
                0x000000004018f086                DH_OpenSSL
                0x000000004018f094                DH_set_default_method
                0x000000004018f0a1                DH_get_default_method
                0x000000004018f0c4                DH_set_method
                0x000000004018f111                DH_new_method
                0x000000004018f227                DH_new
                0x000000004018f237                DH_free
                0x000000004018f317                DH_up_ref
                0x000000004018f344                DH_get_ex_new_index
                0x000000004018f363                DH_set_ex_data
                0x000000004018f372                DH_get_ex_data
                0x000000004018f381                DH_size
                0x000000004019008a                EVP_aes_128_cbc
                0x0000000040190095                EVP_aes_128_cfb128
                0x00000000401900a0                EVP_aes_128_ofb
                0x00000000401900ab                EVP_aes_128_ecb
                0x00000000401900b6                EVP_aes_192_cbc
                0x00000000401900c1                EVP_aes_192_cfb128
                0x00000000401900cc                EVP_aes_192_ofb
                0x00000000401900d7                EVP_aes_192_ecb
                0x00000000401900e2                EVP_aes_256_cbc
                0x00000000401900ed                EVP_aes_256_cfb128
                0x00000000401900f8                EVP_aes_256_ofb
                0x0000000040190103                EVP_aes_256_ecb
                0x000000004019010e                EVP_aes_128_cfb1
                0x0000000040190119                EVP_aes_192_cfb1
                0x0000000040190124                EVP_aes_256_cfb1
                0x000000004019012f                EVP_aes_128_cfb8
                0x000000004019013a                EVP_aes_192_cfb8
                0x0000000040190145                EVP_aes_256_cfb8
                0x0000000040190466                EVP_bf_cbc
                0x0000000040190471                EVP_bf_cfb64
                0x000000004019047c                EVP_bf_ofb
                0x0000000040190487                EVP_bf_ecb
                0x00000000401907aa                EVP_cast5_cbc
                0x00000000401907b5                EVP_cast5_cfb64
                0x00000000401907c0                EVP_cast5_ofb
                0x00000000401907cb                EVP_cast5_ecb
                0x0000000040190d8b                EVP_des_cbc
                0x0000000040190d96                EVP_des_cfb64
                0x0000000040190da1                EVP_des_ofb
                0x0000000040190dac                EVP_des_ecb
                0x0000000040190db7                EVP_des_cfb1
                0x0000000040190dc2                EVP_des_cfb8
                0x00000000401913f6                EVP_des_ede_cbc
                0x0000000040191401                EVP_des_ede_cfb64
                0x000000004019140c                EVP_des_ede_ofb
                0x0000000040191417                EVP_des_ede_ecb
                0x0000000040191422                EVP_des_ede3_cbc
                0x000000004019142d                EVP_des_ede3_cfb64
                0x0000000040191438                EVP_des_ede3_ofb
                0x0000000040191443                EVP_des_ede3_ecb
                0x000000004019144e                EVP_des_ede3_cfb1
                0x0000000040191459                EVP_des_ede3_cfb8
                0x0000000040191464                EVP_des_ede
                0x000000004019146f                EVP_des_ede3
                0x00000000401917f7                EVP_idea_cbc
                0x0000000040191802                EVP_idea_cfb64
                0x000000004019180d                EVP_idea_ofb
                0x0000000040191818                EVP_idea_ecb
                0x0000000040191d5f                EVP_rc2_cbc
                0x0000000040191d6a                EVP_rc2_cfb64
                0x0000000040191d75                EVP_rc2_ofb
                0x0000000040191d80                EVP_rc2_ecb
                0x0000000040191d8b                EVP_rc2_64_cbc
                0x0000000040191d96                EVP_rc2_40_cbc
                0x0000000040191df9                EVP_rc4
                0x0000000040191e04                EVP_rc4_40
                0x0000000040191f7a                EVP_desx_cbc
                0x0000000040191f88                DES_ecb3_encrypt
                0x0000000040192058                DES_options
                0x00000000401920ac                DES_ecb_encrypt
                0x0000000040192874                ERR_get_implementation
                0x0000000040192886                ERR_set_implementation
                0x00000000401928ef                ERR_load_ERR_strings
                0x0000000040192a21                ERR_load_strings
                0x0000000040192a51                ERR_unload_strings
                0x0000000040192aa3                ERR_free_strings
                0x0000000040192ab8                ERR_get_string_table
                0x0000000040192ad1                ERR_get_err_state_table
                0x0000000040192aeb                ERR_release_err_state_table
                0x0000000040192b10                ERR_lib_error_string
                0x0000000040192b50                ERR_func_error_string
                0x0000000040192b90                ERR_reason_error_string
                0x0000000040192bff                ERR_error_string_n
                0x0000000040192d77                ERR_error_string
                0x0000000040192da6                ERR_remove_thread_state
                0x0000000040192deb                ERR_remove_state
                0x0000000040192dfb                ERR_get_state
                0x00000000401930f3                ERR_peek_last_error_line_data
                0x0000000040193114                ERR_peek_last_error_line
                0x000000004019313b                ERR_peek_last_error
                0x0000000040193166                ERR_peek_error_line_data
                0x0000000040193187                ERR_peek_error_line
                0x00000000401931ae                ERR_peek_error
                0x00000000401931d9                ERR_get_error_line_data
                0x00000000401931fa                ERR_get_error_line
                0x0000000040193221                ERR_get_error
                0x000000004019324c                ERR_clear_error
                0x0000000040193307                ERR_put_error
                0x000000004019340f                ERR_get_next_error_library
                0x0000000040193424                ERR_set_error_data
                0x00000000401934a1                ERR_add_error_data
                0x00000000401935de                ERR_set_mark
                0x0000000040193609                ERR_pop_to_mark
                0x00000000401936e0                ERR_load_crypto_strings
                0x000000004019377c                ASN1_TYPE_set_octetstring
                0x00000000401937f4                ASN1_TYPE_get_octetstring
                0x0000000040193850                ASN1_TYPE_set_int_octetstring
                0x000000004019397d                ASN1_TYPE_get_int_octetstring
                0x0000000040193b70                EVP_CIPHER_CTX_init
                0x0000000040193b85                EVP_CIPHER_CTX_new
                0x0000000040193bbc                EVP_EncryptUpdate
                0x0000000040193d68                EVP_EncryptFinal_ex
                0x0000000040193e3c                EVP_EncryptFinal
                0x0000000040193e47                EVP_DecryptUpdate
                0x0000000040193f76                EVP_CipherUpdate
                0x0000000040193f91                EVP_DecryptFinal_ex
                0x000000004019412c                EVP_DecryptFinal
                0x0000000040194137                EVP_CipherFinal
                0x0000000040194157                EVP_CipherFinal_ex
                0x0000000040194177                EVP_CIPHER_CTX_cleanup
                0x00000000401941e2                EVP_CIPHER_CTX_free
                0x0000000040194207                EVP_CIPHER_CTX_set_padding
                0x0000000040194228                EVP_CIPHER_CTX_ctrl
                0x00000000401942b8                EVP_CIPHER_CTX_set_key_length
                0x0000000040194319                EVP_CipherInit_ex
                0x000000004019456a                EVP_DecryptInit_ex
                0x000000004019457b                EVP_EncryptInit_ex
                0x000000004019458c                EVP_CipherInit
                0x00000000401945f0                EVP_DecryptInit
                0x0000000040194601                EVP_EncryptInit
                0x0000000040194612                EVP_CIPHER_CTX_rand_key
                0x0000000040194648                EVP_CIPHER_CTX_copy
                0x0000000040194728                ERR_load_EVP_strings
                0x0000000040194760                EVP_CIPHER_param_to_asn1
                0x000000004019477b                EVP_CIPHER_asn1_to_param
                0x0000000040194796                EVP_CIPHER_block_size
                0x000000004019479f                EVP_CIPHER_CTX_block_size
                0x00000000401947ab                EVP_Cipher
                0x00000000401947b9                EVP_CIPHER_CTX_cipher
                0x00000000401947c2                EVP_CIPHER_flags
                0x00000000401947cc                EVP_CIPHER_CTX_flags
                0x00000000401947d9                EVP_CIPHER_CTX_get_app_data
                0x00000000401947e3                EVP_CIPHER_CTX_set_app_data
                0x00000000401947ed                EVP_CIPHER_iv_length
                0x00000000401947f6                EVP_CIPHER_CTX_iv_length
                0x0000000040194802                EVP_CIPHER_set_asn1_iv
                0x0000000040194864                EVP_CIPHER_get_asn1_iv
                0x00000000401948fc                EVP_CIPHER_key_length
                0x0000000040194905                EVP_CIPHER_CTX_key_length
                0x000000004019490e                EVP_CIPHER_nid
                0x0000000040194916                EVP_CIPHER_type
                0x0000000040194a55                EVP_CIPHER_CTX_nid
                0x0000000040194a60                EVP_MD_block_size
                0x0000000040194a69                EVP_MD_type
                0x0000000040194a71                EVP_MD_pkey_type
                0x0000000040194a7a                EVP_MD_size
                0x0000000040194aac                EVP_MD_flags
                0x0000000040194ab6                EVP_MD_CTX_md
                0x0000000040194acb                EVP_MD_CTX_set_flags
                0x0000000040194ad8                EVP_MD_CTX_clear_flags
                0x0000000040194ae7                EVP_MD_CTX_test_flags
                0x0000000040194af2                EVP_CIPHER_CTX_set_flags
                0x0000000040194aff                EVP_CIPHER_CTX_clear_flags
                0x0000000040194b0e                EVP_CIPHER_CTX_test_flags
                0x0000000040194f29                CRYPTO_get_ex_data_implementation
                0x0000000040194f45                CRYPTO_set_ex_data_implementation
                0x0000000040194fae                CRYPTO_ex_data_new_class
                0x0000000040194fcc                CRYPTO_cleanup_all_ex_data
                0x0000000040194feb                CRYPTO_get_ex_new_index
                0x000000004019505a                CRYPTO_new_ex_data
                0x00000000401950a7                CRYPTO_dup_ex_data
                0x00000000401950f4                CRYPTO_free_ex_data
                0x0000000040195141                CRYPTO_set_ex_data
                0x00000000401951fa                CRYPTO_get_ex_data
                0x00000000401956f4                idea_encrypt
                0x0000000040196038                idea_cbc_encrypt
                0x0000000040196660                idea_cfb64_encrypt
                0x0000000040196880                idea_options
                0x000000004019688b                idea_ecb_encrypt
                0x0000000040196944                idea_ofb64_encrypt
                0x0000000040196b7d                idea_set_encrypt_key
                0x0000000040196d06                idea_set_decrypt_key
                0x0000000040196efd                lh_strhash
                0x0000000040196f70                lh_new
                0x00000000401970d1                lh_free
                0x000000004019713c                lh_insert
                0x00000000401972c8                lh_delete
                0x00000000401973f4                lh_retrieve
                0x0000000040197437                lh_doall
                0x0000000040197455                lh_doall_arg
                0x0000000040197470                lh_num_items
                0x00000000401974b7                EVP_dss
                0x00000000401974f7                EVP_dss1
                0x0000000040197537                EVP_ecdsa
                0x0000000040197577                EVP_md4
                0x00000000401975b7                EVP_md5
                0x00000000401975f7                EVP_ripemd160
                0x0000000040197637                EVP_sha
                0x00000000401976fb                EVP_sha1
                0x0000000040197706                EVP_sha224
                0x0000000040197711                EVP_sha256
                0x000000004019771c                EVP_sha384
                0x0000000040197727                EVP_sha512
                0x0000000040197734                MD4_Init
                0x0000000040197776                md4_block_data_order
                0x0000000040197d39                MD4_Final
                0x0000000040197e06                MD4_Transform
                0x0000000040197e16                MD4_Update
                0x0000000040197f58                MD5_Init
                0x0000000040197f9a                md5_block_data_order
                0x00000000401987da                MD5_Final
                0x00000000401988a7                MD5_Transform
                0x00000000401988b7                MD5_Update
                0x00000000401989f8                MD5
                0x0000000040198a94                CRYPTO_set_mem_functions
                0x0000000040198b04                CRYPTO_set_mem_ex_functions
                0x0000000040198b74                CRYPTO_set_locked_mem_functions
                0x0000000040198bb4                CRYPTO_set_locked_mem_ex_functions
                0x0000000040198bf4                CRYPTO_set_mem_debug_functions
                0x0000000040198c2d                CRYPTO_get_mem_functions
                0x0000000040198c82                CRYPTO_get_mem_ex_functions
                0x0000000040198cd3                CRYPTO_get_locked_mem_functions
                0x0000000040198d08                CRYPTO_get_locked_mem_ex_functions
                0x0000000040198d3b                CRYPTO_get_mem_debug_functions
                0x0000000040198d8c                CRYPTO_malloc_locked
                0x0000000040198e48                CRYPTO_free_locked
                0x0000000040198e8f                CRYPTO_malloc
                0x0000000040198f4b                CRYPTO_strdup
                0x0000000040198f9a                CRYPTO_realloc
                0x0000000040199055                CRYPTO_realloc_clean
                0x0000000040199130                CRYPTO_free
                0x0000000040199177                CRYPTO_remalloc
                0x00000000401991a4                CRYPTO_set_mem_debug_options
                0x00000000401991b8                CRYPTO_get_mem_debug_options
                0x00000000401991d4                OPENSSL_cleanse
                0x000000004019964c                CRYPTO_mem_ctrl
                0x00000000401997d6                CRYPTO_is_mem_check_on
                0x0000000040199852                CRYPTO_dbg_set_options
                0x000000004019985f                CRYPTO_dbg_get_options
                0x000000004019986c                CRYPTO_push_info_
                0x000000004019994b                CRYPTO_pop_info
                0x000000004019998d                CRYPTO_remove_all_info
                0x00000000401999d0                CRYPTO_dbg_malloc
                0x0000000040199b6f                CRYPTO_dbg_free
                0x0000000040199be4                CRYPTO_dbg_realloc
                0x0000000040199c84                CRYPTO_mem_leaks
                0x0000000040199da3                CRYPTO_mem_leaks_cb
                0x0000000040199e7e                EVP_add_cipher
                0x0000000040199eca                EVP_add_digest
                0x0000000040199f6b                EVP_get_cipherbyname
                0x0000000040199f7b                EVP_get_digestbyname
                0x0000000040199f8b                EVP_cleanup
                0x0000000040199fd1                EVP_CIPHER_do_all
                0x0000000040199ff6                EVP_CIPHER_do_all_sorted
                0x000000004019a01b                EVP_MD_do_all
                0x000000004019a040                EVP_MD_do_all_sorted
                0x000000004019a174                OBJ_NAME_init
                0x000000004019a1c1                OBJ_NAME_new_index
                0x000000004019a329                OBJ_NAME_get
                0x000000004019a3cc                OBJ_NAME_add
                0x000000004019a4b3                OBJ_NAME_remove
                0x000000004019a55e                OBJ_NAME_do_all
                0x000000004019a588                OBJ_NAME_do_all_sorted
                0x000000004019a62b                OBJ_NAME_cleanup
                0x000000004019a8fa                check_defer
                0x000000004019a91b                OBJ_cleanup
                0x000000004019a98d                OBJ_new_nid
                0x000000004019a9a1                OBJ_add_object
                0x000000004019ab53                OBJ_nid2obj
                0x000000004019ac0f                OBJ_nid2sn
                0x000000004019acce                OBJ_nid2ln
                0x000000004019ad8e                OBJ_bsearch_ex_
                0x000000004019ae87                OBJ_bsearch_
                0x000000004019ae98                OBJ_sn2nid
                0x000000004019af14                OBJ_ln2nid
                0x000000004019af90                OBJ_txt2obj
                0x000000004019b098                OBJ_obj2nid
                0x000000004019b120                OBJ_txt2nid
                0x000000004019b15d                OBJ_obj2txt
                0x000000004019b4b0                OBJ_create
                0x000000004019b5b5                OBJ_create_objects
                0x000000004019b708                ERR_load_OBJ_strings
                0x000000004019b740                OBJ_dup
                0x000000004019b91a                OBJ_cmp
                0x000000004019b938                ERR_load_OCSP_strings
                0x000000004019b970                DES_ede3_ofb64_encrypt
                0x000000004019bb40                DES_ofb64_encrypt
                0x000000004019be61                EVP_PKEY_bits
                0x000000004019be85                EVP_PKEY_size
                0x000000004019bea9                EVP_PKEY_save_parameters
                0x000000004019bedb                EVP_PKEY_missing_parameters
                0x000000004019befa                EVP_PKEY_copy_parameters
                0x000000004019bf9a                EVP_PKEY_cmp_parameters
                0x000000004019bfd0                EVP_PKEY_cmp
                0x000000004019c02b                EVP_PKEY_new
                0x000000004019c0b6                EVP_PKEY_set_type
                0x000000004019c0cb                EVP_PKEY_set_type_str
                0x000000004019c0e0                EVP_PKEY_assign
                0x000000004019c11d                EVP_PKEY_get0
                0x000000004019c127                EVP_PKEY_set1_RSA
                0x000000004019c161                EVP_PKEY_get1_RSA
                0x000000004019c1ac                EVP_PKEY_set1_DSA
                0x000000004019c1e6                EVP_PKEY_get1_DSA
                0x000000004019c231                EVP_PKEY_set1_EC_KEY
                0x000000004019c26b                EVP_PKEY_get1_EC_KEY
                0x000000004019c2b9                EVP_PKEY_set1_DH
                0x000000004019c2f3                EVP_PKEY_get1_DH
                0x000000004019c33e                EVP_PKEY_type
                0x000000004019c361                EVP_PKEY_id
                0x000000004019c369                EVP_PKEY_base_id
                0x000000004019c376                EVP_PKEY_free
                0x000000004019c3d3                EVP_PKEY_print_public
                0x000000004019c3f9                EVP_PKEY_print_private
                0x000000004019c421                EVP_PKEY_print_params
                0x000000004019c44a                EVP_PKEY_get_default_digest_nid
                0x000000004019c484                PEM_read_bio_X509_REQ
                0x000000004019c4a5                PEM_write_bio_X509_REQ
                0x000000004019c4e9                PEM_write_bio_X509_REQ_NEW
                0x000000004019c52d                PEM_read_bio_X509_CRL
                0x000000004019c54e                PEM_write_bio_X509_CRL
                0x000000004019c592                PEM_read_bio_PKCS7
                0x000000004019c5b3                PEM_write_bio_PKCS7
                0x000000004019c5f7                PEM_read_bio_NETSCAPE_CERT_SEQUENCE
                0x000000004019c618                PEM_write_bio_NETSCAPE_CERT_SEQUENCE
                0x000000004019c65c                PEM_read_bio_RSAPrivateKey
                0x000000004019c6c5                PEM_write_bio_RSAPrivateKey
                0x000000004019c6fc                PEM_read_bio_RSAPublicKey
                0x000000004019c71d                PEM_write_bio_RSAPublicKey
                0x000000004019c761                PEM_read_bio_RSA_PUBKEY
                0x000000004019c782                PEM_write_bio_RSA_PUBKEY
                0x000000004019c7c6                PEM_read_bio_DSAPrivateKey
                0x000000004019c82f                PEM_write_bio_DSAPrivateKey
                0x000000004019c866                PEM_read_bio_DSA_PUBKEY
                0x000000004019c887                PEM_write_bio_DSA_PUBKEY
                0x000000004019c8cb                PEM_read_bio_DSAparams
                0x000000004019c8ec                PEM_write_bio_DSAparams
                0x000000004019c930                PEM_read_bio_ECPrivateKey
                0x000000004019c999                PEM_read_bio_ECPKParameters
                0x000000004019c9ba                PEM_write_bio_ECPKParameters
                0x000000004019c9fe                PEM_write_bio_ECPrivateKey
                0x000000004019ca35                PEM_read_bio_EC_PUBKEY
                0x000000004019ca56                PEM_write_bio_EC_PUBKEY
                0x000000004019ca9a                PEM_read_bio_DHparams
                0x000000004019cabb                PEM_write_bio_DHparams
                0x000000004019caff                PEM_read_bio_PUBKEY
                0x000000004019cb20                PEM_write_bio_PUBKEY
                0x000000004019cb64                ERR_load_PEM_strings
                0x000000004019cba0                PEM_def_callback
                0x000000004019cbca                PEM_proc_type
                0x000000004019cc32                PEM_dek_info
                0x000000004019ccf1                PEM_do_header
                0x000000004019ceca                PEM_get_EVP_CIPHER_INFO
                0x000000004019d169                PEM_write_bio
                0x000000004019d438                PEM_ASN1_write_bio
                0x000000004019d853                PEM_read_bio
                0x000000004019df3c                pem_check_suffix
                0x000000004019dfb1                PEM_bytes_read_bio
                0x000000004019e2fc                PEM_ASN1_read_bio
                0x000000004019e3a8                PEM_read_bio_PrivateKey
                0x000000004019e604                PEM_write_bio_PrivateKey
                0x000000004019e6d0                PEM_read_bio_Parameters
                0x000000004019e7f2                PEM_write_bio_Parameters
                0x000000004019e874                PEM_read_bio_X509
                0x000000004019e895                PEM_write_bio_X509
                0x000000004019e8dc                ERR_load_PKCS12_strings
                0x000000004019e9ea                d2i_PKCS7
                0x000000004019e9fa                i2d_PKCS7
                0x000000004019ea0a                PKCS7_new
                0x000000004019ea1a                PKCS7_free
                0x000000004019ea2a                i2d_PKCS7_NDEF
                0x000000004019ea3a                PKCS7_dup
                0x000000004019ea4d                d2i_PKCS7_SIGNED
                0x000000004019ea5d                i2d_PKCS7_SIGNED
                0x000000004019ea6d                PKCS7_SIGNED_new
                0x000000004019ea7d                PKCS7_SIGNED_free
                0x000000004019ea8d                d2i_PKCS7_SIGNER_INFO
                0x000000004019ea9d                i2d_PKCS7_SIGNER_INFO
                0x000000004019eaad                PKCS7_SIGNER_INFO_new
                0x000000004019eabd                PKCS7_SIGNER_INFO_free
                0x000000004019eacd                d2i_PKCS7_ISSUER_AND_SERIAL
                0x000000004019eadd                i2d_PKCS7_ISSUER_AND_SERIAL
                0x000000004019eaed                PKCS7_ISSUER_AND_SERIAL_new
                0x000000004019eafd                PKCS7_ISSUER_AND_SERIAL_free
                0x000000004019eb0d                d2i_PKCS7_ENVELOPE
                0x000000004019eb1d                i2d_PKCS7_ENVELOPE
                0x000000004019eb2d                PKCS7_ENVELOPE_new
                0x000000004019eb3d                PKCS7_ENVELOPE_free
                0x000000004019eb4d                d2i_PKCS7_RECIP_INFO
                0x000000004019eb5d                i2d_PKCS7_RECIP_INFO
                0x000000004019eb6d                PKCS7_RECIP_INFO_new
                0x000000004019eb7d                PKCS7_RECIP_INFO_free
                0x000000004019eb8d                d2i_PKCS7_ENC_CONTENT
                0x000000004019eb9d                i2d_PKCS7_ENC_CONTENT
                0x000000004019ebad                PKCS7_ENC_CONTENT_new
                0x000000004019ebbd                PKCS7_ENC_CONTENT_free
                0x000000004019ebcd                d2i_PKCS7_SIGN_ENVELOPE
                0x000000004019ebdd                i2d_PKCS7_SIGN_ENVELOPE
                0x000000004019ebed                PKCS7_SIGN_ENVELOPE_new
                0x000000004019ebfd                PKCS7_SIGN_ENVELOPE_free
                0x000000004019ec0d                d2i_PKCS7_ENCRYPT
                0x000000004019ec1d                i2d_PKCS7_ENCRYPT
                0x000000004019ec2d                PKCS7_ENCRYPT_new
                0x000000004019ec3d                PKCS7_ENCRYPT_free
                0x000000004019ec4d                d2i_PKCS7_DIGEST
                0x000000004019ec5d                i2d_PKCS7_DIGEST
                0x000000004019ec6d                PKCS7_DIGEST_new
                0x000000004019ec7d                PKCS7_DIGEST_free
                0x000000004019ec8d                PKCS7_print_ctx
                0x000000004019f209                PKCS7_dataInit
                0x000000004019f8de                PKCS7_dataDecode
                0x000000004019ff85                PKCS7_SIGNER_INFO_sign
                0x00000000401a014e                PKCS7_get_issuer_and_serial
                0x00000000401a01bd                PKCS7_get_signed_attribute
                0x00000000401a01cc                PKCS7_dataFinal
                0x00000000401a077e                PKCS7_get_attribute
                0x00000000401a078d                PKCS7_digest_from_attributes
                0x00000000401a07ad                PKCS7_signatureVerify
                0x00000000401a0ab4                PKCS7_dataVerify
                0x00000000401a0c32                PKCS7_set_signed_attributes
                0x00000000401a0cc5                PKCS7_set_attributes
                0x00000000401a0d58                PKCS7_add_signed_attribute
                0x00000000401a0d67                PKCS7_add_attribute
                0x00000000401a0d80                PKCS7_ctrl
                0x00000000401a0ebc                PKCS7_set_content
                0x00000000401a0f4d                PKCS7_set_type
                0x00000000401a115e                PKCS7_content_new
                0x00000000401a11ca                PKCS7_set0_type_other
                0x00000000401a11fe                PKCS7_add_signer
                0x00000000401a135b                PKCS7_add_certificate
                0x00000000401a143c                PKCS7_add_crl
                0x00000000401a151c                PKCS7_SIGNER_INFO_set
                0x00000000401a168c                PKCS7_add_signature
                0x00000000401a1760                PKCS7_set_digest
                0x00000000401a182c                PKCS7_get_signer_info
                0x00000000401a1875                PKCS7_SIGNER_INFO_get0_algs
                0x00000000401a189f                PKCS7_RECIP_INFO_get0_alg
                0x00000000401a18b1                PKCS7_add_recipient_info
                0x00000000401a1920                PKCS7_RECIP_INFO_set
                0x00000000401a1aab                PKCS7_add_recipient
                0x00000000401a1b10                PKCS7_cert_from_signer_info
                0x00000000401a1b62                PKCS7_set_cipher
                0x00000000401a1bfc                PKCS7_stream
                0x00000000401a1cc8                ERR_load_PKCS7_strings
                0x00000000401a1d00                ERR_load_RAND_strings
                0x00000000401a1d38                DES_random_key
                0x00000000401a1d80                RAND_set_rand_method
                0x00000000401a1d92                RAND_get_rand_method
                0x00000000401a1db5                RAND_cleanup
                0x00000000401a1dda                RAND_seed
                0x00000000401a1e12                RAND_add
                0x00000000401a1e5b                RAND_bytes
                0x00000000401a1ea2                RAND_pseudo_bytes
                0x00000000401a1ee9                RAND_status
                0x00000000401a1f0c                RC2_encrypt
                0x00000000401a206a                RC2_decrypt
                0x00000000401a21d0                RC2_cbc_encrypt
                0x00000000401a27f8                RC2_ecb_encrypt
                0x00000000401a28c0                RC2_set_key
                0x00000000401a29f0                RC2_cfb64_encrypt
                0x00000000401a2c04                RC2_ofb64_encrypt
                0x00000000401a2db8                RC4
                0x00000000401a3254                RC4_options
                0x00000000401a325f                RC4_set_key
                0x00000000401a3364                RIPEMD160_Init
                0x00000000401a33ad                ripemd160_block_data_order
                0x00000000401a4a02                RIPEMD160_Final
                0x00000000401a4ad7                RIPEMD160_Transform
                0x00000000401a4ae7                RIPEMD160_Update
                0x00000000401a4c72                d2i_RSAPrivateKey
                0x00000000401a4c82                i2d_RSAPrivateKey
                0x00000000401a4c92                d2i_RSAPublicKey
                0x00000000401a4ca2                i2d_RSAPublicKey
                0x00000000401a4cb2                RSAPublicKey_dup
                0x00000000401a4cc5                RSAPrivateKey_dup
                0x00000000401a4ce0                RSA_generate_key
                0x00000000401a4da0                ERR_load_RSA_strings
                0x00000000401a4de0                RSA_generate_key_ex
                0x00000000401a53b0                RSA_set_default_method
                0x00000000401a53bd                RSA_get_default_method
                0x00000000401a53e0                RSA_get_method
                0x00000000401a53ea                RSA_set_method
                0x00000000401a5431                RSA_new_method
                0x00000000401a557d                RSA_new
                0x00000000401a558d                RSA_free
                0x00000000401a569d                RSA_up_ref
                0x00000000401a56ca                RSA_get_ex_new_index
                0x00000000401a56e9                RSA_set_ex_data
                0x00000000401a56f8                RSA_get_ex_data
                0x00000000401a5707                RSA_size
                0x00000000401a5722                RSA_public_encrypt
                0x00000000401a572f                RSA_private_encrypt
                0x00000000401a573c                RSA_private_decrypt
                0x00000000401a5749                RSA_public_decrypt
                0x00000000401a5756                RSA_flags
                0x00000000401a576d                RSA_blinding_off
                0x00000000401a57a7                RSA_setup_blinding
                0x00000000401a5a50                RSA_blinding_on
                0x00000000401a5aae                RSA_memory_lock
                0x00000000401a5c00                RSA_sign
                0x00000000401a5e65                int_rsa_verify
                0x00000000401a61ff                RSA_verify
                0x00000000401a6240                DES_set_odd_parity
                0x00000000401a6263                DES_check_key_parity
                0x00000000401a62a4                DES_is_weak_key
                0x00000000401a62f3                DES_set_key_unchecked
                0x00000000401a6597                DES_set_key_checked
                0x00000000401a65e8                DES_set_key
                0x00000000401a660c                DES_key_sched
                0x00000000401a6618                SHA1
                0x00000000401a77cb                SHA1_Update
                0x00000000401a790a                SHA1_Transform
                0x00000000401a791a                SHA1_Final
                0x00000000401a79fd                SHA1_Init
                0x00000000401a9260                SHA224_Init
                0x00000000401a92c5                SHA256_Init
                0x00000000401a932a                SHA256_Update
                0x00000000401a9469                SHA224_Update
                0x00000000401a9474                SHA256_Transform
                0x00000000401a9484                SHA256_Final
                0x00000000401a95ae                SHA224_Final
                0x00000000401a95b9                SHA256
                0x00000000401a9634                SHA224
                0x00000000401aaea5                SHA384_Init
                0x00000000401aaf43                SHA512_Init
                0x00000000401aafe1                SHA512_Final
                0x00000000401ab246                SHA384_Final
                0x00000000401ab251                SHA512_Update
                0x00000000401ab361                SHA384_Update
                0x00000000401ab36c                SHA512_Transform
                0x00000000401ab37c                SHA384
                0x00000000401ab3f7                SHA512
                0x00000000401ac447                SHA_Update
                0x00000000401ac586                SHA_Transform
                0x00000000401ac596                SHA_Final
                0x00000000401ac679                SHA_Init
                0x00000000401ac6d0                sk_set_cmp_func
                0x00000000401ac6ea                sk_new
                0x00000000401ac787                sk_new_null
                0x00000000401ac797                sk_insert
                0x00000000401ac852                sk_delete
                0x00000000401ac8ae                sk_delete_ptr
                0x00000000401ac8f4                sk_push
                0x00000000401ac901                sk_unshift
                0x00000000401ac911                sk_shift
                0x00000000401ac937                sk_pop
                0x00000000401ac95c                sk_zero
                0x00000000401ac991                sk_free
                0x00000000401ac9bf                sk_pop_free
                0x00000000401aca11                sk_dup
                0x00000000401aca97                sk_num
                0x00000000401acaab                sk_value
                0x00000000401acada                sk_set
                0x00000000401acb0e                sk_sort
                0x00000000401acbec                sk_find_ex
                0x00000000401acbfc                sk_find
                0x00000000401acc0c                sk_is_sorted
                0x00000000401ad0b2                ASN1_tag2bit
                0x00000000401ad0cd                asn1_ex_c2i
                0x00000000401ad91d                ASN1_item_ex_d2i
                0x00000000401ae7fa                ASN1_template_d2i
                0x00000000401ae817                ASN1_item_d2i
                0x00000000401ae8c1                asn1_ex_i2c
                0x00000000401aeb8a                ASN1_item_ex_i2d
                0x00000000401af3e9                ASN1_template_i2d
                0x00000000401af4c5                ASN1_item_i2d
                0x00000000401af4d5                ASN1_item_ndef_i2d
                0x00000000401af4f0                ASN1_primitive_free
                0x00000000401af816                ASN1_template_free
                0x00000000401af89a                ASN1_item_ex_free
                0x00000000401af8aa                ASN1_item_free
                0x00000000401af992                ASN1_primitive_new
                0x00000000401afdbc                ASN1_template_new
                0x00000000401afe49                ASN1_item_ex_new
                0x00000000401afe59                ASN1_item_new
                0x00000000401afe88                d2i_ASN1_INTEGER
                0x00000000401afe98                i2d_ASN1_INTEGER
                0x00000000401afea8                ASN1_INTEGER_new
                0x00000000401afeb8                ASN1_INTEGER_free
                0x00000000401afec8                d2i_ASN1_ENUMERATED
                0x00000000401afed8                i2d_ASN1_ENUMERATED
                0x00000000401afee8                ASN1_ENUMERATED_new
                0x00000000401afef8                ASN1_ENUMERATED_free
                0x00000000401aff08                d2i_ASN1_BIT_STRING
                0x00000000401aff18                i2d_ASN1_BIT_STRING
                0x00000000401aff28                ASN1_BIT_STRING_new
                0x00000000401aff38                ASN1_BIT_STRING_free
                0x00000000401aff48                d2i_ASN1_OCTET_STRING
                0x00000000401aff58                i2d_ASN1_OCTET_STRING
                0x00000000401aff68                ASN1_OCTET_STRING_new
                0x00000000401aff78                ASN1_OCTET_STRING_free
                0x00000000401aff88                d2i_ASN1_NULL
                0x00000000401aff98                i2d_ASN1_NULL
                0x00000000401affa8                ASN1_NULL_new
                0x00000000401affb8                ASN1_NULL_free
                0x00000000401affc8                d2i_ASN1_UTF8STRING
                0x00000000401affd8                i2d_ASN1_UTF8STRING
                0x00000000401affe8                ASN1_UTF8STRING_new
                0x00000000401afff8                ASN1_UTF8STRING_free
                0x00000000401b0008                d2i_ASN1_PRINTABLESTRING
                0x00000000401b0018                i2d_ASN1_PRINTABLESTRING
                0x00000000401b0028                ASN1_PRINTABLESTRING_new
                0x00000000401b0038                ASN1_PRINTABLESTRING_free
                0x00000000401b0048                d2i_ASN1_T61STRING
                0x00000000401b0058                i2d_ASN1_T61STRING
                0x00000000401b0068                ASN1_T61STRING_new
                0x00000000401b0078                ASN1_T61STRING_free
                0x00000000401b0088                d2i_ASN1_IA5STRING
                0x00000000401b0098                i2d_ASN1_IA5STRING
                0x00000000401b00a8                ASN1_IA5STRING_new
                0x00000000401b00b8                ASN1_IA5STRING_free
                0x00000000401b00c8                d2i_ASN1_GENERALSTRING
                0x00000000401b00d8                i2d_ASN1_GENERALSTRING
                0x00000000401b00e8                ASN1_GENERALSTRING_new
                0x00000000401b00f8                ASN1_GENERALSTRING_free
                0x00000000401b0108                d2i_ASN1_UTCTIME
                0x00000000401b0118                i2d_ASN1_UTCTIME
                0x00000000401b0128                ASN1_UTCTIME_new
                0x00000000401b0138                ASN1_UTCTIME_free
                0x00000000401b0148                d2i_ASN1_GENERALIZEDTIME
                0x00000000401b0158                i2d_ASN1_GENERALIZEDTIME
                0x00000000401b0168                ASN1_GENERALIZEDTIME_new
                0x00000000401b0178                ASN1_GENERALIZEDTIME_free
                0x00000000401b0188                d2i_ASN1_VISIBLESTRING
                0x00000000401b0198                i2d_ASN1_VISIBLESTRING
                0x00000000401b01a8                ASN1_VISIBLESTRING_new
                0x00000000401b01b8                ASN1_VISIBLESTRING_free
                0x00000000401b01c8                d2i_ASN1_UNIVERSALSTRING
                0x00000000401b01d8                i2d_ASN1_UNIVERSALSTRING
                0x00000000401b01e8                ASN1_UNIVERSALSTRING_new
                0x00000000401b01f8                ASN1_UNIVERSALSTRING_free
                0x00000000401b0208                d2i_ASN1_BMPSTRING
                0x00000000401b0218                i2d_ASN1_BMPSTRING
                0x00000000401b0228                ASN1_BMPSTRING_new
                0x00000000401b0238                ASN1_BMPSTRING_free
                0x00000000401b0248                d2i_ASN1_TYPE
                0x00000000401b0258                i2d_ASN1_TYPE
                0x00000000401b0268                ASN1_TYPE_new
                0x00000000401b0278                ASN1_TYPE_free
                0x00000000401b0288                d2i_ASN1_PRINTABLE
                0x00000000401b0298                i2d_ASN1_PRINTABLE
                0x00000000401b02a8                ASN1_PRINTABLE_new
                0x00000000401b02b8                ASN1_PRINTABLE_free
                0x00000000401b02c8                d2i_DISPLAYTEXT
                0x00000000401b02d8                i2d_DISPLAYTEXT
                0x00000000401b02e8                DISPLAYTEXT_new
                0x00000000401b02f8                DISPLAYTEXT_free
                0x00000000401b0308                d2i_DIRECTORYSTRING
                0x00000000401b0318                i2d_DIRECTORYSTRING
                0x00000000401b0328                DIRECTORYSTRING_new
                0x00000000401b0338                DIRECTORYSTRING_free
                0x00000000401b0348                d2i_ASN1_SEQUENCE_ANY
                0x00000000401b0358                i2d_ASN1_SEQUENCE_ANY
                0x00000000401b0368                d2i_ASN1_SET_ANY
                0x00000000401b0378                i2d_ASN1_SET_ANY
                0x00000000401b03d3                asn1_get_choice_selector
                0x00000000401b03e3                asn1_set_choice_selector
                0x00000000401b03f7                asn1_do_lock
                0x00000000401b0451                asn1_enc_init
                0x00000000401b0477                asn1_enc_free
                0x00000000401b04b7                asn1_enc_save
                0x00000000401b0541                asn1_enc_restore
                0x00000000401b05bb                asn1_get_field_ptr
                0x00000000401b05d3                asn1_do_adb
                0x00000000401b0690                ERR_load_UI_strings
                0x00000000401b06c8                ERR_load_X509V3_strings
                0x00000000401b0700                X509_issuer_and_serial_hash
                0x00000000401b07cf                X509_CRL_match
                0x00000000401b07e7                X509_get_issuer_name
                0x00000000401b07f4                X509_get_subject_name
                0x00000000401b0801                X509_get_serialNumber
                0x00000000401b080e                X509_cmp
                0x00000000401b0868                X509_NAME_cmp
                0x00000000401b08e1                X509_CRL_cmp
                0x00000000401b08fa                X509_subject_name_cmp
                0x00000000401b0913                X509_issuer_name_cmp
                0x00000000401b092c                X509_issuer_and_serial_cmp
                0x00000000401b096c                X509_NAME_hash
                0x00000000401b09d2                X509_subject_name_hash
                0x00000000401b09e4                X509_issuer_name_hash
                0x00000000401b09f6                X509_NAME_hash_old
                0x00000000401b0a5f                X509_subject_name_hash_old
                0x00000000401b0a71                X509_issuer_name_hash_old
                0x00000000401b0a83                X509_find_by_issuer_and_serial
                0x00000000401b0b06                X509_find_by_subject
                0x00000000401b0b63                X509_get_pubkey
                0x00000000401b0b8b                X509_get0_pubkey_bitstr
                0x00000000401b0ba8                X509_check_private_key
                0x00000000401b0c64                ERR_load_X509_strings
                0x00000000401b0c9c                X509_NAME_oneline
                0x00000000401b14da                X509_time_adj_ex
                0x00000000401b1527                X509_time_adj
                0x00000000401b153d                X509_gmtime_adj
                0x00000000401b154d                X509_cmp_time
                0x00000000401b2612                X509_cmp_current_time
                0x00000000401b2622                X509_get_pubkey_parameters
                0x00000000401b274e                X509_verify_cert
                0x00000000401b30e1                X509_STORE_CTX_get_ex_new_index
                0x00000000401b3100                X509_STORE_CTX_set_ex_data
                0x00000000401b3112                X509_STORE_CTX_get_ex_data
                0x00000000401b3124                X509_STORE_CTX_get_error
                0x00000000401b3130                X509_STORE_CTX_set_error
                0x00000000401b313c                X509_STORE_CTX_get_error_depth
                0x00000000401b3148                X509_STORE_CTX_get_current_cert
                0x00000000401b3155                X509_STORE_CTX_get_chain
                0x00000000401b3162                X509_STORE_CTX_get1_chain
                0x00000000401b31ce                X509_STORE_CTX_get0_current_issuer
                0x00000000401b31db                X509_STORE_CTX_get0_current_crl
                0x00000000401b31e8                X509_STORE_CTX_get0_parent_ctx
                0x00000000401b31f5                X509_STORE_CTX_set_cert
                0x00000000401b31ff                X509_STORE_CTX_set_chain
                0x00000000401b3209                X509_STORE_CTX_set0_crls
                0x00000000401b3213                X509_STORE_CTX_purpose_inherit
                0x00000000401b3340                X509_STORE_CTX_set_trust
                0x00000000401b3357                X509_STORE_CTX_set_purpose
                0x00000000401b336e                X509_STORE_CTX_new
                0x00000000401b33d0                X509_STORE_CTX_init
                0x00000000401b372f                X509_STORE_CTX_trusted_stack
                0x00000000401b3741                X509_STORE_CTX_cleanup
                0x00000000401b37e4                X509_STORE_CTX_free
                0x00000000401b3804                X509_STORE_CTX_set_depth
                0x00000000401b3813                X509_STORE_CTX_set_flags
                0x00000000401b3822                X509_STORE_CTX_set_time
                0x00000000401b3833                X509_STORE_CTX_set_verify_cb
                0x00000000401b383d                X509_STORE_CTX_get0_policy_tree
                0x00000000401b384a                X509_STORE_CTX_get_explicit_policy
                0x00000000401b3856                X509_STORE_CTX_set_default
                0x00000000401b3887                X509_STORE_CTX_get0_param
                0x00000000401b3891                X509_STORE_CTX_set0_param
                0x00000000401b3c87                X509_VERIFY_PARAM_free
                0x00000000401b3ca7                X509_VERIFY_PARAM_new
                0x00000000401b3ceb                X509_VERIFY_PARAM_set1_name
                0x00000000401b3d2c                X509_VERIFY_PARAM_set_flags
                0x00000000401b3d50                X509_VERIFY_PARAM_clear_flags
                0x00000000401b3d62                X509_VERIFY_PARAM_get_flags
                0x00000000401b3d6c                X509_VERIFY_PARAM_set_purpose
                0x00000000401b3d7b                X509_VERIFY_PARAM_set_trust
                0x00000000401b3d8a                X509_VERIFY_PARAM_set_depth
                0x00000000401b3d93                X509_VERIFY_PARAM_set_time
                0x00000000401b3da1                X509_VERIFY_PARAM_add0_policy
                0x00000000401b3df2                X509_VERIFY_PARAM_set1_policies
                0x00000000401b3eb9                X509_VERIFY_PARAM_inherit
                0x00000000401b3fcf                X509_VERIFY_PARAM_set1
                0x00000000401b4004                X509_VERIFY_PARAM_get_depth
                0x00000000401b400d                X509_VERIFY_PARAM_add0_table
                0x00000000401b4094                X509_VERIFY_PARAM_lookup
                0x00000000401b40ea                X509_VERIFY_PARAM_table_cleanup
                0x00000000401b4114                d2i_X509_ALGOR
                0x00000000401b4124                i2d_X509_ALGOR
                0x00000000401b4134                X509_ALGOR_new
                0x00000000401b4144                X509_ALGOR_free
                0x00000000401b4154                d2i_X509_ALGORS
                0x00000000401b4164                i2d_X509_ALGORS
                0x00000000401b4174                X509_ALGOR_dup
                0x00000000401b4187                X509_ALGOR_set0
                0x00000000401b4239                X509_ALGOR_get0
                0x00000000401b4274                X509_verify
                0x00000000401b4295                X509_REQ_verify
                0x00000000401b42b6                NETSCAPE_SPKI_verify
                0x00000000401b42d7                X509_sign
                0x00000000401b4311                X509_REQ_sign
                0x00000000401b433f                X509_CRL_sign
                0x00000000401b4379                NETSCAPE_SPKI_sign
                0x00000000401b43a7                d2i_X509_bio
                0x00000000401b43bd                i2d_X509_bio
                0x00000000401b43d3                d2i_X509_CRL_bio
                0x00000000401b43e9                i2d_X509_CRL_bio
                0x00000000401b43ff                d2i_PKCS7_bio
                0x00000000401b4415                i2d_PKCS7_bio
                0x00000000401b442b                d2i_X509_REQ_bio
                0x00000000401b4441                i2d_X509_REQ_bio
                0x00000000401b4457                d2i_RSAPrivateKey_bio
                0x00000000401b446d                i2d_RSAPrivateKey_bio
                0x00000000401b4483                d2i_RSAPublicKey_bio
                0x00000000401b4499                d2i_RSA_PUBKEY_bio
                0x00000000401b44b4                i2d_RSAPublicKey_bio
                0x00000000401b44ca                i2d_RSA_PUBKEY_bio
                0x00000000401b44e0                d2i_DSAPrivateKey_bio
                0x00000000401b44fb                i2d_DSAPrivateKey_bio
                0x00000000401b4511                d2i_DSA_PUBKEY_bio
                0x00000000401b452c                i2d_DSA_PUBKEY_bio
                0x00000000401b4542                d2i_EC_PUBKEY_bio
                0x00000000401b455d                i2d_EC_PUBKEY_bio
                0x00000000401b4573                d2i_ECPrivateKey_bio
                0x00000000401b458e                i2d_ECPrivateKey_bio
                0x00000000401b45a4                X509_pubkey_digest
                0x00000000401b45fc                X509_digest
                0x00000000401b4615                X509_CRL_digest
                0x00000000401b462e                X509_REQ_digest
                0x00000000401b4647                X509_NAME_digest
                0x00000000401b4660                PKCS7_ISSUER_AND_SERIAL_digest
                0x00000000401b4679                d2i_PKCS8_bio
                0x00000000401b4694                i2d_PKCS8_bio
                0x00000000401b46aa                d2i_PKCS8_PRIV_KEY_INFO_bio
                0x00000000401b46c5                i2d_PKCS8_PRIV_KEY_INFO_bio
                0x00000000401b46db                i2d_PKCS8PrivateKeyInfo_bio
                0x00000000401b472f                i2d_PrivateKey_bio
                0x00000000401b4745                d2i_PrivateKey_bio
                0x00000000401b4760                i2d_PUBKEY_bio
                0x00000000401b4776                d2i_PUBKEY_bio
                0x00000000401b4794                d2i_X509_ATTRIBUTE
                0x00000000401b47a4                i2d_X509_ATTRIBUTE
                0x00000000401b47b4                X509_ATTRIBUTE_new
                0x00000000401b47c4                X509_ATTRIBUTE_free
                0x00000000401b47d4                X509_ATTRIBUTE_dup
                0x00000000401b47e7                X509_ATTRIBUTE_create
                0x00000000401b501e                d2i_X509_REVOKED
                0x00000000401b502e                i2d_X509_REVOKED
                0x00000000401b503e                X509_REVOKED_new
                0x00000000401b504e                X509_REVOKED_free
                0x00000000401b505e                d2i_X509_CRL_INFO
                0x00000000401b506e                i2d_X509_CRL_INFO
                0x00000000401b507e                X509_CRL_INFO_new
                0x00000000401b508e                X509_CRL_INFO_free
                0x00000000401b509e                d2i_X509_CRL
                0x00000000401b50ae                i2d_X509_CRL
                0x00000000401b50be                X509_CRL_new
                0x00000000401b50ce                X509_CRL_free
                0x00000000401b50de                X509_CRL_dup
                0x00000000401b50f1                X509_CRL_add0_revoked
                0x00000000401b5172                X509_CRL_verify
                0x00000000401b518c                X509_CRL_get0_by_serial
                0x00000000401b51ac                X509_CRL_get0_by_cert
                0x00000000401b521b                X509_CRL_set_default_method
                0x00000000401b5234                X509_CRL_METHOD_new
                0x00000000401b5299                X509_CRL_METHOD_free
                0x00000000401b52a9                X509_CRL_set_meth_data
                0x00000000401b52b3                X509_CRL_get_meth_data
                0x00000000401b52c0                d2i_X509_EXTENSION
                0x00000000401b52d0                i2d_X509_EXTENSION
                0x00000000401b52e0                X509_EXTENSION_new
                0x00000000401b52f0                X509_EXTENSION_free
                0x00000000401b5300                d2i_X509_EXTENSIONS
                0x00000000401b5310                i2d_X509_EXTENSIONS
                0x00000000401b5320                X509_EXTENSION_dup
                0x00000000401b56bd                X509_NAME_ENTRY_free
                0x00000000401b56cd                d2i_X509_NAME_ENTRY
                0x00000000401b56dd                i2d_X509_NAME_ENTRY
                0x00000000401b56ed                X509_NAME_ENTRY_new
                0x00000000401b5c1c                X509_NAME_ENTRY_dup
                0x00000000401b5c2f                d2i_X509_NAME
                0x00000000401b5c3f                i2d_X509_NAME
                0x00000000401b5c4f                X509_NAME_new
                0x00000000401b5c5f                X509_NAME_free
                0x00000000401b5e11                X509_NAME_dup
                0x00000000401b5e24                X509_NAME_set
                0x00000000401b5e9c                d2i_X509_PUBKEY
                0x00000000401b5eac                i2d_X509_PUBKEY
                0x00000000401b5ebc                X509_PUBKEY_new
                0x00000000401b5ecc                X509_PUBKEY_free
                0x00000000401b5edc                X509_PUBKEY_set
                0x00000000401b5fcd                X509_PUBKEY_get
                0x00000000401b612c                d2i_PUBKEY
                0x00000000401b6195                i2d_PUBKEY
                0x00000000401b61ed                d2i_RSA_PUBKEY
                0x00000000401b6272                i2d_RSA_PUBKEY
                0x00000000401b62ff                d2i_DSA_PUBKEY
                0x00000000401b6384                i2d_DSA_PUBKEY
                0x00000000401b6411                d2i_EC_PUBKEY
                0x00000000401b6496                i2d_EC_PUBKEY
                0x00000000401b6523                X509_PUBKEY_set0_param
                0x00000000401b65a0                X509_PUBKEY_get0_param
                0x00000000401b660b                d2i_X509_REQ_INFO
                0x00000000401b661b                i2d_X509_REQ_INFO
                0x00000000401b662b                X509_REQ_INFO_new
                0x00000000401b663b                X509_REQ_INFO_free
                0x00000000401b664b                d2i_X509_REQ
                0x00000000401b665b                i2d_X509_REQ
                0x00000000401b666b                X509_REQ_new
                0x00000000401b667b                X509_REQ_free
                0x00000000401b668b                X509_REQ_dup
                0x00000000401b66a0                d2i_X509_SIG
                0x00000000401b66b0                i2d_X509_SIG
                0x00000000401b66c0                X509_SIG_new
                0x00000000401b66d0                X509_SIG_free
                0x00000000401b66e0                d2i_NETSCAPE_SPKAC
                0x00000000401b66f0                i2d_NETSCAPE_SPKAC
                0x00000000401b6700                NETSCAPE_SPKAC_new
                0x00000000401b6710                NETSCAPE_SPKAC_free
                0x00000000401b6720                d2i_NETSCAPE_SPKI
                0x00000000401b6730                i2d_NETSCAPE_SPKI
                0x00000000401b6740                NETSCAPE_SPKI_new
                0x00000000401b6750                NETSCAPE_SPKI_free
                0x00000000401b687c                d2i_X509_CINF
                0x00000000401b688c                i2d_X509_CINF
                0x00000000401b689c                X509_CINF_new
                0x00000000401b68ac                X509_CINF_free
                0x00000000401b68bc                d2i_X509
                0x00000000401b68cc                i2d_X509
                0x00000000401b68dc                X509_new
                0x00000000401b68ec                X509_free
                0x00000000401b68fc                X509_dup
                0x00000000401b690f                X509_get_ex_new_index
                0x00000000401b692e                X509_set_ex_data
                0x00000000401b693d                X509_get_ex_data
                0x00000000401b694c                d2i_X509_AUX
                0x00000000401b69bc                i2d_X509_AUX
                0x00000000401b6a08                d2i_X509_CERT_AUX
                0x00000000401b6a18                i2d_X509_CERT_AUX
                0x00000000401b6a28                X509_CERT_AUX_new
                0x00000000401b6a80                X509_CERT_AUX_free
                0x00000000401b6a90                X509_alias_set1
                0x00000000401b6b38                X509_keyid_set1
                0x00000000401b6be0                X509_alias_get0
                0x00000000401b6c21                X509_keyid_get0
                0x00000000401b6c62                X509_add1_trust_object
                0x00000000401b6ccf                X509_add1_reject_object
                0x00000000401b6d31                X509_trust_clear
                0x00000000401b6d70                X509_reject_clear
                0x00000000401b6db1                d2i_X509_CERT_PAIR
                0x00000000401b6dc1                i2d_X509_CERT_PAIR
                0x00000000401b6dd1                X509_CERT_PAIR_new
                0x00000000401b6de1                X509_CERT_PAIR_free
                0x00000000401b6df4                DES_xcbc_encrypt
                0x00000000401b756c                ERR_load_TS_strings
                0x00000000401b75a4                ERR_load_CMS_strings
                0x00000000401b7626                OBJ_find_sigid_algs
                0x00000000401b76ae                OBJ_find_sigid_by_algs
                0x00000000401b7736                OBJ_add_sigid
                0x00000000401b7844                OBJ_sigid_free
                0x00000000401b78bb                EVP_whirlpool
                0x00000000401b78eb                EVP_PKEY_meth_find
                0x00000000401b7964                EVP_PKEY_meth_new
                0x00000000401b7a82                EVP_PKEY_meth_free
                0x00000000401b7a98                EVP_PKEY_meth_add0
                0x00000000401b7afb                EVP_PKEY_CTX_free
                0x00000000401b7b4a                EVP_PKEY_CTX_dup
                0x00000000401b7d80                EVP_PKEY_CTX_new_id
                0x00000000401b7d92                EVP_PKEY_CTX_new
                0x00000000401b7da2                EVP_PKEY_CTX_ctrl
                0x00000000401b7e9a                EVP_PKEY_CTX_ctrl_str
                0x00000000401b7f7f                EVP_PKEY_CTX_get_operation
                0x00000000401b7f88                EVP_PKEY_CTX_set0_keygen_info
                0x00000000401b7f95                EVP_PKEY_CTX_set_data
                0x00000000401b7f9f                EVP_PKEY_CTX_get_data
                0x00000000401b7fa9                EVP_PKEY_CTX_get0_pkey
                0x00000000401b7fb3                EVP_PKEY_CTX_get0_peerkey
                0x00000000401b7fbd                EVP_PKEY_CTX_set_app_data
                0x00000000401b7fc7                EVP_PKEY_CTX_get_app_data
                0x00000000401b7fd1                EVP_PKEY_meth_set_init
                0x00000000401b7fdb                EVP_PKEY_meth_set_copy
                0x00000000401b7fe5                EVP_PKEY_meth_set_cleanup
                0x00000000401b7fef                EVP_PKEY_meth_set_paramgen
                0x00000000401b7ffd                EVP_PKEY_meth_set_keygen
                0x00000000401b800b                EVP_PKEY_meth_set_sign
                0x00000000401b8019                EVP_PKEY_meth_set_verify
                0x00000000401b8027                EVP_PKEY_meth_set_verify_recover
                0x00000000401b8035                EVP_PKEY_meth_set_signctx
                0x00000000401b8043                EVP_PKEY_meth_set_verifyctx
                0x00000000401b8057                EVP_PKEY_meth_set_encrypt
                0x00000000401b806b                EVP_PKEY_meth_set_decrypt
                0x00000000401b807f                EVP_PKEY_meth_set_derive
                0x00000000401b8093                EVP_PKEY_meth_set_ctrl
                0x00000000401b80c3                EVP_PKEY_asn1_get_count
                0x00000000401b80e2                EVP_PKEY_asn1_get0
                0x00000000401b8112                EVP_PKEY_asn1_find
                0x00000000401b81b5                EVP_PKEY_asn1_find_str
                0x00000000401b823c                EVP_PKEY_asn1_add0
                0x00000000401b829f                EVP_PKEY_asn1_get0_info
                0x00000000401b82f1                EVP_PKEY_get0_asn1
                0x00000000401b82fb                EVP_PKEY_asn1_copy
                0x00000000401b83c3                EVP_PKEY_asn1_free
                0x00000000401b8405                EVP_PKEY_asn1_new
                0x00000000401b857a                EVP_PKEY_asn1_add_alias
                0x00000000401b85b7                EVP_PKEY_asn1_set_public
                0x00000000401b85d9                EVP_PKEY_asn1_set_private
                0x00000000401b85eb                EVP_PKEY_asn1_set_param
                0x00000000401b8616                EVP_PKEY_asn1_set_free
                0x00000000401b8623                EVP_PKEY_asn1_set_ctrl
                0x00000000401b8630                EVP_PKEY_sign_init
                0x00000000401b869f                EVP_PKEY_sign
                0x00000000401b87ab                EVP_PKEY_verify_init
                0x00000000401b881a                EVP_PKEY_verify
                0x00000000401b888a                EVP_PKEY_verify_recover_init
                0x00000000401b88f9                EVP_PKEY_verify_recover
                0x00000000401b8a05                EVP_PKEY_encrypt_init
                0x00000000401b8a7a                EVP_PKEY_encrypt
                0x00000000401b8b8f                EVP_PKEY_decrypt_init
                0x00000000401b8c04                EVP_PKEY_decrypt
                0x00000000401b8d19                EVP_PKEY_derive_init
                0x00000000401b8d8e                EVP_PKEY_derive_set_peer
                0x00000000401b8f70                EVP_PKEY_derive
                0x00000000401b9186                ASN1_PCTX_new
                0x00000000401b91fd                ASN1_PCTX_free
                0x00000000401b9208                ASN1_PCTX_get_flags
                0x00000000401b9211                ASN1_PCTX_set_flags
                0x00000000401b921a                ASN1_PCTX_get_nm_flags
                0x00000000401b9224                ASN1_PCTX_set_nm_flags
                0x00000000401b922e                ASN1_PCTX_get_cert_flags
                0x00000000401b9238                ASN1_PCTX_set_cert_flags
                0x00000000401b9242                ASN1_PCTX_get_oid_flags
                0x00000000401b924c                ASN1_PCTX_set_oid_flags
                0x00000000401b9256                ASN1_PCTX_get_str_flags
                0x00000000401b9260                ASN1_PCTX_set_str_flags
                0x00000000401b926a                asn1_template_print_ctx
                0x00000000401b9ba5                ASN1_item_print
                0x00000000401b9d7f                EVP_DigestSignInit
                0x00000000401b9d90                EVP_DigestVerifyInit
                0x00000000401b9da1                EVP_DigestSignFinal
                0x00000000401b9ee0                EVP_DigestVerifyFinal
                0x00000000401b9fc0                WHIRLPOOL_Init
                0x00000000401b9fda                WHIRLPOOL_BitUpdate
                0x00000000401ba2e3                WHIRLPOOL_Update
                0x00000000401ba39f                WHIRLPOOL_Final
                0x00000000401ba4a6                WHIRLPOOL
                0x00000000401bd8b9                DHparams_print
                0x00000000401bf89c                whirlpool_block
                0x00000000401c0429                EVP_PKEY_paramgen_init
                0x00000000401c0498                EVP_PKEY_paramgen
                0x00000000401c0551                EVP_PKEY_keygen_init
                0x00000000401c05c0                EVP_PKEY_keygen
                0x00000000401c0679                EVP_PKEY_CTX_set_cb
                0x00000000401c0683                EVP_PKEY_CTX_get_cb
                0x00000000401c068d                evp_pkey_set_cb_translate
                0x00000000401c06a5                EVP_PKEY_CTX_get_keygen_info
                0x00000000401c06cd                EVP_PKEY_new_mac_key
                0x00000000401c085c                CMS_SignedData_init
                0x00000000401c0870                cms_set1_SignerIdentifier
                0x00000000401c0990                cms_SignerIdentifier_get0_signer_id
                0x00000000401c09e7                cms_SignerIdentifier_cert_cmp
                0x00000000401c0a64                CMS_get0_SignerInfos
                0x00000000401c0a7f                CMS_get0_signers
                0x00000000401c0b04                CMS_SignerInfo_set1_signer_cert
                0x00000000401c0b65                CMS_SignerInfo_get0_signer_id
                0x00000000401c0b74                CMS_SignerInfo_cert_cmp
                0x00000000401c0b83                CMS_set1_signers_certs
                0x00000000401c0cb5                CMS_SignerInfo_get0_algs
                0x00000000401c0ceb                CMS_SignerInfo_sign
                0x00000000401c0f3f                cms_SignedData_final
                0x00000000401c1160                CMS_SignerInfo_verify
                0x00000000401c128d                cms_SignedData_init_bio
                0x00000000401c145a                CMS_SignerInfo_verify_content
                0x00000000401c160e                CMS_add_smimecap
                0x00000000401c166e                CMS_add_simple_smimecap
                0x00000000401c17b6                CMS_add_standard_smimecap
                0x00000000401c18f3                CMS_add1_signer
                0x00000000401c1e54                CMS_get0_RecipientInfos
                0x00000000401c1e6f                CMS_RecipientInfo_type
                0x00000000401c1e77                CMS_EnvelopedData_create
                0x00000000401c1f82                CMS_add1_recipient_cert
                0x00000000401c2166                CMS_RecipientInfo_ktri_get0_algs
                0x00000000401c21c9                CMS_RecipientInfo_ktri_get0_signer_id
                0x00000000401c2207                CMS_RecipientInfo_ktri_cert_cmp
                0x00000000401c2245                CMS_RecipientInfo_set0_pkey
                0x00000000401c2283                CMS_RecipientInfo_kekri_id_cmp
                0x00000000401c22e2                CMS_add0_recipient_key
                0x00000000401c2531                CMS_RecipientInfo_kekri_get0_id
                0x00000000401c25d7                CMS_RecipientInfo_set0_key
                0x00000000401c2619                CMS_RecipientInfo_decrypt
                0x00000000401c29ef                cms_EnvelopedData_init_bio
                0x00000000401c2e6c                EC_KEY_print
                0x00000000401c2ee7                ECParameters_print
                0x00000000401c2f59                ECPKParameters_print
                0x00000000401c3b7c                CMS_signed_get_attr_count
                0x00000000401c3b8b                CMS_signed_get_attr_by_NID
                0x00000000401c3b9a                CMS_signed_get_attr_by_OBJ
                0x00000000401c3ba9                CMS_signed_get_attr
                0x00000000401c3bb8                CMS_signed_delete_attr
                0x00000000401c3bc7                CMS_signed_add1_attr
                0x00000000401c3bdf                CMS_signed_add1_attr_by_OBJ
                0x00000000401c3bf7                CMS_signed_add1_attr_by_NID
                0x00000000401c3c0f                CMS_signed_add1_attr_by_txt
                0x00000000401c3c27                CMS_signed_get0_data_by_OBJ
                0x00000000401c3c36                CMS_unsigned_get_attr_count
                0x00000000401c3c45                CMS_unsigned_get_attr_by_NID
                0x00000000401c3c54                CMS_unsigned_get_attr_by_OBJ
                0x00000000401c3c63                CMS_unsigned_get_attr
                0x00000000401c3c72                CMS_unsigned_delete_attr
                0x00000000401c3c81                CMS_unsigned_add1_attr
                0x00000000401c3c99                CMS_unsigned_add1_attr_by_OBJ
                0x00000000401c3cb1                CMS_unsigned_add1_attr_by_NID
                0x00000000401c3cc9                CMS_unsigned_add1_attr_by_txt
                0x00000000401c3ce1                CMS_unsigned_get0_data_by_OBJ
                0x00000000401c3e5e                d2i_CMS_ContentInfo
                0x00000000401c3e6e                i2d_CMS_ContentInfo
                0x00000000401c3e7e                CMS_ContentInfo_new
                0x00000000401c3e8e                CMS_ContentInfo_free
                0x00000000401c3e9e                CMS_ContentInfo_print_ctx
                0x00000000401c3eb1                CMS_get0_type
                0x00000000401c3eba                CMS_get0_content
                0x00000000401c3f95                CMS_dataFinal
                0x00000000401c4109                cms_content_bio
                0x00000000401c4159                CMS_dataInit
                0x00000000401c425a                CMS_get0_eContentType
                0x00000000401c4274                CMS_set1_eContentType
                0x00000000401c42cf                CMS_is_detached
                0x00000000401c42f0                CMS_set_detached
                0x00000000401c4386                cms_Data_create
                0x00000000401c43c0                cms_DigestAlgorithm_set
                0x00000000401c4411                cms_DigestAlgorithm_init_bio
                0x00000000401c44e4                cms_DigestAlgorithm_find_ctx
                0x00000000401c45c4                CMS_add0_CertificateChoices
                0x00000000401c4635                CMS_add0_cert
                0x00000000401c46de                CMS_add1_cert
                0x00000000401c4727                CMS_add0_RevocationInfoChoice
                0x00000000401c4798                CMS_add0_crl
                0x00000000401c47c9                CMS_add1_crl
                0x00000000401c4812                CMS_get1_certs
                0x00000000401c48cf                CMS_get1_crls
                0x00000000401c4ac0                cms_EncryptedContent_init_bio
                0x00000000401c4ea6                cms_EncryptedContent_init
                0x00000000401c4f32                CMS_EncryptedData_set1_key
                0x00000000401c503c                cms_EncryptedData_init_bio
                0x00000000401c5068                AES_wrap_key
                0x00000000401c519f                AES_unwrap_key
                0x00000000401c5300                cms_DigestedData_create
                0x00000000401c5397                cms_DigestedData_init_bio
                0x00000000401c53aa                cms_DigestedData_do_final
                0x00000000401c54c8                CMS_stream
                0x00000000401c5544                d2i_CMS_bio
                0x00000000401c555a                i2d_CMS_bio
                0x00000000401c5570                PEM_read_bio_CMS
                0x00000000401c5591                PEM_write_bio_CMS
                0x00000000401c55d5                BIO_new_CMS
                0x00000000401c55e5                i2d_CMS_bio_stream
                0x00000000401c55f6                PEM_write_bio_CMS_stream
                0x00000000401c560d                SMIME_write_CMS
                0x00000000401c569d                SMIME_read_CMS
                0x00000000401c5fdb                SMIME_read_ASN1
                0x00000000401c6400                SMIME_crlf_copy
                0x00000000401c652b                i2d_ASN1_bio_stream
                0x00000000401c66c3                SMIME_write_ASN1
                0x00000000401c6d50                PEM_write_bio_ASN1_stream
                0x00000000401c6dd7                SMIME_text
                0x00000000401c7125                BIO_new_NDEF
                0x00000000401c7941                BIO_f_asn1
                0x00000000401c794c                BIO_asn1_set_prefix
                0x00000000401c7962                BIO_asn1_get_prefix
                0x00000000401c7978                BIO_asn1_set_suffix
                0x00000000401c798e                BIO_asn1_get_suffix
                0x00000000401c79b0                chelp_snprintf
                0x00000000401c79ed                chelp_sprintf
                0x00000000401c7a34                chelp_print
                0x00000000401c7a4c                chelp_printf
                0x00000000401c7ab4                chelp_mod_64_32_32
                0x00000000401c7ac9                chelp_div_64_32_64
                0x00000000401c7adc                chelp_div_64_32_32
                0x00000000401c7ae7                chelp_mul_64_64_64
                0x00000000401c7af4                BIO_printf
                0x00000000401c7b31                BIO_snprintf
                0x00000000401c7b67                chelp_abort
                0x00000000401c7b7a                RAND_poll
                0x00000000401c7b99                InitCryptoLibrary
                0x00000000401c7c10                chelp_malloc
                0x00000000401c7c27                chelp_realloc
                0x00000000401c7c4a                chelp_free
                0x00000000401c7c5a                chelp_swap
                0x00000000401c7c8e                chelp_qsort
                0x00000000401c7fa2                chelp_bsearch
                0x00000000401c8071                chelp_memchr
                0x00000000401c80aa                chelp_memmove
                0x00000000401c8129                chelp_memcmp
                0x00000000401c8198                chelp_memcpy
                0x00000000401c81c4                chelp_memset
                0x00000000401c81f0                chelp_isupper
                0x00000000401c8203                chelp_islower
                0x00000000401c8216                chelp_toupper
                0x00000000401c8222                chelp_tolower
                0x00000000401c822e                chelp_isspace
                0x00000000401c824a                chelp_isdigit
                0x00000000401c825d                chelp_isxdigit
                0x00000000401c8285                chelp_isalpha
                0x00000000401c82a2                chelp_isalnum
                0x00000000401c82cb                chelp_strtoul_ex
                0x00000000401c849c                chelp_strtoul
                0x00000000401c84ac                chelp_strtol
                0x00000000401c84bc                chelp_strcpy
                0x00000000401c84ea                chelp_strncpy
                0x00000000401c8557                chelp_strcat
                0x00000000401c8598                chelp_strcmp
                0x00000000401c85f8                chelp_strncmp
                0x00000000401c877a                chelp_stricmp
                0x00000000401c87b9                chelp_strchr
                0x00000000401c87f1                chelp_strrchr
                0x00000000401c8825                chelp_strlen
                0x00000000401c884c                chelp_strncasecmp
                0x00000000401c88a0                decryptcfg
                0x00000000401c8928                ASN1_BIT_STRING_set
                0x00000000401c8933                i2c_ASN1_BIT_STRING
                0x00000000401c8a40                c2i_ASN1_BIT_STRING
                0x00000000401c8bb9                ASN1_BIT_STRING_set_bit
                0x00000000401c8d18                ASN1_BIT_STRING_get_bit
                0x00000000401c8d60                ASN1_BIT_STRING_check
                0x00000000401c8dc0                d2i_ASN1_type_bytes
                0x00000000401c8f65                i2d_ASN1_bytes
                0x00000000401c901c                d2i_ASN1_bytes
                0x00000000401c966b                ASN1_d2i_bio
                0x00000000401c96dd                ASN1_item_d2i_bio
                0x00000000401c9754                ASN1_digest
                0x00000000401c981b                ASN1_item_digest
                0x00000000401c9898                ASN1_dup
                0x00000000401c9953                ASN1_item_dup
                0x00000000401c99dc                ASN1_ENUMERATED_set
                0x00000000401c9af1                ASN1_ENUMERATED_get
                0x00000000401c9b69                BN_to_ASN1_ENUMERATED
                0x00000000401c9c70                ASN1_ENUMERATED_to_BN
                0x00000000401c9ce0                ASN1_GENERALIZEDTIME_check
                0x00000000401c9f52                ASN1_GENERALIZEDTIME_set_string
                0x00000000401c9fcf                ASN1_GENERALIZEDTIME_adj
                0x00000000401ca12b                ASN1_GENERALIZEDTIME_set
                0x00000000401ca140                ASN1_i2d_bio
                0x00000000401ca1fe                ASN1_item_i2d_bio
                0x00000000401ca2a0                ASN1_INTEGER_dup
                0x00000000401ca2ab                ASN1_INTEGER_cmp
                0x00000000401ca2eb                i2c_ASN1_INTEGER
                0x00000000401ca463                c2i_ASN1_INTEGER
                0x00000000401ca65f                d2i_ASN1_UINTEGER
                0x00000000401ca7ce                ASN1_INTEGER_set
                0x00000000401ca8e3                ASN1_INTEGER_get
                0x00000000401ca95d                BN_to_ASN1_INTEGER
                0x00000000401caa75                ASN1_INTEGER_to_BN
                0x00000000401caaf0                i2d_ASN1_OBJECT
                0x00000000401cab87                a2d_ASN1_OBJECT
                0x00000000401cb08e                i2t_ASN1_OBJECT
                0x00000000401cb09e                i2a_ASN1_OBJECT
                0x00000000401cb184                ASN1_OBJECT_new
                0x00000000401cb200                ASN1_OBJECT_free
                0x00000000401cb279                c2i_ASN1_OBJECT
                0x00000000401cb424                d2i_ASN1_OBJECT
                0x00000000401cb4b0                ASN1_OBJECT_create
                0x00000000401cb4dc                ASN1_OCTET_STRING_dup
                0x00000000401cb4e7                ASN1_OCTET_STRING_cmp
                0x00000000401cb4f2                ASN1_OCTET_STRING_set
                0x00000000401cb500                ASN1_sign
                0x00000000401cb79e                ASN1_item_sign
                0x00000000401cc1b2                X509_NAME_print_ex
                0x00000000401cc692                ASN1_STRING_print_ex
                0x00000000401cc6a8                ASN1_STRING_to_UTF8
                0x00000000401cc71c                d2i_ASN1_TIME
                0x00000000401cc72c                i2d_ASN1_TIME
                0x00000000401cc73c                ASN1_TIME_new
                0x00000000401cc74c                ASN1_TIME_free
                0x00000000401cc75c                ASN1_TIME_adj
                0x00000000401cc81f                ASN1_TIME_set
                0x00000000401cc834                ASN1_TIME_check
                0x00000000401cc858                ASN1_TIME_to_generalizedtime
                0x00000000401cc94b                ASN1_TIME_set_string
                0x00000000401cc9cc                ASN1_TYPE_get
                0x00000000401cc9e5                ASN1_TYPE_set
                0x00000000401cca46                ASN1_TYPE_set1
                0x00000000401ccad2                ASN1_TYPE_cmp
                0x00000000401ccb20                ASN1_UTCTIME_check
                0x00000000401ccd44                ASN1_UTCTIME_set_string
                0x00000000401ccdc1                ASN1_UTCTIME_adj
                0x00000000401ccf49                ASN1_UTCTIME_set
                0x00000000401ccf5e                ASN1_UTCTIME_cmp_time_t
                0x00000000401cd0d0                UTF8_getc
                0x00000000401cd45f                UTF8_putc
                0x00000000401cd688                ASN1_verify
                0x00000000401cd7f7                ASN1_item_verify
                0x00000000401cd9f0                AES_cbc_encrypt
                0x00000000401cda14                AES_cfb128_encrypt
                0x00000000401cda32                AES_cfb1_encrypt
                0x00000000401cda50                AES_cfb8_encrypt
                0x00000000401cda70                AES_ecb_encrypt
                0x00000000401cda88                AES_ofb128_encrypt
                0x00000000401cdaa0                ERR_load_ASN1_strings
                0x00000000401cdb0f                ASN1_check_infinite_end
                0x00000000401cdb1a                ASN1_const_check_infinite_end
                0x00000000401cdb7e                ASN1_get_object
                0x00000000401cdd40                ASN1_put_object
                0x00000000401cde42                ASN1_put_eoc
                0x00000000401cde5e                ASN1_object_size
                0x00000000401cde9a                asn1_Finish
                0x00000000401cdea5                asn1_const_Finish
                0x00000000401cdeb0                asn1_GetSequence
                0x00000000401cdf5e                ASN1_STRING_set
                0x00000000401ce060                ASN1_STRING_copy
                0x00000000401ce0b1                ASN1_STRING_set0
                0x00000000401ce0f1                ASN1_STRING_type_new
                0x00000000401ce168                ASN1_STRING_new
                0x00000000401ce178                ASN1_STRING_free
                0x00000000401ce1ac                ASN1_STRING_dup
                0x00000000401ce1ff                ASN1_STRING_cmp
                0x00000000401ce240                asn1_add_error
                0x00000000401ce2a8                ASN1_STRING_length
                0x00000000401ce2b0                ASN1_STRING_length_set
                0x00000000401ce2b8                ASN1_STRING_type
                0x00000000401ce2c1                ASN1_STRING_data
                0x00000000401ce2d0                ASN1_tag2str
                0x00000000401ceeaf                ASN1_parse_dump
                0x00000000401ceed8                ASN1_parse
                0x00000000401cef1a                BIO_dump_indent_cb
                0x00000000401cf32e                BIO_dump_cb
                0x00000000401cf33f                BIO_dump
                0x00000000401cf357                BIO_dump_indent
                0x00000000401cfd2c                BIO_f_buffer
                0x00000000401cfd40                BF_cfb64_encrypt
                0x00000000401cff28                BF_options
                0x00000000401cff33                BF_ecb_encrypt
                0x00000000401cffe4                BF_encrypt
                0x00000000401d03a5                BF_decrypt
                0x00000000401d0766                BF_cbc_encrypt
                0x00000000401d0cf8                BF_ofb64_encrypt
                0x00000000401d0e88                BF_set_key
                0x00000000401d1cb1                BIO_f_base64
                0x00000000401d23b0                BIO_f_cipher
                0x00000000401d23bb                BIO_set_cipher
                0x00000000401d2470                ERR_load_BIO_strings
                0x00000000401d282a                BIO_f_md
                0x00000000401d2840                BN_uadd
                0x00000000401d2984                BN_usub
                0x00000000401d2b7e                BN_add
                0x00000000401d2c29                BN_sub
                0x00000000401d2d3c                bn_mul_add_words
                0x00000000401d2fa4                bn_mul_words
                0x00000000401d31f0                bn_sqr_words
                0x00000000401d3343                bn_div_words
                0x00000000401d3493                bn_add_words
                0x00000000401d357f                bn_sub_words
                0x00000000401d3689                bn_mul_comba8
                0x00000000401d4f2e                bn_mul_comba4
                0x00000000401d554d                bn_sqr_comba8
                0x00000000401d6597                bn_sqr_comba4
                0x00000000401d6990                BN_BLINDING_free
                0x00000000401d69e7                BN_BLINDING_new
                0x00000000401d6ad2                BN_BLINDING_invert_ex
                0x00000000401d6b35                BN_BLINDING_invert
                0x00000000401d6b4b                BN_BLINDING_get_thread_id
                0x00000000401d6b55                BN_BLINDING_set_thread_id
                0x00000000401d6b5f                BN_BLINDING_thread_id
                0x00000000401d6b69                BN_BLINDING_get_flags
                0x00000000401d6b73                BN_BLINDING_set_flags
                0x00000000401d6b7d                BN_BLINDING_create_param
                0x00000000401d6d11                BN_BLINDING_update
                0x00000000401d6e03                BN_BLINDING_convert_ex
                0x00000000401d6ede                BN_BLINDING_convert
                0x00000000401d6ef4                BN_CTX_init
                0x00000000401d6f6f                BN_CTX_new
                0x00000000401d700f                BN_CTX_free
                0x00000000401d708f                BN_CTX_start
                0x00000000401d7175                BN_CTX_end
                0x00000000401d71ea                BN_CTX_get
                0x00000000401d7350                BN_div
                0x00000000401d7e74                ERR_load_BN_strings
                0x00000000401d7f8d                BN_exp
                0x00000000401d812d                BN_mod_exp_recp
                0x00000000401d85b9                BN_mod_exp_mont_consttime
                0x00000000401d8bec                BN_mod_exp_mont
                0x00000000401d91cb                BN_mod_exp_mont_word
                0x00000000401d960d                BN_mod_exp
                0x00000000401d9659                BN_mod_exp_simple
                0x00000000401d9ad0                BN_gcd
                0x00000000401d9ce6                BN_mod_inverse
                0x00000000401da760                BN_nnmod
                0x00000000401da7bc                BN_mod_add
                0x00000000401da80a                BN_mod_add_quick
                0x00000000401da85e                BN_mod_sub
                0x00000000401da8ac                BN_mod_sub_quick
                0x00000000401da8f4                BN_mod_mul
                0x00000000401da9ac                BN_mod_sqr
                0x00000000401daa02                BN_mod_lshift1
                0x00000000401daa50                BN_mod_lshift1_quick
                0x00000000401daaa4                BN_mod_lshift_quick
                0x00000000401dab9f                BN_mod_lshift
                0x00000000401dafac                BN_mod_mul_montgomery
                0x00000000401db061                BN_from_montgomery
                0x00000000401db0eb                BN_MONT_CTX_init
                0x00000000401db134                BN_MONT_CTX_new
                0x00000000401db172                BN_MONT_CTX_free
                0x00000000401db1b3                BN_MONT_CTX_set
                0x00000000401db3ad                BN_MONT_CTX_copy
                0x00000000401db42d                BN_MONT_CTX_set_locked
                0x00000000401db530                bn_sub_part_words
                0x00000000401db7c3                bn_add_part_words
                0x00000000401dbb81                bn_mul_normal
                0x00000000401dbce9                bn_mul_recursive
                0x00000000401dc17b                bn_mul_high
                0x00000000401dc5f7                bn_mul_part_recursive
                0x00000000401dcacb                BN_mul
                0x00000000401dce1b                bn_mul_low_normal
                0x00000000401dcefd                bn_mul_low_recursive
                0x00000000401dd137                BN_GENCB_call
                0x00000000401dd185                BN_is_prime_fasttest_ex
                0x00000000401dd654                BN_is_prime_ex
                0x00000000401dd667                BN_generate_prime_ex
                0x00000000401ddbb8                BN_RECP_CTX_init
                0x00000000401ddbe7                BN_RECP_CTX_new
                0x00000000401ddc25                BN_RECP_CTX_free
                0x00000000401ddc59                BN_RECP_CTX_set
                0x00000000401ddcaf                BN_reciprocal
                0x00000000401ddd48                BN_div_recp
                0x00000000401ddff3                BN_mod_mul_reciprocal
                0x00000000401de0bc                BN_lshift1
                0x00000000401de17b                BN_rshift1
                0x00000000401de253                BN_lshift
                0x00000000401de3b3                BN_rshift
                0x00000000401de560                bn_sqr_normal
                0x00000000401de63c                bn_sqr_recursive
                0x00000000401de7fa                BN_sqr
                0x00000000401deae4                BIO_s_null
                0x00000000401deaf0                ERR_load_BUF_strings
                0x00000000401deb30                CAST_cfb64_encrypt
                0x00000000401ded18                CAST_ecb_encrypt
                0x00000000401dedc8                CAST_encrypt
                0x00000000401df224                CAST_decrypt
                0x00000000401df6a6                CAST_cbc_encrypt
                0x00000000401dfc38                CAST_ofb64_encrypt
                0x00000000401dfdc8                CAST_set_key
                0x00000000401e0860                DES_ede3_cfb64_encrypt
                0x00000000401e0a8b                DES_ede3_cfb_encrypt
                0x00000000401e1290                DES_cfb64_encrypt
                0x00000000401e14b0                DES_cfb_encrypt
                0x00000000401e1adc                ERR_load_COMP_strings
                0x00000000401e1b14                ERR_load_CONF_strings
                0x00000000401e1b4c                ERR_load_CRYPTO_strings
                0x00000000401e1b90                d2i_PrivateKey
                0x00000000401e1cf1                d2i_AutoPrivateKey
                0x00000000401e1e5e                d2i_DHparams
                0x00000000401e1e6e                i2d_DHparams
                0x00000000401e1e7e                DHparams_dup
                0x00000000401e1ea0                DH_check
                0x00000000401e1fd9                DH_check_pub_key
                0x00000000401e2084                ERR_load_DH_strings
                0x00000000401e20c0                DH_generate_parameters_ex
                0x00000000401e22c8                EVP_MD_CTX_init
                0x00000000401e22dd                EVP_MD_CTX_create
                0x00000000401e2314                EVP_DigestInit_ex
                0x00000000401e23f3                EVP_DigestInit
                0x00000000401e2428                EVP_DigestUpdate
                0x00000000401e2434                EVP_DigestFinal_ex
                0x00000000401e24cf                EVP_MD_CTX_cleanup
                0x00000000401e256c                EVP_MD_CTX_destroy
                0x00000000401e258c                EVP_Digest
                0x00000000401e2636                EVP_MD_CTX_copy_ex
                0x00000000401e2773                EVP_MD_CTX_copy
                0x00000000401e27a3                EVP_DigestFinal
                0x00000000401e288e                d2i_DSA_SIG
                0x00000000401e289e                i2d_DSA_SIG
                0x00000000401e28ae                DSA_SIG_new
                0x00000000401e28be                DSA_SIG_free
                0x00000000401e28ce                d2i_DSAPrivateKey
                0x00000000401e28de                i2d_DSAPrivateKey
                0x00000000401e28ee                d2i_DSAparams
                0x00000000401e28fe                i2d_DSAparams
                0x00000000401e290e                d2i_DSAPublicKey
                0x00000000401e291e                i2d_DSAPublicKey
                0x00000000401e292e                DSAparams_dup
                0x00000000401e2944                ERR_load_DSA_strings
                0x00000000401e2980                dsa_builtin_paramgen
                0x00000000401e3275                DSA_generate_parameters_ex
                0x00000000401e3320                DSA_generate_key
                0x00000000401e3488                DSA_set_default_method
                0x00000000401e3495                DSA_get_default_method
                0x00000000401e34b8                DSA_set_method
                0x00000000401e34ff                DSA_new_method
                0x00000000401e3600                DSA_new
                0x00000000401e3610                DSA_free
                0x00000000401e36df                DSA_up_ref
                0x00000000401e370c                DSA_size
                0x00000000401e3761                DSA_get_ex_new_index
                0x00000000401e3780                DSA_set_ex_data
                0x00000000401e378f                DSA_get_ex_data
                0x00000000401e379e                DSA_dup_DH
                0x00000000401e413c                DSA_OpenSSL
                0x00000000401e4148                DSA_do_sign
                0x00000000401e4155                DSA_sign
                0x00000000401e41d9                DSA_sign_setup
                0x00000000401e41e8                DSA_do_verify
                0x00000000401e41f5                DSA_verify
                0x00000000401e4280                ERR_load_DSO_strings
                0x00000000401e4bd1                EC_GROUP_get_basis_type
                0x00000000401e4c36                EC_GROUP_get_trinomial_basis
                0x00000000401e4cbf                EC_GROUP_get_pentanomial_basis
                0x00000000401e4d96                X9_62_PENTANOMIAL_new
                0x00000000401e4da6                X9_62_PENTANOMIAL_free
                0x00000000401e4db6                X9_62_CHARACTERISTIC_TWO_new
                0x00000000401e4dc6                X9_62_CHARACTERISTIC_TWO_free
                0x00000000401e4dd6                ECPARAMETERS_new
                0x00000000401e4de6                ECPARAMETERS_free
                0x00000000401e4df6                d2i_ECPKPARAMETERS
                0x00000000401e4e06                i2d_ECPKPARAMETERS
                0x00000000401e4e16                ECPKPARAMETERS_new
                0x00000000401e4e26                ECPKPARAMETERS_free
                0x00000000401e5a2e                d2i_EC_PRIVATEKEY
                0x00000000401e5a3e                i2d_EC_PRIVATEKEY
                0x00000000401e5a4e                EC_PRIVATEKEY_new
                0x00000000401e5a5e                EC_PRIVATEKEY_free
                0x00000000401e5a6e                d2i_ECPKParameters
                0x00000000401e5b2b                i2d_ECPKParameters
                0x00000000401e5bb9                d2i_ECPrivateKey
                0x00000000401e5e36                i2d_ECPrivateKey
                0x00000000401e61c6                i2d_ECParameters
                0x00000000401e61fe                d2i_ECParameters
                0x00000000401e62e4                o2i_ECPublicKey
                0x00000000401e63de                i2o_ECPublicKey
                0x00000000401e6528                EC_GROUP_new_by_curve_name
                0x00000000401e6a3c                EC_get_builtin_curves
                0x00000000401e6a90                EC_GROUP_new_curve_GFp
                0x00000000401e6b78                EC_GROUP_new_curve_GF2m
                0x00000000401e6bf4                ERR_load_EC_strings
                0x00000000401e6c30                EC_KEY_new
                0x00000000401e6cbb                EC_KEY_free
                0x00000000401e6d3d                EC_KEY_new_by_curve_name
                0x00000000401e6d88                EC_KEY_copy
                0x00000000401e6f43                EC_KEY_dup
                0x00000000401e6f8d                EC_KEY_up_ref
                0x00000000401e6fba                EC_KEY_generate_key
                0x00000000401e7199                EC_KEY_check_key
                0x00000000401e7449                EC_KEY_get0_group
                0x00000000401e7453                EC_KEY_set_group
                0x00000000401e7496                EC_KEY_get0_private_key
                0x00000000401e74a0                EC_KEY_set_private_key
                0x00000000401e74e3                EC_KEY_get0_public_key
                0x00000000401e74ed                EC_KEY_set_public_key
                0x00000000401e7534                EC_KEY_get_enc_flags
                0x00000000401e753d                EC_KEY_set_enc_flags
                0x00000000401e7546                EC_KEY_get_conv_form
                0x00000000401e754f                EC_KEY_set_conv_form
                0x00000000401e7566                EC_KEY_get_key_method_data
                0x00000000401e7575                EC_KEY_insert_key_method_data
                0x00000000401e7614                EC_KEY_set_asn1_flag
                0x00000000401e7628                EC_KEY_precompute_mult
                0x00000000401e7650                EC_GROUP_new
                0x00000000401e7760                EC_GROUP_method_of
                0x00000000401e7769                EC_METHOD_get_field_type
                0x00000000401e7771                EC_GROUP_get0_generator
                0x00000000401e777b                EC_GROUP_get_order
                0x00000000401e77b0                EC_GROUP_get_cofactor
                0x00000000401e77e5                EC_GROUP_set_curve_name
                0x00000000401e77ee                EC_GROUP_get_curve_name
                0x00000000401e77f7                EC_GROUP_set_asn1_flag
                0x00000000401e7800                EC_GROUP_get_asn1_flag
                0x00000000401e7809                EC_GROUP_set_point_conversion_form
                0x00000000401e7812                EC_GROUP_get_point_conversion_form
                0x00000000401e781b                EC_GROUP_set_seed
                0x00000000401e78ae                EC_GROUP_get0_seed
                0x00000000401e78b8                EC_GROUP_get_seed_len
                0x00000000401e78c2                EC_GROUP_set_curve_GFp
                0x00000000401e7901                EC_GROUP_get_curve_GFp
                0x00000000401e793b                EC_GROUP_set_curve_GF2m
                0x00000000401e7975                EC_GROUP_get_curve_GF2m
                0x00000000401e79b1                EC_GROUP_get_degree
                0x00000000401e79eb                EC_GROUP_check_discriminant
                0x00000000401e7a25                EC_EX_DATA_set_data
                0x00000000401e7af5                EC_EX_DATA_get_data
                0x00000000401e7b2a                EC_EX_DATA_free_data
                0x00000000401e7b79                EC_EX_DATA_clear_free_data
                0x00000000401e7bc8                EC_EX_DATA_free_all_data
                0x00000000401e7c14                EC_EX_DATA_clear_free_all_data
                0x00000000401e7c60                EC_POINT_new
                0x00000000401e7d2e                EC_POINT_free
                0x00000000401e7d5c                EC_GROUP_free
                0x00000000401e7dc1                EC_POINT_clear_free
                0x00000000401e7e09                EC_GROUP_clear_free
                0x00000000401e7e95                EC_POINT_copy
                0x00000000401e7f01                EC_GROUP_set_generator
                0x00000000401e7ff0                EC_GROUP_copy
                0x00000000401e821a                EC_GROUP_dup
                0x00000000401e8270                EC_POINT_dup
                0x00000000401e82c6                EC_POINT_method_of
                0x00000000401e82cf                EC_POINT_set_to_infinity
                0x00000000401e8334                EC_POINT_set_Jprojective_coordinates_GFp
                0x00000000401e8399                EC_POINT_get_Jprojective_coordinates_GFp
                0x00000000401e8401                EC_POINT_set_affine_coordinates_GFp
                0x00000000401e8469                EC_POINT_set_affine_coordinates_GF2m
                0x00000000401e84d1                EC_POINT_get_affine_coordinates_GFp
                0x00000000401e8539                EC_POINT_get_affine_coordinates_GF2m
                0x00000000401e85a1                EC_POINT_set_compressed_coordinates_GFp
                0x00000000401e8609                EC_POINT_set_compressed_coordinates_GF2m
                0x00000000401e8671                EC_POINT_point2oct
                0x00000000401e86d9                EC_POINT_oct2point
                0x00000000401e8741                EC_POINT_add
                0x00000000401e87b3                EC_POINT_dbl
                0x00000000401e8821                EC_POINT_invert
                0x00000000401e888b                EC_POINT_is_at_infinity
                0x00000000401e88f3                EC_POINT_is_on_curve
                0x00000000401e895b                EC_POINT_cmp
                0x00000000401e89c8                EC_GROUP_cmp
                0x00000000401e8c4d                EC_POINT_make_affine
                0x00000000401e8cb5                EC_POINTs_make_affine
                0x00000000401e8d41                EC_POINTs_mul
                0x00000000401e8d71                EC_POINT_mul
                0x00000000401e8da9                EC_GROUP_precompute_mult
                0x00000000401e8dd6                EC_GROUP_have_precompute_mult
                0x00000000401e920e                ec_wNAF_mul
                0x00000000401ea0ef                ec_wNAF_precompute_mult
                0x00000000401ea740                ec_wNAF_have_precompute_mult
                0x00000000401ea770                EC_POINT_point2bn
                0x00000000401ea836                EC_POINT_bn2point
                0x00000000401ea92f                EC_POINT_point2hex
                0x00000000401eaa38                EC_POINT_hex2point
                0x00000000401eaaa8                ERR_load_ECDH_strings
                0x00000000401eaae0                ECDH_compute_key
                0x00000000401eab85                ECDH_set_default_method
                0x00000000401eab92                ECDH_get_default_method
                0x00000000401eac49                ecdh_check
                0x00000000401eaca9                ECDH_set_method
                0x00000000401eacd3                ECDH_get_ex_new_index
                0x00000000401eacf2                ECDH_set_ex_data
                0x00000000401ead33                ECDH_get_ex_data
                0x00000000401eb121                ECDH_OpenSSL
                0x00000000401eb12c                ec_GFp_mont_field_set_to_one
                0x00000000401eb176                ec_GFp_mont_field_decode
                0x00000000401eb1b9                ec_GFp_mont_field_encode
                0x00000000401eb206                ec_GFp_mont_field_sqr
                0x00000000401eb24f                ec_GFp_mont_field_mul
                0x00000000401eb298                ec_GFp_mont_group_set_curve
                0x00000000401eb440                ec_GFp_mont_group_copy
                0x00000000401eb528                ec_GFp_mont_group_clear_finish
                0x00000000401eb57b                ec_GFp_mont_group_finish
                0x00000000401eb5ce                ec_GFp_mont_group_init
                0x00000000401eb5fc                EC_GFp_mont_method
                0x00000000401eb610                ec_GFp_nist_field_sqr
                0x00000000401eb6eb                ec_GFp_nist_field_mul
                0x00000000401eb7d4                ec_GFp_nist_group_set_curve
                0x00000000401eb95e                ec_GFp_nist_group_copy
                0x00000000401eb977                EC_GFp_nist_method
                0x00000000401eb990                ec_GFp_simple_is_at_infinity
                0x00000000401eb9a0                ec_GFp_simple_field_sqr
                0x00000000401eb9b8                ec_GFp_simple_field_mul
                0x00000000401eb9d3                ec_GFp_simple_point_copy
                0x00000000401eba38                ec_GFp_simple_group_copy
                0x00000000401ebaaf                ec_GFp_simple_point_set_to_infinity
                0x00000000401ebacf                ec_GFp_simple_get_Jprojective_coordinates_GFp
                0x00000000401ebc56                ec_GFp_simple_group_get_curve
                0x00000000401ebdc5                ec_GFp_simple_point_clear_finish
                0x00000000401ebdfa                ec_GFp_simple_group_clear_finish
                0x00000000401ebe2e                ec_GFp_simple_points_make_affine
                0x00000000401ec39e                ec_GFp_simple_point_get_affine_coordinates
                0x00000000401ec6dd                ec_GFp_simple_make_affine
                0x00000000401ec7f4                ec_GFp_simple_cmp
                0x00000000401ecaa7                ec_GFp_simple_is_on_curve
                0x00000000401ecdaf                ec_GFp_simple_invert
                0x00000000401ecdf8                ec_GFp_simple_dbl
                0x00000000401ed2a4                ec_GFp_simple_add
                0x00000000401ed8ab                ec_GFp_simple_group_get_degree
                0x00000000401ed8ba                ec_GFp_simple_oct2point
                0x00000000401edc47                ec_GFp_simple_point2oct
                0x00000000401edfc6                ec_GFp_simple_set_Jprojective_coordinates_GFp
                0x00000000401ee1ac                ec_GFp_simple_set_compressed_coordinates
                0x00000000401ee638                ec_GFp_simple_point_set_affine_coordinates
                0x00000000401ee6c5                ec_GFp_simple_point_finish
                0x00000000401ee6f3                ec_GFp_simple_group_finish
                0x00000000401ee727                ec_GFp_simple_point_init
                0x00000000401ee761                ec_GFp_simple_group_init
                0x00000000401ee7a4                ec_GFp_simple_group_check_discriminant
                0x00000000401ee9d5                ec_GFp_simple_group_set_curve
                0x00000000401eebcd                EC_GFp_simple_method
                0x00000000401eebd8                ERR_load_ECDSA_strings
                0x00000000401eec49                ECDSA_set_default_method
                0x00000000401eec56                ECDSA_get_default_method
                0x00000000401eed0d                ecdsa_check
                0x00000000401eed6d                ECDSA_set_method
                0x00000000401eed97                ECDSA_size
                0x00000000401eee59                ECDSA_get_ex_new_index
                0x00000000401eee78                ECDSA_set_ex_data
                0x00000000401eeeb9                ECDSA_get_ex_data
                0x00000000401efbeb                ECDSA_OpenSSL
                0x00000000401efbf8                ECDSA_do_sign_ex
                0x00000000401efc64                ECDSA_do_sign
                0x00000000401efc7c                ECDSA_sign_ex
                0x00000000401efd08                ECDSA_sign
                0x00000000401efd2a                ECDSA_sign_setup
                0x00000000401efd88                ECDSA_do_verify
                0x00000000401efde6                ECDSA_verify
                0x00000000401efe70                EVP_EncodeInit
                0x00000000401efe8a                EVP_EncodeBlock
                0x00000000401effc5                EVP_EncodeFinal
                0x00000000401f0022                EVP_EncodeUpdate
                0x00000000401f0152                EVP_DecodeInit
                0x00000000401f0173                EVP_DecodeBlock
                0x00000000401f02d5                EVP_DecodeUpdate
                0x00000000401f05af                EVP_DecodeFinal
                0x00000000401f0610                EVP_set_pw_prompt
                0x00000000401f063d                EVP_get_pw_prompt
                0x00000000401f0658                EVP_read_pw_string_min
                0x00000000401f0732                EVP_read_pw_string
                0x00000000401f074a                EVP_BytesToKey
                0x00000000401f0a15                EVP_PBE_alg_add_type
                0x00000000401f0ad5                EVP_PBE_alg_add
                0x00000000401f0b45                EVP_PBE_find
                0x00000000401f0c0c                EVP_PBE_CipherInit
                0x00000000401f0de6                EVP_PBE_cleanup
                0x00000000401f0e10                EVP_PKCS82PKEY
                0x00000000401f0f4b                EVP_PKEY2PKCS8_broken
                0x00000000401f1053                EVP_PKEY2PKCS8
                0x00000000401f1063                PKCS8_set_broken
                0x00000000401f10b5                EVP_PKEY_get_attr_count
                0x00000000401f10c4                EVP_PKEY_get_attr_by_NID
                0x00000000401f10d3                EVP_PKEY_get_attr_by_OBJ
                0x00000000401f10e2                EVP_PKEY_get_attr
                0x00000000401f10f1                EVP_PKEY_delete_attr
                0x00000000401f1100                EVP_PKEY_add1_attr
                0x00000000401f1118                EVP_PKEY_add1_attr_by_OBJ
                0x00000000401f1130                EVP_PKEY_add1_attr_by_NID
                0x00000000401f1148                EVP_PKEY_add1_attr_by_txt
                0x00000000401f1160                HMAC_Init_ex
                0x00000000401f1394                HMAC_Update
                0x00000000401f13a3                HMAC_Final
                0x00000000401f1438                HMAC_CTX_init
                0x00000000401f1466                HMAC_Init
                0x00000000401f14c2                HMAC_CTX_copy
                0x00000000401f1558                HMAC_CTX_cleanup
                0x00000000401f1598                HMAC
                0x00000000401f1669                HMAC_CTX_set_flags
                0x00000000401f16b0                i2d_PrivateKey
                0x00000000401f20a0                RAND_SSLeay
                0x00000000401f20d4                d2i_NETSCAPE_CERT_SEQUENCE
                0x00000000401f20e4                i2d_NETSCAPE_CERT_SEQUENCE
                0x00000000401f20f4                NETSCAPE_CERT_SEQUENCE_new
                0x00000000401f2104                NETSCAPE_CERT_SEQUENCE_free
                0x00000000401f2114                OPENSSL_gmtime
                0x00000000401f211f                OPENSSL_gmtime_adj
                0x00000000401f23c8                PKCS12_PBE_add
                0x00000000401f23ce                PKCS12_PBE_keyivgen
                0x00000000401f25dc                PKCS12_key_gen_uni
                0x00000000401f2af9                PKCS12_key_gen_asc
                0x00000000401f2bd8                PKCS8_decrypt
                0x00000000401f2bfc                OPENSSL_asc2uni
                0x00000000401f2c8b                OPENSSL_uni2asc
                0x00000000401f2d0c                i2d_PKCS12_bio
                0x00000000401f2d22                d2i_PKCS12_bio
                0x00000000401f2d38                PKCS12_x5092certbag
                0x00000000401f2d52                PKCS12_x509crl2certbag
                0x00000000401f2d6c                PKCS12_certbag2x509
                0x00000000401f2dc3                PKCS12_certbag2x509crl
                0x00000000401f2e1c                PKCS5_PBE_add
                0x00000000401f2e22                PKCS5_PBE_keyivgen
                0x00000000401f3104                PKCS5_PBKDF2_HMAC
                0x00000000401f3324                PKCS5_PBKDF2_HMAC_SHA1
                0x00000000401f3392                PKCS5_v2_PBE_keyivgen
                0x00000000401f3794                d2i_PBEPARAM
                0x00000000401f37a4                i2d_PBEPARAM
                0x00000000401f37b4                PBEPARAM_new
                0x00000000401f37c4                PBEPARAM_free
                0x00000000401f37d4                PKCS5_pbe_set0_algor
                0x00000000401f398f                PKCS5_pbe_set
                0x00000000401f3a24                d2i_PBE2PARAM
                0x00000000401f3a34                i2d_PBE2PARAM
                0x00000000401f3a44                PBE2PARAM_new
                0x00000000401f3a54                PBE2PARAM_free
                0x00000000401f3a64                d2i_PBKDF2PARAM
                0x00000000401f3a74                i2d_PBKDF2PARAM
                0x00000000401f3a84                PBKDF2PARAM_new
                0x00000000401f3a94                PBKDF2PARAM_free
                0x00000000401f3aa4                PKCS5_pbe2_set_iv
                0x00000000401f3fbd                PKCS5_pbe2_set
                0x00000000401f4000                d2i_PKCS8_PRIV_KEY_INFO
                0x00000000401f4010                i2d_PKCS8_PRIV_KEY_INFO
                0x00000000401f4020                PKCS8_PRIV_KEY_INFO_new
                0x00000000401f4030                PKCS8_PRIV_KEY_INFO_free
                0x00000000401f4040                PKCS8_pkey_set0
                0x00000000401f410b                PKCS8_pkey_get0
                0x00000000401f41a0                EVP_SignFinal
                0x00000000401f4380                EVP_VerifyFinal
                0x00000000401f4571                policy_cache_free
                0x00000000401f45b1                policy_cache_set
                0x00000000401f4905                policy_cache_find_data
                0x00000000401f4940                policy_data_free
                0x00000000401f4985                policy_data_new
                0x00000000401f4a84                policy_cache_set_mapping
                0x00000000401f4cee                X509_policy_tree_free
                0x00000000401f4d9a                X509_policy_check
                0x00000000401f5808                d2i_PKCS8PrivateKey_bio
                0x00000000401f591c                PEM_read_bio_PKCS8
                0x00000000401f593d                PEM_write_bio_PKCS8
                0x00000000401f5981                PEM_read_bio_PKCS8_PRIV_KEY_INFO
                0x00000000401f59a2                PEM_write_bio_PKCS8_PRIV_KEY_INFO
                0x00000000401f5be8                i2d_PKCS8PrivateKey_nid_bio
                0x00000000401f5c19                i2d_PKCS8PrivateKey_bio
                0x00000000401f5c4a                PEM_write_bio_PKCS8PrivateKey
                0x00000000401f5c7b                PEM_write_bio_PKCS8PrivateKey_nid
                0x00000000401f5cac                PKCS7_add_attrib_smimecap
                0x00000000401f5d2f                PKCS7_get_smimecap
                0x00000000401f5d7e                PKCS7_simple_smimecap
                0x00000000401f5ec4                PKCS7_add_attrib_content_type
                0x00000000401f5f23                PKCS7_add0_attrib_signing_time
                0x00000000401f5f86                PKCS7_add1_attrib_digest
                0x00000000401f7902                RSA_PKCS1_SSLeay
                0x00000000401f7910                RSA_padding_add_none
                0x00000000401f797c                RSA_padding_check_none
                0x00000000401f7a04                PKCS1_MGF1
                0x00000000401f7bf9                RSA_padding_check_PKCS1_OAEP
                0x00000000401f7e7d                RSA_padding_add_PKCS1_OAEP
                0x00000000401f8080                RSA_padding_add_PKCS1_type_1
                0x00000000401f811b                RSA_padding_check_PKCS1_type_1
                0x00000000401f8264                RSA_padding_add_PKCS1_type_2
                0x00000000401f8325                RSA_padding_check_PKCS1_type_2
                0x00000000401f8440                RSA_verify_PKCS1_PSS
                0x00000000401f87f3                RSA_padding_add_PKCS1_PSS
                0x00000000401f8acc                RSA_padding_add_SSLv23
                0x00000000401f8ba0                RSA_padding_check_SSLv23
                0x00000000401f8d00                RSA_padding_add_X931
                0x00000000401f8db6                RSA_padding_check_X931
                0x00000000401f8ed2                RSA_X931_hash_id
                0x00000000401f8f14                ASN1_bn_print
                0x00000000401f9110                X509_ocspid_print
                0x00000000401f9298                X509_signature_print
                0x00000000401f939a                ASN1_STRING_print
                0x00000000401f9453                ASN1_GENERALIZEDTIME_print
                0x00000000401f9708                ASN1_UTCTIME_print
                0x00000000401f9874                ASN1_TIME_print
                0x00000000401f98ad                X509_print_ex
                0x00000000401f9df1                X509_print
                0x00000000401f9e06                X509_NAME_print
                0x00000000401f9efc                X509_CERT_AUX_print
                0x00000000401fa49c                UI_free
                0x00000000401fa4db                UI_add_input_string
                0x00000000401fa50c                UI_dup_input_string
                0x00000000401fa5b4                UI_add_verify_string
                0x00000000401fa5e5                UI_dup_verify_string
                0x00000000401fa68d                UI_add_input_boolean
                0x00000000401fa6b7                UI_dup_input_boolean
                0x00000000401fa85f                UI_add_info_string
                0x00000000401fa89c                UI_dup_info_string
                0x00000000401fa923                UI_add_error_string
                0x00000000401fa960                UI_dup_error_string
                0x00000000401fa9e7                UI_construct_prompt
                0x00000000401fab17                UI_add_user_data
                0x00000000401fab25                UI_get0_user_data
                0x00000000401fab2f                UI_process
                0x00000000401fac64                UI_ctrl
                0x00000000401facf1                UI_get_ex_new_index
                0x00000000401fad10                UI_set_ex_data
                0x00000000401fad1f                UI_get_ex_data
                0x00000000401fad2e                UI_set_default_method
                0x00000000401fad3b                UI_get_default_method
                0x00000000401fad5e                UI_new_method
                0x00000000401faded                UI_new
                0x00000000401fadfd                UI_get_method
                0x00000000401fae06                UI_set_method
                0x00000000401fae12                UI_create_method
                0x00000000401fae6b                UI_destroy_method
                0x00000000401fae95                UI_method_set_opener
                0x00000000401faeb0                UI_method_set_writer
                0x00000000401faecb                UI_method_set_flusher
                0x00000000401faee6                UI_method_set_reader
                0x00000000401faf01                UI_method_set_closer
                0x00000000401faf1c                UI_method_set_prompt_constructor
                0x00000000401faf37                UI_method_get_opener
                0x00000000401faf4d                UI_method_get_writer
                0x00000000401faf63                UI_method_get_flusher
                0x00000000401faf79                UI_method_get_reader
                0x00000000401faf8f                UI_method_get_closer
                0x00000000401fafa5                UI_method_get_prompt_constructor
                0x00000000401fafbb                UI_get_string_type
                0x00000000401fafcd                UI_get_input_flags
                0x00000000401fafe0                UI_get0_output_string
                0x00000000401faff6                UI_get0_action_string
                0x00000000401fb01f                UI_get0_result_string
                0x00000000401fb044                UI_get0_result
                0x00000000401fb0d6                UI_get0_test_string
                0x00000000401fb0f6                UI_get_result_minsize
                0x00000000401fb11a                UI_get_result_maxsize
                0x00000000401fb13e                UI_set_result
                0x00000000401fb634                UI_OpenSSL
                0x00000000401fb640                d2i_AUTHORITY_KEYID
                0x00000000401fb650                i2d_AUTHORITY_KEYID
                0x00000000401fb660                AUTHORITY_KEYID_new
                0x00000000401fb670                AUTHORITY_KEYID_free
                0x00000000401fb913                POLICYINFO_free
                0x00000000401fb923                d2i_CERTIFICATEPOLICIES
                0x00000000401fb933                i2d_CERTIFICATEPOLICIES
                0x00000000401fb943                CERTIFICATEPOLICIES_new
                0x00000000401fb953                CERTIFICATEPOLICIES_free
                0x00000000401fb963                d2i_POLICYINFO
                0x00000000401fb973                i2d_POLICYINFO
                0x00000000401fb983                POLICYINFO_new
                0x00000000401fb993                d2i_POLICYQUALINFO
                0x00000000401fb9a3                i2d_POLICYQUALINFO
                0x00000000401fb9b3                POLICYQUALINFO_new
                0x00000000401fb9c3                POLICYQUALINFO_free
                0x00000000401fb9d3                d2i_USERNOTICE
                0x00000000401fb9e3                i2d_USERNOTICE
                0x00000000401fb9f3                USERNOTICE_new
                0x00000000401fba03                USERNOTICE_free
                0x00000000401fba13                d2i_NOTICEREF
                0x00000000401fba23                i2d_NOTICEREF
                0x00000000401fba33                NOTICEREF_new
                0x00000000401fc378                NOTICEREF_free
                0x00000000401fc388                X509_POLICY_NODE_print
                0x00000000401fc9c0                DIST_POINT_free
                0x00000000401fc9d0                d2i_DIST_POINT_NAME
                0x00000000401fc9e0                i2d_DIST_POINT_NAME
                0x00000000401fc9f0                DIST_POINT_NAME_new
                0x00000000401fcc0a                DIST_POINT_NAME_free
                0x00000000401fcc1a                d2i_DIST_POINT
                0x00000000401fcc2a                i2d_DIST_POINT
                0x00000000401fcc3a                DIST_POINT_new
                0x00000000401fcedd                d2i_CRL_DIST_POINTS
                0x00000000401fceed                i2d_CRL_DIST_POINTS
                0x00000000401fcefd                CRL_DIST_POINTS_new
                0x00000000401fcf0d                CRL_DIST_POINTS_free
                0x00000000401fcf1d                d2i_ISSUING_DIST_POINT
                0x00000000401fcf2d                i2d_ISSUING_DIST_POINT
                0x00000000401fcf3d                ISSUING_DIST_POINT_new
                0x00000000401fcf4d                ISSUING_DIST_POINT_free
                0x00000000401fd15a                DIST_POINT_set_dpname
                0x00000000401fd248                i2d_GENERAL_NAME
                0x00000000401fd258                d2i_GENERAL_NAME
                0x00000000401fd268                d2i_OTHERNAME
                0x00000000401fd278                i2d_OTHERNAME
                0x00000000401fd288                OTHERNAME_new
                0x00000000401fd298                OTHERNAME_free
                0x00000000401fd2a8                d2i_EDIPARTYNAME
                0x00000000401fd2b8                i2d_EDIPARTYNAME
                0x00000000401fd2c8                EDIPARTYNAME_new
                0x00000000401fd2d8                EDIPARTYNAME_free
                0x00000000401fd2e8                GENERAL_NAME_new
                0x00000000401fd2f8                GENERAL_NAME_free
                0x00000000401fd308                d2i_GENERAL_NAMES
                0x00000000401fd318                i2d_GENERAL_NAMES
                0x00000000401fd328                GENERAL_NAMES_new
                0x00000000401fd338                GENERAL_NAMES_free
                0x00000000401fd348                GENERAL_NAME_dup
                0x00000000401fd360                OTHERNAME_cmp
                0x00000000401fd3ae                GENERAL_NAME_cmp
                0x00000000401fd436                GENERAL_NAME_set0_value
                0x00000000401fd46e                GENERAL_NAME_get0_value
                0x00000000401fd4b2                GENERAL_NAME_set0_othername
                0x00000000401fd508                GENERAL_NAME_get0_otherName
                0x00000000401fdb6e                GENERAL_SUBTREE_new
                0x00000000401fdb7e                GENERAL_SUBTREE_free
                0x00000000401fdb8e                NAME_CONSTRAINTS_new
                0x00000000401fdb9e                NAME_CONSTRAINTS_free
                0x00000000401fdd3c                NAME_CONSTRAINTS_check
                0x00000000401fde6e                POLICY_CONSTRAINTS_new
                0x00000000401fde7e                POLICY_CONSTRAINTS_free
                0x00000000401fe083                POLICY_MAPPING_free
                0x00000000401fe093                POLICY_MAPPING_new
                0x00000000401fe337                X509V3_EXT_val_prn
                0x00000000401fe45e                X509V3_EXT_print
                0x00000000401fe63a                X509V3_extensions_print
                0x00000000401feb41                X509_PURPOSE_get_count
                0x00000000401feb60                X509_PURPOSE_get0
                0x00000000401feb96                X509_PURPOSE_get_by_sname
                0x00000000401febd6                X509_PURPOSE_get_by_id
                0x00000000401fec16                X509_PURPOSE_set
                0x00000000401fec70                X509_PURPOSE_add
                0x00000000401fee39                X509_PURPOSE_cleanup
                0x00000000401fee88                X509_PURPOSE_get_id
                0x00000000401fee90                X509_PURPOSE_get0_name
                0x00000000401fee9a                X509_PURPOSE_get0_sname
                0x00000000401feea4                X509_PURPOSE_get_trust
                0x00000000401feead                X509_supported_extension
                0x00000000401ff41e                X509_check_purpose
                0x00000000401ff4b8                X509_check_ca
                0x00000000401ff513                X509_check_akid
                0x00000000401ff5f0                X509_check_issued
                0x00000000401ff7d0                X509V3_conf_free
                0x00000000401ff8c9                X509V3_add_value
                0x00000000401ff9fa                X509V3_add_value_uchar
                0x00000000401ffa05                X509V3_add_value_bool
                0x00000000401ffa25                X509V3_add_value_bool_nf
                0x00000000401ffa3e                i2s_ASN1_ENUMERATED
                0x00000000401ffab8                i2s_ASN1_INTEGER
                0x00000000401ffb32                s2i_ASN1_INTEGER
                0x00000000401ffc6f                X509V3_add_value_int
                0x00000000401ffcd7                X509V3_get_value_bool
                0x00000000401ffe4e                X509V3_get_value_int
                0x00000000401ffebf                X509V3_parse_list
                0x00000000402000f2                hex_to_string
                0x00000000402001b9                string_to_hex
                0x0000000040200376                name_cmp
                0x00000000402003d5                X509_email_free
                0x0000000040200541                X509_REQ_get1_email
                0x00000000402005b7                X509_get1_email
                0x0000000040200611                X509_get1_ocsp
                0x00000000402006b0                a2i_ipadd
                0x0000000040200821                a2i_IPADDRESS_NC
                0x0000000040200911                a2i_IPADDRESS
                0x000000004020096d                X509V3_NAME_from_section
                0x0000000040200a60                X509at_get_attr_count
                0x0000000040200a6b                X509at_get_attr_by_OBJ
                0x0000000040200ad9                X509at_get_attr_by_NID
                0x0000000040200b18                X509at_get_attr
                0x0000000040200b63                X509at_delete_attr
                0x0000000040200bae                X509at_add1_attr
                0x0000000040200c89                X509_ATTRIBUTE_set1_object
                0x0000000040200cd2                X509_ATTRIBUTE_set1_data
                0x0000000040200e5a                X509_ATTRIBUTE_create_by_OBJ
                0x0000000040200f2e                X509_ATTRIBUTE_create_by_txt
                0x0000000040200fe6                X509at_add1_attr_by_txt
                0x000000004020103c                X509_ATTRIBUTE_create_by_NID
                0x00000000402010d6                X509at_add1_attr_by_NID
                0x000000004020112c                X509at_add1_attr_by_OBJ
                0x0000000040201182                X509_ATTRIBUTE_count
                0x00000000402011a4                X509_ATTRIBUTE_get0_object
                0x00000000402011b9                X509_ATTRIBUTE_get0_type
                0x0000000040201210                X509_ATTRIBUTE_get0_data
                0x0000000040201276                X509at_get0_data_by_OBJ
                0x0000000040201324                X509_CRL_get_ext_count
                0x0000000040201336                X509_CRL_get_ext_by_NID
                0x0000000040201348                X509_CRL_get_ext_by_OBJ
                0x000000004020135a                X509_CRL_get_ext_by_critical
                0x000000004020136c                X509_CRL_get_ext
                0x000000004020137e                X509_CRL_delete_ext
                0x0000000040201390                X509_CRL_get_ext_d2i
                0x00000000402013a2                X509_CRL_add1_ext_i2d
                0x00000000402013b4                X509_CRL_add_ext
                0x00000000402013cf                X509_get_ext_count
                0x00000000402013e1                X509_get_ext_by_NID
                0x00000000402013f3                X509_get_ext_by_OBJ
                0x0000000040201405                X509_get_ext_by_critical
                0x0000000040201417                X509_get_ext
                0x0000000040201429                X509_delete_ext
                0x000000004020143b                X509_add_ext
                0x0000000040201456                X509_get_ext_d2i
                0x0000000040201468                X509_add1_ext_i2d
                0x000000004020147a                X509_REVOKED_get_ext_count
                0x0000000040201489                X509_REVOKED_get_ext_by_NID
                0x0000000040201498                X509_REVOKED_get_ext_by_OBJ
                0x00000000402014a7                X509_REVOKED_get_ext_by_critical
                0x00000000402014b6                X509_REVOKED_get_ext
                0x00000000402014c5                X509_REVOKED_delete_ext
                0x00000000402014d4                X509_REVOKED_add_ext
                0x00000000402014ec                X509_REVOKED_get_ext_d2i
                0x00000000402014fb                X509_REVOKED_add1_ext_i2d
                0x000000004020167e                X509_LOOKUP_new
                0x00000000402016ed                X509_LOOKUP_free
                0x0000000040201721                X509_LOOKUP_init
                0x0000000040201742                X509_LOOKUP_shutdown
                0x0000000040201763                X509_LOOKUP_ctrl
                0x000000004020178a                X509_LOOKUP_by_subject
                0x00000000402017b1                X509_LOOKUP_by_issuer_serial
                0x00000000402017d1                X509_LOOKUP_by_fingerprint
                0x00000000402017f1                X509_LOOKUP_by_alias
                0x0000000040201811                X509_STORE_new
                0x0000000040201909                X509_STORE_free
                0x0000000040201999                X509_STORE_add_lookup
                0x0000000040201a21                X509_OBJECT_up_ref_count
                0x0000000040201a7b                X509_OBJECT_free_contents
                0x0000000040201aa3                X509_OBJECT_idx_by_subject
                0x0000000040201ab3                X509_OBJECT_retrieve_by_subject
                0x0000000040201adf                X509_STORE_get_by_subject
                0x0000000040201bf3                X509_STORE_get1_certs
                0x0000000040201dc5                X509_STORE_get1_crls
                0x0000000040201f88                X509_OBJECT_retrieve_match
                0x000000004020205b                X509_STORE_add_crl
                0x000000004020216f                X509_STORE_add_cert
                0x0000000040202283                X509_STORE_CTX_get1_issuer
                0x0000000040202449                X509_STORE_set_flags
                0x0000000040202458                X509_STORE_set_depth
                0x000000004020246c                X509_STORE_set_purpose
                0x000000004020247b                X509_STORE_set_trust
                0x000000004020248a                X509_STORE_set1_param
                0x0000000040202499                X509_STORE_set_verify_cb
                0x00000000402024b0                X509_to_X509_REQ
                0x00000000402025bc                X509_REQ_get_pubkey
                0x00000000402025e4                X509_REQ_check_private_key
                0x0000000040202719                X509_REQ_extension_nid
                0x0000000040202758                X509_REQ_get_extension_nids
                0x0000000040202765                X509_REQ_set_extension_nids
                0x0000000040202772                X509_REQ_add_extensions_nid
                0x0000000040202895                X509_REQ_add_extensions
                0x00000000402028a5                X509_REQ_get_attr_count
                0x00000000402028b7                X509_REQ_get_attr_by_NID
                0x00000000402028c9                X509_REQ_get_attr_by_OBJ
                0x00000000402028db                X509_REQ_get_attr
                0x00000000402028ed                X509_REQ_get_extensions
                0x00000000402029ef                X509_REQ_delete_attr
                0x0000000040202a01                X509_REQ_add1_attr
                0x0000000040202a1c                X509_REQ_add1_attr_by_OBJ
                0x0000000040202a37                X509_REQ_add1_attr_by_NID
                0x0000000040202a52                X509_REQ_add1_attr_by_txt
                0x0000000040202bf5                X509_TRUST_set_default
                0x0000000040202c09                X509_TRUST_get_count
                0x0000000040202c28                X509_TRUST_get0
                0x0000000040202c5c                X509_TRUST_get_by_id
                0x0000000040202c9c                X509_check_trust
                0x0000000040202cff                X509_TRUST_set
                0x0000000040202d59                X509_TRUST_add
                0x0000000040202f05                X509_TRUST_cleanup
                0x0000000040202f51                X509_TRUST_get_flags
                0x0000000040202f5a                X509_TRUST_get0_name
                0x0000000040202f64                X509_TRUST_get_trust
                0x0000000040202f70                X509v3_get_ext_count
                0x0000000040202f85                X509v3_get_ext_by_OBJ
                0x0000000040202ff3                X509v3_get_ext_by_NID
                0x0000000040203032                X509v3_get_ext_by_critical
                0x00000000402030a8                X509v3_get_ext
                0x00000000402030f3                X509v3_delete_ext
                0x000000004020313e                X509v3_add_ext
                0x0000000040203243                X509_EXTENSION_set_object
                0x000000004020328c                X509_EXTENSION_set_critical
                0x00000000402032ab                X509_EXTENSION_set_data
                0x00000000402032d5                X509_EXTENSION_create_by_OBJ
                0x00000000402033af                X509_EXTENSION_create_by_NID
                0x000000004020343b                X509_EXTENSION_get_object
                0x0000000040203450                X509_EXTENSION_get_data
                0x0000000040203466                X509_EXTENSION_get_critical
                0x0000000040203480                X509_NAME_entry_count
                0x0000000040203498                X509_NAME_get_index_by_OBJ
                0x000000004020350b                X509_NAME_get_index_by_NID
                0x000000004020354a                X509_NAME_get_entry
                0x0000000040203598                X509_NAME_delete_entry
                0x0000000040203664                X509_NAME_add_entry
                0x00000000402037d8                X509_NAME_ENTRY_set_object
                0x0000000040203844                X509_NAME_ENTRY_set_data
                0x0000000040203929                X509_NAME_ENTRY_create_by_OBJ
                0x00000000402039dc                X509_NAME_ENTRY_create_by_NID
                0x0000000040203a72                X509_NAME_add_entry_by_NID
                0x0000000040203ad9                X509_NAME_ENTRY_create_by_txt
                0x0000000040203b91                X509_NAME_add_entry_by_txt
                0x0000000040203bf8                X509_NAME_add_entry_by_OBJ
                0x0000000040203c5f                X509_NAME_ENTRY_get_object
                0x0000000040203c74                X509_NAME_ENTRY_get_data
                0x0000000040203c8a                X509_NAME_get_text_by_OBJ
                0x0000000040203d0c                X509_NAME_get_text_by_NID
                0x0000000040203d5c                X509_REQ_set_version
                0x0000000040203d78                X509_REQ_set_subject_name
                0x0000000040203d99                X509_REQ_set_pubkey
                0x0000000040203dbc                d2i_X509_VAL
                0x0000000040203dcc                i2d_X509_VAL
                0x0000000040203ddc                X509_VAL_new
                0x0000000040203dec                X509_VAL_free
                0x0000000040203e00                CRYPTO_cbc128_encrypt
                0x0000000040203f4b                CRYPTO_cbc128_decrypt
                0x0000000040204294                CRYPTO_cfb128_encrypt
                0x0000000040204545                CRYPTO_cfb128_1_encrypt
                0x000000004020460f                CRYPTO_cfb128_8_encrypt
                0x000000004020467c                CRYPTO_ofb128_encrypt
                0x00000000402047a8                i2d_ASN1_BOOLEAN
                0x0000000040204822                d2i_ASN1_BOOLEAN
                0x0000000040204b60                ASN1_mbstring_ncopy
                0x0000000040205065                ASN1_mbstring_copy
                0x0000000040205090                ASN1_PRINTABLE_type
                0x0000000040205151                ASN1_UNIVERSALSTRING_to_string
                0x000000004020523f                ASN1_STRING_set_default_mask
                0x000000004020524c                ASN1_STRING_get_default_mask
                0x0000000040205259                ASN1_STRING_set_default_mask_asc
                0x000000004020531c                ASN1_STRING_TABLE_get
                0x0000000040205382                ASN1_STRING_set_by_NID
                0x0000000040205441                ASN1_STRING_TABLE_add
                0x0000000040205576                ASN1_STRING_TABLE_cleanup
                0x00000000402055a0                ASN1_seq_unpack
                0x0000000040205605                ASN1_seq_pack
                0x0000000040205703                ASN1_unpack_string
                0x0000000040205756                ASN1_pack_string
                0x0000000040205858                ASN1_item_pack
                0x0000000040205951                ASN1_item_unpack
                0x00000000402059a8                BN_mod_exp2_mont
                0x0000000040206234                BN_kronecker
                0x000000004020655a                BN_get0_nist_prime_192
                0x0000000040206565                BN_get0_nist_prime_224
                0x0000000040206570                BN_get0_nist_prime_256
                0x000000004020657b                BN_get0_nist_prime_384
                0x0000000040206586                BN_get0_nist_prime_521
                0x0000000040206591                BN_nist_mod_192
                0x00000000402067ff                BN_nist_mod_224
                0x0000000040206b45                BN_nist_mod_256
                0x0000000040206fdd                BN_nist_mod_384
                0x000000004020757d                BN_nist_mod_521
                0x0000000040207760                BN_mod_sqrt
                0x000000004020810b                CONF_modules_load
                0x000000004020858c                CONF_modules_finish
                0x0000000040208606                CONF_modules_unload
                0x00000000402086bc                CONF_module_add
                0x00000000402086de                CONF_modules_free
                0x00000000402086f3                CONF_imodule_get_name
                0x00000000402086fd                CONF_imodule_get_value
                0x0000000040208707                CONF_imodule_get_usr_data
                0x0000000040208711                CONF_imodule_set_usr_data
                0x000000004020871b                CONF_imodule_get_module
                0x0000000040208724                CONF_imodule_get_flags
                0x000000004020872e                CONF_imodule_set_flags
                0x0000000040208738                CONF_module_get_usr_data
                0x0000000040208742                CONF_module_set_usr_data
                0x000000004020874c                CONF_get1_default_config_file
                0x00000000402087c7                CONF_modules_load_file
                0x00000000402088a1                CONF_parse_list
                0x00000000402089b0                DSO_set_default_method
                0x00000000402089bd                DSO_get_default_method
                0x00000000402089ca                DSO_get_method
                0x00000000402089d3                DSO_set_method
                0x00000000402089df                DSO_new_method
                0x0000000040208ad2                DSO_new
                0x0000000040208ae2                DSO_free
                0x0000000040208bf8                DSO_flags
                0x0000000040208c0b                DSO_up_ref
                0x0000000040208c5d                DSO_bind_var
                0x0000000040208cfb                DSO_bind_func
                0x0000000040208d99                DSO_ctrl
                0x0000000040208e31                DSO_set_name_converter
                0x0000000040208e75                DSO_get_filename
                0x0000000040208ea8                DSO_set_filename
                0x0000000040208fa5                DSO_load
                0x0000000040209154                DSO_merge
                0x00000000402091b7                DSO_convert_filename
                0x00000000402092c7                DSO_get_loaded_filename
                0x00000000402092fa                DSO_pathbyaddr
                0x000000004020936e                DSO_global_lookup
                0x00000000402093c8                DSO_METHOD_openssl
                0x00000000402093e0                ec_GF2m_simple_is_at_infinity
                0x00000000402093f0                ec_GF2m_simple_points_make_affine
                0x0000000040209459                ec_GF2m_simple_field_div
                0x0000000040209474                ec_GF2m_simple_field_sqr
                0x000000004020948f                ec_GF2m_simple_field_mul
                0x00000000402094ad                ec_GF2m_simple_point_copy
                0x0000000040209512                ec_GF2m_simple_group_get_curve
                0x000000004020959a                ec_GF2m_simple_point_set_to_infinity
                0x00000000402095ba                ec_GF2m_simple_make_affine
                0x00000000402096ce                ec_GF2m_simple_cmp
                0x000000004020986b                ec_GF2m_simple_is_on_curve
                0x0000000040209a09                ec_GF2m_simple_invert
                0x0000000040209a73                ec_GF2m_simple_add
                0x0000000040209e8a                ec_GF2m_simple_dbl
                0x0000000040209e9b                ec_GF2m_simple_oct2point
                0x000000004020a25b                ec_GF2m_simple_group_get_degree
                0x000000004020a26d                ec_GF2m_simple_point2oct
                0x000000004020a61e                ec_GF2m_simple_group_check_discriminant
                0x000000004020a6f5                ec_GF2m_simple_set_compressed_coordinates
                0x000000004020a989                ec_GF2m_simple_point_get_affine_coordinates
                0x000000004020aa7d                ec_GF2m_simple_point_set_affine_coordinates
                0x000000004020ab5d                ec_GF2m_simple_point_clear_finish
                0x000000004020ab92                ec_GF2m_simple_group_clear_finish
                0x000000004020ac02                ec_GF2m_simple_point_finish
                0x000000004020ac30                ec_GF2m_simple_group_finish
                0x000000004020ac64                ec_GF2m_simple_point_init
                0x000000004020ac97                ec_GF2m_simple_group_init
                0x000000004020acd0                ec_GF2m_simple_group_set_curve
                0x000000004020ae7e                ec_GF2m_simple_group_copy
                0x000000004020b01d                EC_GF2m_simple_method
                0x000000004020b028                d2i_ECDSA_SIG
                0x000000004020b038                i2d_ECDSA_SIG
                0x000000004020b048                ECDSA_SIG_new
                0x000000004020b058                ECDSA_SIG_free
                0x000000004020b07e                ERR_print_errors_cb
                0x000000004020b16e                ERR_print_errors
                0x000000004020b184                PKCS12_item_pack_safebag
                0x000000004020b280                PKCS12_MAKE_KEYBAG
                0x000000004020b2df                PKCS12_MAKE_SHKEYBAG
                0x000000004020b3d0                PKCS12_pack_p7data
                0x000000004020b494                PKCS12_unpack_p7data
                0x000000004020b4e9                PKCS12_pack_p7encdata
                0x000000004020b68a                PKCS12_unpack_p7encdata
                0x000000004020b6f4                PKCS12_decrypt_skey
                0x000000004020b703                PKCS12_pack_authsafes
                0x000000004020b72a                PKCS12_unpack_authsafes
                0x000000004020b788                d2i_PKCS12
                0x000000004020b798                i2d_PKCS12
                0x000000004020b7a8                PKCS12_new
                0x000000004020b7b8                PKCS12_free
                0x000000004020b7c8                d2i_PKCS12_MAC_DATA
                0x000000004020b7d8                i2d_PKCS12_MAC_DATA
                0x000000004020b7e8                PKCS12_MAC_DATA_new
                0x000000004020b7f8                PKCS12_MAC_DATA_free
                0x000000004020b808                d2i_PKCS12_BAGS
                0x000000004020b818                i2d_PKCS12_BAGS
                0x000000004020b828                PKCS12_BAGS_new
                0x000000004020b838                PKCS12_BAGS_free
                0x000000004020b848                d2i_PKCS12_SAFEBAG
                0x000000004020b858                i2d_PKCS12_SAFEBAG
                0x000000004020b868                PKCS12_SAFEBAG_new
                0x000000004020b878                PKCS12_SAFEBAG_free
                0x000000004020b888                PKCS12_pbe_crypt
                0x000000004020ba08                PKCS12_item_decrypt_d2i
                0x000000004020bad4                PKCS12_item_i2d_encrypt
                0x000000004020bc10                PKCS8_encrypt
                0x000000004020bd48                X509_policy_tree_level_count
                0x000000004020bd5b                X509_policy_tree_get0_level
                0x000000004020bd8a                X509_policy_tree_get0_policies
                0x000000004020bda0                X509_policy_tree_get0_user_policies
                0x000000004020bdc2                X509_policy_level_node_count
                0x000000004020bdf9                X509_policy_level_get0_node
                0x000000004020be24                X509_policy_node_get0_policy
                0x000000004020be3d                X509_policy_node_get0_qualifiers
                0x000000004020be56                X509_policy_node_get0_parent
                0x000000004020be8b                policy_node_cmp_new
                0x000000004020be9b                tree_find_sk
                0x000000004020bed7                level_find_node
                0x000000004020bf4b                policy_node_free
                0x000000004020bf56                level_add_node
                0x000000004020c052                policy_node_match
                0x000000004020c259                i2v_GENERAL_NAME
                0x000000004020c4e0                i2v_GENERAL_NAMES
                0x000000004020c544                GENERAL_NAME_print
                0x000000004020c6e8                a2i_GENERAL_NAME
                0x000000004020caac                v2i_GENERAL_NAME_ex
                0x000000004020cc19                v2i_GENERAL_NAME
                0x000000004020cf64                v2i_GENERAL_NAMES
                0x000000004020d05d                d2i_BASIC_CONSTRAINTS
                0x000000004020d06d                i2d_BASIC_CONSTRAINTS
                0x000000004020d07d                BASIC_CONSTRAINTS_new
                0x000000004020d08d                BASIC_CONSTRAINTS_free
                0x000000004020d825                X509V3_EXT_nconf
                0x000000004020d8fc                X509V3_EXT_nconf_nid
                0x000000004020d98c                X509V3_EXT_i2d
                0x000000004020d9f6                X509V3_EXT_add_nconf_sk
                0x000000004020da9e                X509V3_EXT_add_nconf
                0x000000004020dabd                X509V3_EXT_CRL_add_nconf
                0x000000004020dadc                X509V3_EXT_REQ_add_nconf
                0x000000004020db3b                X509V3_get_string
                0x000000004020db86                X509V3_get_section
                0x000000004020dbd2                X509V3_string_free
                0x000000004020dbf0                X509V3_section_free
                0x000000004020dc0e                X509V3_set_nconf
                0x000000004020dc20                X509V3_set_ctx
                0x000000004020dc39                X509V3_EXT_conf
                0x000000004020dc82                X509V3_EXT_conf_nid
                0x000000004020dccb                X509V3_set_conf_lhash
                0x000000004020dcdd                X509V3_EXT_add_conf
                0x000000004020dd26                X509V3_EXT_CRL_add_conf
                0x000000004020dd6f                X509V3_EXT_REQ_add_conf
                0x000000004020df0f                ACCESS_DESCRIPTION_free
                0x000000004020df1f                d2i_ACCESS_DESCRIPTION
                0x000000004020df2f                i2d_ACCESS_DESCRIPTION
                0x000000004020df3f                ACCESS_DESCRIPTION_new
                0x000000004020e169                d2i_AUTHORITY_INFO_ACCESS
                0x000000004020e179                i2d_AUTHORITY_INFO_ACCESS
                0x000000004020e189                AUTHORITY_INFO_ACCESS_new
                0x000000004020e199                AUTHORITY_INFO_ACCESS_free
                0x000000004020e1a9                i2a_ACCESS_DESCRIPTION
                0x000000004020e1ec                X509V3_EXT_add
                0x000000004020e280                X509V3_EXT_get_nid
                0x000000004020e2f8                X509V3_EXT_get
                0x000000004020e316                X509V3_EXT_add_list
                0x000000004020e354                X509V3_EXT_add_alias
                0x000000004020e44f                X509V3_EXT_cleanup
                0x000000004020e471                X509V3_add_standard_extensions
                0x000000004020e47c                X509V3_EXT_d2i
                0x000000004020e4d7                X509V3_get_d2i
                0x000000004020e5ff                X509V3_add1_i2d
                0x000000004020f5c0                d2i_PROXY_POLICY
                0x000000004020f5d0                i2d_PROXY_POLICY
                0x000000004020f5e0                PROXY_POLICY_new
                0x000000004020f5f0                PROXY_POLICY_free
                0x000000004020f600                d2i_PROXY_CERT_INFO_EXTENSION
                0x000000004020f610                i2d_PROXY_CERT_INFO_EXTENSION
                0x000000004020f620                PROXY_CERT_INFO_EXTENSION_new
                0x000000004020f630                PROXY_CERT_INFO_EXTENSION_free
                0x000000004020f6d1                d2i_PKEY_USAGE_PERIOD
                0x000000004020f6e1                i2d_PKEY_USAGE_PERIOD
                0x000000004020f6f1                PKEY_USAGE_PERIOD_new
                0x000000004020f701                PKEY_USAGE_PERIOD_free
                0x000000004020f720                i2s_ASN1_OCTET_STRING
                0x000000004020f735                s2i_ASN1_OCTET_STRING
                0x000000004020f9e7                d2i_SXNETID
                0x000000004020f9f7                i2d_SXNETID
                0x000000004020fa07                SXNETID_new
                0x000000004020fa17                SXNETID_free
                0x000000004020fa27                d2i_SXNET
                0x000000004020fa37                i2d_SXNET
                0x000000004020fa47                SXNET_new
                0x000000004020fa57                SXNET_free
                0x000000004020fa67                SXNET_get_id_INTEGER
                0x000000004020fac6                SXNET_get_id_ulong
                0x000000004020fb57                SXNET_get_id_asc
                0x000000004020fbc6                SXNET_add_id_INTEGER
                0x000000004020fd86                SXNET_add_id_ulong
                0x000000004020fe24                SXNET_add_id_asc
                0x000000004020fef8                X509_get_default_private_dir
                0x000000004020ff03                X509_get_default_cert_area
                0x000000004020ff0e                X509_get_default_cert_dir
                0x000000004020ff19                X509_get_default_cert_file
                0x000000004020ff24                X509_get_default_cert_dir_env
                0x000000004020ff2f                X509_get_default_cert_file_env
                0x000000004020ff81                i2d_ASN1_SET
                0x00000000402101ea                d2i_ASN1_SET
                0x0000000040210aaf                ASN1_generate_v3
                0x00000000402113e1                ASN1_generate_nconf
                0x00000000402115ec                BN_GF2m_add
                0x00000000402116ca                BN_GF2m_mod_arr
                0x0000000040211966                BN_GF2m_mod_sqr_arr
                0x0000000040211b0a                BN_GF2m_mod_mul_arr
                0x0000000040211d70                BN_GF2m_mod_exp_arr
                0x0000000040211ea7                BN_GF2m_mod_sqrt_arr
                0x0000000040211f4f                BN_GF2m_mod_solve_quad_arr
                0x0000000040212319                BN_GF2m_poly2arr
                0x00000000402123a3                BN_GF2m_mod_solve_quad
                0x0000000040212470                BN_GF2m_mod_sqrt
                0x000000004021253d                BN_GF2m_mod_exp
                0x0000000040212612                BN_GF2m_mod_sqr
                0x00000000402126df                BN_GF2m_mod_mul
                0x00000000402127b4                BN_GF2m_mod
                0x0000000040212879                BN_GF2m_mod_inv
                0x0000000040212a59                BN_GF2m_mod_div
                0x0000000040212af6                BN_GF2m_arr2poly
                0x0000000040212b5b                BN_GF2m_mod_div_arr
                0x0000000040212bef                BN_GF2m_mod_inv_arr
                0x0000000040212c80                CONF_set_nconf
                0x0000000040212cc7                CONF_set_default_method
                0x0000000040212cd9                CONF_load
                0x0000000040212d03                NCONF_new
                0x0000000040212d50                NCONF_free
                0x0000000040212d61                NCONF_free_data
                0x0000000040212d72                CONF_free
                0x0000000040212d91                NCONF_load
                0x0000000040212dc6                NCONF_load_bio
                0x0000000040212dfb                CONF_load_bio
                0x0000000040212e45                NCONF_get_section
                0x0000000040212ea2                CONF_get_section
                0x0000000040212ed7                NCONF_get_string
                0x0000000040212f7e                CONF_get_string
                0x0000000040212fc5                NCONF_get_number_e
                0x0000000040213060                CONF_get_number
                0x00000000402130be                NCONF_dump_bio
                0x00000000402130f3                CONF_dump_bio
                0x0000000040213120                DSO_METHOD_null
                0x00000000402139ea                ec_GF2m_simple_mul
                0x0000000040213c45                ec_GF2m_precompute_mult
                0x0000000040213c50                ec_GF2m_have_precompute_mult
                0x0000000040213c5c                i2a_ASN1_INTEGER
                0x0000000040213d9d                a2i_ASN1_INTEGER
                0x00000000402140a0                i2a_ASN1_STRING
                0x00000000402141b1                a2i_ASN1_STRING
                0x0000000040214468                d2i_OCSP_SIGNATURE
                0x0000000040214478                i2d_OCSP_SIGNATURE
                0x0000000040214488                OCSP_SIGNATURE_new
                0x0000000040214498                OCSP_SIGNATURE_free
                0x00000000402144a8                d2i_OCSP_CERTID
                0x00000000402144b8                i2d_OCSP_CERTID
                0x00000000402144c8                OCSP_CERTID_new
                0x00000000402144d8                OCSP_CERTID_free
                0x00000000402144e8                d2i_OCSP_ONEREQ
                0x00000000402144f8                i2d_OCSP_ONEREQ
                0x0000000040214508                OCSP_ONEREQ_new
                0x0000000040214518                OCSP_ONEREQ_free
                0x0000000040214528                d2i_OCSP_REQINFO
                0x0000000040214538                i2d_OCSP_REQINFO
                0x0000000040214548                OCSP_REQINFO_new
                0x0000000040214558                OCSP_REQINFO_free
                0x0000000040214568                d2i_OCSP_REQUEST
                0x0000000040214578                i2d_OCSP_REQUEST
                0x0000000040214588                OCSP_REQUEST_new
                0x0000000040214598                OCSP_REQUEST_free
                0x00000000402145a8                d2i_OCSP_RESPBYTES
                0x00000000402145b8                i2d_OCSP_RESPBYTES
                0x00000000402145c8                OCSP_RESPBYTES_new
                0x00000000402145d8                OCSP_RESPBYTES_free
                0x00000000402145e8                d2i_OCSP_RESPONSE
                0x00000000402145f8                i2d_OCSP_RESPONSE
                0x0000000040214608                OCSP_RESPONSE_new
                0x0000000040214618                OCSP_RESPONSE_free
                0x0000000040214628                d2i_OCSP_RESPID
                0x0000000040214638                i2d_OCSP_RESPID
                0x0000000040214648                OCSP_RESPID_new
                0x0000000040214658                OCSP_RESPID_free
                0x0000000040214668                d2i_OCSP_REVOKEDINFO
                0x0000000040214678                i2d_OCSP_REVOKEDINFO
                0x0000000040214688                OCSP_REVOKEDINFO_new
                0x0000000040214698                OCSP_REVOKEDINFO_free
                0x00000000402146a8                d2i_OCSP_CERTSTATUS
                0x00000000402146b8                i2d_OCSP_CERTSTATUS
                0x00000000402146c8                OCSP_CERTSTATUS_new
                0x00000000402146d8                OCSP_CERTSTATUS_free
                0x00000000402146e8                d2i_OCSP_SINGLERESP
                0x00000000402146f8                i2d_OCSP_SINGLERESP
                0x0000000040214708                OCSP_SINGLERESP_new
                0x0000000040214718                OCSP_SINGLERESP_free
                0x0000000040214728                d2i_OCSP_RESPDATA
                0x0000000040214738                i2d_OCSP_RESPDATA
                0x0000000040214748                OCSP_RESPDATA_new
                0x0000000040214758                OCSP_RESPDATA_free
                0x0000000040214768                d2i_OCSP_BASICRESP
                0x0000000040214778                i2d_OCSP_BASICRESP
                0x0000000040214788                OCSP_BASICRESP_new
                0x0000000040214798                OCSP_BASICRESP_free
                0x00000000402147a8                d2i_OCSP_CRLID
                0x00000000402147b8                i2d_OCSP_CRLID
                0x00000000402147c8                OCSP_CRLID_new
                0x00000000402147d8                OCSP_CRLID_free
                0x00000000402147e8                d2i_OCSP_SERVICELOC
                0x00000000402147f8                i2d_OCSP_SERVICELOC
                0x0000000040214808                OCSP_SERVICELOC_new
                0x0000000040214818                OCSP_SERVICELOC_free
                0x0000000040214bdc                v2i_ASN1_BIT_STRING
                0x0000000040214d5f                i2v_ASN1_BIT_STRING
                0x0000000040214db4                i2s_ASN1_ENUMERATED_TABLE
                0x0000000040214f80                d2i_EXTENDED_KEY_USAGE
                0x0000000040214f90                i2d_EXTENDED_KEY_USAGE
                0x0000000040214fa0                EXTENDED_KEY_USAGE_new
                0x0000000040214fb0                EXTENDED_KEY_USAGE_free
                0x0000000040215228                _CONF_get_section
                0x000000004021525c                _CONF_get_section_values
                0x0000000040215277                _CONF_add_string
                0x0000000040215302                _CONF_get_string
                0x00000000402153a0                _CONF_new_data
                0x00000000402153e2                _CONF_free_data
                0x0000000040215433                _CONF_new_section
                0x00000000402163c1                NCONF_default
                0x00000000402163cc                NCONF_WIN32
                0x00000000402163d7                codeend = .

.iplt           0x00000000402163e0        0x0 load address 0x00000000002163e0
 .iplt          0x0000000000000000        0x0 output.o

.rodata         0x00000000402163e0    0x34fcc load address 0x00000000002163e0
 .rodata        0x00000000402163e0    0x34fcc output.o
                0x0000000040224580                BN_version
                0x00000000402249a0                DES_SPtrans
                0x00000000402259a0                DH_version
                0x0000000040226e80                OSSL_DES_version
                0x0000000040226ec0                OSSL_libdes_version
                0x0000000040226fa0                EVP_version
                0x0000000040227060                IDEA_version
                0x00000000402270a0                lh_version
                0x00000000402276e0                MD4_version
                0x0000000040227720                MD5_version
                0x00000000402342a0                PEM_version
                0x0000000040234300                PKCS7_ATTR_VERIFY_it
                0x0000000040234340                PKCS7_ATTR_SIGN_it
                0x0000000040234380                PKCS7_DIGEST_it
                0x00000000402343c0                PKCS7_ENCRYPT_it
                0x0000000040234400                PKCS7_SIGN_ENVELOPE_it
                0x0000000040234440                PKCS7_ENC_CONTENT_it
                0x0000000040234480                PKCS7_RECIP_INFO_it
                0x00000000402344c0                PKCS7_ENVELOPE_it
                0x0000000040234500                PKCS7_ISSUER_AND_SERIAL_it
                0x0000000040234540                PKCS7_SIGNER_INFO_it
                0x0000000040234580                PKCS7_SIGNED_it
                0x00000000402345c0                PKCS7_it
                0x0000000040235080                RC2_version
                0x00000000402351c0                RC4_version
                0x0000000040235200                RMD160_version
                0x0000000040235240                RSAPublicKey_it
                0x0000000040235280                RSAPrivateKey_it
                0x0000000040235520                RSA_version
                0x0000000040236720                SHA1_version
                0x0000000040236760                SHA256_version
                0x00000000402368a0                SHA512_version
                0x0000000040236b60                SHA_version
                0x0000000040236ba0                STACK_version
                0x0000000040236e00                ASN1_SET_ANY_it
                0x0000000040236e40                ASN1_SEQUENCE_ANY_it
                0x0000000040236e80                ASN1_OCTET_STRING_NDEF_it
                0x0000000040236ec0                ASN1_FBOOLEAN_it
                0x0000000040236f00                ASN1_TBOOLEAN_it
                0x0000000040236f40                ASN1_BOOLEAN_it
                0x0000000040236f80                DIRECTORYSTRING_it
                0x0000000040236fc0                DISPLAYTEXT_it
                0x0000000040237000                ASN1_PRINTABLE_it
                0x0000000040237040                ASN1_SEQUENCE_it
                0x0000000040237080                ASN1_ANY_it
                0x00000000402370c0                ASN1_BMPSTRING_it
                0x0000000040237100                ASN1_UNIVERSALSTRING_it
                0x0000000040237140                ASN1_VISIBLESTRING_it
                0x0000000040237180                ASN1_GENERALIZEDTIME_it
                0x00000000402371c0                ASN1_UTCTIME_it
                0x0000000040237200                ASN1_GENERALSTRING_it
                0x0000000040237240                ASN1_IA5STRING_it
                0x0000000040237280                ASN1_T61STRING_it
                0x00000000402372c0                ASN1_PRINTABLESTRING_it
                0x0000000040237300                ASN1_UTF8STRING_it
                0x0000000040237340                ASN1_OBJECT_it
                0x0000000040237380                ASN1_NULL_it
                0x00000000402373c0                ASN1_OCTET_STRING_it
                0x0000000040237400                ASN1_BIT_STRING_it
                0x0000000040237440                ASN1_ENUMERATED_it
                0x0000000040237480                ASN1_INTEGER_it
                0x0000000040237560                X509_version
                0x00000000402376c0                X509_ALGORS_it
                0x0000000040237700                X509_ALGOR_it
                0x00000000402377e0                X509_ATTRIBUTE_it
                0x0000000040237820                X509_ATTRIBUTE_SET_it
                0x0000000040237920                CBIGNUM_it
                0x0000000040237960                BIGNUM_it
                0x00000000402379a0                X509_CRL_it
                0x00000000402379e0                X509_CRL_INFO_it
                0x0000000040237a20                X509_REVOKED_it
                0x0000000040237d00                X509_EXTENSIONS_it
                0x0000000040237d40                X509_EXTENSION_it
                0x0000000040237e40                ZLONG_it
                0x0000000040237e80                LONG_it
                0x0000000040237ec0                X509_NAME_it
                0x0000000040237f00                x509_name_ff
                0x0000000040237f40                X509_NAME_INTERNAL_it
                0x0000000040237f80                X509_NAME_ENTRIES_it
                0x0000000040237fc0                X509_NAME_ENTRY_it
                0x00000000402380e0                X509_PUBKEY_it
                0x00000000402381c0                X509_REQ_it
                0x0000000040238200                X509_REQ_INFO_it
                0x00000000402383e0                X509_SIG_it
                0x0000000040238480                NETSCAPE_SPKI_it
                0x00000000402384c0                NETSCAPE_SPKAC_it
                0x00000000402385e0                X509_it
                0x0000000040238620                X509_CINF_it
                0x0000000040238900                X509_CERT_PAIR_it
                0x0000000040238940                X509_CERT_AUX_it
                0x0000000040238f40                rsa_pkey_meth
                0x0000000040239020                dh_pkey_meth
                0x0000000040239100                dsa_pkey_meth
                0x00000000402391e0                ec_pkey_meth
                0x00000000402392c0                hmac_pkey_meth
                0x00000000402393e0                rsa_asn1_meths
                0x0000000040239560                dh_asn1_meth
                0x0000000040239620                dsa_asn1_meths
                0x00000000402399c0                eckey_asn1_meth
                0x0000000040239a80                hmac_asn1_meth
                0x000000004023abc0                CMS_Receipt_it
                0x000000004023ac00                CMS_ReceiptRequest_it
                0x000000004023ac40                CMS_ReceiptsFrom_it
                0x000000004023ac80                CMS_Attributes_Verify_it
                0x000000004023acc0                CMS_Attributes_Sign_it
                0x000000004023ad00                CMS_ContentInfo_it
                0x000000004023ad40                CMS_CompressedData_it
                0x000000004023ad80                CMS_AuthenticatedData_it
                0x000000004023adc0                CMS_EncryptedData_it
                0x000000004023ae00                CMS_DigestedData_it
                0x000000004023ae40                CMS_EnvelopedData_it
                0x000000004023ae80                CMS_RecipientInfo_it
                0x000000004023aec0                CMS_OtherRecipientInfo_it
                0x000000004023af00                CMS_PasswordRecipientInfo_it
                0x000000004023af40                CMS_KEKRecipientInfo_it
                0x000000004023af80                CMS_KEKIdentifier_it
                0x000000004023afc0                CMS_KeyAgreeRecipientInfo_it
                0x000000004023b000                CMS_OriginatorIdentifierOrKey_it
                0x000000004023b040                CMS_OriginatorPublicKey_it
                0x000000004023b080                CMS_RecipientEncryptedKey_it
                0x000000004023b0c0                CMS_KeyAgreeRecipientIdentifier_it
                0x000000004023b100                CMS_RecipientKeyIdentifier_it
                0x000000004023b140                CMS_OtherKeyAttribute_it
                0x000000004023b180                CMS_KeyTransRecipientInfo_it
                0x000000004023b1c0                CMS_EncryptedContentInfo_it
                0x000000004023b200                CMS_OriginatorInfo_it
                0x000000004023b240                CMS_SignedData_it
                0x000000004023b280                CMS_RevocationInfoChoice_it
                0x000000004023b2c0                CMS_OtherRevocationInfoFormat_it
                0x000000004023b300                CMS_SignerInfo_it
                0x000000004023b340                CMS_EncapsulatedContentInfo_it
                0x000000004023b380                CMS_SignerIdentifier_it
                0x000000004023b3c0                CMS_CertificateChoices_it
                0x000000004023b400                CMS_OtherCertificateFormat_it
                0x000000004023b440                CMS_IssuerAndSerialNumber_it
                0x000000004023cc80                ASN1_TIME_it
                0x000000004023cd00                ASN1_version
                0x000000004023ce60                BF_version
                0x000000004023f000                CAST_version
                0x000000004023f0c0                CAST_S_table7
                0x000000004023f4c0                CAST_S_table6
                0x000000004023f8c0                CAST_S_table5
                0x000000004023fcc0                CAST_S_table4
                0x00000000402400c0                CAST_S_table3
                0x00000000402404c0                CAST_S_table2
                0x00000000402408c0                CAST_S_table1
                0x0000000040240cc0                CAST_S_table0
                0x0000000040241300                DHparams_it
                0x0000000040241400                DSAPublicKey_it
                0x0000000040241440                dsa_pub_internal_it
                0x0000000040241480                DSAparams_it
                0x00000000402414c0                DSAPrivateKey_it
                0x0000000040241500                DSA_SIG_it
                0x0000000040241920                DSA_version
                0x0000000040241960                EC_PRIVATEKEY_it
                0x00000000402419a0                ECPKPARAMETERS_it
                0x00000000402419e0                ECPARAMETERS_it
                0x0000000040241a20                X9_62_CURVE_it
                0x0000000040241a60                X9_62_FIELDID_it
                0x0000000040241aa0                X9_62_CHARACTERISTIC_TWO_it
                0x0000000040241ae0                X9_62_PENTANOMIAL_it
                0x0000000040245aa0                ECDH_version
                0x0000000040245ea0                ECDSA_version
                0x00000000402461a0                RAND_version
                0x00000000402461e0                NETSCAPE_CERT_SEQUENCE_it
                0x00000000402462c0                PBEPARAM_it
                0x0000000040246360                PBKDF2PARAM_it
                0x00000000402463a0                PBE2PARAM_it
                0x00000000402464e0                PKCS8_PRIV_KEY_INFO_it
                0x00000000402466a0                AUTHORITY_KEYID_it
                0x0000000040246760                NOTICEREF_it
                0x00000000402467a0                USERNOTICE_it
                0x00000000402467e0                POLICYQUALINFO_it
                0x0000000040246820                POLICYINFO_it
                0x0000000040246860                CERTIFICATEPOLICIES_it
                0x00000000402468a0                v3_cpols
                0x0000000040246bc0                v3_idp
                0x0000000040246c40                ISSUING_DIST_POINT_it
                0x0000000040246c80                CRL_DIST_POINTS_it
                0x0000000040246cc0                DIST_POINT_it
                0x0000000040246d00                DIST_POINT_NAME_it
                0x0000000040246d40                v3_freshest_crl
                0x0000000040246dc0                v3_crld
                0x0000000040247280                GENERAL_NAMES_it
                0x00000000402472c0                GENERAL_NAME_it
                0x0000000040247300                EDIPARTYNAME_it
                0x0000000040247340                OTHERNAME_it
                0x0000000040247600                NAME_CONSTRAINTS_it
                0x0000000040247640                GENERAL_SUBTREE_it
                0x0000000040247680                v3_name_constraints
                0x00000000402477e0                POLICY_CONSTRAINTS_it
                0x0000000040247820                v3_policy_constraints
                0x0000000040247900                POLICY_MAPPINGS_it
                0x0000000040247940                POLICY_MAPPING_it
                0x0000000040247980                v3_policy_mappings
                0x0000000040247b00                X509_VAL_it
                0x00000000402485a0                ECDSA_SIG_it
                0x0000000040248640                PKCS12_AUTHSAFES_it
                0x0000000040248680                PKCS12_SAFEBAGS_it
                0x00000000402486c0                PKCS12_SAFEBAG_it
                0x0000000040248700                PKCS12_BAGS_it
                0x0000000040248740                PKCS12_MAC_DATA_it
                0x0000000040248780                PKCS12_it
                0x0000000040248dc0                v3_alt
                0x0000000040248f00                BASIC_CONSTRAINTS_it
                0x0000000040248f40                v3_bcons
                0x0000000040249020                AUTHORITY_INFO_ACCESS_it
                0x0000000040249060                ACCESS_DESCRIPTION_it
                0x00000000402490a0                v3_sinfo
                0x0000000040249120                v3_info
                0x0000000040249240                v3_ocsp_serviceloc
                0x00000000402492c0                v3_ocsp_nocheck
                0x0000000040249340                v3_ocsp_nonce
                0x00000000402493c0                v3_crl_hold
                0x0000000040249440                v3_crl_invdate
                0x00000000402494c0                v3_ocsp_acutoff
                0x0000000040249540                v3_ocsp_crlid
                0x00000000402495c0                v3_pci
                0x0000000040249640                PROXY_CERT_INFO_EXTENSION_it
                0x0000000040249680                PROXY_POLICY_it
                0x0000000040249780                PKEY_USAGE_PERIOD_it
                0x00000000402497c0                v3_pkey_usage_period
                0x00000000402498a0                v3_skey_id
                0x0000000040249920                SXNET_it
                0x0000000040249960                SXNETID_it
                0x00000000402499a0                v3_sxnet
                0x0000000040249f80                CONF_version
                0x0000000040249fc0                OCSP_SERVICELOC_it
                0x000000004024a000                OCSP_CRLID_it
                0x000000004024a040                OCSP_BASICRESP_it
                0x000000004024a080                OCSP_RESPDATA_it
                0x000000004024a0c0                OCSP_SINGLERESP_it
                0x000000004024a100                OCSP_CERTSTATUS_it
                0x000000004024a140                OCSP_REVOKEDINFO_it
                0x000000004024a180                OCSP_RESPID_it
                0x000000004024a1c0                OCSP_RESPONSE_it
                0x000000004024a200                OCSP_RESPBYTES_it
                0x000000004024a240                OCSP_REQUEST_it
                0x000000004024a280                OCSP_REQINFO_it
                0x000000004024a2c0                OCSP_ONEREQ_it
                0x000000004024a300                OCSP_CERTID_it
                0x000000004024a340                OCSP_SIGNATURE_it
                0x000000004024ab40                v3_akey_id
                0x000000004024abc0                v3_key_usage
                0x000000004024ac40                v3_nscert
                0x000000004024acc0                v3_crl_reason
                0x000000004024ad40                EXTENDED_KEY_USAGE_it
                0x000000004024ad80                v3_ocsp_accresp
                0x000000004024ae00                v3_ext_ku
                0x000000004024aec0                v3_ns_ia5_list
                0x000000004024b200                v3_inhibit_anyp
                0x000000004024b280                v3_delta_crl
                0x000000004024b300                v3_crl_num
                0x000000004024b380                CONF_def_version

.rodata.str1.8  0x000000004024b3b0     0x98c0 load address 0x000000000024b3b0
 .rodata.str1.8
                0x000000004024b3b0     0x98c0 output.o
                                       0x9be5 (size before relaxing)

.rodata.str1.1  0x0000000040254c70    0x12cf5 load address 0x0000000000254c70
 .rodata.str1.1
                0x0000000040254c70    0x12cf5 output.o
                                      0x1510d (size before relaxing)

.eh_frame       0x0000000040267968    0x371e8 load address 0x0000000000267968
 .eh_frame      0x0000000040267968    0x371e8 output.o

.eh_frame_hdr   0x000000004029eb50        0x8 load address 0x000000000029eb50
 .eh_frame_hdr  0x000000004029eb50        0x8 output.o

.note.gnu.build-id
                0x000000004029eb58      0x288 load address 0x000000000029eb58
 .note.gnu.build-id
                0x000000004029eb58      0x288 output.o

.rela.dyn       0x000000004029ede0        0x0 load address 0x000000000029ede0
 .rela.iplt     0x0000000000000000        0x0 output.o
 .rela.text     0x0000000000000000        0x0 output.o

.data           0x000000004029f000  0x9837000 load address 0x000000000029f000
                0x000000004029f000                data = .
 *(.data)
 .data          0x000000004029f000   0x9eaa3c output.o
                0x000000004029f020                config
                0x00000000402af190                use_pae
                0x00000000402af3b0                savemsr_index
                0x00000000402b0000                vmm_pml4
                0x00000000402b1000                vmm_pdp
                0x00000000402b2000                vmm_pd
                0x00000000402b3000                vmm_pd1
                0x00000000402b4000                vmm_pd2
                0x00000000402b5000                guest_int0x15_hook
                0x00000000402b501d                guest_int0x15_e801_fake_ax
                0x00000000402b5020                guest_int0x15_e801_fake_bx
                0x00000000402b5031                guest_int0x15_orig
                0x00000000402b5046                guest_int0x15_e820_data_minus0x18
                0x00000000402b504e                guest_int0x15_e820_end
                0x00000000402b5074                guest_int0x15_hook_end
                0x00000000402b6078                wakeup_entry_start
                0x00000000402b6081                wakeup_entry_addr
                0x00000000402b60a7                wakeup_entry_cr4
                0x00000000402b60b0                wakeup_entry_cr3
                0x00000000402b60b9                wakeup_entry_cr0
                0x00000000402b60c8                wakeup_entry_gdtr
                0x00000000402b60d2                wakeup_entry_end
                0x00000000402b60d4                ept_spinlock
                0x00000000402b6160                ata_bm_handler_table
                0x00000000402b61c0                ata_ctlblk_handler_table
                0x00000000402b61e0                ata_cmdblk_handler_table
                0x00000000402b6c70                usb_log_level
                0x00000000402b7600                hSessionCnt
                0x00000000402b7608                hObjectCnt
                0x00000000402b7e00                g_rgSCardT1Pci
                0x00000000402b7e10                g_rgSCardT0Pci
                0x00000000402b7e20                FI
                0x00000000402b7e60                DI
                0x00000000402bc480                default_pctx
                0x00000000402bf720                rand_ssleay_meth
                0x0000000040c89a40                . = ALIGN (0x8)
 *fill*         0x0000000040c89a3c        0x4 
                0x0000000040c89a40                __initfunc_start = .
 *(.initfunc)
 .initfunc      0x0000000040c89a40      0x640 output.o
                0x0000000040c89a40                __initfunc_acpi_init_paral
                0x0000000040c89a50                __initfunc_acpi_init_global
                0x0000000040c89a60                __initfunc_beep_init_msg
                0x0000000040c89a70                __initfunc_cache_init_pass
                0x0000000040c89a80                __initfunc_cache_init_vcpu
                0x0000000040c89a90                __initfunc_cache_init_pcpu
                0x0000000040c89aa0                __initfunc_callrealmode_panic
                0x0000000040c89ab0                __initfunc_callrealmode_init_global
                0x0000000040c89ac0                __initfunc_cpu_mmu_spt_init_pcpu
                0x0000000040c89ad0                __initfunc_cpu_mmu_spt_init_global
                0x0000000040c89ae0                __initfunc_cpuid_init
                0x0000000040c89af0                __initfunc_cpuid_pass_init
                0x0000000040c89b00                __initfunc_exint_pass_init
                0x0000000040c89b10                __initfunc_gmm_pass_init
                0x0000000040c89b20                __initfunc_install_int0x15_hook
                0x0000000040c89b30                __initfunc_idman_init
                0x0000000040c89b40                __initfunc_idman_init_global
                0x0000000040c89b50                __initfunc_int_wakeup
                0x0000000040c89b60                __initfunc_int_init_global
                0x0000000040c89b70                __initfunc_io_io_init
                0x0000000040c89b80                __initfunc_setiohooks
                0x0000000040c89b90                __initfunc_io_iopass_init
                0x0000000040c89ba0                __initfunc_keyboard_init_msg
                0x0000000040c89bb0                __initfunc_localapic_init
                0x0000000040c89bc0                __initfunc_get_shiftflags
                0x0000000040c89bd0                __initfunc_copy_minios
                0x0000000040c89be0                __initfunc_print_boot_msg
                0x0000000040c89bf0                __initfunc_debug_on_shift_key
                0x0000000040c89c00                __initfunc_create_pass_vm
                0x0000000040c89c10                __initfunc_virtualization_init_pcpu
                0x0000000040c89c20                __initfunc_unmap_user_area
                0x0000000040c89c30                __initfunc_mm_init_global
                0x0000000040c89c40                __initfunc_mmio_debug
                0x0000000040c89c50                __initfunc_mmio_init
                0x0000000040c89c60                __initfunc_msg_init_global
                0x0000000040c89c70                __initfunc_msr_init
                0x0000000040c89c80                __initfunc_msr_pass_init
                0x0000000040c89c90                __initfunc_nmi_pass_init_pcpu
                0x0000000040c89ca0                __initfunc_nmi_pass_init
                0x0000000040c89cb0                __initfunc_panic_init_pcpu
                0x0000000040c89cc0                __initfunc_panic_init_msg
                0x0000000040c89cd0                __initfunc_panic_init_global3
                0x0000000040c89ce0                __initfunc_panic_init_global
                0x0000000040c89cf0                __initfunc_printf_init_global
                0x0000000040c89d00                __initfunc_process_wakeup
                0x0000000040c89d10                __initfunc_process_init_ap
                0x0000000040c89d20                __initfunc_process_init_global
                0x0000000040c89d30                __initfunc_random_init_config0
                0x0000000040c89d40                __initfunc_random_init_global
                0x0000000040c89d50                __initfunc_reboot_init_msg
                0x0000000040c89d60                __initfunc_segment_init_global
                0x0000000040c89d70                __initfunc_serial_init_msg
                0x0000000040c89d80                __initfunc_sleep_init_msg
                0x0000000040c89d90                __initfunc_sleep_init_global
                0x0000000040c89da0                __initfunc_svm_panic
                0x0000000040c89db0                __initfunc_sx_init_pass_init
                0x0000000040c89dc0                __initfunc_thread_init_pcpu
                0x0000000040c89dd0                __initfunc_thread_init_global
                0x0000000040c89de0                __initfunc_time_init_msg
                0x0000000040c89df0                __initfunc_time_init_pcpu
                0x0000000040c89e00                __initfunc_time_init_global_status
                0x0000000040c89e10                __initfunc_time_init_global
                0x0000000040c89e20                __initfunc_timer_init_global
                0x0000000040c89e30                __initfunc_tty_init_msg
                0x0000000040c89e40                __initfunc_tty_init_global2
                0x0000000040c89e50                __initfunc_tty_init_global
                0x0000000040c89e60                __initfunc_vcpu_init_global
                0x0000000040c89e70                __initfunc_vga_init
                0x0000000040c89e80                __initfunc_vmmcall_init
                0x0000000040c89e90                __initfunc_vmmcall_boot_init
                0x0000000040c89ea0                __initfunc_vmmcall_dbgsh_init_pcpu
                0x0000000040c89eb0                __initfunc_vmmcall_dbgsh_init_global
                0x0000000040c89ec0                __initfunc_vmmcall_dbgsh_init
                0x0000000040c89ed0                __initfunc_vmmcall_iccard_init
                0x0000000040c89ee0                __initfunc_vmmcall_log_init
                0x0000000040c89ef0                __initfunc_vmmcall_status_init
                0x0000000040c89f00                __initfunc_vmmcall_status_init_global
                0x0000000040c89f10                __initfunc_vramwrite_init_bsp
                0x0000000040c89f20                __initfunc_vramwrite_init_msg
                0x0000000040c89f30                __initfunc_vt_register_status_callback
                0x0000000040c89f40                __initfunc_vt_panic
                0x0000000040c89f50                __initfunc_xsetbv_init
                0x0000000040c89f60                __initfunc_xsetbv_pass_init
                0x0000000040c89f70                __initfunc_core_init
                0x0000000040c89f80                __initfunc_ieee1394_init_boot
                0x0000000040c89f90                __initfunc_ieee1394_init
                0x0000000040c89fa0                __initfunc_iommu_setup
                0x0000000040c89fb0                __initfunc_pci_init
                0x0000000040c89fc0                __initfunc_debug_ata_init
                0x0000000040c89fd0                __initfunc_ata_init
                0x0000000040c89fe0                __initfunc_uhci_init
                0x0000000040c89ff0                __initfunc_ehci_init
                0x0000000040c8a000                __initfunc_pro100_init
                0x0000000040c8a010                __initfunc_suspend_pro1000
                0x0000000040c8a020                __initfunc_resume_pro1000
                0x0000000040c8a030                __initfunc_vpn_pro1000_init
                0x0000000040c8a040                __initfunc_storage_kernel_init
                0x0000000040c8a050                __initfunc_storage_io_initfunc
                0x0000000040c8a060                __initfunc_vpn_kernel_init
                0x0000000040c8a070                __initfunc_idman_kernel_init
                0x0000000040c8a080                __initfunc_end = .
                0x0000000040c8a080                __process_builtin = .
 *(.processes)
 .processes     0x0000000040c8a080      0x1a0 output.o
                0x0000000040c8a220                __process_builtin_end = .
                0x0000000040c8a220                bss = .
 *(.bss)
 .bss           0x0000000040c8a220  0x8e4a7e0 output.o
                0x0000000040c8da40                vmmsize
                0x0000000040c8da48                memorysize
                0x00000000411914e0                pcpu_default
                0x00000000411aed04                ps2_locked
                0x00000000411af1a8                protecting
                0x00000000411af1b0                syscallHandlerAddress
                0x00000000411af1c0                currentProtectedApplication
                0x00000000411af1c8                numberOfVMs
                0x00000000411af1d0                numberOfProtectedApplications
                0x00000000411af1d8                currentRunningApplication
                0x00000000499af920                syscall_metatata_table
                0x00000000499af940                handler_descriptor
                0x00000000499afb48                drhd_list_head
                0x00000000499b1380                pci_driver_list_head
                0x00000000499b1388                pci_device_list_head
                0x00000000499b1530                uhci_monitor_boost_hc
                0x00000000499b1548                usb_hc_list_head
                0x00000000499b1550                usb_busses_head
                0x00000000499b8e48                rt
                0x0000000049ad2870                hContext
                0x0000000049ad2878                sessionTable
                0x0000000049ad2880                slotTable
                0x0000000049ad2888                slotFlag
                0x0000000049ad2889                libInitFlag
                0x0000000049ad34e0                OPENSSL_NONPIC_relocated
                0x0000000049ad34e8                OPENSSL_ia32cap_P
                0x0000000049ad4128                cleanse_ctr
                0x0000000049ad4188                obj_cleanup_defer
                0x0000000049ad41a8                _shadow_DES_check_key
                0x0000000049ad42a8                app_pkey_methods
                0x0000000049ad4300                chelp_inited
 *(COMMON)
 COMMON         0x0000000049ad4a00     0x12e4 output.o
                0x0000000049ad4a00                clflush_size
                0x0000000049ad4a20                sReaderContext
                0x0000000049ad4a80                sigx_app
                0x0000000049ad4a88                d
                0x0000000049ad4a90                c
                0x0000000049ad4a98                a
                0x0000000049ad4aa0                b
                0x0000000049ad4aa8                num_dom
                0x0000000049ad4ac0                mszReaders
                0x0000000049ad4ec0                zero_page_pool
                0x0000000049ad52c0                prohibit_iccard_init
                0x0000000049ad52c8                curthread
                0x0000000049ad52d0                sig_app
                0x0000000049ad52e0                readerState
                0x0000000049ad5360                dom_io
                0x0000000049ad5b60                acpi_dsdt_system_state
                0x0000000049ad5b80                ehci_host
                0x0000000049ad5b88                num_of_processors
                0x0000000049ad5b8c                e801_fake_bx
                0x0000000049ad5b8e                iommu_detected
                0x0000000049ad5b90                dwReaders
                0x0000000049ad5ba0                readerTracker
                0x0000000049ad5ce0                handler_descriptor_lock
                0x0000000049ad5ce2                e801_fake_ax
                0x0000000049ad6000                . = ALIGN (0x1000)
 *fill*         0x0000000049ad5ce4      0x31c 

.igot.plt       0x0000000049ad6000        0x0 load address 0x0000000009ad6000
 .igot.plt      0x0000000000000000        0x0 output.o
                0x0000000049ad6000                . = ALIGN (0x1000)
                0x0000000049ad6000                PAGE_POOL_START = .
                0x0000000049ed6000                . = (PAGE_POOL_START + 0x400000)
                0x0000000049ed6000                end = .

/DISCARD/
 *(.gomi)
LOAD output.o
OUTPUT(bitvisor.elf elf64-x86-64)

.comment        0x0000000000000000       0x55
 .comment       0x0000000000000000       0x55 output.o
                                       0x5e74 (size before relaxing)

.note.GNU-stack
                0x0000000000000000        0x0
 .note.GNU-stack
                0x0000000000000000        0x0 output.o

.debug_aranges  0x0000000000000000     0x6a80
 .debug_aranges
                0x0000000000000000     0x6a80 output.o

.debug_info     0x0000000000000000   0x2c6b0f
 .debug_info    0x0000000000000000   0x2c6b0f output.o

.debug_abbrev   0x0000000000000000    0x49adc
 .debug_abbrev  0x0000000000000000    0x49adc output.o

.debug_line     0x0000000000000000    0x4e797
 .debug_line    0x0000000000000000    0x4e797 output.o

.debug_str      0x0000000000000000    0x370f7
 .debug_str     0x0000000000000000    0x370f7 output.o
                                     0x131761 (size before relaxing)

.debug_loc      0x0000000000000000   0x244d8b
 .debug_loc     0x0000000000000000   0x244d8b output.o

.debug_ranges   0x0000000000000000     0x6360
 .debug_ranges  0x0000000000000000     0x6360 output.o

Cross Reference Table

Symbol                                            File
ACCESS_DESCRIPTION_free                           output.o
ACCESS_DESCRIPTION_it                             output.o
ACCESS_DESCRIPTION_new                            output.o
AES_cbc_encrypt                                   output.o
AES_cfb128_encrypt                                output.o
AES_cfb1_encrypt                                  output.o
AES_cfb8_encrypt                                  output.o
AES_decrypt                                       output.o
AES_ecb_encrypt                                   output.o
AES_encrypt                                       output.o
AES_ofb128_encrypt                                output.o
AES_set_decrypt_key                               output.o
AES_set_encrypt_key                               output.o
AES_unwrap_key                                    output.o
AES_wrap_key                                      output.o
ASN1_ANY_it                                       output.o
ASN1_BIT_STRING_check                             output.o
ASN1_BIT_STRING_free                              output.o
ASN1_BIT_STRING_get_bit                           output.o
ASN1_BIT_STRING_it                                output.o
ASN1_BIT_STRING_new                               output.o
ASN1_BIT_STRING_set                               output.o
ASN1_BIT_STRING_set_bit                           output.o
ASN1_BMPSTRING_free                               output.o
ASN1_BMPSTRING_it                                 output.o
ASN1_BMPSTRING_new                                output.o
ASN1_BOOLEAN_it                                   output.o
ASN1_ENUMERATED_free                              output.o
ASN1_ENUMERATED_get                               output.o
ASN1_ENUMERATED_it                                output.o
ASN1_ENUMERATED_new                               output.o
ASN1_ENUMERATED_set                               output.o
ASN1_ENUMERATED_to_BN                             output.o
ASN1_FBOOLEAN_it                                  output.o
ASN1_GENERALIZEDTIME_adj                          output.o
ASN1_GENERALIZEDTIME_check                        output.o
ASN1_GENERALIZEDTIME_free                         output.o
ASN1_GENERALIZEDTIME_it                           output.o
ASN1_GENERALIZEDTIME_new                          output.o
ASN1_GENERALIZEDTIME_print                        output.o
ASN1_GENERALIZEDTIME_set                          output.o
ASN1_GENERALIZEDTIME_set_string                   output.o
ASN1_GENERALSTRING_free                           output.o
ASN1_GENERALSTRING_it                             output.o
ASN1_GENERALSTRING_new                            output.o
ASN1_IA5STRING_free                               output.o
ASN1_IA5STRING_it                                 output.o
ASN1_IA5STRING_new                                output.o
ASN1_INTEGER_cmp                                  output.o
ASN1_INTEGER_dup                                  output.o
ASN1_INTEGER_free                                 output.o
ASN1_INTEGER_get                                  output.o
ASN1_INTEGER_it                                   output.o
ASN1_INTEGER_new                                  output.o
ASN1_INTEGER_set                                  output.o
ASN1_INTEGER_to_BN                                output.o
ASN1_NULL_free                                    output.o
ASN1_NULL_it                                      output.o
ASN1_NULL_new                                     output.o
ASN1_OBJECT_create                                output.o
ASN1_OBJECT_free                                  output.o
ASN1_OBJECT_it                                    output.o
ASN1_OBJECT_new                                   output.o
ASN1_OCTET_STRING_NDEF_it                         output.o
ASN1_OCTET_STRING_cmp                             output.o
ASN1_OCTET_STRING_dup                             output.o
ASN1_OCTET_STRING_free                            output.o
ASN1_OCTET_STRING_it                              output.o
ASN1_OCTET_STRING_new                             output.o
ASN1_OCTET_STRING_set                             output.o
ASN1_PCTX_free                                    output.o
ASN1_PCTX_get_cert_flags                          output.o
ASN1_PCTX_get_flags                               output.o
ASN1_PCTX_get_nm_flags                            output.o
ASN1_PCTX_get_oid_flags                           output.o
ASN1_PCTX_get_str_flags                           output.o
ASN1_PCTX_new                                     output.o
ASN1_PCTX_set_cert_flags                          output.o
ASN1_PCTX_set_flags                               output.o
ASN1_PCTX_set_nm_flags                            output.o
ASN1_PCTX_set_oid_flags                           output.o
ASN1_PCTX_set_str_flags                           output.o
ASN1_PRINTABLESTRING_free                         output.o
ASN1_PRINTABLESTRING_it                           output.o
ASN1_PRINTABLESTRING_new                          output.o
ASN1_PRINTABLE_free                               output.o
ASN1_PRINTABLE_it                                 output.o
ASN1_PRINTABLE_new                                output.o
ASN1_PRINTABLE_type                               output.o
ASN1_SEQUENCE_ANY_it                              output.o
ASN1_SEQUENCE_it                                  output.o
ASN1_SET_ANY_it                                   output.o
ASN1_STRING_TABLE_add                             output.o
ASN1_STRING_TABLE_cleanup                         output.o
ASN1_STRING_TABLE_get                             output.o
ASN1_STRING_cmp                                   output.o
ASN1_STRING_copy                                  output.o
ASN1_STRING_data                                  output.o
ASN1_STRING_dup                                   output.o
ASN1_STRING_free                                  output.o
ASN1_STRING_get_default_mask                      output.o
ASN1_STRING_length                                output.o
ASN1_STRING_length_set                            output.o
ASN1_STRING_new                                   output.o
ASN1_STRING_print                                 output.o
ASN1_STRING_print_ex                              output.o
ASN1_STRING_set                                   output.o
ASN1_STRING_set0                                  output.o
ASN1_STRING_set_by_NID                            output.o
ASN1_STRING_set_default_mask                      output.o
ASN1_STRING_set_default_mask_asc                  output.o
ASN1_STRING_to_UTF8                               output.o
ASN1_STRING_type                                  output.o
ASN1_STRING_type_new                              output.o
ASN1_T61STRING_free                               output.o
ASN1_T61STRING_it                                 output.o
ASN1_T61STRING_new                                output.o
ASN1_TBOOLEAN_it                                  output.o
ASN1_TIME_adj                                     output.o
ASN1_TIME_check                                   output.o
ASN1_TIME_free                                    output.o
ASN1_TIME_it                                      output.o
ASN1_TIME_new                                     output.o
ASN1_TIME_print                                   output.o
ASN1_TIME_set                                     output.o
ASN1_TIME_set_string                              output.o
ASN1_TIME_to_generalizedtime                      output.o
ASN1_TYPE_cmp                                     output.o
ASN1_TYPE_free                                    output.o
ASN1_TYPE_get                                     output.o
ASN1_TYPE_get_int_octetstring                     output.o
ASN1_TYPE_get_octetstring                         output.o
ASN1_TYPE_new                                     output.o
ASN1_TYPE_set                                     output.o
ASN1_TYPE_set1                                    output.o
ASN1_TYPE_set_int_octetstring                     output.o
ASN1_TYPE_set_octetstring                         output.o
ASN1_UNIVERSALSTRING_free                         output.o
ASN1_UNIVERSALSTRING_it                           output.o
ASN1_UNIVERSALSTRING_new                          output.o
ASN1_UNIVERSALSTRING_to_string                    output.o
ASN1_UTCTIME_adj                                  output.o
ASN1_UTCTIME_check                                output.o
ASN1_UTCTIME_cmp_time_t                           output.o
ASN1_UTCTIME_free                                 output.o
ASN1_UTCTIME_it                                   output.o
ASN1_UTCTIME_new                                  output.o
ASN1_UTCTIME_print                                output.o
ASN1_UTCTIME_set                                  output.o
ASN1_UTCTIME_set_string                           output.o
ASN1_UTF8STRING_free                              output.o
ASN1_UTF8STRING_it                                output.o
ASN1_UTF8STRING_new                               output.o
ASN1_VISIBLESTRING_free                           output.o
ASN1_VISIBLESTRING_it                             output.o
ASN1_VISIBLESTRING_new                            output.o
ASN1_bn_print                                     output.o
ASN1_check_infinite_end                           output.o
ASN1_const_check_infinite_end                     output.o
ASN1_d2i_bio                                      output.o
ASN1_digest                                       output.o
ASN1_dup                                          output.o
ASN1_generate_nconf                               output.o
ASN1_generate_v3                                  output.o
ASN1_get_object                                   output.o
ASN1_i2d_bio                                      output.o
ASN1_item_d2i                                     output.o
ASN1_item_d2i_bio                                 output.o
ASN1_item_digest                                  output.o
ASN1_item_dup                                     output.o
ASN1_item_ex_d2i                                  output.o
ASN1_item_ex_free                                 output.o
ASN1_item_ex_i2d                                  output.o
ASN1_item_ex_new                                  output.o
ASN1_item_free                                    output.o
ASN1_item_i2d                                     output.o
ASN1_item_i2d_bio                                 output.o
ASN1_item_ndef_i2d                                output.o
ASN1_item_new                                     output.o
ASN1_item_pack                                    output.o
ASN1_item_print                                   output.o
ASN1_item_sign                                    output.o
ASN1_item_unpack                                  output.o
ASN1_item_verify                                  output.o
ASN1_mbstring_copy                                output.o
ASN1_mbstring_ncopy                               output.o
ASN1_object_size                                  output.o
ASN1_pack_string                                  output.o
ASN1_parse                                        output.o
ASN1_parse_dump                                   output.o
ASN1_primitive_free                               output.o
ASN1_primitive_new                                output.o
ASN1_put_eoc                                      output.o
ASN1_put_object                                   output.o
ASN1_seq_pack                                     output.o
ASN1_seq_unpack                                   output.o
ASN1_sign                                         output.o
ASN1_tag2bit                                      output.o
ASN1_tag2str                                      output.o
ASN1_template_d2i                                 output.o
ASN1_template_free                                output.o
ASN1_template_i2d                                 output.o
ASN1_template_new                                 output.o
ASN1_unpack_string                                output.o
ASN1_verify                                       output.o
ASN1_version                                      output.o
AUTHORITY_INFO_ACCESS_free                        output.o
AUTHORITY_INFO_ACCESS_it                          output.o
AUTHORITY_INFO_ACCESS_new                         output.o
AUTHORITY_KEYID_free                              output.o
AUTHORITY_KEYID_it                                output.o
AUTHORITY_KEYID_new                               output.o
AddCertDataByBuf                                  output.o
AddElem                                           output.o
AddIdPassDataByBuf                                output.o
AddObjTblByTlv                                    output.o
BASIC_CONSTRAINTS_free                            output.o
BASIC_CONSTRAINTS_it                              output.o
BASIC_CONSTRAINTS_new                             output.o
BF_cbc_encrypt                                    output.o
BF_cfb64_encrypt                                  output.o
BF_decrypt                                        output.o
BF_ecb_encrypt                                    output.o
BF_encrypt                                        output.o
BF_ofb64_encrypt                                  output.o
BF_options                                        output.o
BF_set_key                                        output.o
BF_version                                        output.o
BIGNUM_it                                         output.o
BIO_asn1_get_prefix                               output.o
BIO_asn1_get_suffix                               output.o
BIO_asn1_set_prefix                               output.o
BIO_asn1_set_suffix                               output.o
BIO_callback_ctrl                                 output.o
BIO_clear_flags                                   output.o
BIO_copy_next_retry                               output.o
BIO_ctrl                                          output.o
BIO_ctrl_pending                                  output.o
BIO_ctrl_wpending                                 output.o
BIO_dump                                          output.o
BIO_dump_cb                                       output.o
BIO_dump_indent                                   output.o
BIO_dump_indent_cb                                output.o
BIO_dup_chain                                     output.o
BIO_f_asn1                                        output.o
BIO_f_base64                                      output.o
BIO_f_buffer                                      output.o
BIO_f_cipher                                      output.o
BIO_f_md                                          output.o
BIO_find_type                                     output.o
BIO_free                                          output.o
BIO_free_all                                      output.o
BIO_get_callback                                  output.o
BIO_get_callback_arg                              output.o
BIO_get_ex_data                                   output.o
BIO_get_ex_new_index                              output.o
BIO_get_retry_BIO                                 output.o
BIO_get_retry_reason                              output.o
BIO_gets                                          output.o
BIO_indent                                        output.o
BIO_int_ctrl                                      output.o
BIO_method_name                                   output.o
BIO_method_type                                   output.o
BIO_new                                           output.o
BIO_new_CMS                                       output.o
BIO_new_NDEF                                      output.o
BIO_new_mem_buf                                   output.o
BIO_next                                          output.o
BIO_number_read                                   output.o
BIO_number_written                                output.o
BIO_pop                                           output.o
BIO_printf                                        output.o
BIO_ptr_ctrl                                      output.o
BIO_push                                          output.o
BIO_puts                                          output.o
BIO_read                                          output.o
BIO_s_mem                                         output.o
BIO_s_null                                        output.o
BIO_set                                           output.o
BIO_set_callback                                  output.o
BIO_set_callback_arg                              output.o
BIO_set_cipher                                    output.o
BIO_set_ex_data                                   output.o
BIO_set_flags                                     output.o
BIO_snprintf                                      output.o
BIO_test_flags                                    output.o
BIO_vfree                                         output.o
BIO_write                                         output.o
BN_BLINDING_convert                               output.o
BN_BLINDING_convert_ex                            output.o
BN_BLINDING_create_param                          output.o
BN_BLINDING_free                                  output.o
BN_BLINDING_get_flags                             output.o
BN_BLINDING_get_thread_id                         output.o
BN_BLINDING_invert                                output.o
BN_BLINDING_invert_ex                             output.o
BN_BLINDING_new                                   output.o
BN_BLINDING_set_flags                             output.o
BN_BLINDING_set_thread_id                         output.o
BN_BLINDING_thread_id                             output.o
BN_BLINDING_update                                output.o
BN_CTX_end                                        output.o
BN_CTX_free                                       output.o
BN_CTX_get                                        output.o
BN_CTX_init                                       output.o
BN_CTX_new                                        output.o
BN_CTX_start                                      output.o
BN_GENCB_call                                     output.o
BN_GF2m_add                                       output.o
BN_GF2m_arr2poly                                  output.o
BN_GF2m_mod                                       output.o
BN_GF2m_mod_arr                                   output.o
BN_GF2m_mod_div                                   output.o
BN_GF2m_mod_div_arr                               output.o
BN_GF2m_mod_exp                                   output.o
BN_GF2m_mod_exp_arr                               output.o
BN_GF2m_mod_inv                                   output.o
BN_GF2m_mod_inv_arr                               output.o
BN_GF2m_mod_mul                                   output.o
BN_GF2m_mod_mul_arr                               output.o
BN_GF2m_mod_solve_quad                            output.o
BN_GF2m_mod_solve_quad_arr                        output.o
BN_GF2m_mod_sqr                                   output.o
BN_GF2m_mod_sqr_arr                               output.o
BN_GF2m_mod_sqrt                                  output.o
BN_GF2m_mod_sqrt_arr                              output.o
BN_GF2m_poly2arr                                  output.o
BN_MONT_CTX_copy                                  output.o
BN_MONT_CTX_free                                  output.o
BN_MONT_CTX_init                                  output.o
BN_MONT_CTX_new                                   output.o
BN_MONT_CTX_set                                   output.o
BN_MONT_CTX_set_locked                            output.o
BN_RECP_CTX_free                                  output.o
BN_RECP_CTX_init                                  output.o
BN_RECP_CTX_new                                   output.o
BN_RECP_CTX_set                                   output.o
BN_add                                            output.o
BN_add_word                                       output.o
BN_asc2bn                                         output.o
BN_bin2bn                                         output.o
BN_bn2bin                                         output.o
BN_bn2dec                                         output.o
BN_bn2hex                                         output.o
BN_bntest_rand                                    output.o
BN_clear                                          output.o
BN_clear_bit                                      output.o
BN_clear_free                                     output.o
BN_cmp                                            output.o
BN_copy                                           output.o
BN_dec2bn                                         output.o
BN_div                                            output.o
BN_div_recp                                       output.o
BN_div_word                                       output.o
BN_dup                                            output.o
BN_exp                                            output.o
BN_free                                           output.o
BN_from_montgomery                                output.o
BN_gcd                                            output.o
BN_generate_prime_ex                              output.o
BN_get0_nist_prime_192                            output.o
BN_get0_nist_prime_224                            output.o
BN_get0_nist_prime_256                            output.o
BN_get0_nist_prime_384                            output.o
BN_get0_nist_prime_521                            output.o
BN_get_params                                     output.o
BN_get_word                                       output.o
BN_hex2bn                                         output.o
BN_init                                           output.o
BN_is_bit_set                                     output.o
BN_is_prime_ex                                    output.o
BN_is_prime_fasttest_ex                           output.o
BN_kronecker                                      output.o
BN_lshift                                         output.o
BN_lshift1                                        output.o
BN_mask_bits                                      output.o
BN_mod_add                                        output.o
BN_mod_add_quick                                  output.o
BN_mod_exp                                        output.o
BN_mod_exp2_mont                                  output.o
BN_mod_exp_mont                                   output.o
BN_mod_exp_mont_consttime                         output.o
BN_mod_exp_mont_word                              output.o
BN_mod_exp_recp                                   output.o
BN_mod_exp_simple                                 output.o
BN_mod_inverse                                    output.o
BN_mod_lshift                                     output.o
BN_mod_lshift1                                    output.o
BN_mod_lshift1_quick                              output.o
BN_mod_lshift_quick                               output.o
BN_mod_mul                                        output.o
BN_mod_mul_montgomery                             output.o
BN_mod_mul_reciprocal                             output.o
BN_mod_sqr                                        output.o
BN_mod_sqrt                                       output.o
BN_mod_sub                                        output.o
BN_mod_sub_quick                                  output.o
BN_mod_word                                       output.o
BN_mul                                            output.o
BN_mul_word                                       output.o
BN_new                                            output.o
BN_nist_mod_192                                   output.o
BN_nist_mod_224                                   output.o
BN_nist_mod_256                                   output.o
BN_nist_mod_384                                   output.o
BN_nist_mod_521                                   output.o
BN_nnmod                                          output.o
BN_num_bits                                       output.o
BN_num_bits_word                                  output.o
BN_options                                        output.o
BN_print                                          output.o
BN_pseudo_rand                                    output.o
BN_pseudo_rand_range                              output.o
BN_rand                                           output.o
BN_rand_range                                     output.o
BN_reciprocal                                     output.o
BN_rshift                                         output.o
BN_rshift1                                        output.o
BN_set_bit                                        output.o
BN_set_negative                                   output.o
BN_set_params                                     output.o
BN_set_word                                       output.o
BN_sqr                                            output.o
BN_sub                                            output.o
BN_sub_word                                       output.o
BN_swap                                           output.o
BN_to_ASN1_ENUMERATED                             output.o
BN_to_ASN1_INTEGER                                output.o
BN_uadd                                           output.o
BN_ucmp                                           output.o
BN_usub                                           output.o
BN_value_one                                      output.o
BN_version                                        output.o
BUF_MEM_free                                      output.o
BUF_MEM_grow                                      output.o
BUF_MEM_grow_clean                                output.o
BUF_MEM_new                                       output.o
BUF_memdup                                        output.o
BUF_reverse                                       output.o
BUF_strdup                                        output.o
BUF_strlcat                                       output.o
BUF_strlcpy                                       output.o
BUF_strndup                                       output.o
BlockSendCardT1                                   output.o
CAST_S_table0                                     output.o
CAST_S_table1                                     output.o
CAST_S_table2                                     output.o
CAST_S_table3                                     output.o
CAST_S_table4                                     output.o
CAST_S_table5                                     output.o
CAST_S_table6                                     output.o
CAST_S_table7                                     output.o
CAST_cbc_encrypt                                  output.o
CAST_cfb64_encrypt                                output.o
CAST_decrypt                                      output.o
CAST_ecb_encrypt                                  output.o
CAST_encrypt                                      output.o
CAST_ofb64_encrypt                                output.o
CAST_set_key                                      output.o
CAST_version                                      output.o
CBIGNUM_it                                        output.o
CERTIFICATEPOLICIES_free                          output.o
CERTIFICATEPOLICIES_it                            output.o
CERTIFICATEPOLICIES_new                           output.o
CMS_Attributes_Sign_it                            output.o
CMS_Attributes_Verify_it                          output.o
CMS_AuthenticatedData_it                          output.o
CMS_CertificateChoices_it                         output.o
CMS_CompressedData_it                             output.o
CMS_ContentInfo_free                              output.o
CMS_ContentInfo_it                                output.o
CMS_ContentInfo_new                               output.o
CMS_ContentInfo_print_ctx                         output.o
CMS_DigestedData_it                               output.o
CMS_EncapsulatedContentInfo_it                    output.o
CMS_EncryptedContentInfo_it                       output.o
CMS_EncryptedData_it                              output.o
CMS_EncryptedData_set1_key                        output.o
CMS_EnvelopedData_create                          output.o
CMS_EnvelopedData_it                              output.o
CMS_IssuerAndSerialNumber_it                      output.o
CMS_KEKIdentifier_it                              output.o
CMS_KEKRecipientInfo_it                           output.o
CMS_KeyAgreeRecipientIdentifier_it                output.o
CMS_KeyAgreeRecipientInfo_it                      output.o
CMS_KeyTransRecipientInfo_it                      output.o
CMS_OriginatorIdentifierOrKey_it                  output.o
CMS_OriginatorInfo_it                             output.o
CMS_OriginatorPublicKey_it                        output.o
CMS_OtherCertificateFormat_it                     output.o
CMS_OtherKeyAttribute_it                          output.o
CMS_OtherRecipientInfo_it                         output.o
CMS_OtherRevocationInfoFormat_it                  output.o
CMS_PasswordRecipientInfo_it                      output.o
CMS_ReceiptRequest_it                             output.o
CMS_Receipt_it                                    output.o
CMS_ReceiptsFrom_it                               output.o
CMS_RecipientEncryptedKey_it                      output.o
CMS_RecipientInfo_decrypt                         output.o
CMS_RecipientInfo_it                              output.o
CMS_RecipientInfo_kekri_get0_id                   output.o
CMS_RecipientInfo_kekri_id_cmp                    output.o
CMS_RecipientInfo_ktri_cert_cmp                   output.o
CMS_RecipientInfo_ktri_get0_algs                  output.o
CMS_RecipientInfo_ktri_get0_signer_id             output.o
CMS_RecipientInfo_set0_key                        output.o
CMS_RecipientInfo_set0_pkey                       output.o
CMS_RecipientInfo_type                            output.o
CMS_RecipientKeyIdentifier_it                     output.o
CMS_RevocationInfoChoice_it                       output.o
CMS_SignedData_init                               output.o
CMS_SignedData_it                                 output.o
CMS_SignerIdentifier_it                           output.o
CMS_SignerInfo_cert_cmp                           output.o
CMS_SignerInfo_get0_algs                          output.o
CMS_SignerInfo_get0_signer_id                     output.o
CMS_SignerInfo_it                                 output.o
CMS_SignerInfo_set1_signer_cert                   output.o
CMS_SignerInfo_sign                               output.o
CMS_SignerInfo_verify                             output.o
CMS_SignerInfo_verify_content                     output.o
CMS_add0_CertificateChoices                       output.o
CMS_add0_RevocationInfoChoice                     output.o
CMS_add0_cert                                     output.o
CMS_add0_crl                                      output.o
CMS_add0_recipient_key                            output.o
CMS_add1_cert                                     output.o
CMS_add1_crl                                      output.o
CMS_add1_recipient_cert                           output.o
CMS_add1_signer                                   output.o
CMS_add_simple_smimecap                           output.o
CMS_add_smimecap                                  output.o
CMS_add_standard_smimecap                         output.o
CMS_dataFinal                                     output.o
CMS_dataInit                                      output.o
CMS_get0_RecipientInfos                           output.o
CMS_get0_SignerInfos                              output.o
CMS_get0_content                                  output.o
CMS_get0_eContentType                             output.o
CMS_get0_signers                                  output.o
CMS_get0_type                                     output.o
CMS_get1_certs                                    output.o
CMS_get1_crls                                     output.o
CMS_is_detached                                   output.o
CMS_set1_eContentType                             output.o
CMS_set1_signers_certs                            output.o
CMS_set_detached                                  output.o
CMS_signed_add1_attr                              output.o
CMS_signed_add1_attr_by_NID                       output.o
CMS_signed_add1_attr_by_OBJ                       output.o
CMS_signed_add1_attr_by_txt                       output.o
CMS_signed_delete_attr                            output.o
CMS_signed_get0_data_by_OBJ                       output.o
CMS_signed_get_attr                               output.o
CMS_signed_get_attr_by_NID                        output.o
CMS_signed_get_attr_by_OBJ                        output.o
CMS_signed_get_attr_count                         output.o
CMS_stream                                        output.o
CMS_unsigned_add1_attr                            output.o
CMS_unsigned_add1_attr_by_NID                     output.o
CMS_unsigned_add1_attr_by_OBJ                     output.o
CMS_unsigned_add1_attr_by_txt                     output.o
CMS_unsigned_delete_attr                          output.o
CMS_unsigned_get0_data_by_OBJ                     output.o
CMS_unsigned_get_attr                             output.o
CMS_unsigned_get_attr_by_NID                      output.o
CMS_unsigned_get_attr_by_OBJ                      output.o
CMS_unsigned_get_attr_count                       output.o
CONF_def_version                                  output.o
CONF_dump_bio                                     output.o
CONF_free                                         output.o
CONF_get1_default_config_file                     output.o
CONF_get_number                                   output.o
CONF_get_section                                  output.o
CONF_get_string                                   output.o
CONF_imodule_get_flags                            output.o
CONF_imodule_get_module                           output.o
CONF_imodule_get_name                             output.o
CONF_imodule_get_usr_data                         output.o
CONF_imodule_get_value                            output.o
CONF_imodule_set_flags                            output.o
CONF_imodule_set_usr_data                         output.o
CONF_load                                         output.o
CONF_load_bio                                     output.o
CONF_module_add                                   output.o
CONF_module_get_usr_data                          output.o
CONF_module_set_usr_data                          output.o
CONF_modules_finish                               output.o
CONF_modules_free                                 output.o
CONF_modules_load                                 output.o
CONF_modules_load_file                            output.o
CONF_modules_unload                               output.o
CONF_parse_list                                   output.o
CONF_set_default_method                           output.o
CONF_set_nconf                                    output.o
CONF_version                                      output.o
CRL_DIST_POINTS_free                              output.o
CRL_DIST_POINTS_it                                output.o
CRL_DIST_POINTS_new                               output.o
CRYPTO_THREADID_cmp                               output.o
CRYPTO_THREADID_cpy                               output.o
CRYPTO_THREADID_current                           output.o
CRYPTO_THREADID_get_callback                      output.o
CRYPTO_THREADID_hash                              output.o
CRYPTO_THREADID_set_callback                      output.o
CRYPTO_THREADID_set_numeric                       output.o
CRYPTO_THREADID_set_pointer                       output.o
CRYPTO_add_lock                                   output.o
CRYPTO_cbc128_decrypt                             output.o
CRYPTO_cbc128_encrypt                             output.o
CRYPTO_cfb128_1_encrypt                           output.o
CRYPTO_cfb128_8_encrypt                           output.o
CRYPTO_cfb128_encrypt                             output.o
CRYPTO_cleanup_all_ex_data                        output.o
CRYPTO_dbg_free                                   output.o
CRYPTO_dbg_get_options                            output.o
CRYPTO_dbg_malloc                                 output.o
CRYPTO_dbg_realloc                                output.o
CRYPTO_dbg_set_options                            output.o
CRYPTO_destroy_dynlockid                          output.o
CRYPTO_dup_ex_data                                output.o
CRYPTO_ex_data_new_class                          output.o
CRYPTO_free                                       output.o
CRYPTO_free_ex_data                               output.o
CRYPTO_free_locked                                output.o
CRYPTO_get_add_lock_callback                      output.o
CRYPTO_get_dynlock_create_callback                output.o
CRYPTO_get_dynlock_destroy_callback               output.o
CRYPTO_get_dynlock_lock_callback                  output.o
CRYPTO_get_dynlock_value                          output.o
CRYPTO_get_ex_data                                output.o
CRYPTO_get_ex_data_implementation                 output.o
CRYPTO_get_ex_new_index                           output.o
CRYPTO_get_id_callback                            output.o
CRYPTO_get_lock_name                              output.o
CRYPTO_get_locked_mem_ex_functions                output.o
CRYPTO_get_locked_mem_functions                   output.o
CRYPTO_get_locking_callback                       output.o
CRYPTO_get_mem_debug_functions                    output.o
CRYPTO_get_mem_debug_options                      output.o
CRYPTO_get_mem_ex_functions                       output.o
CRYPTO_get_mem_functions                          output.o
CRYPTO_get_new_dynlockid                          output.o
CRYPTO_get_new_lockid                             output.o
CRYPTO_is_mem_check_on                            output.o
CRYPTO_lock                                       output.o
CRYPTO_malloc                                     output.o
CRYPTO_malloc_locked                              output.o
CRYPTO_mem_ctrl                                   output.o
CRYPTO_mem_leaks                                  output.o
CRYPTO_mem_leaks_cb                               output.o
CRYPTO_new_ex_data                                output.o
CRYPTO_num_locks                                  output.o
CRYPTO_ofb128_encrypt                             output.o
CRYPTO_pop_info                                   output.o
CRYPTO_push_info_                                 output.o
CRYPTO_realloc                                    output.o
CRYPTO_realloc_clean                              output.o
CRYPTO_remalloc                                   output.o
CRYPTO_remove_all_info                            output.o
CRYPTO_set_add_lock_callback                      output.o
CRYPTO_set_dynlock_create_callback                output.o
CRYPTO_set_dynlock_destroy_callback               output.o
CRYPTO_set_dynlock_lock_callback                  output.o
CRYPTO_set_ex_data                                output.o
CRYPTO_set_ex_data_implementation                 output.o
CRYPTO_set_id_callback                            output.o
CRYPTO_set_locked_mem_ex_functions                output.o
CRYPTO_set_locked_mem_functions                   output.o
CRYPTO_set_locking_callback                       output.o
CRYPTO_set_mem_debug_functions                    output.o
CRYPTO_set_mem_debug_options                      output.o
CRYPTO_set_mem_ex_functions                       output.o
CRYPTO_set_mem_functions                          output.o
CRYPTO_strdup                                     output.o
CRYPTO_thread_id                                  output.o
C_CloseAllSessions                                output.o
C_CloseSession                                    output.o
C_CreateObject                                    output.o
C_DestroyObject                                   output.o
C_DigestFinal                                     output.o
C_DigestInit                                      output.o
C_DigestUpdate                                    output.o
C_Finalize                                        output.o
C_FindObjects                                     output.o
C_FindObjectsFinal                                output.o
C_FindObjectsInit                                 output.o
C_GetAttributeValue                               output.o
C_GetCardStatus                                   output.o
C_GetFunctionList                                 output.o
C_GetInfo                                         output.o
C_GetMechanismInfo                                output.o
C_GetMechanismList                                output.o
C_GetSessionInfo                                  output.o
C_GetSlotInfo                                     output.o
C_GetSlotList                                     output.o
C_GetTokenInfo                                    output.o
C_Initialize                                      output.o
C_Login                                           output.o
C_Logout                                          output.o
C_OpenSession                                     output.o
C_SetAttributeValue                               output.o
C_Sign                                            output.o
C_SignInit                                        output.o
C_Verify                                          output.o
C_VerifyInit                                      output.o
CardConnect                                       output.o
CardDisconnect                                    output.o
CardEstablishContext                              output.o
CardListReaders                                   output.o
CardMechanical                                    output.o
CardReleaseContext                                output.o
CardStateConfirm                                  output.o
CardStatus                                        output.o
CardTransmit                                      output.o
CloseUSB                                          output.o
DES_SPtrans                                       output.o
DES_cfb64_encrypt                                 output.o
DES_cfb_encrypt                                   output.o
DES_check_key_parity                              output.o
DES_decrypt3                                      output.o
DES_ecb3_encrypt                                  output.o
DES_ecb_encrypt                                   output.o
DES_ede3_cbc_encrypt                              output.o
DES_ede3_cfb64_encrypt                            output.o
DES_ede3_cfb_encrypt                              output.o
DES_ede3_ofb64_encrypt                            output.o
DES_encrypt1                                      output.o
DES_encrypt2                                      output.o
DES_encrypt3                                      output.o
DES_is_weak_key                                   output.o
DES_key_sched                                     output.o
DES_ncbc_encrypt                                  output.o
DES_ofb64_encrypt                                 output.o
DES_options                                       output.o
DES_random_key                                    output.o
DES_set_key                                       output.o
DES_set_key_checked                               output.o
DES_set_key_unchecked                             output.o
DES_set_odd_parity                                output.o
DES_xcbc_encrypt                                  output.o
DH_OpenSSL                                        output.o
DH_check                                          output.o
DH_check_pub_key                                  output.o
DH_compute_key                                    output.o
DH_free                                           output.o
DH_generate_key                                   output.o
DH_generate_parameters_ex                         output.o
DH_get_default_method                             output.o
DH_get_ex_data                                    output.o
DH_get_ex_new_index                               output.o
DH_new                                            output.o
DH_new_method                                     output.o
DH_set_default_method                             output.o
DH_set_ex_data                                    output.o
DH_set_method                                     output.o
DH_size                                           output.o
DH_up_ref                                         output.o
DH_version                                        output.o
DHparams_dup                                      output.o
DHparams_it                                       output.o
DHparams_print                                    output.o
DI                                                output.o
DIRECTORYSTRING_free                              output.o
DIRECTORYSTRING_it                                output.o
DIRECTORYSTRING_new                               output.o
DISPLAYTEXT_free                                  output.o
DISPLAYTEXT_it                                    output.o
DISPLAYTEXT_new                                   output.o
DIST_POINT_NAME_free                              output.o
DIST_POINT_NAME_it                                output.o
DIST_POINT_NAME_new                               output.o
DIST_POINT_free                                   output.o
DIST_POINT_it                                     output.o
DIST_POINT_new                                    output.o
DIST_POINT_set_dpname                             output.o
DSAPrivateKey_it                                  output.o
DSAPublicKey_it                                   output.o
DSA_OpenSSL                                       output.o
DSA_SIG_free                                      output.o
DSA_SIG_it                                        output.o
DSA_SIG_new                                       output.o
DSA_do_sign                                       output.o
DSA_do_verify                                     output.o
DSA_dup_DH                                        output.o
DSA_free                                          output.o
DSA_generate_key                                  output.o
DSA_generate_parameters_ex                        output.o
DSA_get_default_method                            output.o
DSA_get_ex_data                                   output.o
DSA_get_ex_new_index                              output.o
DSA_new                                           output.o
DSA_new_method                                    output.o
DSA_set_default_method                            output.o
DSA_set_ex_data                                   output.o
DSA_set_method                                    output.o
DSA_sign                                          output.o
DSA_sign_setup                                    output.o
DSA_size                                          output.o
DSA_up_ref                                        output.o
DSA_verify                                        output.o
DSA_version                                       output.o
DSAparams_dup                                     output.o
DSAparams_it                                      output.o
DSO_METHOD_null                                   output.o
DSO_METHOD_openssl                                output.o
DSO_bind_func                                     output.o
DSO_bind_var                                      output.o
DSO_convert_filename                              output.o
DSO_ctrl                                          output.o
DSO_flags                                         output.o
DSO_free                                          output.o
DSO_get_default_method                            output.o
DSO_get_filename                                  output.o
DSO_get_loaded_filename                           output.o
DSO_get_method                                    output.o
DSO_global_lookup                                 output.o
DSO_load                                          output.o
DSO_merge                                         output.o
DSO_new                                           output.o
DSO_new_method                                    output.o
DSO_pathbyaddr                                    output.o
DSO_set_default_method                            output.o
DSO_set_filename                                  output.o
DSO_set_method                                    output.o
DSO_set_name_converter                            output.o
DSO_up_ref                                        output.o
DelElem                                           output.o
DestroyAttribute                                  output.o
DestroyElem                                       output.o
DestroyList                                       output.o
DestroySessionData                                output.o
DestroySlotData                                   output.o
DestroyTlvData                                    output.o
DestroyTokenData                                  output.o
ECDH_OpenSSL                                      output.o
ECDH_compute_key                                  output.o
ECDH_get_default_method                           output.o
ECDH_get_ex_data                                  output.o
ECDH_get_ex_new_index                             output.o
ECDH_set_default_method                           output.o
ECDH_set_ex_data                                  output.o
ECDH_set_method                                   output.o
ECDH_version                                      output.o
ECDSA_OpenSSL                                     output.o
ECDSA_SIG_free                                    output.o
ECDSA_SIG_it                                      output.o
ECDSA_SIG_new                                     output.o
ECDSA_do_sign                                     output.o
ECDSA_do_sign_ex                                  output.o
ECDSA_do_verify                                   output.o
ECDSA_get_default_method                          output.o
ECDSA_get_ex_data                                 output.o
ECDSA_get_ex_new_index                            output.o
ECDSA_set_default_method                          output.o
ECDSA_set_ex_data                                 output.o
ECDSA_set_method                                  output.o
ECDSA_sign                                        output.o
ECDSA_sign_ex                                     output.o
ECDSA_sign_setup                                  output.o
ECDSA_size                                        output.o
ECDSA_verify                                      output.o
ECDSA_version                                     output.o
ECPARAMETERS_free                                 output.o
ECPARAMETERS_it                                   output.o
ECPARAMETERS_new                                  output.o
ECPKPARAMETERS_free                               output.o
ECPKPARAMETERS_it                                 output.o
ECPKPARAMETERS_new                                output.o
ECPKParameters_print                              output.o
ECParameters_print                                output.o
EC_EX_DATA_clear_free_all_data                    output.o
EC_EX_DATA_clear_free_data                        output.o
EC_EX_DATA_free_all_data                          output.o
EC_EX_DATA_free_data                              output.o
EC_EX_DATA_get_data                               output.o
EC_EX_DATA_set_data                               output.o
EC_GF2m_simple_method                             output.o
EC_GFp_mont_method                                output.o
EC_GFp_nist_method                                output.o
EC_GFp_simple_method                              output.o
EC_GROUP_check_discriminant                       output.o
EC_GROUP_clear_free                               output.o
EC_GROUP_cmp                                      output.o
EC_GROUP_copy                                     output.o
EC_GROUP_dup                                      output.o
EC_GROUP_free                                     output.o
EC_GROUP_get0_generator                           output.o
EC_GROUP_get0_seed                                output.o
EC_GROUP_get_asn1_flag                            output.o
EC_GROUP_get_basis_type                           output.o
EC_GROUP_get_cofactor                             output.o
EC_GROUP_get_curve_GF2m                           output.o
EC_GROUP_get_curve_GFp                            output.o
EC_GROUP_get_curve_name                           output.o
EC_GROUP_get_degree                               output.o
EC_GROUP_get_order                                output.o
EC_GROUP_get_pentanomial_basis                    output.o
EC_GROUP_get_point_conversion_form                output.o
EC_GROUP_get_seed_len                             output.o
EC_GROUP_get_trinomial_basis                      output.o
EC_GROUP_have_precompute_mult                     output.o
EC_GROUP_method_of                                output.o
EC_GROUP_new                                      output.o
EC_GROUP_new_by_curve_name                        output.o
EC_GROUP_new_curve_GF2m                           output.o
EC_GROUP_new_curve_GFp                            output.o
EC_GROUP_precompute_mult                          output.o
EC_GROUP_set_asn1_flag                            output.o
EC_GROUP_set_curve_GF2m                           output.o
EC_GROUP_set_curve_GFp                            output.o
EC_GROUP_set_curve_name                           output.o
EC_GROUP_set_generator                            output.o
EC_GROUP_set_point_conversion_form                output.o
EC_GROUP_set_seed                                 output.o
EC_KEY_check_key                                  output.o
EC_KEY_copy                                       output.o
EC_KEY_dup                                        output.o
EC_KEY_free                                       output.o
EC_KEY_generate_key                               output.o
EC_KEY_get0_group                                 output.o
EC_KEY_get0_private_key                           output.o
EC_KEY_get0_public_key                            output.o
EC_KEY_get_conv_form                              output.o
EC_KEY_get_enc_flags                              output.o
EC_KEY_get_key_method_data                        output.o
EC_KEY_insert_key_method_data                     output.o
EC_KEY_new                                        output.o
EC_KEY_new_by_curve_name                          output.o
EC_KEY_precompute_mult                            output.o
EC_KEY_print                                      output.o
EC_KEY_set_asn1_flag                              output.o
EC_KEY_set_conv_form                              output.o
EC_KEY_set_enc_flags                              output.o
EC_KEY_set_group                                  output.o
EC_KEY_set_private_key                            output.o
EC_KEY_set_public_key                             output.o
EC_KEY_up_ref                                     output.o
EC_METHOD_get_field_type                          output.o
EC_POINT_add                                      output.o
EC_POINT_bn2point                                 output.o
EC_POINT_clear_free                               output.o
EC_POINT_cmp                                      output.o
EC_POINT_copy                                     output.o
EC_POINT_dbl                                      output.o
EC_POINT_dup                                      output.o
EC_POINT_free                                     output.o
EC_POINT_get_Jprojective_coordinates_GFp          output.o
EC_POINT_get_affine_coordinates_GF2m              output.o
EC_POINT_get_affine_coordinates_GFp               output.o
EC_POINT_hex2point                                output.o
EC_POINT_invert                                   output.o
EC_POINT_is_at_infinity                           output.o
EC_POINT_is_on_curve                              output.o
EC_POINT_make_affine                              output.o
EC_POINT_method_of                                output.o
EC_POINT_mul                                      output.o
EC_POINT_new                                      output.o
EC_POINT_oct2point                                output.o
EC_POINT_point2bn                                 output.o
EC_POINT_point2hex                                output.o
EC_POINT_point2oct                                output.o
EC_POINT_set_Jprojective_coordinates_GFp          output.o
EC_POINT_set_affine_coordinates_GF2m              output.o
EC_POINT_set_affine_coordinates_GFp               output.o
EC_POINT_set_compressed_coordinates_GF2m          output.o
EC_POINT_set_compressed_coordinates_GFp           output.o
EC_POINT_set_to_infinity                          output.o
EC_POINTs_make_affine                             output.o
EC_POINTs_mul                                     output.o
EC_PRIVATEKEY_free                                output.o
EC_PRIVATEKEY_it                                  output.o
EC_PRIVATEKEY_new                                 output.o
EC_get_builtin_curves                             output.o
EDIPARTYNAME_free                                 output.o
EDIPARTYNAME_it                                   output.o
EDIPARTYNAME_new                                  output.o
EHDestroyEventHandler                             output.o
EHInitEventHandler                                output.o
EHStatusHandler                                   output.o
ERR_add_error_data                                output.o
ERR_clear_error                                   output.o
ERR_error_string                                  output.o
ERR_error_string_n                                output.o
ERR_free_strings                                  output.o
ERR_func_error_string                             output.o
ERR_get_err_state_table                           output.o
ERR_get_error                                     output.o
ERR_get_error_line                                output.o
ERR_get_error_line_data                           output.o
ERR_get_implementation                            output.o
ERR_get_next_error_library                        output.o
ERR_get_state                                     output.o
ERR_get_string_table                              output.o
ERR_lib_error_string                              output.o
ERR_load_ASN1_strings                             output.o
ERR_load_BIO_strings                              output.o
ERR_load_BN_strings                               output.o
ERR_load_BUF_strings                              output.o
ERR_load_CMS_strings                              output.o
ERR_load_COMP_strings                             output.o
ERR_load_CONF_strings                             output.o
ERR_load_CRYPTO_strings                           output.o
ERR_load_DH_strings                               output.o
ERR_load_DSA_strings                              output.o
ERR_load_DSO_strings                              output.o
ERR_load_ECDH_strings                             output.o
ERR_load_ECDSA_strings                            output.o
ERR_load_EC_strings                               output.o
ERR_load_ERR_strings                              output.o
ERR_load_EVP_strings                              output.o
ERR_load_OBJ_strings                              output.o
ERR_load_OCSP_strings                             output.o
ERR_load_PEM_strings                              output.o
ERR_load_PKCS12_strings                           output.o
ERR_load_PKCS7_strings                            output.o
ERR_load_RAND_strings                             output.o
ERR_load_RSA_strings                              output.o
ERR_load_TS_strings                               output.o
ERR_load_UI_strings                               output.o
ERR_load_X509V3_strings                           output.o
ERR_load_X509_strings                             output.o
ERR_load_crypto_strings                           output.o
ERR_load_strings                                  output.o
ERR_peek_error                                    output.o
ERR_peek_error_line                               output.o
ERR_peek_error_line_data                          output.o
ERR_peek_last_error                               output.o
ERR_peek_last_error_line                          output.o
ERR_peek_last_error_line_data                     output.o
ERR_pop_to_mark                                   output.o
ERR_print_errors                                  output.o
ERR_print_errors_cb                               output.o
ERR_put_error                                     output.o
ERR_reason_error_string                           output.o
ERR_release_err_state_table                       output.o
ERR_remove_state                                  output.o
ERR_remove_thread_state                           output.o
ERR_set_error_data                                output.o
ERR_set_implementation                            output.o
ERR_set_mark                                      output.o
ERR_unload_strings                                output.o
EVP_BytesToKey                                    output.o
EVP_CIPHER_CTX_block_size                         output.o
EVP_CIPHER_CTX_cipher                             output.o
EVP_CIPHER_CTX_cleanup                            output.o
EVP_CIPHER_CTX_clear_flags                        output.o
EVP_CIPHER_CTX_copy                               output.o
EVP_CIPHER_CTX_ctrl                               output.o
EVP_CIPHER_CTX_flags                              output.o
EVP_CIPHER_CTX_free                               output.o
EVP_CIPHER_CTX_get_app_data                       output.o
EVP_CIPHER_CTX_init                               output.o
EVP_CIPHER_CTX_iv_length                          output.o
EVP_CIPHER_CTX_key_length                         output.o
EVP_CIPHER_CTX_new                                output.o
EVP_CIPHER_CTX_nid                                output.o
EVP_CIPHER_CTX_rand_key                           output.o
EVP_CIPHER_CTX_set_app_data                       output.o
EVP_CIPHER_CTX_set_flags                          output.o
EVP_CIPHER_CTX_set_key_length                     output.o
EVP_CIPHER_CTX_set_padding                        output.o
EVP_CIPHER_CTX_test_flags                         output.o
EVP_CIPHER_asn1_to_param                          output.o
EVP_CIPHER_block_size                             output.o
EVP_CIPHER_do_all                                 output.o
EVP_CIPHER_do_all_sorted                          output.o
EVP_CIPHER_flags                                  output.o
EVP_CIPHER_get_asn1_iv                            output.o
EVP_CIPHER_iv_length                              output.o
EVP_CIPHER_key_length                             output.o
EVP_CIPHER_nid                                    output.o
EVP_CIPHER_param_to_asn1                          output.o
EVP_CIPHER_set_asn1_iv                            output.o
EVP_CIPHER_type                                   output.o
EVP_Cipher                                        output.o
EVP_CipherFinal                                   output.o
EVP_CipherFinal_ex                                output.o
EVP_CipherInit                                    output.o
EVP_CipherInit_ex                                 output.o
EVP_CipherUpdate                                  output.o
EVP_DecodeBlock                                   output.o
EVP_DecodeFinal                                   output.o
EVP_DecodeInit                                    output.o
EVP_DecodeUpdate                                  output.o
EVP_DecryptFinal                                  output.o
EVP_DecryptFinal_ex                               output.o
EVP_DecryptInit                                   output.o
EVP_DecryptInit_ex                                output.o
EVP_DecryptUpdate                                 output.o
EVP_Digest                                        output.o
EVP_DigestFinal                                   output.o
EVP_DigestFinal_ex                                output.o
EVP_DigestInit                                    output.o
EVP_DigestInit_ex                                 output.o
EVP_DigestSignFinal                               output.o
EVP_DigestSignInit                                output.o
EVP_DigestUpdate                                  output.o
EVP_DigestVerifyFinal                             output.o
EVP_DigestVerifyInit                              output.o
EVP_EncodeBlock                                   output.o
EVP_EncodeFinal                                   output.o
EVP_EncodeInit                                    output.o
EVP_EncodeUpdate                                  output.o
EVP_EncryptFinal                                  output.o
EVP_EncryptFinal_ex                               output.o
EVP_EncryptInit                                   output.o
EVP_EncryptInit_ex                                output.o
EVP_EncryptUpdate                                 output.o
EVP_MD_CTX_cleanup                                output.o
EVP_MD_CTX_clear_flags                            output.o
EVP_MD_CTX_copy                                   output.o
EVP_MD_CTX_copy_ex                                output.o
EVP_MD_CTX_create                                 output.o
EVP_MD_CTX_destroy                                output.o
EVP_MD_CTX_init                                   output.o
EVP_MD_CTX_md                                     output.o
EVP_MD_CTX_set_flags                              output.o
EVP_MD_CTX_test_flags                             output.o
EVP_MD_block_size                                 output.o
EVP_MD_do_all                                     output.o
EVP_MD_do_all_sorted                              output.o
EVP_MD_flags                                      output.o
EVP_MD_pkey_type                                  output.o
EVP_MD_size                                       output.o
EVP_MD_type                                       output.o
EVP_PBE_CipherInit                                output.o
EVP_PBE_alg_add                                   output.o
EVP_PBE_alg_add_type                              output.o
EVP_PBE_cleanup                                   output.o
EVP_PBE_find                                      output.o
EVP_PKCS82PKEY                                    output.o
EVP_PKEY2PKCS8                                    output.o
EVP_PKEY2PKCS8_broken                             output.o
EVP_PKEY_CTX_ctrl                                 output.o
EVP_PKEY_CTX_ctrl_str                             output.o
EVP_PKEY_CTX_dup                                  output.o
EVP_PKEY_CTX_free                                 output.o
EVP_PKEY_CTX_get0_peerkey                         output.o
EVP_PKEY_CTX_get0_pkey                            output.o
EVP_PKEY_CTX_get_app_data                         output.o
EVP_PKEY_CTX_get_cb                               output.o
EVP_PKEY_CTX_get_data                             output.o
EVP_PKEY_CTX_get_keygen_info                      output.o
EVP_PKEY_CTX_get_operation                        output.o
EVP_PKEY_CTX_new                                  output.o
EVP_PKEY_CTX_new_id                               output.o
EVP_PKEY_CTX_set0_keygen_info                     output.o
EVP_PKEY_CTX_set_app_data                         output.o
EVP_PKEY_CTX_set_cb                               output.o
EVP_PKEY_CTX_set_data                             output.o
EVP_PKEY_add1_attr                                output.o
EVP_PKEY_add1_attr_by_NID                         output.o
EVP_PKEY_add1_attr_by_OBJ                         output.o
EVP_PKEY_add1_attr_by_txt                         output.o
EVP_PKEY_asn1_add0                                output.o
EVP_PKEY_asn1_add_alias                           output.o
EVP_PKEY_asn1_copy                                output.o
EVP_PKEY_asn1_find                                output.o
EVP_PKEY_asn1_find_str                            output.o
EVP_PKEY_asn1_free                                output.o
EVP_PKEY_asn1_get0                                output.o
EVP_PKEY_asn1_get0_info                           output.o
EVP_PKEY_asn1_get_count                           output.o
EVP_PKEY_asn1_new                                 output.o
EVP_PKEY_asn1_set_ctrl                            output.o
EVP_PKEY_asn1_set_free                            output.o
EVP_PKEY_asn1_set_param                           output.o
EVP_PKEY_asn1_set_private                         output.o
EVP_PKEY_asn1_set_public                          output.o
EVP_PKEY_assign                                   output.o
EVP_PKEY_base_id                                  output.o
EVP_PKEY_bits                                     output.o
EVP_PKEY_cmp                                      output.o
EVP_PKEY_cmp_parameters                           output.o
EVP_PKEY_copy_parameters                          output.o
EVP_PKEY_decrypt                                  output.o
EVP_PKEY_decrypt_init                             output.o
EVP_PKEY_delete_attr                              output.o
EVP_PKEY_derive                                   output.o
EVP_PKEY_derive_init                              output.o
EVP_PKEY_derive_set_peer                          output.o
EVP_PKEY_encrypt                                  output.o
EVP_PKEY_encrypt_init                             output.o
EVP_PKEY_free                                     output.o
EVP_PKEY_get0                                     output.o
EVP_PKEY_get0_asn1                                output.o
EVP_PKEY_get1_DH                                  output.o
EVP_PKEY_get1_DSA                                 output.o
EVP_PKEY_get1_EC_KEY                              output.o
EVP_PKEY_get1_RSA                                 output.o
EVP_PKEY_get_attr                                 output.o
EVP_PKEY_get_attr_by_NID                          output.o
EVP_PKEY_get_attr_by_OBJ                          output.o
EVP_PKEY_get_attr_count                           output.o
EVP_PKEY_get_default_digest_nid                   output.o
EVP_PKEY_id                                       output.o
EVP_PKEY_keygen                                   output.o
EVP_PKEY_keygen_init                              output.o
EVP_PKEY_meth_add0                                output.o
EVP_PKEY_meth_find                                output.o
EVP_PKEY_meth_free                                output.o
EVP_PKEY_meth_new                                 output.o
EVP_PKEY_meth_set_cleanup                         output.o
EVP_PKEY_meth_set_copy                            output.o
EVP_PKEY_meth_set_ctrl                            output.o
EVP_PKEY_meth_set_decrypt                         output.o
EVP_PKEY_meth_set_derive                          output.o
EVP_PKEY_meth_set_encrypt                         output.o
EVP_PKEY_meth_set_init                            output.o
EVP_PKEY_meth_set_keygen                          output.o
EVP_PKEY_meth_set_paramgen                        output.o
EVP_PKEY_meth_set_sign                            output.o
EVP_PKEY_meth_set_signctx                         output.o
EVP_PKEY_meth_set_verify                          output.o
EVP_PKEY_meth_set_verify_recover                  output.o
EVP_PKEY_meth_set_verifyctx                       output.o
EVP_PKEY_missing_parameters                       output.o
EVP_PKEY_new                                      output.o
EVP_PKEY_new_mac_key                              output.o
EVP_PKEY_paramgen                                 output.o
EVP_PKEY_paramgen_init                            output.o
EVP_PKEY_print_params                             output.o
EVP_PKEY_print_private                            output.o
EVP_PKEY_print_public                             output.o
EVP_PKEY_save_parameters                          output.o
EVP_PKEY_set1_DH                                  output.o
EVP_PKEY_set1_DSA                                 output.o
EVP_PKEY_set1_EC_KEY                              output.o
EVP_PKEY_set1_RSA                                 output.o
EVP_PKEY_set_type                                 output.o
EVP_PKEY_set_type_str                             output.o
EVP_PKEY_sign                                     output.o
EVP_PKEY_sign_init                                output.o
EVP_PKEY_size                                     output.o
EVP_PKEY_type                                     output.o
EVP_PKEY_verify                                   output.o
EVP_PKEY_verify_init                              output.o
EVP_PKEY_verify_recover                           output.o
EVP_PKEY_verify_recover_init                      output.o
EVP_SignFinal                                     output.o
EVP_VerifyFinal                                   output.o
EVP_add_cipher                                    output.o
EVP_add_digest                                    output.o
EVP_aes_128_cbc                                   output.o
EVP_aes_128_cfb1                                  output.o
EVP_aes_128_cfb128                                output.o
EVP_aes_128_cfb8                                  output.o
EVP_aes_128_ecb                                   output.o
EVP_aes_128_ofb                                   output.o
EVP_aes_192_cbc                                   output.o
EVP_aes_192_cfb1                                  output.o
EVP_aes_192_cfb128                                output.o
EVP_aes_192_cfb8                                  output.o
EVP_aes_192_ecb                                   output.o
EVP_aes_192_ofb                                   output.o
EVP_aes_256_cbc                                   output.o
EVP_aes_256_cfb1                                  output.o
EVP_aes_256_cfb128                                output.o
EVP_aes_256_cfb8                                  output.o
EVP_aes_256_ecb                                   output.o
EVP_aes_256_ofb                                   output.o
EVP_bf_cbc                                        output.o
EVP_bf_cfb64                                      output.o
EVP_bf_ecb                                        output.o
EVP_bf_ofb                                        output.o
EVP_cast5_cbc                                     output.o
EVP_cast5_cfb64                                   output.o
EVP_cast5_ecb                                     output.o
EVP_cast5_ofb                                     output.o
EVP_cleanup                                       output.o
EVP_des_cbc                                       output.o
EVP_des_cfb1                                      output.o
EVP_des_cfb64                                     output.o
EVP_des_cfb8                                      output.o
EVP_des_ecb                                       output.o
EVP_des_ede                                       output.o
EVP_des_ede3                                      output.o
EVP_des_ede3_cbc                                  output.o
EVP_des_ede3_cfb1                                 output.o
EVP_des_ede3_cfb64                                output.o
EVP_des_ede3_cfb8                                 output.o
EVP_des_ede3_ecb                                  output.o
EVP_des_ede3_ofb                                  output.o
EVP_des_ede_cbc                                   output.o
EVP_des_ede_cfb64                                 output.o
EVP_des_ede_ecb                                   output.o
EVP_des_ede_ofb                                   output.o
EVP_des_ofb                                       output.o
EVP_desx_cbc                                      output.o
EVP_dss                                           output.o
EVP_dss1                                          output.o
EVP_ecdsa                                         output.o
EVP_get_cipherbyname                              output.o
EVP_get_digestbyname                              output.o
EVP_get_pw_prompt                                 output.o
EVP_idea_cbc                                      output.o
EVP_idea_cfb64                                    output.o
EVP_idea_ecb                                      output.o
EVP_idea_ofb                                      output.o
EVP_md4                                           output.o
EVP_md5                                           output.o
EVP_rc2_40_cbc                                    output.o
EVP_rc2_64_cbc                                    output.o
EVP_rc2_cbc                                       output.o
EVP_rc2_cfb64                                     output.o
EVP_rc2_ecb                                       output.o
EVP_rc2_ofb                                       output.o
EVP_rc4                                           output.o
EVP_rc4_40                                        output.o
EVP_read_pw_string                                output.o
EVP_read_pw_string_min                            output.o
EVP_ripemd160                                     output.o
EVP_set_pw_prompt                                 output.o
EVP_sha                                           output.o
EVP_sha1                                          output.o
EVP_sha224                                        output.o
EVP_sha256                                        output.o
EVP_sha384                                        output.o
EVP_sha512                                        output.o
EVP_version                                       output.o
EVP_whirlpool                                     output.o
EXTENDED_KEY_USAGE_free                           output.o
EXTENDED_KEY_USAGE_it                             output.o
EXTENDED_KEY_USAGE_new                            output.o
ExchangePPSData                                   output.o
FI                                                output.o
FindBaudRateTable                                 output.o
GENERAL_NAMES_free                                output.o
GENERAL_NAMES_it                                  output.o
GENERAL_NAMES_new                                 output.o
GENERAL_NAME_cmp                                  output.o
GENERAL_NAME_dup                                  output.o
GENERAL_NAME_free                                 output.o
GENERAL_NAME_get0_otherName                       output.o
GENERAL_NAME_get0_value                           output.o
GENERAL_NAME_it                                   output.o
GENERAL_NAME_new                                  output.o
GENERAL_NAME_print                                output.o
GENERAL_NAME_set0_othername                       output.o
GENERAL_NAME_set0_value                           output.o
GENERAL_SUBTREE_free                              output.o
GENERAL_SUBTREE_it                                output.o
GENERAL_SUBTREE_new                               output.o
GetAttrValType                                    output.o
GetBWICWIData                                     output.o
GetCardStatus                                     output.o
GetDirDataByTlv                                   output.o
GetElem                                           output.o
GetICCardData                                     output.o
GetIFSCData                                       output.o
GetLength                                         output.o
GetOdfDataByTlv                                   output.o
GetTlvByBuf                                       output.o
GetTokenDataByTlv                                 output.o
GetUlByByte                                       output.o
GetUlByTxt                                        output.o
GetValueData                                      output.o
GetVerByTex                                       output.o
HMAC                                              output.o
HMAC_CTX_cleanup                                  output.o
HMAC_CTX_copy                                     output.o
HMAC_CTX_init                                     output.o
HMAC_CTX_set_flags                                output.o
HMAC_Final                                        output.o
HMAC_Init                                         output.o
HMAC_Init_ex                                      output.o
HMAC_Update                                       output.o
HPSearchHotPluggables                             output.o
IDEA_version                                      output.o
IDMan_CheckCardStatus                             output.o
IDMan_CmCheckCRL                                  output.o
IDMan_CmChgRSA                                    output.o
IDMan_CmGetCertificateSign                        output.o
IDMan_CmGetDN                                     output.o
IDMan_CmGetPublicKey                              output.o
IDMan_CmMakeRand                                  output.o
IDMan_CmMkHash                                    output.o
IDMan_CmPadding                                   output.o
IDMan_CmPadding2                                  output.o
IDMan_EncryptByIndex                              output.o
IDMan_IPCheckCrlPkcX                              output.o
IDMan_IPCheckPKC                                  output.o
IDMan_IPCheckSignature                            output.o
IDMan_IPCrSignature                               output.o
IDMan_IPFinalize                                  output.o
IDMan_IPFinalizeReader                            output.o
IDMan_IPIdPassListMalloc                          output.o
IDMan_IPInitialize                                output.o
IDMan_IPInitializeReader                          output.o
IDMan_IPMkPublicKeyObj                            output.o
IDMan_IPMkRandHash                                output.o
IDMan_IPRetJudgment                               output.o
IDMan_IPSignatureVerify                           output.o
IDMan_IPgCIndexParamChk                           output.o
IDMan_IPgCParamChk                                output.o
IDMan_IPgIdxSParamChk                             output.o
IDMan_IPgSParamChk                                output.o
IDMan_IPgetCertIdxPKCS                            output.o
IDMan_IPgetCertPKCS                               output.o
IDMan_IPgetCertPkeyIdxPKCSx                       output.o
IDMan_IPgetCertPkeyPKCSx                          output.o
IDMan_IPgetCertPkeyPKCSy                          output.o
IDMan_IPgetHash                                   output.o
IDMan_IPgetMakeRandData                           output.o
IDMan_IPgetPrivateKey                             output.o
IDMan_IPgetPrivateKeyPKCSx                        output.o
IDMan_IPuAPKCS11IdxParamChk                       output.o
IDMan_IPuAPKCS11ParamChk                          output.o
IDMan_IPvSIdxParamChk                             output.o
IDMan_IPvSParamChk                                output.o
IDMan_PaddingParamChk                             output.o
IDMan_SCardConnect                                output.o
IDMan_SCardDisconnect                             output.o
IDMan_SCardEstablishContext                       output.o
IDMan_SCardListReaders                            output.o
IDMan_SCardReleaseContext                         output.o
IDMan_SCardSetBinay                               output.o
IDMan_SCardSizeLongToChar                         output.o
IDMan_SCardStatus                                 output.o
IDMan_SCardTransmit                               output.o
IDMan_StAtoi                                      output.o
IDMan_StAtol                                      output.o
IDMan_StFree                                      output.o
IDMan_StMalloc                                    output.o
IDMan_StMemcmp                                    output.o
IDMan_StMemcpy                                    output.o
IDMan_StMemset                                    output.o
IDMan_StReadSetData                               output.o
IDMan_StStrcat                                    output.o
IDMan_StStrchr                                    output.o
IDMan_StStrcmp                                    output.o
IDMan_StStrcpy                                    output.o
IDMan_StStrlen                                    output.o
IDMan_generateSignature                           output.o
IDMan_generateSignatureByIndex                    output.o
IDMan_getCertificate                              output.o
IDMan_getCertificateByIndex                       output.o
IDMan_getMemoryFree                               output.o
IDMan_getStaticPassword                           output.o
IDMan_userAuthPKCS11                              output.o
IDMan_userAuthPKCS11ByIndex                       output.o
IDMan_verifySignature                             output.o
IDMan_verifySignatureByIndex                      output.o
IFDHCloseChannel                                  output.o
IFDHControl                                       output.o
IFDHCreateChannel                                 output.o
IFDHGetCapabilities                               output.o
IFDHICCPresence                                   output.o
IFDHPowerICC                                      output.o
IFDHSetProtocolParameters                         output.o
IFDHTransmitToICC                                 output.o
ISSUING_DIST_POINT_free                           output.o
ISSUING_DIST_POINT_it                             output.o
ISSUING_DIST_POINT_new                            output.o
InitCryptoLibrary                                 output.o
InitLeaderCardProtocol                            output.o
InternalAuth                                      output.o
LONG_it                                           output.o
MD4_Final                                         output.o
MD4_Init                                          output.o
MD4_Transform                                     output.o
MD4_Update                                        output.o
MD4_version                                       output.o
MD5                                               output.o
MD5_Final                                         output.o
MD5_Init                                          output.o
MD5_Transform                                     output.o
MD5_Update                                        output.o
MD5_version                                       output.o
NAME_CONSTRAINTS_check                            output.o
NAME_CONSTRAINTS_free                             output.o
NAME_CONSTRAINTS_it                               output.o
NAME_CONSTRAINTS_new                              output.o
NCONF_WIN32                                       output.o
NCONF_default                                     output.o
NCONF_dump_bio                                    output.o
NCONF_free                                        output.o
NCONF_free_data                                   output.o
NCONF_get_number_e                                output.o
NCONF_get_section                                 output.o
NCONF_get_string                                  output.o
NCONF_load                                        output.o
NCONF_load_bio                                    output.o
NCONF_new                                         output.o
NETSCAPE_CERT_SEQUENCE_free                       output.o
NETSCAPE_CERT_SEQUENCE_it                         output.o
NETSCAPE_CERT_SEQUENCE_new                        output.o
NETSCAPE_SPKAC_free                               output.o
NETSCAPE_SPKAC_it                                 output.o
NETSCAPE_SPKAC_new                                output.o
NETSCAPE_SPKI_free                                output.o
NETSCAPE_SPKI_it                                  output.o
NETSCAPE_SPKI_new                                 output.o
NETSCAPE_SPKI_sign                                output.o
NETSCAPE_SPKI_verify                              output.o
NOTICEREF_free                                    output.o
NOTICEREF_it                                      output.o
NOTICEREF_new                                     output.o
OBJ_NAME_add                                      output.o
OBJ_NAME_cleanup                                  output.o
OBJ_NAME_do_all                                   output.o
OBJ_NAME_do_all_sorted                            output.o
OBJ_NAME_get                                      output.o
OBJ_NAME_init                                     output.o
OBJ_NAME_new_index                                output.o
OBJ_NAME_remove                                   output.o
OBJ_add_object                                    output.o
OBJ_add_sigid                                     output.o
OBJ_bsearch_                                      output.o
OBJ_bsearch_ex_                                   output.o
OBJ_cleanup                                       output.o
OBJ_cmp                                           output.o
OBJ_create                                        output.o
OBJ_create_objects                                output.o
OBJ_dup                                           output.o
OBJ_find_sigid_algs                               output.o
OBJ_find_sigid_by_algs                            output.o
OBJ_ln2nid                                        output.o
OBJ_new_nid                                       output.o
OBJ_nid2ln                                        output.o
OBJ_nid2obj                                       output.o
OBJ_nid2sn                                        output.o
OBJ_obj2nid                                       output.o
OBJ_obj2txt                                       output.o
OBJ_sigid_free                                    output.o
OBJ_sn2nid                                        output.o
OBJ_txt2nid                                       output.o
OBJ_txt2obj                                       output.o
OCSP_BASICRESP_free                               output.o
OCSP_BASICRESP_it                                 output.o
OCSP_BASICRESP_new                                output.o
OCSP_CERTID_free                                  output.o
OCSP_CERTID_it                                    output.o
OCSP_CERTID_new                                   output.o
OCSP_CERTSTATUS_free                              output.o
OCSP_CERTSTATUS_it                                output.o
OCSP_CERTSTATUS_new                               output.o
OCSP_CRLID_free                                   output.o
OCSP_CRLID_it                                     output.o
OCSP_CRLID_new                                    output.o
OCSP_ONEREQ_free                                  output.o
OCSP_ONEREQ_it                                    output.o
OCSP_ONEREQ_new                                   output.o
OCSP_REQINFO_free                                 output.o
OCSP_REQINFO_it                                   output.o
OCSP_REQINFO_new                                  output.o
OCSP_REQUEST_free                                 output.o
OCSP_REQUEST_it                                   output.o
OCSP_REQUEST_new                                  output.o
OCSP_RESPBYTES_free                               output.o
OCSP_RESPBYTES_it                                 output.o
OCSP_RESPBYTES_new                                output.o
OCSP_RESPDATA_free                                output.o
OCSP_RESPDATA_it                                  output.o
OCSP_RESPDATA_new                                 output.o
OCSP_RESPID_free                                  output.o
OCSP_RESPID_it                                    output.o
OCSP_RESPID_new                                   output.o
OCSP_RESPONSE_free                                output.o
OCSP_RESPONSE_it                                  output.o
OCSP_RESPONSE_new                                 output.o
OCSP_REVOKEDINFO_free                             output.o
OCSP_REVOKEDINFO_it                               output.o
OCSP_REVOKEDINFO_new                              output.o
OCSP_SERVICELOC_free                              output.o
OCSP_SERVICELOC_it                                output.o
OCSP_SERVICELOC_new                               output.o
OCSP_SIGNATURE_free                               output.o
OCSP_SIGNATURE_it                                 output.o
OCSP_SIGNATURE_new                                output.o
OCSP_SINGLERESP_free                              output.o
OCSP_SINGLERESP_it                                output.o
OCSP_SINGLERESP_new                               output.o
OPENSSL_NONPIC_relocated                          output.o
OPENSSL_asc2uni                                   output.o
OPENSSL_cleanse                                   output.o
OPENSSL_cpuid_setup                               output.o
OPENSSL_gmtime                                    output.o
OPENSSL_gmtime_adj                                output.o
OPENSSL_ia32cap_P                                 output.o
OPENSSL_ia32cap_loc                               output.o
OPENSSL_isservice                                 output.o
OPENSSL_showfatal                                 output.o
OPENSSL_stderr                                    output.o
OPENSSL_uni2asc                                   output.o
OSSL_DES_version                                  output.o
OSSL_libdes_version                               output.o
OTHERNAME_cmp                                     output.o
OTHERNAME_free                                    output.o
OTHERNAME_it                                      output.o
OTHERNAME_new                                     output.o
OpenSSLDie                                        output.o
OpenSSL_add_all_ciphers                           output.o
OpenSSL_add_all_digests                           output.o
OpenUSB                                           output.o
PAGE_POOL_START                                   output.o
PBE2PARAM_free                                    output.o
PBE2PARAM_it                                      output.o
PBE2PARAM_new                                     output.o
PBEPARAM_free                                     output.o
PBEPARAM_it                                       output.o
PBEPARAM_new                                      output.o
PBKDF2PARAM_free                                  output.o
PBKDF2PARAM_it                                    output.o
PBKDF2PARAM_new                                   output.o
PEM_ASN1_read_bio                                 output.o
PEM_ASN1_write_bio                                output.o
PEM_bytes_read_bio                                output.o
PEM_def_callback                                  output.o
PEM_dek_info                                      output.o
PEM_do_header                                     output.o
PEM_get_EVP_CIPHER_INFO                           output.o
PEM_proc_type                                     output.o
PEM_read_bio                                      output.o
PEM_read_bio_CMS                                  output.o
PEM_read_bio_DHparams                             output.o
PEM_read_bio_DSAPrivateKey                        output.o
PEM_read_bio_DSA_PUBKEY                           output.o
PEM_read_bio_DSAparams                            output.o
PEM_read_bio_ECPKParameters                       output.o
PEM_read_bio_ECPrivateKey                         output.o
PEM_read_bio_EC_PUBKEY                            output.o
PEM_read_bio_NETSCAPE_CERT_SEQUENCE               output.o
PEM_read_bio_PKCS7                                output.o
PEM_read_bio_PKCS8                                output.o
PEM_read_bio_PKCS8_PRIV_KEY_INFO                  output.o
PEM_read_bio_PUBKEY                               output.o
PEM_read_bio_Parameters                           output.o
PEM_read_bio_PrivateKey                           output.o
PEM_read_bio_RSAPrivateKey                        output.o
PEM_read_bio_RSAPublicKey                         output.o
PEM_read_bio_RSA_PUBKEY                           output.o
PEM_read_bio_X509                                 output.o
PEM_read_bio_X509_CRL                             output.o
PEM_read_bio_X509_REQ                             output.o
PEM_version                                       output.o
PEM_write_bio                                     output.o
PEM_write_bio_ASN1_stream                         output.o
PEM_write_bio_CMS                                 output.o
PEM_write_bio_CMS_stream                          output.o
PEM_write_bio_DHparams                            output.o
PEM_write_bio_DSAPrivateKey                       output.o
PEM_write_bio_DSA_PUBKEY                          output.o
PEM_write_bio_DSAparams                           output.o
PEM_write_bio_ECPKParameters                      output.o
PEM_write_bio_ECPrivateKey                        output.o
PEM_write_bio_EC_PUBKEY                           output.o
PEM_write_bio_NETSCAPE_CERT_SEQUENCE              output.o
PEM_write_bio_PKCS7                               output.o
PEM_write_bio_PKCS8                               output.o
PEM_write_bio_PKCS8PrivateKey                     output.o
PEM_write_bio_PKCS8PrivateKey_nid                 output.o
PEM_write_bio_PKCS8_PRIV_KEY_INFO                 output.o
PEM_write_bio_PUBKEY                              output.o
PEM_write_bio_Parameters                          output.o
PEM_write_bio_PrivateKey                          output.o
PEM_write_bio_RSAPrivateKey                       output.o
PEM_write_bio_RSAPublicKey                        output.o
PEM_write_bio_RSA_PUBKEY                          output.o
PEM_write_bio_X509                                output.o
PEM_write_bio_X509_CRL                            output.o
PEM_write_bio_X509_REQ                            output.o
PEM_write_bio_X509_REQ_NEW                        output.o
PHGetProtocol                                     output.o
PHSetProtocol                                     output.o
PKCS12_AUTHSAFES_it                               output.o
PKCS12_BAGS_free                                  output.o
PKCS12_BAGS_it                                    output.o
PKCS12_BAGS_new                                   output.o
PKCS12_MAC_DATA_free                              output.o
PKCS12_MAC_DATA_it                                output.o
PKCS12_MAC_DATA_new                               output.o
PKCS12_MAKE_KEYBAG                                output.o
PKCS12_MAKE_SHKEYBAG                              output.o
PKCS12_PBE_add                                    output.o
PKCS12_PBE_keyivgen                               output.o
PKCS12_SAFEBAGS_it                                output.o
PKCS12_SAFEBAG_free                               output.o
PKCS12_SAFEBAG_it                                 output.o
PKCS12_SAFEBAG_new                                output.o
PKCS12_certbag2x509                               output.o
PKCS12_certbag2x509crl                            output.o
PKCS12_decrypt_skey                               output.o
PKCS12_free                                       output.o
PKCS12_it                                         output.o
PKCS12_item_decrypt_d2i                           output.o
PKCS12_item_i2d_encrypt                           output.o
PKCS12_item_pack_safebag                          output.o
PKCS12_key_gen_asc                                output.o
PKCS12_key_gen_uni                                output.o
PKCS12_new                                        output.o
PKCS12_pack_authsafes                             output.o
PKCS12_pack_p7data                                output.o
PKCS12_pack_p7encdata                             output.o
PKCS12_pbe_crypt                                  output.o
PKCS12_unpack_authsafes                           output.o
PKCS12_unpack_p7data                              output.o
PKCS12_unpack_p7encdata                           output.o
PKCS12_x5092certbag                               output.o
PKCS12_x509crl2certbag                            output.o
PKCS1_MGF1                                        output.o
PKCS5_PBE_add                                     output.o
PKCS5_PBE_keyivgen                                output.o
PKCS5_PBKDF2_HMAC                                 output.o
PKCS5_PBKDF2_HMAC_SHA1                            output.o
PKCS5_pbe2_set                                    output.o
PKCS5_pbe2_set_iv                                 output.o
PKCS5_pbe_set                                     output.o
PKCS5_pbe_set0_algor                              output.o
PKCS5_v2_PBE_keyivgen                             output.o
PKCS7_ATTR_SIGN_it                                output.o
PKCS7_ATTR_VERIFY_it                              output.o
PKCS7_DIGEST_free                                 output.o
PKCS7_DIGEST_it                                   output.o
PKCS7_DIGEST_new                                  output.o
PKCS7_ENCRYPT_free                                output.o
PKCS7_ENCRYPT_it                                  output.o
PKCS7_ENCRYPT_new                                 output.o
PKCS7_ENC_CONTENT_free                            output.o
PKCS7_ENC_CONTENT_it                              output.o
PKCS7_ENC_CONTENT_new                             output.o
PKCS7_ENVELOPE_free                               output.o
PKCS7_ENVELOPE_it                                 output.o
PKCS7_ENVELOPE_new                                output.o
PKCS7_ISSUER_AND_SERIAL_digest                    output.o
PKCS7_ISSUER_AND_SERIAL_free                      output.o
PKCS7_ISSUER_AND_SERIAL_it                        output.o
PKCS7_ISSUER_AND_SERIAL_new                       output.o
PKCS7_RECIP_INFO_free                             output.o
PKCS7_RECIP_INFO_get0_alg                         output.o
PKCS7_RECIP_INFO_it                               output.o
PKCS7_RECIP_INFO_new                              output.o
PKCS7_RECIP_INFO_set                              output.o
PKCS7_SIGNED_free                                 output.o
PKCS7_SIGNED_it                                   output.o
PKCS7_SIGNED_new                                  output.o
PKCS7_SIGNER_INFO_free                            output.o
PKCS7_SIGNER_INFO_get0_algs                       output.o
PKCS7_SIGNER_INFO_it                              output.o
PKCS7_SIGNER_INFO_new                             output.o
PKCS7_SIGNER_INFO_set                             output.o
PKCS7_SIGNER_INFO_sign                            output.o
PKCS7_SIGN_ENVELOPE_free                          output.o
PKCS7_SIGN_ENVELOPE_it                            output.o
PKCS7_SIGN_ENVELOPE_new                           output.o
PKCS7_add0_attrib_signing_time                    output.o
PKCS7_add1_attrib_digest                          output.o
PKCS7_add_attrib_content_type                     output.o
PKCS7_add_attrib_smimecap                         output.o
PKCS7_add_attribute                               output.o
PKCS7_add_certificate                             output.o
PKCS7_add_crl                                     output.o
PKCS7_add_recipient                               output.o
PKCS7_add_recipient_info                          output.o
PKCS7_add_signature                               output.o
PKCS7_add_signed_attribute                        output.o
PKCS7_add_signer                                  output.o
PKCS7_cert_from_signer_info                       output.o
PKCS7_content_new                                 output.o
PKCS7_ctrl                                        output.o
PKCS7_dataDecode                                  output.o
PKCS7_dataFinal                                   output.o
PKCS7_dataInit                                    output.o
PKCS7_dataVerify                                  output.o
PKCS7_digest_from_attributes                      output.o
PKCS7_dup                                         output.o
PKCS7_free                                        output.o
PKCS7_get_attribute                               output.o
PKCS7_get_issuer_and_serial                       output.o
PKCS7_get_signed_attribute                        output.o
PKCS7_get_signer_info                             output.o
PKCS7_get_smimecap                                output.o
PKCS7_it                                          output.o
PKCS7_new                                         output.o
PKCS7_print_ctx                                   output.o
PKCS7_set0_type_other                             output.o
PKCS7_set_attributes                              output.o
PKCS7_set_cipher                                  output.o
PKCS7_set_content                                 output.o
PKCS7_set_digest                                  output.o
PKCS7_set_signed_attributes                       output.o
PKCS7_set_type                                    output.o
PKCS7_signatureVerify                             output.o
PKCS7_simple_smimecap                             output.o
PKCS7_stream                                      output.o
PKCS8_PRIV_KEY_INFO_free                          output.o
PKCS8_PRIV_KEY_INFO_it                            output.o
PKCS8_PRIV_KEY_INFO_new                           output.o
PKCS8_decrypt                                     output.o
PKCS8_encrypt                                     output.o
PKCS8_pkey_get0                                   output.o
PKCS8_pkey_set0                                   output.o
PKCS8_set_broken                                  output.o
PKEY_USAGE_PERIOD_free                            output.o
PKEY_USAGE_PERIOD_it                              output.o
PKEY_USAGE_PERIOD_new                             output.o
POLICYINFO_free                                   output.o
POLICYINFO_it                                     output.o
POLICYINFO_new                                    output.o
POLICYQUALINFO_free                               output.o
POLICYQUALINFO_it                                 output.o
POLICYQUALINFO_new                                output.o
POLICY_CONSTRAINTS_free                           output.o
POLICY_CONSTRAINTS_it                             output.o
POLICY_CONSTRAINTS_new                            output.o
POLICY_MAPPINGS_it                                output.o
POLICY_MAPPING_free                               output.o
POLICY_MAPPING_it                                 output.o
POLICY_MAPPING_new                                output.o
PROXY_CERT_INFO_EXTENSION_free                    output.o
PROXY_CERT_INFO_EXTENSION_it                      output.o
PROXY_CERT_INFO_EXTENSION_new                     output.o
PROXY_POLICY_free                                 output.o
PROXY_POLICY_it                                   output.o
PROXY_POLICY_new                                  output.o
PowerOff                                          output.o
PowerOn                                           output.o
RAND_SSLeay                                       output.o
RAND_add                                          output.o
RAND_bytes                                        output.o
RAND_cleanup                                      output.o
RAND_get_rand_method                              output.o
RAND_poll                                         output.o
RAND_pseudo_bytes                                 output.o
RAND_seed                                         output.o
RAND_set_rand_method                              output.o
RAND_status                                       output.o
RAND_version                                      output.o
RC2_cbc_encrypt                                   output.o
RC2_cfb64_encrypt                                 output.o
RC2_decrypt                                       output.o
RC2_ecb_encrypt                                   output.o
RC2_encrypt                                       output.o
RC2_ofb64_encrypt                                 output.o
RC2_set_key                                       output.o
RC2_version                                       output.o
RC4                                               output.o
RC4_options                                       output.o
RC4_set_key                                       output.o
RC4_version                                       output.o
RFAddReader                                       output.o
RFCheckReaderEventState                           output.o
RFReaderInfoById                                  output.o
RFRemoveReader                                    output.o
RIPEMD160_Final                                   output.o
RIPEMD160_Init                                    output.o
RIPEMD160_Transform                               output.o
RIPEMD160_Update                                  output.o
RMD160_version                                    output.o
RSAPrivateKey_dup                                 output.o
RSAPrivateKey_it                                  output.o
RSAPublicKey_dup                                  output.o
RSAPublicKey_it                                   output.o
RSA_PKCS1_SSLeay                                  output.o
RSA_X931_hash_id                                  output.o
RSA_blinding_off                                  output.o
RSA_blinding_on                                   output.o
RSA_flags                                         output.o
RSA_free                                          output.o
RSA_generate_key                                  output.o
RSA_generate_key_ex                               output.o
RSA_get_default_method                            output.o
RSA_get_ex_data                                   output.o
RSA_get_ex_new_index                              output.o
RSA_get_method                                    output.o
RSA_memory_lock                                   output.o
RSA_new                                           output.o
RSA_new_method                                    output.o
RSA_padding_add_PKCS1_OAEP                        output.o
RSA_padding_add_PKCS1_PSS                         output.o
RSA_padding_add_PKCS1_type_1                      output.o
RSA_padding_add_PKCS1_type_2                      output.o
RSA_padding_add_SSLv23                            output.o
RSA_padding_add_X931                              output.o
RSA_padding_add_none                              output.o
RSA_padding_check_PKCS1_OAEP                      output.o
RSA_padding_check_PKCS1_type_1                    output.o
RSA_padding_check_PKCS1_type_2                    output.o
RSA_padding_check_SSLv23                          output.o
RSA_padding_check_X931                            output.o
RSA_padding_check_none                            output.o
RSA_private_decrypt                               output.o
RSA_private_encrypt                               output.o
RSA_public_decrypt                                output.o
RSA_public_encrypt                                output.o
RSA_set_default_method                            output.o
RSA_set_ex_data                                   output.o
RSA_set_method                                    output.o
RSA_setup_blinding                                output.o
RSA_sign                                          output.o
RSA_size                                          output.o
RSA_up_ref                                        output.o
RSA_verify                                        output.o
RSA_verify_PKCS1_PSS                              output.o
RSA_version                                       output.o
ReadBinary                                        output.o
ReadDataT0                                        output.o
ReadUSB                                           output.o
ReceiveReply                                      output.o
SCardBeginTransaction                             output.o
SCardConnect                                      output.o
SCardDisconnect                                   output.o
SCardEndTransaction                               output.o
SCardEstablishContext                             output.o
SCardListReaders                                  output.o
SCardReleaseContext                               output.o
SCardStatus                                       output.o
SCardTransmit                                     output.o
SHA1                                              output.o
SHA1_Final                                        output.o
SHA1_Init                                         output.o
SHA1_Transform                                    output.o
SHA1_Update                                       output.o
SHA1_version                                      output.o
SHA224                                            output.o
SHA224_Final                                      output.o
SHA224_Init                                       output.o
SHA224_Update                                     output.o
SHA256                                            output.o
SHA256_Final                                      output.o
SHA256_Init                                       output.o
SHA256_Transform                                  output.o
SHA256_Update                                     output.o
SHA256_version                                    output.o
SHA384                                            output.o
SHA384_Final                                      output.o
SHA384_Init                                       output.o
SHA384_Update                                     output.o
SHA512                                            output.o
SHA512_Final                                      output.o
SHA512_Init                                       output.o
SHA512_Transform                                  output.o
SHA512_Update                                     output.o
SHA512_version                                    output.o
SHA_Final                                         output.o
SHA_Init                                          output.o
SHA_Transform                                     output.o
SHA_Update                                        output.o
SHA_version                                       output.o
SMIME_crlf_copy                                   output.o
SMIME_read_ASN1                                   output.o
SMIME_read_CMS                                    output.o
SMIME_text                                        output.o
SMIME_write_ASN1                                  output.o
SMIME_write_CMS                                   output.o
STACK_version                                     output.o
SXNETID_free                                      output.o
SXNETID_it                                        output.o
SXNETID_new                                       output.o
SXNET_add_id_INTEGER                              output.o
SXNET_add_id_asc                                  output.o
SXNET_add_id_ulong                                output.o
SXNET_free                                        output.o
SXNET_get_id_INTEGER                              output.o
SXNET_get_id_asc                                  output.o
SXNET_get_id_ulong                                output.o
SXNET_it                                          output.o
SXNET_new                                         output.o
Se4AddArpEntryList                                output.o
Se4AdjustTcpMss                                   output.o
Se4And                                            output.o
Se4BitToHex                                       output.o
Se4BroadcastMacAddress                            output.o
Se4BuildIcmpEchoPacket                            output.o
Se4CheckUnicastAddress                            output.o
Se4Cmp                                            output.o
Se4CmpArpEntry                                    output.o
Se4CmpArpWaitEntry                                output.o
Se4CmpIpCombineList                               output.o
Se4CombineIp                                      output.o
Se4FlushArpEntryList                              output.o
Se4FlushIpCombineList                             output.o
Se4FlushIpWaitList                                output.o
Se4Free                                           output.o
Se4FreeArpEntryList                               output.o
Se4FreeArpWaitList                                output.o
Se4FreeIpCombine                                  output.o
Se4FreeIpCombineList                              output.o
Se4FreeIpFragmentList                             output.o
Se4FreeIpHeaderInfo                               output.o
Se4FreeIpWait                                     output.o
Se4FreeIpWaitList                                 output.o
Se4GenerateSubnetMask                             output.o
Se4GenerateSubnetMask32                           output.o
Se4GetBroadcastAddress                            output.o
Se4GetHostAddress                                 output.o
Se4GetNetworkAddress                              output.o
Se4IPToStr                                        output.o
Se4IPToStr32                                      output.o
Se4IPToUINT                                       output.o
Se4Init                                           output.o
Se4InitArpEntryList                               output.o
Se4InitArpWaitList                                output.o
Se4InitIpCombineList                              output.o
Se4InitIpFragmentList                             output.o
Se4InitIpWaitList                                 output.o
Se4InsertIpCombine                                output.o
Se4InsertIpWait                                   output.o
Se4IpCheckChecksum                                output.o
Se4IpChecksum                                     output.o
Se4IsBroadcastAddress                             output.o
Se4IsInSameNetwork                                output.o
Se4IsSubnetMask                                   output.o
Se4IsZeroIP                                       output.o
Se4MacIpRelationKnown                             output.o
Se4MainProc                                       output.o
Se4Not                                            output.o
Se4Or                                             output.o
Se4ParseIpPacket                                  output.o
Se4ParseIpPacketICMPv4                            output.o
Se4ParseIpPacketUDPv4                             output.o
Se4ProcessArpWaitList                             output.o
Se4RecvArp                                        output.o
Se4RecvArpRequest                                 output.o
Se4RecvArpResponse                                output.o
Se4RecvEthPacket                                  output.o
Se4RecvIp                                         output.o
Se4RecvIpComplete                                 output.o
Se4SearchArpEntryList                             output.o
Se4SearchArpWaitList                              output.o
Se4SearchIpCombineList                            output.o
Se4SendArpDoProcess                               output.o
Se4SendArpRequest                                 output.o
Se4SendArpResponse                                output.o
Se4SendEthPacket                                  output.o
Se4SendIcmp                                       output.o
Se4SendIcmpEchoRequest                            output.o
Se4SendIcmpEchoResponse                           output.o
Se4SendIp                                         output.o
Se4SendIpFragment                                 output.o
Se4SendIpFragmentNow                              output.o
Se4SendRawIp                                      output.o
Se4SendUdp                                        output.o
Se4SendWaitingIpWait                              output.o
Se4StrToIP                                        output.o
Se4StrToIP32                                      output.o
Se4Tick                                           output.o
Se4UINTToIP                                       output.o
Se4ZeroIP                                         output.o
Se6AddGuestNode                                   output.o
Se6AddNeighborEntryList                           output.o
Se6And                                            output.o
Se6BroadcastMacAddress                            output.o
Se6BuildIcmpEchoPacket                            output.o
Se6CalcChecksum                                   output.o
Se6CheckIPItemStr                                 output.o
Se6CheckSubnetLength                              output.o
Se6CheckUnicastAddress                            output.o
Se6Cmp                                            output.o
Se6CmpIpCombineList                               output.o
Se6CmpNdpWaitEntry                                output.o
Se6CmpNeighborEntry                               output.o
Se6CombineIp                                      output.o
Se6FlushIpCombineList                             output.o
Se6FlushIpWaitList                                output.o
Se6FlushNeighborEntryList                         output.o
Se6Free                                           output.o
Se6FreeIpCombine                                  output.o
Se6FreeIpCombineList                              output.o
Se6FreeIpFragmentList                             output.o
Se6FreeIpHeaderInfo                               output.o
Se6FreeIpWait                                     output.o
Se6FreeIpWaitList                                 output.o
Se6FreeNdpWaitList                                output.o
Se6FreeNeighborEntryList                          output.o
Se6GenerateEui64Address                           output.o
Se6GenerateEui64GlobalAddress                     output.o
Se6GenerateEui64LocalAddress                      output.o
Se6GenerateMulticastMacAddress                    output.o
Se6GenerateSubnetMask                             output.o
Se6GetAllNodeMulticastAddr                        output.o
Se6GetAllRouterMulticastAddr                      output.o
Se6GetHostAddress                                 output.o
Se6GetIPAddrType                                  output.o
Se6GetPrefixAddress                               output.o
Se6GetSoliciationMulticastAddr                    output.o
Se6IPItemStrToChars                               output.o
Se6IPToStr                                        output.o
Se6Init                                           output.o
Se6InitIpCombineList                              output.o
Se6InitIpFragmentList                             output.o
Se6InitIpWaitList                                 output.o
Se6InitNdpWaitList                                output.o
Se6InitNeighborEntryList                          output.o
Se6InsertIpCombine                                output.o
Se6InsertIpWait                                   output.o
Se6IpChecksum                                     output.o
Se6IsGuestNode                                    output.o
Se6IsInSameNetwork                                output.o
Se6IsNetworkPrefixAddress                         output.o
Se6IsSubnetMask                                   output.o
Se6IsZeroIP                                       output.o
Se6LocalSubnet                                    output.o
Se6MacIpRelationKnown                             output.o
Se6MainProc                                       output.o
Se6Not                                            output.o
Se6Or                                             output.o
Se6ParseIpPacket                                  output.o
Se6ParseIpPacketICMPv6                            output.o
Se6ParseIpPacketUDPv6                             output.o
Se6ProcessNdpWaitList                             output.o
Se6RecvEthPacket                                  output.o
Se6RecvIp                                         output.o
Se6RecvIpComplete                                 output.o
Se6SearchIpCombineList                            output.o
Se6SearchNdpWaitList                              output.o
Se6SearchNeighborEntryList                        output.o
Se6SendEthPacket                                  output.o
Se6SendIcmp                                       output.o
Se6SendIcmpEchoRequest                            output.o
Se6SendIcmpEchoResponse                           output.o
Se6SendIcmpNeighborAdvertisement                  output.o
Se6SendIcmpNeighborSoliciation                    output.o
Se6SendIcmpRouterAdvertisement                    output.o
Se6SendIp                                         output.o
Se6SendIpFragment                                 output.o
Se6SendIpFragmentNow                              output.o
Se6SendNeighborSoliciation                        output.o
Se6SendNeighborSoliciationDoProcess               output.o
Se6SendRawIp                                      output.o
Se6SendUdp                                        output.o
Se6SendWaitingIpWait                              output.o
Se6StrToIP                                        output.o
Se6SubnetMaskToInt                                output.o
Se6Tick                                           output.o
Se6ZeroIP                                         output.o
SeAdd                                             output.o
SeAddBufStr                                       output.o
SeAdjustBufSize                                   output.o
SeB64CharToCode                                   output.o
SeB64CodeToChar                                   output.o
SeB64Decode                                       output.o
SeB64Encode                                       output.o
SeBSearch                                         output.o
SeBigNumToBuf                                     output.o
SeBigNumToStr                                     output.o
SeBinToBigNum                                     output.o
SeBinToStr                                        output.o
SeBinToStrEx                                      output.o
SeBioToBuf                                        output.o
SeBioToCert                                       output.o
SeBioToKey                                        output.o
SeBufToBigNum                                     output.o
SeBufToBio                                        output.o
SeBufToCert                                       output.o
SeBufToKey                                        output.o
SeBuildAndAddIPv6PacketOptionHeader               output.o
SeBuildICMPv6OptionValue                          output.o
SeBuildICMPv6Options                              output.o
SeBuildIPv6Packet                                 output.o
SeBuildIPv6PacketWithFragment                     output.o
SeCalcReplaceStrEx                                output.o
SeCertToBio                                       output.o
SeCertToBuf                                       output.o
SeCheckCert                                       output.o
SeCheckCertAndKey                                 output.o
SeCheckSignature                                  output.o
SeClearBuf                                        output.o
SeClearFifo                                       output.o
SeClone                                           output.o
SeCloneBuf                                        output.o
SeCloneCert                                       output.o
SeCloneKey                                        output.o
SeCloneList                                       output.o
SeCmp                                             output.o
SeCmpBuf                                          output.o
SeCmpEx                                           output.o
SeCompareCert                                     output.o
SeCompareStr                                      output.o
SeCopy                                            output.o
SeCopyStr                                         output.o
SeCopyToArray                                     output.o
SeDebug                                           output.o
SeDebugBin                                        output.o
SeDefaultTokenSplitChars                          output.o
SeDelete                                          output.o
SeDeleteAll                                       output.o
SeDeleteLock                                      output.o
SeDes3Decrypt                                     output.o
SeDes3Encrypt                                     output.o
SeDes3FreeKey                                     output.o
SeDes3NewKey                                      output.o
SeDes3RandKey                                     output.o
SeDesFreeKey                                      output.o
SeDesFreeKeyValue                                 output.o
SeDesNewKey                                       output.o
SeDesNewKeyValue                                  output.o
SeDesRandKey                                      output.o
SeDesRandKeyValue                                 output.o
SeDhCompute                                       output.o
SeDhFree                                          output.o
SeDhNew                                           output.o
SeDhNewGroup2                                     output.o
SeDumpBuf                                         output.o
SeEndWith                                         output.o
SeEndian16                                        output.o
SeEndian32                                        output.o
SeEndian64                                        output.o
SeError                                           output.o
SeEthAddSenderMacList                             output.o
SeEthDeleteOldSenderMacList                       output.o
SeEthFree                                         output.o
SeEthGenRandMacAddress                            output.o
SeEthGetInfo                                      output.o
SeEthGetNextRecvPacket                            output.o
SeEthIsSenderMacAddressExistsInList               output.o
SeEthNew                                          output.o
SeEthNicCallback                                  output.o
SeEthParseEthernetPacket                          output.o
SeEthSend                                         output.o
SeEthSendAdd                                      output.o
SeEthSendAll                                      output.o
SeFastSwap                                        output.o
SeFatal                                           output.o
SeFifoSize                                        output.o
SeFormat                                          output.o
SeFormatArgs                                      output.o
SeFormatEx                                        output.o
SeFree                                            output.o
SeFreeBio                                         output.o
SeFreeBuf                                         output.o
SeFreeBufWithoutBuffer                            output.o
SeFreeCert                                        output.o
SeFreeConfigEntryList                             output.o
SeFreeCrypto                                      output.o
SeFreeFifo                                        output.o
SeFreeKernel                                      output.o
SeFreeKey                                         output.o
SeFreeList                                        output.o
SeFreePKey                                        output.o
SeFreePacket                                      output.o
SeFreePacketList                                  output.o
SeFreePacketListWithoutBuffer                     output.o
SeFreeQueue                                       output.o
SeFreeStack                                       output.o
SeFreeToken                                       output.o
SeFreeX509                                        output.o
SeGetCertIssuerName                               output.o
SeGetCertMd5                                      output.o
SeGetCertSha1                                     output.o
SeGetCertSubjectName                              output.o
SeGetConfigBin                                    output.o
SeGetConfigBool                                   output.o
SeGetConfigEntry                                  output.o
SeGetConfigInt                                    output.o
SeGetConfigInt64                                  output.o
SeGetConfigStr                                    output.o
SeGetCurrentCpuId                                 output.o
SeGetKeyAndValue                                  output.o
SeGetKeyFromCert                                  output.o
SeGetNext                                         output.o
SeGetNextHeaderFromQueue                          output.o
SeGetNextInt                                      output.o
SeHashForSignBySHA1                               output.o
SeHexTo4Bit                                       output.o
SeHexToInt                                        output.o
SeHexToInt64                                      output.o
SeIkeBuild                                        output.o
SeIkeBuildCertPayload                             output.o
SeIkeBuildCertRequestPayload                      output.o
SeIkeBuildDataPayload                             output.o
SeIkeBuildDeletePayload                           output.o
SeIkeBuildIdPayload                               output.o
SeIkeBuildNoticePayload                           output.o
SeIkeBuildPayload                                 output.o
SeIkeBuildPayloadList                             output.o
SeIkeBuildProposalPayload                         output.o
SeIkeBuildSaPayload                               output.o
SeIkeBuildTransformPayload                        output.o
SeIkeBuildTransformValue                          output.o
SeIkeBuildTransformValueList                      output.o
SeIkeDecrypt                                      output.o
SeIkeEncrypt                                      output.o
SeIkeEncryptWithPadding                           output.o
SeIkeFree                                         output.o
SeIkeFreeCertPayload                              output.o
SeIkeFreeCertRequestPayload                       output.o
SeIkeFreeDataPayload                              output.o
SeIkeFreeDeletePayload                            output.o
SeIkeFreeIdPayload                                output.o
SeIkeFreeNoticePayload                            output.o
SeIkeFreePayload                                  output.o
SeIkeFreePayloadList                              output.o
SeIkeFreeProposalPayload                          output.o
SeIkeFreeSaPayload                                output.o
SeIkeFreeTransformPayload                         output.o
SeIkeFreeTransformValueList                       output.o
SeIkeGetFirstPayloadType                          output.o
SeIkeGetIPv4Address                               output.o
SeIkeGetIPv6Address                               output.o
SeIkeGetPayload                                   output.o
SeIkeGetPayloadNum                                output.o
SeIkeInitIPv4Address                              output.o
SeIkeInitIPv6Address                              output.o
SeIkeIpAddressToStr                               output.o
SeIkeIsZeroIP                                     output.o
SeIkeNew                                          output.o
SeIkeNewCertPayload                               output.o
SeIkeNewCertRequestPayload                        output.o
SeIkeNewDataPayload                               output.o
SeIkeNewDeletePayload                             output.o
SeIkeNewIdPayload                                 output.o
SeIkeNewNoticePayload                             output.o
SeIkeNewPayload                                   output.o
SeIkeNewProposalPayload                           output.o
SeIkeNewSaPayload                                 output.o
SeIkeNewTransformPayload                          output.o
SeIkeNewTransformValue                            output.o
SeIkeParse                                        output.o
SeIkeParseCertPayload                             output.o
SeIkeParseCertRequestPayload                      output.o
SeIkeParseDataPayload                             output.o
SeIkeParseDeletePayload                           output.o
SeIkeParseEx                                      output.o
SeIkeParseHeader                                  output.o
SeIkeParseIdPayload                               output.o
SeIkeParseNoticePayload                           output.o
SeIkeParsePayload                                 output.o
SeIkeParsePayloadList                             output.o
SeIkeParsePayloadListEx                           output.o
SeIkeParseProposalPayload                         output.o
SeIkeParseSaPayload                               output.o
SeIkeParseTransformPayload                        output.o
SeIkeParseTransformValueList                      output.o
SeIkePhase1CryptIdToKeySize                       output.o
SeIkePhase2CryptIdToKeySize                       output.o
SeIkeStrToPassword                                output.o
SeIkeStrToPhase1CryptId                           output.o
SeIkeStrToPhase1HashId                            output.o
SeIkeStrToPhase2CryptId                           output.o
SeIkeStrToPhase2HashId                            output.o
SeInfo                                            output.o
SeInitCrypto                                      output.o
SeInitKernel                                      output.o
SeInsert                                          output.o
SeInsertQueue                                     output.o
SeInsertQueueInt                                  output.o
SeInsertStr                                       output.o
SeIntFree                                         output.o
SeIntInit                                         output.o
SeIsAllLowerStr                                   output.o
SeIsAllUpperStr                                   output.o
SeIsBase64                                        output.o
SeIsBigEndian                                     output.o
SeIsCertSignedByCert                              output.o
SeIsCharInStr                                     output.o
SeIsEmptyStr                                      output.o
SeIsInList                                        output.o
SeIsInListStr                                     output.o
SeIsLittleEndian                                  output.o
SeIsSplitChar                                     output.o
SeIsZero                                          output.o
SeKeyToBio                                        output.o
SeKeyToBuf                                        output.o
SeLoad                                            output.o
SeLoadCert                                        output.o
SeLoadConfigEntryList                             output.o
SeLoadConfigEntryListFromBuf                      output.o
SeLoadKey                                         output.o
SeLock                                            output.o
SeLog                                             output.o
SeLogArgs                                         output.o
SeMacSha1                                         output.o
SeMacSha196                                       output.o
SeMacToStr                                        output.o
SeMakeCharArray                                   output.o
SeMalloc                                          output.o
SeMd5                                             output.o
SeMemSize                                         output.o
SeMemToBuf                                        output.o
SeNewBio                                          output.o
SeNewBuf                                          output.o
SeNewFifo                                         output.o
SeNewList                                         output.o
SeNewLock                                         output.o
SeNewQueue                                        output.o
SeNewStack                                        output.o
SeNormalizeCrlf                                   output.o
SeNullTokenList                                   output.o
SePKeyPasswordCallbackFunction                    output.o
SeParseICMPv6Options                              output.o
SeParseIPv6ExtHeader                              output.o
SeParseIPv6Packet                                 output.o
SeParsePacket                                     output.o
SeParsePacketL2                                   output.o
SeParsePacketL3ARPv4                              output.o
SeParsePacketL3IPv4                               output.o
SeParsePacketL3IPv6                               output.o
SeParseToken                                      output.o
SeParseTokenWithNullStr                           output.o
SePeekFifo                                        output.o
SePeekNext                                        output.o
SePop                                             output.o
SePush                                            output.o
SeQSort                                           output.o
SeRand                                            output.o
SeRand1                                           output.o
SeRand16                                          output.o
SeRand32                                          output.o
SeRand64                                          output.o
SeRand8                                           output.o
SeRandBuf                                         output.o
SeReAlloc                                         output.o
SeReadBuf                                         output.o
SeReadBufFromBuf                                  output.o
SeReadBufInt                                      output.o
SeReadBufInt64                                    output.o
SeReadBufStr                                      output.o
SeReadDump                                        output.o
SeReadFifo                                        output.o
SeReadNextLine                                    output.o
SeReadRemainBuf                                   output.o
SeReplaceListPointer                              output.o
SeReplaceStr                                      output.o
SeReplaceStrEx                                    output.o
SeReplaceStri                                     output.o
SeRsaGen                                          output.o
SeRsaPrivateDecrypt                               output.o
SeRsaPrivateEncrypt                               output.o
SeRsaPublicDecrypt                                output.o
SeRsaPublicEncrypt                                output.o
SeRsaPublicSize                                   output.o
SeRsaPublicToBin                                  output.o
SeRsaPublicToBuf                                  output.o
SeRsaSign                                         output.o
SeRsaSignWithPadding                              output.o
SeRsaSignWithSha1                                 output.o
SeRsaVerifyWithPadding                            output.o
SeRsaVerifyWithSha1                               output.o
SeSave                                            output.o
SeSaveCert                                        output.o
SeSaveKey                                         output.o
SeSearch                                          output.o
SeSearchStr                                       output.o
SeSearchStrEx                                     output.o
SeSearchStri                                      output.o
SeSecAddTimer                                     output.o
SeSecCalcKEYMAT                                   output.o
SeSecCalcKEYMATFull                               output.o
SeSecCalcKa                                       output.o
SeSecCalcP1Iv                                     output.o
SeSecCalcP1KeySet                                 output.o
SeSecCalcP2Iv                                     output.o
SeSecCheckIPsecSaExpires                          output.o
SeSecCheckIkeSaExpires                            output.o
SeSecCmpIkeSa                                     output.o
SeSecDeleteExpiredIPsecSa                         output.o
SeSecDeleteExpiredIkeSa                           output.o
SeSecDoInterval                                   output.o
SeSecEspRecvCallback                              output.o
SeSecForceReconnect                               output.o
SeSecFree                                         output.o
SeSecFreeIPsecSa                                  output.o
SeSecFreeIkeSa                                    output.o
SeSecFreeMain                                     output.o
SeSecFreeP1KeySet                                 output.o
SeSecFreeSaList                                   output.o
SeSecGenIPsecSASpi                                output.o
SeSecGenIkeSaInitCookie                           output.o
SeSecGenIkeSaMessageId                            output.o
SeSecGetIPsecSa                                   output.o
SeSecInit                                         output.o
SeSecInitMain                                     output.o
SeSecInitSaList                                   output.o
SeSecLifeSeconds64bit                             output.o
SeSecNewIPsecSa                                   output.o
SeSecNewIkeSa                                     output.o
SeSecNewSpi                                       output.o
SeSecProcessIkeSaMsg                              output.o
SeSecProcessIkeSaMsgInfo                          output.o
SeSecProcessIkeSaMsgPhase1                        output.o
SeSecProcessIkeSaMsgPhase2                        output.o
SeSecProcessMain                                  output.o
SeSecSearchIPsecSaBySpi                           output.o
SeSecSearchIkeSa                                  output.o
SeSecSearchIkeSaBySpi                             output.o
SeSecSendEsp                                      output.o
SeSecSendIPsecSaDeleteMsg                         output.o
SeSecSendIkeSaDeleteMsg                           output.o
SeSecSendIkeSaMsgInfo                             output.o
SeSecSendIkeSaMsgInfoSimple                       output.o
SeSecSendIkeSaMsgPhase2                           output.o
SeSecSendIkeSaMsgPhase2FinalHash                  output.o
SeSecSendUdp                                      output.o
SeSecSendVirtualIp                                output.o
SeSecSetRecvEspCallback                           output.o
SeSecSetRecvUdpCallback                           output.o
SeSecSetRecvVirtualIpCallback                     output.o
SeSecSetTimerCallback                             output.o
SeSecStartVpnConnect                              output.o
SeSecStrToAuthMethod                              output.o
SeSecTick                                         output.o
SeSecTimerCallback                                output.o
SeSecUdpRecvCallback                              output.o
SeSecVirtualIpRecvCallback                        output.o
SeSeekBuf                                         output.o
SeSetCmp                                          output.o
SeSetSortFlag                                     output.o
SeSha1                                            output.o
SeSort                                            output.o
SeStartWith                                       output.o
SeStrCat                                          output.o
SeStrCheckLen                                     output.o
SeStrCheckSize                                    output.o
SeStrCmp                                          output.o
SeStrCmpi                                         output.o
SeStrCpy                                          output.o
SeStrLen                                          output.o
SeStrLower                                        output.o
SeStrSize                                         output.o
SeStrToBin                                        output.o
SeStrToBinEx                                      output.o
SeStrToMac                                        output.o
SeStrUpper                                        output.o
SeStrnCmp                                         output.o
SeStrnCmpi                                        output.o
SeSwap                                            output.o
SeSwap16                                          output.o
SeSwap32                                          output.o
SeSwap64                                          output.o
SeSysFreeData                                     output.o
SeSysFreeLock                                     output.o
SeSysFreeTimer                                    output.o
SeSysGetCurrentCpuId                              output.o
SeSysGetPhysicalNicInfo                           output.o
SeSysGetTickCount                                 output.o
SeSysGetVirtualNicInfo                            output.o
SeSysLoadData                                     output.o
SeSysLock                                         output.o
SeSysLog                                          output.o
SeSysMemoryAlloc                                  output.o
SeSysMemoryFree                                   output.o
SeSysMemoryReAlloc                                output.o
SeSysNewLock                                      output.o
SeSysNewTimer                                     output.o
SeSysRsaSign                                      output.o
SeSysSaveData                                     output.o
SeSysSendPhysicalNic                              output.o
SeSysSendVirtualNic                               output.o
SeSysSetPhysicalNicRecvCallback                   output.o
SeSysSetTimer                                     output.o
SeSysSetVirtualNicRecvCallback                    output.o
SeSysUnlock                                       output.o
SeTick                                            output.o
SeTick64                                          output.o
SeTick64Internal                                  output.o
SeTimerAdjust                                     output.o
SeTimerCallback                                   output.o
SeTimerEntryCompare                               output.o
SeTimerFree                                       output.o
SeTimerNew                                        output.o
SeTimerSet                                        output.o
SeToArray                                         output.o
SeToHex                                           output.o
SeToHex64                                         output.o
SeToInt                                           output.o
SeToInt64                                         output.o
SeToLower                                         output.o
SeToStr                                           output.o
SeToStr3                                          output.o
SeToStr64                                         output.o
SeToUpper                                         output.o
SeTrim                                            output.o
SeTrimCopy                                        output.o
SeTrimCrlf                                        output.o
SeTrimLeft                                        output.o
SeTrimRight                                       output.o
SeUniqueToken                                     output.o
SeUnlock                                          output.o
SeVpn4ClientAddTimer                              output.o
SeVpn4ClientGetTick                               output.o
SeVpn4ClientSendEsp                               output.o
SeVpn4ClientSendUdp                               output.o
SeVpn4ClientSendVirtualIp                         output.o
SeVpn4ClientSetRecvEspCallback                    output.o
SeVpn4ClientSetRecvUdpCallback                    output.o
SeVpn4ClientSetRecvVirtualIpCallback              output.o
SeVpn4ClientSetTimerCallback                      output.o
SeVpn4DhcpBuildDhcpOptionList                     output.o
SeVpn4DhcpFreeOptionList                          output.o
SeVpn4DhcpOptionsToBuf                            output.o
SeVpn4DhcpParseOptionList                         output.o
SeVpn4DhcpParseOptionListMain                     output.o
SeVpn4DhcpSearchOption                            output.o
SeVpn4DhcpSendResponse                            output.o
SeVpn4DhcpServer                                  output.o
SeVpn4DoInterval                                  output.o
SeVpn4Free                                        output.o
SeVpn4FreeIPsec                                   output.o
SeVpn4IPsecInputFromPhysical                      output.o
SeVpn4IPsecInputFromVirtual                       output.o
SeVpn4IPsecMainProc                               output.o
SeVpn4IPsecSendPing                               output.o
SeVpn4Init                                        output.o
SeVpn4InitIPsec                                   output.o
SeVpn4InitSecConfig                               output.o
SeVpn4MainProc                                    output.o
SeVpn4NewDhcpOption                               output.o
SeVpn4RecvPacketPhysical                          output.o
SeVpn4RecvPacketVirtual                           output.o
SeVpn4SetTimer                                    output.o
SeVpn4Tick                                        output.o
SeVpn6ClientAddTimer                              output.o
SeVpn6ClientGetTick                               output.o
SeVpn6ClientSendEsp                               output.o
SeVpn6ClientSendUdp                               output.o
SeVpn6ClientSendVirtualIp                         output.o
SeVpn6ClientSetRecvEspCallback                    output.o
SeVpn6ClientSetRecvUdpCallback                    output.o
SeVpn6ClientSetRecvVirtualIpCallback              output.o
SeVpn6ClientSetTimerCallback                      output.o
SeVpn6DoInterval                                  output.o
SeVpn6Free                                        output.o
SeVpn6FreeIPsec                                   output.o
SeVpn6IPsecInputFromPhysical                      output.o
SeVpn6IPsecInputFromVirtual                       output.o
SeVpn6IPsecMainProc                               output.o
SeVpn6IPsecSendPing                               output.o
SeVpn6Init                                        output.o
SeVpn6InitIPsec                                   output.o
SeVpn6InitSecConfig                               output.o
SeVpn6MainProc                                    output.o
SeVpn6RecvPacketPhysical                          output.o
SeVpn6RecvPacketVirtual                           output.o
SeVpn6SetTimer                                    output.o
SeVpn6Tick                                        output.o
SeVpn6UpdateGuestOsIpAddress                      output.o
SeVpnAddTimer                                     output.o
SeVpnDoInterval                                   output.o
SeVpnEthRecvCallback                              output.o
SeVpnFree                                         output.o
SeVpnFreeConfig                                   output.o
SeVpnFreeIpStack                                  output.o
SeVpnInit                                         output.o
SeVpnInitIpStack                                  output.o
SeVpnLoadConfig                                   output.o
SeVpnMainFree                                     output.o
SeVpnMainHandler                                  output.o
SeVpnMainInit                                     output.o
SeVpnMainProcRecvEtherPacket                      output.o
SeVpnMainProcess                                  output.o
SeVpnRecvEtherPacket                              output.o
SeVpnRecvIpV4PacketCallback                       output.o
SeVpnRecvIpV6PacketCallback                       output.o
SeVpnSendEtherPacket                              output.o
SeVpnStatusChanged                                output.o
SeVpnTick                                         output.o
SeVpnTimerCallback                                output.o
SeWarning                                         output.o
SeWriteBuf                                        output.o
SeWriteBufBuf                                     output.o
SeWriteBufInt                                     output.o
SeWriteBufInt64                                   output.o
SeWriteBufLine                                    output.o
SeWriteBufStr                                     output.o
SeWriteFifo                                       output.o
SeX509ToCert                                      output.o
SeZero                                            output.o
SeZeroMalloc                                      output.o
SelectFileDF                                      output.o
SelectFileEF                                      output.o
SetATR                                            output.o
SetElem                                           output.o
SetLength                                         output.o
StIsdigit                                         output.o
StIsspace                                         output.o
T0XfrBlockCHAR                                    output.o
T0XfrBlockTPDU                                    output.o
T1NegociateIFSD                                   output.o
T1XfrBlockExtendedAPDU                            output.o
T1XfrBlockTPDU                                    output.o
TransHex2Tex                                      output.o
TransTex2Hex                                      output.o
TransmitCommand                                   output.o
TransmitPPS                                       output.o
UI_OpenSSL                                        output.o
UI_add_error_string                               output.o
UI_add_info_string                                output.o
UI_add_input_boolean                              output.o
UI_add_input_string                               output.o
UI_add_user_data                                  output.o
UI_add_verify_string                              output.o
UI_construct_prompt                               output.o
UI_create_method                                  output.o
UI_ctrl                                           output.o
UI_destroy_method                                 output.o
UI_dup_error_string                               output.o
UI_dup_info_string                                output.o
UI_dup_input_boolean                              output.o
UI_dup_input_string                               output.o
UI_dup_verify_string                              output.o
UI_free                                           output.o
UI_get0_action_string                             output.o
UI_get0_output_string                             output.o
UI_get0_result                                    output.o
UI_get0_result_string                             output.o
UI_get0_test_string                               output.o
UI_get0_user_data                                 output.o
UI_get_default_method                             output.o
UI_get_ex_data                                    output.o
UI_get_ex_new_index                               output.o
UI_get_input_flags                                output.o
UI_get_method                                     output.o
UI_get_result_maxsize                             output.o
UI_get_result_minsize                             output.o
UI_get_string_type                                output.o
UI_method_get_closer                              output.o
UI_method_get_flusher                             output.o
UI_method_get_opener                              output.o
UI_method_get_prompt_constructor                  output.o
UI_method_get_reader                              output.o
UI_method_get_writer                              output.o
UI_method_set_closer                              output.o
UI_method_set_flusher                             output.o
UI_method_set_opener                              output.o
UI_method_set_prompt_constructor                  output.o
UI_method_set_reader                              output.o
UI_method_set_writer                              output.o
UI_new                                            output.o
UI_new_method                                     output.o
UI_process                                        output.o
UI_set_default_method                             output.o
UI_set_ex_data                                    output.o
UI_set_method                                     output.o
UI_set_result                                     output.o
USERNOTICE_free                                   output.o
USERNOTICE_it                                     output.o
USERNOTICE_new                                    output.o
UTF8_getc                                         output.o
UTF8_putc                                         output.o
UpdateBinary                                      output.o
VPN_IPsec_Client_Start                            output.o
VPN_IPsec_Client_Stop                             output.o
VPN_IPsec_Free                                    output.o
VPN_IPsec_Init                                    output.o
Verify                                            output.o
WHIRLPOOL                                         output.o
WHIRLPOOL_BitUpdate                               output.o
WHIRLPOOL_Final                                   output.o
WHIRLPOOL_Init                                    output.o
WHIRLPOOL_Update                                  output.o
WriteUSB                                          output.o
X509V3_EXT_CRL_add_conf                           output.o
X509V3_EXT_CRL_add_nconf                          output.o
X509V3_EXT_REQ_add_conf                           output.o
X509V3_EXT_REQ_add_nconf                          output.o
X509V3_EXT_add                                    output.o
X509V3_EXT_add_alias                              output.o
X509V3_EXT_add_conf                               output.o
X509V3_EXT_add_list                               output.o
X509V3_EXT_add_nconf                              output.o
X509V3_EXT_add_nconf_sk                           output.o
X509V3_EXT_cleanup                                output.o
X509V3_EXT_conf                                   output.o
X509V3_EXT_conf_nid                               output.o
X509V3_EXT_d2i                                    output.o
X509V3_EXT_get                                    output.o
X509V3_EXT_get_nid                                output.o
X509V3_EXT_i2d                                    output.o
X509V3_EXT_nconf                                  output.o
X509V3_EXT_nconf_nid                              output.o
X509V3_EXT_print                                  output.o
X509V3_EXT_val_prn                                output.o
X509V3_NAME_from_section                          output.o
X509V3_add1_i2d                                   output.o
X509V3_add_standard_extensions                    output.o
X509V3_add_value                                  output.o
X509V3_add_value_bool                             output.o
X509V3_add_value_bool_nf                          output.o
X509V3_add_value_int                              output.o
X509V3_add_value_uchar                            output.o
X509V3_conf_free                                  output.o
X509V3_extensions_print                           output.o
X509V3_get_d2i                                    output.o
X509V3_get_section                                output.o
X509V3_get_string                                 output.o
X509V3_get_value_bool                             output.o
X509V3_get_value_int                              output.o
X509V3_parse_list                                 output.o
X509V3_section_free                               output.o
X509V3_set_conf_lhash                             output.o
X509V3_set_ctx                                    output.o
X509V3_set_nconf                                  output.o
X509V3_string_free                                output.o
X509_ALGORS_it                                    output.o
X509_ALGOR_dup                                    output.o
X509_ALGOR_free                                   output.o
X509_ALGOR_get0                                   output.o
X509_ALGOR_it                                     output.o
X509_ALGOR_new                                    output.o
X509_ALGOR_set0                                   output.o
X509_ATTRIBUTE_SET_it                             output.o
X509_ATTRIBUTE_count                              output.o
X509_ATTRIBUTE_create                             output.o
X509_ATTRIBUTE_create_by_NID                      output.o
X509_ATTRIBUTE_create_by_OBJ                      output.o
X509_ATTRIBUTE_create_by_txt                      output.o
X509_ATTRIBUTE_dup                                output.o
X509_ATTRIBUTE_free                               output.o
X509_ATTRIBUTE_get0_data                          output.o
X509_ATTRIBUTE_get0_object                        output.o
X509_ATTRIBUTE_get0_type                          output.o
X509_ATTRIBUTE_it                                 output.o
X509_ATTRIBUTE_new                                output.o
X509_ATTRIBUTE_set1_data                          output.o
X509_ATTRIBUTE_set1_object                        output.o
X509_CERT_AUX_free                                output.o
X509_CERT_AUX_it                                  output.o
X509_CERT_AUX_new                                 output.o
X509_CERT_AUX_print                               output.o
X509_CERT_PAIR_free                               output.o
X509_CERT_PAIR_it                                 output.o
X509_CERT_PAIR_new                                output.o
X509_CINF_free                                    output.o
X509_CINF_it                                      output.o
X509_CINF_new                                     output.o
X509_CRL_INFO_free                                output.o
X509_CRL_INFO_it                                  output.o
X509_CRL_INFO_new                                 output.o
X509_CRL_METHOD_free                              output.o
X509_CRL_METHOD_new                               output.o
X509_CRL_add0_revoked                             output.o
X509_CRL_add1_ext_i2d                             output.o
X509_CRL_add_ext                                  output.o
X509_CRL_cmp                                      output.o
X509_CRL_delete_ext                               output.o
X509_CRL_digest                                   output.o
X509_CRL_dup                                      output.o
X509_CRL_free                                     output.o
X509_CRL_get0_by_cert                             output.o
X509_CRL_get0_by_serial                           output.o
X509_CRL_get_ext                                  output.o
X509_CRL_get_ext_by_NID                           output.o
X509_CRL_get_ext_by_OBJ                           output.o
X509_CRL_get_ext_by_critical                      output.o
X509_CRL_get_ext_count                            output.o
X509_CRL_get_ext_d2i                              output.o
X509_CRL_get_meth_data                            output.o
X509_CRL_it                                       output.o
X509_CRL_match                                    output.o
X509_CRL_new                                      output.o
X509_CRL_set_default_method                       output.o
X509_CRL_set_meth_data                            output.o
X509_CRL_sign                                     output.o
X509_CRL_verify                                   output.o
X509_EXTENSIONS_it                                output.o
X509_EXTENSION_create_by_NID                      output.o
X509_EXTENSION_create_by_OBJ                      output.o
X509_EXTENSION_dup                                output.o
X509_EXTENSION_free                               output.o
X509_EXTENSION_get_critical                       output.o
X509_EXTENSION_get_data                           output.o
X509_EXTENSION_get_object                         output.o
X509_EXTENSION_it                                 output.o
X509_EXTENSION_new                                output.o
X509_EXTENSION_set_critical                       output.o
X509_EXTENSION_set_data                           output.o
X509_EXTENSION_set_object                         output.o
X509_LOOKUP_by_alias                              output.o
X509_LOOKUP_by_fingerprint                        output.o
X509_LOOKUP_by_issuer_serial                      output.o
X509_LOOKUP_by_subject                            output.o
X509_LOOKUP_ctrl                                  output.o
X509_LOOKUP_free                                  output.o
X509_LOOKUP_init                                  output.o
X509_LOOKUP_new                                   output.o
X509_LOOKUP_shutdown                              output.o
X509_NAME_ENTRIES_it                              output.o
X509_NAME_ENTRY_create_by_NID                     output.o
X509_NAME_ENTRY_create_by_OBJ                     output.o
X509_NAME_ENTRY_create_by_txt                     output.o
X509_NAME_ENTRY_dup                               output.o
X509_NAME_ENTRY_free                              output.o
X509_NAME_ENTRY_get_data                          output.o
X509_NAME_ENTRY_get_object                        output.o
X509_NAME_ENTRY_it                                output.o
X509_NAME_ENTRY_new                               output.o
X509_NAME_ENTRY_set_data                          output.o
X509_NAME_ENTRY_set_object                        output.o
X509_NAME_INTERNAL_it                             output.o
X509_NAME_add_entry                               output.o
X509_NAME_add_entry_by_NID                        output.o
X509_NAME_add_entry_by_OBJ                        output.o
X509_NAME_add_entry_by_txt                        output.o
X509_NAME_cmp                                     output.o
X509_NAME_delete_entry                            output.o
X509_NAME_digest                                  output.o
X509_NAME_dup                                     output.o
X509_NAME_entry_count                             output.o
X509_NAME_free                                    output.o
X509_NAME_get_entry                               output.o
X509_NAME_get_index_by_NID                        output.o
X509_NAME_get_index_by_OBJ                        output.o
X509_NAME_get_text_by_NID                         output.o
X509_NAME_get_text_by_OBJ                         output.o
X509_NAME_hash                                    output.o
X509_NAME_hash_old                                output.o
X509_NAME_it                                      output.o
X509_NAME_new                                     output.o
X509_NAME_oneline                                 output.o
X509_NAME_print                                   output.o
X509_NAME_print_ex                                output.o
X509_NAME_set                                     output.o
X509_OBJECT_free_contents                         output.o
X509_OBJECT_idx_by_subject                        output.o
X509_OBJECT_retrieve_by_subject                   output.o
X509_OBJECT_retrieve_match                        output.o
X509_OBJECT_up_ref_count                          output.o
X509_POLICY_NODE_print                            output.o
X509_PUBKEY_free                                  output.o
X509_PUBKEY_get                                   output.o
X509_PUBKEY_get0_param                            output.o
X509_PUBKEY_it                                    output.o
X509_PUBKEY_new                                   output.o
X509_PUBKEY_set                                   output.o
X509_PUBKEY_set0_param                            output.o
X509_PURPOSE_add                                  output.o
X509_PURPOSE_cleanup                              output.o
X509_PURPOSE_get0                                 output.o
X509_PURPOSE_get0_name                            output.o
X509_PURPOSE_get0_sname                           output.o
X509_PURPOSE_get_by_id                            output.o
X509_PURPOSE_get_by_sname                         output.o
X509_PURPOSE_get_count                            output.o
X509_PURPOSE_get_id                               output.o
X509_PURPOSE_get_trust                            output.o
X509_PURPOSE_set                                  output.o
X509_REQ_INFO_free                                output.o
X509_REQ_INFO_it                                  output.o
X509_REQ_INFO_new                                 output.o
X509_REQ_add1_attr                                output.o
X509_REQ_add1_attr_by_NID                         output.o
X509_REQ_add1_attr_by_OBJ                         output.o
X509_REQ_add1_attr_by_txt                         output.o
X509_REQ_add_extensions                           output.o
X509_REQ_add_extensions_nid                       output.o
X509_REQ_check_private_key                        output.o
X509_REQ_delete_attr                              output.o
X509_REQ_digest                                   output.o
X509_REQ_dup                                      output.o
X509_REQ_extension_nid                            output.o
X509_REQ_free                                     output.o
X509_REQ_get1_email                               output.o
X509_REQ_get_attr                                 output.o
X509_REQ_get_attr_by_NID                          output.o
X509_REQ_get_attr_by_OBJ                          output.o
X509_REQ_get_attr_count                           output.o
X509_REQ_get_extension_nids                       output.o
X509_REQ_get_extensions                           output.o
X509_REQ_get_pubkey                               output.o
X509_REQ_it                                       output.o
X509_REQ_new                                      output.o
X509_REQ_set_extension_nids                       output.o
X509_REQ_set_pubkey                               output.o
X509_REQ_set_subject_name                         output.o
X509_REQ_set_version                              output.o
X509_REQ_sign                                     output.o
X509_REQ_verify                                   output.o
X509_REVOKED_add1_ext_i2d                         output.o
X509_REVOKED_add_ext                              output.o
X509_REVOKED_delete_ext                           output.o
X509_REVOKED_free                                 output.o
X509_REVOKED_get_ext                              output.o
X509_REVOKED_get_ext_by_NID                       output.o
X509_REVOKED_get_ext_by_OBJ                       output.o
X509_REVOKED_get_ext_by_critical                  output.o
X509_REVOKED_get_ext_count                        output.o
X509_REVOKED_get_ext_d2i                          output.o
X509_REVOKED_it                                   output.o
X509_REVOKED_new                                  output.o
X509_SIG_free                                     output.o
X509_SIG_it                                       output.o
X509_SIG_new                                      output.o
X509_STORE_CTX_cleanup                            output.o
X509_STORE_CTX_free                               output.o
X509_STORE_CTX_get0_current_crl                   output.o
X509_STORE_CTX_get0_current_issuer                output.o
X509_STORE_CTX_get0_param                         output.o
X509_STORE_CTX_get0_parent_ctx                    output.o
X509_STORE_CTX_get0_policy_tree                   output.o
X509_STORE_CTX_get1_chain                         output.o
X509_STORE_CTX_get1_issuer                        output.o
X509_STORE_CTX_get_chain                          output.o
X509_STORE_CTX_get_current_cert                   output.o
X509_STORE_CTX_get_error                          output.o
X509_STORE_CTX_get_error_depth                    output.o
X509_STORE_CTX_get_ex_data                        output.o
X509_STORE_CTX_get_ex_new_index                   output.o
X509_STORE_CTX_get_explicit_policy                output.o
X509_STORE_CTX_init                               output.o
X509_STORE_CTX_new                                output.o
X509_STORE_CTX_purpose_inherit                    output.o
X509_STORE_CTX_set0_crls                          output.o
X509_STORE_CTX_set0_param                         output.o
X509_STORE_CTX_set_cert                           output.o
X509_STORE_CTX_set_chain                          output.o
X509_STORE_CTX_set_default                        output.o
X509_STORE_CTX_set_depth                          output.o
X509_STORE_CTX_set_error                          output.o
X509_STORE_CTX_set_ex_data                        output.o
X509_STORE_CTX_set_flags                          output.o
X509_STORE_CTX_set_purpose                        output.o
X509_STORE_CTX_set_time                           output.o
X509_STORE_CTX_set_trust                          output.o
X509_STORE_CTX_set_verify_cb                      output.o
X509_STORE_CTX_trusted_stack                      output.o
X509_STORE_add_cert                               output.o
X509_STORE_add_crl                                output.o
X509_STORE_add_lookup                             output.o
X509_STORE_free                                   output.o
X509_STORE_get1_certs                             output.o
X509_STORE_get1_crls                              output.o
X509_STORE_get_by_subject                         output.o
X509_STORE_new                                    output.o
X509_STORE_set1_param                             output.o
X509_STORE_set_depth                              output.o
X509_STORE_set_flags                              output.o
X509_STORE_set_purpose                            output.o
X509_STORE_set_trust                              output.o
X509_STORE_set_verify_cb                          output.o
X509_TRUST_add                                    output.o
X509_TRUST_cleanup                                output.o
X509_TRUST_get0                                   output.o
X509_TRUST_get0_name                              output.o
X509_TRUST_get_by_id                              output.o
X509_TRUST_get_count                              output.o
X509_TRUST_get_flags                              output.o
X509_TRUST_get_trust                              output.o
X509_TRUST_set                                    output.o
X509_TRUST_set_default                            output.o
X509_VAL_free                                     output.o
X509_VAL_it                                       output.o
X509_VAL_new                                      output.o
X509_VERIFY_PARAM_add0_policy                     output.o
X509_VERIFY_PARAM_add0_table                      output.o
X509_VERIFY_PARAM_clear_flags                     output.o
X509_VERIFY_PARAM_free                            output.o
X509_VERIFY_PARAM_get_depth                       output.o
X509_VERIFY_PARAM_get_flags                       output.o
X509_VERIFY_PARAM_inherit                         output.o
X509_VERIFY_PARAM_lookup                          output.o
X509_VERIFY_PARAM_new                             output.o
X509_VERIFY_PARAM_set1                            output.o
X509_VERIFY_PARAM_set1_name                       output.o
X509_VERIFY_PARAM_set1_policies                   output.o
X509_VERIFY_PARAM_set_depth                       output.o
X509_VERIFY_PARAM_set_flags                       output.o
X509_VERIFY_PARAM_set_purpose                     output.o
X509_VERIFY_PARAM_set_time                        output.o
X509_VERIFY_PARAM_set_trust                       output.o
X509_VERIFY_PARAM_table_cleanup                   output.o
X509_add1_ext_i2d                                 output.o
X509_add1_reject_object                           output.o
X509_add1_trust_object                            output.o
X509_add_ext                                      output.o
X509_alias_get0                                   output.o
X509_alias_set1                                   output.o
X509_check_akid                                   output.o
X509_check_ca                                     output.o
X509_check_issued                                 output.o
X509_check_private_key                            output.o
X509_check_purpose                                output.o
X509_check_trust                                  output.o
X509_cmp                                          output.o
X509_cmp_current_time                             output.o
X509_cmp_time                                     output.o
X509_delete_ext                                   output.o
X509_digest                                       output.o
X509_dup                                          output.o
X509_email_free                                   output.o
X509_find_by_issuer_and_serial                    output.o
X509_find_by_subject                              output.o
X509_free                                         output.o
X509_get0_pubkey_bitstr                           output.o
X509_get1_email                                   output.o
X509_get1_ocsp                                    output.o
X509_get_default_cert_area                        output.o
X509_get_default_cert_dir                         output.o
X509_get_default_cert_dir_env                     output.o
X509_get_default_cert_file                        output.o
X509_get_default_cert_file_env                    output.o
X509_get_default_private_dir                      output.o
X509_get_ex_data                                  output.o
X509_get_ex_new_index                             output.o
X509_get_ext                                      output.o
X509_get_ext_by_NID                               output.o
X509_get_ext_by_OBJ                               output.o
X509_get_ext_by_critical                          output.o
X509_get_ext_count                                output.o
X509_get_ext_d2i                                  output.o
X509_get_issuer_name                              output.o
X509_get_pubkey                                   output.o
X509_get_pubkey_parameters                        output.o
X509_get_serialNumber                             output.o
X509_get_subject_name                             output.o
X509_gmtime_adj                                   output.o
X509_issuer_and_serial_cmp                        output.o
X509_issuer_and_serial_hash                       output.o
X509_issuer_name_cmp                              output.o
X509_issuer_name_hash                             output.o
X509_issuer_name_hash_old                         output.o
X509_it                                           output.o
X509_keyid_get0                                   output.o
X509_keyid_set1                                   output.o
X509_new                                          output.o
X509_ocspid_print                                 output.o
X509_policy_check                                 output.o
X509_policy_level_get0_node                       output.o
X509_policy_level_node_count                      output.o
X509_policy_node_get0_parent                      output.o
X509_policy_node_get0_policy                      output.o
X509_policy_node_get0_qualifiers                  output.o
X509_policy_tree_free                             output.o
X509_policy_tree_get0_level                       output.o
X509_policy_tree_get0_policies                    output.o
X509_policy_tree_get0_user_policies               output.o
X509_policy_tree_level_count                      output.o
X509_print                                        output.o
X509_print_ex                                     output.o
X509_pubkey_digest                                output.o
X509_reject_clear                                 output.o
X509_set_ex_data                                  output.o
X509_sign                                         output.o
X509_signature_print                              output.o
X509_subject_name_cmp                             output.o
X509_subject_name_hash                            output.o
X509_subject_name_hash_old                        output.o
X509_supported_extension                          output.o
X509_time_adj                                     output.o
X509_time_adj_ex                                  output.o
X509_to_X509_REQ                                  output.o
X509_trust_clear                                  output.o
X509_verify                                       output.o
X509_verify_cert                                  output.o
X509_version                                      output.o
X509at_add1_attr                                  output.o
X509at_add1_attr_by_NID                           output.o
X509at_add1_attr_by_OBJ                           output.o
X509at_add1_attr_by_txt                           output.o
X509at_delete_attr                                output.o
X509at_get0_data_by_OBJ                           output.o
X509at_get_attr                                   output.o
X509at_get_attr_by_NID                            output.o
X509at_get_attr_by_OBJ                            output.o
X509at_get_attr_count                             output.o
X509v3_add_ext                                    output.o
X509v3_delete_ext                                 output.o
X509v3_get_ext                                    output.o
X509v3_get_ext_by_NID                             output.o
X509v3_get_ext_by_OBJ                             output.o
X509v3_get_ext_by_critical                        output.o
X509v3_get_ext_count                              output.o
X9_62_CHARACTERISTIC_TWO_free                     output.o
X9_62_CHARACTERISTIC_TWO_it                       output.o
X9_62_CHARACTERISTIC_TWO_new                      output.o
X9_62_CURVE_it                                    output.o
X9_62_FIELDID_it                                  output.o
X9_62_PENTANOMIAL_free                            output.o
X9_62_PENTANOMIAL_it                              output.o
X9_62_PENTANOMIAL_new                             output.o
ZLONG_it                                          output.o
_CONF_add_string                                  output.o
_CONF_free_data                                   output.o
_CONF_get_section                                 output.o
_CONF_get_section_values                          output.o
_CONF_get_string                                  output.o
_CONF_new_data                                    output.o
_CONF_new_section                                 output.o
__initfunc_acpi_init_global                       output.o
__initfunc_acpi_init_paral                        output.o
__initfunc_ata_init                               output.o
__initfunc_beep_init_msg                          output.o
__initfunc_cache_init_pass                        output.o
__initfunc_cache_init_pcpu                        output.o
__initfunc_cache_init_vcpu                        output.o
__initfunc_callrealmode_init_global               output.o
__initfunc_callrealmode_panic                     output.o
__initfunc_copy_minios                            output.o
__initfunc_core_init                              output.o
__initfunc_cpu_mmu_spt_init_global                output.o
__initfunc_cpu_mmu_spt_init_pcpu                  output.o
__initfunc_cpuid_init                             output.o
__initfunc_cpuid_pass_init                        output.o
__initfunc_create_pass_vm                         output.o
__initfunc_debug_ata_init                         output.o
__initfunc_debug_on_shift_key                     output.o
__initfunc_ehci_init                              output.o
__initfunc_end                                    output.o
__initfunc_exint_pass_init                        output.o
__initfunc_get_shiftflags                         output.o
__initfunc_gmm_pass_init                          output.o
__initfunc_idman_init                             output.o
__initfunc_idman_init_global                      output.o
__initfunc_idman_kernel_init                      output.o
__initfunc_ieee1394_init                          output.o
__initfunc_ieee1394_init_boot                     output.o
__initfunc_install_int0x15_hook                   output.o
__initfunc_int_init_global                        output.o
__initfunc_int_wakeup                             output.o
__initfunc_io_io_init                             output.o
__initfunc_io_iopass_init                         output.o
__initfunc_iommu_setup                            output.o
__initfunc_keyboard_init_msg                      output.o
__initfunc_localapic_init                         output.o
__initfunc_mm_init_global                         output.o
__initfunc_mmio_debug                             output.o
__initfunc_mmio_init                              output.o
__initfunc_msg_init_global                        output.o
__initfunc_msr_init                               output.o
__initfunc_msr_pass_init                          output.o
__initfunc_nmi_pass_init                          output.o
__initfunc_nmi_pass_init_pcpu                     output.o
__initfunc_panic_init_global                      output.o
__initfunc_panic_init_global3                     output.o
__initfunc_panic_init_msg                         output.o
__initfunc_panic_init_pcpu                        output.o
__initfunc_pci_init                               output.o
__initfunc_print_boot_msg                         output.o
__initfunc_printf_init_global                     output.o
__initfunc_pro100_init                            output.o
__initfunc_process_init_ap                        output.o
__initfunc_process_init_global                    output.o
__initfunc_process_wakeup                         output.o
__initfunc_random_init_config0                    output.o
__initfunc_random_init_global                     output.o
__initfunc_reboot_init_msg                        output.o
__initfunc_resume_pro1000                         output.o
__initfunc_segment_init_global                    output.o
__initfunc_serial_init_msg                        output.o
__initfunc_setiohooks                             output.o
__initfunc_sleep_init_global                      output.o
__initfunc_sleep_init_msg                         output.o
__initfunc_start                                  output.o
__initfunc_storage_io_initfunc                    output.o
__initfunc_storage_kernel_init                    output.o
__initfunc_suspend_pro1000                        output.o
__initfunc_svm_panic                              output.o
__initfunc_sx_init_pass_init                      output.o
__initfunc_thread_init_global                     output.o
__initfunc_thread_init_pcpu                       output.o
__initfunc_time_init_global                       output.o
__initfunc_time_init_global_status                output.o
__initfunc_time_init_msg                          output.o
__initfunc_time_init_pcpu                         output.o
__initfunc_timer_init_global                      output.o
__initfunc_tty_init_global                        output.o
__initfunc_tty_init_global2                       output.o
__initfunc_tty_init_msg                           output.o
__initfunc_uhci_init                              output.o
__initfunc_unmap_user_area                        output.o
__initfunc_vcpu_init_global                       output.o
__initfunc_vga_init                               output.o
__initfunc_virtualization_init_pcpu               output.o
__initfunc_vmmcall_boot_init                      output.o
__initfunc_vmmcall_dbgsh_init                     output.o
__initfunc_vmmcall_dbgsh_init_global              output.o
__initfunc_vmmcall_dbgsh_init_pcpu                output.o
__initfunc_vmmcall_iccard_init                    output.o
__initfunc_vmmcall_init                           output.o
__initfunc_vmmcall_log_init                       output.o
__initfunc_vmmcall_status_init                    output.o
__initfunc_vmmcall_status_init_global             output.o
__initfunc_vpn_kernel_init                        output.o
__initfunc_vpn_pro1000_init                       output.o
__initfunc_vramwrite_init_bsp                     output.o
__initfunc_vramwrite_init_msg                     output.o
__initfunc_vt_panic                               output.o
__initfunc_vt_register_status_callback            output.o
__initfunc_xsetbv_init                            output.o
__initfunc_xsetbv_pass_init                       output.o
__process_builtin                                 output.o
__process_builtin_end                             output.o
_dprintf                                          output.o
_dprintft                                         output.o
_shadow_DES_check_key                             output.o
a                                                 output.o
a2d_ASN1_OBJECT                                   output.o
a2i_ASN1_INTEGER                                  output.o
a2i_ASN1_STRING                                   output.o
a2i_GENERAL_NAME                                  output.o
a2i_IPADDRESS                                     output.o
a2i_IPADDRESS_NC                                  output.o
a2i_ipadd                                         output.o
acpi_dsdt_parse                                   output.o
acpi_dsdt_system_state                            output.o
acpi_iohook                                       output.o
acpi_poweroff                                     output.o
acpi_reset                                        output.o
acpi_smi_hook                                     output.o
add_remap                                         output.o
aes_xts_init                                      output.o
ahci_config_read                                  output.o
ahci_config_write                                 output.o
ahci_new                                          output.o
alloc                                             output.o
alloc2                                            output.o
alloc_handler_descriptor                          output.o
alloc_page                                        output.o
alloc_pages                                       output.o
alloc_realmodemem                                 output.o
allocateNewAppID                                  output.o
allocateNewApplicationIdentifiers                 output.o
allocateNewVMID                                   output.o
allocateNewZeroPage                               output.o
ap_start_addr                                     output.o
apic_available                                    output.o
apinit_lock                                       output.o
apinit_procs                                      output.o
apinitproc0                                       output.o
app_pkey_methods                                  output.o
asm_vmlaunch_regs_32                              output.o
asm_vmlaunch_regs_64                              output.o
asm_vmresume_regs_32                              output.o
asm_vmresume_regs_64                              output.o
asm_vmrun_regs_32                                 output.o
asm_vmrun_regs_64                                 output.o
asn1_Finish                                       output.o
asn1_GetSequence                                  output.o
asn1_add_error                                    output.o
asn1_const_Finish                                 output.o
asn1_do_adb                                       output.o
asn1_do_lock                                      output.o
asn1_enc_free                                     output.o
asn1_enc_init                                     output.o
asn1_enc_restore                                  output.o
asn1_enc_save                                     output.o
asn1_ex_c2i                                       output.o
asn1_ex_i2c                                       output.o
asn1_get_choice_selector                          output.o
asn1_get_field_ptr                                output.o
asn1_set_choice_selector                          output.o
asn1_template_print_ctx                           output.o
assertion_failed                                  output.o
ata_ahci_mode                                     output.o
ata_bm_handle_command                             output.o
ata_bm_handle_device_specific                     output.o
ata_bm_handle_prd_table                           output.o
ata_bm_handle_status                              output.o
ata_bm_handler                                    output.o
ata_bm_handler_table                              output.o
ata_channel_lock                                  output.o
ata_channel_unlock                                output.o
ata_cmdblk_handler                                output.o
ata_cmdblk_handler_table                          output.o
ata_config_read                                   output.o
ata_config_write                                  output.o
ata_ctlblk_handler                                output.o
ata_ctlblk_handler_table                          output.o
ata_get_cmd_type                                  output.o
ata_handle_queued_status                          output.o
ata_init_io_handler                               output.o
ata_init_vendor                                   output.o
ata_set_bm_handler                                output.o
ata_set_cmdblk_handler                            output.o
ata_set_ctlblk_handler                            output.o
atapi_handle_cmd_packet                           output.o
atapi_handle_config_data                          output.o
atapi_handle_interrupt_reason                     output.o
atapi_handle_packet_data                          output.o
atapi_handle_pio_identify_packet                  output.o
auto_reboot                                       output.o
b                                                 output.o
backtrace                                         output.o
beep_off                                          output.o
beep_on                                           output.o
beep_set_freq                                     output.o
bn_add_part_words                                 output.o
bn_add_words                                      output.o
bn_cmp_part_words                                 output.o
bn_cmp_words                                      output.o
bn_div_words                                      output.o
bn_dup_expand                                     output.o
bn_expand2                                        output.o
bn_mul_add_words                                  output.o
bn_mul_comba4                                     output.o
bn_mul_comba8                                     output.o
bn_mul_high                                       output.o
bn_mul_low_normal                                 output.o
bn_mul_low_recursive                              output.o
bn_mul_normal                                     output.o
bn_mul_part_recursive                             output.o
bn_mul_recursive                                  output.o
bn_mul_words                                      output.o
bn_sqr_comba4                                     output.o
bn_sqr_comba8                                     output.o
bn_sqr_normal                                     output.o
bn_sqr_recursive                                  output.o
bn_sqr_words                                      output.o
bn_sub_part_words                                 output.o
bn_sub_words                                      output.o
bss                                               output.o
c                                                 output.o
c2i_ASN1_BIT_STRING                               output.o
c2i_ASN1_INTEGER                                  output.o
c2i_ASN1_OBJECT                                   output.o
cache_get_attr                                    output.o
cache_get_gmsr_amd                                output.o
cache_get_gmtrr                                   output.o
cache_get_gmtrr_attr                              output.o
cache_get_gmtrr_type                              output.o
cache_get_gmtrrcap                                output.o
cache_get_gpat                                    output.o
cache_set_gmsr_amd                                output.o
cache_set_gmtrr                                   output.o
cache_set_gpat                                    output.o
call_cpuid                                        output.o
call_initfunc                                     output.o
call_io                                           output.o
call_read_msr                                     output.o
call_write_msr                                    output.o
call_xsetbv                                       output.o
callfunc_and_getint                               output.o
callrealmode_bootcd_getstatus                     output.o
callrealmode_disk_readlba                         output.o
callrealmode_disk_readmbr                         output.o
callrealmode_end                                  output.o
callrealmode_endofcodeaddr                        output.o
callrealmode_getfontinfo                          output.o
callrealmode_getshiftflags                        output.o
callrealmode_getsysmemmap                         output.o
callrealmode_printmsg                             output.o
callrealmode_reboot                               output.o
callrealmode_setcursorpos                         output.o
callrealmode_setvideomode                         output.o
callrealmode_start                                output.o
callrealmode_start2                               output.o
callrealmode_startkernel32                        output.o
callrealmode_tcgbios                              output.o
callrealmode_usevcpu                              output.o
cancel_sleep                                      output.o
changePageStatus                                  output.o
check_defer                                       output.o
chelp_abort                                       output.o
chelp_bsearch                                     output.o
chelp_div_64_32_32                                output.o
chelp_div_64_32_64                                output.o
chelp_free                                        output.o
chelp_inited                                      output.o
chelp_isalnum                                     output.o
chelp_isalpha                                     output.o
chelp_isdigit                                     output.o
chelp_islower                                     output.o
chelp_isspace                                     output.o
chelp_isupper                                     output.o
chelp_isxdigit                                    output.o
chelp_malloc                                      output.o
chelp_memchr                                      output.o
chelp_memcmp                                      output.o
chelp_memcpy                                      output.o
chelp_memmove                                     output.o
chelp_memset                                      output.o
chelp_mod_64_32_32                                output.o
chelp_mul_64_64_64                                output.o
chelp_print                                       output.o
chelp_printf                                      output.o
chelp_qsort                                       output.o
chelp_realloc                                     output.o
chelp_snprintf                                    output.o
chelp_sprintf                                     output.o
chelp_strcat                                      output.o
chelp_strchr                                      output.o
chelp_strcmp                                      output.o
chelp_strcpy                                      output.o
chelp_stricmp                                     output.o
chelp_strlen                                      output.o
chelp_strncasecmp                                 output.o
chelp_strncmp                                     output.o
chelp_strncpy                                     output.o
chelp_strrchr                                     output.o
chelp_strtol                                      output.o
chelp_strtoul                                     output.o
chelp_strtoul_ex                                  output.o
chelp_swap                                        output.o
chelp_tolower                                     output.o
chelp_toupper                                     output.o
cleanse_ctr                                       output.o
clear_guest_status                                output.o
clflush_size                                      output.o
closePage                                         output.o
closeSystemCallHandler                            output.o
cmpxchg_gphys_l                                   output.o
cmpxchg_gphys_q                                   output.o
cmpxchg_hphys_l                                   output.o
cmpxchg_hphys_q                                   output.o
cms_Data_create                                   output.o
cms_DigestAlgorithm_find_ctx                      output.o
cms_DigestAlgorithm_init_bio                      output.o
cms_DigestAlgorithm_set                           output.o
cms_DigestedData_create                           output.o
cms_DigestedData_do_final                         output.o
cms_DigestedData_init_bio                         output.o
cms_EncryptedContent_init                         output.o
cms_EncryptedContent_init_bio                     output.o
cms_EncryptedData_init_bio                        output.o
cms_EnvelopedData_init_bio                        output.o
cms_SignedData_final                              output.o
cms_SignedData_init_bio                           output.o
cms_SignerIdentifier_cert_cmp                     output.o
cms_SignerIdentifier_get0_signer_id               output.o
cms_content_bio                                   output.o
cms_set1_SignerIdentifier                         output.o
config                                            output.o
copy_bootsector                                   output.o
core_init                                         output.o
core_io_handle_default                            output.o
core_io_modify_handler                            output.o
core_io_register_handler                          output.o
core_io_unregister_handler                        output.o
core_mm_read_guest_phys                           output.o
core_mm_write_guest_phys                          output.o
cpu_emul_cli                                      output.o
cpu_emul_cpuid                                    output.o
cpu_emul_hlt                                      output.o
cpu_emul_rdmsr                                    output.o
cpu_emul_realmode_int                             output.o
cpu_emul_sti                                      output.o
cpu_emul_wrmsr                                    output.o
cpu_emul_xsetbv                                   output.o
cpu_interpreter                                   output.o
cpu_mmu_get_pte                                   output.o
cpu_mmu_spt_clear_all                             output.o
cpu_mmu_spt_extern_mapsearch                      output.o
cpu_mmu_spt_init                                  output.o
cpu_mmu_spt_invalidate                            output.o
cpu_mmu_spt_map_1mb                               output.o
cpu_mmu_spt_pagefault                             output.o
cpu_mmu_spt_tlbflush                              output.o
cpu_mmu_spt_updatecr3                             output.o
cpu_seg_read_b                                    output.o
cpu_seg_read_l                                    output.o
cpu_seg_read_q                                    output.o
cpu_seg_read_w                                    output.o
cpu_seg_write_b                                   output.o
cpu_seg_write_l                                   output.o
cpu_seg_write_q                                   output.o
cpu_seg_write_w                                   output.o
cpu_stack_get                                     output.o
cpu_stack_pop                                     output.o
cpu_stack_push                                    output.o
cpu_stack_set                                     output.o
cpuinit_end                                       output.o
cpuinit_start                                     output.o
create_dom                                        output.o
crypt_sys_rsa_sign                                output.o
crypto_find                                       output.o
crypto_init                                       output.o
crypto_none_init                                  output.o
crypto_register                                   output.o
currentProtectedApplication                       output.o
currentRunningApplication                         output.o
curthread                                         output.o
d                                                 output.o
d2i_ACCESS_DESCRIPTION                            output.o
d2i_ASN1_BIT_STRING                               output.o
d2i_ASN1_BMPSTRING                                output.o
d2i_ASN1_BOOLEAN                                  output.o
d2i_ASN1_ENUMERATED                               output.o
d2i_ASN1_GENERALIZEDTIME                          output.o
d2i_ASN1_GENERALSTRING                            output.o
d2i_ASN1_IA5STRING                                output.o
d2i_ASN1_INTEGER                                  output.o
d2i_ASN1_NULL                                     output.o
d2i_ASN1_OBJECT                                   output.o
d2i_ASN1_OCTET_STRING                             output.o
d2i_ASN1_PRINTABLE                                output.o
d2i_ASN1_PRINTABLESTRING                          output.o
d2i_ASN1_SEQUENCE_ANY                             output.o
d2i_ASN1_SET                                      output.o
d2i_ASN1_SET_ANY                                  output.o
d2i_ASN1_T61STRING                                output.o
d2i_ASN1_TIME                                     output.o
d2i_ASN1_TYPE                                     output.o
d2i_ASN1_UINTEGER                                 output.o
d2i_ASN1_UNIVERSALSTRING                          output.o
d2i_ASN1_UTCTIME                                  output.o
d2i_ASN1_UTF8STRING                               output.o
d2i_ASN1_VISIBLESTRING                            output.o
d2i_ASN1_bytes                                    output.o
d2i_ASN1_type_bytes                               output.o
d2i_AUTHORITY_INFO_ACCESS                         output.o
d2i_AUTHORITY_KEYID                               output.o
d2i_AutoPrivateKey                                output.o
d2i_BASIC_CONSTRAINTS                             output.o
d2i_CERTIFICATEPOLICIES                           output.o
d2i_CMS_ContentInfo                               output.o
d2i_CMS_bio                                       output.o
d2i_CRL_DIST_POINTS                               output.o
d2i_DHparams                                      output.o
d2i_DIRECTORYSTRING                               output.o
d2i_DISPLAYTEXT                                   output.o
d2i_DIST_POINT                                    output.o
d2i_DIST_POINT_NAME                               output.o
d2i_DSAPrivateKey                                 output.o
d2i_DSAPrivateKey_bio                             output.o
d2i_DSAPublicKey                                  output.o
d2i_DSA_PUBKEY                                    output.o
d2i_DSA_PUBKEY_bio                                output.o
d2i_DSA_SIG                                       output.o
d2i_DSAparams                                     output.o
d2i_ECDSA_SIG                                     output.o
d2i_ECPKPARAMETERS                                output.o
d2i_ECPKParameters                                output.o
d2i_ECParameters                                  output.o
d2i_ECPrivateKey                                  output.o
d2i_ECPrivateKey_bio                              output.o
d2i_EC_PRIVATEKEY                                 output.o
d2i_EC_PUBKEY                                     output.o
d2i_EC_PUBKEY_bio                                 output.o
d2i_EDIPARTYNAME                                  output.o
d2i_EXTENDED_KEY_USAGE                            output.o
d2i_GENERAL_NAME                                  output.o
d2i_GENERAL_NAMES                                 output.o
d2i_ISSUING_DIST_POINT                            output.o
d2i_NETSCAPE_CERT_SEQUENCE                        output.o
d2i_NETSCAPE_SPKAC                                output.o
d2i_NETSCAPE_SPKI                                 output.o
d2i_NOTICEREF                                     output.o
d2i_OCSP_BASICRESP                                output.o
d2i_OCSP_CERTID                                   output.o
d2i_OCSP_CERTSTATUS                               output.o
d2i_OCSP_CRLID                                    output.o
d2i_OCSP_ONEREQ                                   output.o
d2i_OCSP_REQINFO                                  output.o
d2i_OCSP_REQUEST                                  output.o
d2i_OCSP_RESPBYTES                                output.o
d2i_OCSP_RESPDATA                                 output.o
d2i_OCSP_RESPID                                   output.o
d2i_OCSP_RESPONSE                                 output.o
d2i_OCSP_REVOKEDINFO                              output.o
d2i_OCSP_SERVICELOC                               output.o
d2i_OCSP_SIGNATURE                                output.o
d2i_OCSP_SINGLERESP                               output.o
d2i_OTHERNAME                                     output.o
d2i_PBE2PARAM                                     output.o
d2i_PBEPARAM                                      output.o
d2i_PBKDF2PARAM                                   output.o
d2i_PKCS12                                        output.o
d2i_PKCS12_BAGS                                   output.o
d2i_PKCS12_MAC_DATA                               output.o
d2i_PKCS12_SAFEBAG                                output.o
d2i_PKCS12_bio                                    output.o
d2i_PKCS7                                         output.o
d2i_PKCS7_DIGEST                                  output.o
d2i_PKCS7_ENCRYPT                                 output.o
d2i_PKCS7_ENC_CONTENT                             output.o
d2i_PKCS7_ENVELOPE                                output.o
d2i_PKCS7_ISSUER_AND_SERIAL                       output.o
d2i_PKCS7_RECIP_INFO                              output.o
d2i_PKCS7_SIGNED                                  output.o
d2i_PKCS7_SIGNER_INFO                             output.o
d2i_PKCS7_SIGN_ENVELOPE                           output.o
d2i_PKCS7_bio                                     output.o
d2i_PKCS8PrivateKey_bio                           output.o
d2i_PKCS8_PRIV_KEY_INFO                           output.o
d2i_PKCS8_PRIV_KEY_INFO_bio                       output.o
d2i_PKCS8_bio                                     output.o
d2i_PKEY_USAGE_PERIOD                             output.o
d2i_POLICYINFO                                    output.o
d2i_POLICYQUALINFO                                output.o
d2i_PROXY_CERT_INFO_EXTENSION                     output.o
d2i_PROXY_POLICY                                  output.o
d2i_PUBKEY                                        output.o
d2i_PUBKEY_bio                                    output.o
d2i_PrivateKey                                    output.o
d2i_PrivateKey_bio                                output.o
d2i_RSAPrivateKey                                 output.o
d2i_RSAPrivateKey_bio                             output.o
d2i_RSAPublicKey                                  output.o
d2i_RSAPublicKey_bio                              output.o
d2i_RSA_PUBKEY                                    output.o
d2i_RSA_PUBKEY_bio                                output.o
d2i_SXNET                                         output.o
d2i_SXNETID                                       output.o
d2i_USERNOTICE                                    output.o
d2i_X509                                          output.o
d2i_X509_ALGOR                                    output.o
d2i_X509_ALGORS                                   output.o
d2i_X509_ATTRIBUTE                                output.o
d2i_X509_AUX                                      output.o
d2i_X509_CERT_AUX                                 output.o
d2i_X509_CERT_PAIR                                output.o
d2i_X509_CINF                                     output.o
d2i_X509_CRL                                      output.o
d2i_X509_CRL_INFO                                 output.o
d2i_X509_CRL_bio                                  output.o
d2i_X509_EXTENSION                                output.o
d2i_X509_EXTENSIONS                               output.o
d2i_X509_NAME                                     output.o
d2i_X509_NAME_ENTRY                               output.o
d2i_X509_PUBKEY                                   output.o
d2i_X509_REQ                                      output.o
d2i_X509_REQ_INFO                                 output.o
d2i_X509_REQ_bio                                  output.o
d2i_X509_REVOKED                                  output.o
d2i_X509_SIG                                      output.o
d2i_X509_VAL                                      output.o
d2i_X509_bio                                      output.o
deactivate_and_delete_urb                         output.o
debug_addstr                                      output.o
debug_gdb                                         output.o
debug_iohook                                      output.o
debug_msgregister                                 output.o
debug_msgunregister                               output.o
decryptcfg                                        output.o
default_pctx                                      output.o
dh_asn1_meth                                      output.o
dh_pkey_meth                                      output.o
disable_apic                                      output.o
do_exint_pass                                     output.o
do_externalint_enable                             output.o
do_io_nothing                                     output.o
do_iopass_default                                 output.o
do_panic_reboot                                   output.o
dom_io                                            output.o
dprintf_port                                      output.o
drhd_list_head                                    output.o
dsa_asn1_meths                                    output.o
dsa_builtin_paramgen                              output.o
dsa_pkey_meth                                     output.o
dsa_pub_internal_it                               output.o
dump_frame                                        output.o
dump_qh                                           output.o
dump_td                                           output.o
dump_td_byvirt                                    output.o
dwReaders                                         output.o
e801_fake_ax                                      output.o
e801_fake_bx                                      output.o
ec_GF2m_have_precompute_mult                      output.o
ec_GF2m_precompute_mult                           output.o
ec_GF2m_simple_add                                output.o
ec_GF2m_simple_cmp                                output.o
ec_GF2m_simple_dbl                                output.o
ec_GF2m_simple_field_div                          output.o
ec_GF2m_simple_field_mul                          output.o
ec_GF2m_simple_field_sqr                          output.o
ec_GF2m_simple_group_check_discriminant           output.o
ec_GF2m_simple_group_clear_finish                 output.o
ec_GF2m_simple_group_copy                         output.o
ec_GF2m_simple_group_finish                       output.o
ec_GF2m_simple_group_get_curve                    output.o
ec_GF2m_simple_group_get_degree                   output.o
ec_GF2m_simple_group_init                         output.o
ec_GF2m_simple_group_set_curve                    output.o
ec_GF2m_simple_invert                             output.o
ec_GF2m_simple_is_at_infinity                     output.o
ec_GF2m_simple_is_on_curve                        output.o
ec_GF2m_simple_make_affine                        output.o
ec_GF2m_simple_mul                                output.o
ec_GF2m_simple_oct2point                          output.o
ec_GF2m_simple_point2oct                          output.o
ec_GF2m_simple_point_clear_finish                 output.o
ec_GF2m_simple_point_copy                         output.o
ec_GF2m_simple_point_finish                       output.o
ec_GF2m_simple_point_get_affine_coordinates       output.o
ec_GF2m_simple_point_init                         output.o
ec_GF2m_simple_point_set_affine_coordinates       output.o
ec_GF2m_simple_point_set_to_infinity              output.o
ec_GF2m_simple_points_make_affine                 output.o
ec_GF2m_simple_set_compressed_coordinates         output.o
ec_GFp_mont_field_decode                          output.o
ec_GFp_mont_field_encode                          output.o
ec_GFp_mont_field_mul                             output.o
ec_GFp_mont_field_set_to_one                      output.o
ec_GFp_mont_field_sqr                             output.o
ec_GFp_mont_group_clear_finish                    output.o
ec_GFp_mont_group_copy                            output.o
ec_GFp_mont_group_finish                          output.o
ec_GFp_mont_group_init                            output.o
ec_GFp_mont_group_set_curve                       output.o
ec_GFp_nist_field_mul                             output.o
ec_GFp_nist_field_sqr                             output.o
ec_GFp_nist_group_copy                            output.o
ec_GFp_nist_group_set_curve                       output.o
ec_GFp_simple_add                                 output.o
ec_GFp_simple_cmp                                 output.o
ec_GFp_simple_dbl                                 output.o
ec_GFp_simple_field_mul                           output.o
ec_GFp_simple_field_sqr                           output.o
ec_GFp_simple_get_Jprojective_coordinates_GFp     output.o
ec_GFp_simple_group_check_discriminant            output.o
ec_GFp_simple_group_clear_finish                  output.o
ec_GFp_simple_group_copy                          output.o
ec_GFp_simple_group_finish                        output.o
ec_GFp_simple_group_get_curve                     output.o
ec_GFp_simple_group_get_degree                    output.o
ec_GFp_simple_group_init                          output.o
ec_GFp_simple_group_set_curve                     output.o
ec_GFp_simple_invert                              output.o
ec_GFp_simple_is_at_infinity                      output.o
ec_GFp_simple_is_on_curve                         output.o
ec_GFp_simple_make_affine                         output.o
ec_GFp_simple_oct2point                           output.o
ec_GFp_simple_point2oct                           output.o
ec_GFp_simple_point_clear_finish                  output.o
ec_GFp_simple_point_copy                          output.o
ec_GFp_simple_point_finish                        output.o
ec_GFp_simple_point_get_affine_coordinates        output.o
ec_GFp_simple_point_init                          output.o
ec_GFp_simple_point_set_affine_coordinates        output.o
ec_GFp_simple_point_set_to_infinity               output.o
ec_GFp_simple_points_make_affine                  output.o
ec_GFp_simple_set_Jprojective_coordinates_GFp     output.o
ec_GFp_simple_set_compressed_coordinates          output.o
ec_pkey_meth                                      output.o
ec_wNAF_have_precompute_mult                      output.o
ec_wNAF_mul                                       output.o
ec_wNAF_precompute_mult                           output.o
ecdh_check                                        output.o
ecdsa_check                                       output.o
eckey_asn1_meth                                   output.o
ehci_check_advance                                output.o
ehci_check_urb_advance                            output.o
ehci_cleanup_urbs                                 output.o
ehci_conceal_portroute                            output.o
ehci_deactivate_urb                               output.o
ehci_dump_alist                                   output.o
ehci_dump_all                                     output.o
ehci_dump_async                                   output.o
ehci_dump_qtd                                     output.o
ehci_dump_qtdm                                    output.o
ehci_dump_urb                                     output.o
ehci_dump_urblist                                 output.o
ehci_end_monitor_async                            output.o
ehci_host                                         output.o
ehci_init                                         output.o
ehci_monitor_async_list                           output.o
ehci_shadow_async_list                            output.o
ehci_shadow_buffer                                output.o
ehci_submit_bulk                                  output.o
ehci_submit_control                               output.o
ehci_submit_interrupt                             output.o
end                                               output.o
entry                                             output.o
entry_pd                                          output.o
entry_pd0                                         output.o
entry_pdp                                         output.o
ept_spinlock                                      output.o
evp_pkey_set_cb_translate                         output.o
exitprocess                                       output.o
findProtectedApplicationFromRIP                   output.o
findUnmappedPage                                  output.o
free                                              output.o
free_config_descriptors                           output.o
free_device                                       output.o
free_page                                         output.o
free_page_phys                                    output.o
g_rgSCardT0Pci                                    output.o
g_rgSCardT1Pci                                    output.o
getCurrentProtectedApplication                    output.o
getGuestRSP                                       output.o
getMemoryOwnershipTableEntry                      output.o
getMemoryOwnershipTableIndex                      output.o
getSystemCallHandlerGPA                           output.o
getTSSGVA                                         output.o
get_acpi_time                                     output.o
get_acpi_time_raw                                 output.o
get_cpu_id                                        output.o
get_cpu_time                                      output.o
get_ept_base_HPA                                  output.o
get_guest_cr3_value                               output.o
get_guest_eptp_value                              output.o
get_gurb_by_address                               output.o
get_idman_session                                 output.o
get_page_table_base_GPA                           output.o
get_seg_access_rights                             output.o
get_seg_base                                      output.o
get_time                                          output.o
getfakesysmemmap                                  output.o
getsysmemmap                                      output.o
gmm_pass_gp2hp                                    output.o
gpaToHPA                                          output.o
gs_current                                        output.o
gs_currentcpu                                     output.o
gs_init_count                                     output.o
gs_inthandling                                    output.o
gs_nmi                                            output.o
gs_syscallstack                                   output.o
guest_int0x15_e801_fake_ax                        output.o
guest_int0x15_e801_fake_bx                        output.o
guest_int0x15_e820_data_minus0x18                 output.o
guest_int0x15_e820_end                            output.o
guest_int0x15_hook                                output.o
guest_int0x15_hook_end                            output.o
guest_int0x15_orig                                output.o
gvaToGPA                                          output.o
hContext                                          output.o
hObjectCnt                                        output.o
hSessionCnt                                       output.o
handleSystemCall                                  output.o
handle_connect_status                             output.o
handle_init_to_bsp                                output.o
handle_port_reset                                 output.o
handler_descriptor                                output.o
handler_descriptor_lock                           output.o
head                                              output.o
hex_to_string                                     output.o
hmac_asn1_meth                                    output.o
hmac_pkey_meth                                    output.o
hub_portdevice_register                           output.o
hypercall_handler                                 output.o
i2a_ACCESS_DESCRIPTION                            output.o
i2a_ASN1_INTEGER                                  output.o
i2a_ASN1_OBJECT                                   output.o
i2a_ASN1_STRING                                   output.o
i2c_ASN1_BIT_STRING                               output.o
i2c_ASN1_INTEGER                                  output.o
i2d_ACCESS_DESCRIPTION                            output.o
i2d_ASN1_BIT_STRING                               output.o
i2d_ASN1_BMPSTRING                                output.o
i2d_ASN1_BOOLEAN                                  output.o
i2d_ASN1_ENUMERATED                               output.o
i2d_ASN1_GENERALIZEDTIME                          output.o
i2d_ASN1_GENERALSTRING                            output.o
i2d_ASN1_IA5STRING                                output.o
i2d_ASN1_INTEGER                                  output.o
i2d_ASN1_NULL                                     output.o
i2d_ASN1_OBJECT                                   output.o
i2d_ASN1_OCTET_STRING                             output.o
i2d_ASN1_PRINTABLE                                output.o
i2d_ASN1_PRINTABLESTRING                          output.o
i2d_ASN1_SEQUENCE_ANY                             output.o
i2d_ASN1_SET                                      output.o
i2d_ASN1_SET_ANY                                  output.o
i2d_ASN1_T61STRING                                output.o
i2d_ASN1_TIME                                     output.o
i2d_ASN1_TYPE                                     output.o
i2d_ASN1_UNIVERSALSTRING                          output.o
i2d_ASN1_UTCTIME                                  output.o
i2d_ASN1_UTF8STRING                               output.o
i2d_ASN1_VISIBLESTRING                            output.o
i2d_ASN1_bio_stream                               output.o
i2d_ASN1_bytes                                    output.o
i2d_AUTHORITY_INFO_ACCESS                         output.o
i2d_AUTHORITY_KEYID                               output.o
i2d_BASIC_CONSTRAINTS                             output.o
i2d_CERTIFICATEPOLICIES                           output.o
i2d_CMS_ContentInfo                               output.o
i2d_CMS_bio                                       output.o
i2d_CMS_bio_stream                                output.o
i2d_CRL_DIST_POINTS                               output.o
i2d_DHparams                                      output.o
i2d_DIRECTORYSTRING                               output.o
i2d_DISPLAYTEXT                                   output.o
i2d_DIST_POINT                                    output.o
i2d_DIST_POINT_NAME                               output.o
i2d_DSAPrivateKey                                 output.o
i2d_DSAPrivateKey_bio                             output.o
i2d_DSAPublicKey                                  output.o
i2d_DSA_PUBKEY                                    output.o
i2d_DSA_PUBKEY_bio                                output.o
i2d_DSA_SIG                                       output.o
i2d_DSAparams                                     output.o
i2d_ECDSA_SIG                                     output.o
i2d_ECPKPARAMETERS                                output.o
i2d_ECPKParameters                                output.o
i2d_ECParameters                                  output.o
i2d_ECPrivateKey                                  output.o
i2d_ECPrivateKey_bio                              output.o
i2d_EC_PRIVATEKEY                                 output.o
i2d_EC_PUBKEY                                     output.o
i2d_EC_PUBKEY_bio                                 output.o
i2d_EDIPARTYNAME                                  output.o
i2d_EXTENDED_KEY_USAGE                            output.o
i2d_GENERAL_NAME                                  output.o
i2d_GENERAL_NAMES                                 output.o
i2d_ISSUING_DIST_POINT                            output.o
i2d_NETSCAPE_CERT_SEQUENCE                        output.o
i2d_NETSCAPE_SPKAC                                output.o
i2d_NETSCAPE_SPKI                                 output.o
i2d_NOTICEREF                                     output.o
i2d_OCSP_BASICRESP                                output.o
i2d_OCSP_CERTID                                   output.o
i2d_OCSP_CERTSTATUS                               output.o
i2d_OCSP_CRLID                                    output.o
i2d_OCSP_ONEREQ                                   output.o
i2d_OCSP_REQINFO                                  output.o
i2d_OCSP_REQUEST                                  output.o
i2d_OCSP_RESPBYTES                                output.o
i2d_OCSP_RESPDATA                                 output.o
i2d_OCSP_RESPID                                   output.o
i2d_OCSP_RESPONSE                                 output.o
i2d_OCSP_REVOKEDINFO                              output.o
i2d_OCSP_SERVICELOC                               output.o
i2d_OCSP_SIGNATURE                                output.o
i2d_OCSP_SINGLERESP                               output.o
i2d_OTHERNAME                                     output.o
i2d_PBE2PARAM                                     output.o
i2d_PBEPARAM                                      output.o
i2d_PBKDF2PARAM                                   output.o
i2d_PKCS12                                        output.o
i2d_PKCS12_BAGS                                   output.o
i2d_PKCS12_MAC_DATA                               output.o
i2d_PKCS12_SAFEBAG                                output.o
i2d_PKCS12_bio                                    output.o
i2d_PKCS7                                         output.o
i2d_PKCS7_DIGEST                                  output.o
i2d_PKCS7_ENCRYPT                                 output.o
i2d_PKCS7_ENC_CONTENT                             output.o
i2d_PKCS7_ENVELOPE                                output.o
i2d_PKCS7_ISSUER_AND_SERIAL                       output.o
i2d_PKCS7_NDEF                                    output.o
i2d_PKCS7_RECIP_INFO                              output.o
i2d_PKCS7_SIGNED                                  output.o
i2d_PKCS7_SIGNER_INFO                             output.o
i2d_PKCS7_SIGN_ENVELOPE                           output.o
i2d_PKCS7_bio                                     output.o
i2d_PKCS8PrivateKeyInfo_bio                       output.o
i2d_PKCS8PrivateKey_bio                           output.o
i2d_PKCS8PrivateKey_nid_bio                       output.o
i2d_PKCS8_PRIV_KEY_INFO                           output.o
i2d_PKCS8_PRIV_KEY_INFO_bio                       output.o
i2d_PKCS8_bio                                     output.o
i2d_PKEY_USAGE_PERIOD                             output.o
i2d_POLICYINFO                                    output.o
i2d_POLICYQUALINFO                                output.o
i2d_PROXY_CERT_INFO_EXTENSION                     output.o
i2d_PROXY_POLICY                                  output.o
i2d_PUBKEY                                        output.o
i2d_PUBKEY_bio                                    output.o
i2d_PrivateKey                                    output.o
i2d_PrivateKey_bio                                output.o
i2d_RSAPrivateKey                                 output.o
i2d_RSAPrivateKey_bio                             output.o
i2d_RSAPublicKey                                  output.o
i2d_RSAPublicKey_bio                              output.o
i2d_RSA_PUBKEY                                    output.o
i2d_RSA_PUBKEY_bio                                output.o
i2d_SXNET                                         output.o
i2d_SXNETID                                       output.o
i2d_USERNOTICE                                    output.o
i2d_X509                                          output.o
i2d_X509_ALGOR                                    output.o
i2d_X509_ALGORS                                   output.o
i2d_X509_ATTRIBUTE                                output.o
i2d_X509_AUX                                      output.o
i2d_X509_CERT_AUX                                 output.o
i2d_X509_CERT_PAIR                                output.o
i2d_X509_CINF                                     output.o
i2d_X509_CRL                                      output.o
i2d_X509_CRL_INFO                                 output.o
i2d_X509_CRL_bio                                  output.o
i2d_X509_EXTENSION                                output.o
i2d_X509_EXTENSIONS                               output.o
i2d_X509_NAME                                     output.o
i2d_X509_NAME_ENTRY                               output.o
i2d_X509_PUBKEY                                   output.o
i2d_X509_REQ                                      output.o
i2d_X509_REQ_INFO                                 output.o
i2d_X509_REQ_bio                                  output.o
i2d_X509_REVOKED                                  output.o
i2d_X509_SIG                                      output.o
i2d_X509_VAL                                      output.o
i2d_X509_bio                                      output.o
i2o_ECPublicKey                                   output.o
i2s_ASN1_ENUMERATED                               output.o
i2s_ASN1_ENUMERATED_TABLE                         output.o
i2s_ASN1_INTEGER                                  output.o
i2s_ASN1_OCTET_STRING                             output.o
i2t_ASN1_OBJECT                                   output.o
i2v_ASN1_BIT_STRING                               output.o
i2v_GENERAL_NAME                                  output.o
i2v_GENERAL_NAMES                                 output.o
idea_cbc_encrypt                                  output.o
idea_cfb64_encrypt                                output.o
idea_ecb_encrypt                                  output.o
idea_encrypt                                      output.o
idea_ofb64_encrypt                                output.o
idea_options                                      output.o
idea_set_decrypt_key                              output.o
idea_set_encrypt_key                              output.o
idman_reinit2                                     output.o
idman_reinit_session                              output.o
idman_user_init                                   output.o
ieee1394_init                                     output.o
initPagePool                                      output.o
init_hframelist                                   output.o
initfunc_init                                     output.o
initializeNewProtectedApplication                 output.o
int1a_TCG_CompactHashLogExtendEvent               output.o
int1a_TCG_HashAll                                 output.o
int1a_TCG_HashLogEvent                            output.o
int1a_TCG_HashLogExtendEvent                      output.o
int1a_TCG_PassThroughToTPM                        output.o
int1a_TCG_StatusCheck                             output.o
int1a_TCG_TSS                                     output.o
int_callfunc                                      output.o
int_exceptionHandler                              output.o
int_fatal                                         output.o
int_handler                                       output.o
int_init_ap                                       output.o
int_rsa_verify                                    output.o
interrupt_handler                                 output.o
iodom_init                                        output.o
iommu_detected                                    output.o
iommu_setup                                       output.o
ipchecksum                                        output.o
keyboard_flush                                    output.o
keyboard_reset                                    output.o
level_add_node                                    output.o
level_find_node                                   output.o
lh_delete                                         output.o
lh_doall                                          output.o
lh_doall_arg                                      output.o
lh_free                                           output.o
lh_insert                                         output.o
lh_new                                            output.o
lh_num_items                                      output.o
lh_retrieve                                       output.o
lh_strhash                                        output.o
lh_version                                        output.o
libInitFlag                                       output.o
load_bootsector                                   output.o
load_minios                                       output.o
load_new_vcpu                                     output.o
localapic_change_base_msr                         output.o
localapic_mmio_register                           output.o
localapic_wait_for_sipi                           output.o
mapHPAintoHVA                                     output.o
mapmem                                            output.o
mapmem_gphys                                      output.o
mapmem_hphys                                      output.o
matched_drhd_u                                    output.o
md4_block_data_order                              output.o
md5_block_data_order                              output.o
memcmp                                            output.o
memcpy                                            output.o
memorysize                                        output.o
mempool_allocmem                                  output.o
mempool_free                                      output.o
mempool_freemem                                   output.o
mempool_new                                       output.o
memset                                            output.o
message_exitcode                                  output.o
message_exitreason                                output.o
mm_flush_wb_cache                                 output.o
mm_force_unlock                                   output.o
mm_process_alloc                                  output.o
mm_process_free                                   output.o
mm_process_map_alloc                              output.o
mm_process_map_shared                             output.o
mm_process_map_shared_physpage                    output.o
mm_process_map_stack                              output.o
mm_process_switch                                 output.o
mm_process_unmap                                  output.o
mm_process_unmap_stack                            output.o
mm_process_unmapall                               output.o
mmio_access_memory                                output.o
mmio_access_page                                  output.o
mmio_lock                                         output.o
mmio_register                                     output.o
mmio_unlock                                       output.o
mmio_unregister                                   output.o
monitor_memset                                    output.o
monitor_vmcs_read                                 output.o
monitor_vmcs_write                                output.o
move_vmm_area32                                   output.o
move_vmm_area64                                   output.o
mpudiv_128_32                                     output.o
mpumul_64_64                                      output.o
msg_findname                                      output.o
msg_register                                      output.o
msg_unregister                                    output.o
msg_unregister2                                   output.o
msg_unregisterall                                 output.o
msg_usb_bulk_read                                 output.o
msg_usb_bulk_write                                output.o
msg_usb_claim_interface                           output.o
msg_usb_close                                     output.o
msg_usb_control_msg                               output.o
msg_usb_find_busses                               output.o
msg_usb_find_devices                              output.o
msg_usb_get_busses                                output.o
msg_usb_get_string_simple                         output.o
msg_usb_init                                      output.o
msg_usb_open                                      output.o
msg_usb_release_interface                         output.o
msg_usb_reset                                     output.o
msg_vpn_FreeTimer                                 output.o
msg_vpn_GetCurrentCpuId                           output.o
msg_vpn_GetPhysicalNicInfo                        output.o
msg_vpn_GetTickCount                              output.o
msg_vpn_GetVirtualNicInfo                         output.o
msg_vpn_NewTimer                                  output.o
msg_vpn_SendPhysicalNic                           output.o
msg_vpn_SendVirtualNic                            output.o
msg_vpn_SetPhysicalNicRecvCallback                output.o
msg_vpn_SetTimer                                  output.o
msg_vpn_SetVirtualNicRecvCallback                 output.o
msg_vpn_ic_rsa_sign                               output.o
msgclose                                          output.o
msgopen                                           output.o
msgpremapbuf                                      output.o
msgregister                                       output.o
msgsendbuf                                        output.o
msgsenddesc                                       output.o
msgsendint                                        output.o
msgsetfunc                                        output.o
msgunregister                                     output.o
mszReaders                                        output.o
name_cmp                                          output.o
newprocess                                        output.o
num_dom                                           output.o
num_of_available_pages                            output.o
num_of_processors                                 output.o
numberOfProtectedApplications                     output.o
numberOfVMs                                       output.o
o2i_ECPublicKey                                   output.o
obj_cleanup_defer                                 output.o
openPage                                          output.o
openSystemCallHandler                             output.o
packet_handle_command                             output.o
packet_handle_config                              output.o
packet_handle_invalid                             output.o
packet_handle_nondata                             output.o
packet_handle_rw                                  output.o
packet_handle_through                             output.o
panic                                             output.o
panic_oom                                         output.o
panic_test                                        output.o
panic_wakeup_all                                  output.o
parse_dmar_bios_report                            output.o
pci_append_device                                 output.o
pci_conceal_config_data_handler                   output.o
pci_conceal_new_device                            output.o
pci_config_addr_handler                           output.o
pci_config_data_handler                           output.o
pci_device_list_head                              output.o
pci_driver_list_head                              output.o
pci_handle_default_config_write                   output.o
pci_possible_new_device                           output.o
pci_print_device                                  output.o
pci_read_config_data16                            output.o
pci_read_config_data32                            output.o
pci_read_config_data8                             output.o
pci_read_config_data_port                         output.o
pci_register_driver                               output.o
pci_restore_config_addr                           output.o
pci_save_config_addr                              output.o
pci_write_config_data16                           output.o
pci_write_config_data32                           output.o
pci_write_config_data8                            output.o
pci_write_config_data_port                        output.o
pcpu_default                                      output.o
pcpu_init                                         output.o
pcpu_list_add                                     output.o
pcpu_list_foreach                                 output.o
pem_check_suffix                                  output.o
phys_in_vmm                                       output.o
phys_to_virt                                      output.o
pmap_autoalloc                                    output.o
pmap_clear                                        output.o
pmap_close                                        output.o
pmap_dump                                         output.o
pmap_getreadlevel                                 output.o
pmap_open_guest                                   output.o
pmap_open_vmm                                     output.o
pmap_pointer                                      output.o
pmap_read                                         output.o
pmap_seek                                         output.o
pmap_setlevel                                     output.o
pmap_write                                        output.o
policy_cache_find_data                            output.o
policy_cache_free                                 output.o
policy_cache_set                                  output.o
policy_cache_set_mapping                          output.o
policy_data_free                                  output.o
policy_data_new                                   output.o
policy_node_cmp_new                               output.o
policy_node_free                                  output.o
policy_node_match                                 output.o
prepare_for_sleep                                 output.o
printexitcode                                     output.o
printexitreason                                   output.o
printf                                            output.o
pro100_alloc_page                                 output.o
pro100_alloc_recv_buffer                          output.o
pro100_beep                                       output.o
pro100_config_read                                output.o
pro100_config_write                               output.o
pro100_exec_cu_op                                 output.o
pro100_flush                                      output.o
pro100_free_page                                  output.o
pro100_generate_int                               output.o
pro100_get_ctx                                    output.o
pro100_get_cu_command_string                      output.o
pro100_get_int_bit_string                         output.o
pro100_get_op_size                                output.o
pro100_get_ru_command_string                      output.o
pro100_get_stat_ack_string                        output.o
pro100_hook_read                                  output.o
pro100_hook_write                                 output.o
pro100_init                                       output.o
pro100_init_cu_base_addr                          output.o
pro100_init_recv_buffer                           output.o
pro100_init_ru_base_addr                          output.o
pro100_init_vpn_client                            output.o
pro100_io_handler                                 output.o
pro100_mem_read                                   output.o
pro100_mem_write                                  output.o
pro100_mm_handler                                 output.o
pro100_new                                        output.o
pro100_poll_ru                                    output.o
pro100_proc_guest_op                              output.o
pro100_read                                       output.o
pro100_read_send_packet                           output.o
pro100_send_packet_to_line                        output.o
pro100_sleep                                      output.o
pro100_wait_cu_ru_accepable                       output.o
pro100_write                                      output.o
pro100_write_recv_packet                          output.o
process_kill                                      output.o
process_syscall                                   output.o
processuser_no_sysenter                           output.o
processuser_syscall                               output.o
processuser_sysenter                              output.o
prohibit_iccard_init                              output.o
protectCurrentApplication                         output.o
protecting                                        output.o
ps2_locked                                        output.o
putchar                                           output.o
putchar_set_func                                  output.o
rand_ssleay_meth                                  output.o
read_gphys_b                                      output.o
read_gphys_l                                      output.o
read_gphys_q                                      output.o
read_gphys_w                                      output.o
read_hphys_b                                      output.o
read_hphys_l                                      output.o
read_hphys_q                                      output.o
read_hphys_w                                      output.o
read_linearaddr_b                                 output.o
read_linearaddr_l                                 output.o
read_linearaddr_q                                 output.o
read_linearaddr_tss                               output.o
read_linearaddr_w                                 output.o
readerState                                       output.o
readerTracker                                     output.o
realloc                                           output.o
reboot_test                                       output.o
register_status_callback                          output.o
remapPage                                         output.o
restore_guest_status                              output.o
restore_register                                  output.o
resume_vm                                         output.o
ret_to_user32                                     output.o
ret_to_user64                                     output.o
ripemd160_block_data_order                        output.o
rsa_asn1_meths                                    output.o
rsa_pkey_meth                                     output.o
rt                                                output.o
s2i_ASN1_INTEGER                                  output.o
s2i_ASN1_OCTET_STRING                             output.o
sReaderContext                                    output.o
saveSystemCallHandlerAddress                      output.o
save_guest_status                                 output.o
savemsr_index                                     output.o
savemsr_load                                      output.o
savemsr_save                                      output.o
scan_gframelist                                   output.o
schedule                                          output.o
security_storage_check_lba                        output.o
segment_init_ap                                   output.o
segment_wakeup                                    output.o
serial_getDebugChar                               output.o
serial_init_iohook                                output.o
serial_putDebugChar                               output.o
serial_putchar                                    output.o
sessionTable                                      output.o
setCurrentProtectedApplication                    output.o
set_int_handler                                   output.o
set_iofunc                                        output.o
setkbdled                                         output.o
shadow_and_activate_urb                           output.o
sig_app                                           output.o
sigx_app                                          output.o
sk_delete                                         output.o
sk_delete_ptr                                     output.o
sk_dup                                            output.o
sk_find                                           output.o
sk_find_ex                                        output.o
sk_free                                           output.o
sk_insert                                         output.o
sk_is_sorted                                      output.o
sk_new                                            output.o
sk_new_null                                       output.o
sk_num                                            output.o
sk_pop                                            output.o
sk_pop_free                                       output.o
sk_push                                           output.o
sk_set                                            output.o
sk_set_cmp_func                                   output.o
sk_shift                                          output.o
sk_sort                                           output.o
sk_unshift                                        output.o
sk_value                                          output.o
sk_zero                                           output.o
sleep_set_timer_counter                           output.o
slotFlag                                          output.o
slotTable                                         output.o
snprintf                                          output.o
start_all_processors                              output.o
storage_free                                      output.o
storage_get_num_hc                                output.o
storage_handle_sectors                            output.o
storage_hc_close                                  output.o
storage_hc_dev_atacommand                         output.o
storage_hc_dev_close                              output.o
storage_hc_dev_open                               output.o
storage_hc_hook_register                          output.o
storage_hc_hook_unregister                        output.o
storage_hc_open                                   output.o
storage_hc_register                               output.o
storage_hc_scandev                                output.o
storage_hc_unregister                             output.o
storage_init                                      output.o
storage_io_aget_size                              output.o
storage_io_aread                                  output.o
storage_io_awrite                                 output.o
storage_io_deinit                                 output.o
storage_io_get_num_devices                        output.o
storage_io_init                                   output.o
storage_new                                       output.o
storage_premap_buf                                output.o
storage_premap_handle_sectors                     output.o
strcmp                                            output.o
string_to_hex                                     output.o
strlen                                            output.o
svm_available                                     output.o
svm_enable_resume                                 output.o
svm_extern_iopass                                 output.o
svm_init                                          output.o
svm_init_signal                                   output.o
svm_ioio                                          output.o
svm_msr_update_lma                                output.o
svm_np_clear_all                                  output.o
svm_np_extern_mapsearch                           output.o
svm_np_init                                       output.o
svm_np_map_1mb                                    output.o
svm_np_pagefault                                  output.o
svm_np_tlbflush                                   output.o
svm_np_updatecr3                                  output.o
svm_paging_apply_fixed_cr0                        output.o
svm_paging_apply_fixed_cr4                        output.o
svm_paging_clear_all                              output.o
svm_paging_extern_flush_tlb_entry                 output.o
svm_paging_flush_guest_tlb                        output.o
svm_paging_get_gpat                               output.o
svm_paging_init                                   output.o
svm_paging_invalidate                             output.o
svm_paging_map_1mb                                output.o
svm_paging_npf                                    output.o
svm_paging_pagefault                              output.o
svm_paging_pg_change                              output.o
svm_paging_set_gpat                               output.o
svm_paging_spt_setcr3                             output.o
svm_paging_start                                  output.o
svm_paging_tlbflush                               output.o
svm_paging_updatecr3                              output.o
svm_panic_dump                                    output.o
svm_read_control_reg                              output.o
svm_read_flags                                    output.o
svm_read_gdtr                                     output.o
svm_read_general_reg                              output.o
svm_read_idtr                                     output.o
svm_read_ip                                       output.o
svm_read_msr                                      output.o
svm_read_sreg_acr                                 output.o
svm_read_sreg_base                                output.o
svm_read_sreg_limit                               output.o
svm_read_sreg_sel                                 output.o
svm_reset                                         output.o
svm_resume                                        output.o
svm_start_vm                                      output.o
svm_vmexit                                        output.o
svm_vminit                                        output.o
svm_write_control_reg                             output.o
svm_write_flags                                   output.o
svm_write_gdtr                                    output.o
svm_write_general_reg                             output.o
svm_write_idtr                                    output.o
svm_write_ip                                      output.o
svm_write_msr                                     output.o
svm_write_realmode_seg                            output.o
svm_writing_sreg                                  output.o
sx_handler                                        output.o
sym_to_phys                                       output.o
sync_all_processors                               output.o
sys_exitprocess                                   output.o
sys_msgclose                                      output.o
sys_msgopen                                       output.o
sys_msgregister                                   output.o
sys_msgret                                        output.o
sys_msgsendbuf                                    output.o
sys_msgsenddesc                                   output.o
sys_msgsendint                                    output.o
sys_msgsetfunc                                    output.o
sys_msgunregister                                 output.o
sys_newprocess                                    output.o
syscallHandlerAddress                             output.o
syscall_entry_lret                                output.o
syscall_entry_sysexit                             output.o
syscall_entry_sysret64                            output.o
syscall_metatata_table                            output.o
tcg_measure                                       output.o
test_gpaToHPA                                     output.o
test_logicalCPUStatus                             output.o
test_start                                        output.o
test_traverseGuestPages                           output.o
thread_exit                                       output.o
thread_gettid                                     output.o
thread_new                                        output.o
thread_set_process_switch                         output.o
thread_start0                                     output.o
thread_start1                                     output.o
thread_switch                                     output.o
thread_wakeup                                     output.o
thread_will_stop                                  output.o
timer_free                                        output.o
timer_new                                         output.o
timer_set                                         output.o
traverseGuestPages                                output.o
traverseIA32ePDPT                                 output.o
traverseIA32ePDT                                  output.o
traverseIA32ePT                                   output.o
traverseIA32ePages                                output.o
tree_find_sk                                      output.o
tty_init_iohook                                   output.o
tty_putchar                                       output.o
tty_udp_register                                  output.o
ttylog_stop                                       output.o
uhci_activate_urb                                 output.o
uhci_check_advance                                output.o
uhci_check_urb_advance                            output.o
uhci_create_urb                                   output.o
uhci_current_frame_number                         output.o
uhci_deactivate_urb                               output.o
uhci_destroy_unlinked_urbs                        output.o
uhci_destroy_urb                                  output.o
uhci_dump_all                                     output.o
uhci_error_status_string                          output.o
uhci_framelist_monitor                            output.o
uhci_init                                         output.o
uhci_monitor_boost_hc                             output.o
uhci_reactivate_urb                               output.o
uhci_shadow_buffer                                output.o
uhci_submit_bulk                                  output.o
uhci_submit_control                               output.o
uhci_submit_interrupt                             output.o
unmapHPAintoHVA                                   output.o
unmapmem                                          output.o
update_mtrr_and_pat                               output.o
usb_bulk_read                                     output.o
usb_bulk_write                                    output.o
usb_busses_head                                   output.o
usb_claim_interface                               output.o
usb_clear_halt                                    output.o
usb_close                                         output.o
usb_control_msg                                   output.o
usb_find_busses                                   output.o
usb_find_devices                                  output.o
usb_get_bus                                       output.o
usb_get_busses                                    output.o
usb_get_descriptor                                output.o
usb_get_descriptor_by_endpoint                    output.o
usb_get_descriptor_early                          output.o
usb_get_string                                    output.o
usb_get_string_simple                             output.o
usb_hc_list_head                                  output.o
usb_hook_process                                  output.o
usb_hook_register                                 output.o
usb_hook_unregister                               output.o
usb_init                                          output.o
usb_init_device_monitor                           output.o
usb_interrupt_read                                output.o
usb_interrupt_write                               output.o
usb_log_level                                     output.o
usb_new_dev_handle                                output.o
usb_open                                          output.o
usb_register_host                                 output.o
usb_release_interface                             output.o
usb_reset                                         output.o
usb_resetep                                       output.o
usb_sc_lock                                       output.o
usb_sc_unlock                                     output.o
usb_set_altinterface                              output.o
usb_set_configuration                             output.o
usb_set_debug                                     output.o
usb_unregister_devices                            output.o
usbccid_init_handle                               output.o
usbhid_init_handle                                output.o
usbhub_init_handle                                output.o
usbmsc_init_handle                                output.o
use_pae                                           output.o
usleep                                            output.o
v2i_ASN1_BIT_STRING                               output.o
v2i_GENERAL_NAME                                  output.o
v2i_GENERAL_NAMES                                 output.o
v2i_GENERAL_NAME_ex                               output.o
v3_akey_id                                        output.o
v3_alt                                            output.o
v3_bcons                                          output.o
v3_cpols                                          output.o
v3_crl_hold                                       output.o
v3_crl_invdate                                    output.o
v3_crl_num                                        output.o
v3_crl_reason                                     output.o
v3_crld                                           output.o
v3_delta_crl                                      output.o
v3_ext_ku                                         output.o
v3_freshest_crl                                   output.o
v3_idp                                            output.o
v3_info                                           output.o
v3_inhibit_anyp                                   output.o
v3_key_usage                                      output.o
v3_name_constraints                               output.o
v3_ns_ia5_list                                    output.o
v3_nscert                                         output.o
v3_ocsp_accresp                                   output.o
v3_ocsp_acutoff                                   output.o
v3_ocsp_crlid                                     output.o
v3_ocsp_nocheck                                   output.o
v3_ocsp_nonce                                     output.o
v3_ocsp_serviceloc                                output.o
v3_pci                                            output.o
v3_pkey_usage_period                              output.o
v3_policy_constraints                             output.o
v3_policy_mappings                                output.o
v3_sinfo                                          output.o
v3_skey_id                                        output.o
v3_sxnet                                          output.o
vcpu_list_foreach                                 output.o
vga_fill_rect                                     output.o
vga_get_screen_size                               output.o
vga_is_ready                                      output.o
vga_register                                      output.o
vga_transfer_image                                output.o
virt_to_phys                                      output.o
vmctl_svm_init                                    output.o
vmctl_vt_init                                     output.o
vmm_base_cr3                                      output.o
vmm_main                                          output.o
vmm_pd                                            output.o
vmm_pd1                                           output.o
vmm_pd2                                           output.o
vmm_pdp                                           output.o
vmm_pml4                                          output.o
vmm_start_inf                                     output.o
vmm_term_inf                                      output.o
vmmcall                                           output.o
vmmcall_boot_continue                             output.o
vmmcall_boot_enable                               output.o
vmmcall_init                                      output.o
vmmcall_register                                  output.o
vmmsize                                           output.o
vpn_FreeTimer                                     output.o
vpn_GetCurrentCpuId                               output.o
vpn_GetPhysicalNicInfo                            output.o
vpn_GetTickCount                                  output.o
vpn_GetVirtualNicInfo                             output.o
vpn_NewTimer                                      output.o
vpn_SendPhysicalNic                               output.o
vpn_SendVirtualNic                                output.o
vpn_SetPhysicalNicRecvCallback                    output.o
vpn_SetTimer                                      output.o
vpn_SetVirtualNicRecvCallback                     output.o
vpn_ic_rsa_sign                                   output.o
vpn_new_nic                                       output.o
vpn_premap_PhysicalNicRecv                        output.o
vpn_premap_VirtualNicRecv                         output.o
vpn_premap_recvbuf                                output.o
vpn_start                                         output.o
vpn_user_init                                     output.o
vprintf                                           output.o
vramwrite_clearscreen                             output.o
vramwrite_exit_global                             output.o
vramwrite_get_cursor_pos                          output.o
vramwrite_init_global                             output.o
vramwrite_mark1                                   output.o
vramwrite_mark2                                   output.o
vramwrite_mark3                                   output.o
vramwrite_putchar                                 output.o
vramwrite_restore_cursor                          output.o
vramwrite_save_and_move_cursor                    output.o
vsnprintf                                         output.o
vt__vmx_init                                      output.o
vt__vmxon                                         output.o
vt_add_guest_msr                                  output.o
vt_available                                      output.o
vt_enable_resume                                  output.o
vt_ept_clear_all                                  output.o
vt_ept_extern_mapsearch                           output.o
vt_ept_init                                       output.o
vt_ept_map_1mb                                    output.o
vt_ept_tlbflush                                   output.o
vt_ept_updatecr3                                  output.o
vt_ept_violation                                  output.o
vt_extern_iopass                                  output.o
vt_generate_external_int                          output.o
vt_generate_pagefault                             output.o
vt_get_current_regs_in_vmcs                       output.o
vt_get_vmcs_regs_in_vmcs                          output.o
vt_init                                           output.o
vt_init_signal                                    output.o
vt_io                                             output.o
vt_iopass                                         output.o
vt_iopass_init                                    output.o
vt_msr_init                                       output.o
vt_msr_update_lma                                 output.o
vt_paging_apply_fixed_cr0                         output.o
vt_paging_apply_fixed_cr4                         output.o
vt_paging_clear_all                               output.o
vt_paging_extern_flush_tlb_entry                  output.o
vt_paging_flush_guest_tlb                         output.o
vt_paging_get_gpat                                output.o
vt_paging_init                                    output.o
vt_paging_invalidate                              output.o
vt_paging_map_1mb                                 output.o
vt_paging_npf                                     output.o
vt_paging_pagefault                               output.o
vt_paging_pg_change                               output.o
vt_paging_set_gpat                                output.o
vt_paging_spt_setcr3                              output.o
vt_paging_start                                   output.o
vt_paging_tlbflush                                output.o
vt_paging_updatecr3                               output.o
vt_panic_dump                                     output.o
vt_read_control_reg                               output.o
vt_read_flags                                     output.o
vt_read_gdtr                                      output.o
vt_read_general_reg                               output.o
vt_read_guest_msr                                 output.o
vt_read_idtr                                      output.o
vt_read_ip                                        output.o
vt_read_msr                                       output.o
vt_read_sreg_acr                                  output.o
vt_read_sreg_base                                 output.o
vt_read_sreg_limit                                output.o
vt_read_sreg_sel                                  output.o
vt_reset                                          output.o
vt_resume                                         output.o
vt_start_vm                                       output.o
vt_update_exception_bmp                           output.o
vt_vmexit                                         output.o
vt_vminit                                         output.o
vt_vmptrld                                        output.o
vt_write_control_reg                              output.o
vt_write_flags                                    output.o
vt_write_gdtr                                     output.o
vt_write_general_reg                              output.o
vt_write_guest_msr                                output.o
vt_write_idtr                                     output.o
vt_write_ip                                       output.o
vt_write_msr                                      output.o
vt_write_realmode_seg                             output.o
vt_writing_sreg                                   output.o
waitcycles                                        output.o
wakeup_cont                                       output.o
wakeup_entry_addr                                 output.o
wakeup_entry_cr0                                  output.o
wakeup_entry_cr3                                  output.o
wakeup_entry_cr4                                  output.o
wakeup_entry_end                                  output.o
wakeup_entry_gdtr                                 output.o
wakeup_entry_start                                output.o
wakeup_init                                       output.o
wakeup_main                                       output.o
whirlpool_block                                   output.o
write_gphys_b                                     output.o
write_gphys_l                                     output.o
write_gphys_q                                     output.o
write_gphys_w                                     output.o
write_hphys_b                                     output.o
write_hphys_l                                     output.o
write_hphys_q                                     output.o
write_hphys_w                                     output.o
write_linearaddr_b                                output.o
write_linearaddr_l                                output.o
write_linearaddr_ok_b                             output.o
write_linearaddr_ok_l                             output.o
write_linearaddr_ok_w                             output.o
write_linearaddr_q                                output.o
write_linearaddr_tss                              output.o
write_linearaddr_w                                output.o
x509_name_ff                                      output.o
zero_page_pool                                    output.o
