
Allocating common symbols
Common symbol       size              file

clflush_size        0x4               output.o
sReaderContext      0x60              output.o
sigx_app            0x8               output.o
num_dom             0x4               output.o
mszReaders          0x400             output.o
prohibit_iccard_init
                    0x4               output.o
curthread           0x8               output.o
sig_app             0x8               output.o
readerState         0x64              output.o
dom_io              0x800             output.o
acpi_dsdt_system_state
                    0x1e              output.o
ehci_host           0x8               output.o
num_of_processors   0x4               output.o
e801_fake_bx        0x2               output.o
iommu_detected      0x1               output.o
dwReaders           0x8               output.o
readerTracker       0x140             output.o
handler_descriptor_lock
                    0x1               output.o
e801_fake_ax        0x2               output.o

Discarded input sections

 .gomi          0x0000000000000000        0xe output.o

Memory Configuration

Name             Origin             Length             Attributes
*default*        0x0000000000000000 0xffffffffffffffff

Linker script and memory map

                0x0000000040100000                virt = 0x40100000
                0x0000000000100000                phys = 0x100000
                0x0000000040100000                . = virt
                0x0000000040100000                head = .
                0x00000000401000b0                . = (virt + SIZEOF_HEADERS)

.text           0x0000000040101000   0x111fb6 load address 0x0000000000101000
                0x0000000040101000                code = .
 *(.entry)
 .entry         0x0000000040101000     0x6000 output.o
                0x000000004010100c                entry
                0x000000004010109a                cpuinit_start
                0x00000000401012c8                vmm_base_cr3
                0x00000000401012e0                apinit_procs
                0x00000000401012e8                apinit_lock
                0x00000000401012f0                cpuinit_end
                0x0000000040103000                entry_pdp
                0x0000000040104000                entry_pd0
                0x0000000040105000                entry_pd
 *(.text)
 .text          0x0000000040107000   0x10bfb6 output.o
                0x000000004010766c                acpi_smi_hook
                0x00000000401076ba                acpi_iohook
                0x000000004010770c                acpi_reset
                0x0000000040107808                acpi_poweroff
                0x0000000040107841                get_acpi_time_raw
                0x000000004010c811                acpi_dsdt_parse
                0x000000004010ccea                apinitproc0
                0x000000004010cd13                apic_available
                0x000000004010cd3f                ap_start_addr
                0x000000004010cf82                panic_wakeup_all
                0x000000004010d006                disable_apic
                0x000000004010d07d                sync_all_processors
                0x000000004010d10d                start_all_processors
                0x000000004010d14c                assertion_failed
                0x000000004010d185                beep_set_freq
                0x000000004010d1b6                beep_on
                0x000000004010d1c6                beep_off
                0x000000004010d80d                update_mtrr_and_pat
                0x000000004010da52                cache_get_gpat
                0x000000004010daa8                cache_set_gpat
                0x000000004010daf2                cache_get_attr
                0x000000004010db98                cache_get_gmtrr_type
                0x000000004010dba3                cache_get_gmtrr_attr
                0x000000004010dbb6                cache_get_gmtrrcap
                0x000000004010dbe4                cache_get_gmtrr
                0x000000004010dd3d                cache_set_gmtrr
                0x000000004010dd97                cache_get_gmsr_amd
                0x000000004010dde7                cache_set_gmsr_amd
                0x000000004010e22b                callrealmode_endofcodeaddr
                0x000000004010e23c                callrealmode_usevcpu
                0x000000004010e249                callrealmode_printmsg
                0x000000004010e266                callrealmode_getsysmemmap
                0x000000004010e2bd                callrealmode_getshiftflags
                0x000000004010e2db                callrealmode_setvideomode
                0x000000004010e2f9                callrealmode_reboot
                0x000000004010e313                callrealmode_tcgbios
                0x000000004010e3a7                callrealmode_disk_readmbr
                0x000000004010e3e7                callrealmode_disk_readlba
                0x000000004010e42f                callrealmode_bootcd_getstatus
                0x000000004010e484                callrealmode_setcursorpos
                0x000000004010e4a9                callrealmode_startkernel32
                0x000000004010e4c9                callrealmode_getfontinfo
                0x000000004010e539                get_cpu_id
                0x000000004010e54d                cpu_emul_cpuid
                0x000000004010e601                cpu_emul_rdmsr
                0x000000004010e67a                cpu_emul_wrmsr
                0x000000004010e6f0                cpu_emul_hlt
                0x000000004010e708                cpu_emul_cli
                0x000000004010e741                cpu_emul_sti
                0x000000004010e788                cpu_emul_realmode_int
                0x000000004010e8ea                cpu_emul_xsetbv
                0x00000000401110f8                cpu_interpreter
                0x0000000040113420                cpu_mmu_get_pte
                0x0000000040113bb5                write_linearaddr_ok_b
                0x0000000040113bd7                write_linearaddr_ok_w
                0x0000000040113be2                write_linearaddr_ok_l
                0x0000000040113bed                write_linearaddr_b
                0x0000000040113c5b                write_linearaddr_w
                0x0000000040113cf3                write_linearaddr_l
                0x0000000040113d89                write_linearaddr_q
                0x0000000040113e1d                read_linearaddr_b
                0x0000000040113e8a                read_linearaddr_w
                0x0000000040113f1b                read_linearaddr_l
                0x0000000040113fac                read_linearaddr_q
                0x000000004011403d                read_linearaddr_tss
                0x00000000401140d0                write_linearaddr_tss
                0x000000004011802f                cpu_mmu_spt_tlbflush
                0x000000004011806a                cpu_mmu_spt_updatecr3
                0x000000004011830a                cpu_mmu_spt_invalidate
                0x0000000040118392                cpu_mmu_spt_pagefault
                0x0000000040118589                cpu_mmu_spt_extern_mapsearch
                0x00000000401186c8                cpu_mmu_spt_map_1mb
                0x000000004011887c                cpu_mmu_spt_clear_all
                0x00000000401189dd                cpu_mmu_spt_init
                0x0000000040118ff1                cpu_seg_read_b
                0x000000004011905e                cpu_seg_read_w
                0x00000000401190cb                cpu_seg_read_l
                0x0000000040119138                cpu_seg_read_q
                0x00000000401191a5                cpu_seg_write_b
                0x0000000040119213                cpu_seg_write_w
                0x0000000040119281                cpu_seg_write_l
                0x00000000401192ee                cpu_seg_write_q
                0x000000004011935b                cpu_stack_get
                0x00000000401193c5                cpu_stack_set
                0x000000004011945a                cpu_stack_push
                0x0000000040119506                cpu_stack_pop
                0x00000000401195f1                call_cpuid
                0x00000000401199aa                debug_addstr
                0x00000000401199b0                debug_gdb
                0x00000000401199b6                debug_iohook
                0x00000000401199bc                debug_msgregister
                0x00000000401199ec                debug_msgunregister
                0x0000000040119a89                do_exint_pass
                0x0000000040119b1d                read_gphys_b
                0x0000000040119b8f                write_gphys_b
                0x0000000040119c12                read_gphys_w
                0x0000000040119caf                write_gphys_w
                0x0000000040119d60                read_gphys_l
                0x0000000040119dfd                write_gphys_l
                0x0000000040119eb1                read_gphys_q
                0x0000000040119f4e                write_gphys_q
                0x0000000040119fff                cmpxchg_gphys_l
                0x000000004011a0bd                cmpxchg_gphys_q
                0x000000004011a17b                gmm_pass_gp2hp
                0x000000004011a645                idman_reinit_session
                0x000000004011a6c0                idman_reinit2
                0x000000004011a6e1                get_idman_session
                0x000000004011a721                call_initfunc
                0x000000004011a786                initfunc_init
                0x000000004011c305                int_fatal
                0x000000004011c664                callfunc_and_getint
                0x000000004011c678                do_externalint_enable
                0x000000004011c68d                set_int_handler
                0x000000004011c6ac                int_exceptionHandler
                0x000000004011c6b7                int_init_ap
                0x000000004011c70d                do_io_nothing
                0x000000004011c748                set_iofunc
                0x000000004011c7ea                call_io
                0x000000004011c8d0                do_iopass_default
                0x000000004011cab6                keyboard_reset
                0x000000004011cafb                setkbdled
                0x000000004011cb4c                keyboard_flush
                0x000000004011cb66                load_bootsector
                0x000000004011cf21                copy_bootsector
                0x000000004011d1d0                localapic_wait_for_sipi
                0x000000004011d25d                localapic_change_base_msr
                0x000000004011d2a9                localapic_mmio_register
                0x000000004011dc74                resume_vm
                0x000000004011dd2e                vmm_main
                0x000000004011e0b4                getsysmemmap
                0x000000004011e13b                getfakesysmemmap
                0x000000004011e1ad                phys_to_virt
                0x000000004011e1c3                vmm_start_inf
                0x000000004011e1cf                vmm_term_inf
                0x000000004011e1e0                num_of_available_pages
                0x000000004011e253                alloc_pages
                0x000000004011e2c9                alloc_page
                0x000000004011e2d9                alloc
                0x000000004011e571                alloc2
                0x000000004011e5a9                free
                0x000000004011e6bc                realloc
                0x000000004011e808                free_page
                0x000000004011e81b                free_page_phys
                0x000000004011e83e                mempool_new
                0x000000004011e8ac                mempool_free
                0x000000004011e95d                mempool_allocmem
                0x000000004011eb42                mempool_freemem
                0x000000004011edfe                sym_to_phys
                0x000000004011ee12                phys_in_vmm
                0x000000004011ee2e                mm_force_unlock
                0x000000004011ee60                mm_process_alloc
                0x000000004011f030                mm_process_free
                0x000000004011f08d                mm_process_switch
                0x000000004011f0ab                pmap_open_vmm
                0x000000004011f0d6                pmap_open_guest
                0x000000004011f118                pmap_close
                0x000000004011f11e                pmap_getreadlevel
                0x000000004011f12a                pmap_setlevel
                0x000000004011f136                pmap_seek
                0x000000004011f1a6                pmap_read
                0x000000004011f434                pmap_write
                0x000000004011f5cc                mm_process_unmap
                0x000000004011f6b9                mm_process_unmap_stack
                0x000000004011f894                mm_process_unmapall
                0x000000004011f93b                pmap_pointer
                0x000000004011f9a6                pmap_clear
                0x000000004011fa9c                pmap_autoalloc
                0x000000004011fc49                mm_process_map_alloc
                0x000000004011fd8c                mm_process_map_shared_physpage
                0x000000004011fdf6                mm_process_map_shared
                0x0000000040120054                mm_process_map_stack
                0x00000000401208fe                pmap_dump
                0x0000000040120a16                unmapmem
                0x0000000040120af7                mapmem
                0x000000004012103e                read_hphys_b
                0x0000000040121093                write_hphys_b
                0x00000000401210c5                read_hphys_w
                0x00000000401210fc                write_hphys_w
                0x000000004012112f                read_hphys_l
                0x0000000040121164                write_hphys_l
                0x0000000040121196                read_hphys_q
                0x00000000401211cd                write_hphys_q
                0x0000000040121201                cmpxchg_hphys_l
                0x0000000040121255                cmpxchg_hphys_q
                0x00000000401212a9                alloc_realmodemem
                0x000000004012134a                mapmem_hphys
                0x0000000040121362                mapmem_gphys
                0x000000004012137a                mm_flush_wb_cache
                0x0000000040121724                mmio_access_memory
                0x0000000040121882                mmio_access_page
                0x000000004012193e                mmio_register
                0x0000000040121b8d                mmio_unregister
                0x0000000040121c14                mmio_lock
                0x0000000040121c2f                mmio_unlock
                0x0000000040121ccf                msg_findname
                0x0000000040121d3f                msg_register
                0x0000000040121e0e                msg_unregister
                0x0000000040121e89                msg_unregisterall
                0x0000000040121f14                msg_unregister2
                0x0000000040121fe1                call_read_msr
                0x0000000040121ff5                call_write_msr
                0x0000000040122291                load_minios
                0x00000000401225c2                backtrace
                0x0000000040122f18                panic
                0x000000004012341d                auto_reboot
                0x000000004012343a                panic_test
                0x000000004012345d                pcpu_list_foreach
                0x000000004012349c                pcpu_list_add
                0x00000000401234f0                pcpu_init
                0x000000004012407a                vprintf
                0x00000000401240b5                printf
                0x00000000401240f3                vsnprintf
                0x0000000040124137                snprintf
                0x0000000040124373                sys_msgsetfunc
                0x0000000040124420                sys_msgclose
                0x000000004012443d                sys_msgret
                0x0000000040124529                sys_msgregister
                0x000000004012475a                sys_msgsenddesc
                0x0000000040124f6c                sys_msgsendint
                0x000000004012529c                sys_newprocess
                0x00000000401252fd                sys_msgunregister
                0x0000000040125389                sys_exitprocess
                0x00000000401253de                sys_msgsendbuf
                0x0000000040125539                sys_msgopen
                0x000000004012559a                process_kill
                0x00000000401255fb                msgsetfunc
                0x0000000040125610                msgregister
                0x0000000040125626                msgopen
                0x0000000040125639                msgclose
                0x000000004012564b                msgsendint
                0x000000004012565f                msgsenddesc
                0x0000000040125673                newprocess
                0x0000000040125686                msgsendbuf
                0x00000000401256a0                msgunregister
                0x00000000401256d0                exitprocess
                0x00000000401256e3                msgpremapbuf
                0x00000000401257ff                process_syscall
                0x00000000401258aa                putchar
                0x00000000401258e8                putchar_set_func
                0x0000000040125bba                do_panic_reboot
                0x0000000040125c44                handle_init_to_bsp
                0x0000000040125c65                reboot_test
                0x0000000040125c94                savemsr_save
                0x0000000040125d01                savemsr_load
                0x0000000040126069                get_seg_base
                0x0000000040126125                get_seg_access_rights
                0x0000000040126145                segment_wakeup
                0x0000000040126187                segment_init_ap
                0x0000000040126426                serial_putDebugChar
                0x0000000040126438                serial_getDebugChar
                0x000000004012644d                serial_putchar
                0x00000000401264af                serial_init_iohook
                0x00000000401264f5                waitcycles
                0x0000000040126518                usleep
                0x0000000040126637                sleep_set_timer_counter
                0x000000004012679e                vmctl_svm_init
                0x0000000040126846                message_exitcode
                0x0000000040126dc9                printexitcode
                0x0000000040126df6                svm_available
                0x0000000040126ea7                svm_reset
                0x0000000040127124                svm_vminit
                0x00000000401274ce                svm_vmexit
                0x00000000401274d4                svm_init
                0x000000004012761b                svm_enable_resume
                0x0000000040127720                svm_resume
                0x0000000040127872                svm_ioio
                0x000000004012797c                svm_extern_iopass
                0x0000000040127ae4                svm_init_signal
                0x0000000040127b07                svm_start_vm
                0x0000000040128620                svm_msr_update_lma
                0x0000000040128695                svm_read_msr
                0x000000004012893a                svm_write_msr
                0x0000000040128ead                svm_np_init
                0x0000000040128fa1                svm_np_pagefault
                0x0000000040128fd9                svm_np_tlbflush
                0x0000000040128fdf                svm_np_updatecr3
                0x0000000040128fea                svm_np_clear_all
                0x000000004012907d                svm_np_extern_mapsearch
                0x0000000040129106                svm_np_map_1mb
                0x0000000040129160                svm_paging_extern_flush_tlb_entry
                0x0000000040129187                svm_paging_map_1mb
                0x00000000401291b1                svm_paging_flush_guest_tlb
                0x00000000401291f0                svm_paging_init
                0x000000004012930e                svm_paging_pagefault
                0x000000004012933a                svm_paging_tlbflush
                0x0000000040129361                svm_paging_invalidate
                0x000000004012938f                svm_paging_npf
                0x00000000401293bb                svm_paging_updatecr3
                0x00000000401293e7                svm_paging_spt_setcr3
                0x000000004012941b                svm_paging_clear_all
                0x0000000040129447                svm_paging_get_gpat
                0x0000000040129452                svm_paging_set_gpat
                0x0000000040129493                svm_paging_apply_fixed_cr0
                0x00000000401294b6                svm_paging_apply_fixed_cr4
                0x00000000401294da                svm_paging_pg_change
                0x00000000401294e0                svm_paging_start
                0x00000000401294f2                svm_panic_dump
                0x00000000401295c0                svm_read_general_reg
                0x00000000401296fc                svm_write_general_reg
                0x0000000040129808                svm_read_control_reg
                0x00000000401298a3                svm_write_control_reg
                0x000000004012997f                svm_read_sreg_sel
                0x0000000040129a40                svm_read_sreg_acr
                0x0000000040129b1b                svm_read_sreg_base
                0x0000000040129c37                svm_read_sreg_limit
                0x0000000040129d48                svm_read_ip
                0x0000000040129d67                svm_write_ip
                0x0000000040129d8d                svm_read_flags
                0x0000000040129dac                svm_write_flags
                0x0000000040129dc8                svm_read_gdtr
                0x0000000040129dff                svm_write_gdtr
                0x0000000040129e28                svm_read_idtr
                0x0000000040129e5f                svm_write_idtr
                0x0000000040129e88                svm_write_realmode_seg
                0x0000000040129fc7                svm_writing_sreg
                0x000000004012a0de                int1a_TCG_StatusCheck
                0x000000004012a191                int1a_TCG_HashLogExtendEvent
                0x000000004012a21c                int1a_TCG_PassThroughToTPM
                0x000000004012a2a7                int1a_TCG_HashLogEvent
                0x000000004012a328                int1a_TCG_HashAll
                0x000000004012a3e0                int1a_TCG_TSS
                0x000000004012a46b                int1a_TCG_CompactHashLogExtendEvent
                0x000000004012a4cc                tcg_measure
                0x000000004012a7c5                thread_gettid
                0x000000004012a7da                schedule
                0x000000004012aa20                thread_new
                0x000000004012ab4d                thread_wakeup
                0x000000004012ac32                thread_will_stop
                0x000000004012acaa                thread_exit
                0x000000004012ad4e                thread_start1
                0x000000004012ad6c                thread_set_process_switch
                0x000000004012af14                get_cpu_time
                0x000000004012afe7                get_acpi_time
                0x000000004012b098                get_time
                0x000000004012b275                timer_new
                0x000000004012b2f6                timer_set
                0x000000004012b3ec                timer_free
                0x000000004012b5de                tty_putchar
                0x000000004012b768                ttylog_stop
                0x000000004012b778                tty_udp_register
                0x000000004012b7bc                tty_init_iohook
                0x000000004012b7e3                vcpu_list_foreach
                0x000000004012b822                load_new_vcpu
                0x000000004012b8e4                vga_register
                0x000000004012b958                vga_is_ready
                0x000000004012b9b8                vga_transfer_image
                0x000000004012ba06                vga_fill_rect
                0x000000004012ba41                vga_get_screen_size
                0x000000004012bb65                vmmcall
                0x000000004012bbbe                vmmcall_register
                0x000000004012bbfb                vmmcall_init
                0x000000004012bfa5                vmmcall_boot_continue
                0x000000004012bff0                vmmcall_boot_enable
                0x000000004012c877                register_status_callback
                0x000000004012c96c                vramwrite_clearscreen
                0x000000004012c9ce                vramwrite_putchar
                0x000000004012cba5                vramwrite_mark1
                0x000000004012cbe6                vramwrite_mark2
                0x000000004012cc2e                vramwrite_mark3
                0x000000004012cc77                vramwrite_save_and_move_cursor
                0x000000004012ccae                vramwrite_restore_cursor
                0x000000004012ccc0                vramwrite_get_cursor_pos
                0x000000004012cd0e                vramwrite_init_global
                0x000000004012cd1b                vramwrite_exit_global
                0x000000004012cdce                vt_generate_pagefault
                0x000000004012ce57                vt_generate_external_int
                0x000000004012cea9                vmctl_vt_init
                0x000000004012cf51                vt_vmptrld
                0x000000004012d262                vt_ept_init
                0x000000004012d35e                vt_ept_violation
                0x000000004012d4cc                vt_ept_tlbflush
                0x000000004012d4d2                vt_ept_updatecr3
                0x000000004012d5c4                vt_ept_clear_all
                0x000000004012d657                vt_ept_extern_mapsearch
                0x000000004012d6e0                vt_ept_map_1mb
                0x000000004012d732                message_exitreason
                0x000000004012d898                printexitreason
                0x000000004012e12a                vt_available
                0x000000004012e1c9                vt__vmx_init
                0x000000004012e211                vt__vmxon
                0x000000004012e2be                vt_vminit
                0x000000004012e31a                vt_vmexit
                0x000000004012e334                vt_init
                0x000000004012e344                vt_enable_resume
                0x000000004012e47d                vt_resume
                0x000000004012e615                vt_io
                0x000000004012e736                vt_iopass_init
                0x000000004012e8cb                vt_iopass
                0x000000004012e90e                vt_extern_iopass
                0x000000004012f53e                vt_update_exception_bmp
                0x000000004012fb79                vt_init_signal
                0x000000004012fb84                vt_start_vm
                0x000000004012ff5a                vt_add_guest_msr
                0x00000000401300b2                vt_read_guest_msr
                0x00000000401300e5                vt_write_guest_msr
                0x0000000040130115                vt_msr_update_lma
                0x00000000401301ed                vt_read_msr
                0x0000000040130493                vt_write_msr
                0x0000000040130751                vt_msr_init
                0x0000000040130953                vt_paging_extern_flush_tlb_entry
                0x00000000401309b7                vt_paging_map_1mb
                0x00000000401309d7                vt_paging_flush_guest_tlb
                0x0000000040130a37                vt_paging_pagefault
                0x0000000040130a6c                vt_paging_tlbflush
                0x0000000040130a89                vt_paging_invalidate
                0x0000000040130abc                vt_paging_npf
                0x0000000040130af1                vt_paging_updatecr3
                0x0000000040130b21                vt_paging_spt_setcr3
                0x0000000040130b4c                vt_paging_clear_all
                0x0000000040130b7f                vt_paging_get_gpat
                0x0000000040130b8a                vt_paging_set_gpat
                0x0000000040130bde                vt_paging_apply_fixed_cr0
                0x0000000040130c46                vt_paging_apply_fixed_cr4
                0x0000000040130c8e                vt_paging_pg_change
                0x0000000040130e0e                vt_paging_init
                0x0000000040130e89                vt_paging_start
                0x0000000040130eb6                vt_panic_dump
                0x0000000040131060                vt_read_general_reg
                0x0000000040131181                vt_write_general_reg
                0x0000000040131275                vt_read_control_reg
                0x00000000401312e3                vt_read_sreg_sel
                0x00000000401313ec                vt_read_sreg_acr
                0x0000000040131443                vt_read_sreg_base
                0x00000000401314c5                vt_read_sreg_limit
                0x0000000040131542                vt_read_ip
                0x0000000040131550                vt_write_ip
                0x0000000040131570                vt_read_flags
                0x0000000040131596                vt_write_flags
                0x00000000401315c1                vt_read_gdtr
                0x00000000401315d6                vt_write_gdtr
                0x00000000401315eb                vt_read_idtr
                0x000000004013162f                vt_write_idtr
                0x0000000040131665                vt_write_control_reg
                0x0000000040131b38                vt_get_current_regs_in_vmcs
                0x0000000040131dc3                vt_get_vmcs_regs_in_vmcs
                0x0000000040131f40                vt_write_realmode_seg
                0x0000000040132089                vt_writing_sreg
                0x0000000040132112                vt_reset
                0x00000000401323f0                prepare_for_sleep
                0x00000000401324b1                cancel_sleep
                0x00000000401324d3                wakeup_main
                0x000000004013255b                wakeup_cont
                0x0000000040132690                wakeup_init
                0x00000000401326d9                call_xsetbv
                0x0000000040132750                mpumul_64_64
                0x0000000040132770                mpudiv_128_32
                0x0000000040132790                ipchecksum
                0x0000000040132820                asm_vmlaunch_regs_32
                0x00000000401328a0                asm_vmresume_regs_32
                0x0000000040132920                asm_vmrun_regs_32
                0x0000000040132980                asm_vmlaunch_regs_64
                0x0000000040132a60                asm_vmresume_regs_64
                0x0000000040132b40                asm_vmrun_regs_64
                0x0000000040132be1                callrealmode_start
                0x0000000040132bf7                callrealmode_start2
                0x0000000040133083                move_vmm_area32
                0x0000000040133083                callrealmode_end
                0x00000000401330a8                move_vmm_area64
                0x00000000401330d0                int_handler
                0x0000000040133148                int_callfunc
                0x0000000040134000                syscall_entry_sysexit
                0x000000004013402c                syscall_entry_lret
                0x000000004013405c                ret_to_user32
                0x0000000040134068                syscall_entry_sysret64
                0x00000000401340b0                ret_to_user64
                0x0000000040135000                processuser_sysenter
                0x0000000040136000                processuser_no_sysenter
                0x0000000040137000                processuser_syscall
                0x0000000040138140                memset
                0x00000000401381c0                memcpy
                0x0000000040138200                strcmp
                0x0000000040138240                memcmp
                0x0000000040138280                strlen
                0x0000000040138298                sx_handler
                0x00000000401382f0                thread_switch
                0x0000000040138310                thread_start0
                0x000000004013834a                get_guest_cr3_value
                0x0000000040138358                get_guest_eptp_value
                0x0000000040138366                monitor_vmcs_read
                0x000000004013836f                monitor_vmcs_write
                0x0000000040138378                hypercall_handler
                0x0000000040138397                get_page_table_base_GPA
                0x00000000401383ad                get_ept_base_HPA
                0x00000000401383c3                traverseGuestPages
                0x00000000401383ce                saveSystemCallHandlerAddress
                0x000000004013840f                getSystemCallHandlerGPA
                0x000000004013841c                save_guest_status
                0x00000000401387a0                clear_guest_status
                0x0000000040138a8e                restore_guest_status
                0x0000000040138da8                getTSSGVA
                0x0000000040138db8                getGuestRSP
                0x0000000040138ddd                closePage
                0x0000000040138de8                allocateNewVMID
                0x0000000040138dfe                allocateNewAppID
                0x0000000040138e16                allocateNewApplicationIdentifiers
                0x0000000040138e40                protectCurrentApplication
                0x0000000040138eb1                getMemoryOwnershipTableIndex
                0x0000000040138ebe                changePageStatus
                0x0000000040138fa7                openPage
                0x0000000040139027                getMemoryOwnershipTableEntry
                0x000000004013905f                initializeNewProtectedApplication
                0x000000004013907a                getCurrentProtectedApplication
                0x00000000401390df                findProtectedApplicationFromRIP
                0x0000000040139137                setCurrentProtectedApplication
                0x0000000040139144                traverseIA32ePages
                0x0000000040139383                traverseIA32ePDPT
                0x0000000040139528                traverseIA32ePDT
                0x0000000040139647                traverseIA32ePT
                0x00000000401396e7                gvaToGPA
                0x00000000401398ec                mapHPAintoHVA
                0x0000000040139912                gpaToHPA
                0x0000000040139a97                unmapHPAintoHVA
                0x0000000040139aa2                test_start
                0x0000000040139aee                test_gpaToHPA
                0x0000000040139b27                test_traverseGuestPages
                0x0000000040139b64                test_logicalCPUStatus
                0x0000000040139b90                core_init
                0x0000000040139ba1                core_mm_read_guest_phys
                0x0000000040139c1b                core_mm_write_guest_phys
                0x0000000040139c95                alloc_handler_descriptor
                0x0000000040139ca5                core_io_modify_handler
                0x0000000040139d66                core_io_unregister_handler
                0x0000000040139ded                core_io_handle_default
                0x000000004013a085                panic_oom
                0x000000004013a098                core_io_register_handler
                0x000000004013a1e0                matched_drhd_u
                0x000000004013a23e                parse_dmar_bios_report
                0x000000004013a289                ieee1394_init
                0x000000004013a2c2                iommu_setup
                0x000000004013a2c8                iodom_init
                0x000000004013a498                add_remap
                0x000000004013a522                create_dom
                0x000000004013a851                pci_conceal_new_device
                0x000000004013ac27                pci_conceal_config_data_handler
                0x000000004013ac4c                pci_save_config_addr
                0x000000004013ac5e                pci_restore_config_addr
                0x000000004013ac70                pci_append_device
                0x000000004013aca2                pci_config_data_handler
                0x000000004013afd5                pci_config_addr_handler
                0x000000004013b01e                pci_register_driver
                0x000000004013b0bd                pci_read_config_data8
                0x000000004013b103                pci_read_config_data16
                0x000000004013b14a                pci_read_config_data32
                0x000000004013b190                pci_write_config_data8
                0x000000004013b1d6                pci_write_config_data16
                0x000000004013b21d                pci_write_config_data32
                0x000000004013b263                pci_read_config_data_port
                0x000000004013b295                pci_write_config_data_port
                0x000000004013b2cb                pci_handle_default_config_write
                0x000000004013b2fe                pci_print_device
                0x000000004013b669                pci_possible_new_device
                0x000000004013b691                security_storage_check_lba
                0x000000004013e9c6                ahci_new
                0x000000004013ec50                ahci_config_read
                0x000000004013ecb7                ahci_config_write
                0x000000004013ef6f                ata_bm_handle_command
                0x000000004013f0a6                ata_bm_handle_status
                0x000000004013f157                ata_bm_handle_prd_table
                0x000000004013f256                ata_bm_handler
                0x000000004013f359                ata_get_cmd_type
                0x000000004013f6c3                ata_handle_queued_status
                0x0000000040140089                ata_channel_lock
                0x0000000040140105                ata_channel_unlock
                0x000000004014012c                ata_cmdblk_handler
                0x000000004014023e                ata_ctlblk_handler
                0x0000000040140e6f                ata_ahci_mode
                0x0000000040141375                ata_init_io_handler
                0x000000004014141a                ata_set_bm_handler
                0x0000000040141471                ata_set_cmdblk_handler
                0x00000000401414aa                ata_set_ctlblk_handler
                0x00000000401414e5                ata_config_read
                0x000000004014158b                ata_config_write
                0x0000000040141705                ata_init_vendor
                0x000000004014172c                ata_bm_handle_device_specific
                0x0000000040141830                atapi_handle_config_data
                0x0000000040141a70                atapi_handle_interrupt_reason
                0x0000000040141ab6                atapi_handle_pio_identify_packet
                0x0000000040141c50                atapi_handle_packet_data
                0x0000000040141c5b                atapi_handle_cmd_packet
                0x0000000040141cd9                packet_handle_through
                0x0000000040141d0c                packet_handle_nondata
                0x0000000040141d26                packet_handle_config
                0x0000000040141d70                packet_handle_rw
                0x0000000040141df1                packet_handle_invalid
                0x0000000040141e0b                packet_handle_command
                0x0000000040141e40                uhci_init
                0x00000000401426bf                uhci_current_frame_number
                0x00000000401426e0                dump_td_byvirt
                0x00000000401428b9                dump_td
                0x000000004014298b                dump_qh
                0x0000000040142b60                dump_frame
                0x0000000040142c6a                uhci_dump_all
                0x0000000040142e2c                uhci_error_status_string
                0x000000004014310b                uhci_shadow_buffer
                0x000000004014338e                uhci_framelist_monitor
                0x000000004014530e                scan_gframelist
                0x0000000040145bbb                uhci_create_urb
                0x0000000040145d1f                uhci_destroy_urb
                0x0000000040145e4c                uhci_destroy_unlinked_urbs
                0x0000000040145f21                uhci_deactivate_urb
                0x00000000401462ae                uhci_activate_urb
                0x000000004014686a                uhci_reactivate_urb
                0x0000000040146910                uhci_submit_control
                0x0000000040146f44                uhci_submit_interrupt
                0x0000000040146fac                uhci_submit_bulk
                0x0000000040147014                uhci_check_urb_advance
                0x000000004014704f                uhci_check_advance
                0x0000000040147255                init_hframelist
                0x0000000040147531                ehci_conceal_portroute
                0x0000000040147579                ehci_init
                0x0000000040149337                ehci_dump_qtd
                0x00000000401493aa                ehci_dump_qtdm
                0x00000000401493df                ehci_dump_alist
                0x00000000401494a2                ehci_dump_urblist
                0x0000000040149538                ehci_dump_urb
                0x00000000401499f5                ehci_dump_async
                0x0000000040149e76                ehci_dump_all
                0x000000004014b3f3                ehci_shadow_buffer
                0x000000004014b6af                get_gurb_by_address
                0x000000004014b745                shadow_and_activate_urb
                0x000000004014ba29                ehci_deactivate_urb
                0x000000004014bbc3                deactivate_and_delete_urb
                0x000000004014be2c                ehci_check_urb_advance
                0x000000004014bff6                ehci_check_advance
                0x000000004014c244                ehci_shadow_async_list
                0x000000004014c35e                ehci_cleanup_urbs
                0x000000004014c4cb                ehci_end_monitor_async
                0x000000004014c534                ehci_monitor_async_list
                0x000000004014cbf3                ehci_submit_control
                0x000000004014d183                ehci_submit_bulk
                0x000000004014d18e                ehci_submit_interrupt
                0x000000004014ed33                usbmsc_init_handle
                0x000000004014f10e                usbhub_init_handle
                0x000000004014f187                hub_portdevice_register
                0x000000004014f850                usbccid_init_handle
                0x000000004014f970                usb_set_debug
                0x000000004014f97c                usb_init
                0x000000004014f982                usb_find_busses
                0x000000004014fa63                usb_get_busses
                0x000000004014fa70                usb_get_bus
                0x000000004014fa9f                usb_find_devices
                0x000000004014faef                usb_open
                0x000000004014fb59                usb_close
                0x000000004014fb69                usb_resetep
                0x000000004014fb74                usb_clear_halt
                0x000000004014fb7f                usb_reset
                0x000000004014fb8a                usb_claim_interface
                0x000000004014fb98                usb_release_interface
                0x000000004014fbaa                usb_set_configuration
                0x000000004014fe55                usb_set_altinterface
                0x0000000040150102                usb_control_msg
                0x0000000040150451                usb_get_string
                0x000000004015078c                usb_get_string_simple
                0x000000004015098c                usb_get_descriptor
                0x0000000040150ccd                usb_get_descriptor_early
                0x0000000040151016                usb_get_descriptor_by_endpoint
                0x000000004015135c                usb_bulk_write
                0x0000000040151590                usb_interrupt_write
                0x00000000401517c2                usb_bulk_read
                0x0000000040151a7e                usb_interrupt_read
                0x0000000040151d3d                usb_register_host
                0x0000000040151e58                usb_unregister_devices
                0x0000000040151e8a                usb_sc_lock
                0x0000000040151f02                usb_sc_unlock
                0x0000000040152618                free_config_descriptors
                0x0000000040152769                free_device
                0x00000000401528d5                handle_connect_status
                0x00000000401529d0                handle_port_reset
                0x0000000040152ab1                dprintf_port
                0x0000000040153a59                usb_init_device_monitor
                0x0000000040153ac3                usb_new_dev_handle
                0x0000000040153b74                usbhid_init_handle
                0x0000000040153caa                usb_hook_process
                0x0000000040153faa                usb_hook_register
                0x0000000040154084                usb_hook_unregister
                0x0000000040154108                _dprintf
                0x0000000040154155                _dprintft
                0x0000000040154208                pro100_io_handler
                0x0000000040154213                pro100_config_read
                0x0000000040154228                pro100_config_write
                0x0000000040154352                pro100_init
                0x000000004015436c                pro100_init_vpn_client
                0x00000000401543ab                pro100_sleep
                0x00000000401543db                pro100_beep
                0x0000000040154405                pro100_get_ctx
                0x00000000401544a8                pro100_alloc_page
                0x00000000401544e2                pro100_free_page
                0x0000000040154507                pro100_get_op_size
                0x000000004015454a                pro100_mem_read
                0x00000000401545c0                pro100_read_send_packet
                0x00000000401547d2                pro100_mem_write
                0x0000000040154846                pro100_write
                0x00000000401548b9                pro100_read
                0x0000000040154938                pro100_wait_cu_ru_accepable
                0x0000000040154973                pro100_init_cu_base_addr
                0x00000000401549d3                pro100_init_ru_base_addr
                0x0000000040154a33                pro100_flush
                0x0000000040154a4e                pro100_exec_cu_op
                0x0000000040154b92                pro100_send_packet_to_line
                0x0000000040154ccf                pro100_generate_int
                0x0000000040154cff                pro100_write_recv_packet
                0x0000000040154e7b                pro100_proc_guest_op
                0x0000000040155086                pro100_get_int_bit_string
                0x00000000401550fc                pro100_get_stat_ack_string
                0x0000000040155167                pro100_get_cu_command_string
                0x00000000401551e9                pro100_get_ru_command_string
                0x0000000040155233                pro100_init_recv_buffer
                0x000000004015536a                pro100_poll_ru
                0x0000000040155465                pro100_hook_write
                0x000000004015572b                pro100_hook_read
                0x00000000401558e2                pro100_mm_handler
                0x0000000040155a36                pro100_alloc_recv_buffer
                0x0000000040155aa3                pro100_new
                0x0000000040157cf3                storage_premap_buf
                0x0000000040157cfe                storage_premap_handle_sectors
                0x0000000040158032                storage_get_num_hc
                0x0000000040158064                storage_hc_open
                0x0000000040158158                storage_hc_close
                0x00000000401581a2                storage_hc_hook_register
                0x0000000040158219                storage_hc_hook_unregister
                0x00000000401582b3                storage_hc_register
                0x0000000040158491                storage_hc_unregister
                0x000000004015859a                storage_hc_scandev
                0x00000000401585e1                storage_hc_dev_open
                0x000000004015871e                storage_hc_dev_atacommand
                0x00000000401588f5                storage_hc_dev_close
                0x00000000401589bd                storage_io_init
                0x00000000401589d2                storage_io_deinit
                0x00000000401589dd                storage_io_get_num_devices
                0x0000000040158a9b                storage_io_aget_size
                0x0000000040158c0d                storage_io_aread
                0x0000000040158e4e                storage_io_awrite
                0x00000000401595eb                storage_handle_sectors
                0x00000000401597fd                storage_new
                0x0000000040159c4a                storage_free
                0x0000000040159c55                storage_init
                0x0000000040159e79                aes_xts_init
                0x0000000040159eb0                crypto_find
                0x0000000040159f07                crypto_register
                0x0000000040159f57                crypto_init
                0x0000000040159fa5                crypto_none_init
                0x0000000040159fda                vpn_GetCurrentCpuId
                0x0000000040159fe5                vpn_GetTickCount
                0x000000004015a015                vpn_NewTimer
                0x000000004015a02f                vpn_SetTimer
                0x000000004015a043                vpn_FreeTimer
                0x000000004015a04e                vpn_GetPhysicalNicInfo
                0x000000004015a05d                vpn_SendPhysicalNic
                0x000000004015a06c                vpn_SetPhysicalNicRecvCallback
                0x000000004015a07b                vpn_GetVirtualNicInfo
                0x000000004015a08b                vpn_SendVirtualNic
                0x000000004015a09b                vpn_SetVirtualNicRecvCallback
                0x000000004015a0ab                vpn_premap_PhysicalNicRecv
                0x000000004015a0c4                vpn_premap_VirtualNicRecv
                0x000000004015a0dd                vpn_premap_recvbuf
                0x000000004015a0e8                vpn_ic_rsa_sign
                0x000000004015a181                vpn_new_nic
                0x000000004015a799                msg_vpn_GetCurrentCpuId
                0x000000004015a7b3                msg_vpn_ic_rsa_sign
                0x000000004015a85f                msg_vpn_GetTickCount
                0x000000004015a89d                msg_vpn_GetPhysicalNicInfo
                0x000000004015a901                msg_vpn_SendPhysicalNic
                0x000000004015a9b6                msg_vpn_SetPhysicalNicRecvCallback
                0x000000004015aa02                msg_vpn_GetVirtualNicInfo
                0x000000004015aa66                msg_vpn_SendVirtualNic
                0x000000004015ab1b                msg_vpn_SetVirtualNicRecvCallback
                0x000000004015ab67                msg_vpn_NewTimer
                0x000000004015abc9                msg_vpn_SetTimer
                0x000000004015ac9e                msg_vpn_FreeTimer
                0x000000004015ad07                vpn_start
                0x000000004015b080                vpn_user_init
                0x000000004015b0e0                SeFreeConfigEntryList
                0x000000004015b13d                SeGetConfigEntry
                0x000000004015b1ae                SeGetConfigStr
                0x000000004015b1d9                SeGetConfigBin
                0x000000004015b201                SeGetConfigInt64
                0x000000004015b226                SeGetConfigInt
                0x000000004015b251                SeGetConfigBool
                0x000000004015b300                SeIsSplitChar
                0x000000004015b37b                SeGetKeyAndValue
                0x000000004015b511                SeLoadConfigEntryListFromBuf
                0x000000004015b689                SeLoadConfigEntryList
                0x000000004015b6c0                SePKeyPasswordCallbackFunction
                0x000000004015b6f2                SeDhFree
                0x000000004015b72c                SeRsaVerifyWithPadding
                0x000000004015b7fe                SeRsaSignWithPadding
                0x000000004015b8b8                SeRsaPublicDecrypt
                0x000000004015b94f                SeRsaPrivateEncrypt
                0x000000004015b9e6                SeRsaPrivateDecrypt
                0x000000004015ba75                SeRsaPublicEncrypt
                0x000000004015bb04                SeGetCertSha1
                0x000000004015bb46                SeGetCertMd5
                0x000000004015bb88                SeBinToBigNum
                0x000000004015bbcb                SeDhCompute
                0x000000004015bc51                SeBufToBigNum
                0x000000004015bc71                SeBigNumToBuf
                0x000000004015bcfa                SeDhNew
                0x000000004015bdb7                SeDhNewGroup2
                0x000000004015bdcc                SeRsaPublicToBuf
                0x000000004015be11                SeRsaPublicToBin
                0x000000004015be68                SeRsaPublicSize
                0x000000004015becd                SeCheckSignature
                0x000000004015bef8                SeGetKeyFromCert
                0x000000004015bf37                SeCompareCert
                0x000000004015bf62                SeCheckCertAndKey
                0x000000004015bf8d                SeIsBase64
                0x000000004015c014                SeFreePKey
                0x000000004015c025                SeFreeKey
                0x000000004015c04d                SeCheckCert
                0x000000004015c099                SeIsCertSignedByCert
                0x000000004015c0f8                SeBioToKey
                0x000000004015c1f9                SeGetCertIssuerName
                0x000000004015c289                SeGetCertSubjectName
                0x000000004015c319                SeFreeX509
                0x000000004015c32a                SeFreeCert
                0x000000004015c358                SeFreeBio
                0x000000004015c369                SeNewBio
                0x000000004015c37c                SeRsaGen
                0x000000004015c4d5                SeKeyToBio
                0x000000004015c5d0                SeCertToBio
                0x000000004015c62a                SeBioToBuf
                0x000000004015c6ba                SeBigNumToStr
                0x000000004015c727                SeKeyToBuf
                0x000000004015c77a                SeX509ToCert
                0x000000004015c823                SeBioToCert
                0x000000004015c86c                SeSaveKey
                0x000000004015c8c1                SeCertToBuf
                0x000000004015c914                SeSaveCert
                0x000000004015c965                SeBufToBio
                0x000000004015c9c2                SeBufToCert
                0x000000004015ca09                SeCloneCert
                0x000000004015ca54                SeLoadCert
                0x000000004015ca95                SeBufToKey
                0x000000004015cae6                SeCloneKey
                0x000000004015cb42                SeLoadKey
                0x000000004015cbe3                SeSha1
                0x000000004015cc04                SeMacSha1
                0x000000004015cd6c                SeMacSha196
                0x000000004015cdb3                SeHashForSignBySHA1
                0x000000004015ce53                SeRsaVerifyWithSha1
                0x000000004015cefe                SeRsaSignWithSha1
                0x000000004015cf94                SeMd5
                0x000000004015cfb5                SeDes3Encrypt
                0x000000004015d03e                SeDes3Decrypt
                0x000000004015d0c7                SeDesNewKeyValue
                0x000000004015d11c                SeDes3NewKey
                0x000000004015d189                SeDesNewKey
                0x000000004015d19a                SeDesRandKeyValue
                0x000000004015d1b6                SeDes3RandKey
                0x000000004015d1ff                SeDesRandKey
                0x000000004015d249                SeDesFreeKeyValue
                0x000000004015d271                SeDes3FreeKey
                0x000000004015d2ab                SeDesFreeKey
                0x000000004015d2b6                SeRand
                0x000000004015d2cb                SeRand64
                0x000000004015d2e7                SeRand32
                0x000000004015d302                SeRand16
                0x000000004015d31e                SeRand8
                0x000000004015d33a                SeRand1
                0x000000004015d34d                SeInitCrypto
                0x000000004015d38c                SeFreeCrypto
                0x000000004015d3a0                SeIkeStrToPassword
                0x000000004015d3f9                SeIkePhase1CryptIdToKeySize
                0x000000004015d418                SeIkePhase2CryptIdToKeySize
                0x000000004015d437                SeIkeStrToPhase1CryptId
                0x000000004015d49d                SeIkeStrToPhase1HashId
                0x000000004015d4dc                SeIkeStrToPhase2CryptId
                0x000000004015d547                SeIkeStrToPhase2HashId
                0x000000004015d586                SeIkeIsZeroIP
                0x000000004015d5b7                SeIkeInitIPv6Address
                0x000000004015d5f4                SeIkeInitIPv4Address
                0x000000004015d627                SeIkeGetIPv6Address
                0x000000004015d646                SeIkeGetIPv4Address
                0x000000004015d661                SeIkeIpAddressToStr
                0x000000004015d6ab                SeIkeBuildDataPayload
                0x000000004015d6e7                SeIkeBuildTransformValue
                0x000000004015d7a5                SeIkeBuildTransformValueList
                0x000000004015d80d                SeIkeBuildTransformPayload
                0x000000004015d88b                SeIkeBuildIdPayload
                0x000000004015d903                SeIkeBuildCertPayload
                0x000000004015d967                SeIkeBuildCertRequestPayload
                0x000000004015d9cb                SeIkeBuildNoticePayload
                0x000000004015da59                SeIkeBuildDeletePayload
                0x000000004015db31                SeIkeGetFirstPayloadType
                0x000000004015db57                SeIkeBuildPayloadList
                0x000000004015dc63                SeIkeBuildSaPayload
                0x000000004015dcee                SeIkeBuildProposalPayload
                0x000000004015dd9c                SeIkeBuildPayload
                0x000000004015de79                SeIkeGetPayload
                0x000000004015dec7                SeIkeGetPayloadNum
                0x000000004015df0a                SeIkeNewPayload
                0x000000004015df28                SeIkeNewDeletePayload
                0x000000004015df58                SeIkeNewNoticePayload
                0x000000004015dfe3                SeIkeNewCertRequestPayload
                0x000000004015e031                SeIkeNewCertPayload
                0x000000004015e07f                SeIkeNewIdPayload
                0x000000004015e0ec                SeIkeNewTransformPayload
                0x000000004015e12f                SeIkeNewProposalPayload
                0x000000004015e1a6                SeIkeNewSaPayload
                0x000000004015e1d3                SeIkeNewDataPayload
                0x000000004015e21c                SeIkeNewTransformValue
                0x000000004015e23d                SeIkeFreeTransformValueList
                0x000000004015e279                SeIkeParseTransformValueList
                0x000000004015e3f0                SeIkeParseTransformPayload
                0x000000004015e456                SeIkeFreeTransformPayload
                0x000000004015e484                SeIkeParseIdPayload
                0x000000004015e4fb                SeIkeFreeIdPayload
                0x000000004015e529                SeIkeParseCertPayload
                0x000000004015e58c                SeIkeFreeCertPayload
                0x000000004015e5ba                SeIkeParseCertRequestPayload
                0x000000004015e61d                SeIkeFreeCertRequestPayload
                0x000000004015e64b                SeIkeParseNoticePayload
                0x000000004015e709                SeIkeFreeNoticePayload
                0x000000004015e74d                SeIkeFreeDeletePayload
                0x000000004015e79f                SeIkeParseDeletePayload
                0x000000004015e898                SeIkeParseDataPayload
                0x000000004015e8d2                SeIkeFreeDataPayload
                0x000000004015e8e6                SeIkeFreePayloadList
                0x000000004015e922                SeIkeFreeSaPayload
                0x000000004015e94e                SeIkeFreeProposalPayload
                0x000000004015e992                SeIkeFreePayload
                0x000000004015ea38                SeIkeParsePayloadListEx
                0x000000004015ebbe                SeIkeParsePayloadList
                0x000000004015ebd1                SeIkeParseSaPayload
                0x000000004015ec94                SeIkeParseProposalPayload
                0x000000004015ed2d                SeIkeParsePayload
                0x000000004015ee25                SeIkeEncrypt
                0x000000004015eec0                SeIkeEncryptWithPadding
                0x000000004015ef71                SeIkeBuild
                0x000000004015f0c6                SeIkeDecrypt
                0x000000004015f161                SeIkeFree
                0x000000004015f19d                SeIkeParseEx
                0x000000004015f37e                SeIkeParseHeader
                0x000000004015f38e                SeIkeParse
                0x000000004015f39e                SeIkeNew
                0x000000004015f410                VPN_IPsec_Client_Start
                0x000000004015f438                VPN_IPsec_Client_Stop
                0x000000004015f449                SeIntInit
                0x000000004015f46c                SeIntFree
                0x000000004015f486                VPN_IPsec_Init
                0x000000004015f4d4                VPN_IPsec_Free
                0x000000004015f507                SeSysMemoryAlloc
                0x000000004015f523                SeSysMemoryReAlloc
                0x000000004015f551                SeSysMemoryFree
                0x000000004015f56a                SeSysGetCurrentCpuId
                0x000000004015f582                SeSysNewLock
                0x000000004015f59a                SeSysLock
                0x000000004015f5b3                SeSysUnlock
                0x000000004015f5cc                SeSysFreeLock
                0x000000004015f5e5                SeSysGetTickCount
                0x000000004015f5fd                SeSysNewTimer
                0x000000004015f622                SeSysSetTimer
                0x000000004015f63b                SeSysFreeTimer
                0x000000004015f654                SeSysGetPhysicalNicInfo
                0x000000004015f672                SeSysSendPhysicalNic
                0x000000004015f698                SeSysSetPhysicalNicRecvCallback
                0x000000004015f6bb                SeSysGetVirtualNicInfo
                0x000000004015f6d9                SeSysSendVirtualNic
                0x000000004015f702                SeSysSetVirtualNicRecvCallback
                0x000000004015f728                SeSysSaveData
                0x000000004015f751                SeSysLoadData
                0x000000004015f779                SeSysFreeData
                0x000000004015f795                SeSysRsaSign
                0x000000004015f7cd                SeSysLog
                0x000000004015f7fb                SeRsaSign
                0x000000004015f890                Se4ParseIpPacketUDPv4
                0x000000004015f972                Se4FreeIpHeaderInfo
                0x000000004015f9a6                Se4IpChecksum
                0x000000004015fa1a                Se4AdjustTcpMss
                0x000000004015fbaf                Se4BuildIcmpEchoPacket
                0x000000004015fc57                Se4ParseIpPacketICMPv4
                0x000000004015fd79                Se4IpCheckChecksum
                0x000000004015fdba                Se4Tick
                0x000000004015fdd3                Se4BroadcastMacAddress
                0x000000004015fdde                Se4SendEthPacket
                0x000000004015fe97                Se4SendIpFragmentNow
                0x000000004015fec0                Se4InitArpEntryList
                0x000000004015fed0                Se4FreeArpEntryList
                0x000000004015ff0c                Se4FlushArpEntryList
                0x000000004015ffb9                Se4SearchArpEntryList
                0x000000004016003f                Se4AddArpEntryList
                0x000000004016010f                Se4SearchArpWaitList
                0x0000000040160153                Se4InitArpWaitList
                0x0000000040160163                Se4FreeArpWaitList
                0x000000004016019f                Se4InsertIpWait
                0x000000004016020f                Se4InitIpWaitList
                0x000000004016021f                Se4FreeIpWait
                0x0000000040160248                Se4FlushIpWaitList
                0x0000000040160306                Se4FreeIpWaitList
                0x0000000040160342                Se4InitIpCombineList
                0x0000000040160352                Se4SearchIpCombineList
                0x00000000401603b8                Se4InitIpFragmentList
                0x00000000401603c8                Se4InsertIpCombine
                0x00000000401604b7                Se4FreeIpFragmentList
                0x00000000401604f3                Se4FreeIpCombine
                0x000000004016052b                Se4FreeIpCombineList
                0x0000000040160579                Se4FlushIpCombineList
                0x000000004016065e                Se4Free
                0x00000000401606a2                Se4And
                0x00000000401606d1                Se4GetNetworkAddress
                0x00000000401606dc                Se4Or
                0x000000004016070b                Se4Not
                0x0000000040160735                Se4GetHostAddress
                0x000000004016074f                Se4GetBroadcastAddress
                0x0000000040160782                Se4GenerateSubnetMask32
                0x00000000401607a1                Se4IPToStr
                0x00000000401607e3                Se4ZeroIP
                0x00000000401607fe                Se4StrToIP
                0x000000004016089f                Se4IPToUINT
                0x00000000401608c1                Se4SendArpDoProcess
                0x00000000401609c2                Se4SendArpRequest
                0x0000000040160a2d                Se4ProcessArpWaitList
                0x0000000040160add                Se4MainProc
                0x0000000040160b0e                Se4SendArpResponse
                0x0000000040160be7                Se4IsBroadcastAddress
                0x0000000040160bfb                Se4Cmp
                0x0000000040160c26                Se4CmpArpEntry
                0x0000000040160c5d                Se4CmpArpWaitEntry
                0x0000000040160c94                Se4SendWaitingIpWait
                0x0000000040160d75                Se4CmpIpCombineList
                0x0000000040160df2                Se4IsInSameNetwork
                0x0000000040160e37                Se4MacIpRelationKnown
                0x0000000040160ecd                Se4ParseIpPacket
                0x0000000040161010                Se4IsZeroIP
                0x0000000040161023                Se4Init
                0x0000000040161129                Se4CheckUnicastAddress
                0x000000004016116c                Se4StrToIP32
                0x000000004016117e                Se4UINTToIP
                0x00000000401611a0                Se4SendRawIp
                0x00000000401612f0                Se4SendIpFragment
                0x000000004016140e                Se4SendIp
                0x00000000401614fc                Se4SendIcmpEchoRequest
                0x0000000040161584                Se4SendIcmpEchoResponse
                0x000000004016160c                Se4RecvIpComplete
                0x00000000401616c9                Se4CombineIp
                0x00000000401618c5                Se4SendIcmp
                0x000000004016196e                Se4SendUdp
                0x0000000040161a8b                Se4RecvIp
                0x0000000040161d20                Se4RecvArpRequest
                0x0000000040161e34                Se4RecvArpResponse
                0x0000000040161e6b                Se4RecvArp
                0x0000000040161f1e                Se4RecvEthPacket
                0x0000000040161f9a                Se4GenerateSubnetMask
                0x0000000040161fac                Se4IsSubnetMask
                0x0000000040161feb                Se4IPToStr32
                0x0000000040162010                Se6CmpIpCombineList
                0x00000000401620d9                Se6CmpNdpWaitEntry
                0x000000004016213b                Se6CmpNeighborEntry
                0x000000004016219d                Se6IsGuestNode
                0x000000004016227c                Se6FreeIpHeaderInfo
                0x00000000401622b0                Se6IpChecksum
                0x0000000040162324                Se6CalcChecksum
                0x00000000401623c9                Se6BuildIcmpEchoPacket
                0x000000004016249f                Se6ParseIpPacketUDPv6
                0x00000000401625d3                Se6ParseIpPacketICMPv6
                0x00000000401627fa                Se6BroadcastMacAddress
                0x0000000040162805                Se6SendEthPacket
                0x00000000401628be                Se6SendIpFragmentNow
                0x00000000401628e8                Se6InitNeighborEntryList
                0x00000000401628f8                Se6FreeNeighborEntryList
                0x0000000040162934                Se6FlushNeighborEntryList
                0x00000000401629e1                Se6SearchNeighborEntryList
                0x0000000040162a38                Se6AddNeighborEntryList
                0x0000000040162b0a                Se6SearchNdpWaitList
                0x0000000040162b59                Se6InitNdpWaitList
                0x0000000040162b69                Se6FreeNdpWaitList
                0x0000000040162ba5                Se6InsertIpWait
                0x0000000040162c26                Se6InitIpWaitList
                0x0000000040162c36                Se6FreeIpWait
                0x0000000040162c5f                Se6SendWaitingIpWait
                0x0000000040162d6e                Se6FreeIpWaitList
                0x0000000040162daa                Se6InitIpCombineList
                0x0000000040162dba                Se6SearchIpCombineList
                0x0000000040162e4e                Se6InitIpFragmentList
                0x0000000040162e5e                Se6FreeIpFragmentList
                0x0000000040162e9a                Se6FreeIpCombine
                0x0000000040162ed5                Se6FreeIpCombineList
                0x0000000040162f23                Se6Free
                0x0000000040162f73                Se6Tick
                0x0000000040162f8c                Se6FlushIpWaitList
                0x0000000040163050                Se6FlushIpCombineList
                0x0000000040163138                Se6InsertIpCombine
                0x000000004016325b                Se6GenerateEui64Address
                0x00000000401632ae                Se6GenerateMulticastMacAddress
                0x00000000401632e5                Se6GetAllNodeMulticastAddr
                0x0000000040163311                Se6GetAllRouterMulticastAddr
                0x000000004016333d                Se6GetIPAddrType
                0x0000000040163487                Se6CheckUnicastAddress
                0x00000000401634d2                Se6And
                0x0000000040163510                Se6GetPrefixAddress
                0x000000004016351b                Se6IsInSameNetwork
                0x000000004016359f                Se6ParseIpPacket
                0x000000004016376a                Se6Or
                0x00000000401637a8                Se6Not
                0x00000000401637dc                Se6GetHostAddress
                0x000000004016380a                Se6IsNetworkPrefixAddress
                0x0000000040163837                Se6GenerateSubnetMask
                0x000000004016389e                Se6LocalSubnet
                0x00000000401638ae                Se6MacIpRelationKnown
                0x00000000401639b2                Se6AddGuestNode
                0x0000000040163a6e                Se6GetSoliciationMulticastAddr
                0x0000000040163b02                Se6SendIcmpNeighborSoliciation
                0x0000000040163c42                Se6SendNeighborSoliciationDoProcess
                0x0000000040163cd2                Se6ProcessNdpWaitList
                0x0000000040163d88                Se6SendNeighborSoliciation
                0x0000000040163dfc                Se6SendRawIp
                0x0000000040163f80                Se6SendIpFragment
                0x0000000040163f99                Se6SendIp
                0x00000000401640f8                Se6SendIcmpEchoRequest
                0x00000000401641c1                Se6SendIcmpEchoResponse
                0x000000004016428a                Se6SendIcmp
                0x0000000040164372                Se6SendIcmpNeighborAdvertisement
                0x00000000401644ab                Se6SendUdp
                0x00000000401645ba                Se6SubnetMaskToInt
                0x0000000040164620                Se6SendIcmpRouterAdvertisement
                0x00000000401647d9                Se6MainProc
                0x0000000040164833                Se6RecvIpComplete
                0x0000000040164b57                Se6CombineIp
                0x0000000040164d6f                Se6RecvIp
                0x0000000040164f8c                Se6RecvEthPacket
                0x0000000040164ff0                Se6IsSubnetMask
                0x0000000040165059                Se6Cmp
                0x0000000040165085                Se6IsZeroIP
                0x00000000401650a5                Se6IPToStr
                0x00000000401651fc                Se6IPItemStrToChars
                0x00000000401652f0                Se6CheckIPItemStr
                0x000000004016535e                Se6ZeroIP
                0x000000004016537e                Se6GenerateEui64GlobalAddress
                0x0000000040165430                Se6GenerateEui64LocalAddress
                0x000000004016548b                Se6Init
                0x00000000401655f4                Se6StrToIP
                0x0000000040165782                Se6CheckSubnetLength
                0x00000000401657a0                SeTimerEntryCompare
                0x00000000401657e0                SeEthGetInfo
                0x0000000040165805                SeEthSendAdd
                0x0000000040165838                SeEthParseEthernetPacket
                0x0000000040165941                SeEthGenRandMacAddress
                0x0000000040165993                SeLoad
                0x00000000401659ff                SeSave
                0x0000000040165a21                SeTick
                0x0000000040165a31                SeGetCurrentCpuId
                0x0000000040165a41                SeNewLock
                0x0000000040165a7c                SeTimerNew
                0x0000000040165aea                SeEthNew
                0x0000000040165bf1                SeLock
                0x0000000040165c2d                SeUnlock
                0x0000000040165c55                SeEthGetNextRecvPacket
                0x0000000040165c91                SeTick64Internal
                0x0000000040165ce6                SeInitKernel
                0x0000000040165d20                SeTick64
                0x0000000040165d3f                SeTimerAdjust
                0x0000000040165db3                SeTimerCallback
                0x0000000040165ebe                SeTimerSet
                0x0000000040165f44                SeEthDeleteOldSenderMacList
                0x0000000040166014                SeEthAddSenderMacList
                0x00000000401660fb                SeEthSend
                0x000000004016618e                SeEthSendAll
                0x0000000040166264                SeEthIsSenderMacAddressExistsInList
                0x000000004016630a                SeEthNicCallback
                0x0000000040166406                SeDeleteLock
                0x000000004016642e                SeFreeKernel
                0x0000000040166444                SeTimerFree
                0x000000004016649e                SeEthFree
                0x0000000040166545                SeLogArgs
                0x0000000040166575                SeDebug
                0x00000000401665bb                SeDebugBin
                0x0000000040166613                SeFatal
                0x0000000040166659                SeInfo
                0x000000004016669f                SeError
                0x00000000401666e5                SeWarning
                0x000000004016672b                SeLog
                0x0000000040166770                SeB64CodeToChar
                0x00000000401667b6                SeB64CharToCode
                0x00000000401667fa                SeIsZero
                0x000000004016684a                SeReplaceListPointer
                0x00000000401668ab                SeIsInListStr
                0x000000004016691b                SeIsInList
                0x0000000040166966                SeCompareStr
                0x0000000040166989                SeSetSortFlag
                0x0000000040166997                SeSetCmp
                0x00000000401669b8                SeFastSwap
                0x00000000401669ea                SeQSort
                0x0000000040166dca                SeSort
                0x0000000040166e02                SeBSearch
                0x0000000040166ed9                SeSearch
                0x0000000040166f41                SeFifoSize
                0x0000000040166f56                SeDumpBuf
                0x0000000040166f81                SeSeekBuf
                0x0000000040166fb5                SeClearBuf
                0x0000000040166fce                SeEndian16
                0x0000000040166ff3                SeSwap16
                0x000000004016700e                SeSwap32
                0x0000000040167038                SeEndian32
                0x000000004016704f                SeSwap64
                0x00000000401670a6                SeEndian64
                0x00000000401670be                SeMalloc
                0x0000000040167100                SeNewFifo
                0x0000000040167142                SeNewBuf
                0x0000000040167184                SeReAlloc
                0x00000000401671f9                SePush
                0x0000000040167252                SePop
                0x00000000401672af                SeDeleteAll
                0x00000000401672e6                SeDelete
                0x00000000401673aa                SeAdd
                0x000000004016740a                SeInsert
                0x000000004016754c                SeInsertStr
                0x0000000040167591                SeClearFifo
                0x00000000401675ce                SeAdjustBufSize
                0x0000000040167603                SeMemSize
                0x0000000040167637                SeFree
                0x0000000040167666                SeFreeStack
                0x000000004016768f                SeFreeList
                0x00000000401676b8                SeFreeFifo
                0x00000000401676e0                SeFreeQueue
                0x0000000040167709                SeFreeBufWithoutBuffer
                0x000000004016771a                SeFreeBuf
                0x0000000040167742                SeIsLittleEndian
                0x0000000040167755                SeIsBigEndian
                0x0000000040167768                SeCmp
                0x00000000401677d8                SeCmpBuf
                0x0000000040167819                SeCmpEx
                0x0000000040167850                SeCopy
                0x0000000040167878                SeCopyToArray
                0x00000000401678a1                SeToArray
                0x00000000401678db                SeWriteFifo
                0x000000004016795e                SeInsertQueue
                0x0000000040167994                SeReadFifo
                0x0000000040167a7a                SeGetNext
                0x0000000040167ac4                SeGetNextInt
                0x0000000040167afb                SePeekFifo
                0x0000000040167b41                SePeekNext
                0x0000000040167b7f                SeWriteBuf
                0x0000000040167be0                SeReadDump
                0x0000000040167c46                SeAddBufStr
                0x0000000040167c77                SeWriteBufInt64
                0x0000000040167cba                SeWriteBufInt
                0x0000000040167cfa                SeWriteBufStr
                0x0000000040167d5d                SeWriteBufBuf
                0x0000000040167d79                SeWriteBufLine
                0x0000000040167dc3                SeMemToBuf
                0x0000000040167e1e                SeCloneBuf
                0x0000000040167e41                SeRandBuf
                0x0000000040167e7c                SeSwap
                0x0000000040167ed8                SeClone
                0x0000000040167f1d                SeInsertQueueInt
                0x0000000040167f51                SeZero
                0x0000000040167f75                SeReadBuf
                0x0000000040168007                SeReadBufInt64
                0x0000000040168043                SeReadBufInt
                0x000000004016807b                SeReadBufStr
                0x0000000040168135                SeReadBufFromBuf
                0x00000000401681bd                SeReadRemainBuf
                0x00000000401681e7                SeZeroMalloc
                0x0000000040168211                SeB64Encode
                0x00000000401683f2                SeB64Decode
                0x00000000401685d0                SeNewStack
                0x000000004016860b                SeNewQueue
                0x000000004016863f                SeNewList
                0x0000000040168684                SeCloneList
                0x00000000401686e0                SeBuildICMPv6OptionValue
                0x000000004016875b                SeBuildICMPv6Options
                0x0000000040168807                SeParseICMPv6Options
                0x00000000401688e7                SeFreePacketList
                0x0000000040168923                SeFreePacketListWithoutBuffer
                0x000000004016895f                SeGetNextHeaderFromQueue
                0x000000004016898b                SeBuildAndAddIPv6PacketOptionHeader
                0x0000000040168a17                SeBuildIPv6Packet
                0x0000000040168beb                SeBuildIPv6PacketWithFragment
                0x0000000040168db4                SeParseIPv6ExtHeader
                0x0000000040168ea3                SeParseIPv6Packet
                0x0000000040168f11                SeParsePacketL3IPv6
                0x0000000040168f52                SeParsePacketL3IPv4
                0x0000000040169001                SeParsePacketL3ARPv4
                0x000000004016902b                SeParsePacketL2
                0x00000000401690c3                SeFreePacket
                0x00000000401690d4                SeParsePacket
                0x0000000040169160                SeSecCmpIkeSa
                0x000000004016923f                SeSecCalcP2Iv
                0x00000000401692df                SeSecCalcP1Iv
                0x000000004016937b                SeSecCalcKEYMATFull
                0x0000000040169481                SeSecCalcKEYMAT
                0x0000000040169535                SeSecCalcKa
                0x0000000040169606                SeSecCalcP1KeySet
                0x000000004016980e                SeSecForceReconnect
                0x0000000040169847                SeSecLifeSeconds64bit
                0x0000000040169867                SeSecGetIPsecSa
                0x00000000401698b3                SeSecNewIkeSa
                0x0000000040169954                SeSecFreeP1KeySet
                0x00000000401699a2                SeSecGenIkeSaMessageId
                0x0000000040169a13                SeSecGenIkeSaInitCookie
                0x0000000040169a84                SeSecInitSaList
                0x0000000040169abe                SeSecSearchIPsecSaBySpi
                0x0000000040169b4c                SeSecSearchIkeSaBySpi
                0x0000000040169c16                SeSecSearchIkeSa
                0x0000000040169cd9                SeSecNewSpi
                0x0000000040169cf0                SeSecGenIPsecSASpi
                0x0000000040169d61                SeSecStrToAuthMethod
                0x0000000040169dcc                SeSecTick
                0x0000000040169de7                SeSecCheckIkeSaExpires
                0x0000000040169e9c                SeSecCheckIPsecSaExpires
                0x0000000040169f55                SeSecSetTimerCallback
                0x0000000040169f76                SeSecAddTimer
                0x0000000040169f97                SeSecNewIPsecSa
                0x000000004016a0f4                SeSecDoInterval
                0x000000004016a15b                SeSecSetRecvUdpCallback
                0x000000004016a17c                SeSecSetRecvEspCallback
                0x000000004016a19d                SeSecSetRecvVirtualIpCallback
                0x000000004016a1be                SeSecSendUdp
                0x000000004016a205                SeSecSendIkeSaMsgInfo
                0x000000004016a467                SeSecSendIkeSaMsgInfoSimple
                0x000000004016a4b9                SeSecSendIkeSaDeleteMsg
                0x000000004016a54c                SeSecSendIPsecSaDeleteMsg
                0x000000004016a5b9                SeSecFreeIPsecSa
                0x000000004016a62b                SeSecProcessIkeSaMsgInfo
                0x000000004016a944                SeSecDeleteExpiredIPsecSa
                0x000000004016a9ea                SeSecFreeIkeSa
                0x000000004016abb0                SeSecDeleteExpiredIkeSa
                0x000000004016ad18                SeSecFreeSaList
                0x000000004016ad97                SeSecFreeMain
                0x000000004016ada8                SeSecFree
                0x000000004016add7                SeSecSendIkeSaMsgPhase2FinalHash
                0x000000004016af68                SeSecProcessIkeSaMsgPhase2
                0x000000004016b405                SeSecSendIkeSaMsgPhase2
                0x000000004016b92a                SeSecProcessIkeSaMsgPhase1
                0x000000004016c1b2                SeSecProcessIkeSaMsg
                0x000000004016c209                SeSecUdpRecvCallback
                0x000000004016c45b                SeSecStartVpnConnect
                0x000000004016ca8a                SeSecProcessMain
                0x000000004016cb7d                SeSecInitMain
                0x000000004016cba2                SeSecInit
                0x000000004016ccc6                SeSecTimerCallback
                0x000000004016ccda                SeSecSendEsp
                0x000000004016cd13                SeSecVirtualIpRecvCallback
                0x000000004016cf17                SeSecSendVirtualIp
                0x000000004016cf3f                SeSecEspRecvCallback
                0x000000004016d0e0                SeMakeCharArray
                0x000000004016d114                SeFreeToken
                0x000000004016d162                SeNullTokenList
                0x000000004016d196                SeDefaultTokenSplitChars
                0x000000004016d1a1                Se4BitToHex
                0x000000004016d1b6                SeHexTo4Bit
                0x000000004016d1f0                SeStrCmp
                0x000000004016d29d                SeStrnCmp
                0x000000004016d36a                SeToUpper
                0x000000004016d37c                SeStrCmpi
                0x000000004016d42f                SeStrnCmpi
                0x000000004016d508                SeToLower
                0x000000004016d51a                SeStrCheckLen
                0x000000004016d565                SeStrCheckSize
                0x000000004016d584                SeStrLen
                0x000000004016d5b8                SeReadNextLine
                0x000000004016d679                SeIsAllLowerStr
                0x000000004016d6ec                SeIsAllUpperStr
                0x000000004016d75f                SeIsCharInStr
                0x000000004016d7c5                SeNormalizeCrlf
                0x000000004016d868                SeEndWith
                0x000000004016d8c2                SeTrimCrlf
                0x000000004016d909                SeHexToInt64
                0x000000004016d998                SeHexToInt
                0x000000004016da24                SeToInt
                0x000000004016da80                SeToInt64
                0x000000004016dae8                SeStrLower
                0x000000004016db23                SeStrUpper
                0x000000004016db5e                SeStrCat
                0x000000004016dbee                SeStrCpy
                0x000000004016dc9c                SeStrToBin
                0x000000004016dd97                SeStrToBinEx
                0x000000004016ddfb                SeStrToMac
                0x000000004016de0e                SeSearchStrEx
                0x000000004016df53                SeSearchStr
                0x000000004016df63                SeSearchStri
                0x000000004016df73                SeCalcReplaceStrEx
                0x000000004016e017                SeReplaceStrEx
                0x000000004016e16b                SeReplaceStri
                0x000000004016e17c                SeReplaceStr
                0x000000004016e18d                SeCopyStr
                0x000000004016e1d9                SeUniqueToken
                0x000000004016e335                SeParseTokenWithNullStr
                0x000000004016e48e                SeParseToken
                0x000000004016e623                SeStartWith
                0x000000004016e6bd                SeTrimRight
                0x000000004016e7bf                SeTrimLeft
                0x000000004016e865                SeTrim
                0x000000004016e88a                SeTrimCopy
                0x000000004016e8ba                SeIsEmptyStr
                0x000000004016e905                SeToHex64
                0x000000004016e9c0                SeToHex
                0x000000004016ea7b                SeToStr
                0x000000004016eb33                SeToStr64
                0x000000004016ebfc                SeToStr3
                0x000000004016ed44                SeStrSize
                0x000000004016ed5d                SeFormatEx
                0x000000004016f255                SeFormatArgs
                0x000000004016f2ab                SeFormat
                0x000000004016f2e1                SeMacToStr
                0x000000004016f332                SeBinToStrEx
                0x000000004016f3c9                SeBinToStr
                0x000000004016f470                SeVpnRecvIpV4PacketCallback
                0x000000004016f4c1                SeVpnRecvIpV6PacketCallback
                0x000000004016f512                SeVpnInitIpStack
                0x000000004016f830                SeVpnFreeIpStack
                0x000000004016f8d0                SeVpnMainInit
                0x000000004016f9df                SeVpnMainFree
                0x000000004016fa03                SeVpnRecvEtherPacket
                0x000000004016fa7d                SeVpnSendEtherPacket
                0x000000004016faa3                SeVpnMainProcRecvEtherPacket
                0x000000004016fb4c                SeVpnStatusChanged
                0x000000004016fb5e                SeVpnMainProcess
                0x000000004016fc5c                SeVpnMainHandler
                0x000000004016fca9                SeVpnTimerCallback
                0x000000004016fcc2                SeVpnEthRecvCallback
                0x000000004016fcdb                SeVpnTick
                0x000000004016fcf1                SeVpnAddTimer
                0x000000004016fd06                SeVpnDoInterval
                0x000000004016fd57                SeVpnFreeConfig
                0x000000004016fd68                SeVpnFree
                0x000000004016fdb9                SeVpnLoadConfig
                0x0000000040171105                SeVpnInit
                0x0000000040171220                SeVpn4ClientSetTimerCallback
                0x0000000040171233                SeVpn4ClientSetRecvUdpCallback
                0x0000000040171246                SeVpn4ClientSetRecvEspCallback
                0x0000000040171259                SeVpn4ClientSetRecvVirtualIpCallback
                0x000000004017126c                SeVpn4ClientSendUdp
                0x00000000401712e4                SeVpn4ClientSendEsp
                0x0000000040171355                SeVpn4ClientSendVirtualIp
                0x0000000040171387                SeVpn4IPsecSendPing
                0x00000000401714c8                SeVpn4IPsecInputFromPhysical
                0x0000000040171586                SeVpn4IPsecInputFromVirtual
                0x00000000401715f0                SeVpn4FreeIPsec
                0x0000000040171605                SeVpn4InitSecConfig
                0x00000000401717dc                SeVpn4InitIPsec
                0x00000000401718ad                SeVpn4DoInterval
                0x00000000401718c6                SeVpn4Tick
                0x00000000401718df                SeVpn4IPsecMainProc
                0x000000004017194f                SeVpn4MainProc
                0x000000004017196b                SeVpn4ClientGetTick
                0x0000000040171981                SeVpn4SetTimer
                0x0000000040171995                SeVpn4ClientAddTimer
                0x00000000401719ae                SeVpn4DhcpSendResponse
                0x0000000040171ab8                SeVpn4DhcpOptionsToBuf
                0x0000000040171b76                SeVpn4NewDhcpOption
                0x0000000040171bc7                SeVpn4DhcpBuildDhcpOptionList
                0x0000000040171da9                SeVpn4DhcpSearchOption
                0x0000000040171de5                SeVpn4DhcpFreeOptionList
                0x0000000040171e39                SeVpn4DhcpParseOptionListMain
                0x0000000040171f24                SeVpn4DhcpParseOptionList
                0x0000000040172009                SeVpn4DhcpServer
                0x00000000401722cd                SeVpn4RecvPacketPhysical
                0x0000000040172390                SeVpn4RecvPacketVirtual
                0x00000000401724e9                SeVpn4Init
                0x000000004017254f                SeVpn4Free
                0x0000000040172580                SeVpn6ClientSetTimerCallback
                0x0000000040172593                SeVpn6ClientSetRecvUdpCallback
                0x00000000401725a6                SeVpn6ClientSetRecvEspCallback
                0x00000000401725b9                SeVpn6ClientSetRecvVirtualIpCallback
                0x00000000401725cc                SeVpn6ClientSendUdp
                0x0000000040172651                SeVpn6ClientSendEsp
                0x00000000401726d3                SeVpn6ClientSendVirtualIp
                0x0000000040172705                SeVpn6IPsecSendPing
                0x00000000401728f2                SeVpn6UpdateGuestOsIpAddress
                0x00000000401729ae                SeVpn6IPsecInputFromPhysical
                0x0000000040172a6c                SeVpn6IPsecInputFromVirtual
                0x0000000040172aa2                SeVpn6InitSecConfig
                0x0000000040172c8b                SeVpn6InitIPsec
                0x0000000040172d65                SeVpn6FreeIPsec
                0x0000000040172d7a                SeVpn6DoInterval
                0x0000000040172d93                SeVpn6Tick
                0x0000000040172dac                SeVpn6IPsecMainProc
                0x0000000040172e26                SeVpn6MainProc
                0x0000000040172e42                SeVpn6ClientGetTick
                0x0000000040172e58                SeVpn6SetTimer
                0x0000000040172e6c                SeVpn6ClientAddTimer
                0x0000000040172e85                SeVpn6RecvPacketPhysical
                0x0000000040172f11                SeVpn6RecvPacketVirtual
                0x0000000040173032                SeVpn6Init
                0x00000000401730a9                SeVpn6Free
                0x00000000401730d9                crypt_sys_rsa_sign
                0x0000000040173462                msg_usb_bulk_read
                0x00000000401734c2                msg_usb_bulk_write
                0x0000000040173522                msg_usb_claim_interface
                0x0000000040173568                msg_usb_close
                0x00000000401735c2                msg_usb_control_msg
                0x0000000040173637                msg_usb_find_busses
                0x0000000040173675                msg_usb_find_devices
                0x00000000401736b3                msg_usb_get_busses
                0x000000004017371d                msg_usb_get_string_simple
                0x0000000040173779                msg_usb_init
                0x000000004017378e                msg_usb_open
                0x000000004017380e                msg_usb_release_interface
                0x0000000040173854                msg_usb_reset
                0x0000000040173897                IDMan_StReadSetData
                0x0000000040173f7b                idman_user_init
                0x0000000040173fd0                IDMan_IPIdPassListMalloc
                0x00000000401740a6                IDMan_IPRetJudgment
                0x0000000040174122                IDMan_IPInitializeReader
                0x0000000040174153                IDMan_IPInitialize
                0x000000004017425c                IDMan_IPFinalize
                0x00000000401742a4                IDMan_IPFinalizeReader
                0x00000000401742c6                IDMan_getMemoryFree
                0x000000004017430e                IDMan_PaddingParamChk
                0x0000000040174424                IDMan_CmPadding
                0x00000000401745d5                IDMan_CmPadding2
                0x0000000040174748                IDMan_IPgetCertPKCS
                0x0000000040174daf                IDMan_IPgetCertIdxPKCS
                0x00000000401752b3                IDMan_IPCheckPKC
                0x00000000401754ce                IDMan_CheckCardStatus
                0x0000000040175500                IDMan_IPgSParamChk
                0x0000000040175649                IDMan_IPgIdxSParamChk
                0x0000000040175688                IDMan_IPgetPrivateKey
                0x000000004017586a                IDMan_IPgetHash
                0x000000004017594c                IDMan_IPCrSignature
                0x0000000040175aac                IDMan_generateSignature
                0x0000000040175bd1                IDMan_generateSignatureByIndex
                0x0000000040175ce3                IDMan_EncryptByIndex
                0x0000000040175e00                IDMan_IPgCParamChk
                0x0000000040175f09                IDMan_getCertificate
                0x0000000040176230                IDMan_IPgCIndexParamChk
                0x0000000040176260                IDMan_getCertificateByIndex
                0x00000000401765e0                IDMan_getStaticPassword
                0x0000000040176910                IDMan_IPuAPKCS11ParamChk
                0x0000000040176a2f                IDMan_IPuAPKCS11IdxParamChk
                0x0000000040176a56                IDMan_IPgetCertPkeyPKCSx
                0x0000000040176f09                IDMan_IPgetCertPkeyIdxPKCSx
                0x000000004017732d                IDMan_IPgetCertPkeyPKCSy
                0x0000000040177478                IDMan_IPCheckCrlPkcX
                0x00000000401775b2                IDMan_IPgetMakeRandData
                0x000000004017762b                IDMan_IPMkRandHash
                0x00000000401776d5                IDMan_IPgetPrivateKeyPKCSx
                0x00000000401778b3                IDMan_IPSignatureVerify
                0x0000000040177a2c                IDMan_userAuthPKCS11
                0x0000000040177ea7                IDMan_userAuthPKCS11ByIndex
                0x0000000040178330                IDMan_IPvSParamChk
                0x00000000401784d6                IDMan_IPvSIdxParamChk
                0x000000004017854e                IDMan_IPMkPublicKeyObj
                0x0000000040178692                IDMan_IPCheckSignature
                0x000000004017883d                IDMan_verifySignature
                0x0000000040178a04                IDMan_verifySignatureByIndex
                0x0000000040178bb0                CardEstablishContext
                0x0000000040178bc8                CardReleaseContext
                0x0000000040178bf9                CardListReaders
                0x0000000040178c11                CardConnect
                0x0000000040178c4f                CardDisconnect
                0x0000000040178c6c                CardStatus
                0x0000000040178cbd                CardTransmit
                0x0000000040178cf9                SelectFileDF
                0x0000000040178ddd                SelectFileEF
                0x0000000040178eb8                Verify
                0x0000000040178fac                InternalAuth
                0x00000000401790e3                ReadBinary
                0x00000000401796d0                UpdateBinary
                0x00000000401797e9                GetICCardData
                0x0000000040179bd0                GetUlByTxt
                0x0000000040179c0f                GetVerByTex
                0x0000000040179cef                GetUlByByte
                0x0000000040179d3d                TransHex2Tex
                0x0000000040179dd7                TransTex2Hex
                0x0000000040179ea0                GetLength
                0x0000000040179f07                SetLength
                0x0000000040179f6c                GetTlvByBuf
                0x000000004017a2d8                GetDirDataByTlv
                0x000000004017a40a                GetOdfDataByTlv
                0x000000004017a57d                GetTokenDataByTlv
                0x000000004017a9e4                AddObjTblByTlv
                0x000000004017b01d                AddCertDataByBuf
                0x000000004017b116                AddIdPassDataByBuf
                0x000000004017b4ed                GetValueData
                0x000000004017b870                AddElem
                0x000000004017b8f8                SetElem
                0x000000004017b9b8                GetElem
                0x000000004017b9f4                GetAttrValType
                0x000000004017bb66                DestroyAttribute
                0x000000004017bbb0                DestroyTlvData
                0x000000004017bbcb                DestroyElem
                0x000000004017bc54                DestroyList
                0x000000004017bc91                DestroyTokenData
                0x000000004017bcf1                DestroySlotData
                0x000000004017bd2d                DestroySessionData
                0x000000004017bd6b                DelElem
                0x000000004017bde0                C_GetFunctionList
                0x000000004017bdf2                C_Initialize
                0x000000004017bf60                C_Finalize
                0x000000004017bffc                C_GetInfo
                0x000000004017c082                C_GetSlotList
                0x000000004017c94c                C_GetSlotInfo
                0x000000004017ca34                C_GetTokenInfo
                0x000000004017d2f6                C_GetMechanismList
                0x000000004017d3c1                C_GetMechanismInfo
                0x000000004017d47b                C_OpenSession
                0x000000004017d639                C_CloseSession
                0x000000004017d713                C_CloseAllSessions
                0x000000004017d823                C_GetSessionInfo
                0x000000004017d89f                C_Login
                0x000000004017dd00                C_Logout
                0x000000004017de0d                C_FindObjectsInit
                0x000000004017e06e                C_FindObjects
                0x000000004017e5a3                C_FindObjectsFinal
                0x000000004017e619                C_GetAttributeValue
                0x000000004017e918                C_SignInit
                0x000000004017e9df                C_Sign
                0x000000004017ed55                C_DigestInit
                0x000000004017edd0                C_DigestUpdate
                0x000000004017ee52                C_DigestFinal
                0x000000004017ef92                C_VerifyInit
                0x000000004017f059                C_Verify
                0x000000004017f1c0                C_CreateObject
                0x000000004017f47a                C_DestroyObject
                0x000000004017f53a                C_SetAttributeValue
                0x00000000401800da                C_GetCardStatus
                0x0000000040180170                IDMan_StFree
                0x0000000040180181                IDMan_StMemcpy
                0x00000000401801a9                IDMan_StMemset
                0x00000000401801c9                IDMan_StMalloc
                0x0000000040180202                IDMan_StMemcmp
                0x0000000040180252                IDMan_StStrlen
                0x0000000040180273                IDMan_StStrcat
                0x00000000401802b2                IDMan_StStrchr
                0x00000000401802ed                IDMan_StStrcpy
                0x0000000040180319                IDMan_StStrcmp
                0x000000004018035c                StIsspace
                0x00000000401803cb                StIsdigit
                0x00000000401803dd                IDMan_StAtoi
                0x000000004018042f                IDMan_StAtol
                0x000000004018048b                IDMan_CmMkHash
                0x000000004018063d                IDMan_CmChgRSA
                0x00000000401807f7                IDMan_CmGetDN
                0x0000000040180a93                IDMan_CmGetCertificateSign
                0x0000000040180cb7                IDMan_CmGetPublicKey
                0x0000000040180e87                IDMan_CmMakeRand
                0x0000000040180f25                IDMan_CmCheckCRL
                0x00000000401812a0                IDMan_SCardEstablishContext
                0x00000000401812bd                IDMan_SCardReleaseContext
                0x00000000401812c8                IDMan_SCardListReaders
                0x00000000401812f8                IDMan_SCardConnect
                0x0000000040181328                IDMan_SCardDisconnect
                0x0000000040181333                IDMan_SCardStatus
                0x00000000401813a7                IDMan_SCardSizeLongToChar
                0x00000000401813e8                IDMan_SCardSetBinay
                0x000000004018177b                IDMan_SCardTransmit
                0x00000000401817f0                EHDestroyEventHandler
                0x000000004018185d                EHInitEventHandler
                0x000000004018192d                EHStatusHandler
                0x0000000040181ac9                HPSearchHotPluggables
                0x0000000040181e30                PHGetProtocol
                0x00000000401821fa                PHSetProtocol
                0x000000004018225e                RFAddReader
                0x0000000040182375                RFRemoveReader
                0x0000000040182430                RFReaderInfoById
                0x0000000040182460                RFCheckReaderEventState
                0x00000000401824a0                SCardEstablishContext
                0x0000000040182590                SCardListReaders
                0x000000004018262d                SCardConnect
                0x00000000401828c4                SCardDisconnect
                0x0000000040182a72                SCardBeginTransaction
                0x0000000040182ac9                SCardEndTransaction
                0x0000000040182c9f                SCardStatus
                0x0000000040182eb2                SCardReleaseContext
                0x0000000040182f7a                SCardTransmit
                0x00000000401831c0                SetATR
                0x0000000040183409                GetIFSCData
                0x0000000040183466                GetBWICWIData
                0x0000000040183513                IFDHCloseChannel
                0x0000000040183590                IFDHGetCapabilities
                0x00000000401835d6                IFDHSetProtocolParameters
                0x0000000040183ce0                IFDHPowerICC
                0x0000000040183ecf                IFDHTransmitToICC
                0x0000000040184195                IFDHControl
                0x00000000401842a6                IFDHICCPresence
                0x0000000040184348                IFDHCreateChannel
                0x00000000401843e8                FindBaudRateTable
                0x0000000040184431                ExchangePPSData
                0x0000000040184afc                InitLeaderCardProtocol
                0x0000000040184c16                T1XfrBlockTPDU
                0x000000004018524d                T1NegociateIFSD
                0x000000004018539b                CardStateConfirm
                0x00000000401853d0                GetCardStatus
                0x00000000401854d5                PowerOn
                0x0000000040185680                PowerOff
                0x00000000401857d0                CardMechanical
                0x00000000401858dd                TransmitPPS
                0x0000000040185a56                TransmitCommand
                0x0000000040185b26                ReceiveReply
                0x0000000040185cd5                ReadDataT0
                0x0000000040185d80                BlockSendCardT1
                0x0000000040185f9d                T0XfrBlockCHAR
                0x00000000401864a1                T0XfrBlockTPDU
                0x000000004018651a                T1XfrBlockExtendedAPDU
                0x0000000040186863                OpenUSB
                0x0000000040186c18                WriteUSB
                0x0000000040186c47                ReadUSB
                0x0000000040186ca5                CloseUSB
                0x0000000040186d13                AES_set_encrypt_key
                0x0000000040187121                AES_set_decrypt_key
                0x000000004018734c                AES_encrypt
                0x00000000401877d7                AES_decrypt
                0x0000000040187c40                BIO_set
                0x0000000040187d0e                BIO_new
                0x0000000040187d81                BIO_free
                0x0000000040187e39                BIO_vfree
                0x0000000040187e44                BIO_clear_flags
                0x0000000040187e4f                BIO_test_flags
                0x0000000040187e5a                BIO_set_flags
                0x0000000040187e63                BIO_get_callback
                0x0000000040187e6d                BIO_set_callback
                0x0000000040187e77                BIO_set_callback_arg
                0x0000000040187e81                BIO_get_callback_arg
                0x0000000040187e8b                BIO_method_name
                0x0000000040187e98                BIO_method_type
                0x0000000040187ea3                BIO_read
                0x0000000040187f8d                BIO_write
                0x0000000040188082                BIO_puts
                0x000000004018816f                BIO_gets
                0x0000000040188253                BIO_indent
                0x0000000040188298                BIO_ctrl
                0x000000004018835e                BIO_int_ctrl
                0x0000000040188374                BIO_ptr_ctrl
                0x000000004018839f                BIO_callback_ctrl
                0x0000000040188463                BIO_ctrl_pending
                0x000000004018847d                BIO_ctrl_wpending
                0x0000000040188497                BIO_push
                0x00000000401884e7                BIO_pop
                0x000000004018854d                BIO_get_retry_BIO
                0x000000004018857a                BIO_get_retry_reason
                0x0000000040188583                BIO_find_type
                0x00000000401885ce                BIO_next
                0x00000000401885e4                BIO_free_all
                0x0000000040188613                BIO_dup_chain
                0x000000004018870b                BIO_copy_next_retry
                0x0000000040188724                BIO_get_ex_new_index
                0x0000000040188743                BIO_set_ex_data
                0x0000000040188752                BIO_get_ex_data
                0x0000000040188761                BIO_number_read
                0x0000000040188777                BIO_number_written
                0x00000000401888d0                BN_set_params
                0x0000000040188960                BN_get_params
                0x0000000040188995                BN_value_one
                0x00000000401889a0                BN_options
                0x00000000401889e8                BN_num_bits_word
                0x0000000040188a46                BN_num_bits
                0x0000000040188a6c                BN_clear_free
                0x0000000040188ac5                BN_free
                0x0000000040188b0e                BN_init
                0x0000000040188b23                BN_new
                0x0000000040188b8b                bn_expand2
                0x0000000040188bdc                BN_copy
                0x0000000040188cc8                BN_dup
                0x0000000040188d1a                bn_dup_expand
                0x0000000040188d8b                BN_swap
                0x0000000040188dee                BN_clear
                0x0000000040188e2b                BN_get_word
                0x0000000040188e4d                BN_set_word
                0x0000000040188ea2                BN_bin2bn
                0x0000000040188fe1                BN_bn2bin
                0x0000000040189050                BN_ucmp
                0x00000000401890ad                BN_cmp
                0x000000004018916d                BN_set_bit
                0x000000004018921c                BN_clear_bit
                0x00000000401892a5                BN_is_bit_set
                0x00000000401892e9                BN_mask_bits
                0x000000004018937e                BN_set_negative
                0x000000004018939e                bn_cmp_words
                0x0000000040189404                bn_cmp_part_words
                0x0000000040189490                BN_bn2hex
                0x0000000040189572                BN_bn2dec
                0x000000004018978a                BN_hex2bn
                0x000000004018996d                BN_dec2bn
                0x0000000040189b1a                BN_asc2bn
                0x0000000040189b81                BN_print
                0x0000000040189e57                BN_rand
                0x0000000040189e71                BN_pseudo_rand
                0x000000004018a05e                BN_bntest_rand
                0x000000004018a078                BN_rand_range
                0x000000004018a08e                BN_pseudo_rand_range
                0x000000004018a0b0                BN_mod_word
                0x000000004018a10a                BN_div_word
                0x000000004018a1e2                BN_sub_word
                0x000000004018a2dc                BN_add_word
                0x000000004018a3ca                BN_mul_word
                0x000000004018a86c                BIO_s_mem
                0x000000004018a877                BIO_new_mem_buf
                0x000000004018a8f0                BUF_MEM_new
                0x000000004018a94c                BUF_MEM_free
                0x000000004018a98b                BUF_MEM_grow
                0x000000004018aa80                BUF_MEM_grow_clean
                0x000000004018ab8f                BUF_memdup
                0x000000004018abf8                BUF_strlcpy
                0x000000004018ac68                BUF_strndup
                0x000000004018ace4                BUF_strdup
                0x000000004018ad12                BUF_strlcat
                0x000000004018ad5a                BUF_reverse
                0x000000004018adaf                OpenSSL_add_all_ciphers
                0x000000004018b250                OpenSSL_add_all_digests
                0x000000004018b3c0                CRYPTO_get_new_lockid
                0x000000004018b46f                CRYPTO_num_locks
                0x000000004018b47a                CRYPTO_get_dynlock_create_callback
                0x000000004018b487                CRYPTO_get_dynlock_lock_callback
                0x000000004018b494                CRYPTO_get_dynlock_destroy_callback
                0x000000004018b4a1                CRYPTO_set_dynlock_create_callback
                0x000000004018b4ae                CRYPTO_set_dynlock_lock_callback
                0x000000004018b4bb                CRYPTO_set_dynlock_destroy_callback
                0x000000004018b4c8                CRYPTO_get_locking_callback
                0x000000004018b4d5                CRYPTO_get_add_lock_callback
                0x000000004018b4e2                CRYPTO_set_locking_callback
                0x000000004018b4ef                CRYPTO_set_add_lock_callback
                0x000000004018b4fc                CRYPTO_THREADID_set_numeric
                0x000000004018b521                CRYPTO_THREADID_set_pointer
                0x000000004018b549                CRYPTO_THREADID_set_callback
                0x000000004018b567                CRYPTO_THREADID_get_callback
                0x000000004018b574                CRYPTO_THREADID_current
                0x000000004018b5bc                CRYPTO_THREADID_cmp
                0x000000004018b5cc                CRYPTO_THREADID_cpy
                0x000000004018b5dc                CRYPTO_THREADID_hash
                0x000000004018b5e6                CRYPTO_get_id_callback
                0x000000004018b5f3                CRYPTO_set_id_callback
                0x000000004018b600                CRYPTO_thread_id
                0x000000004018b61a                CRYPTO_get_lock_name
                0x000000004018b66f                OPENSSL_ia32cap_loc
                0x000000004018b67a                OPENSSL_cpuid_setup
                0x000000004018b680                OPENSSL_showfatal
                0x000000004018b6cb                OPENSSL_isservice
                0x000000004018b6d6                OpenSSLDie
                0x000000004018b6f8                CRYPTO_lock
                0x000000004018b77d                CRYPTO_get_new_dynlockid
                0x000000004018b999                CRYPTO_destroy_dynlockid
                0x000000004018ba91                CRYPTO_get_dynlock_value
                0x000000004018bb30                CRYPTO_add_lock
                0x000000004018bb9e                OPENSSL_stderr
                0x000000004018bba9                DES_encrypt1
                0x000000004018bfbe                DES_encrypt2
                0x000000004018c2d6                DES_encrypt3
                0x000000004018c430                DES_decrypt3
                0x000000004018c58d                DES_ncbc_encrypt
                0x000000004018cbc9                DES_ede3_cbc_encrypt
                0x000000004018d5ea                DH_generate_key
                0x000000004018d5fa                DH_compute_key
                0x000000004018d60a                DH_OpenSSL
                0x000000004018d615                DH_set_default_method
                0x000000004018d622                DH_get_default_method
                0x000000004018d64d                DH_set_method
                0x000000004018d68c                DH_new_method
                0x000000004018d7ad                DH_new
                0x000000004018d7bd                DH_free
                0x000000004018d89d                DH_up_ref
                0x000000004018d8ca                DH_get_ex_new_index
                0x000000004018d8e9                DH_set_ex_data
                0x000000004018d8f8                DH_get_ex_data
                0x000000004018d907                DH_size
                0x000000004018e66a                EVP_aes_128_cbc
                0x000000004018e675                EVP_aes_128_cfb128
                0x000000004018e680                EVP_aes_128_ofb
                0x000000004018e68b                EVP_aes_128_ecb
                0x000000004018e696                EVP_aes_192_cbc
                0x000000004018e6a1                EVP_aes_192_cfb128
                0x000000004018e6ac                EVP_aes_192_ofb
                0x000000004018e6b7                EVP_aes_192_ecb
                0x000000004018e6c2                EVP_aes_256_cbc
                0x000000004018e6cd                EVP_aes_256_cfb128
                0x000000004018e6d8                EVP_aes_256_ofb
                0x000000004018e6e3                EVP_aes_256_ecb
                0x000000004018e6ee                EVP_aes_128_cfb1
                0x000000004018e6f9                EVP_aes_192_cfb1
                0x000000004018e704                EVP_aes_256_cfb1
                0x000000004018e70f                EVP_aes_128_cfb8
                0x000000004018e71a                EVP_aes_192_cfb8
                0x000000004018e725                EVP_aes_256_cfb8
                0x000000004018ea48                EVP_bf_cbc
                0x000000004018ea53                EVP_bf_cfb64
                0x000000004018ea5e                EVP_bf_ofb
                0x000000004018ea69                EVP_bf_ecb
                0x000000004018ed8c                EVP_cast5_cbc
                0x000000004018ed97                EVP_cast5_cfb64
                0x000000004018eda2                EVP_cast5_ofb
                0x000000004018edad                EVP_cast5_ecb
                0x000000004018f395                EVP_des_cbc
                0x000000004018f3a0                EVP_des_cfb64
                0x000000004018f3ab                EVP_des_ofb
                0x000000004018f3b6                EVP_des_ecb
                0x000000004018f3c1                EVP_des_cfb1
                0x000000004018f3cc                EVP_des_cfb8
                0x000000004018f9ba                EVP_des_ede_cbc
                0x000000004018f9c5                EVP_des_ede_cfb64
                0x000000004018f9d0                EVP_des_ede_ofb
                0x000000004018f9db                EVP_des_ede_ecb
                0x000000004018f9e6                EVP_des_ede3_cbc
                0x000000004018f9f1                EVP_des_ede3_cfb64
                0x000000004018f9fc                EVP_des_ede3_ofb
                0x000000004018fa07                EVP_des_ede3_ecb
                0x000000004018fa12                EVP_des_ede3_cfb1
                0x000000004018fa1d                EVP_des_ede3_cfb8
                0x000000004018fa28                EVP_des_ede
                0x000000004018fa33                EVP_des_ede3
                0x000000004018fdb2                EVP_idea_cbc
                0x000000004018fdbd                EVP_idea_cfb64
                0x000000004018fdc8                EVP_idea_ofb
                0x000000004018fdd3                EVP_idea_ecb
                0x000000004019031e                EVP_rc2_cbc
                0x0000000040190329                EVP_rc2_cfb64
                0x0000000040190334                EVP_rc2_ofb
                0x000000004019033f                EVP_rc2_ecb
                0x000000004019034a                EVP_rc2_64_cbc
                0x0000000040190355                EVP_rc2_40_cbc
                0x00000000401903a7                EVP_rc4
                0x00000000401903b2                EVP_rc4_40
                0x000000004019052d                EVP_desx_cbc
                0x0000000040190538                DES_ecb3_encrypt
                0x0000000040190608                DES_options
                0x0000000040190662                DES_ecb_encrypt
                0x0000000040190ded                ERR_get_implementation
                0x0000000040190dff                ERR_set_implementation
                0x0000000040190e5a                ERR_load_ERR_strings
                0x0000000040190f87                ERR_load_strings
                0x0000000040190fa7                ERR_unload_strings
                0x0000000040190ff9                ERR_free_strings
                0x000000004019100e                ERR_get_string_table
                0x0000000040191027                ERR_get_err_state_table
                0x0000000040191041                ERR_release_err_state_table
                0x0000000040191066                ERR_lib_error_string
                0x00000000401910a6                ERR_func_error_string
                0x00000000401910e6                ERR_reason_error_string
                0x000000004019114f                ERR_error_string_n
                0x00000000401912b1                ERR_error_string
                0x00000000401912e0                ERR_remove_thread_state
                0x0000000040191325                ERR_remove_state
                0x0000000040191335                ERR_get_state
                0x000000004019144b                ERR_put_error
                0x000000004019153e                ERR_clear_error
                0x00000000401917ea                ERR_get_error
                0x0000000040191815                ERR_get_error_line
                0x000000004019183c                ERR_get_error_line_data
                0x000000004019185d                ERR_peek_error
                0x0000000040191888                ERR_peek_error_line
                0x00000000401918af                ERR_peek_error_line_data
                0x00000000401918d0                ERR_peek_last_error
                0x00000000401918fb                ERR_peek_last_error_line
                0x0000000040191922                ERR_peek_last_error_line_data
                0x0000000040191943                ERR_get_next_error_library
                0x0000000040191958                ERR_set_error_data
                0x00000000401919cb                ERR_add_error_data
                0x0000000040191af4                ERR_set_mark
                0x0000000040191b21                ERR_pop_to_mark
                0x0000000040191bf0                ERR_load_crypto_strings
                0x0000000040191c90                ASN1_TYPE_set_octetstring
                0x0000000040191ceb                ASN1_TYPE_get_octetstring
                0x0000000040191d47                ASN1_TYPE_set_int_octetstring
                0x0000000040191e70                ASN1_TYPE_get_int_octetstring
                0x0000000040192040                EVP_CIPHER_CTX_init
                0x0000000040192055                EVP_CIPHER_CTX_new
                0x000000004019208c                EVP_EncryptUpdate
                0x000000004019220f                EVP_EncryptFinal_ex
                0x00000000401922e5                EVP_EncryptFinal
                0x00000000401922f0                EVP_DecryptUpdate
                0x0000000040192401                EVP_CipherUpdate
                0x0000000040192419                EVP_DecryptFinal_ex
                0x00000000401925aa                EVP_CipherFinal_ex
                0x00000000401925c7                EVP_DecryptFinal
                0x00000000401925d2                EVP_CipherFinal
                0x00000000401925f1                EVP_CIPHER_CTX_cleanup
                0x0000000040192655                EVP_CIPHER_CTX_free
                0x000000004019267a                EVP_CIPHER_CTX_set_padding
                0x000000004019269b                EVP_CIPHER_CTX_ctrl
                0x000000004019272b                EVP_CipherInit_ex
                0x000000004019296b                EVP_CipherInit
                0x00000000401929bd                EVP_EncryptInit
                0x00000000401929ce                EVP_DecryptInit
                0x00000000401929df                EVP_EncryptInit_ex
                0x00000000401929f0                EVP_DecryptInit_ex
                0x0000000040192a01                EVP_CIPHER_CTX_set_key_length
                0x0000000040192a6d                EVP_CIPHER_CTX_rand_key
                0x0000000040192aa3                EVP_CIPHER_CTX_copy
                0x0000000040192b83                ERR_load_EVP_strings
                0x0000000040192bc0                EVP_CIPHER_param_to_asn1
                0x0000000040192be1                EVP_CIPHER_asn1_to_param
                0x0000000040192c01                EVP_CIPHER_get_asn1_iv
                0x0000000040192c7d                EVP_CIPHER_set_asn1_iv
                0x0000000040192cd8                EVP_CIPHER_type
                0x0000000040192e25                EVP_CIPHER_block_size
                0x0000000040192e2e                EVP_CIPHER_CTX_block_size
                0x0000000040192e3a                EVP_Cipher
                0x0000000040192e48                EVP_CIPHER_CTX_cipher
                0x0000000040192e51                EVP_CIPHER_flags
                0x0000000040192e5b                EVP_CIPHER_CTX_flags
                0x0000000040192e68                EVP_CIPHER_CTX_get_app_data
                0x0000000040192e72                EVP_CIPHER_CTX_set_app_data
                0x0000000040192e7c                EVP_CIPHER_iv_length
                0x0000000040192e85                EVP_CIPHER_CTX_iv_length
                0x0000000040192e91                EVP_CIPHER_key_length
                0x0000000040192e9a                EVP_CIPHER_CTX_key_length
                0x0000000040192ea3                EVP_CIPHER_nid
                0x0000000040192eab                EVP_CIPHER_CTX_nid
                0x0000000040192eb6                EVP_MD_block_size
                0x0000000040192ebf                EVP_MD_type
                0x0000000040192ec7                EVP_MD_pkey_type
                0x0000000040192ed0                EVP_MD_size
                0x0000000040192f03                EVP_MD_flags
                0x0000000040192f0d                EVP_MD_CTX_md
                0x0000000040192f22                EVP_MD_CTX_set_flags
                0x0000000040192f2f                EVP_MD_CTX_clear_flags
                0x0000000040192f3e                EVP_MD_CTX_test_flags
                0x0000000040192f49                EVP_CIPHER_CTX_set_flags
                0x0000000040192f56                EVP_CIPHER_CTX_clear_flags
                0x0000000040192f65                EVP_CIPHER_CTX_test_flags
                0x0000000040193378                CRYPTO_get_ex_data_implementation
                0x000000004019339c                CRYPTO_set_ex_data_implementation
                0x00000000401933f7                CRYPTO_ex_data_new_class
                0x0000000040193415                CRYPTO_cleanup_all_ex_data
                0x0000000040193434                CRYPTO_get_ex_new_index
                0x0000000040193491                CRYPTO_new_ex_data
                0x00000000401934d2                CRYPTO_dup_ex_data
                0x0000000040193513                CRYPTO_free_ex_data
                0x0000000040193554                CRYPTO_set_ex_data
                0x000000004019361e                CRYPTO_get_ex_data
                0x0000000040193b42                idea_encrypt
                0x0000000040194445                idea_cbc_encrypt
                0x0000000040194a80                idea_cfb64_encrypt
                0x0000000040194ca1                idea_options
                0x0000000040194cac                idea_ecb_encrypt
                0x0000000040194d65                idea_ofb64_encrypt
                0x0000000040194f92                idea_set_encrypt_key
                0x000000004019511c                idea_set_decrypt_key
                0x000000004019528f                lh_strhash
                0x0000000040195306                lh_new
                0x000000004019546f                lh_free
                0x00000000401954d9                lh_insert
                0x0000000040195666                lh_delete
                0x00000000401957a9                lh_retrieve
                0x00000000401957ec                lh_doall
                0x000000004019583e                lh_doall_arg
                0x00000000401958a2                lh_num_items
                0x00000000401958eb                EVP_dss
                0x0000000040195929                EVP_dss1
                0x0000000040195967                EVP_ecdsa
                0x00000000401959a5                EVP_md4
                0x00000000401959e3                EVP_md5
                0x0000000040195a21                EVP_ripemd160
                0x0000000040195a5f                EVP_sha
                0x0000000040195b21                EVP_sha1
                0x0000000040195b2c                EVP_sha224
                0x0000000040195b37                EVP_sha256
                0x0000000040195b42                EVP_sha384
                0x0000000040195b4d                EVP_sha512
                0x0000000040195b58                MD4_Init
                0x0000000040195b9a                md4_block_data_order
                0x0000000040196138                MD4_Update
                0x0000000040196254                MD4_Transform
                0x0000000040196264                MD4_Final
                0x0000000040196331                MD5_Init
                0x0000000040196373                md5_block_data_order
                0x0000000040196b6e                MD5_Update
                0x0000000040196c8a                MD5_Transform
                0x0000000040196c9a                MD5_Final
                0x0000000040196d67                MD5
                0x0000000040196e04                CRYPTO_set_mem_functions
                0x0000000040196e7b                CRYPTO_set_mem_ex_functions
                0x0000000040196ef2                CRYPTO_set_locked_mem_functions
                0x0000000040196f32                CRYPTO_set_locked_mem_ex_functions
                0x0000000040196f72                CRYPTO_set_mem_debug_functions
                0x0000000040196fab                CRYPTO_get_mem_functions
                0x0000000040197000                CRYPTO_get_mem_ex_functions
                0x0000000040197051                CRYPTO_get_locked_mem_functions
                0x0000000040197086                CRYPTO_get_locked_mem_ex_functions
                0x00000000401970b9                CRYPTO_get_mem_debug_functions
                0x000000004019710a                CRYPTO_malloc_locked
                0x00000000401971ba                CRYPTO_free_locked
                0x0000000040197201                CRYPTO_malloc
                0x00000000401972b1                CRYPTO_strdup
                0x00000000401972f6                CRYPTO_realloc
                0x000000004019739e                CRYPTO_realloc_clean
                0x000000004019746d                CRYPTO_free
                0x00000000401974b4                CRYPTO_remalloc
                0x00000000401974e1                CRYPTO_set_mem_debug_options
                0x00000000401974f6                CRYPTO_get_mem_debug_options
                0x0000000040197510                OPENSSL_cleanse
                0x0000000040197998                CRYPTO_mem_ctrl
                0x0000000040197b29                CRYPTO_is_mem_check_on
                0x0000000040197ba5                CRYPTO_dbg_set_options
                0x0000000040197bb2                CRYPTO_dbg_get_options
                0x0000000040197bbf                CRYPTO_push_info_
                0x0000000040197c88                CRYPTO_pop_info
                0x0000000040197cca                CRYPTO_remove_all_info
                0x0000000040197d0d                CRYPTO_dbg_malloc
                0x0000000040197e9b                CRYPTO_dbg_free
                0x0000000040197f11                CRYPTO_dbg_realloc
                0x0000000040197fb1                CRYPTO_mem_leaks
                0x00000000401980d0                CRYPTO_mem_leaks_cb
                0x000000004019819d                EVP_add_cipher
                0x00000000401981f2                EVP_add_digest
                0x000000004019829a                EVP_get_cipherbyname
                0x00000000401982aa                EVP_get_digestbyname
                0x00000000401982ba                EVP_cleanup
                0x0000000040198300                EVP_CIPHER_do_all
                0x0000000040198325                EVP_CIPHER_do_all_sorted
                0x000000004019834a                EVP_MD_do_all
                0x000000004019836f                EVP_MD_do_all_sorted
                0x0000000040198494                OBJ_NAME_init
                0x00000000401984e2                OBJ_NAME_new_index
                0x000000004019864b                OBJ_NAME_get
                0x00000000401986ee                OBJ_NAME_add
                0x00000000401987ca                OBJ_NAME_remove
                0x0000000040198878                OBJ_NAME_do_all
                0x00000000401988a2                OBJ_NAME_do_all_sorted
                0x0000000040198945                OBJ_NAME_cleanup
                0x0000000040198c0c                check_defer
                0x0000000040198c2d                OBJ_cleanup
                0x0000000040198c9f                OBJ_new_nid
                0x0000000040198cb3                OBJ_add_object
                0x0000000040198e7d                OBJ_nid2obj
                0x0000000040198f3b                OBJ_nid2sn
                0x0000000040198ffc                OBJ_nid2ln
                0x00000000401990be                OBJ_bsearch_ex_
                0x00000000401991d9                OBJ_bsearch_
                0x00000000401991ea                OBJ_obj2nid
                0x0000000040199274                OBJ_obj2txt
                0x00000000401995d0                OBJ_ln2nid
                0x000000004019964b                OBJ_sn2nid
                0x00000000401996c6                OBJ_txt2obj
                0x00000000401997bb                OBJ_txt2nid
                0x00000000401997ea                OBJ_create
                0x00000000401998de                OBJ_create_objects
                0x0000000040199a30                ERR_load_OBJ_strings
                0x0000000040199a70                OBJ_dup
                0x0000000040199c49                OBJ_cmp
                0x0000000040199c6b                ERR_load_OCSP_strings
                0x0000000040199ca0                DES_ede3_ofb64_encrypt
                0x0000000040199e6f                DES_ofb64_encrypt
                0x000000004019a17a                EVP_PKEY_bits
                0x000000004019a1ad                EVP_PKEY_size
                0x000000004019a1e2                EVP_PKEY_save_parameters
                0x000000004019a214                EVP_PKEY_missing_parameters
                0x000000004019a242                EVP_PKEY_copy_parameters
                0x000000004019a2cf                EVP_PKEY_cmp_parameters
                0x000000004019a306                EVP_PKEY_cmp
                0x000000004019a361                EVP_PKEY_new
                0x000000004019a3e1                EVP_PKEY_set_type
                0x000000004019a3f6                EVP_PKEY_set_type_str
                0x000000004019a40b                EVP_PKEY_assign
                0x000000004019a433                EVP_PKEY_get0
                0x000000004019a43d                EVP_PKEY_set1_RSA
                0x000000004019a469                EVP_PKEY_get1_RSA
                0x000000004019a4b4                EVP_PKEY_set1_DSA
                0x000000004019a4e0                EVP_PKEY_get1_DSA
                0x000000004019a52b                EVP_PKEY_set1_EC_KEY
                0x000000004019a557                EVP_PKEY_get1_EC_KEY
                0x000000004019a5a5                EVP_PKEY_set1_DH
                0x000000004019a5d1                EVP_PKEY_get1_DH
                0x000000004019a61c                EVP_PKEY_type
                0x000000004019a63f                EVP_PKEY_id
                0x000000004019a647                EVP_PKEY_base_id
                0x000000004019a654                EVP_PKEY_free
                0x000000004019a6b1                EVP_PKEY_print_public
                0x000000004019a6d7                EVP_PKEY_print_private
                0x000000004019a6fe                EVP_PKEY_print_params
                0x000000004019a727                EVP_PKEY_get_default_digest_nid
                0x000000004019a761                PEM_read_bio_X509_REQ
                0x000000004019a782                PEM_write_bio_X509_REQ
                0x000000004019a7c6                PEM_write_bio_X509_REQ_NEW
                0x000000004019a80a                PEM_read_bio_X509_CRL
                0x000000004019a82b                PEM_write_bio_X509_CRL
                0x000000004019a86f                PEM_read_bio_PKCS7
                0x000000004019a890                PEM_write_bio_PKCS7
                0x000000004019a8d4                PEM_read_bio_NETSCAPE_CERT_SEQUENCE
                0x000000004019a8f5                PEM_write_bio_NETSCAPE_CERT_SEQUENCE
                0x000000004019a939                PEM_read_bio_RSAPrivateKey
                0x000000004019a9a4                PEM_write_bio_RSAPrivateKey
                0x000000004019a9db                PEM_read_bio_RSAPublicKey
                0x000000004019a9fc                PEM_write_bio_RSAPublicKey
                0x000000004019aa40                PEM_read_bio_RSA_PUBKEY
                0x000000004019aa61                PEM_write_bio_RSA_PUBKEY
                0x000000004019aaa5                PEM_read_bio_DSAPrivateKey
                0x000000004019ab10                PEM_write_bio_DSAPrivateKey
                0x000000004019ab47                PEM_read_bio_DSA_PUBKEY
                0x000000004019ab68                PEM_write_bio_DSA_PUBKEY
                0x000000004019abac                PEM_read_bio_DSAparams
                0x000000004019abcd                PEM_write_bio_DSAparams
                0x000000004019ac11                PEM_read_bio_ECPrivateKey
                0x000000004019ac7c                PEM_read_bio_ECPKParameters
                0x000000004019ac9d                PEM_write_bio_ECPKParameters
                0x000000004019ace1                PEM_write_bio_ECPrivateKey
                0x000000004019ad18                PEM_read_bio_EC_PUBKEY
                0x000000004019ad39                PEM_write_bio_EC_PUBKEY
                0x000000004019ad7d                PEM_read_bio_DHparams
                0x000000004019ad9e                PEM_write_bio_DHparams
                0x000000004019ade2                PEM_read_bio_PUBKEY
                0x000000004019ae03                PEM_write_bio_PUBKEY
                0x000000004019ae47                ERR_load_PEM_strings
                0x000000004019ae80                PEM_def_callback
                0x000000004019aeaa                PEM_proc_type
                0x000000004019af19                PEM_dek_info
                0x000000004019afde                PEM_do_header
                0x000000004019b1aa                PEM_get_EVP_CIPHER_INFO
                0x000000004019b45a                PEM_write_bio
                0x000000004019b70d                PEM_ASN1_write_bio
                0x000000004019bb28                PEM_read_bio
                0x000000004019c248                pem_check_suffix
                0x000000004019c2b5                PEM_bytes_read_bio
                0x000000004019c609                PEM_ASN1_read_bio
                0x000000004019c6a6                PEM_read_bio_PrivateKey
                0x000000004019c8fd                PEM_write_bio_PrivateKey
                0x000000004019c9b4                PEM_read_bio_Parameters
                0x000000004019cada                PEM_write_bio_Parameters
                0x000000004019cb63                PEM_read_bio_X509
                0x000000004019cb84                PEM_write_bio_X509
                0x000000004019cbc8                ERR_load_PKCS12_strings
                0x000000004019ccc9                d2i_PKCS7
                0x000000004019ccd9                i2d_PKCS7
                0x000000004019cce9                PKCS7_new
                0x000000004019ccf9                PKCS7_free
                0x000000004019cd09                i2d_PKCS7_NDEF
                0x000000004019cd19                PKCS7_dup
                0x000000004019cd2c                d2i_PKCS7_SIGNED
                0x000000004019cd3c                i2d_PKCS7_SIGNED
                0x000000004019cd4c                PKCS7_SIGNED_new
                0x000000004019cd5c                PKCS7_SIGNED_free
                0x000000004019cd6c                d2i_PKCS7_SIGNER_INFO
                0x000000004019cd7c                i2d_PKCS7_SIGNER_INFO
                0x000000004019cd8c                PKCS7_SIGNER_INFO_new
                0x000000004019cd9c                PKCS7_SIGNER_INFO_free
                0x000000004019cdac                d2i_PKCS7_ISSUER_AND_SERIAL
                0x000000004019cdbc                i2d_PKCS7_ISSUER_AND_SERIAL
                0x000000004019cdcc                PKCS7_ISSUER_AND_SERIAL_new
                0x000000004019cddc                PKCS7_ISSUER_AND_SERIAL_free
                0x000000004019cdec                d2i_PKCS7_ENVELOPE
                0x000000004019cdfc                i2d_PKCS7_ENVELOPE
                0x000000004019ce0c                PKCS7_ENVELOPE_new
                0x000000004019ce1c                PKCS7_ENVELOPE_free
                0x000000004019ce2c                d2i_PKCS7_RECIP_INFO
                0x000000004019ce3c                i2d_PKCS7_RECIP_INFO
                0x000000004019ce4c                PKCS7_RECIP_INFO_new
                0x000000004019ce5c                PKCS7_RECIP_INFO_free
                0x000000004019ce6c                d2i_PKCS7_ENC_CONTENT
                0x000000004019ce7c                i2d_PKCS7_ENC_CONTENT
                0x000000004019ce8c                PKCS7_ENC_CONTENT_new
                0x000000004019ce9c                PKCS7_ENC_CONTENT_free
                0x000000004019ceac                d2i_PKCS7_SIGN_ENVELOPE
                0x000000004019cebc                i2d_PKCS7_SIGN_ENVELOPE
                0x000000004019cecc                PKCS7_SIGN_ENVELOPE_new
                0x000000004019cedc                PKCS7_SIGN_ENVELOPE_free
                0x000000004019ceec                d2i_PKCS7_ENCRYPT
                0x000000004019cefc                i2d_PKCS7_ENCRYPT
                0x000000004019cf0c                PKCS7_ENCRYPT_new
                0x000000004019cf1c                PKCS7_ENCRYPT_free
                0x000000004019cf2c                d2i_PKCS7_DIGEST
                0x000000004019cf3c                i2d_PKCS7_DIGEST
                0x000000004019cf4c                PKCS7_DIGEST_new
                0x000000004019cf5c                PKCS7_DIGEST_free
                0x000000004019cf6c                PKCS7_print_ctx
                0x000000004019d4dd                PKCS7_dataInit
                0x000000004019dbcd                PKCS7_dataDecode
                0x000000004019e208                PKCS7_SIGNER_INFO_sign
                0x000000004019e3d1                PKCS7_get_issuer_and_serial
                0x000000004019e447                PKCS7_get_signed_attribute
                0x000000004019e456                PKCS7_dataFinal
                0x000000004019ea09                PKCS7_get_attribute
                0x000000004019ea18                PKCS7_digest_from_attributes
                0x000000004019ea38                PKCS7_signatureVerify
                0x000000004019ed4f                PKCS7_dataVerify
                0x000000004019eec1                PKCS7_set_signed_attributes
                0x000000004019ef51                PKCS7_set_attributes
                0x000000004019efe1                PKCS7_add_signed_attribute
                0x000000004019eff0                PKCS7_add_attribute
                0x000000004019f000                PKCS7_ctrl
                0x000000004019f138                PKCS7_set_content
                0x000000004019f1c5                PKCS7_set_type
                0x000000004019f3c4                PKCS7_content_new
                0x000000004019f426                PKCS7_set0_type_other
                0x000000004019f44c                PKCS7_add_signer
                0x000000004019f5b0                PKCS7_add_certificate
                0x000000004019f68b                PKCS7_add_crl
                0x000000004019f76b                PKCS7_SIGNER_INFO_set
                0x000000004019f8c6                PKCS7_add_signature
                0x000000004019f98a                PKCS7_set_digest
                0x000000004019fa49                PKCS7_get_signer_info
                0x000000004019fa92                PKCS7_SIGNER_INFO_get0_algs
                0x000000004019fabc                PKCS7_RECIP_INFO_get0_alg
                0x000000004019face                PKCS7_add_recipient_info
                0x000000004019fb3d                PKCS7_RECIP_INFO_set
                0x000000004019fcd6                PKCS7_add_recipient
                0x000000004019fd36                PKCS7_cert_from_signer_info
                0x000000004019fd7a                PKCS7_set_cipher
                0x000000004019fe14                PKCS7_stream
                0x000000004019feda                ERR_load_PKCS7_strings
                0x000000004019ff0f                ERR_load_RAND_strings
                0x000000004019ff50                DES_random_key
                0x000000004019ff90                RAND_set_rand_method
                0x000000004019ffa2                RAND_get_rand_method
                0x000000004019ffcd                RAND_cleanup
                0x000000004019fff3                RAND_seed
                0x00000000401a001f                RAND_add
                0x00000000401a005e                RAND_bytes
                0x00000000401a0099                RAND_pseudo_bytes
                0x00000000401a00d4                RAND_status
                0x00000000401a00fb                RC2_encrypt
                0x00000000401a024e                RC2_decrypt
                0x00000000401a03b2                RC2_cbc_encrypt
                0x00000000401a09da                RC2_ecb_encrypt
                0x00000000401a0aa1                RC2_set_key
                0x00000000401a0bd0                RC2_cfb64_encrypt
                0x00000000401a0de5                RC2_ofb64_encrypt
                0x00000000401a0f98                RC4
                0x00000000401a13f3                RC4_options
                0x00000000401a13fe                RC4_set_key
                0x00000000401a1501                RIPEMD160_Init
                0x00000000401a154a                ripemd160_block_data_order
                0x00000000401a2beb                RIPEMD160_Update
                0x00000000401a2d07                RIPEMD160_Transform
                0x00000000401a2d17                RIPEMD160_Final
                0x00000000401a2e36                d2i_RSAPrivateKey
                0x00000000401a2e46                i2d_RSAPrivateKey
                0x00000000401a2e56                d2i_RSAPublicKey
                0x00000000401a2e66                i2d_RSAPublicKey
                0x00000000401a2e76                RSAPublicKey_dup
                0x00000000401a2e89                RSAPrivateKey_dup
                0x00000000401a2e9c                RSA_generate_key
                0x00000000401a2f5e                ERR_load_RSA_strings
                0x00000000401a2fa0                RSA_generate_key_ex
                0x00000000401a35a9                RSA_set_default_method
                0x00000000401a35b6                RSA_get_default_method
                0x00000000401a35e1                RSA_get_method
                0x00000000401a35eb                RSA_set_method
                0x00000000401a3624                RSA_new_method
                0x00000000401a377b                RSA_new
                0x00000000401a378b                RSA_free
                0x00000000401a389b                RSA_up_ref
                0x00000000401a38c8                RSA_get_ex_new_index
                0x00000000401a38e7                RSA_set_ex_data
                0x00000000401a38f6                RSA_get_ex_data
                0x00000000401a3905                RSA_size
                0x00000000401a3920                RSA_public_encrypt
                0x00000000401a392d                RSA_private_encrypt
                0x00000000401a393a                RSA_private_decrypt
                0x00000000401a3947                RSA_public_decrypt
                0x00000000401a3954                RSA_flags
                0x00000000401a396d                RSA_blinding_off
                0x00000000401a39a7                RSA_setup_blinding
                0x00000000401a3c43                RSA_blinding_on
                0x00000000401a3c92                RSA_memory_lock
                0x00000000401a3de0                RSA_sign
                0x00000000401a403a                int_rsa_verify
                0x00000000401a43d7                RSA_verify
                0x00000000401a4420                DES_set_odd_parity
                0x00000000401a4443                DES_check_key_parity
                0x00000000401a448b                DES_is_weak_key
                0x00000000401a44dc                DES_set_key_unchecked
                0x00000000401a477c                DES_set_key_checked
                0x00000000401a47ca                DES_set_key
                0x00000000401a47ec                DES_key_sched
                0x00000000401a47f7                SHA1
                0x00000000401a5a1e                SHA1_Update
                0x00000000401a5b3a                SHA1_Transform
                0x00000000401a5b4a                SHA1_Final
                0x00000000401a5c2d                SHA1_Init
                0x00000000401a740e                SHA224_Init
                0x00000000401a7473                SHA256_Init
                0x00000000401a74d8                SHA256_Update
                0x00000000401a75f4                SHA224_Update
                0x00000000401a75ff                SHA256_Transform
                0x00000000401a760f                SHA256_Final
                0x00000000401a774b                SHA224
                0x00000000401a77b9                SHA256
                0x00000000401a7827                SHA224_Final
                0x00000000401a8f73                SHA384_Init
                0x00000000401a9011                SHA512_Init
                0x00000000401a90af                SHA512_Final
                0x00000000401a9317                SHA384_Final
                0x00000000401a9322                SHA512_Update
                0x00000000401a941b                SHA384_Update
                0x00000000401a9426                SHA512_Transform
                0x00000000401a9436                SHA384
                0x00000000401a94aa                SHA512
                0x00000000401aa574                SHA_Update
                0x00000000401aa690                SHA_Transform
                0x00000000401aa6a0                SHA_Final
                0x00000000401aa783                SHA_Init
                0x00000000401aa7d0                sk_set_cmp_func
                0x00000000401aa7ea                sk_new
                0x00000000401aa87c                sk_new_null
                0x00000000401aa88c                sk_insert
                0x00000000401aa942                sk_delete
                0x00000000401aa9a0                sk_delete_ptr
                0x00000000401aa9ee                sk_push
                0x00000000401aa9fb                sk_unshift
                0x00000000401aaa0b                sk_shift
                0x00000000401aaa33                sk_pop
                0x00000000401aaa5a                sk_zero
                0x00000000401aaa8f                sk_free
                0x00000000401aaabd                sk_dup
                0x00000000401aab53                sk_pop_free
                0x00000000401aaba5                sk_num
                0x00000000401aabb9                sk_value
                0x00000000401aabea                sk_set
                0x00000000401aac1e                sk_sort
                0x00000000401aad08                sk_find
                0x00000000401aad18                sk_find_ex
                0x00000000401aad28                sk_is_sorted
                0x00000000401ab1e5                ASN1_tag2bit
                0x00000000401ab200                asn1_ex_c2i
                0x00000000401aba40                ASN1_item_ex_d2i
                0x00000000401ac3e6                ASN1_item_d2i
                0x00000000401ac95d                ASN1_template_d2i
                0x00000000401ac9b5                asn1_ex_i2c
                0x00000000401acca5                ASN1_item_ex_i2d
                0x00000000401ad106                ASN1_item_ndef_i2d
                0x00000000401ad116                ASN1_item_i2d
                0x00000000401ad5d3                ASN1_template_i2d
                0x00000000401ad5f0                ASN1_primitive_free
                0x00000000401ad90a                ASN1_item_free
                0x00000000401ad926                ASN1_item_ex_free
                0x00000000401ad936                ASN1_template_free
                0x00000000401ada72                ASN1_primitive_new
                0x00000000401ade9d                ASN1_item_ex_new
                0x00000000401adead                ASN1_item_new
                0x00000000401adeda                ASN1_template_new
                0x00000000401adf7e                d2i_ASN1_INTEGER
                0x00000000401adf8e                i2d_ASN1_INTEGER
                0x00000000401adf9e                ASN1_INTEGER_new
                0x00000000401adfae                ASN1_INTEGER_free
                0x00000000401adfbe                d2i_ASN1_ENUMERATED
                0x00000000401adfce                i2d_ASN1_ENUMERATED
                0x00000000401adfde                ASN1_ENUMERATED_new
                0x00000000401adfee                ASN1_ENUMERATED_free
                0x00000000401adffe                d2i_ASN1_BIT_STRING
                0x00000000401ae00e                i2d_ASN1_BIT_STRING
                0x00000000401ae01e                ASN1_BIT_STRING_new
                0x00000000401ae02e                ASN1_BIT_STRING_free
                0x00000000401ae03e                d2i_ASN1_OCTET_STRING
                0x00000000401ae04e                i2d_ASN1_OCTET_STRING
                0x00000000401ae05e                ASN1_OCTET_STRING_new
                0x00000000401ae06e                ASN1_OCTET_STRING_free
                0x00000000401ae07e                d2i_ASN1_NULL
                0x00000000401ae08e                i2d_ASN1_NULL
                0x00000000401ae09e                ASN1_NULL_new
                0x00000000401ae0ae                ASN1_NULL_free
                0x00000000401ae0be                d2i_ASN1_UTF8STRING
                0x00000000401ae0ce                i2d_ASN1_UTF8STRING
                0x00000000401ae0de                ASN1_UTF8STRING_new
                0x00000000401ae0ee                ASN1_UTF8STRING_free
                0x00000000401ae0fe                d2i_ASN1_PRINTABLESTRING
                0x00000000401ae10e                i2d_ASN1_PRINTABLESTRING
                0x00000000401ae11e                ASN1_PRINTABLESTRING_new
                0x00000000401ae12e                ASN1_PRINTABLESTRING_free
                0x00000000401ae13e                d2i_ASN1_T61STRING
                0x00000000401ae14e                i2d_ASN1_T61STRING
                0x00000000401ae15e                ASN1_T61STRING_new
                0x00000000401ae16e                ASN1_T61STRING_free
                0x00000000401ae17e                d2i_ASN1_IA5STRING
                0x00000000401ae18e                i2d_ASN1_IA5STRING
                0x00000000401ae19e                ASN1_IA5STRING_new
                0x00000000401ae1ae                ASN1_IA5STRING_free
                0x00000000401ae1be                d2i_ASN1_GENERALSTRING
                0x00000000401ae1ce                i2d_ASN1_GENERALSTRING
                0x00000000401ae1de                ASN1_GENERALSTRING_new
                0x00000000401ae1ee                ASN1_GENERALSTRING_free
                0x00000000401ae1fe                d2i_ASN1_UTCTIME
                0x00000000401ae20e                i2d_ASN1_UTCTIME
                0x00000000401ae21e                ASN1_UTCTIME_new
                0x00000000401ae22e                ASN1_UTCTIME_free
                0x00000000401ae23e                d2i_ASN1_GENERALIZEDTIME
                0x00000000401ae24e                i2d_ASN1_GENERALIZEDTIME
                0x00000000401ae25e                ASN1_GENERALIZEDTIME_new
                0x00000000401ae26e                ASN1_GENERALIZEDTIME_free
                0x00000000401ae27e                d2i_ASN1_VISIBLESTRING
                0x00000000401ae28e                i2d_ASN1_VISIBLESTRING
                0x00000000401ae29e                ASN1_VISIBLESTRING_new
                0x00000000401ae2ae                ASN1_VISIBLESTRING_free
                0x00000000401ae2be                d2i_ASN1_UNIVERSALSTRING
                0x00000000401ae2ce                i2d_ASN1_UNIVERSALSTRING
                0x00000000401ae2de                ASN1_UNIVERSALSTRING_new
                0x00000000401ae2ee                ASN1_UNIVERSALSTRING_free
                0x00000000401ae2fe                d2i_ASN1_BMPSTRING
                0x00000000401ae30e                i2d_ASN1_BMPSTRING
                0x00000000401ae31e                ASN1_BMPSTRING_new
                0x00000000401ae32e                ASN1_BMPSTRING_free
                0x00000000401ae33e                d2i_ASN1_TYPE
                0x00000000401ae34e                i2d_ASN1_TYPE
                0x00000000401ae35e                ASN1_TYPE_new
                0x00000000401ae36e                ASN1_TYPE_free
                0x00000000401ae37e                d2i_ASN1_PRINTABLE
                0x00000000401ae38e                i2d_ASN1_PRINTABLE
                0x00000000401ae39e                ASN1_PRINTABLE_new
                0x00000000401ae3ae                ASN1_PRINTABLE_free
                0x00000000401ae3be                d2i_DISPLAYTEXT
                0x00000000401ae3ce                i2d_DISPLAYTEXT
                0x00000000401ae3de                DISPLAYTEXT_new
                0x00000000401ae3ee                DISPLAYTEXT_free
                0x00000000401ae3fe                d2i_DIRECTORYSTRING
                0x00000000401ae40e                i2d_DIRECTORYSTRING
                0x00000000401ae41e                DIRECTORYSTRING_new
                0x00000000401ae42e                DIRECTORYSTRING_free
                0x00000000401ae43e                d2i_ASN1_SEQUENCE_ANY
                0x00000000401ae44e                i2d_ASN1_SEQUENCE_ANY
                0x00000000401ae45e                d2i_ASN1_SET_ANY
                0x00000000401ae46e                i2d_ASN1_SET_ANY
                0x00000000401ae4c5                asn1_get_choice_selector
                0x00000000401ae4d5                asn1_set_choice_selector
                0x00000000401ae4e9                asn1_do_lock
                0x00000000401ae548                asn1_enc_init
                0x00000000401ae56e                asn1_enc_free
                0x00000000401ae5ae                asn1_enc_save
                0x00000000401ae630                asn1_enc_restore
                0x00000000401ae6a8                asn1_get_field_ptr
                0x00000000401ae6c1                asn1_do_adb
                0x00000000401ae780                ERR_load_UI_strings
                0x00000000401ae7b5                ERR_load_X509V3_strings
                0x00000000401ae7f0                X509_issuer_and_serial_hash
                0x00000000401ae8c1                X509_CRL_match
                0x00000000401ae8d9                X509_get_issuer_name
                0x00000000401ae8e6                X509_get_subject_name
                0x00000000401ae8f3                X509_get_serialNumber
                0x00000000401ae900                X509_cmp
                0x00000000401ae94c                X509_NAME_cmp
                0x00000000401ae9c9                X509_issuer_and_serial_cmp
                0x00000000401ae9fd                X509_issuer_name_cmp
                0x00000000401aea16                X509_subject_name_cmp
                0x00000000401aea2f                X509_CRL_cmp
                0x00000000401aea48                X509_NAME_hash
                0x00000000401aeaae                X509_issuer_name_hash
                0x00000000401aeac0                X509_subject_name_hash
                0x00000000401aead2                X509_NAME_hash_old
                0x00000000401aeb3b                X509_issuer_name_hash_old
                0x00000000401aeb4d                X509_subject_name_hash_old
                0x00000000401aeb5f                X509_find_by_issuer_and_serial
                0x00000000401aebe2                X509_find_by_subject
                0x00000000401aec3c                X509_get_pubkey
                0x00000000401aec66                X509_get0_pubkey_bitstr
                0x00000000401aec83                X509_check_private_key
                0x00000000401aed3a                ERR_load_X509_strings
                0x00000000401aed6f                X509_NAME_oneline
                0x00000000401af552                X509_time_adj_ex
                0x00000000401af5a3                X509_time_adj
                0x00000000401af5b9                X509_cmp_time
                0x00000000401afa6e                X509_cmp_current_time
                0x00000000401b05ec                X509_gmtime_adj
                0x00000000401b05fc                X509_get_pubkey_parameters
                0x00000000401b0733                X509_verify_cert
                0x00000000401b10bf                X509_STORE_CTX_get_ex_new_index
                0x00000000401b10de                X509_STORE_CTX_set_ex_data
                0x00000000401b10f0                X509_STORE_CTX_get_ex_data
                0x00000000401b1102                X509_STORE_CTX_get_error
                0x00000000401b110e                X509_STORE_CTX_set_error
                0x00000000401b111a                X509_STORE_CTX_get_error_depth
                0x00000000401b1126                X509_STORE_CTX_get_current_cert
                0x00000000401b1133                X509_STORE_CTX_get_chain
                0x00000000401b1140                X509_STORE_CTX_get1_chain
                0x00000000401b11b1                X509_STORE_CTX_get0_current_issuer
                0x00000000401b11be                X509_STORE_CTX_get0_current_crl
                0x00000000401b11cb                X509_STORE_CTX_get0_parent_ctx
                0x00000000401b11d8                X509_STORE_CTX_set_cert
                0x00000000401b11e2                X509_STORE_CTX_set_chain
                0x00000000401b11ec                X509_STORE_CTX_set0_crls
                0x00000000401b11f6                X509_STORE_CTX_purpose_inherit
                0x00000000401b130d                X509_STORE_CTX_set_purpose
                0x00000000401b1324                X509_STORE_CTX_set_trust
                0x00000000401b133b                X509_STORE_CTX_new
                0x00000000401b13a2                X509_STORE_CTX_init
                0x00000000401b1704                X509_STORE_CTX_trusted_stack
                0x00000000401b1716                X509_STORE_CTX_cleanup
                0x00000000401b17b9                X509_STORE_CTX_free
                0x00000000401b17d9                X509_STORE_CTX_set_depth
                0x00000000401b17e8                X509_STORE_CTX_set_flags
                0x00000000401b17f7                X509_STORE_CTX_set_time
                0x00000000401b1808                X509_STORE_CTX_set_verify_cb
                0x00000000401b1812                X509_STORE_CTX_get0_policy_tree
                0x00000000401b181f                X509_STORE_CTX_get_explicit_policy
                0x00000000401b182b                X509_STORE_CTX_set_default
                0x00000000401b185c                X509_STORE_CTX_get0_param
                0x00000000401b1866                X509_STORE_CTX_set0_param
                0x00000000401b1b90                X509_VERIFY_PARAM_free
                0x00000000401b1c1f                X509_VERIFY_PARAM_new
                0x00000000401b1ca7                X509_VERIFY_PARAM_set1_name
                0x00000000401b1cda                X509_VERIFY_PARAM_set_flags
                0x00000000401b1d00                X509_VERIFY_PARAM_clear_flags
                0x00000000401b1d12                X509_VERIFY_PARAM_get_flags
                0x00000000401b1d1c                X509_VERIFY_PARAM_set_purpose
                0x00000000401b1d2b                X509_VERIFY_PARAM_set_trust
                0x00000000401b1d3a                X509_VERIFY_PARAM_set_depth
                0x00000000401b1d43                X509_VERIFY_PARAM_set_time
                0x00000000401b1d51                X509_VERIFY_PARAM_add0_policy
                0x00000000401b1d93                X509_VERIFY_PARAM_set1_policies
                0x00000000401b1e71                X509_VERIFY_PARAM_inherit
                0x00000000401b1fc5                X509_VERIFY_PARAM_set1
                0x00000000401b1fec                X509_VERIFY_PARAM_get_depth
                0x00000000401b1ff5                X509_VERIFY_PARAM_add0_table
                0x00000000401b207b                X509_VERIFY_PARAM_lookup
                0x00000000401b20d1                X509_VERIFY_PARAM_table_cleanup
                0x00000000401b2104                d2i_X509_ALGOR
                0x00000000401b2114                i2d_X509_ALGOR
                0x00000000401b2124                X509_ALGOR_new
                0x00000000401b2134                X509_ALGOR_free
                0x00000000401b2144                d2i_X509_ALGORS
                0x00000000401b2154                i2d_X509_ALGORS
                0x00000000401b2164                X509_ALGOR_dup
                0x00000000401b2177                X509_ALGOR_set0
                0x00000000401b221b                X509_ALGOR_get0
                0x00000000401b2256                X509_verify
                0x00000000401b2274                X509_REQ_verify
                0x00000000401b2292                NETSCAPE_SPKI_verify
                0x00000000401b22b0                X509_sign
                0x00000000401b22e7                X509_REQ_sign
                0x00000000401b2312                X509_CRL_sign
                0x00000000401b2349                NETSCAPE_SPKI_sign
                0x00000000401b2374                d2i_X509_bio
                0x00000000401b238a                i2d_X509_bio
                0x00000000401b23a0                d2i_X509_CRL_bio
                0x00000000401b23b6                i2d_X509_CRL_bio
                0x00000000401b23cc                d2i_PKCS7_bio
                0x00000000401b23e2                i2d_PKCS7_bio
                0x00000000401b23f8                d2i_X509_REQ_bio
                0x00000000401b240e                i2d_X509_REQ_bio
                0x00000000401b2424                d2i_RSAPrivateKey_bio
                0x00000000401b243a                i2d_RSAPrivateKey_bio
                0x00000000401b2450                d2i_RSAPublicKey_bio
                0x00000000401b2466                d2i_RSA_PUBKEY_bio
                0x00000000401b2481                i2d_RSAPublicKey_bio
                0x00000000401b2497                i2d_RSA_PUBKEY_bio
                0x00000000401b24ad                d2i_DSAPrivateKey_bio
                0x00000000401b24c8                i2d_DSAPrivateKey_bio
                0x00000000401b24de                d2i_DSA_PUBKEY_bio
                0x00000000401b24f9                i2d_DSA_PUBKEY_bio
                0x00000000401b250f                d2i_EC_PUBKEY_bio
                0x00000000401b252a                i2d_EC_PUBKEY_bio
                0x00000000401b2540                d2i_ECPrivateKey_bio
                0x00000000401b255b                i2d_ECPrivateKey_bio
                0x00000000401b2571                X509_pubkey_digest
                0x00000000401b25bf                X509_digest
                0x00000000401b25d8                X509_CRL_digest
                0x00000000401b25f1                X509_REQ_digest
                0x00000000401b260a                X509_NAME_digest
                0x00000000401b2623                PKCS7_ISSUER_AND_SERIAL_digest
                0x00000000401b263c                d2i_PKCS8_bio
                0x00000000401b2657                i2d_PKCS8_bio
                0x00000000401b266d                d2i_PKCS8_PRIV_KEY_INFO_bio
                0x00000000401b2688                i2d_PKCS8_PRIV_KEY_INFO_bio
                0x00000000401b269e                i2d_PKCS8PrivateKeyInfo_bio
                0x00000000401b26db                i2d_PrivateKey_bio
                0x00000000401b26f1                d2i_PrivateKey_bio
                0x00000000401b270c                i2d_PUBKEY_bio
                0x00000000401b2722                d2i_PUBKEY_bio
                0x00000000401b273d                d2i_X509_ATTRIBUTE
                0x00000000401b274d                i2d_X509_ATTRIBUTE
                0x00000000401b275d                X509_ATTRIBUTE_new
                0x00000000401b276d                X509_ATTRIBUTE_free
                0x00000000401b277d                X509_ATTRIBUTE_dup
                0x00000000401b2790                X509_ATTRIBUTE_create
                0x00000000401b2f4d                d2i_X509_REVOKED
                0x00000000401b2f5d                i2d_X509_REVOKED
                0x00000000401b2f6d                X509_REVOKED_new
                0x00000000401b2f7d                X509_REVOKED_free
                0x00000000401b2f8d                d2i_X509_CRL_INFO
                0x00000000401b2f9d                i2d_X509_CRL_INFO
                0x00000000401b2fad                X509_CRL_INFO_new
                0x00000000401b2fbd                X509_CRL_INFO_free
                0x00000000401b2fcd                d2i_X509_CRL
                0x00000000401b2fdd                i2d_X509_CRL
                0x00000000401b2fed                X509_CRL_new
                0x00000000401b2ffd                X509_CRL_free
                0x00000000401b300d                X509_CRL_dup
                0x00000000401b3020                X509_CRL_add0_revoked
                0x00000000401b308f                X509_CRL_verify
                0x00000000401b30aa                X509_CRL_get0_by_serial
                0x00000000401b30cb                X509_CRL_get0_by_cert
                0x00000000401b3127                X509_CRL_set_default_method
                0x00000000401b3140                X509_CRL_METHOD_new
                0x00000000401b318f                X509_CRL_METHOD_free
                0x00000000401b31a0                X509_CRL_set_meth_data
                0x00000000401b31aa                X509_CRL_get_meth_data
                0x00000000401b31b4                d2i_X509_EXTENSION
                0x00000000401b31c4                i2d_X509_EXTENSION
                0x00000000401b31d4                X509_EXTENSION_new
                0x00000000401b31e4                X509_EXTENSION_free
                0x00000000401b31f4                d2i_X509_EXTENSIONS
                0x00000000401b3204                i2d_X509_EXTENSIONS
                0x00000000401b3214                X509_EXTENSION_dup
                0x00000000401b33f0                X509_NAME_ENTRY_free
                0x00000000401b35bf                d2i_X509_NAME_ENTRY
                0x00000000401b35cf                i2d_X509_NAME_ENTRY
                0x00000000401b35df                X509_NAME_ENTRY_new
                0x00000000401b3add                X509_NAME_ENTRY_dup
                0x00000000401b3af0                d2i_X509_NAME
                0x00000000401b3b00                i2d_X509_NAME
                0x00000000401b3b10                X509_NAME_new
                0x00000000401b3b20                X509_NAME_free
                0x00000000401b3cc0                X509_NAME_dup
                0x00000000401b3cd3                X509_NAME_set
                0x00000000401b3d42                d2i_X509_PUBKEY
                0x00000000401b3d52                i2d_X509_PUBKEY
                0x00000000401b3d62                X509_PUBKEY_new
                0x00000000401b3d72                X509_PUBKEY_free
                0x00000000401b3d82                X509_PUBKEY_set
                0x00000000401b3e6d                X509_PUBKEY_get
                0x00000000401b3fd1                d2i_PUBKEY
                0x00000000401b403c                i2d_PUBKEY
                0x00000000401b408a                d2i_RSA_PUBKEY
                0x00000000401b410e                i2d_RSA_PUBKEY
                0x00000000401b418d                d2i_DSA_PUBKEY
                0x00000000401b4211                i2d_DSA_PUBKEY
                0x00000000401b4290                d2i_EC_PUBKEY
                0x00000000401b4314                i2d_EC_PUBKEY
                0x00000000401b4393                X509_PUBKEY_set0_param
                0x00000000401b4404                X509_PUBKEY_get0_param
                0x00000000401b446f                d2i_X509_REQ_INFO
                0x00000000401b447f                i2d_X509_REQ_INFO
                0x00000000401b448f                X509_REQ_INFO_new
                0x00000000401b449f                X509_REQ_INFO_free
                0x00000000401b44af                d2i_X509_REQ
                0x00000000401b44bf                i2d_X509_REQ
                0x00000000401b44cf                X509_REQ_new
                0x00000000401b44df                X509_REQ_free
                0x00000000401b44ef                X509_REQ_dup
                0x00000000401b4502                d2i_X509_SIG
                0x00000000401b4512                i2d_X509_SIG
                0x00000000401b4522                X509_SIG_new
                0x00000000401b4532                X509_SIG_free
                0x00000000401b4542                d2i_NETSCAPE_SPKAC
                0x00000000401b4552                i2d_NETSCAPE_SPKAC
                0x00000000401b4562                NETSCAPE_SPKAC_new
                0x00000000401b4572                NETSCAPE_SPKAC_free
                0x00000000401b4582                d2i_NETSCAPE_SPKI
                0x00000000401b4592                i2d_NETSCAPE_SPKI
                0x00000000401b45a2                NETSCAPE_SPKI_new
                0x00000000401b45b2                NETSCAPE_SPKI_free
                0x00000000401b46de                d2i_X509_CINF
                0x00000000401b46ee                i2d_X509_CINF
                0x00000000401b46fe                X509_CINF_new
                0x00000000401b470e                X509_CINF_free
                0x00000000401b471e                d2i_X509
                0x00000000401b472e                i2d_X509
                0x00000000401b473e                X509_new
                0x00000000401b474e                X509_free
                0x00000000401b475e                X509_dup
                0x00000000401b4771                X509_get_ex_new_index
                0x00000000401b4790                X509_set_ex_data
                0x00000000401b479f                X509_get_ex_data
                0x00000000401b47ae                d2i_X509_AUX
                0x00000000401b4810                i2d_X509_AUX
                0x00000000401b4850                d2i_X509_CERT_AUX
                0x00000000401b4860                i2d_X509_CERT_AUX
                0x00000000401b4870                X509_CERT_AUX_new
                0x00000000401b48c1                X509_CERT_AUX_free
                0x00000000401b48d1                X509_alias_set1
                0x00000000401b497e                X509_keyid_set1
                0x00000000401b4a2b                X509_alias_get0
                0x00000000401b4a6c                X509_keyid_get0
                0x00000000401b4aad                X509_add1_trust_object
                0x00000000401b4b0d                X509_add1_reject_object
                0x00000000401b4b70                X509_trust_clear
                0x00000000401b4baf                X509_reject_clear
                0x00000000401b4bf0                d2i_X509_CERT_PAIR
                0x00000000401b4c00                i2d_X509_CERT_PAIR
                0x00000000401b4c10                X509_CERT_PAIR_new
                0x00000000401b4c20                X509_CERT_PAIR_free
                0x00000000401b4c30                DES_xcbc_encrypt
                0x00000000401b5392                ERR_load_TS_strings
                0x00000000401b53c7                ERR_load_CMS_strings
                0x00000000401b544e                OBJ_find_sigid_algs
                0x00000000401b54d2                OBJ_find_sigid_by_algs
                0x00000000401b555b                OBJ_add_sigid
                0x00000000401b5660                OBJ_sigid_free
                0x00000000401b56d6                EVP_whirlpool
                0x00000000401b5701                EVP_PKEY_meth_find
                0x00000000401b577a                EVP_PKEY_meth_new
                0x00000000401b5897                EVP_PKEY_meth_free
                0x00000000401b58ae                EVP_PKEY_meth_add0
                0x00000000401b590c                EVP_PKEY_CTX_free
                0x00000000401b5a92                EVP_PKEY_CTX_new
                0x00000000401b5aa2                EVP_PKEY_CTX_new_id
                0x00000000401b5ab4                EVP_PKEY_CTX_dup
                0x00000000401b5bb2                EVP_PKEY_CTX_ctrl
                0x00000000401b5ca6                EVP_PKEY_CTX_ctrl_str
                0x00000000401b5d88                EVP_PKEY_CTX_get_operation
                0x00000000401b5d91                EVP_PKEY_CTX_set0_keygen_info
                0x00000000401b5d9e                EVP_PKEY_CTX_set_data
                0x00000000401b5da8                EVP_PKEY_CTX_get_data
                0x00000000401b5db2                EVP_PKEY_CTX_get0_pkey
                0x00000000401b5dbc                EVP_PKEY_CTX_get0_peerkey
                0x00000000401b5dc6                EVP_PKEY_CTX_set_app_data
                0x00000000401b5dd0                EVP_PKEY_CTX_get_app_data
                0x00000000401b5dda                EVP_PKEY_meth_set_init
                0x00000000401b5de4                EVP_PKEY_meth_set_copy
                0x00000000401b5dee                EVP_PKEY_meth_set_cleanup
                0x00000000401b5df8                EVP_PKEY_meth_set_paramgen
                0x00000000401b5e06                EVP_PKEY_meth_set_keygen
                0x00000000401b5e14                EVP_PKEY_meth_set_sign
                0x00000000401b5e22                EVP_PKEY_meth_set_verify
                0x00000000401b5e30                EVP_PKEY_meth_set_verify_recover
                0x00000000401b5e3e                EVP_PKEY_meth_set_signctx
                0x00000000401b5e4c                EVP_PKEY_meth_set_verifyctx
                0x00000000401b5e60                EVP_PKEY_meth_set_encrypt
                0x00000000401b5e74                EVP_PKEY_meth_set_decrypt
                0x00000000401b5e88                EVP_PKEY_meth_set_derive
                0x00000000401b5e9c                EVP_PKEY_meth_set_ctrl
                0x00000000401b5ed0                EVP_PKEY_asn1_get_count
                0x00000000401b5ef0                EVP_PKEY_asn1_get0
                0x00000000401b5f22                EVP_PKEY_asn1_find
                0x00000000401b5fca                EVP_PKEY_asn1_find_str
                0x00000000401b6052                EVP_PKEY_asn1_add0
                0x00000000401b60b0                EVP_PKEY_asn1_get0_info
                0x00000000401b6106                EVP_PKEY_get0_asn1
                0x00000000401b6110                EVP_PKEY_asn1_copy
                0x00000000401b61d8                EVP_PKEY_asn1_free
                0x00000000401b621a                EVP_PKEY_asn1_new
                0x00000000401b6384                EVP_PKEY_asn1_add_alias
                0x00000000401b63c1                EVP_PKEY_asn1_set_public
                0x00000000401b63e3                EVP_PKEY_asn1_set_private
                0x00000000401b63f5                EVP_PKEY_asn1_set_param
                0x00000000401b6420                EVP_PKEY_asn1_set_free
                0x00000000401b642d                EVP_PKEY_asn1_set_ctrl
                0x00000000401b6440                EVP_PKEY_sign_init
                0x00000000401b64b3                EVP_PKEY_sign
                0x00000000401b65ad                EVP_PKEY_verify_init
                0x00000000401b6620                EVP_PKEY_verify
                0x00000000401b6691                EVP_PKEY_verify_recover_init
                0x00000000401b6704                EVP_PKEY_verify_recover
                0x00000000401b67fe                EVP_PKEY_encrypt_init
                0x00000000401b6877                EVP_PKEY_encrypt
                0x00000000401b697a                EVP_PKEY_decrypt_init
                0x00000000401b69f3                EVP_PKEY_decrypt
                0x00000000401b6af6                EVP_PKEY_derive_init
                0x00000000401b6b6f                EVP_PKEY_derive_set_peer
                0x00000000401b6d4f                EVP_PKEY_derive
                0x00000000401b6f8c                ASN1_PCTX_new
                0x00000000401b6ff8                ASN1_PCTX_free
                0x00000000401b7003                ASN1_PCTX_get_flags
                0x00000000401b700c                ASN1_PCTX_set_flags
                0x00000000401b7015                ASN1_PCTX_get_nm_flags
                0x00000000401b701f                ASN1_PCTX_set_nm_flags
                0x00000000401b7029                ASN1_PCTX_get_cert_flags
                0x00000000401b7033                ASN1_PCTX_set_cert_flags
                0x00000000401b703d                ASN1_PCTX_get_oid_flags
                0x00000000401b7047                ASN1_PCTX_set_oid_flags
                0x00000000401b7051                ASN1_PCTX_get_str_flags
                0x00000000401b705b                ASN1_PCTX_set_str_flags
                0x00000000401b7065                asn1_template_print_ctx
                0x00000000401b7987                ASN1_item_print
                0x00000000401b7b5a                EVP_DigestSignInit
                0x00000000401b7b6b                EVP_DigestVerifyInit
                0x00000000401b7b7c                EVP_DigestSignFinal
                0x00000000401b7cc0                EVP_DigestVerifyFinal
                0x00000000401b7d90                WHIRLPOOL_Init
                0x00000000401b7daa                WHIRLPOOL_BitUpdate
                0x00000000401b80b5                WHIRLPOOL_Update
                0x00000000401b817d                WHIRLPOOL_Final
                0x00000000401b8287                WHIRLPOOL
                0x00000000401bb47c                DHparams_print
                0x00000000401bd2ce                whirlpool_block
                0x00000000401bddef                EVP_PKEY_paramgen_init
                0x00000000401bde62                EVP_PKEY_paramgen
                0x00000000401bdf1b                EVP_PKEY_keygen_init
                0x00000000401bdf8e                EVP_PKEY_keygen
                0x00000000401be047                EVP_PKEY_CTX_set_cb
                0x00000000401be051                EVP_PKEY_CTX_get_cb
                0x00000000401be05b                evp_pkey_set_cb_translate
                0x00000000401be073                EVP_PKEY_CTX_get_keygen_info
                0x00000000401be0a2                EVP_PKEY_new_mac_key
                0x00000000401be219                CMS_SignedData_init
                0x00000000401be22d                cms_set1_SignerIdentifier
                0x00000000401be342                cms_SignerIdentifier_get0_signer_id
                0x00000000401be393                cms_SignerIdentifier_cert_cmp
                0x00000000401be412                CMS_get0_SignerInfos
                0x00000000401be42d                CMS_get0_signers
                0x00000000401be4b5                CMS_SignerInfo_set1_signer_cert
                0x00000000401be516                CMS_SignerInfo_get0_signer_id
                0x00000000401be525                CMS_SignerInfo_cert_cmp
                0x00000000401be534                CMS_set1_signers_certs
                0x00000000401be661                CMS_SignerInfo_get0_algs
                0x00000000401be697                CMS_SignerInfo_sign
                0x00000000401be8f7                cms_SignedData_final
                0x00000000401beb2e                CMS_SignerInfo_verify
                0x00000000401bec59                cms_SignedData_init_bio
                0x00000000401bee1f                CMS_SignerInfo_verify_content
                0x00000000401beff5                CMS_add_smimecap
                0x00000000401bf04c                CMS_add_simple_smimecap
                0x00000000401bf190                CMS_add_standard_smimecap
                0x00000000401bf2a7                CMS_add1_signer
                0x00000000401bf7ea                CMS_get0_RecipientInfos
                0x00000000401bf805                CMS_RecipientInfo_type
                0x00000000401bf80d                CMS_EnvelopedData_create
                0x00000000401bf90b                CMS_add1_recipient_cert
                0x00000000401bfb02                CMS_RecipientInfo_ktri_get0_algs
                0x00000000401bfb67                CMS_RecipientInfo_ktri_get0_signer_id
                0x00000000401bfba5                CMS_RecipientInfo_ktri_cert_cmp
                0x00000000401bfbe3                CMS_RecipientInfo_set0_pkey
                0x00000000401bfc22                CMS_RecipientInfo_kekri_id_cmp
                0x00000000401bfc81                CMS_add0_recipient_key
                0x00000000401bfeff                CMS_RecipientInfo_kekri_get0_id
                0x00000000401bffa6                CMS_RecipientInfo_set0_key
                0x00000000401bffe9                CMS_RecipientInfo_decrypt
                0x00000000401c03bd                cms_EnvelopedData_init_bio
                0x00000000401c0860                EC_KEY_print
                0x00000000401c08bf                ECParameters_print
                0x00000000401c0921                ECPKParameters_print
                0x00000000401c1515                CMS_signed_get_attr_count
                0x00000000401c1524                CMS_signed_get_attr_by_NID
                0x00000000401c1533                CMS_signed_get_attr_by_OBJ
                0x00000000401c1542                CMS_signed_get_attr
                0x00000000401c1551                CMS_signed_delete_attr
                0x00000000401c1560                CMS_signed_add1_attr
                0x00000000401c1578                CMS_signed_add1_attr_by_OBJ
                0x00000000401c1590                CMS_signed_add1_attr_by_NID
                0x00000000401c15a8                CMS_signed_add1_attr_by_txt
                0x00000000401c15c0                CMS_signed_get0_data_by_OBJ
                0x00000000401c15cf                CMS_unsigned_get_attr_count
                0x00000000401c15de                CMS_unsigned_get_attr_by_NID
                0x00000000401c15ed                CMS_unsigned_get_attr_by_OBJ
                0x00000000401c15fc                CMS_unsigned_get_attr
                0x00000000401c160b                CMS_unsigned_delete_attr
                0x00000000401c161a                CMS_unsigned_add1_attr
                0x00000000401c1632                CMS_unsigned_add1_attr_by_OBJ
                0x00000000401c164a                CMS_unsigned_add1_attr_by_NID
                0x00000000401c1662                CMS_unsigned_add1_attr_by_txt
                0x00000000401c167a                CMS_unsigned_get0_data_by_OBJ
                0x00000000401c17fb                d2i_CMS_ContentInfo
                0x00000000401c180b                i2d_CMS_ContentInfo
                0x00000000401c181b                CMS_ContentInfo_new
                0x00000000401c182b                CMS_ContentInfo_free
                0x00000000401c183b                CMS_ContentInfo_print_ctx
                0x00000000401c184e                CMS_get0_type
                0x00000000401c1857                CMS_get0_content
                0x00000000401c1933                cms_content_bio
                0x00000000401c1983                CMS_dataInit
                0x00000000401c1a75                CMS_dataFinal
                0x00000000401c1bd9                CMS_get0_eContentType
                0x00000000401c1bf3                CMS_set1_eContentType
                0x00000000401c1c45                CMS_is_detached
                0x00000000401c1c66                CMS_set_detached
                0x00000000401c1cf3                cms_Data_create
                0x00000000401c1d2d                cms_DigestAlgorithm_set
                0x00000000401c1d70                cms_DigestAlgorithm_init_bio
                0x00000000401c1e69                cms_DigestAlgorithm_find_ctx
                0x00000000401c1f49                CMS_add0_CertificateChoices
                0x00000000401c1fc1                CMS_add0_cert
                0x00000000401c207f                CMS_add1_cert
                0x00000000401c20ba                CMS_add0_RevocationInfoChoice
                0x00000000401c2132                CMS_add0_crl
                0x00000000401c2165                CMS_add1_crl
                0x00000000401c21a0                CMS_get1_certs
                0x00000000401c2260                CMS_get1_crls
                0x00000000401c2459                cms_EncryptedContent_init_bio
                0x00000000401c2848                cms_EncryptedContent_init
                0x00000000401c28be                CMS_EncryptedData_set1_key
                0x00000000401c29b2                cms_EncryptedData_init_bio
                0x00000000401c29da                AES_wrap_key
                0x00000000401c2b04                AES_unwrap_key
                0x00000000401c2c5b                cms_DigestedData_create
                0x00000000401c2ce1                cms_DigestedData_init_bio
                0x00000000401c2cf4                cms_DigestedData_do_final
                0x00000000401c2e08                CMS_stream
                0x00000000401c2e86                d2i_CMS_bio
                0x00000000401c2e9c                i2d_CMS_bio
                0x00000000401c2eb2                PEM_read_bio_CMS
                0x00000000401c2ed3                PEM_write_bio_CMS
                0x00000000401c2f17                BIO_new_CMS
                0x00000000401c2f27                i2d_CMS_bio_stream
                0x00000000401c2f38                PEM_write_bio_CMS_stream
                0x00000000401c2f4f                SMIME_write_CMS
                0x00000000401c2fcd                SMIME_read_CMS
                0x00000000401c38e9                SMIME_read_ASN1
                0x00000000401c3d09                SMIME_crlf_copy
                0x00000000401c3e57                i2d_ASN1_bio_stream
                0x00000000401c3fc6                PEM_write_bio_ASN1_stream
                0x00000000401c403b                SMIME_write_ASN1
                0x00000000401c46e0                SMIME_text
                0x00000000401c4a14                BIO_new_NDEF
                0x00000000401c518e                BIO_f_asn1
                0x00000000401c5199                BIO_asn1_set_prefix
                0x00000000401c51be                BIO_asn1_get_prefix
                0x00000000401c51fe                BIO_asn1_set_suffix
                0x00000000401c5223                BIO_asn1_get_suffix
                0x00000000401c5270                chelp_snprintf
                0x00000000401c52ad                chelp_sprintf
                0x00000000401c52f4                chelp_print
                0x00000000401c530c                chelp_printf
                0x00000000401c5374                chelp_mod_64_32_32
                0x00000000401c5389                chelp_div_64_32_32
                0x00000000401c539c                chelp_div_64_32_64
                0x00000000401c53af                chelp_mul_64_64_64
                0x00000000401c53bc                BIO_printf
                0x00000000401c53f9                BIO_snprintf
                0x00000000401c542f                chelp_abort
                0x00000000401c5442                RAND_poll
                0x00000000401c5461                InitCryptoLibrary
                0x00000000401c54e0                chelp_malloc
                0x00000000401c54f7                chelp_realloc
                0x00000000401c5521                chelp_free
                0x00000000401c5532                chelp_swap
                0x00000000401c5564                chelp_qsort
                0x00000000401c5943                chelp_bsearch
                0x00000000401c5a1a                chelp_memchr
                0x00000000401c5a5f                chelp_memmove
                0x00000000401c5ae6                chelp_memcmp
                0x00000000401c5b56                chelp_memcpy
                0x00000000401c5b83                chelp_memset
                0x00000000401c5bb0                chelp_isupper
                0x00000000401c5bc3                chelp_islower
                0x00000000401c5bd6                chelp_toupper
                0x00000000401c5be2                chelp_tolower
                0x00000000401c5bee                chelp_isspace
                0x00000000401c5c0c                chelp_isdigit
                0x00000000401c5c1f                chelp_isxdigit
                0x00000000401c5c42                chelp_isalpha
                0x00000000401c5c58                chelp_isalnum
                0x00000000401c5c79                chelp_strtoul_ex
                0x00000000401c5e63                chelp_strtol
                0x00000000401c5e73                chelp_strtoul
                0x00000000401c5e83                chelp_strcpy
                0x00000000401c5eb3                chelp_strncpy
                0x00000000401c5f27                chelp_strcat
                0x00000000401c5f6c                chelp_strcmp
                0x00000000401c5fd0                chelp_strncmp
                0x00000000401c6129                chelp_stricmp
                0x00000000401c6169                chelp_strchr
                0x00000000401c61a7                chelp_strrchr
                0x00000000401c61d7                chelp_strlen
                0x00000000401c620b                chelp_strncasecmp
                0x00000000401c6262                decryptcfg
                0x00000000401c62e1                ASN1_BIT_STRING_set
                0x00000000401c62ec                i2c_ASN1_BIT_STRING
                0x00000000401c63eb                c2i_ASN1_BIT_STRING
                0x00000000401c655e                ASN1_BIT_STRING_set_bit
                0x00000000401c66cf                ASN1_BIT_STRING_get_bit
                0x00000000401c6725                ASN1_BIT_STRING_check
                0x00000000401c6790                d2i_ASN1_type_bytes
                0x00000000401c6937                i2d_ASN1_bytes
                0x00000000401c69df                d2i_ASN1_bytes
                0x00000000401c702d                ASN1_d2i_bio
                0x00000000401c7092                ASN1_item_d2i_bio
                0x00000000401c70fd                ASN1_digest
                0x00000000401c71b2                ASN1_item_digest
                0x00000000401c7225                ASN1_dup
                0x00000000401c72d4                ASN1_item_dup
                0x00000000401c7360                ASN1_ENUMERATED_set
                0x00000000401c747b                ASN1_ENUMERATED_get
                0x00000000401c7503                BN_to_ASN1_ENUMERATED
                0x00000000401c7603                ASN1_ENUMERATED_to_BN
                0x00000000401c7670                ASN1_GENERALIZEDTIME_check
                0x00000000401c78f0                ASN1_GENERALIZEDTIME_set_string
                0x00000000401c795d                ASN1_GENERALIZEDTIME_adj
                0x00000000401c7aac                ASN1_GENERALIZEDTIME_set
                0x00000000401c7ad0                ASN1_i2d_bio
                0x00000000401c7b8e                ASN1_item_i2d_bio
                0x00000000401c7c40                ASN1_INTEGER_dup
                0x00000000401c7c4b                ASN1_INTEGER_cmp
                0x00000000401c7c8b                i2c_ASN1_INTEGER
                0x00000000401c7e28                c2i_ASN1_INTEGER
                0x00000000401c8011                d2i_ASN1_UINTEGER
                0x00000000401c817f                ASN1_INTEGER_set
                0x00000000401c829a                ASN1_INTEGER_get
                0x00000000401c8326                BN_to_ASN1_INTEGER
                0x00000000401c843c                ASN1_INTEGER_to_BN
                0x00000000401c84a0                i2d_ASN1_OBJECT
                0x00000000401c8533                a2d_ASN1_OBJECT
                0x00000000401c8a44                i2t_ASN1_OBJECT
                0x00000000401c8a54                i2a_ASN1_OBJECT
                0x00000000401c8b26                ASN1_OBJECT_new
                0x00000000401c8b97                ASN1_OBJECT_free
                0x00000000401c8c10                c2i_ASN1_OBJECT
                0x00000000401c8db8                d2i_ASN1_OBJECT
                0x00000000401c8e44                ASN1_OBJECT_create
                0x00000000401c8e70                ASN1_OCTET_STRING_dup
                0x00000000401c8e7b                ASN1_OCTET_STRING_cmp
                0x00000000401c8e86                ASN1_OCTET_STRING_set
                0x00000000401c8ea0                ASN1_sign
                0x00000000401c9140                ASN1_item_sign
                0x00000000401c9b4c                X509_NAME_print_ex
                0x00000000401ca023                ASN1_STRING_print_ex
                0x00000000401ca039                ASN1_STRING_to_UTF8
                0x00000000401ca0c0                d2i_ASN1_TIME
                0x00000000401ca0d0                i2d_ASN1_TIME
                0x00000000401ca0e0                ASN1_TIME_new
                0x00000000401ca0f0                ASN1_TIME_free
                0x00000000401ca100                ASN1_TIME_adj
                0x00000000401ca1b5                ASN1_TIME_set
                0x00000000401ca1ca                ASN1_TIME_check
                0x00000000401ca1ee                ASN1_TIME_to_generalizedtime
                0x00000000401ca2f6                ASN1_TIME_set_string
                0x00000000401ca370                ASN1_TYPE_get
                0x00000000401ca389                ASN1_TYPE_set
                0x00000000401ca3e2                ASN1_TYPE_set1
                0x00000000401ca460                ASN1_TYPE_cmp
                0x00000000401ca4c0                ASN1_UTCTIME_check
                0x00000000401ca6ec                ASN1_UTCTIME_set_string
                0x00000000401ca759                ASN1_UTCTIME_adj
                0x00000000401ca8d3                ASN1_UTCTIME_set
                0x00000000401ca8e8                ASN1_UTCTIME_cmp_time_t
                0x00000000401caa70                UTF8_getc
                0x00000000401cadd0                UTF8_putc
                0x00000000401cb040                ASN1_verify
                0x00000000401cb19e                ASN1_item_verify
                0x00000000401cb390                AES_cbc_encrypt
                0x00000000401cb3b3                AES_cfb128_encrypt
                0x00000000401cb3d1                AES_cfb1_encrypt
                0x00000000401cb3ef                AES_cfb8_encrypt
                0x00000000401cb410                AES_ecb_encrypt
                0x00000000401cb427                AES_ofb128_encrypt
                0x00000000401cb43e                ERR_load_ASN1_strings
                0x00000000401cb514                ASN1_check_infinite_end
                0x00000000401cb51f                ASN1_const_check_infinite_end
                0x00000000401cb52a                ASN1_get_object
                0x00000000401cb6ce                ASN1_put_object
                0x00000000401cb7fd                ASN1_put_eoc
                0x00000000401cb819                ASN1_object_size
                0x00000000401cb84d                asn1_Finish
                0x00000000401cb858                asn1_const_Finish
                0x00000000401cb863                asn1_GetSequence
                0x00000000401cb900                ASN1_STRING_set
                0x00000000401cb9ec                ASN1_STRING_copy
                0x00000000401cba2b                ASN1_STRING_set0
                0x00000000401cba61                ASN1_STRING_type_new
                0x00000000401cbacb                ASN1_STRING_new
                0x00000000401cbadb                ASN1_STRING_free
                0x00000000401cbb0f                ASN1_STRING_dup
                0x00000000401cbb60                ASN1_STRING_cmp
                0x00000000401cbb99                asn1_add_error
                0x00000000401cbc01                ASN1_STRING_length
                0x00000000401cbc09                ASN1_STRING_length_set
                0x00000000401cbc11                ASN1_STRING_type
                0x00000000401cbc1a                ASN1_STRING_data
                0x00000000401cbc30                ASN1_tag2str
                0x00000000401cc7f9                ASN1_parse
                0x00000000401cc825                ASN1_parse_dump
                0x00000000401cc864                BIO_dump_indent_cb
                0x00000000401ccc5c                BIO_dump_cb
                0x00000000401ccc6d                BIO_dump
                0x00000000401ccc85                BIO_dump_indent
                0x00000000401cd658                BIO_f_buffer
                0x00000000401cd670                BF_cfb64_encrypt
                0x00000000401cd859                BF_options
                0x00000000401cd864                BF_ecb_encrypt
                0x00000000401cd913                BF_encrypt
                0x00000000401cdd11                BF_decrypt
                0x00000000401ce10f                BF_cbc_encrypt
                0x00000000401ce6c2                BF_ofb64_encrypt
                0x00000000401ce852                BF_set_key
                0x00000000401cf5e4                BIO_f_base64
                0x00000000401cfca2                BIO_f_cipher
                0x00000000401cfcad                BIO_set_cipher
                0x00000000401cfd50                ERR_load_BIO_strings
                0x00000000401d00e7                BIO_f_md
                0x00000000401d0100                BN_uadd
                0x00000000401d0246                BN_usub
                0x00000000401d044d                BN_add
                0x00000000401d04da                BN_sub
                0x00000000401d05bf                bn_mul_add_words
                0x00000000401d080a                bn_mul_words
                0x00000000401d0a16                bn_sqr_words
                0x00000000401d0b58                bn_div_words
                0x00000000401d0c87                bn_add_words
                0x00000000401d0d79                bn_sub_words
                0x00000000401d0e8a                bn_mul_comba8
                0x00000000401d284c                bn_mul_comba4
                0x00000000401d2ea1                bn_sqr_comba8
                0x00000000401d3f9e                bn_sqr_comba4
                0x00000000401d43d0                BN_BLINDING_free
                0x00000000401d4427                BN_BLINDING_new
                0x00000000401d4501                BN_BLINDING_invert_ex
                0x00000000401d455e                BN_BLINDING_invert
                0x00000000401d4574                BN_BLINDING_get_thread_id
                0x00000000401d457e                BN_BLINDING_set_thread_id
                0x00000000401d4588                BN_BLINDING_thread_id
                0x00000000401d4592                BN_BLINDING_get_flags
                0x00000000401d459c                BN_BLINDING_set_flags
                0x00000000401d45a6                BN_BLINDING_create_param
                0x00000000401d4737                BN_BLINDING_update
                0x00000000401d4829                BN_BLINDING_convert_ex
                0x00000000401d48e3                BN_BLINDING_convert
                0x00000000401d48f9                BN_CTX_init
                0x00000000401d4974                BN_CTX_new
                0x00000000401d4a09                BN_CTX_free
                0x00000000401d4a8b                BN_CTX_start
                0x00000000401d4b5b                BN_CTX_end
                0x00000000401d4bca                BN_CTX_get
                0x00000000401d4d11                BN_div
                0x00000000401d5789                ERR_load_BN_strings
                0x00000000401d589e                BN_exp
                0x00000000401d5a25                BN_mod_exp_recp
                0x00000000401d5ee4                BN_mod_exp_mont_consttime
                0x00000000401d64b1                BN_mod_exp_mont
                0x00000000401d6a6f                BN_mod_exp_mont_word
                0x00000000401d6ef3                BN_mod_exp
                0x00000000401d6f41                BN_mod_exp_simple
                0x00000000401d73e0                BN_gcd
                0x00000000401d75f5                BN_mod_inverse
                0x00000000401d8000                BN_nnmod
                0x00000000401d8056                BN_mod_add
                0x00000000401d8091                BN_mod_add_quick
                0x00000000401d80d0                BN_mod_sub
                0x00000000401d810b                BN_mod_sub_quick
                0x00000000401d813f                BN_mod_mul
                0x00000000401d81f0                BN_mod_sqr
                0x00000000401d8233                BN_mod_lshift1
                0x00000000401d826e                BN_mod_lshift1_quick
                0x00000000401d82ad                BN_mod_lshift_quick
                0x00000000401d839a                BN_mod_lshift
                0x00000000401d878e                BN_mod_mul_montgomery
                0x00000000401d883c                BN_from_montgomery
                0x00000000401d88b4                BN_MONT_CTX_init
                0x00000000401d88fd                BN_MONT_CTX_new
                0x00000000401d893b                BN_MONT_CTX_free
                0x00000000401d897c                BN_MONT_CTX_set
                0x00000000401d8b66                BN_MONT_CTX_copy
                0x00000000401d8be6                BN_MONT_CTX_set_locked
                0x00000000401d8cd0                bn_sub_part_words
                0x00000000401d8f28                bn_add_part_words
                0x00000000401d92a5                bn_mul_normal
                0x00000000401d93e1                bn_mul_recursive
                0x00000000401d9865                bn_mul_high
                0x00000000401d9d05                bn_mul_part_recursive
                0x00000000401da1cd                BN_mul
                0x00000000401da500                bn_mul_low_normal
                0x00000000401da5d1                bn_mul_low_recursive
                0x00000000401da7f9                BN_GENCB_call
                0x00000000401da849                BN_is_prime_fasttest_ex
                0x00000000401dad48                BN_generate_prime_ex
                0x00000000401db320                BN_is_prime_ex
                0x00000000401db333                BN_RECP_CTX_init
                0x00000000401db362                BN_RECP_CTX_new
                0x00000000401db3a0                BN_RECP_CTX_free
                0x00000000401db3d4                BN_RECP_CTX_set
                0x00000000401db41c                BN_reciprocal
                0x00000000401db4ab                BN_div_recp
                0x00000000401db751                BN_mod_mul_reciprocal
                0x00000000401db80a                BN_lshift1
                0x00000000401db8d4                BN_rshift1
                0x00000000401db9ab                BN_lshift
                0x00000000401dbb0e                BN_rshift
                0x00000000401dbc90                bn_sqr_normal
                0x00000000401dbd6e                bn_sqr_recursive
                0x00000000401dbf2a                BN_sqr
                0x00000000401dc1e6                BIO_s_null
                0x00000000401dc1f1                ERR_load_BUF_strings
                0x00000000401dc230                CAST_cfb64_encrypt
                0x00000000401dc419                CAST_ecb_encrypt
                0x00000000401dc4c8                CAST_encrypt
                0x00000000401dc930                CAST_decrypt
                0x00000000401dcd7f                CAST_cbc_encrypt
                0x00000000401dd332                CAST_ofb64_encrypt
                0x00000000401dd4c2                CAST_set_key
                0x00000000401ddf40                DES_ede3_cfb64_encrypt
                0x00000000401de174                DES_ede3_cfb_encrypt
                0x00000000401de986                DES_cfb64_encrypt
                0x00000000401debab                DES_cfb_encrypt
                0x00000000401df1d9                ERR_load_COMP_strings
                0x00000000401df20e                ERR_load_CONF_strings
                0x00000000401df243                ERR_load_CRYPTO_strings
                0x00000000401df278                d2i_PrivateKey
                0x00000000401df3d8                d2i_AutoPrivateKey
                0x00000000401df534                d2i_DHparams
                0x00000000401df544                i2d_DHparams
                0x00000000401df554                DHparams_dup
                0x00000000401df570                DH_check
                0x00000000401df69b                DH_check_pub_key
                0x00000000401df72b                ERR_load_DH_strings
                0x00000000401df760                DH_generate_parameters_ex
                0x00000000401df95d                EVP_MD_CTX_init
                0x00000000401df972                EVP_MD_CTX_create
                0x00000000401df9a9                EVP_DigestInit_ex
                0x00000000401dfa88                EVP_DigestInit
                0x00000000401dfaaf                EVP_DigestUpdate
                0x00000000401dfabb                EVP_DigestFinal_ex
                0x00000000401dfb4c                EVP_MD_CTX_cleanup
                0x00000000401dfbe9                EVP_DigestFinal
                0x00000000401dfc0b                EVP_MD_CTX_copy_ex
                0x00000000401dfd48                EVP_MD_CTX_copy
                0x00000000401dfd6a                EVP_Digest
                0x00000000401dfe02                EVP_MD_CTX_destroy
                0x00000000401dfedd                d2i_DSA_SIG
                0x00000000401dfeed                i2d_DSA_SIG
                0x00000000401dfefd                DSA_SIG_new
                0x00000000401dff0d                DSA_SIG_free
                0x00000000401dff1d                d2i_DSAPrivateKey
                0x00000000401dff2d                i2d_DSAPrivateKey
                0x00000000401dff3d                d2i_DSAparams
                0x00000000401dff4d                i2d_DSAparams
                0x00000000401dff5d                d2i_DSAPublicKey
                0x00000000401dff6d                i2d_DSAPublicKey
                0x00000000401dff7d                DSAparams_dup
                0x00000000401dff90                ERR_load_DSA_strings
                0x00000000401dffd0                dsa_builtin_paramgen
                0x00000000401e0897                DSA_generate_parameters_ex
                0x00000000401e0930                DSA_generate_key
                0x00000000401e0a8c                DSA_set_default_method
                0x00000000401e0a99                DSA_get_default_method
                0x00000000401e0ac4                DSA_set_method
                0x00000000401e0afd                DSA_new_method
                0x00000000401e0c09                DSA_new
                0x00000000401e0c19                DSA_free
                0x00000000401e0ce8                DSA_up_ref
                0x00000000401e0d15                DSA_size
                0x00000000401e0d6a                DSA_get_ex_new_index
                0x00000000401e0d89                DSA_set_ex_data
                0x00000000401e0d98                DSA_get_ex_data
                0x00000000401e0da7                DSA_dup_DH
                0x00000000401e1757                DSA_OpenSSL
                0x00000000401e1762                DSA_do_sign
                0x00000000401e176f                DSA_sign
                0x00000000401e17e5                DSA_sign_setup
                0x00000000401e17f2                DSA_do_verify
                0x00000000401e17ff                DSA_verify
                0x00000000401e1879                ERR_load_DSO_strings
                0x00000000401e21d3                EC_GROUP_get_basis_type
                0x00000000401e223a                EC_GROUP_get_trinomial_basis
                0x00000000401e22bc                EC_GROUP_get_pentanomial_basis
                0x00000000401e237f                X9_62_PENTANOMIAL_new
                0x00000000401e238f                X9_62_PENTANOMIAL_free
                0x00000000401e239f                X9_62_CHARACTERISTIC_TWO_new
                0x00000000401e23af                X9_62_CHARACTERISTIC_TWO_free
                0x00000000401e23bf                ECPARAMETERS_new
                0x00000000401e23cf                ECPARAMETERS_free
                0x00000000401e23df                d2i_ECPKPARAMETERS
                0x00000000401e23ef                i2d_ECPKPARAMETERS
                0x00000000401e23ff                ECPKPARAMETERS_new
                0x00000000401e240f                ECPKPARAMETERS_free
                0x00000000401e2ff9                d2i_EC_PRIVATEKEY
                0x00000000401e3009                i2d_EC_PRIVATEKEY
                0x00000000401e3019                EC_PRIVATEKEY_new
                0x00000000401e3029                EC_PRIVATEKEY_free
                0x00000000401e3039                d2i_ECPKParameters
                0x00000000401e30f4                i2d_ECPKParameters
                0x00000000401e3186                d2i_ECPrivateKey
                0x00000000401e343d                i2d_ECPrivateKey
                0x00000000401e37b9                i2d_ECParameters
                0x00000000401e37f1                d2i_ECParameters
                0x00000000401e38e0                o2i_ECPublicKey
                0x00000000401e39d0                i2o_ECPublicKey
                0x00000000401e3b30                EC_GROUP_new_by_curve_name
                0x00000000401e4042                EC_get_builtin_curves
                0x00000000401e4093                EC_GROUP_new_curve_GFp
                0x00000000401e4181                EC_GROUP_new_curve_GF2m
                0x00000000401e41f4                ERR_load_EC_strings
                0x00000000401e4230                EC_KEY_new
                0x00000000401e42b0                EC_KEY_free
                0x00000000401e4332                EC_KEY_new_by_curve_name
                0x00000000401e4378                EC_KEY_copy
                0x00000000401e451f                EC_KEY_dup
                0x00000000401e4566                EC_KEY_up_ref
                0x00000000401e4593                EC_KEY_generate_key
                0x00000000401e4772                EC_KEY_check_key
                0x00000000401e4a13                EC_KEY_get0_group
                0x00000000401e4a1d                EC_KEY_set_group
                0x00000000401e4a52                EC_KEY_get0_private_key
                0x00000000401e4a5c                EC_KEY_set_private_key
                0x00000000401e4a91                EC_KEY_get0_public_key
                0x00000000401e4a9b                EC_KEY_set_public_key
                0x00000000401e4ad4                EC_KEY_get_enc_flags
                0x00000000401e4add                EC_KEY_set_enc_flags
                0x00000000401e4ae6                EC_KEY_get_conv_form
                0x00000000401e4aef                EC_KEY_set_conv_form
                0x00000000401e4b07                EC_KEY_get_key_method_data
                0x00000000401e4b16                EC_KEY_insert_key_method_data
                0x00000000401e4ba3                EC_KEY_set_asn1_flag
                0x00000000401e4bb8                EC_KEY_precompute_mult
                0x00000000401e4be0                EC_GROUP_new
                0x00000000401e4cf8                EC_GROUP_method_of
                0x00000000401e4d01                EC_METHOD_get_field_type
                0x00000000401e4d09                EC_GROUP_get0_generator
                0x00000000401e4d13                EC_GROUP_get_order
                0x00000000401e4d48                EC_GROUP_get_cofactor
                0x00000000401e4d7d                EC_GROUP_set_curve_name
                0x00000000401e4d86                EC_GROUP_get_curve_name
                0x00000000401e4d8f                EC_GROUP_set_asn1_flag
                0x00000000401e4d98                EC_GROUP_get_asn1_flag
                0x00000000401e4da1                EC_GROUP_set_point_conversion_form
                0x00000000401e4daa                EC_GROUP_get_point_conversion_form
                0x00000000401e4db3                EC_GROUP_set_seed
                0x00000000401e4e38                EC_GROUP_get0_seed
                0x00000000401e4e42                EC_GROUP_get_seed_len
                0x00000000401e4e4c                EC_GROUP_set_curve_GFp
                0x00000000401e4e86                EC_GROUP_get_curve_GFp
                0x00000000401e4ec1                EC_GROUP_set_curve_GF2m
                0x00000000401e4efb                EC_GROUP_get_curve_GF2m
                0x00000000401e4f35                EC_GROUP_get_degree
                0x00000000401e4f71                EC_GROUP_check_discriminant
                0x00000000401e4fab                EC_EX_DATA_set_data
                0x00000000401e507c                EC_EX_DATA_get_data
                0x00000000401e50b5                EC_EX_DATA_free_data
                0x00000000401e5104                EC_EX_DATA_clear_free_data
                0x00000000401e5153                EC_EX_DATA_free_all_data
                0x00000000401e519f                EC_EX_DATA_clear_free_all_data
                0x00000000401e51eb                EC_POINT_new
                0x00000000401e52be                EC_POINT_free
                0x00000000401e52ec                EC_GROUP_free
                0x00000000401e5351                EC_POINT_clear_free
                0x00000000401e5399                EC_GROUP_clear_free
                0x00000000401e5425                EC_POINT_copy
                0x00000000401e5491                EC_GROUP_copy
                0x00000000401e569d                EC_GROUP_dup
                0x00000000401e56f1                EC_GROUP_set_generator
                0x00000000401e57c7                EC_POINT_dup
                0x00000000401e581b                EC_POINT_method_of
                0x00000000401e5824                EC_POINT_set_to_infinity
                0x00000000401e5886                EC_POINT_set_Jprojective_coordinates_GFp
                0x00000000401e58ec                EC_POINT_get_Jprojective_coordinates_GFp
                0x00000000401e5952                EC_POINT_set_affine_coordinates_GFp
                0x00000000401e59bb                EC_POINT_set_affine_coordinates_GF2m
                0x00000000401e5a24                EC_POINT_get_affine_coordinates_GFp
                0x00000000401e5a91                EC_POINT_get_affine_coordinates_GF2m
                0x00000000401e5afa                EC_POINT_set_compressed_coordinates_GFp
                0x00000000401e5b63                EC_POINT_set_compressed_coordinates_GF2m
                0x00000000401e5bcc                EC_POINT_point2oct
                0x00000000401e5c35                EC_POINT_oct2point
                0x00000000401e5ca1                EC_POINT_add
                0x00000000401e5d14                EC_POINT_dbl
                0x00000000401e5d81                EC_POINT_invert
                0x00000000401e5deb                EC_POINT_is_at_infinity
                0x00000000401e5e51                EC_POINT_is_on_curve
                0x00000000401e5eb9                EC_POINT_cmp
                0x00000000401e5f26                EC_GROUP_cmp
                0x00000000401e6191                EC_POINT_make_affine
                0x00000000401e61f9                EC_POINTs_make_affine
                0x00000000401e6283                EC_POINTs_mul
                0x00000000401e62b5                EC_POINT_mul
                0x00000000401e62ea                EC_GROUP_precompute_mult
                0x00000000401e6317                EC_GROUP_have_precompute_mult
                0x00000000401e674c                ec_wNAF_mul
                0x00000000401e7599                ec_wNAF_precompute_mult
                0x00000000401e7b9b                ec_wNAF_have_precompute_mult
                0x00000000401e7bc2                EC_POINT_point2bn
                0x00000000401e7c7b                EC_POINT_bn2point
                0x00000000401e7d8a                EC_POINT_point2hex
                0x00000000401e7ea8                EC_POINT_hex2point
                0x00000000401e7f07                ERR_load_ECDH_strings
                0x00000000401e7f3c                ECDH_compute_key
                0x00000000401e7fd9                ECDH_set_default_method
                0x00000000401e7fe6                ECDH_get_default_method
                0x00000000401e80b1                ecdh_check
                0x00000000401e810a                ECDH_set_method
                0x00000000401e8137                ECDH_get_ex_new_index
                0x00000000401e8156                ECDH_set_ex_data
                0x00000000401e8187                ECDH_get_ex_data
                0x00000000401e857c                ECDH_OpenSSL
                0x00000000401e8587                ec_GFp_mont_group_init
                0x00000000401e85b5                ec_GFp_mont_group_finish
                0x00000000401e8608                ec_GFp_mont_group_clear_finish
                0x00000000401e865b                ec_GFp_mont_group_copy
                0x00000000401e873f                ec_GFp_mont_field_mul
                0x00000000401e8788                ec_GFp_mont_field_sqr
                0x00000000401e87d1                ec_GFp_mont_field_encode
                0x00000000401e881e                ec_GFp_mont_group_set_curve
                0x00000000401e89bf                ec_GFp_mont_field_decode
                0x00000000401e8a02                ec_GFp_mont_field_set_to_one
                0x00000000401e8a4c                EC_GFp_mont_method
                0x00000000401e8a57                ec_GFp_nist_group_copy
                0x00000000401e8a70                ec_GFp_nist_group_set_curve
                0x00000000401e8bec                ec_GFp_nist_field_mul
                0x00000000401e8cc4                ec_GFp_nist_field_sqr
                0x00000000401e8d84                EC_GFp_nist_method
                0x00000000401e8d90                ec_GFp_simple_is_at_infinity
                0x00000000401e8da0                ec_GFp_simple_group_init
                0x00000000401e8de3                ec_GFp_simple_point_init
                0x00000000401e8e1d                ec_GFp_simple_group_finish
                0x00000000401e8e51                ec_GFp_simple_point_finish
                0x00000000401e8e7f                ec_GFp_simple_group_clear_finish
                0x00000000401e8eb3                ec_GFp_simple_point_clear_finish
                0x00000000401e8ee8                ec_GFp_simple_group_copy
                0x00000000401e8f64                ec_GFp_simple_point_copy
                0x00000000401e8fce                ec_GFp_simple_group_get_degree
                0x00000000401e8fdd                ec_GFp_simple_group_set_curve
                0x00000000401e91c1                ec_GFp_simple_group_get_curve
                0x00000000401e931c                ec_GFp_simple_set_Jprojective_coordinates_GFp
                0x00000000401e9519                ec_GFp_simple_get_Jprojective_coordinates_GFp
                0x00000000401e967f                ec_GFp_simple_field_sqr
                0x00000000401e9697                ec_GFp_simple_field_mul
                0x00000000401e96b2                ec_GFp_simple_group_check_discriminant
                0x00000000401e98f3                ec_GFp_simple_point_set_to_infinity
                0x00000000401e9913                ec_GFp_simple_point_set_affine_coordinates
                0x00000000401e998e                ec_GFp_simple_cmp
                0x00000000401e9c5b                ec_GFp_simple_point_get_affine_coordinates
                0x00000000401e9fb1                ec_GFp_simple_invert
                0x00000000401e9fec                ec_GFp_simple_set_compressed_coordinates
                0x00000000401ea485                ec_GFp_simple_make_affine
                0x00000000401ea59b                ec_GFp_simple_point2oct
                0x00000000401ea904                ec_GFp_simple_is_on_curve
                0x00000000401eac2a                ec_GFp_simple_oct2point
                0x00000000401eaf9f                ec_GFp_simple_add
                0x00000000401eb692                ec_GFp_simple_dbl
                0x00000000401ebc1c                ec_GFp_simple_points_make_affine
                0x00000000401ec1a2                EC_GFp_simple_method
                0x00000000401ec1ad                ERR_load_ECDSA_strings
                0x00000000401ec229                ECDSA_set_default_method
                0x00000000401ec236                ECDSA_get_default_method
                0x00000000401ec301                ecdsa_check
                0x00000000401ec35a                ECDSA_set_method
                0x00000000401ec387                ECDSA_size
                0x00000000401ec441                ECDSA_get_ex_new_index
                0x00000000401ec460                ECDSA_set_ex_data
                0x00000000401ec491                ECDSA_get_ex_data
                0x00000000401ed1c6                ECDSA_OpenSSL
                0x00000000401ed1d1                ECDSA_do_sign_ex
                0x00000000401ed22a                ECDSA_do_sign
                0x00000000401ed242                ECDSA_sign_ex
                0x00000000401ed2c0                ECDSA_sign
                0x00000000401ed2e2                ECDSA_sign_setup
                0x00000000401ed327                ECDSA_do_verify
                0x00000000401ed36f                ECDSA_verify
                0x00000000401ed3f0                EVP_EncodeInit
                0x00000000401ed40a                EVP_EncodeBlock
                0x00000000401ed54e                EVP_EncodeUpdate
                0x00000000401ed67a                EVP_EncodeFinal
                0x00000000401ed6c5                EVP_DecodeInit
                0x00000000401ed6e6                EVP_DecodeBlock
                0x00000000401ed893                EVP_DecodeUpdate
                0x00000000401edbaa                EVP_DecodeFinal
                0x00000000401edc00                EVP_set_pw_prompt
                0x00000000401edc2c                EVP_get_pw_prompt
                0x00000000401edc47                EVP_read_pw_string_min
                0x00000000401edd17                EVP_read_pw_string
                0x00000000401edd2f                EVP_BytesToKey
                0x00000000401ee00d                EVP_PBE_alg_add_type
                0x00000000401ee0bd                EVP_PBE_alg_add
                0x00000000401ee117                EVP_PBE_find
                0x00000000401ee1d3                EVP_PBE_CipherInit
                0x00000000401ee3a2                EVP_PBE_cleanup
                0x00000000401ee3c4                EVP_PKCS82PKEY
                0x00000000401ee507                EVP_PKEY2PKCS8_broken
                0x00000000401ee60a                EVP_PKEY2PKCS8
                0x00000000401ee61a                PKCS8_set_broken
                0x00000000401ee66d                EVP_PKEY_get_attr_count
                0x00000000401ee67c                EVP_PKEY_get_attr_by_NID
                0x00000000401ee68b                EVP_PKEY_get_attr_by_OBJ
                0x00000000401ee69a                EVP_PKEY_get_attr
                0x00000000401ee6a9                EVP_PKEY_delete_attr
                0x00000000401ee6b8                EVP_PKEY_add1_attr
                0x00000000401ee6d0                EVP_PKEY_add1_attr_by_OBJ
                0x00000000401ee6e8                EVP_PKEY_add1_attr_by_NID
                0x00000000401ee700                EVP_PKEY_add1_attr_by_txt
                0x00000000401ee720                HMAC_Init_ex
                0x00000000401ee922                HMAC_Update
                0x00000000401ee931                HMAC_Final
                0x00000000401ee9a8                HMAC_CTX_init
                0x00000000401ee9d6                HMAC_Init
                0x00000000401eea1c                HMAC_CTX_copy
                0x00000000401eea96                HMAC_CTX_cleanup
                0x00000000401eead6                HMAC
                0x00000000401eeb95                HMAC_CTX_set_flags
                0x00000000401eebd0                i2d_PrivateKey
                0x00000000401ef5c5                RAND_SSLeay
                0x00000000401ef5fe                d2i_NETSCAPE_CERT_SEQUENCE
                0x00000000401ef60e                i2d_NETSCAPE_CERT_SEQUENCE
                0x00000000401ef61e                NETSCAPE_CERT_SEQUENCE_new
                0x00000000401ef62e                NETSCAPE_CERT_SEQUENCE_free
                0x00000000401ef63e                OPENSSL_gmtime
                0x00000000401ef649                OPENSSL_gmtime_adj
                0x00000000401ef8e9                PKCS12_PBE_add
                0x00000000401ef8ef                PKCS12_PBE_keyivgen
                0x00000000401efb00                PKCS12_key_gen_uni
                0x00000000401f0017                PKCS12_key_gen_asc
                0x00000000401f00e7                PKCS8_decrypt
                0x00000000401f0109                OPENSSL_asc2uni
                0x00000000401f019e                OPENSSL_uni2asc
                0x00000000401f0224                i2d_PKCS12_bio
                0x00000000401f023a                d2i_PKCS12_bio
                0x00000000401f0250                PKCS12_x5092certbag
                0x00000000401f026a                PKCS12_x509crl2certbag
                0x00000000401f0284                PKCS12_certbag2x509
                0x00000000401f02db                PKCS12_certbag2x509crl
                0x00000000401f0332                PKCS5_PBE_add
                0x00000000401f0338                PKCS5_PBE_keyivgen
                0x00000000401f0618                PKCS5_PBKDF2_HMAC
                0x00000000401f0817                PKCS5_PBKDF2_HMAC_SHA1
                0x00000000401f0872                PKCS5_v2_PBE_keyivgen
                0x00000000401f0c62                d2i_PBEPARAM
                0x00000000401f0c72                i2d_PBEPARAM
                0x00000000401f0c82                PBEPARAM_new
                0x00000000401f0c92                PBEPARAM_free
                0x00000000401f0ca2                PKCS5_pbe_set0_algor
                0x00000000401f0e4d                PKCS5_pbe_set
                0x00000000401f0ed7                d2i_PBE2PARAM
                0x00000000401f0ee7                i2d_PBE2PARAM
                0x00000000401f0ef7                PBE2PARAM_new
                0x00000000401f0f07                PBE2PARAM_free
                0x00000000401f0f17                d2i_PBKDF2PARAM
                0x00000000401f0f27                i2d_PBKDF2PARAM
                0x00000000401f0f37                PBKDF2PARAM_new
                0x00000000401f0f47                PBKDF2PARAM_free
                0x00000000401f0f57                PKCS5_pbe2_set_iv
                0x00000000401f1473                PKCS5_pbe2_set
                0x00000000401f14c2                d2i_PKCS8_PRIV_KEY_INFO
                0x00000000401f14d2                i2d_PKCS8_PRIV_KEY_INFO
                0x00000000401f14e2                PKCS8_PRIV_KEY_INFO_new
                0x00000000401f14f2                PKCS8_PRIV_KEY_INFO_free
                0x00000000401f1502                PKCS8_pkey_set0
                0x00000000401f15bb                PKCS8_pkey_get0
                0x00000000401f1646                EVP_SignFinal
                0x00000000401f180d                EVP_VerifyFinal
                0x00000000401f19b9                policy_cache_free
                0x00000000401f19f9                policy_cache_set
                0x00000000401f1d88                policy_cache_find_data
                0x00000000401f1dc3                policy_data_free
                0x00000000401f1e08                policy_data_new
                0x00000000401f1f03                policy_cache_set_mapping
                0x00000000401f2152                X509_policy_tree_free
                0x00000000401f21fe                X509_policy_check
                0x00000000401f2ba1                d2i_PKCS8PrivateKey_bio
                0x00000000401f2cb8                PEM_read_bio_PKCS8
                0x00000000401f2cd9                PEM_write_bio_PKCS8
                0x00000000401f2d1d                PEM_read_bio_PKCS8_PRIV_KEY_INFO
                0x00000000401f2d3e                PEM_write_bio_PKCS8_PRIV_KEY_INFO
                0x00000000401f2f6c                PEM_write_bio_PKCS8PrivateKey_nid
                0x00000000401f2f9d                PEM_write_bio_PKCS8PrivateKey
                0x00000000401f2fce                i2d_PKCS8PrivateKey_bio
                0x00000000401f2fff                i2d_PKCS8PrivateKey_nid_bio
                0x00000000401f3030                PKCS7_add_attrib_smimecap
                0x00000000401f30a9                PKCS7_get_smimecap
                0x00000000401f30f8                PKCS7_simple_smimecap
                0x00000000401f322d                PKCS7_add_attrib_content_type
                0x00000000401f327e                PKCS7_add0_attrib_signing_time
                0x00000000401f32e1                PKCS7_add1_attrib_digest
                0x00000000401f4bc2                RSA_PKCS1_SSLeay
                0x00000000401f4bcd                RSA_padding_add_none
                0x00000000401f4c39                RSA_padding_check_none
                0x00000000401f4ca9                PKCS1_MGF1
                0x00000000401f4e4e                RSA_padding_check_PKCS1_OAEP
                0x00000000401f50dc                RSA_padding_add_PKCS1_OAEP
                0x00000000401f52f0                RSA_padding_add_PKCS1_type_1
                0x00000000401f5376                RSA_padding_check_PKCS1_type_1
                0x00000000401f54d3                RSA_padding_add_PKCS1_type_2
                0x00000000401f5592                RSA_padding_check_PKCS1_type_2
                0x00000000401f56c0                RSA_verify_PKCS1_PSS
                0x00000000401f5a4d                RSA_padding_add_PKCS1_PSS
                0x00000000401f5d10                RSA_padding_add_SSLv23
                0x00000000401f5de0                RSA_padding_check_SSLv23
                0x00000000401f5f4e                RSA_padding_add_X931
                0x00000000401f5ff0                RSA_padding_check_X931
                0x00000000401f610e                RSA_X931_hash_id
                0x00000000401f6153                ASN1_bn_print
                0x00000000401f6360                X509_ocspid_print
                0x00000000401f64d0                X509_signature_print
                0x00000000401f65d7                ASN1_STRING_print
                0x00000000401f669b                ASN1_GENERALIZEDTIME_print
                0x00000000401f691f                ASN1_UTCTIME_print
                0x00000000401f6a94                ASN1_TIME_print
                0x00000000401f6acd                X509_print_ex
                0x00000000401f7012                X509_print
                0x00000000401f7027                X509_NAME_print
                0x00000000401f711c                X509_CERT_AUX_print
                0x00000000401f7693                UI_free
                0x00000000401f76d2                UI_add_input_string
                0x00000000401f7703                UI_dup_input_string
                0x00000000401f779a                UI_add_verify_string
                0x00000000401f77cb                UI_dup_verify_string
                0x00000000401f7862                UI_add_input_boolean
                0x00000000401f788c                UI_dup_input_boolean
                0x00000000401f7a17                UI_add_info_string
                0x00000000401f7a54                UI_dup_info_string
                0x00000000401f7adb                UI_add_error_string
                0x00000000401f7b18                UI_dup_error_string
                0x00000000401f7b9f                UI_construct_prompt
                0x00000000401f7cc4                UI_add_user_data
                0x00000000401f7cd2                UI_get0_user_data
                0x00000000401f7cdc                UI_process
                0x00000000401f7e13                UI_ctrl
                0x00000000401f7e9a                UI_get_ex_new_index
                0x00000000401f7eb9                UI_set_ex_data
                0x00000000401f7ec8                UI_get_ex_data
                0x00000000401f7ed7                UI_set_default_method
                0x00000000401f7ee4                UI_get_default_method
                0x00000000401f7f0f                UI_new_method
                0x00000000401f7f9d                UI_new
                0x00000000401f7fad                UI_get_method
                0x00000000401f7fb6                UI_set_method
                0x00000000401f7fc2                UI_create_method
                0x00000000401f800d                UI_destroy_method
                0x00000000401f8037                UI_method_set_opener
                0x00000000401f8052                UI_method_set_writer
                0x00000000401f806d                UI_method_set_flusher
                0x00000000401f8088                UI_method_set_reader
                0x00000000401f80a3                UI_method_set_closer
                0x00000000401f80be                UI_method_set_prompt_constructor
                0x00000000401f80d9                UI_method_get_opener
                0x00000000401f80ef                UI_method_get_writer
                0x00000000401f8105                UI_method_get_flusher
                0x00000000401f811b                UI_method_get_reader
                0x00000000401f8131                UI_method_get_closer
                0x00000000401f8147                UI_method_get_prompt_constructor
                0x00000000401f815d                UI_get_string_type
                0x00000000401f8171                UI_get_input_flags
                0x00000000401f8186                UI_get0_output_string
                0x00000000401f819c                UI_get0_action_string
                0x00000000401f81c5                UI_get0_result_string
                0x00000000401f81ec                UI_get0_result
                0x00000000401f826e                UI_get0_test_string
                0x00000000401f8290                UI_get_result_minsize
                0x00000000401f82b6                UI_get_result_maxsize
                0x00000000401f82dc                UI_set_result
                0x00000000401f87a5                UI_OpenSSL
                0x00000000401f87b0                d2i_AUTHORITY_KEYID
                0x00000000401f87c0                i2d_AUTHORITY_KEYID
                0x00000000401f87d0                AUTHORITY_KEYID_new
                0x00000000401f87e0                AUTHORITY_KEYID_free
                0x00000000401f8a7d                POLICYINFO_free
                0x00000000401f8a8d                d2i_CERTIFICATEPOLICIES
                0x00000000401f8a9d                i2d_CERTIFICATEPOLICIES
                0x00000000401f8aad                CERTIFICATEPOLICIES_new
                0x00000000401f8abd                CERTIFICATEPOLICIES_free
                0x00000000401f8acd                d2i_POLICYINFO
                0x00000000401f8add                i2d_POLICYINFO
                0x00000000401f8aed                POLICYINFO_new
                0x00000000401f8afd                d2i_POLICYQUALINFO
                0x00000000401f8b0d                i2d_POLICYQUALINFO
                0x00000000401f8b1d                POLICYQUALINFO_new
                0x00000000401f8b2d                POLICYQUALINFO_free
                0x00000000401f8b3d                d2i_USERNOTICE
                0x00000000401f8b4d                i2d_USERNOTICE
                0x00000000401f8b5d                USERNOTICE_new
                0x00000000401f8b6d                USERNOTICE_free
                0x00000000401f8b7d                d2i_NOTICEREF
                0x00000000401f8b8d                i2d_NOTICEREF
                0x00000000401f8b9d                NOTICEREF_new
                0x00000000401f94d9                NOTICEREF_free
                0x00000000401f94e9                X509_POLICY_NODE_print
                0x00000000401f9afd                DIST_POINT_free
                0x00000000401f9b0d                d2i_DIST_POINT_NAME
                0x00000000401f9b1d                i2d_DIST_POINT_NAME
                0x00000000401f9b2d                DIST_POINT_NAME_new
                0x00000000401f9d35                DIST_POINT_NAME_free
                0x00000000401f9d45                d2i_DIST_POINT
                0x00000000401f9d55                i2d_DIST_POINT
                0x00000000401f9d65                DIST_POINT_new
                0x00000000401fa01a                d2i_CRL_DIST_POINTS
                0x00000000401fa02a                i2d_CRL_DIST_POINTS
                0x00000000401fa03a                CRL_DIST_POINTS_new
                0x00000000401fa04a                CRL_DIST_POINTS_free
                0x00000000401fa05a                d2i_ISSUING_DIST_POINT
                0x00000000401fa06a                i2d_ISSUING_DIST_POINT
                0x00000000401fa07a                ISSUING_DIST_POINT_new
                0x00000000401fa08a                ISSUING_DIST_POINT_free
                0x00000000401fa296                DIST_POINT_set_dpname
                0x00000000401fa390                d2i_GENERAL_NAME
                0x00000000401fa3a0                i2d_GENERAL_NAME
                0x00000000401fa3b0                d2i_OTHERNAME
                0x00000000401fa3c0                i2d_OTHERNAME
                0x00000000401fa3d0                OTHERNAME_new
                0x00000000401fa3e0                OTHERNAME_free
                0x00000000401fa3f0                d2i_EDIPARTYNAME
                0x00000000401fa400                i2d_EDIPARTYNAME
                0x00000000401fa410                EDIPARTYNAME_new
                0x00000000401fa420                EDIPARTYNAME_free
                0x00000000401fa430                GENERAL_NAME_new
                0x00000000401fa440                GENERAL_NAME_free
                0x00000000401fa450                d2i_GENERAL_NAMES
                0x00000000401fa460                i2d_GENERAL_NAMES
                0x00000000401fa470                GENERAL_NAMES_new
                0x00000000401fa480                GENERAL_NAMES_free
                0x00000000401fa490                GENERAL_NAME_dup
                0x00000000401fa4a8                OTHERNAME_cmp
                0x00000000401fa4ea                GENERAL_NAME_cmp
                0x00000000401fa574                GENERAL_NAME_set0_value
                0x00000000401fa5ac                GENERAL_NAME_get0_value
                0x00000000401fa5f2                GENERAL_NAME_set0_othername
                0x00000000401fa638                GENERAL_NAME_get0_otherName
                0x00000000401fac6b                GENERAL_SUBTREE_new
                0x00000000401fac7b                GENERAL_SUBTREE_free
                0x00000000401fac8b                NAME_CONSTRAINTS_new
                0x00000000401fac9b                NAME_CONSTRAINTS_free
                0x00000000401fae58                NAME_CONSTRAINTS_check
                0x00000000401faf82                POLICY_CONSTRAINTS_new
                0x00000000401faf92                POLICY_CONSTRAINTS_free
                0x00000000401fb199                POLICY_MAPPING_free
                0x00000000401fb1a9                POLICY_MAPPING_new
                0x00000000401fb448                X509V3_EXT_val_prn
                0x00000000401fb56f                X509V3_EXT_print
                0x00000000401fb73d                X509V3_extensions_print
                0x00000000401fbc48                X509_PURPOSE_get_count
                0x00000000401fbc68                X509_PURPOSE_get0
                0x00000000401fbca1                X509_PURPOSE_get_by_sname
                0x00000000401fbce3                X509_PURPOSE_get_by_id
                0x00000000401fbd24                X509_PURPOSE_set
                0x00000000401fbd70                X509_PURPOSE_add
                0x00000000401fbf2b                X509_PURPOSE_cleanup
                0x00000000401fbf6f                X509_PURPOSE_get_id
                0x00000000401fbf77                X509_PURPOSE_get0_name
                0x00000000401fbf81                X509_PURPOSE_get0_sname
                0x00000000401fbf8b                X509_PURPOSE_get_trust
                0x00000000401fbf94                X509_supported_extension
                0x00000000401fc4df                X509_check_purpose
                0x00000000401fc572                X509_check_ca
                0x00000000401fc5cd                X509_check_akid
                0x00000000401fc6b0                X509_check_issued
                0x00000000401fc828                X509V3_conf_free
                0x00000000401fc927                X509V3_add_value
                0x00000000401fca4c                X509V3_add_value_uchar
                0x00000000401fca57                X509V3_add_value_bool
                0x00000000401fca77                X509V3_add_value_bool_nf
                0x00000000401fca91                i2s_ASN1_ENUMERATED
                0x00000000401fcb01                i2s_ASN1_INTEGER
                0x00000000401fcb71                s2i_ASN1_INTEGER
                0x00000000401fccd2                X509V3_add_value_int
                0x00000000401fcd2e                X509V3_get_value_bool
                0x00000000401fce9b                X509V3_get_value_int
                0x00000000401fcf06                X509V3_parse_list
                0x00000000401fd144                hex_to_string
                0x00000000401fd1ff                string_to_hex
                0x00000000401fd3bf                name_cmp
                0x00000000401fd416                X509_email_free
                0x00000000401fd57b                X509_get1_email
                0x00000000401fd5c7                X509_REQ_get1_email
                0x00000000401fd634                X509_get1_ocsp
                0x00000000401fd6d0                a2i_ipadd
                0x00000000401fd813                a2i_IPADDRESS
                0x00000000401fd879                a2i_IPADDRESS_NC
                0x00000000401fd95e                X509V3_NAME_from_section
                0x00000000401fda50                X509at_get_attr_count
                0x00000000401fda5b                X509at_get_attr_by_OBJ
                0x00000000401fdad0                X509at_get_attr_by_NID
                0x00000000401fdb03                X509at_get_attr
                0x00000000401fdb49                X509at_delete_attr
                0x00000000401fdb8f                X509at_add1_attr
                0x00000000401fdc7f                X509_ATTRIBUTE_set1_object
                0x00000000401fdcba                X509_ATTRIBUTE_set1_data
                0x00000000401fde35                X509_ATTRIBUTE_create_by_OBJ
                0x00000000401fdf01                X509at_add1_attr_by_OBJ
                0x00000000401fdf42                X509_ATTRIBUTE_create_by_NID
                0x00000000401fdfca                X509at_add1_attr_by_NID
                0x00000000401fe00b                X509_ATTRIBUTE_create_by_txt
                0x00000000401fe0b0                X509at_add1_attr_by_txt
                0x00000000401fe0f1                X509_ATTRIBUTE_count
                0x00000000401fe114                X509_ATTRIBUTE_get0_object
                0x00000000401fe129                X509_ATTRIBUTE_get0_type
                0x00000000401fe170                X509_ATTRIBUTE_get0_data
                0x00000000401fe1ca                X509at_get0_data_by_OBJ
                0x00000000401fe265                X509_CRL_get_ext_count
                0x00000000401fe277                X509_CRL_get_ext_by_NID
                0x00000000401fe289                X509_CRL_get_ext_by_OBJ
                0x00000000401fe29b                X509_CRL_get_ext_by_critical
                0x00000000401fe2ad                X509_CRL_get_ext
                0x00000000401fe2bf                X509_CRL_delete_ext
                0x00000000401fe2d1                X509_CRL_get_ext_d2i
                0x00000000401fe2e3                X509_CRL_add1_ext_i2d
                0x00000000401fe2f5                X509_CRL_add_ext
                0x00000000401fe310                X509_get_ext_count
                0x00000000401fe322                X509_get_ext_by_NID
                0x00000000401fe334                X509_get_ext_by_OBJ
                0x00000000401fe346                X509_get_ext_by_critical
                0x00000000401fe358                X509_get_ext
                0x00000000401fe36a                X509_delete_ext
                0x00000000401fe37c                X509_add_ext
                0x00000000401fe397                X509_get_ext_d2i
                0x00000000401fe3a9                X509_add1_ext_i2d
                0x00000000401fe3bb                X509_REVOKED_get_ext_count
                0x00000000401fe3ca                X509_REVOKED_get_ext_by_NID
                0x00000000401fe3d9                X509_REVOKED_get_ext_by_OBJ
                0x00000000401fe3e8                X509_REVOKED_get_ext_by_critical
                0x00000000401fe3f7                X509_REVOKED_get_ext
                0x00000000401fe406                X509_REVOKED_delete_ext
                0x00000000401fe415                X509_REVOKED_add_ext
                0x00000000401fe42d                X509_REVOKED_get_ext_d2i
                0x00000000401fe43c                X509_REVOKED_add1_ext_i2d
                0x00000000401fe5ca                X509_LOOKUP_new
                0x00000000401fe646                X509_LOOKUP_free
                0x00000000401fe67a                X509_LOOKUP_init
                0x00000000401fe6a4                X509_LOOKUP_shutdown
                0x00000000401fe6d2                X509_LOOKUP_ctrl
                0x00000000401fe6fb                X509_LOOKUP_by_subject
                0x00000000401fe732                X509_LOOKUP_by_issuer_serial
                0x00000000401fe75b                X509_LOOKUP_by_fingerprint
                0x00000000401fe784                X509_LOOKUP_by_alias
                0x00000000401fe7b2                X509_STORE_new
                0x00000000401fe8b1                X509_STORE_free
                0x00000000401fe941                X509_STORE_add_lookup
                0x00000000401fe9c2                X509_OBJECT_up_ref_count
                0x00000000401fea1c                X509_OBJECT_free_contents
                0x00000000401fea44                X509_OBJECT_idx_by_subject
                0x00000000401fea54                X509_OBJECT_retrieve_by_subject
                0x00000000401fea82                X509_STORE_get_by_subject
                0x00000000401feb99                X509_STORE_get1_certs
                0x00000000401fed5c                X509_STORE_get1_crls
                0x00000000401fef18                X509_OBJECT_retrieve_match
                0x00000000401fefee                X509_STORE_add_cert
                0x00000000401ff0fd                X509_STORE_add_crl
                0x00000000401ff20c                X509_STORE_CTX_get1_issuer
                0x00000000401ff3c4                X509_STORE_set_flags
                0x00000000401ff3d3                X509_STORE_set_depth
                0x00000000401ff3e7                X509_STORE_set_purpose
                0x00000000401ff3f6                X509_STORE_set_trust
                0x00000000401ff405                X509_STORE_set1_param
                0x00000000401ff414                X509_STORE_set_verify_cb
                0x00000000401ff420                X509_to_X509_REQ
                0x00000000401ff521                X509_REQ_get_pubkey
                0x00000000401ff54b                X509_REQ_check_private_key
                0x00000000401ff683                X509_REQ_extension_nid
                0x00000000401ff6cc                X509_REQ_get_extension_nids
                0x00000000401ff6d9                X509_REQ_set_extension_nids
                0x00000000401ff6e6                X509_REQ_add_extensions_nid
                0x00000000401ff7f9                X509_REQ_add_extensions
                0x00000000401ff809                X509_REQ_get_attr_count
                0x00000000401ff81b                X509_REQ_get_attr_by_NID
                0x00000000401ff82d                X509_REQ_get_attr_by_OBJ
                0x00000000401ff83f                X509_REQ_get_attr
                0x00000000401ff851                X509_REQ_get_extensions
                0x00000000401ff94d                X509_REQ_delete_attr
                0x00000000401ff95f                X509_REQ_add1_attr
                0x00000000401ff97a                X509_REQ_add1_attr_by_OBJ
                0x00000000401ff995                X509_REQ_add1_attr_by_NID
                0x00000000401ff9b0                X509_REQ_add1_attr_by_txt
                0x00000000401ffb55                X509_TRUST_set_default
                0x00000000401ffb69                X509_TRUST_get_count
                0x00000000401ffb89                X509_TRUST_get0
                0x00000000401ffbc1                X509_TRUST_get_by_id
                0x00000000401ffc02                X509_check_trust
                0x00000000401ffc5b                X509_TRUST_set
                0x00000000401ffca7                X509_TRUST_add
                0x00000000401ffe45                X509_TRUST_cleanup
                0x00000000401ffe89                X509_TRUST_get_flags
                0x00000000401ffe92                X509_TRUST_get0_name
                0x00000000401ffe9c                X509_TRUST_get_trust
                0x00000000401ffeb0                X509v3_get_ext_count
                0x00000000401ffec6                X509v3_get_ext_by_OBJ
                0x00000000401fff37                X509v3_get_ext_by_NID
                0x00000000401fff6a                X509v3_get_ext_by_critical
                0x00000000401fffe6                X509v3_get_ext
                0x000000004020002c                X509v3_delete_ext
                0x0000000040200072                X509v3_add_ext
                0x000000004020018b                X509_EXTENSION_set_object
                0x00000000402001c6                X509_EXTENSION_set_critical
                0x00000000402001e7                X509_EXTENSION_set_data
                0x0000000040200212                X509_EXTENSION_create_by_OBJ
                0x00000000402002e4                X509_EXTENSION_create_by_NID
                0x000000004020035a                X509_EXTENSION_get_object
                0x000000004020036f                X509_EXTENSION_get_data
                0x0000000040200385                X509_EXTENSION_get_critical
                0x00000000402003b0                X509_NAME_entry_count
                0x00000000402003c9                X509_NAME_get_index_by_OBJ
                0x0000000040200440                X509_NAME_get_index_by_NID
                0x0000000040200473                X509_NAME_get_entry
                0x00000000402004bc                X509_NAME_get_text_by_OBJ
                0x0000000040200537                X509_NAME_get_text_by_NID
                0x000000004020057c                X509_NAME_delete_entry
                0x000000004020065e                X509_NAME_add_entry
                0x00000000402007f6                X509_NAME_ENTRY_set_object
                0x0000000040200854                X509_NAME_ENTRY_set_data
                0x000000004020092f                X509_NAME_ENTRY_create_by_OBJ
                0x00000000402009dc                X509_NAME_add_entry_by_OBJ
                0x0000000040200a30                X509_NAME_ENTRY_create_by_txt
                0x0000000040200ad5                X509_NAME_add_entry_by_txt
                0x0000000040200b29                X509_NAME_ENTRY_create_by_NID
                0x0000000040200bac                X509_NAME_add_entry_by_NID
                0x0000000040200c00                X509_NAME_ENTRY_get_object
                0x0000000040200c15                X509_NAME_ENTRY_get_data
                0x0000000040200c30                X509_REQ_set_version
                0x0000000040200c4d                X509_REQ_set_subject_name
                0x0000000040200c77                X509_REQ_set_pubkey
                0x0000000040200ca2                d2i_X509_VAL
                0x0000000040200cb2                i2d_X509_VAL
                0x0000000040200cc2                X509_VAL_new
                0x0000000040200cd2                X509_VAL_free
                0x0000000040200ce2                CRYPTO_cbc128_encrypt
                0x0000000040200e28                CRYPTO_cbc128_decrypt
                0x0000000040201174                CRYPTO_cfb128_encrypt
                0x0000000040201423                CRYPTO_cfb128_1_encrypt
                0x00000000402014ee                CRYPTO_cfb128_8_encrypt
                0x0000000040201559                CRYPTO_ofb128_encrypt
                0x0000000040201692                i2d_ASN1_BOOLEAN
                0x000000004020170a                d2i_ASN1_BOOLEAN
                0x0000000040201a35                ASN1_mbstring_ncopy
                0x0000000040201f53                ASN1_mbstring_copy
                0x0000000040201f70                ASN1_PRINTABLE_type
                0x0000000040201fff                ASN1_UNIVERSALSTRING_to_string
                0x0000000040202106                ASN1_STRING_set_default_mask
                0x0000000040202113                ASN1_STRING_get_default_mask
                0x0000000040202120                ASN1_STRING_set_default_mask_asc
                0x00000000402021e7                ASN1_STRING_TABLE_get
                0x000000004020224d                ASN1_STRING_set_by_NID
                0x00000000402022fd                ASN1_STRING_TABLE_add
                0x0000000040202420                ASN1_STRING_TABLE_cleanup
                0x0000000040202450                ASN1_seq_unpack
                0x00000000402024b5                ASN1_seq_pack
                0x00000000402025a9                ASN1_unpack_string
                0x00000000402025fc                ASN1_pack_string
                0x0000000040202719                ASN1_item_pack
                0x0000000040202828                ASN1_item_unpack
                0x0000000040202880                BN_mod_exp2_mont
                0x0000000040203130                BN_kronecker
                0x000000004020340a                BN_get0_nist_prime_192
                0x0000000040203415                BN_get0_nist_prime_224
                0x0000000040203420                BN_get0_nist_prime_256
                0x000000004020342b                BN_get0_nist_prime_384
                0x0000000040203436                BN_get0_nist_prime_521
                0x0000000040203441                BN_nist_mod_192
                0x00000000402036b4                BN_nist_mod_224
                0x00000000402039ef                BN_nist_mod_256
                0x0000000040203e84                BN_nist_mod_384
                0x000000004020441e                BN_nist_mod_521
                0x0000000040204600                BN_mod_sqrt
                0x0000000040204f43                CONF_modules_load
                0x00000000402053f0                CONF_modules_finish
                0x000000004020546a                CONF_modules_unload
                0x000000004020551c                CONF_module_add
                0x000000004020553e                CONF_modules_free
                0x0000000040205553                CONF_imodule_get_name
                0x000000004020555d                CONF_imodule_get_value
                0x0000000040205567                CONF_imodule_get_usr_data
                0x0000000040205571                CONF_imodule_set_usr_data
                0x000000004020557b                CONF_imodule_get_module
                0x0000000040205584                CONF_imodule_get_flags
                0x000000004020558e                CONF_imodule_set_flags
                0x0000000040205598                CONF_module_get_usr_data
                0x00000000402055a2                CONF_module_set_usr_data
                0x00000000402055ac                CONF_get1_default_config_file
                0x0000000040205629                CONF_modules_load_file
                0x00000000402056f1                CONF_parse_list
                0x0000000040205810                DSO_set_default_method
                0x000000004020581d                DSO_get_default_method
                0x000000004020582a                DSO_get_method
                0x0000000040205833                DSO_set_method
                0x000000004020583f                DSO_new_method
                0x000000004020593d                DSO_new
                0x000000004020594d                DSO_free
                0x0000000040205a5f                DSO_flags
                0x0000000040205a74                DSO_up_ref
                0x0000000040205ac6                DSO_bind_var
                0x0000000040205b66                DSO_bind_func
                0x0000000040205c06                DSO_ctrl
                0x0000000040205c9b                DSO_set_name_converter
                0x0000000040205ce0                DSO_get_filename
                0x0000000040205d14                DSO_set_filename
                0x0000000040205e07                DSO_load
                0x0000000040205fa6                DSO_merge
                0x0000000040206007                DSO_convert_filename
                0x0000000040206106                DSO_get_loaded_filename
                0x000000004020613a                DSO_pathbyaddr
                0x00000000402061a6                DSO_global_lookup
                0x00000000402061fe                DSO_METHOD_openssl
                0x0000000040206210                ec_GF2m_simple_is_at_infinity
                0x0000000040206220                ec_GF2m_simple_points_make_affine
                0x0000000040206285                ec_GF2m_simple_group_init
                0x00000000402062be                ec_GF2m_simple_point_init
                0x00000000402062f1                ec_GF2m_simple_group_finish
                0x0000000040206325                ec_GF2m_simple_point_finish
                0x0000000040206353                ec_GF2m_simple_group_clear_finish
                0x00000000402063c3                ec_GF2m_simple_point_clear_finish
                0x00000000402063f8                ec_GF2m_simple_group_get_curve
                0x0000000040206478                ec_GF2m_simple_point_copy
                0x00000000402064e2                ec_GF2m_simple_group_copy
                0x000000004020668b                ec_GF2m_simple_group_set_curve
                0x0000000040206832                ec_GF2m_simple_group_get_degree
                0x0000000040206844                ec_GF2m_simple_group_check_discriminant
                0x000000004020690e                ec_GF2m_simple_point_set_to_infinity
                0x000000004020692e                ec_GF2m_simple_point_set_affine_coordinates
                0x0000000040206a04                ec_GF2m_simple_point_get_affine_coordinates
                0x0000000040206af6                ec_GF2m_simple_is_on_curve
                0x0000000040206c92                ec_GF2m_simple_set_compressed_coordinates
                0x0000000040206f21                ec_GF2m_simple_cmp
                0x00000000402070bb                ec_GF2m_simple_make_affine
                0x00000000402071ce                ec_GF2m_simple_point2oct
                0x0000000040207578                ec_GF2m_simple_oct2point
                0x0000000040207922                ec_GF2m_simple_add
                0x0000000040207dbc                ec_GF2m_simple_dbl
                0x0000000040207dcd                ec_GF2m_simple_invert
                0x0000000040207e2a                ec_GF2m_simple_field_mul
                0x0000000040207e48                ec_GF2m_simple_field_sqr
                0x0000000040207e63                ec_GF2m_simple_field_div
                0x0000000040207e7e                EC_GF2m_simple_method
                0x0000000040207e89                d2i_ECDSA_SIG
                0x0000000040207e99                i2d_ECDSA_SIG
                0x0000000040207ea9                ECDSA_SIG_new
                0x0000000040207eb9                ECDSA_SIG_free
                0x0000000040207edf                ERR_print_errors_cb
                0x0000000040207fd1                ERR_print_errors
                0x0000000040207fe4                PKCS12_item_pack_safebag
                0x00000000402080d1                PKCS12_MAKE_KEYBAG
                0x0000000040208127                PKCS12_MAKE_SHKEYBAG
                0x0000000040208210                PKCS12_pack_p7data
                0x00000000402082db                PKCS12_unpack_p7data
                0x0000000040208330                PKCS12_pack_p7encdata
                0x00000000402084c6                PKCS12_unpack_p7encdata
                0x0000000040208526                PKCS12_decrypt_skey
                0x0000000040208535                PKCS12_pack_authsafes
                0x000000004020855c                PKCS12_unpack_authsafes
                0x00000000402085b9                d2i_PKCS12
                0x00000000402085c9                i2d_PKCS12
                0x00000000402085d9                PKCS12_new
                0x00000000402085e9                PKCS12_free
                0x00000000402085f9                d2i_PKCS12_MAC_DATA
                0x0000000040208609                i2d_PKCS12_MAC_DATA
                0x0000000040208619                PKCS12_MAC_DATA_new
                0x0000000040208629                PKCS12_MAC_DATA_free
                0x0000000040208639                d2i_PKCS12_BAGS
                0x0000000040208649                i2d_PKCS12_BAGS
                0x0000000040208659                PKCS12_BAGS_new
                0x0000000040208669                PKCS12_BAGS_free
                0x0000000040208679                d2i_PKCS12_SAFEBAG
                0x0000000040208689                i2d_PKCS12_SAFEBAG
                0x0000000040208699                PKCS12_SAFEBAG_new
                0x00000000402086a9                PKCS12_SAFEBAG_free
                0x00000000402086b9                PKCS12_pbe_crypt
                0x0000000040208829                PKCS12_item_decrypt_d2i
                0x00000000402088f8                PKCS12_item_i2d_encrypt
                0x0000000040208a24                PKCS8_encrypt
                0x0000000040208b4c                X509_policy_tree_level_count
                0x0000000040208b61                X509_policy_tree_get0_level
                0x0000000040208b92                X509_policy_tree_get0_policies
                0x0000000040208ba8                X509_policy_tree_get0_user_policies
                0x0000000040208bca                X509_policy_level_node_count
                0x0000000040208c03                X509_policy_level_get0_node
                0x0000000040208c2e                X509_policy_node_get0_policy
                0x0000000040208c47                X509_policy_node_get0_qualifiers
                0x0000000040208c60                X509_policy_node_get0_parent
                0x0000000040208c95                policy_node_cmp_new
                0x0000000040208ca5                tree_find_sk
                0x0000000040208ce3                level_find_node
                0x0000000040208d56                level_add_node
                0x0000000040208e4c                policy_node_free
                0x0000000040208e57                policy_node_match
                0x0000000040209062                i2v_GENERAL_NAME
                0x00000000402092ce                i2v_GENERAL_NAMES
                0x0000000040209329                GENERAL_NAME_print
                0x00000000402094c3                a2i_GENERAL_NAME
                0x0000000040209865                v2i_GENERAL_NAME_ex
                0x00000000402099c4                v2i_GENERAL_NAME
                0x0000000040209d13                v2i_GENERAL_NAMES
                0x0000000040209e01                d2i_BASIC_CONSTRAINTS
                0x0000000040209e11                i2d_BASIC_CONSTRAINTS
                0x0000000040209e21                BASIC_CONSTRAINTS_new
                0x0000000040209e31                BASIC_CONSTRAINTS_free
                0x000000004020a5a8                X509V3_EXT_nconf
                0x000000004020a66d                X509V3_EXT_nconf_nid
                0x000000004020a6eb                X509V3_EXT_i2d
                0x000000004020a74b                X509V3_EXT_add_nconf_sk
                0x000000004020a7f1                X509V3_EXT_add_nconf
                0x000000004020a80f                X509V3_EXT_CRL_add_nconf
                0x000000004020a82d                X509V3_EXT_REQ_add_nconf
                0x000000004020a886                X509V3_get_string
                0x000000004020a8d1                X509V3_get_section
                0x000000004020a921                X509V3_string_free
                0x000000004020a940                X509V3_section_free
                0x000000004020a95f                X509V3_set_nconf
                0x000000004020a971                X509V3_set_ctx
                0x000000004020a98a                X509V3_EXT_conf
                0x000000004020a9c9                X509V3_EXT_conf_nid
                0x000000004020aa08                X509V3_set_conf_lhash
                0x000000004020aa1a                X509V3_EXT_add_conf
                0x000000004020aa59                X509V3_EXT_CRL_add_conf
                0x000000004020aa98                X509V3_EXT_REQ_add_conf
                0x000000004020ac2b                ACCESS_DESCRIPTION_free
                0x000000004020ac3b                d2i_ACCESS_DESCRIPTION
                0x000000004020ac4b                i2d_ACCESS_DESCRIPTION
                0x000000004020ac5b                ACCESS_DESCRIPTION_new
                0x000000004020ae7f                d2i_AUTHORITY_INFO_ACCESS
                0x000000004020ae8f                i2d_AUTHORITY_INFO_ACCESS
                0x000000004020ae9f                AUTHORITY_INFO_ACCESS_new
                0x000000004020aeaf                AUTHORITY_INFO_ACCESS_free
                0x000000004020aebf                i2a_ACCESS_DESCRIPTION
                0x000000004020af12                X509V3_EXT_add
                0x000000004020afa8                X509V3_EXT_get_nid
                0x000000004020b026                X509V3_EXT_get
                0x000000004020b044                X509V3_EXT_add_list
                0x000000004020b07f                X509V3_EXT_add_alias
                0x000000004020b17a                X509V3_EXT_cleanup
                0x000000004020b19c                X509V3_add_standard_extensions
                0x000000004020b1a7                X509V3_EXT_d2i
                0x000000004020b202                X509V3_get_d2i
                0x000000004020b341                X509V3_add1_i2d
                0x000000004020c2e2                d2i_PROXY_POLICY
                0x000000004020c2f2                i2d_PROXY_POLICY
                0x000000004020c302                PROXY_POLICY_new
                0x000000004020c312                PROXY_POLICY_free
                0x000000004020c322                d2i_PROXY_CERT_INFO_EXTENSION
                0x000000004020c332                i2d_PROXY_CERT_INFO_EXTENSION
                0x000000004020c342                PROXY_CERT_INFO_EXTENSION_new
                0x000000004020c352                PROXY_CERT_INFO_EXTENSION_free
                0x000000004020c3f8                d2i_PKEY_USAGE_PERIOD
                0x000000004020c408                i2d_PKEY_USAGE_PERIOD
                0x000000004020c418                PKEY_USAGE_PERIOD_new
                0x000000004020c428                PKEY_USAGE_PERIOD_free
                0x000000004020c438                i2s_ASN1_OCTET_STRING
                0x000000004020c44d                s2i_ASN1_OCTET_STRING
                0x000000004020c6ee                d2i_SXNETID
                0x000000004020c6fe                i2d_SXNETID
                0x000000004020c70e                SXNETID_new
                0x000000004020c71e                SXNETID_free
                0x000000004020c72e                d2i_SXNET
                0x000000004020c73e                i2d_SXNET
                0x000000004020c74e                SXNET_new
                0x000000004020c75e                SXNET_free
                0x000000004020c76e                SXNET_get_id_INTEGER
                0x000000004020c7c9                SXNET_add_id_INTEGER
                0x000000004020c979                SXNET_add_id_asc
                0x000000004020ca44                SXNET_add_id_ulong
                0x000000004020cad0                SXNET_get_id_asc
                0x000000004020cb30                SXNET_get_id_ulong
                0x000000004020cbb6                X509_get_default_private_dir
                0x000000004020cbc1                X509_get_default_cert_area
                0x000000004020cbcc                X509_get_default_cert_dir
                0x000000004020cbd7                X509_get_default_cert_file
                0x000000004020cbe2                X509_get_default_cert_dir_env
                0x000000004020cbed                X509_get_default_cert_file_env
                0x000000004020cc35                i2d_ASN1_SET
                0x000000004020cea6                d2i_ASN1_SET
                0x000000004020d768                ASN1_generate_v3
                0x000000004020e0aa                ASN1_generate_nconf
                0x000000004020e2ac                BN_GF2m_add
                0x000000004020e395                BN_GF2m_mod_arr
                0x000000004020e649                BN_GF2m_mod_sqr_arr
                0x000000004020e7e6                BN_GF2m_mod_mul_arr
                0x000000004020ea54                BN_GF2m_mod_exp_arr
                0x000000004020eb77                BN_GF2m_mod_sqrt_arr
                0x000000004020ec0e                BN_GF2m_mod_solve_quad_arr
                0x000000004020efcb                BN_GF2m_poly2arr
                0x000000004020f066                BN_GF2m_mod
                0x000000004020f115                BN_GF2m_mod_inv
                0x000000004020f2f7                BN_GF2m_mod_mul
                0x000000004020f3b6                BN_GF2m_mod_div
                0x000000004020f445                BN_GF2m_mod_sqr
                0x000000004020f4fc                BN_GF2m_mod_exp
                0x000000004020f5bb                BN_GF2m_mod_sqrt
                0x000000004020f672                BN_GF2m_mod_solve_quad
                0x000000004020f729                BN_GF2m_arr2poly
                0x000000004020f78c                BN_GF2m_mod_inv_arr
                0x000000004020f806                BN_GF2m_mod_div_arr
                0x000000004020f890                CONF_set_nconf
                0x000000004020f8c9                CONF_set_default_method
                0x000000004020f8db                CONF_load
                0x000000004020f905                NCONF_new
                0x000000004020f952                NCONF_free
                0x000000004020f964                NCONF_free_data
                0x000000004020f976                CONF_free
                0x000000004020f995                NCONF_load
                0x000000004020f9ca                NCONF_load_bio
                0x000000004020f9ff                CONF_load_bio
                0x000000004020fa43                NCONF_get_section
                0x000000004020faa1                CONF_get_section
                0x000000004020fad9                NCONF_get_string
                0x000000004020fb75                CONF_get_string
                0x000000004020fbb6                NCONF_get_number_e
                0x000000004020fc53                CONF_get_number
                0x000000004020fcb1                NCONF_dump_bio
                0x000000004020fce6                CONF_dump_bio
                0x000000004020fd11                DSO_METHOD_null
                0x00000000402105e5                ec_GF2m_simple_mul
                0x0000000040210837                ec_GF2m_precompute_mult
                0x0000000040210842                ec_GF2m_have_precompute_mult
                0x0000000040210850                i2a_ASN1_INTEGER
                0x0000000040210996                a2i_ASN1_INTEGER
                0x0000000040210c7c                i2a_ASN1_STRING
                0x0000000040210d95                a2i_ASN1_STRING
                0x0000000040211044                d2i_OCSP_SIGNATURE
                0x0000000040211054                i2d_OCSP_SIGNATURE
                0x0000000040211064                OCSP_SIGNATURE_new
                0x0000000040211074                OCSP_SIGNATURE_free
                0x0000000040211084                d2i_OCSP_CERTID
                0x0000000040211094                i2d_OCSP_CERTID
                0x00000000402110a4                OCSP_CERTID_new
                0x00000000402110b4                OCSP_CERTID_free
                0x00000000402110c4                d2i_OCSP_ONEREQ
                0x00000000402110d4                i2d_OCSP_ONEREQ
                0x00000000402110e4                OCSP_ONEREQ_new
                0x00000000402110f4                OCSP_ONEREQ_free
                0x0000000040211104                d2i_OCSP_REQINFO
                0x0000000040211114                i2d_OCSP_REQINFO
                0x0000000040211124                OCSP_REQINFO_new
                0x0000000040211134                OCSP_REQINFO_free
                0x0000000040211144                d2i_OCSP_REQUEST
                0x0000000040211154                i2d_OCSP_REQUEST
                0x0000000040211164                OCSP_REQUEST_new
                0x0000000040211174                OCSP_REQUEST_free
                0x0000000040211184                d2i_OCSP_RESPBYTES
                0x0000000040211194                i2d_OCSP_RESPBYTES
                0x00000000402111a4                OCSP_RESPBYTES_new
                0x00000000402111b4                OCSP_RESPBYTES_free
                0x00000000402111c4                d2i_OCSP_RESPONSE
                0x00000000402111d4                i2d_OCSP_RESPONSE
                0x00000000402111e4                OCSP_RESPONSE_new
                0x00000000402111f4                OCSP_RESPONSE_free
                0x0000000040211204                d2i_OCSP_RESPID
                0x0000000040211214                i2d_OCSP_RESPID
                0x0000000040211224                OCSP_RESPID_new
                0x0000000040211234                OCSP_RESPID_free
                0x0000000040211244                d2i_OCSP_REVOKEDINFO
                0x0000000040211254                i2d_OCSP_REVOKEDINFO
                0x0000000040211264                OCSP_REVOKEDINFO_new
                0x0000000040211274                OCSP_REVOKEDINFO_free
                0x0000000040211284                d2i_OCSP_CERTSTATUS
                0x0000000040211294                i2d_OCSP_CERTSTATUS
                0x00000000402112a4                OCSP_CERTSTATUS_new
                0x00000000402112b4                OCSP_CERTSTATUS_free
                0x00000000402112c4                d2i_OCSP_SINGLERESP
                0x00000000402112d4                i2d_OCSP_SINGLERESP
                0x00000000402112e4                OCSP_SINGLERESP_new
                0x00000000402112f4                OCSP_SINGLERESP_free
                0x0000000040211304                d2i_OCSP_RESPDATA
                0x0000000040211314                i2d_OCSP_RESPDATA
                0x0000000040211324                OCSP_RESPDATA_new
                0x0000000040211334                OCSP_RESPDATA_free
                0x0000000040211344                d2i_OCSP_BASICRESP
                0x0000000040211354                i2d_OCSP_BASICRESP
                0x0000000040211364                OCSP_BASICRESP_new
                0x0000000040211374                OCSP_BASICRESP_free
                0x0000000040211384                d2i_OCSP_CRLID
                0x0000000040211394                i2d_OCSP_CRLID
                0x00000000402113a4                OCSP_CRLID_new
                0x00000000402113b4                OCSP_CRLID_free
                0x00000000402113c4                d2i_OCSP_SERVICELOC
                0x00000000402113d4                i2d_OCSP_SERVICELOC
                0x00000000402113e4                OCSP_SERVICELOC_new
                0x00000000402113f4                OCSP_SERVICELOC_free
                0x00000000402117ba                i2v_ASN1_BIT_STRING
                0x000000004021180f                v2i_ASN1_BIT_STRING
                0x0000000040211990                i2s_ASN1_ENUMERATED_TABLE
                0x0000000040211b57                d2i_EXTENDED_KEY_USAGE
                0x0000000040211b67                i2d_EXTENDED_KEY_USAGE
                0x0000000040211b77                EXTENDED_KEY_USAGE_new
                0x0000000040211b87                EXTENDED_KEY_USAGE_free
                0x0000000040211dd9                _CONF_get_section
                0x0000000040211e11                _CONF_get_section_values
                0x0000000040211e2c                _CONF_add_string
                0x0000000040211ea6                _CONF_get_string
                0x0000000040211f3b                _CONF_new_data
                0x0000000040211f82                _CONF_free_data
                0x0000000040211fd3                _CONF_new_section
                0x0000000040212fa0                NCONF_default
                0x0000000040212fab                NCONF_WIN32
                0x0000000040212fb6                codeend = .

.iplt           0x0000000040212fc0        0x0 load address 0x0000000000212fc0
 .iplt          0x0000000000000000        0x0 output.o

.rodata         0x0000000040212fc0    0x3534c load address 0x0000000000212fc0
 .rodata        0x0000000040212fc0    0x3534c output.o
                0x00000000402215c0                BN_version
                0x00000000402218a0                DES_SPtrans
                0x00000000402228a0                DH_version
                0x0000000040223d80                OSSL_DES_version
                0x0000000040223dc0                OSSL_libdes_version
                0x0000000040223ea0                EVP_version
                0x0000000040223f60                IDEA_version
                0x0000000040223fa0                lh_version
                0x00000000402245e0                MD4_version
                0x0000000040224620                MD5_version
                0x00000000402311c0                PEM_version
                0x0000000040231200                PKCS7_ATTR_VERIFY_it
                0x0000000040231280                PKCS7_ATTR_SIGN_it
                0x0000000040231300                PKCS7_DIGEST_it
                0x00000000402313e0                PKCS7_ENCRYPT_it
                0x0000000040231480                PKCS7_SIGN_ENVELOPE_it
                0x00000000402315e0                PKCS7_ENC_CONTENT_it
                0x00000000402316a0                PKCS7_RECIP_INFO_it
                0x00000000402317c0                PKCS7_ENVELOPE_it
                0x0000000040231880                PKCS7_ISSUER_AND_SERIAL_it
                0x0000000040231920                PKCS7_SIGNER_INFO_it
                0x0000000040231ac0                PKCS7_SIGNED_it
                0x0000000040231c00                PKCS7_it
                0x0000000040231f80                RC2_version
                0x00000000402320c0                RC4_version
                0x0000000040232100                RMD160_version
                0x0000000040232140                RSAPublicKey_it
                0x0000000040232220                RSAPrivateKey_it
                0x0000000040232420                RSA_version
                0x0000000040233620                SHA1_version
                0x0000000040233760                SHA256_version
                0x0000000040233a20                SHA512_version
                0x0000000040233a60                SHA_version
                0x0000000040233aa0                STACK_version
                0x0000000040233d00                ASN1_SET_ANY_it
                0x0000000040233d80                ASN1_SEQUENCE_ANY_it
                0x0000000040233e00                ASN1_OCTET_STRING_NDEF_it
                0x0000000040233e40                ASN1_FBOOLEAN_it
                0x0000000040233e80                ASN1_TBOOLEAN_it
                0x0000000040233ec0                ASN1_BOOLEAN_it
                0x0000000040233f00                DIRECTORYSTRING_it
                0x0000000040233f40                DISPLAYTEXT_it
                0x0000000040233f80                ASN1_PRINTABLE_it
                0x0000000040233fc0                ASN1_SEQUENCE_it
                0x0000000040234000                ASN1_ANY_it
                0x0000000040234040                ASN1_BMPSTRING_it
                0x0000000040234080                ASN1_UNIVERSALSTRING_it
                0x00000000402340c0                ASN1_VISIBLESTRING_it
                0x0000000040234100                ASN1_GENERALIZEDTIME_it
                0x0000000040234140                ASN1_UTCTIME_it
                0x0000000040234180                ASN1_GENERALSTRING_it
                0x00000000402341c0                ASN1_IA5STRING_it
                0x0000000040234200                ASN1_T61STRING_it
                0x0000000040234240                ASN1_PRINTABLESTRING_it
                0x0000000040234280                ASN1_UTF8STRING_it
                0x00000000402342c0                ASN1_OBJECT_it
                0x0000000040234300                ASN1_NULL_it
                0x0000000040234340                ASN1_OCTET_STRING_it
                0x0000000040234380                ASN1_BIT_STRING_it
                0x00000000402343c0                ASN1_ENUMERATED_it
                0x0000000040234400                ASN1_INTEGER_it
                0x0000000040234460                X509_version
                0x00000000402345c0                X509_ALGORS_it
                0x0000000040234640                X509_ALGOR_it
                0x00000000402346e0                X509_ATTRIBUTE_it
                0x0000000040234780                X509_ATTRIBUTE_SET_it
                0x0000000040234820                CBIGNUM_it
                0x0000000040234860                BIGNUM_it
                0x00000000402348a0                X509_CRL_it
                0x00000000402349a0                X509_CRL_INFO_it
                0x0000000040234b40                X509_REVOKED_it
                0x0000000040234c00                X509_EXTENSIONS_it
                0x0000000040234c80                X509_EXTENSION_it
                0x0000000040234d40                ZLONG_it
                0x0000000040234d80                LONG_it
                0x0000000040234dc0                X509_NAME_it
                0x0000000040234e00                x509_name_ff
                0x0000000040234e40                X509_NAME_INTERNAL_it
                0x0000000040234ec0                X509_NAME_ENTRIES_it
                0x0000000040234f40                X509_NAME_ENTRY_it
                0x0000000040234fe0                X509_PUBKEY_it
                0x00000000402350c0                X509_REQ_it
                0x00000000402351c0                X509_REQ_INFO_it
                0x00000000402352e0                X509_SIG_it
                0x0000000040235380                NETSCAPE_SPKI_it
                0x0000000040235440                NETSCAPE_SPKAC_it
                0x00000000402354e0                X509_it
                0x00000000402355e0                X509_CINF_it
                0x0000000040235800                X509_CERT_PAIR_it
                0x00000000402358a0                X509_CERT_AUX_it
                0x0000000040235e40                rsa_pkey_meth
                0x0000000040235f20                dh_pkey_meth
                0x0000000040236000                dsa_pkey_meth
                0x00000000402360e0                ec_pkey_meth
                0x00000000402361c0                hmac_pkey_meth
                0x00000000402362e0                rsa_asn1_meths
                0x0000000040236460                dh_asn1_meth
                0x0000000040236520                dsa_asn1_meths
                0x00000000402368c0                eckey_asn1_meth
                0x0000000040236980                hmac_asn1_meth
                0x0000000040237ac0                CMS_Receipt_it
                0x0000000040237ba0                CMS_ReceiptRequest_it
                0x0000000040237c60                CMS_ReceiptsFrom_it
                0x0000000040237d00                CMS_Attributes_Verify_it
                0x0000000040237d80                CMS_Attributes_Sign_it
                0x0000000040237e00                CMS_ContentInfo_it
                0x00000000402380c0                CMS_CompressedData_it
                0x0000000040238180                CMS_AuthenticatedData_it
                0x0000000040238340                CMS_EncryptedData_it
                0x0000000040238400                CMS_DigestedData_it
                0x00000000402384e0                CMS_EnvelopedData_it
                0x0000000040238600                CMS_RecipientInfo_it
                0x0000000040238760                CMS_OtherRecipientInfo_it
                0x0000000040238800                CMS_PasswordRecipientInfo_it
                0x00000000402388e0                CMS_KEKRecipientInfo_it
                0x00000000402389c0                CMS_KEKIdentifier_it
                0x0000000040238a80                CMS_KeyAgreeRecipientInfo_it
                0x0000000040238ba0                CMS_OriginatorIdentifierOrKey_it
                0x0000000040238c60                CMS_OriginatorPublicKey_it
                0x0000000040238d00                CMS_RecipientEncryptedKey_it
                0x0000000040238da0                CMS_KeyAgreeRecipientIdentifier_it
                0x0000000040238e40                CMS_RecipientKeyIdentifier_it
                0x0000000040238f00                CMS_OtherKeyAttribute_it
                0x0000000040238fa0                CMS_KeyTransRecipientInfo_it
                0x0000000040239080                CMS_EncryptedContentInfo_it
                0x0000000040239140                CMS_OriginatorInfo_it
                0x00000000402391e0                CMS_SignedData_it
                0x0000000040239320                CMS_RevocationInfoChoice_it
                0x00000000402393c0                CMS_OtherRevocationInfoFormat_it
                0x0000000040239460                CMS_SignerInfo_it
                0x0000000040239600                CMS_EncapsulatedContentInfo_it
                0x00000000402396a0                CMS_SignerIdentifier_it
                0x0000000040239740                CMS_CertificateChoices_it
                0x0000000040239860                CMS_OtherCertificateFormat_it
                0x0000000040239900                CMS_IssuerAndSerialNumber_it
                0x0000000040239b80                ASN1_TIME_it
                0x0000000040239c00                ASN1_version
                0x0000000040239d40                BF_version
                0x000000004023bf60                CAST_version
                0x000000004023c020                CAST_S_table7
                0x000000004023c420                CAST_S_table6
                0x000000004023c820                CAST_S_table5
                0x000000004023cc20                CAST_S_table4
                0x000000004023d020                CAST_S_table3
                0x000000004023d420                CAST_S_table2
                0x000000004023d820                CAST_S_table1
                0x000000004023dc20                CAST_S_table0
                0x000000004023e260                DHparams_it
                0x000000004023e360                DSAPublicKey_it
                0x000000004023e440                dsa_pub_internal_it
                0x000000004023e520                DSAparams_it
                0x000000004023e620                DSAPrivateKey_it
                0x000000004023e7a0                DSA_SIG_it
                0x000000004023e880                DSA_version
                0x000000004023e8c0                EC_PRIVATEKEY_it
                0x000000004023e9a0                ECPKPARAMETERS_it
                0x000000004023ea60                ECPARAMETERS_it
                0x000000004023eba0                X9_62_CURVE_it
                0x000000004023ec60                X9_62_FIELDID_it
                0x000000004023ede0                X9_62_CHARACTERISTIC_TWO_it
                0x000000004023efc0                X9_62_PENTANOMIAL_it
                0x0000000040242a00                ECDH_version
                0x0000000040242e00                ECDSA_version
                0x0000000040243100                RAND_version
                0x0000000040243140                NETSCAPE_CERT_SEQUENCE_it
                0x0000000040243220                PBEPARAM_it
                0x00000000402432c0                PBKDF2PARAM_it
                0x00000000402433a0                PBE2PARAM_it
                0x0000000040243440                PKCS8_PRIV_KEY_INFO_it
                0x0000000040243600                AUTHORITY_KEYID_it
                0x00000000402436c0                NOTICEREF_it
                0x0000000040243760                USERNOTICE_it
                0x0000000040243800                POLICYQUALINFO_it
                0x0000000040243980                POLICYINFO_it
                0x0000000040243a20                CERTIFICATEPOLICIES_it
                0x0000000040243aa0                v3_cpols
                0x0000000040243b20                v3_idp
                0x0000000040243ba0                ISSUING_DIST_POINT_it
                0x0000000040243ce0                CRL_DIST_POINTS_it
                0x0000000040243d60                DIST_POINT_it
                0x0000000040243e20                DIST_POINT_NAME_it
                0x0000000040244000                v3_freshest_crl
                0x0000000040244080                v3_crld
                0x00000000402441e0                GENERAL_NAMES_it
                0x0000000040244260                GENERAL_NAME_it
                0x0000000040244420                EDIPARTYNAME_it
                0x00000000402444c0                OTHERNAME_it
                0x0000000040244560                NAME_CONSTRAINTS_it
                0x0000000040244600                GENERAL_SUBTREE_it
                0x00000000402446c0                v3_name_constraints
                0x0000000040244740                POLICY_CONSTRAINTS_it
                0x00000000402447e0                v3_policy_constraints
                0x0000000040244860                POLICY_MAPPINGS_it
                0x00000000402448e0                POLICY_MAPPING_it
                0x0000000040244980                v3_policy_mappings
                0x0000000040244a60                X509_VAL_it
                0x0000000040245500                ECDSA_SIG_it
                0x00000000402455a0                PKCS12_AUTHSAFES_it
                0x0000000040245620                PKCS12_SAFEBAGS_it
                0x00000000402456a0                PKCS12_SAFEBAG_it
                0x0000000040245900                PKCS12_BAGS_it
                0x0000000040245ac0                PKCS12_MAC_DATA_it
                0x0000000040245b80                PKCS12_it
                0x0000000040245d20                v3_alt
                0x0000000040245e60                BASIC_CONSTRAINTS_it
                0x0000000040245f00                v3_bcons
                0x0000000040245f80                AUTHORITY_INFO_ACCESS_it
                0x0000000040246000                ACCESS_DESCRIPTION_it
                0x00000000402460a0                v3_sinfo
                0x0000000040246120                v3_info
                0x00000000402461a0                v3_ocsp_serviceloc
                0x0000000040246220                v3_ocsp_nocheck
                0x00000000402462a0                v3_ocsp_nonce
                0x0000000040246320                v3_crl_hold
                0x00000000402463a0                v3_crl_invdate
                0x0000000040246420                v3_ocsp_acutoff
                0x00000000402464a0                v3_ocsp_crlid
                0x0000000040246520                v3_pci
                0x00000000402465a0                PROXY_CERT_INFO_EXTENSION_it
                0x0000000040246640                PROXY_POLICY_it
                0x00000000402466e0                PKEY_USAGE_PERIOD_it
                0x0000000040246780                v3_pkey_usage_period
                0x0000000040246800                v3_skey_id
                0x0000000040246880                SXNET_it
                0x0000000040246920                SXNETID_it
                0x00000000402469c0                v3_sxnet
                0x0000000040246ee0                CONF_version
                0x0000000040246f20                OCSP_SERVICELOC_it
                0x0000000040246fc0                OCSP_CRLID_it
                0x0000000040247080                OCSP_BASICRESP_it
                0x0000000040247160                OCSP_RESPDATA_it
                0x0000000040247280                OCSP_SINGLERESP_it
                0x00000000402473a0                OCSP_CERTSTATUS_it
                0x0000000040247460                OCSP_REVOKEDINFO_it
                0x0000000040247500                OCSP_RESPID_it
                0x00000000402475a0                OCSP_RESPONSE_it
                0x0000000040247640                OCSP_RESPBYTES_it
                0x00000000402476e0                OCSP_REQUEST_it
                0x0000000040247780                OCSP_REQINFO_it
                0x0000000040247860                OCSP_ONEREQ_it
                0x0000000040247900                OCSP_CERTID_it
                0x00000000402479e0                OCSP_SIGNATURE_it
                0x0000000040247aa0                v3_akey_id
                0x0000000040247b20                v3_key_usage
                0x0000000040247ba0                v3_nscert
                0x0000000040247c20                v3_crl_reason
                0x0000000040247ca0                EXTENDED_KEY_USAGE_it
                0x0000000040247d20                v3_ocsp_accresp
                0x0000000040247da0                v3_ext_ku
                0x0000000040247e20                v3_ns_ia5_list
                0x0000000040248160                v3_inhibit_anyp
                0x00000000402481e0                v3_delta_crl
                0x0000000040248260                v3_crl_num
                0x00000000402482e0                CONF_def_version

.rodata.str1.8  0x0000000040248310     0x97c0 load address 0x0000000000248310
 .rodata.str1.8
                0x0000000040248310     0x97c0 output.o
                                       0x9ae5 (size before relaxing)

.rodata.str1.1  0x0000000040251ad0    0x12b32 load address 0x0000000000251ad0
 .rodata.str1.1
                0x0000000040251ad0    0x12b32 output.o
                                      0x14f35 (size before relaxing)

.eh_frame       0x0000000040264608    0x38080 load address 0x0000000000264608
 .eh_frame      0x0000000040264608    0x38080 output.o

.eh_frame_hdr   0x000000004029c688        0x8 load address 0x000000000029c688
 .eh_frame_hdr  0x000000004029c688        0x8 output.o

.note.gnu.build-id
                0x000000004029c690      0x288 load address 0x000000000029c690
 .note.gnu.build-id
                0x000000004029c690      0x288 output.o

.rela.dyn       0x000000004029c918        0x0 load address 0x000000000029c918
 .rela.iplt     0x0000000000000000        0x0 output.o
 .rela.text     0x0000000000000000        0x0 output.o

.data           0x000000004029d000  0x974c000 load address 0x000000000029d000
                0x000000004029d000                data = .
 *(.data)
 .data          0x000000004029d000   0xb7f419 output.o
                0x000000004029d020                config
                0x00000000402ad190                use_pae
                0x00000000402ad3b0                savemsr_index
                0x00000000402ae000                vmm_pml4
                0x00000000402af000                vmm_pdp
                0x00000000402b0000                vmm_pd
                0x00000000402b1000                vmm_pd1
                0x00000000402b2000                vmm_pd2
                0x00000000402b3000                guest_int0x15_hook
                0x00000000402b301d                guest_int0x15_e801_fake_ax
                0x00000000402b3020                guest_int0x15_e801_fake_bx
                0x00000000402b3031                guest_int0x15_orig
                0x00000000402b3046                guest_int0x15_e820_data_minus0x18
                0x00000000402b304e                guest_int0x15_e820_end
                0x00000000402b3074                guest_int0x15_hook_end
                0x00000000402b4078                wakeup_entry_start
                0x00000000402b4081                wakeup_entry_addr
                0x00000000402b40a7                wakeup_entry_cr4
                0x00000000402b40b0                wakeup_entry_cr3
                0x00000000402b40b9                wakeup_entry_cr0
                0x00000000402b40c8                wakeup_entry_gdtr
                0x00000000402b40d2                wakeup_entry_end
                0x00000000402b4160                ata_bm_handler_table
                0x00000000402b41c0                ata_ctlblk_handler_table
                0x00000000402b41e0                ata_cmdblk_handler_table
                0x00000000402b4c70                usb_log_level
                0x00000000402b5600                hSessionCnt
                0x00000000402b5608                hObjectCnt
                0x00000000402b5e00                g_rgSCardT1Pci
                0x00000000402b5e10                g_rgSCardT0Pci
                0x00000000402b5e20                FI
                0x00000000402b5e60                DI
                0x00000000402ba4a0                default_pctx
                0x00000000402bd720                rand_ssleay_meth
                0x0000000040e1c420                . = ALIGN (0x8)
 *fill*         0x0000000040e1c419        0x7 
                0x0000000040e1c420                __initfunc_start = .
 *(.initfunc)
 .initfunc      0x0000000040e1c420      0x640 output.o
                0x0000000040e1c420                __initfunc_acpi_init_paral
                0x0000000040e1c430                __initfunc_acpi_init_global
                0x0000000040e1c440                __initfunc_beep_init_msg
                0x0000000040e1c450                __initfunc_cache_init_pass
                0x0000000040e1c460                __initfunc_cache_init_vcpu
                0x0000000040e1c470                __initfunc_cache_init_pcpu
                0x0000000040e1c480                __initfunc_callrealmode_panic
                0x0000000040e1c490                __initfunc_callrealmode_init_global
                0x0000000040e1c4a0                __initfunc_cpu_mmu_spt_init_pcpu
                0x0000000040e1c4b0                __initfunc_cpu_mmu_spt_init_global
                0x0000000040e1c4c0                __initfunc_cpuid_init
                0x0000000040e1c4d0                __initfunc_cpuid_pass_init
                0x0000000040e1c4e0                __initfunc_exint_pass_init
                0x0000000040e1c4f0                __initfunc_gmm_pass_init
                0x0000000040e1c500                __initfunc_install_int0x15_hook
                0x0000000040e1c510                __initfunc_idman_init
                0x0000000040e1c520                __initfunc_idman_init_global
                0x0000000040e1c530                __initfunc_int_wakeup
                0x0000000040e1c540                __initfunc_int_init_global
                0x0000000040e1c550                __initfunc_io_io_init
                0x0000000040e1c560                __initfunc_setiohooks
                0x0000000040e1c570                __initfunc_io_iopass_init
                0x0000000040e1c580                __initfunc_keyboard_init_msg
                0x0000000040e1c590                __initfunc_localapic_init
                0x0000000040e1c5a0                __initfunc_get_shiftflags
                0x0000000040e1c5b0                __initfunc_copy_minios
                0x0000000040e1c5c0                __initfunc_print_boot_msg
                0x0000000040e1c5d0                __initfunc_debug_on_shift_key
                0x0000000040e1c5e0                __initfunc_create_pass_vm
                0x0000000040e1c5f0                __initfunc_virtualization_init_pcpu
                0x0000000040e1c600                __initfunc_unmap_user_area
                0x0000000040e1c610                __initfunc_mm_init_global
                0x0000000040e1c620                __initfunc_mmio_debug
                0x0000000040e1c630                __initfunc_mmio_init
                0x0000000040e1c640                __initfunc_msg_init_global
                0x0000000040e1c650                __initfunc_msr_init
                0x0000000040e1c660                __initfunc_msr_pass_init
                0x0000000040e1c670                __initfunc_nmi_pass_init_pcpu
                0x0000000040e1c680                __initfunc_nmi_pass_init
                0x0000000040e1c690                __initfunc_panic_init_pcpu
                0x0000000040e1c6a0                __initfunc_panic_init_msg
                0x0000000040e1c6b0                __initfunc_panic_init_global3
                0x0000000040e1c6c0                __initfunc_panic_init_global
                0x0000000040e1c6d0                __initfunc_printf_init_global
                0x0000000040e1c6e0                __initfunc_process_wakeup
                0x0000000040e1c6f0                __initfunc_process_init_ap
                0x0000000040e1c700                __initfunc_process_init_global
                0x0000000040e1c710                __initfunc_random_init_config0
                0x0000000040e1c720                __initfunc_random_init_global
                0x0000000040e1c730                __initfunc_reboot_init_msg
                0x0000000040e1c740                __initfunc_segment_init_global
                0x0000000040e1c750                __initfunc_serial_init_msg
                0x0000000040e1c760                __initfunc_sleep_init_msg
                0x0000000040e1c770                __initfunc_sleep_init_global
                0x0000000040e1c780                __initfunc_svm_panic
                0x0000000040e1c790                __initfunc_sx_init_pass_init
                0x0000000040e1c7a0                __initfunc_thread_init_pcpu
                0x0000000040e1c7b0                __initfunc_thread_init_global
                0x0000000040e1c7c0                __initfunc_time_init_msg
                0x0000000040e1c7d0                __initfunc_time_init_pcpu
                0x0000000040e1c7e0                __initfunc_time_init_global_status
                0x0000000040e1c7f0                __initfunc_time_init_global
                0x0000000040e1c800                __initfunc_timer_init_global
                0x0000000040e1c810                __initfunc_tty_init_msg
                0x0000000040e1c820                __initfunc_tty_init_global2
                0x0000000040e1c830                __initfunc_tty_init_global
                0x0000000040e1c840                __initfunc_vcpu_init_global
                0x0000000040e1c850                __initfunc_vga_init
                0x0000000040e1c860                __initfunc_vmmcall_init
                0x0000000040e1c870                __initfunc_vmmcall_boot_init
                0x0000000040e1c880                __initfunc_vmmcall_dbgsh_init_pcpu
                0x0000000040e1c890                __initfunc_vmmcall_dbgsh_init_global
                0x0000000040e1c8a0                __initfunc_vmmcall_dbgsh_init
                0x0000000040e1c8b0                __initfunc_vmmcall_iccard_init
                0x0000000040e1c8c0                __initfunc_vmmcall_log_init
                0x0000000040e1c8d0                __initfunc_vmmcall_status_init
                0x0000000040e1c8e0                __initfunc_vmmcall_status_init_global
                0x0000000040e1c8f0                __initfunc_vramwrite_init_bsp
                0x0000000040e1c900                __initfunc_vramwrite_init_msg
                0x0000000040e1c910                __initfunc_vt_register_status_callback
                0x0000000040e1c920                __initfunc_vt_panic
                0x0000000040e1c930                __initfunc_xsetbv_init
                0x0000000040e1c940                __initfunc_xsetbv_pass_init
                0x0000000040e1c950                __initfunc_core_init
                0x0000000040e1c960                __initfunc_ieee1394_init_boot
                0x0000000040e1c970                __initfunc_ieee1394_init
                0x0000000040e1c980                __initfunc_iommu_setup
                0x0000000040e1c990                __initfunc_pci_init
                0x0000000040e1c9a0                __initfunc_debug_ata_init
                0x0000000040e1c9b0                __initfunc_ata_init
                0x0000000040e1c9c0                __initfunc_uhci_init
                0x0000000040e1c9d0                __initfunc_ehci_init
                0x0000000040e1c9e0                __initfunc_pro100_init
                0x0000000040e1c9f0                __initfunc_suspend_pro1000
                0x0000000040e1ca00                __initfunc_resume_pro1000
                0x0000000040e1ca10                __initfunc_vpn_pro1000_init
                0x0000000040e1ca20                __initfunc_storage_kernel_init
                0x0000000040e1ca30                __initfunc_storage_io_initfunc
                0x0000000040e1ca40                __initfunc_vpn_kernel_init
                0x0000000040e1ca50                __initfunc_idman_kernel_init
                0x0000000040e1ca60                __initfunc_end = .
                0x0000000040e1ca60                __process_builtin = .
 *(.processes)
 .processes     0x0000000040e1ca60      0x1a0 output.o
                0x0000000040e1cc00                __process_builtin_end = .
                0x0000000040e1cc00                bss = .
 *(.bss)
 .bss           0x0000000040e1cc00  0x8bca7c8 output.o
                0x0000000040e20420                vmmsize
                0x0000000040e20428                memorysize
                0x00000000410a3ec0                pcpu_default
                0x00000000410c16e4                ps2_locked
                0x00000000410c1b88                syscallHandlerAddress
                0x00000000410c1ba0                currentProtectedApplication
                0x00000000410c1ba8                numberOfVMs
                0x00000000410c1bb0                numberOfProtectedApplications
                0x00000000410c1bb8                currentRunningApplication
                0x00000000498c2300                handler_descriptor
                0x00000000498c2508                drhd_list_head
                0x00000000498c3d40                pci_driver_list_head
                0x00000000498c3d48                pci_device_list_head
                0x00000000498c3ef0                uhci_monitor_boost_hc
                0x00000000498c3f08                usb_hc_list_head
                0x00000000498c3f10                usb_busses_head
                0x00000000498cb808                rt
                0x00000000499e5230                hContext
                0x00000000499e5238                sessionTable
                0x00000000499e5240                slotTable
                0x00000000499e5248                slotFlag
                0x00000000499e5249                libInitFlag
                0x00000000499e5e98                OPENSSL_NONPIC_relocated
                0x00000000499e5ea0                OPENSSL_ia32cap_P
                0x00000000499e6ae8                cleanse_ctr
                0x00000000499e6b48                obj_cleanup_defer
                0x00000000499e6b68                _shadow_DES_check_key
                0x00000000499e6c58                app_pkey_methods
                0x00000000499e6cc0                chelp_inited
 *(COMMON)
 *fill*         0x00000000499e73c8       0x18 
 COMMON         0x00000000499e73e0      0xec4 output.o
                0x00000000499e73e0                clflush_size
                0x00000000499e7400                sReaderContext
                0x00000000499e7460                sigx_app
                0x00000000499e7468                num_dom
                0x00000000499e7480                mszReaders
                0x00000000499e7880                prohibit_iccard_init
                0x00000000499e7888                curthread
                0x00000000499e7890                sig_app
                0x00000000499e78a0                readerState
                0x00000000499e7920                dom_io
                0x00000000499e8120                acpi_dsdt_system_state
                0x00000000499e8140                ehci_host
                0x00000000499e8148                num_of_processors
                0x00000000499e814c                e801_fake_bx
                0x00000000499e814e                iommu_detected
                0x00000000499e8150                dwReaders
                0x00000000499e8160                readerTracker
                0x00000000499e82a0                handler_descriptor_lock
                0x00000000499e82a2                e801_fake_ax
                0x00000000499e9000                . = ALIGN (0x1000)
 *fill*         0x00000000499e82a4      0xd5c 
                0x00000000499e9000                end = .

.igot.plt       0x00000000499e9000        0x0 load address 0x00000000099e9000
 .igot.plt      0x0000000000000000        0x0 output.o

/DISCARD/
 *(.gomi)
LOAD output.o
OUTPUT(bitvisor.elf elf64-x86-64)

.comment        0x0000000000000000       0x2b
 .comment       0x0000000000000000       0x2b output.o
                                       0x5fbc (size before relaxing)

.note.GNU-stack
                0x0000000000000000        0x0
 .note.GNU-stack
                0x0000000000000000        0x0 output.o

.debug_aranges  0x0000000000000000     0x6a20
 .debug_aranges
                0x0000000000000000     0x6a20 output.o

.debug_info     0x0000000000000000   0x35da26
 .debug_info    0x0000000000000000   0x35da26 output.o

.debug_abbrev   0x0000000000000000    0x569ce
 .debug_abbrev  0x0000000000000000    0x569ce output.o

.debug_line     0x0000000000000000    0x4f752
 .debug_line    0x0000000000000000    0x4f752 output.o

.debug_str      0x0000000000000000    0x36e78
 .debug_str     0x0000000000000000    0x36e78 output.o
                                     0x157f7b (size before relaxing)

.debug_loc      0x0000000000000000   0x27a449
 .debug_loc     0x0000000000000000   0x27a449 output.o

.debug_ranges   0x0000000000000000     0x5fa0
 .debug_ranges  0x0000000000000000     0x5fa0 output.o

Cross Reference Table

Symbol                                            File
ACCESS_DESCRIPTION_free                           output.o
ACCESS_DESCRIPTION_it                             output.o
ACCESS_DESCRIPTION_new                            output.o
AES_cbc_encrypt                                   output.o
AES_cfb128_encrypt                                output.o
AES_cfb1_encrypt                                  output.o
AES_cfb8_encrypt                                  output.o
AES_decrypt                                       output.o
AES_ecb_encrypt                                   output.o
AES_encrypt                                       output.o
AES_ofb128_encrypt                                output.o
AES_set_decrypt_key                               output.o
AES_set_encrypt_key                               output.o
AES_unwrap_key                                    output.o
AES_wrap_key                                      output.o
ASN1_ANY_it                                       output.o
ASN1_BIT_STRING_check                             output.o
ASN1_BIT_STRING_free                              output.o
ASN1_BIT_STRING_get_bit                           output.o
ASN1_BIT_STRING_it                                output.o
ASN1_BIT_STRING_new                               output.o
ASN1_BIT_STRING_set                               output.o
ASN1_BIT_STRING_set_bit                           output.o
ASN1_BMPSTRING_free                               output.o
ASN1_BMPSTRING_it                                 output.o
ASN1_BMPSTRING_new                                output.o
ASN1_BOOLEAN_it                                   output.o
ASN1_ENUMERATED_free                              output.o
ASN1_ENUMERATED_get                               output.o
ASN1_ENUMERATED_it                                output.o
ASN1_ENUMERATED_new                               output.o
ASN1_ENUMERATED_set                               output.o
ASN1_ENUMERATED_to_BN                             output.o
ASN1_FBOOLEAN_it                                  output.o
ASN1_GENERALIZEDTIME_adj                          output.o
ASN1_GENERALIZEDTIME_check                        output.o
ASN1_GENERALIZEDTIME_free                         output.o
ASN1_GENERALIZEDTIME_it                           output.o
ASN1_GENERALIZEDTIME_new                          output.o
ASN1_GENERALIZEDTIME_print                        output.o
ASN1_GENERALIZEDTIME_set                          output.o
ASN1_GENERALIZEDTIME_set_string                   output.o
ASN1_GENERALSTRING_free                           output.o
ASN1_GENERALSTRING_it                             output.o
ASN1_GENERALSTRING_new                            output.o
ASN1_IA5STRING_free                               output.o
ASN1_IA5STRING_it                                 output.o
ASN1_IA5STRING_new                                output.o
ASN1_INTEGER_cmp                                  output.o
ASN1_INTEGER_dup                                  output.o
ASN1_INTEGER_free                                 output.o
ASN1_INTEGER_get                                  output.o
ASN1_INTEGER_it                                   output.o
ASN1_INTEGER_new                                  output.o
ASN1_INTEGER_set                                  output.o
ASN1_INTEGER_to_BN                                output.o
ASN1_NULL_free                                    output.o
ASN1_NULL_it                                      output.o
ASN1_NULL_new                                     output.o
ASN1_OBJECT_create                                output.o
ASN1_OBJECT_free                                  output.o
ASN1_OBJECT_it                                    output.o
ASN1_OBJECT_new                                   output.o
ASN1_OCTET_STRING_NDEF_it                         output.o
ASN1_OCTET_STRING_cmp                             output.o
ASN1_OCTET_STRING_dup                             output.o
ASN1_OCTET_STRING_free                            output.o
ASN1_OCTET_STRING_it                              output.o
ASN1_OCTET_STRING_new                             output.o
ASN1_OCTET_STRING_set                             output.o
ASN1_PCTX_free                                    output.o
ASN1_PCTX_get_cert_flags                          output.o
ASN1_PCTX_get_flags                               output.o
ASN1_PCTX_get_nm_flags                            output.o
ASN1_PCTX_get_oid_flags                           output.o
ASN1_PCTX_get_str_flags                           output.o
ASN1_PCTX_new                                     output.o
ASN1_PCTX_set_cert_flags                          output.o
ASN1_PCTX_set_flags                               output.o
ASN1_PCTX_set_nm_flags                            output.o
ASN1_PCTX_set_oid_flags                           output.o
ASN1_PCTX_set_str_flags                           output.o
ASN1_PRINTABLESTRING_free                         output.o
ASN1_PRINTABLESTRING_it                           output.o
ASN1_PRINTABLESTRING_new                          output.o
ASN1_PRINTABLE_free                               output.o
ASN1_PRINTABLE_it                                 output.o
ASN1_PRINTABLE_new                                output.o
ASN1_PRINTABLE_type                               output.o
ASN1_SEQUENCE_ANY_it                              output.o
ASN1_SEQUENCE_it                                  output.o
ASN1_SET_ANY_it                                   output.o
ASN1_STRING_TABLE_add                             output.o
ASN1_STRING_TABLE_cleanup                         output.o
ASN1_STRING_TABLE_get                             output.o
ASN1_STRING_cmp                                   output.o
ASN1_STRING_copy                                  output.o
ASN1_STRING_data                                  output.o
ASN1_STRING_dup                                   output.o
ASN1_STRING_free                                  output.o
ASN1_STRING_get_default_mask                      output.o
ASN1_STRING_length                                output.o
ASN1_STRING_length_set                            output.o
ASN1_STRING_new                                   output.o
ASN1_STRING_print                                 output.o
ASN1_STRING_print_ex                              output.o
ASN1_STRING_set                                   output.o
ASN1_STRING_set0                                  output.o
ASN1_STRING_set_by_NID                            output.o
ASN1_STRING_set_default_mask                      output.o
ASN1_STRING_set_default_mask_asc                  output.o
ASN1_STRING_to_UTF8                               output.o
ASN1_STRING_type                                  output.o
ASN1_STRING_type_new                              output.o
ASN1_T61STRING_free                               output.o
ASN1_T61STRING_it                                 output.o
ASN1_T61STRING_new                                output.o
ASN1_TBOOLEAN_it                                  output.o
ASN1_TIME_adj                                     output.o
ASN1_TIME_check                                   output.o
ASN1_TIME_free                                    output.o
ASN1_TIME_it                                      output.o
ASN1_TIME_new                                     output.o
ASN1_TIME_print                                   output.o
ASN1_TIME_set                                     output.o
ASN1_TIME_set_string                              output.o
ASN1_TIME_to_generalizedtime                      output.o
ASN1_TYPE_cmp                                     output.o
ASN1_TYPE_free                                    output.o
ASN1_TYPE_get                                     output.o
ASN1_TYPE_get_int_octetstring                     output.o
ASN1_TYPE_get_octetstring                         output.o
ASN1_TYPE_new                                     output.o
ASN1_TYPE_set                                     output.o
ASN1_TYPE_set1                                    output.o
ASN1_TYPE_set_int_octetstring                     output.o
ASN1_TYPE_set_octetstring                         output.o
ASN1_UNIVERSALSTRING_free                         output.o
ASN1_UNIVERSALSTRING_it                           output.o
ASN1_UNIVERSALSTRING_new                          output.o
ASN1_UNIVERSALSTRING_to_string                    output.o
ASN1_UTCTIME_adj                                  output.o
ASN1_UTCTIME_check                                output.o
ASN1_UTCTIME_cmp_time_t                           output.o
ASN1_UTCTIME_free                                 output.o
ASN1_UTCTIME_it                                   output.o
ASN1_UTCTIME_new                                  output.o
ASN1_UTCTIME_print                                output.o
ASN1_UTCTIME_set                                  output.o
ASN1_UTCTIME_set_string                           output.o
ASN1_UTF8STRING_free                              output.o
ASN1_UTF8STRING_it                                output.o
ASN1_UTF8STRING_new                               output.o
ASN1_VISIBLESTRING_free                           output.o
ASN1_VISIBLESTRING_it                             output.o
ASN1_VISIBLESTRING_new                            output.o
ASN1_bn_print                                     output.o
ASN1_check_infinite_end                           output.o
ASN1_const_check_infinite_end                     output.o
ASN1_d2i_bio                                      output.o
ASN1_digest                                       output.o
ASN1_dup                                          output.o
ASN1_generate_nconf                               output.o
ASN1_generate_v3                                  output.o
ASN1_get_object                                   output.o
ASN1_i2d_bio                                      output.o
ASN1_item_d2i                                     output.o
ASN1_item_d2i_bio                                 output.o
ASN1_item_digest                                  output.o
ASN1_item_dup                                     output.o
ASN1_item_ex_d2i                                  output.o
ASN1_item_ex_free                                 output.o
ASN1_item_ex_i2d                                  output.o
ASN1_item_ex_new                                  output.o
ASN1_item_free                                    output.o
ASN1_item_i2d                                     output.o
ASN1_item_i2d_bio                                 output.o
ASN1_item_ndef_i2d                                output.o
ASN1_item_new                                     output.o
ASN1_item_pack                                    output.o
ASN1_item_print                                   output.o
ASN1_item_sign                                    output.o
ASN1_item_unpack                                  output.o
ASN1_item_verify                                  output.o
ASN1_mbstring_copy                                output.o
ASN1_mbstring_ncopy                               output.o
ASN1_object_size                                  output.o
ASN1_pack_string                                  output.o
ASN1_parse                                        output.o
ASN1_parse_dump                                   output.o
ASN1_primitive_free                               output.o
ASN1_primitive_new                                output.o
ASN1_put_eoc                                      output.o
ASN1_put_object                                   output.o
ASN1_seq_pack                                     output.o
ASN1_seq_unpack                                   output.o
ASN1_sign                                         output.o
ASN1_tag2bit                                      output.o
ASN1_tag2str                                      output.o
ASN1_template_d2i                                 output.o
ASN1_template_free                                output.o
ASN1_template_i2d                                 output.o
ASN1_template_new                                 output.o
ASN1_unpack_string                                output.o
ASN1_verify                                       output.o
ASN1_version                                      output.o
AUTHORITY_INFO_ACCESS_free                        output.o
AUTHORITY_INFO_ACCESS_it                          output.o
AUTHORITY_INFO_ACCESS_new                         output.o
AUTHORITY_KEYID_free                              output.o
AUTHORITY_KEYID_it                                output.o
AUTHORITY_KEYID_new                               output.o
AddCertDataByBuf                                  output.o
AddElem                                           output.o
AddIdPassDataByBuf                                output.o
AddObjTblByTlv                                    output.o
BASIC_CONSTRAINTS_free                            output.o
BASIC_CONSTRAINTS_it                              output.o
BASIC_CONSTRAINTS_new                             output.o
BF_cbc_encrypt                                    output.o
BF_cfb64_encrypt                                  output.o
BF_decrypt                                        output.o
BF_ecb_encrypt                                    output.o
BF_encrypt                                        output.o
BF_ofb64_encrypt                                  output.o
BF_options                                        output.o
BF_set_key                                        output.o
BF_version                                        output.o
BIGNUM_it                                         output.o
BIO_asn1_get_prefix                               output.o
BIO_asn1_get_suffix                               output.o
BIO_asn1_set_prefix                               output.o
BIO_asn1_set_suffix                               output.o
BIO_callback_ctrl                                 output.o
BIO_clear_flags                                   output.o
BIO_copy_next_retry                               output.o
BIO_ctrl                                          output.o
BIO_ctrl_pending                                  output.o
BIO_ctrl_wpending                                 output.o
BIO_dump                                          output.o
BIO_dump_cb                                       output.o
BIO_dump_indent                                   output.o
BIO_dump_indent_cb                                output.o
BIO_dup_chain                                     output.o
BIO_f_asn1                                        output.o
BIO_f_base64                                      output.o
BIO_f_buffer                                      output.o
BIO_f_cipher                                      output.o
BIO_f_md                                          output.o
BIO_find_type                                     output.o
BIO_free                                          output.o
BIO_free_all                                      output.o
BIO_get_callback                                  output.o
BIO_get_callback_arg                              output.o
BIO_get_ex_data                                   output.o
BIO_get_ex_new_index                              output.o
BIO_get_retry_BIO                                 output.o
BIO_get_retry_reason                              output.o
BIO_gets                                          output.o
BIO_indent                                        output.o
BIO_int_ctrl                                      output.o
BIO_method_name                                   output.o
BIO_method_type                                   output.o
BIO_new                                           output.o
BIO_new_CMS                                       output.o
BIO_new_NDEF                                      output.o
BIO_new_mem_buf                                   output.o
BIO_next                                          output.o
BIO_number_read                                   output.o
BIO_number_written                                output.o
BIO_pop                                           output.o
BIO_printf                                        output.o
BIO_ptr_ctrl                                      output.o
BIO_push                                          output.o
BIO_puts                                          output.o
BIO_read                                          output.o
BIO_s_mem                                         output.o
BIO_s_null                                        output.o
BIO_set                                           output.o
BIO_set_callback                                  output.o
BIO_set_callback_arg                              output.o
BIO_set_cipher                                    output.o
BIO_set_ex_data                                   output.o
BIO_set_flags                                     output.o
BIO_snprintf                                      output.o
BIO_test_flags                                    output.o
BIO_vfree                                         output.o
BIO_write                                         output.o
BN_BLINDING_convert                               output.o
BN_BLINDING_convert_ex                            output.o
BN_BLINDING_create_param                          output.o
BN_BLINDING_free                                  output.o
BN_BLINDING_get_flags                             output.o
BN_BLINDING_get_thread_id                         output.o
BN_BLINDING_invert                                output.o
BN_BLINDING_invert_ex                             output.o
BN_BLINDING_new                                   output.o
BN_BLINDING_set_flags                             output.o
BN_BLINDING_set_thread_id                         output.o
BN_BLINDING_thread_id                             output.o
BN_BLINDING_update                                output.o
BN_CTX_end                                        output.o
BN_CTX_free                                       output.o
BN_CTX_get                                        output.o
BN_CTX_init                                       output.o
BN_CTX_new                                        output.o
BN_CTX_start                                      output.o
BN_GENCB_call                                     output.o
BN_GF2m_add                                       output.o
BN_GF2m_arr2poly                                  output.o
BN_GF2m_mod                                       output.o
BN_GF2m_mod_arr                                   output.o
BN_GF2m_mod_div                                   output.o
BN_GF2m_mod_div_arr                               output.o
BN_GF2m_mod_exp                                   output.o
BN_GF2m_mod_exp_arr                               output.o
BN_GF2m_mod_inv                                   output.o
BN_GF2m_mod_inv_arr                               output.o
BN_GF2m_mod_mul                                   output.o
BN_GF2m_mod_mul_arr                               output.o
BN_GF2m_mod_solve_quad                            output.o
BN_GF2m_mod_solve_quad_arr                        output.o
BN_GF2m_mod_sqr                                   output.o
BN_GF2m_mod_sqr_arr                               output.o
BN_GF2m_mod_sqrt                                  output.o
BN_GF2m_mod_sqrt_arr                              output.o
BN_GF2m_poly2arr                                  output.o
BN_MONT_CTX_copy                                  output.o
BN_MONT_CTX_free                                  output.o
BN_MONT_CTX_init                                  output.o
BN_MONT_CTX_new                                   output.o
BN_MONT_CTX_set                                   output.o
BN_MONT_CTX_set_locked                            output.o
BN_RECP_CTX_free                                  output.o
BN_RECP_CTX_init                                  output.o
BN_RECP_CTX_new                                   output.o
BN_RECP_CTX_set                                   output.o
BN_add                                            output.o
BN_add_word                                       output.o
BN_asc2bn                                         output.o
BN_bin2bn                                         output.o
BN_bn2bin                                         output.o
BN_bn2dec                                         output.o
BN_bn2hex                                         output.o
BN_bntest_rand                                    output.o
BN_clear                                          output.o
BN_clear_bit                                      output.o
BN_clear_free                                     output.o
BN_cmp                                            output.o
BN_copy                                           output.o
BN_dec2bn                                         output.o
BN_div                                            output.o
BN_div_recp                                       output.o
BN_div_word                                       output.o
BN_dup                                            output.o
BN_exp                                            output.o
BN_free                                           output.o
BN_from_montgomery                                output.o
BN_gcd                                            output.o
BN_generate_prime_ex                              output.o
BN_get0_nist_prime_192                            output.o
BN_get0_nist_prime_224                            output.o
BN_get0_nist_prime_256                            output.o
BN_get0_nist_prime_384                            output.o
BN_get0_nist_prime_521                            output.o
BN_get_params                                     output.o
BN_get_word                                       output.o
BN_hex2bn                                         output.o
BN_init                                           output.o
BN_is_bit_set                                     output.o
BN_is_prime_ex                                    output.o
BN_is_prime_fasttest_ex                           output.o
BN_kronecker                                      output.o
BN_lshift                                         output.o
BN_lshift1                                        output.o
BN_mask_bits                                      output.o
BN_mod_add                                        output.o
BN_mod_add_quick                                  output.o
BN_mod_exp                                        output.o
BN_mod_exp2_mont                                  output.o
BN_mod_exp_mont                                   output.o
BN_mod_exp_mont_consttime                         output.o
BN_mod_exp_mont_word                              output.o
BN_mod_exp_recp                                   output.o
BN_mod_exp_simple                                 output.o
BN_mod_inverse                                    output.o
BN_mod_lshift                                     output.o
BN_mod_lshift1                                    output.o
BN_mod_lshift1_quick                              output.o
BN_mod_lshift_quick                               output.o
BN_mod_mul                                        output.o
BN_mod_mul_montgomery                             output.o
BN_mod_mul_reciprocal                             output.o
BN_mod_sqr                                        output.o
BN_mod_sqrt                                       output.o
BN_mod_sub                                        output.o
BN_mod_sub_quick                                  output.o
BN_mod_word                                       output.o
BN_mul                                            output.o
BN_mul_word                                       output.o
BN_new                                            output.o
BN_nist_mod_192                                   output.o
BN_nist_mod_224                                   output.o
BN_nist_mod_256                                   output.o
BN_nist_mod_384                                   output.o
BN_nist_mod_521                                   output.o
BN_nnmod                                          output.o
BN_num_bits                                       output.o
BN_num_bits_word                                  output.o
BN_options                                        output.o
BN_print                                          output.o
BN_pseudo_rand                                    output.o
BN_pseudo_rand_range                              output.o
BN_rand                                           output.o
BN_rand_range                                     output.o
BN_reciprocal                                     output.o
BN_rshift                                         output.o
BN_rshift1                                        output.o
BN_set_bit                                        output.o
BN_set_negative                                   output.o
BN_set_params                                     output.o
BN_set_word                                       output.o
BN_sqr                                            output.o
BN_sub                                            output.o
BN_sub_word                                       output.o
BN_swap                                           output.o
BN_to_ASN1_ENUMERATED                             output.o
BN_to_ASN1_INTEGER                                output.o
BN_uadd                                           output.o
BN_ucmp                                           output.o
BN_usub                                           output.o
BN_value_one                                      output.o
BN_version                                        output.o
BUF_MEM_free                                      output.o
BUF_MEM_grow                                      output.o
BUF_MEM_grow_clean                                output.o
BUF_MEM_new                                       output.o
BUF_memdup                                        output.o
BUF_reverse                                       output.o
BUF_strdup                                        output.o
BUF_strlcat                                       output.o
BUF_strlcpy                                       output.o
BUF_strndup                                       output.o
BlockSendCardT1                                   output.o
CAST_S_table0                                     output.o
CAST_S_table1                                     output.o
CAST_S_table2                                     output.o
CAST_S_table3                                     output.o
CAST_S_table4                                     output.o
CAST_S_table5                                     output.o
CAST_S_table6                                     output.o
CAST_S_table7                                     output.o
CAST_cbc_encrypt                                  output.o
CAST_cfb64_encrypt                                output.o
CAST_decrypt                                      output.o
CAST_ecb_encrypt                                  output.o
CAST_encrypt                                      output.o
CAST_ofb64_encrypt                                output.o
CAST_set_key                                      output.o
CAST_version                                      output.o
CBIGNUM_it                                        output.o
CERTIFICATEPOLICIES_free                          output.o
CERTIFICATEPOLICIES_it                            output.o
CERTIFICATEPOLICIES_new                           output.o
CMS_Attributes_Sign_it                            output.o
CMS_Attributes_Verify_it                          output.o
CMS_AuthenticatedData_it                          output.o
CMS_CertificateChoices_it                         output.o
CMS_CompressedData_it                             output.o
CMS_ContentInfo_free                              output.o
CMS_ContentInfo_it                                output.o
CMS_ContentInfo_new                               output.o
CMS_ContentInfo_print_ctx                         output.o
CMS_DigestedData_it                               output.o
CMS_EncapsulatedContentInfo_it                    output.o
CMS_EncryptedContentInfo_it                       output.o
CMS_EncryptedData_it                              output.o
CMS_EncryptedData_set1_key                        output.o
CMS_EnvelopedData_create                          output.o
CMS_EnvelopedData_it                              output.o
CMS_IssuerAndSerialNumber_it                      output.o
CMS_KEKIdentifier_it                              output.o
CMS_KEKRecipientInfo_it                           output.o
CMS_KeyAgreeRecipientIdentifier_it                output.o
CMS_KeyAgreeRecipientInfo_it                      output.o
CMS_KeyTransRecipientInfo_it                      output.o
CMS_OriginatorIdentifierOrKey_it                  output.o
CMS_OriginatorInfo_it                             output.o
CMS_OriginatorPublicKey_it                        output.o
CMS_OtherCertificateFormat_it                     output.o
CMS_OtherKeyAttribute_it                          output.o
CMS_OtherRecipientInfo_it                         output.o
CMS_OtherRevocationInfoFormat_it                  output.o
CMS_PasswordRecipientInfo_it                      output.o
CMS_ReceiptRequest_it                             output.o
CMS_Receipt_it                                    output.o
CMS_ReceiptsFrom_it                               output.o
CMS_RecipientEncryptedKey_it                      output.o
CMS_RecipientInfo_decrypt                         output.o
CMS_RecipientInfo_it                              output.o
CMS_RecipientInfo_kekri_get0_id                   output.o
CMS_RecipientInfo_kekri_id_cmp                    output.o
CMS_RecipientInfo_ktri_cert_cmp                   output.o
CMS_RecipientInfo_ktri_get0_algs                  output.o
CMS_RecipientInfo_ktri_get0_signer_id             output.o
CMS_RecipientInfo_set0_key                        output.o
CMS_RecipientInfo_set0_pkey                       output.o
CMS_RecipientInfo_type                            output.o
CMS_RecipientKeyIdentifier_it                     output.o
CMS_RevocationInfoChoice_it                       output.o
CMS_SignedData_init                               output.o
CMS_SignedData_it                                 output.o
CMS_SignerIdentifier_it                           output.o
CMS_SignerInfo_cert_cmp                           output.o
CMS_SignerInfo_get0_algs                          output.o
CMS_SignerInfo_get0_signer_id                     output.o
CMS_SignerInfo_it                                 output.o
CMS_SignerInfo_set1_signer_cert                   output.o
CMS_SignerInfo_sign                               output.o
CMS_SignerInfo_verify                             output.o
CMS_SignerInfo_verify_content                     output.o
CMS_add0_CertificateChoices                       output.o
CMS_add0_RevocationInfoChoice                     output.o
CMS_add0_cert                                     output.o
CMS_add0_crl                                      output.o
CMS_add0_recipient_key                            output.o
CMS_add1_cert                                     output.o
CMS_add1_crl                                      output.o
CMS_add1_recipient_cert                           output.o
CMS_add1_signer                                   output.o
CMS_add_simple_smimecap                           output.o
CMS_add_smimecap                                  output.o
CMS_add_standard_smimecap                         output.o
CMS_dataFinal                                     output.o
CMS_dataInit                                      output.o
CMS_get0_RecipientInfos                           output.o
CMS_get0_SignerInfos                              output.o
CMS_get0_content                                  output.o
CMS_get0_eContentType                             output.o
CMS_get0_signers                                  output.o
CMS_get0_type                                     output.o
CMS_get1_certs                                    output.o
CMS_get1_crls                                     output.o
CMS_is_detached                                   output.o
CMS_set1_eContentType                             output.o
CMS_set1_signers_certs                            output.o
CMS_set_detached                                  output.o
CMS_signed_add1_attr                              output.o
CMS_signed_add1_attr_by_NID                       output.o
CMS_signed_add1_attr_by_OBJ                       output.o
CMS_signed_add1_attr_by_txt                       output.o
CMS_signed_delete_attr                            output.o
CMS_signed_get0_data_by_OBJ                       output.o
CMS_signed_get_attr                               output.o
CMS_signed_get_attr_by_NID                        output.o
CMS_signed_get_attr_by_OBJ                        output.o
CMS_signed_get_attr_count                         output.o
CMS_stream                                        output.o
CMS_unsigned_add1_attr                            output.o
CMS_unsigned_add1_attr_by_NID                     output.o
CMS_unsigned_add1_attr_by_OBJ                     output.o
CMS_unsigned_add1_attr_by_txt                     output.o
CMS_unsigned_delete_attr                          output.o
CMS_unsigned_get0_data_by_OBJ                     output.o
CMS_unsigned_get_attr                             output.o
CMS_unsigned_get_attr_by_NID                      output.o
CMS_unsigned_get_attr_by_OBJ                      output.o
CMS_unsigned_get_attr_count                       output.o
CONF_def_version                                  output.o
CONF_dump_bio                                     output.o
CONF_free                                         output.o
CONF_get1_default_config_file                     output.o
CONF_get_number                                   output.o
CONF_get_section                                  output.o
CONF_get_string                                   output.o
CONF_imodule_get_flags                            output.o
CONF_imodule_get_module                           output.o
CONF_imodule_get_name                             output.o
CONF_imodule_get_usr_data                         output.o
CONF_imodule_get_value                            output.o
CONF_imodule_set_flags                            output.o
CONF_imodule_set_usr_data                         output.o
CONF_load                                         output.o
CONF_load_bio                                     output.o
CONF_module_add                                   output.o
CONF_module_get_usr_data                          output.o
CONF_module_set_usr_data                          output.o
CONF_modules_finish                               output.o
CONF_modules_free                                 output.o
CONF_modules_load                                 output.o
CONF_modules_load_file                            output.o
CONF_modules_unload                               output.o
CONF_parse_list                                   output.o
CONF_set_default_method                           output.o
CONF_set_nconf                                    output.o
CONF_version                                      output.o
CRL_DIST_POINTS_free                              output.o
CRL_DIST_POINTS_it                                output.o
CRL_DIST_POINTS_new                               output.o
CRYPTO_THREADID_cmp                               output.o
CRYPTO_THREADID_cpy                               output.o
CRYPTO_THREADID_current                           output.o
CRYPTO_THREADID_get_callback                      output.o
CRYPTO_THREADID_hash                              output.o
CRYPTO_THREADID_set_callback                      output.o
CRYPTO_THREADID_set_numeric                       output.o
CRYPTO_THREADID_set_pointer                       output.o
CRYPTO_add_lock                                   output.o
CRYPTO_cbc128_decrypt                             output.o
CRYPTO_cbc128_encrypt                             output.o
CRYPTO_cfb128_1_encrypt                           output.o
CRYPTO_cfb128_8_encrypt                           output.o
CRYPTO_cfb128_encrypt                             output.o
CRYPTO_cleanup_all_ex_data                        output.o
CRYPTO_dbg_free                                   output.o
CRYPTO_dbg_get_options                            output.o
CRYPTO_dbg_malloc                                 output.o
CRYPTO_dbg_realloc                                output.o
CRYPTO_dbg_set_options                            output.o
CRYPTO_destroy_dynlockid                          output.o
CRYPTO_dup_ex_data                                output.o
CRYPTO_ex_data_new_class                          output.o
CRYPTO_free                                       output.o
CRYPTO_free_ex_data                               output.o
CRYPTO_free_locked                                output.o
CRYPTO_get_add_lock_callback                      output.o
CRYPTO_get_dynlock_create_callback                output.o
CRYPTO_get_dynlock_destroy_callback               output.o
CRYPTO_get_dynlock_lock_callback                  output.o
CRYPTO_get_dynlock_value                          output.o
CRYPTO_get_ex_data                                output.o
CRYPTO_get_ex_data_implementation                 output.o
CRYPTO_get_ex_new_index                           output.o
CRYPTO_get_id_callback                            output.o
CRYPTO_get_lock_name                              output.o
CRYPTO_get_locked_mem_ex_functions                output.o
CRYPTO_get_locked_mem_functions                   output.o
CRYPTO_get_locking_callback                       output.o
CRYPTO_get_mem_debug_functions                    output.o
CRYPTO_get_mem_debug_options                      output.o
CRYPTO_get_mem_ex_functions                       output.o
CRYPTO_get_mem_functions                          output.o
CRYPTO_get_new_dynlockid                          output.o
CRYPTO_get_new_lockid                             output.o
CRYPTO_is_mem_check_on                            output.o
CRYPTO_lock                                       output.o
CRYPTO_malloc                                     output.o
CRYPTO_malloc_locked                              output.o
CRYPTO_mem_ctrl                                   output.o
CRYPTO_mem_leaks                                  output.o
CRYPTO_mem_leaks_cb                               output.o
CRYPTO_new_ex_data                                output.o
CRYPTO_num_locks                                  output.o
CRYPTO_ofb128_encrypt                             output.o
CRYPTO_pop_info                                   output.o
CRYPTO_push_info_                                 output.o
CRYPTO_realloc                                    output.o
CRYPTO_realloc_clean                              output.o
CRYPTO_remalloc                                   output.o
CRYPTO_remove_all_info                            output.o
CRYPTO_set_add_lock_callback                      output.o
CRYPTO_set_dynlock_create_callback                output.o
CRYPTO_set_dynlock_destroy_callback               output.o
CRYPTO_set_dynlock_lock_callback                  output.o
CRYPTO_set_ex_data                                output.o
CRYPTO_set_ex_data_implementation                 output.o
CRYPTO_set_id_callback                            output.o
CRYPTO_set_locked_mem_ex_functions                output.o
CRYPTO_set_locked_mem_functions                   output.o
CRYPTO_set_locking_callback                       output.o
CRYPTO_set_mem_debug_functions                    output.o
CRYPTO_set_mem_debug_options                      output.o
CRYPTO_set_mem_ex_functions                       output.o
CRYPTO_set_mem_functions                          output.o
CRYPTO_strdup                                     output.o
CRYPTO_thread_id                                  output.o
C_CloseAllSessions                                output.o
C_CloseSession                                    output.o
C_CreateObject                                    output.o
C_DestroyObject                                   output.o
C_DigestFinal                                     output.o
C_DigestInit                                      output.o
C_DigestUpdate                                    output.o
C_Finalize                                        output.o
C_FindObjects                                     output.o
C_FindObjectsFinal                                output.o
C_FindObjectsInit                                 output.o
C_GetAttributeValue                               output.o
C_GetCardStatus                                   output.o
C_GetFunctionList                                 output.o
C_GetInfo                                         output.o
C_GetMechanismInfo                                output.o
C_GetMechanismList                                output.o
C_GetSessionInfo                                  output.o
C_GetSlotInfo                                     output.o
C_GetSlotList                                     output.o
C_GetTokenInfo                                    output.o
C_Initialize                                      output.o
C_Login                                           output.o
C_Logout                                          output.o
C_OpenSession                                     output.o
C_SetAttributeValue                               output.o
C_Sign                                            output.o
C_SignInit                                        output.o
C_Verify                                          output.o
C_VerifyInit                                      output.o
CardConnect                                       output.o
CardDisconnect                                    output.o
CardEstablishContext                              output.o
CardListReaders                                   output.o
CardMechanical                                    output.o
CardReleaseContext                                output.o
CardStateConfirm                                  output.o
CardStatus                                        output.o
CardTransmit                                      output.o
CloseUSB                                          output.o
DES_SPtrans                                       output.o
DES_cfb64_encrypt                                 output.o
DES_cfb_encrypt                                   output.o
DES_check_key_parity                              output.o
DES_decrypt3                                      output.o
DES_ecb3_encrypt                                  output.o
DES_ecb_encrypt                                   output.o
DES_ede3_cbc_encrypt                              output.o
DES_ede3_cfb64_encrypt                            output.o
DES_ede3_cfb_encrypt                              output.o
DES_ede3_ofb64_encrypt                            output.o
DES_encrypt1                                      output.o
DES_encrypt2                                      output.o
DES_encrypt3                                      output.o
DES_is_weak_key                                   output.o
DES_key_sched                                     output.o
DES_ncbc_encrypt                                  output.o
DES_ofb64_encrypt                                 output.o
DES_options                                       output.o
DES_random_key                                    output.o
DES_set_key                                       output.o
DES_set_key_checked                               output.o
DES_set_key_unchecked                             output.o
DES_set_odd_parity                                output.o
DES_xcbc_encrypt                                  output.o
DH_OpenSSL                                        output.o
DH_check                                          output.o
DH_check_pub_key                                  output.o
DH_compute_key                                    output.o
DH_free                                           output.o
DH_generate_key                                   output.o
DH_generate_parameters_ex                         output.o
DH_get_default_method                             output.o
DH_get_ex_data                                    output.o
DH_get_ex_new_index                               output.o
DH_new                                            output.o
DH_new_method                                     output.o
DH_set_default_method                             output.o
DH_set_ex_data                                    output.o
DH_set_method                                     output.o
DH_size                                           output.o
DH_up_ref                                         output.o
DH_version                                        output.o
DHparams_dup                                      output.o
DHparams_it                                       output.o
DHparams_print                                    output.o
DI                                                output.o
DIRECTORYSTRING_free                              output.o
DIRECTORYSTRING_it                                output.o
DIRECTORYSTRING_new                               output.o
DISPLAYTEXT_free                                  output.o
DISPLAYTEXT_it                                    output.o
DISPLAYTEXT_new                                   output.o
DIST_POINT_NAME_free                              output.o
DIST_POINT_NAME_it                                output.o
DIST_POINT_NAME_new                               output.o
DIST_POINT_free                                   output.o
DIST_POINT_it                                     output.o
DIST_POINT_new                                    output.o
DIST_POINT_set_dpname                             output.o
DSAPrivateKey_it                                  output.o
DSAPublicKey_it                                   output.o
DSA_OpenSSL                                       output.o
DSA_SIG_free                                      output.o
DSA_SIG_it                                        output.o
DSA_SIG_new                                       output.o
DSA_do_sign                                       output.o
DSA_do_verify                                     output.o
DSA_dup_DH                                        output.o
DSA_free                                          output.o
DSA_generate_key                                  output.o
DSA_generate_parameters_ex                        output.o
DSA_get_default_method                            output.o
DSA_get_ex_data                                   output.o
DSA_get_ex_new_index                              output.o
DSA_new                                           output.o
DSA_new_method                                    output.o
DSA_set_default_method                            output.o
DSA_set_ex_data                                   output.o
DSA_set_method                                    output.o
DSA_sign                                          output.o
DSA_sign_setup                                    output.o
DSA_size                                          output.o
DSA_up_ref                                        output.o
DSA_verify                                        output.o
DSA_version                                       output.o
DSAparams_dup                                     output.o
DSAparams_it                                      output.o
DSO_METHOD_null                                   output.o
DSO_METHOD_openssl                                output.o
DSO_bind_func                                     output.o
DSO_bind_var                                      output.o
DSO_convert_filename                              output.o
DSO_ctrl                                          output.o
DSO_flags                                         output.o
DSO_free                                          output.o
DSO_get_default_method                            output.o
DSO_get_filename                                  output.o
DSO_get_loaded_filename                           output.o
DSO_get_method                                    output.o
DSO_global_lookup                                 output.o
DSO_load                                          output.o
DSO_merge                                         output.o
DSO_new                                           output.o
DSO_new_method                                    output.o
DSO_pathbyaddr                                    output.o
DSO_set_default_method                            output.o
DSO_set_filename                                  output.o
DSO_set_method                                    output.o
DSO_set_name_converter                            output.o
DSO_up_ref                                        output.o
DelElem                                           output.o
DestroyAttribute                                  output.o
DestroyElem                                       output.o
DestroyList                                       output.o
DestroySessionData                                output.o
DestroySlotData                                   output.o
DestroyTlvData                                    output.o
DestroyTokenData                                  output.o
ECDH_OpenSSL                                      output.o
ECDH_compute_key                                  output.o
ECDH_get_default_method                           output.o
ECDH_get_ex_data                                  output.o
ECDH_get_ex_new_index                             output.o
ECDH_set_default_method                           output.o
ECDH_set_ex_data                                  output.o
ECDH_set_method                                   output.o
ECDH_version                                      output.o
ECDSA_OpenSSL                                     output.o
ECDSA_SIG_free                                    output.o
ECDSA_SIG_it                                      output.o
ECDSA_SIG_new                                     output.o
ECDSA_do_sign                                     output.o
ECDSA_do_sign_ex                                  output.o
ECDSA_do_verify                                   output.o
ECDSA_get_default_method                          output.o
ECDSA_get_ex_data                                 output.o
ECDSA_get_ex_new_index                            output.o
ECDSA_set_default_method                          output.o
ECDSA_set_ex_data                                 output.o
ECDSA_set_method                                  output.o
ECDSA_sign                                        output.o
ECDSA_sign_ex                                     output.o
ECDSA_sign_setup                                  output.o
ECDSA_size                                        output.o
ECDSA_verify                                      output.o
ECDSA_version                                     output.o
ECPARAMETERS_free                                 output.o
ECPARAMETERS_it                                   output.o
ECPARAMETERS_new                                  output.o
ECPKPARAMETERS_free                               output.o
ECPKPARAMETERS_it                                 output.o
ECPKPARAMETERS_new                                output.o
ECPKParameters_print                              output.o
ECParameters_print                                output.o
EC_EX_DATA_clear_free_all_data                    output.o
EC_EX_DATA_clear_free_data                        output.o
EC_EX_DATA_free_all_data                          output.o
EC_EX_DATA_free_data                              output.o
EC_EX_DATA_get_data                               output.o
EC_EX_DATA_set_data                               output.o
EC_GF2m_simple_method                             output.o
EC_GFp_mont_method                                output.o
EC_GFp_nist_method                                output.o
EC_GFp_simple_method                              output.o
EC_GROUP_check_discriminant                       output.o
EC_GROUP_clear_free                               output.o
EC_GROUP_cmp                                      output.o
EC_GROUP_copy                                     output.o
EC_GROUP_dup                                      output.o
EC_GROUP_free                                     output.o
EC_GROUP_get0_generator                           output.o
EC_GROUP_get0_seed                                output.o
EC_GROUP_get_asn1_flag                            output.o
EC_GROUP_get_basis_type                           output.o
EC_GROUP_get_cofactor                             output.o
EC_GROUP_get_curve_GF2m                           output.o
EC_GROUP_get_curve_GFp                            output.o
EC_GROUP_get_curve_name                           output.o
EC_GROUP_get_degree                               output.o
EC_GROUP_get_order                                output.o
EC_GROUP_get_pentanomial_basis                    output.o
EC_GROUP_get_point_conversion_form                output.o
EC_GROUP_get_seed_len                             output.o
EC_GROUP_get_trinomial_basis                      output.o
EC_GROUP_have_precompute_mult                     output.o
EC_GROUP_method_of                                output.o
EC_GROUP_new                                      output.o
EC_GROUP_new_by_curve_name                        output.o
EC_GROUP_new_curve_GF2m                           output.o
EC_GROUP_new_curve_GFp                            output.o
EC_GROUP_precompute_mult                          output.o
EC_GROUP_set_asn1_flag                            output.o
EC_GROUP_set_curve_GF2m                           output.o
EC_GROUP_set_curve_GFp                            output.o
EC_GROUP_set_curve_name                           output.o
EC_GROUP_set_generator                            output.o
EC_GROUP_set_point_conversion_form                output.o
EC_GROUP_set_seed                                 output.o
EC_KEY_check_key                                  output.o
EC_KEY_copy                                       output.o
EC_KEY_dup                                        output.o
EC_KEY_free                                       output.o
EC_KEY_generate_key                               output.o
EC_KEY_get0_group                                 output.o
EC_KEY_get0_private_key                           output.o
EC_KEY_get0_public_key                            output.o
EC_KEY_get_conv_form                              output.o
EC_KEY_get_enc_flags                              output.o
EC_KEY_get_key_method_data                        output.o
EC_KEY_insert_key_method_data                     output.o
EC_KEY_new                                        output.o
EC_KEY_new_by_curve_name                          output.o
EC_KEY_precompute_mult                            output.o
EC_KEY_print                                      output.o
EC_KEY_set_asn1_flag                              output.o
EC_KEY_set_conv_form                              output.o
EC_KEY_set_enc_flags                              output.o
EC_KEY_set_group                                  output.o
EC_KEY_set_private_key                            output.o
EC_KEY_set_public_key                             output.o
EC_KEY_up_ref                                     output.o
EC_METHOD_get_field_type                          output.o
EC_POINT_add                                      output.o
EC_POINT_bn2point                                 output.o
EC_POINT_clear_free                               output.o
EC_POINT_cmp                                      output.o
EC_POINT_copy                                     output.o
EC_POINT_dbl                                      output.o
EC_POINT_dup                                      output.o
EC_POINT_free                                     output.o
EC_POINT_get_Jprojective_coordinates_GFp          output.o
EC_POINT_get_affine_coordinates_GF2m              output.o
EC_POINT_get_affine_coordinates_GFp               output.o
EC_POINT_hex2point                                output.o
EC_POINT_invert                                   output.o
EC_POINT_is_at_infinity                           output.o
EC_POINT_is_on_curve                              output.o
EC_POINT_make_affine                              output.o
EC_POINT_method_of                                output.o
EC_POINT_mul                                      output.o
EC_POINT_new                                      output.o
EC_POINT_oct2point                                output.o
EC_POINT_point2bn                                 output.o
EC_POINT_point2hex                                output.o
EC_POINT_point2oct                                output.o
EC_POINT_set_Jprojective_coordinates_GFp          output.o
EC_POINT_set_affine_coordinates_GF2m              output.o
EC_POINT_set_affine_coordinates_GFp               output.o
EC_POINT_set_compressed_coordinates_GF2m          output.o
EC_POINT_set_compressed_coordinates_GFp           output.o
EC_POINT_set_to_infinity                          output.o
EC_POINTs_make_affine                             output.o
EC_POINTs_mul                                     output.o
EC_PRIVATEKEY_free                                output.o
EC_PRIVATEKEY_it                                  output.o
EC_PRIVATEKEY_new                                 output.o
EC_get_builtin_curves                             output.o
EDIPARTYNAME_free                                 output.o
EDIPARTYNAME_it                                   output.o
EDIPARTYNAME_new                                  output.o
EHDestroyEventHandler                             output.o
EHInitEventHandler                                output.o
EHStatusHandler                                   output.o
ERR_add_error_data                                output.o
ERR_clear_error                                   output.o
ERR_error_string                                  output.o
ERR_error_string_n                                output.o
ERR_free_strings                                  output.o
ERR_func_error_string                             output.o
ERR_get_err_state_table                           output.o
ERR_get_error                                     output.o
ERR_get_error_line                                output.o
ERR_get_error_line_data                           output.o
ERR_get_implementation                            output.o
ERR_get_next_error_library                        output.o
ERR_get_state                                     output.o
ERR_get_string_table                              output.o
ERR_lib_error_string                              output.o
ERR_load_ASN1_strings                             output.o
ERR_load_BIO_strings                              output.o
ERR_load_BN_strings                               output.o
ERR_load_BUF_strings                              output.o
ERR_load_CMS_strings                              output.o
ERR_load_COMP_strings                             output.o
ERR_load_CONF_strings                             output.o
ERR_load_CRYPTO_strings                           output.o
ERR_load_DH_strings                               output.o
ERR_load_DSA_strings                              output.o
ERR_load_DSO_strings                              output.o
ERR_load_ECDH_strings                             output.o
ERR_load_ECDSA_strings                            output.o
ERR_load_EC_strings                               output.o
ERR_load_ERR_strings                              output.o
ERR_load_EVP_strings                              output.o
ERR_load_OBJ_strings                              output.o
ERR_load_OCSP_strings                             output.o
ERR_load_PEM_strings                              output.o
ERR_load_PKCS12_strings                           output.o
ERR_load_PKCS7_strings                            output.o
ERR_load_RAND_strings                             output.o
ERR_load_RSA_strings                              output.o
ERR_load_TS_strings                               output.o
ERR_load_UI_strings                               output.o
ERR_load_X509V3_strings                           output.o
ERR_load_X509_strings                             output.o
ERR_load_crypto_strings                           output.o
ERR_load_strings                                  output.o
ERR_peek_error                                    output.o
ERR_peek_error_line                               output.o
ERR_peek_error_line_data                          output.o
ERR_peek_last_error                               output.o
ERR_peek_last_error_line                          output.o
ERR_peek_last_error_line_data                     output.o
ERR_pop_to_mark                                   output.o
ERR_print_errors                                  output.o
ERR_print_errors_cb                               output.o
ERR_put_error                                     output.o
ERR_reason_error_string                           output.o
ERR_release_err_state_table                       output.o
ERR_remove_state                                  output.o
ERR_remove_thread_state                           output.o
ERR_set_error_data                                output.o
ERR_set_implementation                            output.o
ERR_set_mark                                      output.o
ERR_unload_strings                                output.o
EVP_BytesToKey                                    output.o
EVP_CIPHER_CTX_block_size                         output.o
EVP_CIPHER_CTX_cipher                             output.o
EVP_CIPHER_CTX_cleanup                            output.o
EVP_CIPHER_CTX_clear_flags                        output.o
EVP_CIPHER_CTX_copy                               output.o
EVP_CIPHER_CTX_ctrl                               output.o
EVP_CIPHER_CTX_flags                              output.o
EVP_CIPHER_CTX_free                               output.o
EVP_CIPHER_CTX_get_app_data                       output.o
EVP_CIPHER_CTX_init                               output.o
EVP_CIPHER_CTX_iv_length                          output.o
EVP_CIPHER_CTX_key_length                         output.o
EVP_CIPHER_CTX_new                                output.o
EVP_CIPHER_CTX_nid                                output.o
EVP_CIPHER_CTX_rand_key                           output.o
EVP_CIPHER_CTX_set_app_data                       output.o
EVP_CIPHER_CTX_set_flags                          output.o
EVP_CIPHER_CTX_set_key_length                     output.o
EVP_CIPHER_CTX_set_padding                        output.o
EVP_CIPHER_CTX_test_flags                         output.o
EVP_CIPHER_asn1_to_param                          output.o
EVP_CIPHER_block_size                             output.o
EVP_CIPHER_do_all                                 output.o
EVP_CIPHER_do_all_sorted                          output.o
EVP_CIPHER_flags                                  output.o
EVP_CIPHER_get_asn1_iv                            output.o
EVP_CIPHER_iv_length                              output.o
EVP_CIPHER_key_length                             output.o
EVP_CIPHER_nid                                    output.o
EVP_CIPHER_param_to_asn1                          output.o
EVP_CIPHER_set_asn1_iv                            output.o
EVP_CIPHER_type                                   output.o
EVP_Cipher                                        output.o
EVP_CipherFinal                                   output.o
EVP_CipherFinal_ex                                output.o
EVP_CipherInit                                    output.o
EVP_CipherInit_ex                                 output.o
EVP_CipherUpdate                                  output.o
EVP_DecodeBlock                                   output.o
EVP_DecodeFinal                                   output.o
EVP_DecodeInit                                    output.o
EVP_DecodeUpdate                                  output.o
EVP_DecryptFinal                                  output.o
EVP_DecryptFinal_ex                               output.o
EVP_DecryptInit                                   output.o
EVP_DecryptInit_ex                                output.o
EVP_DecryptUpdate                                 output.o
EVP_Digest                                        output.o
EVP_DigestFinal                                   output.o
EVP_DigestFinal_ex                                output.o
EVP_DigestInit                                    output.o
EVP_DigestInit_ex                                 output.o
EVP_DigestSignFinal                               output.o
EVP_DigestSignInit                                output.o
EVP_DigestUpdate                                  output.o
EVP_DigestVerifyFinal                             output.o
EVP_DigestVerifyInit                              output.o
EVP_EncodeBlock                                   output.o
EVP_EncodeFinal                                   output.o
EVP_EncodeInit                                    output.o
EVP_EncodeUpdate                                  output.o
EVP_EncryptFinal                                  output.o
EVP_EncryptFinal_ex                               output.o
EVP_EncryptInit                                   output.o
EVP_EncryptInit_ex                                output.o
EVP_EncryptUpdate                                 output.o
EVP_MD_CTX_cleanup                                output.o
EVP_MD_CTX_clear_flags                            output.o
EVP_MD_CTX_copy                                   output.o
EVP_MD_CTX_copy_ex                                output.o
EVP_MD_CTX_create                                 output.o
EVP_MD_CTX_destroy                                output.o
EVP_MD_CTX_init                                   output.o
EVP_MD_CTX_md                                     output.o
EVP_MD_CTX_set_flags                              output.o
EVP_MD_CTX_test_flags                             output.o
EVP_MD_block_size                                 output.o
EVP_MD_do_all                                     output.o
EVP_MD_do_all_sorted                              output.o
EVP_MD_flags                                      output.o
EVP_MD_pkey_type                                  output.o
EVP_MD_size                                       output.o
EVP_MD_type                                       output.o
EVP_PBE_CipherInit                                output.o
EVP_PBE_alg_add                                   output.o
EVP_PBE_alg_add_type                              output.o
EVP_PBE_cleanup                                   output.o
EVP_PBE_find                                      output.o
EVP_PKCS82PKEY                                    output.o
EVP_PKEY2PKCS8                                    output.o
EVP_PKEY2PKCS8_broken                             output.o
EVP_PKEY_CTX_ctrl                                 output.o
EVP_PKEY_CTX_ctrl_str                             output.o
EVP_PKEY_CTX_dup                                  output.o
EVP_PKEY_CTX_free                                 output.o
EVP_PKEY_CTX_get0_peerkey                         output.o
EVP_PKEY_CTX_get0_pkey                            output.o
EVP_PKEY_CTX_get_app_data                         output.o
EVP_PKEY_CTX_get_cb                               output.o
EVP_PKEY_CTX_get_data                             output.o
EVP_PKEY_CTX_get_keygen_info                      output.o
EVP_PKEY_CTX_get_operation                        output.o
EVP_PKEY_CTX_new                                  output.o
EVP_PKEY_CTX_new_id                               output.o
EVP_PKEY_CTX_set0_keygen_info                     output.o
EVP_PKEY_CTX_set_app_data                         output.o
EVP_PKEY_CTX_set_cb                               output.o
EVP_PKEY_CTX_set_data                             output.o
EVP_PKEY_add1_attr                                output.o
EVP_PKEY_add1_attr_by_NID                         output.o
EVP_PKEY_add1_attr_by_OBJ                         output.o
EVP_PKEY_add1_attr_by_txt                         output.o
EVP_PKEY_asn1_add0                                output.o
EVP_PKEY_asn1_add_alias                           output.o
EVP_PKEY_asn1_copy                                output.o
EVP_PKEY_asn1_find                                output.o
EVP_PKEY_asn1_find_str                            output.o
EVP_PKEY_asn1_free                                output.o
EVP_PKEY_asn1_get0                                output.o
EVP_PKEY_asn1_get0_info                           output.o
EVP_PKEY_asn1_get_count                           output.o
EVP_PKEY_asn1_new                                 output.o
EVP_PKEY_asn1_set_ctrl                            output.o
EVP_PKEY_asn1_set_free                            output.o
EVP_PKEY_asn1_set_param                           output.o
EVP_PKEY_asn1_set_private                         output.o
EVP_PKEY_asn1_set_public                          output.o
EVP_PKEY_assign                                   output.o
EVP_PKEY_base_id                                  output.o
EVP_PKEY_bits                                     output.o
EVP_PKEY_cmp                                      output.o
EVP_PKEY_cmp_parameters                           output.o
EVP_PKEY_copy_parameters                          output.o
EVP_PKEY_decrypt                                  output.o
EVP_PKEY_decrypt_init                             output.o
EVP_PKEY_delete_attr                              output.o
EVP_PKEY_derive                                   output.o
EVP_PKEY_derive_init                              output.o
EVP_PKEY_derive_set_peer                          output.o
EVP_PKEY_encrypt                                  output.o
EVP_PKEY_encrypt_init                             output.o
EVP_PKEY_free                                     output.o
EVP_PKEY_get0                                     output.o
EVP_PKEY_get0_asn1                                output.o
EVP_PKEY_get1_DH                                  output.o
EVP_PKEY_get1_DSA                                 output.o
EVP_PKEY_get1_EC_KEY                              output.o
EVP_PKEY_get1_RSA                                 output.o
EVP_PKEY_get_attr                                 output.o
EVP_PKEY_get_attr_by_NID                          output.o
EVP_PKEY_get_attr_by_OBJ                          output.o
EVP_PKEY_get_attr_count                           output.o
EVP_PKEY_get_default_digest_nid                   output.o
EVP_PKEY_id                                       output.o
EVP_PKEY_keygen                                   output.o
EVP_PKEY_keygen_init                              output.o
EVP_PKEY_meth_add0                                output.o
EVP_PKEY_meth_find                                output.o
EVP_PKEY_meth_free                                output.o
EVP_PKEY_meth_new                                 output.o
EVP_PKEY_meth_set_cleanup                         output.o
EVP_PKEY_meth_set_copy                            output.o
EVP_PKEY_meth_set_ctrl                            output.o
EVP_PKEY_meth_set_decrypt                         output.o
EVP_PKEY_meth_set_derive                          output.o
EVP_PKEY_meth_set_encrypt                         output.o
EVP_PKEY_meth_set_init                            output.o
EVP_PKEY_meth_set_keygen                          output.o
EVP_PKEY_meth_set_paramgen                        output.o
EVP_PKEY_meth_set_sign                            output.o
EVP_PKEY_meth_set_signctx                         output.o
EVP_PKEY_meth_set_verify                          output.o
EVP_PKEY_meth_set_verify_recover                  output.o
EVP_PKEY_meth_set_verifyctx                       output.o
EVP_PKEY_missing_parameters                       output.o
EVP_PKEY_new                                      output.o
EVP_PKEY_new_mac_key                              output.o
EVP_PKEY_paramgen                                 output.o
EVP_PKEY_paramgen_init                            output.o
EVP_PKEY_print_params                             output.o
EVP_PKEY_print_private                            output.o
EVP_PKEY_print_public                             output.o
EVP_PKEY_save_parameters                          output.o
EVP_PKEY_set1_DH                                  output.o
EVP_PKEY_set1_DSA                                 output.o
EVP_PKEY_set1_EC_KEY                              output.o
EVP_PKEY_set1_RSA                                 output.o
EVP_PKEY_set_type                                 output.o
EVP_PKEY_set_type_str                             output.o
EVP_PKEY_sign                                     output.o
EVP_PKEY_sign_init                                output.o
EVP_PKEY_size                                     output.o
EVP_PKEY_type                                     output.o
EVP_PKEY_verify                                   output.o
EVP_PKEY_verify_init                              output.o
EVP_PKEY_verify_recover                           output.o
EVP_PKEY_verify_recover_init                      output.o
EVP_SignFinal                                     output.o
EVP_VerifyFinal                                   output.o
EVP_add_cipher                                    output.o
EVP_add_digest                                    output.o
EVP_aes_128_cbc                                   output.o
EVP_aes_128_cfb1                                  output.o
EVP_aes_128_cfb128                                output.o
EVP_aes_128_cfb8                                  output.o
EVP_aes_128_ecb                                   output.o
EVP_aes_128_ofb                                   output.o
EVP_aes_192_cbc                                   output.o
EVP_aes_192_cfb1                                  output.o
EVP_aes_192_cfb128                                output.o
EVP_aes_192_cfb8                                  output.o
EVP_aes_192_ecb                                   output.o
EVP_aes_192_ofb                                   output.o
EVP_aes_256_cbc                                   output.o
EVP_aes_256_cfb1                                  output.o
EVP_aes_256_cfb128                                output.o
EVP_aes_256_cfb8                                  output.o
EVP_aes_256_ecb                                   output.o
EVP_aes_256_ofb                                   output.o
EVP_bf_cbc                                        output.o
EVP_bf_cfb64                                      output.o
EVP_bf_ecb                                        output.o
EVP_bf_ofb                                        output.o
EVP_cast5_cbc                                     output.o
EVP_cast5_cfb64                                   output.o
EVP_cast5_ecb                                     output.o
EVP_cast5_ofb                                     output.o
EVP_cleanup                                       output.o
EVP_des_cbc                                       output.o
EVP_des_cfb1                                      output.o
EVP_des_cfb64                                     output.o
EVP_des_cfb8                                      output.o
EVP_des_ecb                                       output.o
EVP_des_ede                                       output.o
EVP_des_ede3                                      output.o
EVP_des_ede3_cbc                                  output.o
EVP_des_ede3_cfb1                                 output.o
EVP_des_ede3_cfb64                                output.o
EVP_des_ede3_cfb8                                 output.o
EVP_des_ede3_ecb                                  output.o
EVP_des_ede3_ofb                                  output.o
EVP_des_ede_cbc                                   output.o
EVP_des_ede_cfb64                                 output.o
EVP_des_ede_ecb                                   output.o
EVP_des_ede_ofb                                   output.o
EVP_des_ofb                                       output.o
EVP_desx_cbc                                      output.o
EVP_dss                                           output.o
EVP_dss1                                          output.o
EVP_ecdsa                                         output.o
EVP_get_cipherbyname                              output.o
EVP_get_digestbyname                              output.o
EVP_get_pw_prompt                                 output.o
EVP_idea_cbc                                      output.o
EVP_idea_cfb64                                    output.o
EVP_idea_ecb                                      output.o
EVP_idea_ofb                                      output.o
EVP_md4                                           output.o
EVP_md5                                           output.o
EVP_rc2_40_cbc                                    output.o
EVP_rc2_64_cbc                                    output.o
EVP_rc2_cbc                                       output.o
EVP_rc2_cfb64                                     output.o
EVP_rc2_ecb                                       output.o
EVP_rc2_ofb                                       output.o
EVP_rc4                                           output.o
EVP_rc4_40                                        output.o
EVP_read_pw_string                                output.o
EVP_read_pw_string_min                            output.o
EVP_ripemd160                                     output.o
EVP_set_pw_prompt                                 output.o
EVP_sha                                           output.o
EVP_sha1                                          output.o
EVP_sha224                                        output.o
EVP_sha256                                        output.o
EVP_sha384                                        output.o
EVP_sha512                                        output.o
EVP_version                                       output.o
EVP_whirlpool                                     output.o
EXTENDED_KEY_USAGE_free                           output.o
EXTENDED_KEY_USAGE_it                             output.o
EXTENDED_KEY_USAGE_new                            output.o
ExchangePPSData                                   output.o
FI                                                output.o
FindBaudRateTable                                 output.o
GENERAL_NAMES_free                                output.o
GENERAL_NAMES_it                                  output.o
GENERAL_NAMES_new                                 output.o
GENERAL_NAME_cmp                                  output.o
GENERAL_NAME_dup                                  output.o
GENERAL_NAME_free                                 output.o
GENERAL_NAME_get0_otherName                       output.o
GENERAL_NAME_get0_value                           output.o
GENERAL_NAME_it                                   output.o
GENERAL_NAME_new                                  output.o
GENERAL_NAME_print                                output.o
GENERAL_NAME_set0_othername                       output.o
GENERAL_NAME_set0_value                           output.o
GENERAL_SUBTREE_free                              output.o
GENERAL_SUBTREE_it                                output.o
GENERAL_SUBTREE_new                               output.o
GetAttrValType                                    output.o
GetBWICWIData                                     output.o
GetCardStatus                                     output.o
GetDirDataByTlv                                   output.o
GetElem                                           output.o
GetICCardData                                     output.o
GetIFSCData                                       output.o
GetLength                                         output.o
GetOdfDataByTlv                                   output.o
GetTlvByBuf                                       output.o
GetTokenDataByTlv                                 output.o
GetUlByByte                                       output.o
GetUlByTxt                                        output.o
GetValueData                                      output.o
GetVerByTex                                       output.o
HMAC                                              output.o
HMAC_CTX_cleanup                                  output.o
HMAC_CTX_copy                                     output.o
HMAC_CTX_init                                     output.o
HMAC_CTX_set_flags                                output.o
HMAC_Final                                        output.o
HMAC_Init                                         output.o
HMAC_Init_ex                                      output.o
HMAC_Update                                       output.o
HPSearchHotPluggables                             output.o
IDEA_version                                      output.o
IDMan_CheckCardStatus                             output.o
IDMan_CmCheckCRL                                  output.o
IDMan_CmChgRSA                                    output.o
IDMan_CmGetCertificateSign                        output.o
IDMan_CmGetDN                                     output.o
IDMan_CmGetPublicKey                              output.o
IDMan_CmMakeRand                                  output.o
IDMan_CmMkHash                                    output.o
IDMan_CmPadding                                   output.o
IDMan_CmPadding2                                  output.o
IDMan_EncryptByIndex                              output.o
IDMan_IPCheckCrlPkcX                              output.o
IDMan_IPCheckPKC                                  output.o
IDMan_IPCheckSignature                            output.o
IDMan_IPCrSignature                               output.o
IDMan_IPFinalize                                  output.o
IDMan_IPFinalizeReader                            output.o
IDMan_IPIdPassListMalloc                          output.o
IDMan_IPInitialize                                output.o
IDMan_IPInitializeReader                          output.o
IDMan_IPMkPublicKeyObj                            output.o
IDMan_IPMkRandHash                                output.o
IDMan_IPRetJudgment                               output.o
IDMan_IPSignatureVerify                           output.o
IDMan_IPgCIndexParamChk                           output.o
IDMan_IPgCParamChk                                output.o
IDMan_IPgIdxSParamChk                             output.o
IDMan_IPgSParamChk                                output.o
IDMan_IPgetCertIdxPKCS                            output.o
IDMan_IPgetCertPKCS                               output.o
IDMan_IPgetCertPkeyIdxPKCSx                       output.o
IDMan_IPgetCertPkeyPKCSx                          output.o
IDMan_IPgetCertPkeyPKCSy                          output.o
IDMan_IPgetHash                                   output.o
IDMan_IPgetMakeRandData                           output.o
IDMan_IPgetPrivateKey                             output.o
IDMan_IPgetPrivateKeyPKCSx                        output.o
IDMan_IPuAPKCS11IdxParamChk                       output.o
IDMan_IPuAPKCS11ParamChk                          output.o
IDMan_IPvSIdxParamChk                             output.o
IDMan_IPvSParamChk                                output.o
IDMan_PaddingParamChk                             output.o
IDMan_SCardConnect                                output.o
IDMan_SCardDisconnect                             output.o
IDMan_SCardEstablishContext                       output.o
IDMan_SCardListReaders                            output.o
IDMan_SCardReleaseContext                         output.o
IDMan_SCardSetBinay                               output.o
IDMan_SCardSizeLongToChar                         output.o
IDMan_SCardStatus                                 output.o
IDMan_SCardTransmit                               output.o
IDMan_StAtoi                                      output.o
IDMan_StAtol                                      output.o
IDMan_StFree                                      output.o
IDMan_StMalloc                                    output.o
IDMan_StMemcmp                                    output.o
IDMan_StMemcpy                                    output.o
IDMan_StMemset                                    output.o
IDMan_StReadSetData                               output.o
IDMan_StStrcat                                    output.o
IDMan_StStrchr                                    output.o
IDMan_StStrcmp                                    output.o
IDMan_StStrcpy                                    output.o
IDMan_StStrlen                                    output.o
IDMan_generateSignature                           output.o
IDMan_generateSignatureByIndex                    output.o
IDMan_getCertificate                              output.o
IDMan_getCertificateByIndex                       output.o
IDMan_getMemoryFree                               output.o
IDMan_getStaticPassword                           output.o
IDMan_userAuthPKCS11                              output.o
IDMan_userAuthPKCS11ByIndex                       output.o
IDMan_verifySignature                             output.o
IDMan_verifySignatureByIndex                      output.o
IFDHCloseChannel                                  output.o
IFDHControl                                       output.o
IFDHCreateChannel                                 output.o
IFDHGetCapabilities                               output.o
IFDHICCPresence                                   output.o
IFDHPowerICC                                      output.o
IFDHSetProtocolParameters                         output.o
IFDHTransmitToICC                                 output.o
ISSUING_DIST_POINT_free                           output.o
ISSUING_DIST_POINT_it                             output.o
ISSUING_DIST_POINT_new                            output.o
InitCryptoLibrary                                 output.o
InitLeaderCardProtocol                            output.o
InternalAuth                                      output.o
LONG_it                                           output.o
MD4_Final                                         output.o
MD4_Init                                          output.o
MD4_Transform                                     output.o
MD4_Update                                        output.o
MD4_version                                       output.o
MD5                                               output.o
MD5_Final                                         output.o
MD5_Init                                          output.o
MD5_Transform                                     output.o
MD5_Update                                        output.o
MD5_version                                       output.o
NAME_CONSTRAINTS_check                            output.o
NAME_CONSTRAINTS_free                             output.o
NAME_CONSTRAINTS_it                               output.o
NAME_CONSTRAINTS_new                              output.o
NCONF_WIN32                                       output.o
NCONF_default                                     output.o
NCONF_dump_bio                                    output.o
NCONF_free                                        output.o
NCONF_free_data                                   output.o
NCONF_get_number_e                                output.o
NCONF_get_section                                 output.o
NCONF_get_string                                  output.o
NCONF_load                                        output.o
NCONF_load_bio                                    output.o
NCONF_new                                         output.o
NETSCAPE_CERT_SEQUENCE_free                       output.o
NETSCAPE_CERT_SEQUENCE_it                         output.o
NETSCAPE_CERT_SEQUENCE_new                        output.o
NETSCAPE_SPKAC_free                               output.o
NETSCAPE_SPKAC_it                                 output.o
NETSCAPE_SPKAC_new                                output.o
NETSCAPE_SPKI_free                                output.o
NETSCAPE_SPKI_it                                  output.o
NETSCAPE_SPKI_new                                 output.o
NETSCAPE_SPKI_sign                                output.o
NETSCAPE_SPKI_verify                              output.o
NOTICEREF_free                                    output.o
NOTICEREF_it                                      output.o
NOTICEREF_new                                     output.o
OBJ_NAME_add                                      output.o
OBJ_NAME_cleanup                                  output.o
OBJ_NAME_do_all                                   output.o
OBJ_NAME_do_all_sorted                            output.o
OBJ_NAME_get                                      output.o
OBJ_NAME_init                                     output.o
OBJ_NAME_new_index                                output.o
OBJ_NAME_remove                                   output.o
OBJ_add_object                                    output.o
OBJ_add_sigid                                     output.o
OBJ_bsearch_                                      output.o
OBJ_bsearch_ex_                                   output.o
OBJ_cleanup                                       output.o
OBJ_cmp                                           output.o
OBJ_create                                        output.o
OBJ_create_objects                                output.o
OBJ_dup                                           output.o
OBJ_find_sigid_algs                               output.o
OBJ_find_sigid_by_algs                            output.o
OBJ_ln2nid                                        output.o
OBJ_new_nid                                       output.o
OBJ_nid2ln                                        output.o
OBJ_nid2obj                                       output.o
OBJ_nid2sn                                        output.o
OBJ_obj2nid                                       output.o
OBJ_obj2txt                                       output.o
OBJ_sigid_free                                    output.o
OBJ_sn2nid                                        output.o
OBJ_txt2nid                                       output.o
OBJ_txt2obj                                       output.o
OCSP_BASICRESP_free                               output.o
OCSP_BASICRESP_it                                 output.o
OCSP_BASICRESP_new                                output.o
OCSP_CERTID_free                                  output.o
OCSP_CERTID_it                                    output.o
OCSP_CERTID_new                                   output.o
OCSP_CERTSTATUS_free                              output.o
OCSP_CERTSTATUS_it                                output.o
OCSP_CERTSTATUS_new                               output.o
OCSP_CRLID_free                                   output.o
OCSP_CRLID_it                                     output.o
OCSP_CRLID_new                                    output.o
OCSP_ONEREQ_free                                  output.o
OCSP_ONEREQ_it                                    output.o
OCSP_ONEREQ_new                                   output.o
OCSP_REQINFO_free                                 output.o
OCSP_REQINFO_it                                   output.o
OCSP_REQINFO_new                                  output.o
OCSP_REQUEST_free                                 output.o
OCSP_REQUEST_it                                   output.o
OCSP_REQUEST_new                                  output.o
OCSP_RESPBYTES_free                               output.o
OCSP_RESPBYTES_it                                 output.o
OCSP_RESPBYTES_new                                output.o
OCSP_RESPDATA_free                                output.o
OCSP_RESPDATA_it                                  output.o
OCSP_RESPDATA_new                                 output.o
OCSP_RESPID_free                                  output.o
OCSP_RESPID_it                                    output.o
OCSP_RESPID_new                                   output.o
OCSP_RESPONSE_free                                output.o
OCSP_RESPONSE_it                                  output.o
OCSP_RESPONSE_new                                 output.o
OCSP_REVOKEDINFO_free                             output.o
OCSP_REVOKEDINFO_it                               output.o
OCSP_REVOKEDINFO_new                              output.o
OCSP_SERVICELOC_free                              output.o
OCSP_SERVICELOC_it                                output.o
OCSP_SERVICELOC_new                               output.o
OCSP_SIGNATURE_free                               output.o
OCSP_SIGNATURE_it                                 output.o
OCSP_SIGNATURE_new                                output.o
OCSP_SINGLERESP_free                              output.o
OCSP_SINGLERESP_it                                output.o
OCSP_SINGLERESP_new                               output.o
OPENSSL_NONPIC_relocated                          output.o
OPENSSL_asc2uni                                   output.o
OPENSSL_cleanse                                   output.o
OPENSSL_cpuid_setup                               output.o
OPENSSL_gmtime                                    output.o
OPENSSL_gmtime_adj                                output.o
OPENSSL_ia32cap_P                                 output.o
OPENSSL_ia32cap_loc                               output.o
OPENSSL_isservice                                 output.o
OPENSSL_showfatal                                 output.o
OPENSSL_stderr                                    output.o
OPENSSL_uni2asc                                   output.o
OSSL_DES_version                                  output.o
OSSL_libdes_version                               output.o
OTHERNAME_cmp                                     output.o
OTHERNAME_free                                    output.o
OTHERNAME_it                                      output.o
OTHERNAME_new                                     output.o
OpenSSLDie                                        output.o
OpenSSL_add_all_ciphers                           output.o
OpenSSL_add_all_digests                           output.o
OpenUSB                                           output.o
PBE2PARAM_free                                    output.o
PBE2PARAM_it                                      output.o
PBE2PARAM_new                                     output.o
PBEPARAM_free                                     output.o
PBEPARAM_it                                       output.o
PBEPARAM_new                                      output.o
PBKDF2PARAM_free                                  output.o
PBKDF2PARAM_it                                    output.o
PBKDF2PARAM_new                                   output.o
PEM_ASN1_read_bio                                 output.o
PEM_ASN1_write_bio                                output.o
PEM_bytes_read_bio                                output.o
PEM_def_callback                                  output.o
PEM_dek_info                                      output.o
PEM_do_header                                     output.o
PEM_get_EVP_CIPHER_INFO                           output.o
PEM_proc_type                                     output.o
PEM_read_bio                                      output.o
PEM_read_bio_CMS                                  output.o
PEM_read_bio_DHparams                             output.o
PEM_read_bio_DSAPrivateKey                        output.o
PEM_read_bio_DSA_PUBKEY                           output.o
PEM_read_bio_DSAparams                            output.o
PEM_read_bio_ECPKParameters                       output.o
PEM_read_bio_ECPrivateKey                         output.o
PEM_read_bio_EC_PUBKEY                            output.o
PEM_read_bio_NETSCAPE_CERT_SEQUENCE               output.o
PEM_read_bio_PKCS7                                output.o
PEM_read_bio_PKCS8                                output.o
PEM_read_bio_PKCS8_PRIV_KEY_INFO                  output.o
PEM_read_bio_PUBKEY                               output.o
PEM_read_bio_Parameters                           output.o
PEM_read_bio_PrivateKey                           output.o
PEM_read_bio_RSAPrivateKey                        output.o
PEM_read_bio_RSAPublicKey                         output.o
PEM_read_bio_RSA_PUBKEY                           output.o
PEM_read_bio_X509                                 output.o
PEM_read_bio_X509_CRL                             output.o
PEM_read_bio_X509_REQ                             output.o
PEM_version                                       output.o
PEM_write_bio                                     output.o
PEM_write_bio_ASN1_stream                         output.o
PEM_write_bio_CMS                                 output.o
PEM_write_bio_CMS_stream                          output.o
PEM_write_bio_DHparams                            output.o
PEM_write_bio_DSAPrivateKey                       output.o
PEM_write_bio_DSA_PUBKEY                          output.o
PEM_write_bio_DSAparams                           output.o
PEM_write_bio_ECPKParameters                      output.o
PEM_write_bio_ECPrivateKey                        output.o
PEM_write_bio_EC_PUBKEY                           output.o
PEM_write_bio_NETSCAPE_CERT_SEQUENCE              output.o
PEM_write_bio_PKCS7                               output.o
PEM_write_bio_PKCS8                               output.o
PEM_write_bio_PKCS8PrivateKey                     output.o
PEM_write_bio_PKCS8PrivateKey_nid                 output.o
PEM_write_bio_PKCS8_PRIV_KEY_INFO                 output.o
PEM_write_bio_PUBKEY                              output.o
PEM_write_bio_Parameters                          output.o
PEM_write_bio_PrivateKey                          output.o
PEM_write_bio_RSAPrivateKey                       output.o
PEM_write_bio_RSAPublicKey                        output.o
PEM_write_bio_RSA_PUBKEY                          output.o
PEM_write_bio_X509                                output.o
PEM_write_bio_X509_CRL                            output.o
PEM_write_bio_X509_REQ                            output.o
PEM_write_bio_X509_REQ_NEW                        output.o
PHGetProtocol                                     output.o
PHSetProtocol                                     output.o
PKCS12_AUTHSAFES_it                               output.o
PKCS12_BAGS_free                                  output.o
PKCS12_BAGS_it                                    output.o
PKCS12_BAGS_new                                   output.o
PKCS12_MAC_DATA_free                              output.o
PKCS12_MAC_DATA_it                                output.o
PKCS12_MAC_DATA_new                               output.o
PKCS12_MAKE_KEYBAG                                output.o
PKCS12_MAKE_SHKEYBAG                              output.o
PKCS12_PBE_add                                    output.o
PKCS12_PBE_keyivgen                               output.o
PKCS12_SAFEBAGS_it                                output.o
PKCS12_SAFEBAG_free                               output.o
PKCS12_SAFEBAG_it                                 output.o
PKCS12_SAFEBAG_new                                output.o
PKCS12_certbag2x509                               output.o
PKCS12_certbag2x509crl                            output.o
PKCS12_decrypt_skey                               output.o
PKCS12_free                                       output.o
PKCS12_it                                         output.o
PKCS12_item_decrypt_d2i                           output.o
PKCS12_item_i2d_encrypt                           output.o
PKCS12_item_pack_safebag                          output.o
PKCS12_key_gen_asc                                output.o
PKCS12_key_gen_uni                                output.o
PKCS12_new                                        output.o
PKCS12_pack_authsafes                             output.o
PKCS12_pack_p7data                                output.o
PKCS12_pack_p7encdata                             output.o
PKCS12_pbe_crypt                                  output.o
PKCS12_unpack_authsafes                           output.o
PKCS12_unpack_p7data                              output.o
PKCS12_unpack_p7encdata                           output.o
PKCS12_x5092certbag                               output.o
PKCS12_x509crl2certbag                            output.o
PKCS1_MGF1                                        output.o
PKCS5_PBE_add                                     output.o
PKCS5_PBE_keyivgen                                output.o
PKCS5_PBKDF2_HMAC                                 output.o
PKCS5_PBKDF2_HMAC_SHA1                            output.o
PKCS5_pbe2_set                                    output.o
PKCS5_pbe2_set_iv                                 output.o
PKCS5_pbe_set                                     output.o
PKCS5_pbe_set0_algor                              output.o
PKCS5_v2_PBE_keyivgen                             output.o
PKCS7_ATTR_SIGN_it                                output.o
PKCS7_ATTR_VERIFY_it                              output.o
PKCS7_DIGEST_free                                 output.o
PKCS7_DIGEST_it                                   output.o
PKCS7_DIGEST_new                                  output.o
PKCS7_ENCRYPT_free                                output.o
PKCS7_ENCRYPT_it                                  output.o
PKCS7_ENCRYPT_new                                 output.o
PKCS7_ENC_CONTENT_free                            output.o
PKCS7_ENC_CONTENT_it                              output.o
PKCS7_ENC_CONTENT_new                             output.o
PKCS7_ENVELOPE_free                               output.o
PKCS7_ENVELOPE_it                                 output.o
PKCS7_ENVELOPE_new                                output.o
PKCS7_ISSUER_AND_SERIAL_digest                    output.o
PKCS7_ISSUER_AND_SERIAL_free                      output.o
PKCS7_ISSUER_AND_SERIAL_it                        output.o
PKCS7_ISSUER_AND_SERIAL_new                       output.o
PKCS7_RECIP_INFO_free                             output.o
PKCS7_RECIP_INFO_get0_alg                         output.o
PKCS7_RECIP_INFO_it                               output.o
PKCS7_RECIP_INFO_new                              output.o
PKCS7_RECIP_INFO_set                              output.o
PKCS7_SIGNED_free                                 output.o
PKCS7_SIGNED_it                                   output.o
PKCS7_SIGNED_new                                  output.o
PKCS7_SIGNER_INFO_free                            output.o
PKCS7_SIGNER_INFO_get0_algs                       output.o
PKCS7_SIGNER_INFO_it                              output.o
PKCS7_SIGNER_INFO_new                             output.o
PKCS7_SIGNER_INFO_set                             output.o
PKCS7_SIGNER_INFO_sign                            output.o
PKCS7_SIGN_ENVELOPE_free                          output.o
PKCS7_SIGN_ENVELOPE_it                            output.o
PKCS7_SIGN_ENVELOPE_new                           output.o
PKCS7_add0_attrib_signing_time                    output.o
PKCS7_add1_attrib_digest                          output.o
PKCS7_add_attrib_content_type                     output.o
PKCS7_add_attrib_smimecap                         output.o
PKCS7_add_attribute                               output.o
PKCS7_add_certificate                             output.o
PKCS7_add_crl                                     output.o
PKCS7_add_recipient                               output.o
PKCS7_add_recipient_info                          output.o
PKCS7_add_signature                               output.o
PKCS7_add_signed_attribute                        output.o
PKCS7_add_signer                                  output.o
PKCS7_cert_from_signer_info                       output.o
PKCS7_content_new                                 output.o
PKCS7_ctrl                                        output.o
PKCS7_dataDecode                                  output.o
PKCS7_dataFinal                                   output.o
PKCS7_dataInit                                    output.o
PKCS7_dataVerify                                  output.o
PKCS7_digest_from_attributes                      output.o
PKCS7_dup                                         output.o
PKCS7_free                                        output.o
PKCS7_get_attribute                               output.o
PKCS7_get_issuer_and_serial                       output.o
PKCS7_get_signed_attribute                        output.o
PKCS7_get_signer_info                             output.o
PKCS7_get_smimecap                                output.o
PKCS7_it                                          output.o
PKCS7_new                                         output.o
PKCS7_print_ctx                                   output.o
PKCS7_set0_type_other                             output.o
PKCS7_set_attributes                              output.o
PKCS7_set_cipher                                  output.o
PKCS7_set_content                                 output.o
PKCS7_set_digest                                  output.o
PKCS7_set_signed_attributes                       output.o
PKCS7_set_type                                    output.o
PKCS7_signatureVerify                             output.o
PKCS7_simple_smimecap                             output.o
PKCS7_stream                                      output.o
PKCS8_PRIV_KEY_INFO_free                          output.o
PKCS8_PRIV_KEY_INFO_it                            output.o
PKCS8_PRIV_KEY_INFO_new                           output.o
PKCS8_decrypt                                     output.o
PKCS8_encrypt                                     output.o
PKCS8_pkey_get0                                   output.o
PKCS8_pkey_set0                                   output.o
PKCS8_set_broken                                  output.o
PKEY_USAGE_PERIOD_free                            output.o
PKEY_USAGE_PERIOD_it                              output.o
PKEY_USAGE_PERIOD_new                             output.o
POLICYINFO_free                                   output.o
POLICYINFO_it                                     output.o
POLICYINFO_new                                    output.o
POLICYQUALINFO_free                               output.o
POLICYQUALINFO_it                                 output.o
POLICYQUALINFO_new                                output.o
POLICY_CONSTRAINTS_free                           output.o
POLICY_CONSTRAINTS_it                             output.o
POLICY_CONSTRAINTS_new                            output.o
POLICY_MAPPINGS_it                                output.o
POLICY_MAPPING_free                               output.o
POLICY_MAPPING_it                                 output.o
POLICY_MAPPING_new                                output.o
PROXY_CERT_INFO_EXTENSION_free                    output.o
PROXY_CERT_INFO_EXTENSION_it                      output.o
PROXY_CERT_INFO_EXTENSION_new                     output.o
PROXY_POLICY_free                                 output.o
PROXY_POLICY_it                                   output.o
PROXY_POLICY_new                                  output.o
PowerOff                                          output.o
PowerOn                                           output.o
RAND_SSLeay                                       output.o
RAND_add                                          output.o
RAND_bytes                                        output.o
RAND_cleanup                                      output.o
RAND_get_rand_method                              output.o
RAND_poll                                         output.o
RAND_pseudo_bytes                                 output.o
RAND_seed                                         output.o
RAND_set_rand_method                              output.o
RAND_status                                       output.o
RAND_version                                      output.o
RC2_cbc_encrypt                                   output.o
RC2_cfb64_encrypt                                 output.o
RC2_decrypt                                       output.o
RC2_ecb_encrypt                                   output.o
RC2_encrypt                                       output.o
RC2_ofb64_encrypt                                 output.o
RC2_set_key                                       output.o
RC2_version                                       output.o
RC4                                               output.o
RC4_options                                       output.o
RC4_set_key                                       output.o
RC4_version                                       output.o
RFAddReader                                       output.o
RFCheckReaderEventState                           output.o
RFReaderInfoById                                  output.o
RFRemoveReader                                    output.o
RIPEMD160_Final                                   output.o
RIPEMD160_Init                                    output.o
RIPEMD160_Transform                               output.o
RIPEMD160_Update                                  output.o
RMD160_version                                    output.o
RSAPrivateKey_dup                                 output.o
RSAPrivateKey_it                                  output.o
RSAPublicKey_dup                                  output.o
RSAPublicKey_it                                   output.o
RSA_PKCS1_SSLeay                                  output.o
RSA_X931_hash_id                                  output.o
RSA_blinding_off                                  output.o
RSA_blinding_on                                   output.o
RSA_flags                                         output.o
RSA_free                                          output.o
RSA_generate_key                                  output.o
RSA_generate_key_ex                               output.o
RSA_get_default_method                            output.o
RSA_get_ex_data                                   output.o
RSA_get_ex_new_index                              output.o
RSA_get_method                                    output.o
RSA_memory_lock                                   output.o
RSA_new                                           output.o
RSA_new_method                                    output.o
RSA_padding_add_PKCS1_OAEP                        output.o
RSA_padding_add_PKCS1_PSS                         output.o
RSA_padding_add_PKCS1_type_1                      output.o
RSA_padding_add_PKCS1_type_2                      output.o
RSA_padding_add_SSLv23                            output.o
RSA_padding_add_X931                              output.o
RSA_padding_add_none                              output.o
RSA_padding_check_PKCS1_OAEP                      output.o
RSA_padding_check_PKCS1_type_1                    output.o
RSA_padding_check_PKCS1_type_2                    output.o
RSA_padding_check_SSLv23                          output.o
RSA_padding_check_X931                            output.o
RSA_padding_check_none                            output.o
RSA_private_decrypt                               output.o
RSA_private_encrypt                               output.o
RSA_public_decrypt                                output.o
RSA_public_encrypt                                output.o
RSA_set_default_method                            output.o
RSA_set_ex_data                                   output.o
RSA_set_method                                    output.o
RSA_setup_blinding                                output.o
RSA_sign                                          output.o
RSA_size                                          output.o
RSA_up_ref                                        output.o
RSA_verify                                        output.o
RSA_verify_PKCS1_PSS                              output.o
RSA_version                                       output.o
ReadBinary                                        output.o
ReadDataT0                                        output.o
ReadUSB                                           output.o
ReceiveReply                                      output.o
SCardBeginTransaction                             output.o
SCardConnect                                      output.o
SCardDisconnect                                   output.o
SCardEndTransaction                               output.o
SCardEstablishContext                             output.o
SCardListReaders                                  output.o
SCardReleaseContext                               output.o
SCardStatus                                       output.o
SCardTransmit                                     output.o
SHA1                                              output.o
SHA1_Final                                        output.o
SHA1_Init                                         output.o
SHA1_Transform                                    output.o
SHA1_Update                                       output.o
SHA1_version                                      output.o
SHA224                                            output.o
SHA224_Final                                      output.o
SHA224_Init                                       output.o
SHA224_Update                                     output.o
SHA256                                            output.o
SHA256_Final                                      output.o
SHA256_Init                                       output.o
SHA256_Transform                                  output.o
SHA256_Update                                     output.o
SHA256_version                                    output.o
SHA384                                            output.o
SHA384_Final                                      output.o
SHA384_Init                                       output.o
SHA384_Update                                     output.o
SHA512                                            output.o
SHA512_Final                                      output.o
SHA512_Init                                       output.o
SHA512_Transform                                  output.o
SHA512_Update                                     output.o
SHA512_version                                    output.o
SHA_Final                                         output.o
SHA_Init                                          output.o
SHA_Transform                                     output.o
SHA_Update                                        output.o
SHA_version                                       output.o
SMIME_crlf_copy                                   output.o
SMIME_read_ASN1                                   output.o
SMIME_read_CMS                                    output.o
SMIME_text                                        output.o
SMIME_write_ASN1                                  output.o
SMIME_write_CMS                                   output.o
STACK_version                                     output.o
SXNETID_free                                      output.o
SXNETID_it                                        output.o
SXNETID_new                                       output.o
SXNET_add_id_INTEGER                              output.o
SXNET_add_id_asc                                  output.o
SXNET_add_id_ulong                                output.o
SXNET_free                                        output.o
SXNET_get_id_INTEGER                              output.o
SXNET_get_id_asc                                  output.o
SXNET_get_id_ulong                                output.o
SXNET_it                                          output.o
SXNET_new                                         output.o
Se4AddArpEntryList                                output.o
Se4AdjustTcpMss                                   output.o
Se4And                                            output.o
Se4BitToHex                                       output.o
Se4BroadcastMacAddress                            output.o
Se4BuildIcmpEchoPacket                            output.o
Se4CheckUnicastAddress                            output.o
Se4Cmp                                            output.o
Se4CmpArpEntry                                    output.o
Se4CmpArpWaitEntry                                output.o
Se4CmpIpCombineList                               output.o
Se4CombineIp                                      output.o
Se4FlushArpEntryList                              output.o
Se4FlushIpCombineList                             output.o
Se4FlushIpWaitList                                output.o
Se4Free                                           output.o
Se4FreeArpEntryList                               output.o
Se4FreeArpWaitList                                output.o
Se4FreeIpCombine                                  output.o
Se4FreeIpCombineList                              output.o
Se4FreeIpFragmentList                             output.o
Se4FreeIpHeaderInfo                               output.o
Se4FreeIpWait                                     output.o
Se4FreeIpWaitList                                 output.o
Se4GenerateSubnetMask                             output.o
Se4GenerateSubnetMask32                           output.o
Se4GetBroadcastAddress                            output.o
Se4GetHostAddress                                 output.o
Se4GetNetworkAddress                              output.o
Se4IPToStr                                        output.o
Se4IPToStr32                                      output.o
Se4IPToUINT                                       output.o
Se4Init                                           output.o
Se4InitArpEntryList                               output.o
Se4InitArpWaitList                                output.o
Se4InitIpCombineList                              output.o
Se4InitIpFragmentList                             output.o
Se4InitIpWaitList                                 output.o
Se4InsertIpCombine                                output.o
Se4InsertIpWait                                   output.o
Se4IpCheckChecksum                                output.o
Se4IpChecksum                                     output.o
Se4IsBroadcastAddress                             output.o
Se4IsInSameNetwork                                output.o
Se4IsSubnetMask                                   output.o
Se4IsZeroIP                                       output.o
Se4MacIpRelationKnown                             output.o
Se4MainProc                                       output.o
Se4Not                                            output.o
Se4Or                                             output.o
Se4ParseIpPacket                                  output.o
Se4ParseIpPacketICMPv4                            output.o
Se4ParseIpPacketUDPv4                             output.o
Se4ProcessArpWaitList                             output.o
Se4RecvArp                                        output.o
Se4RecvArpRequest                                 output.o
Se4RecvArpResponse                                output.o
Se4RecvEthPacket                                  output.o
Se4RecvIp                                         output.o
Se4RecvIpComplete                                 output.o
Se4SearchArpEntryList                             output.o
Se4SearchArpWaitList                              output.o
Se4SearchIpCombineList                            output.o
Se4SendArpDoProcess                               output.o
Se4SendArpRequest                                 output.o
Se4SendArpResponse                                output.o
Se4SendEthPacket                                  output.o
Se4SendIcmp                                       output.o
Se4SendIcmpEchoRequest                            output.o
Se4SendIcmpEchoResponse                           output.o
Se4SendIp                                         output.o
Se4SendIpFragment                                 output.o
Se4SendIpFragmentNow                              output.o
Se4SendRawIp                                      output.o
Se4SendUdp                                        output.o
Se4SendWaitingIpWait                              output.o
Se4StrToIP                                        output.o
Se4StrToIP32                                      output.o
Se4Tick                                           output.o
Se4UINTToIP                                       output.o
Se4ZeroIP                                         output.o
Se6AddGuestNode                                   output.o
Se6AddNeighborEntryList                           output.o
Se6And                                            output.o
Se6BroadcastMacAddress                            output.o
Se6BuildIcmpEchoPacket                            output.o
Se6CalcChecksum                                   output.o
Se6CheckIPItemStr                                 output.o
Se6CheckSubnetLength                              output.o
Se6CheckUnicastAddress                            output.o
Se6Cmp                                            output.o
Se6CmpIpCombineList                               output.o
Se6CmpNdpWaitEntry                                output.o
Se6CmpNeighborEntry                               output.o
Se6CombineIp                                      output.o
Se6FlushIpCombineList                             output.o
Se6FlushIpWaitList                                output.o
Se6FlushNeighborEntryList                         output.o
Se6Free                                           output.o
Se6FreeIpCombine                                  output.o
Se6FreeIpCombineList                              output.o
Se6FreeIpFragmentList                             output.o
Se6FreeIpHeaderInfo                               output.o
Se6FreeIpWait                                     output.o
Se6FreeIpWaitList                                 output.o
Se6FreeNdpWaitList                                output.o
Se6FreeNeighborEntryList                          output.o
Se6GenerateEui64Address                           output.o
Se6GenerateEui64GlobalAddress                     output.o
Se6GenerateEui64LocalAddress                      output.o
Se6GenerateMulticastMacAddress                    output.o
Se6GenerateSubnetMask                             output.o
Se6GetAllNodeMulticastAddr                        output.o
Se6GetAllRouterMulticastAddr                      output.o
Se6GetHostAddress                                 output.o
Se6GetIPAddrType                                  output.o
Se6GetPrefixAddress                               output.o
Se6GetSoliciationMulticastAddr                    output.o
Se6IPItemStrToChars                               output.o
Se6IPToStr                                        output.o
Se6Init                                           output.o
Se6InitIpCombineList                              output.o
Se6InitIpFragmentList                             output.o
Se6InitIpWaitList                                 output.o
Se6InitNdpWaitList                                output.o
Se6InitNeighborEntryList                          output.o
Se6InsertIpCombine                                output.o
Se6InsertIpWait                                   output.o
Se6IpChecksum                                     output.o
Se6IsGuestNode                                    output.o
Se6IsInSameNetwork                                output.o
Se6IsNetworkPrefixAddress                         output.o
Se6IsSubnetMask                                   output.o
Se6IsZeroIP                                       output.o
Se6LocalSubnet                                    output.o
Se6MacIpRelationKnown                             output.o
Se6MainProc                                       output.o
Se6Not                                            output.o
Se6Or                                             output.o
Se6ParseIpPacket                                  output.o
Se6ParseIpPacketICMPv6                            output.o
Se6ParseIpPacketUDPv6                             output.o
Se6ProcessNdpWaitList                             output.o
Se6RecvEthPacket                                  output.o
Se6RecvIp                                         output.o
Se6RecvIpComplete                                 output.o
Se6SearchIpCombineList                            output.o
Se6SearchNdpWaitList                              output.o
Se6SearchNeighborEntryList                        output.o
Se6SendEthPacket                                  output.o
Se6SendIcmp                                       output.o
Se6SendIcmpEchoRequest                            output.o
Se6SendIcmpEchoResponse                           output.o
Se6SendIcmpNeighborAdvertisement                  output.o
Se6SendIcmpNeighborSoliciation                    output.o
Se6SendIcmpRouterAdvertisement                    output.o
Se6SendIp                                         output.o
Se6SendIpFragment                                 output.o
Se6SendIpFragmentNow                              output.o
Se6SendNeighborSoliciation                        output.o
Se6SendNeighborSoliciationDoProcess               output.o
Se6SendRawIp                                      output.o
Se6SendUdp                                        output.o
Se6SendWaitingIpWait                              output.o
Se6StrToIP                                        output.o
Se6SubnetMaskToInt                                output.o
Se6Tick                                           output.o
Se6ZeroIP                                         output.o
SeAdd                                             output.o
SeAddBufStr                                       output.o
SeAdjustBufSize                                   output.o
SeB64CharToCode                                   output.o
SeB64CodeToChar                                   output.o
SeB64Decode                                       output.o
SeB64Encode                                       output.o
SeBSearch                                         output.o
SeBigNumToBuf                                     output.o
SeBigNumToStr                                     output.o
SeBinToBigNum                                     output.o
SeBinToStr                                        output.o
SeBinToStrEx                                      output.o
SeBioToBuf                                        output.o
SeBioToCert                                       output.o
SeBioToKey                                        output.o
SeBufToBigNum                                     output.o
SeBufToBio                                        output.o
SeBufToCert                                       output.o
SeBufToKey                                        output.o
SeBuildAndAddIPv6PacketOptionHeader               output.o
SeBuildICMPv6OptionValue                          output.o
SeBuildICMPv6Options                              output.o
SeBuildIPv6Packet                                 output.o
SeBuildIPv6PacketWithFragment                     output.o
SeCalcReplaceStrEx                                output.o
SeCertToBio                                       output.o
SeCertToBuf                                       output.o
SeCheckCert                                       output.o
SeCheckCertAndKey                                 output.o
SeCheckSignature                                  output.o
SeClearBuf                                        output.o
SeClearFifo                                       output.o
SeClone                                           output.o
SeCloneBuf                                        output.o
SeCloneCert                                       output.o
SeCloneKey                                        output.o
SeCloneList                                       output.o
SeCmp                                             output.o
SeCmpBuf                                          output.o
SeCmpEx                                           output.o
SeCompareCert                                     output.o
SeCompareStr                                      output.o
SeCopy                                            output.o
SeCopyStr                                         output.o
SeCopyToArray                                     output.o
SeDebug                                           output.o
SeDebugBin                                        output.o
SeDefaultTokenSplitChars                          output.o
SeDelete                                          output.o
SeDeleteAll                                       output.o
SeDeleteLock                                      output.o
SeDes3Decrypt                                     output.o
SeDes3Encrypt                                     output.o
SeDes3FreeKey                                     output.o
SeDes3NewKey                                      output.o
SeDes3RandKey                                     output.o
SeDesFreeKey                                      output.o
SeDesFreeKeyValue                                 output.o
SeDesNewKey                                       output.o
SeDesNewKeyValue                                  output.o
SeDesRandKey                                      output.o
SeDesRandKeyValue                                 output.o
SeDhCompute                                       output.o
SeDhFree                                          output.o
SeDhNew                                           output.o
SeDhNewGroup2                                     output.o
SeDumpBuf                                         output.o
SeEndWith                                         output.o
SeEndian16                                        output.o
SeEndian32                                        output.o
SeEndian64                                        output.o
SeError                                           output.o
SeEthAddSenderMacList                             output.o
SeEthDeleteOldSenderMacList                       output.o
SeEthFree                                         output.o
SeEthGenRandMacAddress                            output.o
SeEthGetInfo                                      output.o
SeEthGetNextRecvPacket                            output.o
SeEthIsSenderMacAddressExistsInList               output.o
SeEthNew                                          output.o
SeEthNicCallback                                  output.o
SeEthParseEthernetPacket                          output.o
SeEthSend                                         output.o
SeEthSendAdd                                      output.o
SeEthSendAll                                      output.o
SeFastSwap                                        output.o
SeFatal                                           output.o
SeFifoSize                                        output.o
SeFormat                                          output.o
SeFormatArgs                                      output.o
SeFormatEx                                        output.o
SeFree                                            output.o
SeFreeBio                                         output.o
SeFreeBuf                                         output.o
SeFreeBufWithoutBuffer                            output.o
SeFreeCert                                        output.o
SeFreeConfigEntryList                             output.o
SeFreeCrypto                                      output.o
SeFreeFifo                                        output.o
SeFreeKernel                                      output.o
SeFreeKey                                         output.o
SeFreeList                                        output.o
SeFreePKey                                        output.o
SeFreePacket                                      output.o
SeFreePacketList                                  output.o
SeFreePacketListWithoutBuffer                     output.o
SeFreeQueue                                       output.o
SeFreeStack                                       output.o
SeFreeToken                                       output.o
SeFreeX509                                        output.o
SeGetCertIssuerName                               output.o
SeGetCertMd5                                      output.o
SeGetCertSha1                                     output.o
SeGetCertSubjectName                              output.o
SeGetConfigBin                                    output.o
SeGetConfigBool                                   output.o
SeGetConfigEntry                                  output.o
SeGetConfigInt                                    output.o
SeGetConfigInt64                                  output.o
SeGetConfigStr                                    output.o
SeGetCurrentCpuId                                 output.o
SeGetKeyAndValue                                  output.o
SeGetKeyFromCert                                  output.o
SeGetNext                                         output.o
SeGetNextHeaderFromQueue                          output.o
SeGetNextInt                                      output.o
SeHashForSignBySHA1                               output.o
SeHexTo4Bit                                       output.o
SeHexToInt                                        output.o
SeHexToInt64                                      output.o
SeIkeBuild                                        output.o
SeIkeBuildCertPayload                             output.o
SeIkeBuildCertRequestPayload                      output.o
SeIkeBuildDataPayload                             output.o
SeIkeBuildDeletePayload                           output.o
SeIkeBuildIdPayload                               output.o
SeIkeBuildNoticePayload                           output.o
SeIkeBuildPayload                                 output.o
SeIkeBuildPayloadList                             output.o
SeIkeBuildProposalPayload                         output.o
SeIkeBuildSaPayload                               output.o
SeIkeBuildTransformPayload                        output.o
SeIkeBuildTransformValue                          output.o
SeIkeBuildTransformValueList                      output.o
SeIkeDecrypt                                      output.o
SeIkeEncrypt                                      output.o
SeIkeEncryptWithPadding                           output.o
SeIkeFree                                         output.o
SeIkeFreeCertPayload                              output.o
SeIkeFreeCertRequestPayload                       output.o
SeIkeFreeDataPayload                              output.o
SeIkeFreeDeletePayload                            output.o
SeIkeFreeIdPayload                                output.o
SeIkeFreeNoticePayload                            output.o
SeIkeFreePayload                                  output.o
SeIkeFreePayloadList                              output.o
SeIkeFreeProposalPayload                          output.o
SeIkeFreeSaPayload                                output.o
SeIkeFreeTransformPayload                         output.o
SeIkeFreeTransformValueList                       output.o
SeIkeGetFirstPayloadType                          output.o
SeIkeGetIPv4Address                               output.o
SeIkeGetIPv6Address                               output.o
SeIkeGetPayload                                   output.o
SeIkeGetPayloadNum                                output.o
SeIkeInitIPv4Address                              output.o
SeIkeInitIPv6Address                              output.o
SeIkeIpAddressToStr                               output.o
SeIkeIsZeroIP                                     output.o
SeIkeNew                                          output.o
SeIkeNewCertPayload                               output.o
SeIkeNewCertRequestPayload                        output.o
SeIkeNewDataPayload                               output.o
SeIkeNewDeletePayload                             output.o
SeIkeNewIdPayload                                 output.o
SeIkeNewNoticePayload                             output.o
SeIkeNewPayload                                   output.o
SeIkeNewProposalPayload                           output.o
SeIkeNewSaPayload                                 output.o
SeIkeNewTransformPayload                          output.o
SeIkeNewTransformValue                            output.o
SeIkeParse                                        output.o
SeIkeParseCertPayload                             output.o
SeIkeParseCertRequestPayload                      output.o
SeIkeParseDataPayload                             output.o
SeIkeParseDeletePayload                           output.o
SeIkeParseEx                                      output.o
SeIkeParseHeader                                  output.o
SeIkeParseIdPayload                               output.o
SeIkeParseNoticePayload                           output.o
SeIkeParsePayload                                 output.o
SeIkeParsePayloadList                             output.o
SeIkeParsePayloadListEx                           output.o
SeIkeParseProposalPayload                         output.o
SeIkeParseSaPayload                               output.o
SeIkeParseTransformPayload                        output.o
SeIkeParseTransformValueList                      output.o
SeIkePhase1CryptIdToKeySize                       output.o
SeIkePhase2CryptIdToKeySize                       output.o
SeIkeStrToPassword                                output.o
SeIkeStrToPhase1CryptId                           output.o
SeIkeStrToPhase1HashId                            output.o
SeIkeStrToPhase2CryptId                           output.o
SeIkeStrToPhase2HashId                            output.o
SeInfo                                            output.o
SeInitCrypto                                      output.o
SeInitKernel                                      output.o
SeInsert                                          output.o
SeInsertQueue                                     output.o
SeInsertQueueInt                                  output.o
SeInsertStr                                       output.o
SeIntFree                                         output.o
SeIntInit                                         output.o
SeIsAllLowerStr                                   output.o
SeIsAllUpperStr                                   output.o
SeIsBase64                                        output.o
SeIsBigEndian                                     output.o
SeIsCertSignedByCert                              output.o
SeIsCharInStr                                     output.o
SeIsEmptyStr                                      output.o
SeIsInList                                        output.o
SeIsInListStr                                     output.o
SeIsLittleEndian                                  output.o
SeIsSplitChar                                     output.o
SeIsZero                                          output.o
SeKeyToBio                                        output.o
SeKeyToBuf                                        output.o
SeLoad                                            output.o
SeLoadCert                                        output.o
SeLoadConfigEntryList                             output.o
SeLoadConfigEntryListFromBuf                      output.o
SeLoadKey                                         output.o
SeLock                                            output.o
SeLog                                             output.o
SeLogArgs                                         output.o
SeMacSha1                                         output.o
SeMacSha196                                       output.o
SeMacToStr                                        output.o
SeMakeCharArray                                   output.o
SeMalloc                                          output.o
SeMd5                                             output.o
SeMemSize                                         output.o
SeMemToBuf                                        output.o
SeNewBio                                          output.o
SeNewBuf                                          output.o
SeNewFifo                                         output.o
SeNewList                                         output.o
SeNewLock                                         output.o
SeNewQueue                                        output.o
SeNewStack                                        output.o
SeNormalizeCrlf                                   output.o
SeNullTokenList                                   output.o
SePKeyPasswordCallbackFunction                    output.o
SeParseICMPv6Options                              output.o
SeParseIPv6ExtHeader                              output.o
SeParseIPv6Packet                                 output.o
SeParsePacket                                     output.o
SeParsePacketL2                                   output.o
SeParsePacketL3ARPv4                              output.o
SeParsePacketL3IPv4                               output.o
SeParsePacketL3IPv6                               output.o
SeParseToken                                      output.o
SeParseTokenWithNullStr                           output.o
SePeekFifo                                        output.o
SePeekNext                                        output.o
SePop                                             output.o
SePush                                            output.o
SeQSort                                           output.o
SeRand                                            output.o
SeRand1                                           output.o
SeRand16                                          output.o
SeRand32                                          output.o
SeRand64                                          output.o
SeRand8                                           output.o
SeRandBuf                                         output.o
SeReAlloc                                         output.o
SeReadBuf                                         output.o
SeReadBufFromBuf                                  output.o
SeReadBufInt                                      output.o
SeReadBufInt64                                    output.o
SeReadBufStr                                      output.o
SeReadDump                                        output.o
SeReadFifo                                        output.o
SeReadNextLine                                    output.o
SeReadRemainBuf                                   output.o
SeReplaceListPointer                              output.o
SeReplaceStr                                      output.o
SeReplaceStrEx                                    output.o
SeReplaceStri                                     output.o
SeRsaGen                                          output.o
SeRsaPrivateDecrypt                               output.o
SeRsaPrivateEncrypt                               output.o
SeRsaPublicDecrypt                                output.o
SeRsaPublicEncrypt                                output.o
SeRsaPublicSize                                   output.o
SeRsaPublicToBin                                  output.o
SeRsaPublicToBuf                                  output.o
SeRsaSign                                         output.o
SeRsaSignWithPadding                              output.o
SeRsaSignWithSha1                                 output.o
SeRsaVerifyWithPadding                            output.o
SeRsaVerifyWithSha1                               output.o
SeSave                                            output.o
SeSaveCert                                        output.o
SeSaveKey                                         output.o
SeSearch                                          output.o
SeSearchStr                                       output.o
SeSearchStrEx                                     output.o
SeSearchStri                                      output.o
SeSecAddTimer                                     output.o
SeSecCalcKEYMAT                                   output.o
SeSecCalcKEYMATFull                               output.o
SeSecCalcKa                                       output.o
SeSecCalcP1Iv                                     output.o
SeSecCalcP1KeySet                                 output.o
SeSecCalcP2Iv                                     output.o
SeSecCheckIPsecSaExpires                          output.o
SeSecCheckIkeSaExpires                            output.o
SeSecCmpIkeSa                                     output.o
SeSecDeleteExpiredIPsecSa                         output.o
SeSecDeleteExpiredIkeSa                           output.o
SeSecDoInterval                                   output.o
SeSecEspRecvCallback                              output.o
SeSecForceReconnect                               output.o
SeSecFree                                         output.o
SeSecFreeIPsecSa                                  output.o
SeSecFreeIkeSa                                    output.o
SeSecFreeMain                                     output.o
SeSecFreeP1KeySet                                 output.o
SeSecFreeSaList                                   output.o
SeSecGenIPsecSASpi                                output.o
SeSecGenIkeSaInitCookie                           output.o
SeSecGenIkeSaMessageId                            output.o
SeSecGetIPsecSa                                   output.o
SeSecInit                                         output.o
SeSecInitMain                                     output.o
SeSecInitSaList                                   output.o
SeSecLifeSeconds64bit                             output.o
SeSecNewIPsecSa                                   output.o
SeSecNewIkeSa                                     output.o
SeSecNewSpi                                       output.o
SeSecProcessIkeSaMsg                              output.o
SeSecProcessIkeSaMsgInfo                          output.o
SeSecProcessIkeSaMsgPhase1                        output.o
SeSecProcessIkeSaMsgPhase2                        output.o
SeSecProcessMain                                  output.o
SeSecSearchIPsecSaBySpi                           output.o
SeSecSearchIkeSa                                  output.o
SeSecSearchIkeSaBySpi                             output.o
SeSecSendEsp                                      output.o
SeSecSendIPsecSaDeleteMsg                         output.o
SeSecSendIkeSaDeleteMsg                           output.o
SeSecSendIkeSaMsgInfo                             output.o
SeSecSendIkeSaMsgInfoSimple                       output.o
SeSecSendIkeSaMsgPhase2                           output.o
SeSecSendIkeSaMsgPhase2FinalHash                  output.o
SeSecSendUdp                                      output.o
SeSecSendVirtualIp                                output.o
SeSecSetRecvEspCallback                           output.o
SeSecSetRecvUdpCallback                           output.o
SeSecSetRecvVirtualIpCallback                     output.o
SeSecSetTimerCallback                             output.o
SeSecStartVpnConnect                              output.o
SeSecStrToAuthMethod                              output.o
SeSecTick                                         output.o
SeSecTimerCallback                                output.o
SeSecUdpRecvCallback                              output.o
SeSecVirtualIpRecvCallback                        output.o
SeSeekBuf                                         output.o
SeSetCmp                                          output.o
SeSetSortFlag                                     output.o
SeSha1                                            output.o
SeSort                                            output.o
SeStartWith                                       output.o
SeStrCat                                          output.o
SeStrCheckLen                                     output.o
SeStrCheckSize                                    output.o
SeStrCmp                                          output.o
SeStrCmpi                                         output.o
SeStrCpy                                          output.o
SeStrLen                                          output.o
SeStrLower                                        output.o
SeStrSize                                         output.o
SeStrToBin                                        output.o
SeStrToBinEx                                      output.o
SeStrToMac                                        output.o
SeStrUpper                                        output.o
SeStrnCmp                                         output.o
SeStrnCmpi                                        output.o
SeSwap                                            output.o
SeSwap16                                          output.o
SeSwap32                                          output.o
SeSwap64                                          output.o
SeSysFreeData                                     output.o
SeSysFreeLock                                     output.o
SeSysFreeTimer                                    output.o
SeSysGetCurrentCpuId                              output.o
SeSysGetPhysicalNicInfo                           output.o
SeSysGetTickCount                                 output.o
SeSysGetVirtualNicInfo                            output.o
SeSysLoadData                                     output.o
SeSysLock                                         output.o
SeSysLog                                          output.o
SeSysMemoryAlloc                                  output.o
SeSysMemoryFree                                   output.o
SeSysMemoryReAlloc                                output.o
SeSysNewLock                                      output.o
SeSysNewTimer                                     output.o
SeSysRsaSign                                      output.o
SeSysSaveData                                     output.o
SeSysSendPhysicalNic                              output.o
SeSysSendVirtualNic                               output.o
SeSysSetPhysicalNicRecvCallback                   output.o
SeSysSetTimer                                     output.o
SeSysSetVirtualNicRecvCallback                    output.o
SeSysUnlock                                       output.o
SeTick                                            output.o
SeTick64                                          output.o
SeTick64Internal                                  output.o
SeTimerAdjust                                     output.o
SeTimerCallback                                   output.o
SeTimerEntryCompare                               output.o
SeTimerFree                                       output.o
SeTimerNew                                        output.o
SeTimerSet                                        output.o
SeToArray                                         output.o
SeToHex                                           output.o
SeToHex64                                         output.o
SeToInt                                           output.o
SeToInt64                                         output.o
SeToLower                                         output.o
SeToStr                                           output.o
SeToStr3                                          output.o
SeToStr64                                         output.o
SeToUpper                                         output.o
SeTrim                                            output.o
SeTrimCopy                                        output.o
SeTrimCrlf                                        output.o
SeTrimLeft                                        output.o
SeTrimRight                                       output.o
SeUniqueToken                                     output.o
SeUnlock                                          output.o
SeVpn4ClientAddTimer                              output.o
SeVpn4ClientGetTick                               output.o
SeVpn4ClientSendEsp                               output.o
SeVpn4ClientSendUdp                               output.o
SeVpn4ClientSendVirtualIp                         output.o
SeVpn4ClientSetRecvEspCallback                    output.o
SeVpn4ClientSetRecvUdpCallback                    output.o
SeVpn4ClientSetRecvVirtualIpCallback              output.o
SeVpn4ClientSetTimerCallback                      output.o
SeVpn4DhcpBuildDhcpOptionList                     output.o
SeVpn4DhcpFreeOptionList                          output.o
SeVpn4DhcpOptionsToBuf                            output.o
SeVpn4DhcpParseOptionList                         output.o
SeVpn4DhcpParseOptionListMain                     output.o
SeVpn4DhcpSearchOption                            output.o
SeVpn4DhcpSendResponse                            output.o
SeVpn4DhcpServer                                  output.o
SeVpn4DoInterval                                  output.o
SeVpn4Free                                        output.o
SeVpn4FreeIPsec                                   output.o
SeVpn4IPsecInputFromPhysical                      output.o
SeVpn4IPsecInputFromVirtual                       output.o
SeVpn4IPsecMainProc                               output.o
SeVpn4IPsecSendPing                               output.o
SeVpn4Init                                        output.o
SeVpn4InitIPsec                                   output.o
SeVpn4InitSecConfig                               output.o
SeVpn4MainProc                                    output.o
SeVpn4NewDhcpOption                               output.o
SeVpn4RecvPacketPhysical                          output.o
SeVpn4RecvPacketVirtual                           output.o
SeVpn4SetTimer                                    output.o
SeVpn4Tick                                        output.o
SeVpn6ClientAddTimer                              output.o
SeVpn6ClientGetTick                               output.o
SeVpn6ClientSendEsp                               output.o
SeVpn6ClientSendUdp                               output.o
SeVpn6ClientSendVirtualIp                         output.o
SeVpn6ClientSetRecvEspCallback                    output.o
SeVpn6ClientSetRecvUdpCallback                    output.o
SeVpn6ClientSetRecvVirtualIpCallback              output.o
SeVpn6ClientSetTimerCallback                      output.o
SeVpn6DoInterval                                  output.o
SeVpn6Free                                        output.o
SeVpn6FreeIPsec                                   output.o
SeVpn6IPsecInputFromPhysical                      output.o
SeVpn6IPsecInputFromVirtual                       output.o
SeVpn6IPsecMainProc                               output.o
SeVpn6IPsecSendPing                               output.o
SeVpn6Init                                        output.o
SeVpn6InitIPsec                                   output.o
SeVpn6InitSecConfig                               output.o
SeVpn6MainProc                                    output.o
SeVpn6RecvPacketPhysical                          output.o
SeVpn6RecvPacketVirtual                           output.o
SeVpn6SetTimer                                    output.o
SeVpn6Tick                                        output.o
SeVpn6UpdateGuestOsIpAddress                      output.o
SeVpnAddTimer                                     output.o
SeVpnDoInterval                                   output.o
SeVpnEthRecvCallback                              output.o
SeVpnFree                                         output.o
SeVpnFreeConfig                                   output.o
SeVpnFreeIpStack                                  output.o
SeVpnInit                                         output.o
SeVpnInitIpStack                                  output.o
SeVpnLoadConfig                                   output.o
SeVpnMainFree                                     output.o
SeVpnMainHandler                                  output.o
SeVpnMainInit                                     output.o
SeVpnMainProcRecvEtherPacket                      output.o
SeVpnMainProcess                                  output.o
SeVpnRecvEtherPacket                              output.o
SeVpnRecvIpV4PacketCallback                       output.o
SeVpnRecvIpV6PacketCallback                       output.o
SeVpnSendEtherPacket                              output.o
SeVpnStatusChanged                                output.o
SeVpnTick                                         output.o
SeVpnTimerCallback                                output.o
SeWarning                                         output.o
SeWriteBuf                                        output.o
SeWriteBufBuf                                     output.o
SeWriteBufInt                                     output.o
SeWriteBufInt64                                   output.o
SeWriteBufLine                                    output.o
SeWriteBufStr                                     output.o
SeWriteFifo                                       output.o
SeX509ToCert                                      output.o
SeZero                                            output.o
SeZeroMalloc                                      output.o
SelectFileDF                                      output.o
SelectFileEF                                      output.o
SetATR                                            output.o
SetElem                                           output.o
SetLength                                         output.o
StIsdigit                                         output.o
StIsspace                                         output.o
T0XfrBlockCHAR                                    output.o
T0XfrBlockTPDU                                    output.o
T1NegociateIFSD                                   output.o
T1XfrBlockExtendedAPDU                            output.o
T1XfrBlockTPDU                                    output.o
TransHex2Tex                                      output.o
TransTex2Hex                                      output.o
TransmitCommand                                   output.o
TransmitPPS                                       output.o
UI_OpenSSL                                        output.o
UI_add_error_string                               output.o
UI_add_info_string                                output.o
UI_add_input_boolean                              output.o
UI_add_input_string                               output.o
UI_add_user_data                                  output.o
UI_add_verify_string                              output.o
UI_construct_prompt                               output.o
UI_create_method                                  output.o
UI_ctrl                                           output.o
UI_destroy_method                                 output.o
UI_dup_error_string                               output.o
UI_dup_info_string                                output.o
UI_dup_input_boolean                              output.o
UI_dup_input_string                               output.o
UI_dup_verify_string                              output.o
UI_free                                           output.o
UI_get0_action_string                             output.o
UI_get0_output_string                             output.o
UI_get0_result                                    output.o
UI_get0_result_string                             output.o
UI_get0_test_string                               output.o
UI_get0_user_data                                 output.o
UI_get_default_method                             output.o
UI_get_ex_data                                    output.o
UI_get_ex_new_index                               output.o
UI_get_input_flags                                output.o
UI_get_method                                     output.o
UI_get_result_maxsize                             output.o
UI_get_result_minsize                             output.o
UI_get_string_type                                output.o
UI_method_get_closer                              output.o
UI_method_get_flusher                             output.o
UI_method_get_opener                              output.o
UI_method_get_prompt_constructor                  output.o
UI_method_get_reader                              output.o
UI_method_get_writer                              output.o
UI_method_set_closer                              output.o
UI_method_set_flusher                             output.o
UI_method_set_opener                              output.o
UI_method_set_prompt_constructor                  output.o
UI_method_set_reader                              output.o
UI_method_set_writer                              output.o
UI_new                                            output.o
UI_new_method                                     output.o
UI_process                                        output.o
UI_set_default_method                             output.o
UI_set_ex_data                                    output.o
UI_set_method                                     output.o
UI_set_result                                     output.o
USERNOTICE_free                                   output.o
USERNOTICE_it                                     output.o
USERNOTICE_new                                    output.o
UTF8_getc                                         output.o
UTF8_putc                                         output.o
UpdateBinary                                      output.o
VPN_IPsec_Client_Start                            output.o
VPN_IPsec_Client_Stop                             output.o
VPN_IPsec_Free                                    output.o
VPN_IPsec_Init                                    output.o
Verify                                            output.o
WHIRLPOOL                                         output.o
WHIRLPOOL_BitUpdate                               output.o
WHIRLPOOL_Final                                   output.o
WHIRLPOOL_Init                                    output.o
WHIRLPOOL_Update                                  output.o
WriteUSB                                          output.o
X509V3_EXT_CRL_add_conf                           output.o
X509V3_EXT_CRL_add_nconf                          output.o
X509V3_EXT_REQ_add_conf                           output.o
X509V3_EXT_REQ_add_nconf                          output.o
X509V3_EXT_add                                    output.o
X509V3_EXT_add_alias                              output.o
X509V3_EXT_add_conf                               output.o
X509V3_EXT_add_list                               output.o
X509V3_EXT_add_nconf                              output.o
X509V3_EXT_add_nconf_sk                           output.o
X509V3_EXT_cleanup                                output.o
X509V3_EXT_conf                                   output.o
X509V3_EXT_conf_nid                               output.o
X509V3_EXT_d2i                                    output.o
X509V3_EXT_get                                    output.o
X509V3_EXT_get_nid                                output.o
X509V3_EXT_i2d                                    output.o
X509V3_EXT_nconf                                  output.o
X509V3_EXT_nconf_nid                              output.o
X509V3_EXT_print                                  output.o
X509V3_EXT_val_prn                                output.o
X509V3_NAME_from_section                          output.o
X509V3_add1_i2d                                   output.o
X509V3_add_standard_extensions                    output.o
X509V3_add_value                                  output.o
X509V3_add_value_bool                             output.o
X509V3_add_value_bool_nf                          output.o
X509V3_add_value_int                              output.o
X509V3_add_value_uchar                            output.o
X509V3_conf_free                                  output.o
X509V3_extensions_print                           output.o
X509V3_get_d2i                                    output.o
X509V3_get_section                                output.o
X509V3_get_string                                 output.o
X509V3_get_value_bool                             output.o
X509V3_get_value_int                              output.o
X509V3_parse_list                                 output.o
X509V3_section_free                               output.o
X509V3_set_conf_lhash                             output.o
X509V3_set_ctx                                    output.o
X509V3_set_nconf                                  output.o
X509V3_string_free                                output.o
X509_ALGORS_it                                    output.o
X509_ALGOR_dup                                    output.o
X509_ALGOR_free                                   output.o
X509_ALGOR_get0                                   output.o
X509_ALGOR_it                                     output.o
X509_ALGOR_new                                    output.o
X509_ALGOR_set0                                   output.o
X509_ATTRIBUTE_SET_it                             output.o
X509_ATTRIBUTE_count                              output.o
X509_ATTRIBUTE_create                             output.o
X509_ATTRIBUTE_create_by_NID                      output.o
X509_ATTRIBUTE_create_by_OBJ                      output.o
X509_ATTRIBUTE_create_by_txt                      output.o
X509_ATTRIBUTE_dup                                output.o
X509_ATTRIBUTE_free                               output.o
X509_ATTRIBUTE_get0_data                          output.o
X509_ATTRIBUTE_get0_object                        output.o
X509_ATTRIBUTE_get0_type                          output.o
X509_ATTRIBUTE_it                                 output.o
X509_ATTRIBUTE_new                                output.o
X509_ATTRIBUTE_set1_data                          output.o
X509_ATTRIBUTE_set1_object                        output.o
X509_CERT_AUX_free                                output.o
X509_CERT_AUX_it                                  output.o
X509_CERT_AUX_new                                 output.o
X509_CERT_AUX_print                               output.o
X509_CERT_PAIR_free                               output.o
X509_CERT_PAIR_it                                 output.o
X509_CERT_PAIR_new                                output.o
X509_CINF_free                                    output.o
X509_CINF_it                                      output.o
X509_CINF_new                                     output.o
X509_CRL_INFO_free                                output.o
X509_CRL_INFO_it                                  output.o
X509_CRL_INFO_new                                 output.o
X509_CRL_METHOD_free                              output.o
X509_CRL_METHOD_new                               output.o
X509_CRL_add0_revoked                             output.o
X509_CRL_add1_ext_i2d                             output.o
X509_CRL_add_ext                                  output.o
X509_CRL_cmp                                      output.o
X509_CRL_delete_ext                               output.o
X509_CRL_digest                                   output.o
X509_CRL_dup                                      output.o
X509_CRL_free                                     output.o
X509_CRL_get0_by_cert                             output.o
X509_CRL_get0_by_serial                           output.o
X509_CRL_get_ext                                  output.o
X509_CRL_get_ext_by_NID                           output.o
X509_CRL_get_ext_by_OBJ                           output.o
X509_CRL_get_ext_by_critical                      output.o
X509_CRL_get_ext_count                            output.o
X509_CRL_get_ext_d2i                              output.o
X509_CRL_get_meth_data                            output.o
X509_CRL_it                                       output.o
X509_CRL_match                                    output.o
X509_CRL_new                                      output.o
X509_CRL_set_default_method                       output.o
X509_CRL_set_meth_data                            output.o
X509_CRL_sign                                     output.o
X509_CRL_verify                                   output.o
X509_EXTENSIONS_it                                output.o
X509_EXTENSION_create_by_NID                      output.o
X509_EXTENSION_create_by_OBJ                      output.o
X509_EXTENSION_dup                                output.o
X509_EXTENSION_free                               output.o
X509_EXTENSION_get_critical                       output.o
X509_EXTENSION_get_data                           output.o
X509_EXTENSION_get_object                         output.o
X509_EXTENSION_it                                 output.o
X509_EXTENSION_new                                output.o
X509_EXTENSION_set_critical                       output.o
X509_EXTENSION_set_data                           output.o
X509_EXTENSION_set_object                         output.o
X509_LOOKUP_by_alias                              output.o
X509_LOOKUP_by_fingerprint                        output.o
X509_LOOKUP_by_issuer_serial                      output.o
X509_LOOKUP_by_subject                            output.o
X509_LOOKUP_ctrl                                  output.o
X509_LOOKUP_free                                  output.o
X509_LOOKUP_init                                  output.o
X509_LOOKUP_new                                   output.o
X509_LOOKUP_shutdown                              output.o
X509_NAME_ENTRIES_it                              output.o
X509_NAME_ENTRY_create_by_NID                     output.o
X509_NAME_ENTRY_create_by_OBJ                     output.o
X509_NAME_ENTRY_create_by_txt                     output.o
X509_NAME_ENTRY_dup                               output.o
X509_NAME_ENTRY_free                              output.o
X509_NAME_ENTRY_get_data                          output.o
X509_NAME_ENTRY_get_object                        output.o
X509_NAME_ENTRY_it                                output.o
X509_NAME_ENTRY_new                               output.o
X509_NAME_ENTRY_set_data                          output.o
X509_NAME_ENTRY_set_object                        output.o
X509_NAME_INTERNAL_it                             output.o
X509_NAME_add_entry                               output.o
X509_NAME_add_entry_by_NID                        output.o
X509_NAME_add_entry_by_OBJ                        output.o
X509_NAME_add_entry_by_txt                        output.o
X509_NAME_cmp                                     output.o
X509_NAME_delete_entry                            output.o
X509_NAME_digest                                  output.o
X509_NAME_dup                                     output.o
X509_NAME_entry_count                             output.o
X509_NAME_free                                    output.o
X509_NAME_get_entry                               output.o
X509_NAME_get_index_by_NID                        output.o
X509_NAME_get_index_by_OBJ                        output.o
X509_NAME_get_text_by_NID                         output.o
X509_NAME_get_text_by_OBJ                         output.o
X509_NAME_hash                                    output.o
X509_NAME_hash_old                                output.o
X509_NAME_it                                      output.o
X509_NAME_new                                     output.o
X509_NAME_oneline                                 output.o
X509_NAME_print                                   output.o
X509_NAME_print_ex                                output.o
X509_NAME_set                                     output.o
X509_OBJECT_free_contents                         output.o
X509_OBJECT_idx_by_subject                        output.o
X509_OBJECT_retrieve_by_subject                   output.o
X509_OBJECT_retrieve_match                        output.o
X509_OBJECT_up_ref_count                          output.o
X509_POLICY_NODE_print                            output.o
X509_PUBKEY_free                                  output.o
X509_PUBKEY_get                                   output.o
X509_PUBKEY_get0_param                            output.o
X509_PUBKEY_it                                    output.o
X509_PUBKEY_new                                   output.o
X509_PUBKEY_set                                   output.o
X509_PUBKEY_set0_param                            output.o
X509_PURPOSE_add                                  output.o
X509_PURPOSE_cleanup                              output.o
X509_PURPOSE_get0                                 output.o
X509_PURPOSE_get0_name                            output.o
X509_PURPOSE_get0_sname                           output.o
X509_PURPOSE_get_by_id                            output.o
X509_PURPOSE_get_by_sname                         output.o
X509_PURPOSE_get_count                            output.o
X509_PURPOSE_get_id                               output.o
X509_PURPOSE_get_trust                            output.o
X509_PURPOSE_set                                  output.o
X509_REQ_INFO_free                                output.o
X509_REQ_INFO_it                                  output.o
X509_REQ_INFO_new                                 output.o
X509_REQ_add1_attr                                output.o
X509_REQ_add1_attr_by_NID                         output.o
X509_REQ_add1_attr_by_OBJ                         output.o
X509_REQ_add1_attr_by_txt                         output.o
X509_REQ_add_extensions                           output.o
X509_REQ_add_extensions_nid                       output.o
X509_REQ_check_private_key                        output.o
X509_REQ_delete_attr                              output.o
X509_REQ_digest                                   output.o
X509_REQ_dup                                      output.o
X509_REQ_extension_nid                            output.o
X509_REQ_free                                     output.o
X509_REQ_get1_email                               output.o
X509_REQ_get_attr                                 output.o
X509_REQ_get_attr_by_NID                          output.o
X509_REQ_get_attr_by_OBJ                          output.o
X509_REQ_get_attr_count                           output.o
X509_REQ_get_extension_nids                       output.o
X509_REQ_get_extensions                           output.o
X509_REQ_get_pubkey                               output.o
X509_REQ_it                                       output.o
X509_REQ_new                                      output.o
X509_REQ_set_extension_nids                       output.o
X509_REQ_set_pubkey                               output.o
X509_REQ_set_subject_name                         output.o
X509_REQ_set_version                              output.o
X509_REQ_sign                                     output.o
X509_REQ_verify                                   output.o
X509_REVOKED_add1_ext_i2d                         output.o
X509_REVOKED_add_ext                              output.o
X509_REVOKED_delete_ext                           output.o
X509_REVOKED_free                                 output.o
X509_REVOKED_get_ext                              output.o
X509_REVOKED_get_ext_by_NID                       output.o
X509_REVOKED_get_ext_by_OBJ                       output.o
X509_REVOKED_get_ext_by_critical                  output.o
X509_REVOKED_get_ext_count                        output.o
X509_REVOKED_get_ext_d2i                          output.o
X509_REVOKED_it                                   output.o
X509_REVOKED_new                                  output.o
X509_SIG_free                                     output.o
X509_SIG_it                                       output.o
X509_SIG_new                                      output.o
X509_STORE_CTX_cleanup                            output.o
X509_STORE_CTX_free                               output.o
X509_STORE_CTX_get0_current_crl                   output.o
X509_STORE_CTX_get0_current_issuer                output.o
X509_STORE_CTX_get0_param                         output.o
X509_STORE_CTX_get0_parent_ctx                    output.o
X509_STORE_CTX_get0_policy_tree                   output.o
X509_STORE_CTX_get1_chain                         output.o
X509_STORE_CTX_get1_issuer                        output.o
X509_STORE_CTX_get_chain                          output.o
X509_STORE_CTX_get_current_cert                   output.o
X509_STORE_CTX_get_error                          output.o
X509_STORE_CTX_get_error_depth                    output.o
X509_STORE_CTX_get_ex_data                        output.o
X509_STORE_CTX_get_ex_new_index                   output.o
X509_STORE_CTX_get_explicit_policy                output.o
X509_STORE_CTX_init                               output.o
X509_STORE_CTX_new                                output.o
X509_STORE_CTX_purpose_inherit                    output.o
X509_STORE_CTX_set0_crls                          output.o
X509_STORE_CTX_set0_param                         output.o
X509_STORE_CTX_set_cert                           output.o
X509_STORE_CTX_set_chain                          output.o
X509_STORE_CTX_set_default                        output.o
X509_STORE_CTX_set_depth                          output.o
X509_STORE_CTX_set_error                          output.o
X509_STORE_CTX_set_ex_data                        output.o
X509_STORE_CTX_set_flags                          output.o
X509_STORE_CTX_set_purpose                        output.o
X509_STORE_CTX_set_time                           output.o
X509_STORE_CTX_set_trust                          output.o
X509_STORE_CTX_set_verify_cb                      output.o
X509_STORE_CTX_trusted_stack                      output.o
X509_STORE_add_cert                               output.o
X509_STORE_add_crl                                output.o
X509_STORE_add_lookup                             output.o
X509_STORE_free                                   output.o
X509_STORE_get1_certs                             output.o
X509_STORE_get1_crls                              output.o
X509_STORE_get_by_subject                         output.o
X509_STORE_new                                    output.o
X509_STORE_set1_param                             output.o
X509_STORE_set_depth                              output.o
X509_STORE_set_flags                              output.o
X509_STORE_set_purpose                            output.o
X509_STORE_set_trust                              output.o
X509_STORE_set_verify_cb                          output.o
X509_TRUST_add                                    output.o
X509_TRUST_cleanup                                output.o
X509_TRUST_get0                                   output.o
X509_TRUST_get0_name                              output.o
X509_TRUST_get_by_id                              output.o
X509_TRUST_get_count                              output.o
X509_TRUST_get_flags                              output.o
X509_TRUST_get_trust                              output.o
X509_TRUST_set                                    output.o
X509_TRUST_set_default                            output.o
X509_VAL_free                                     output.o
X509_VAL_it                                       output.o
X509_VAL_new                                      output.o
X509_VERIFY_PARAM_add0_policy                     output.o
X509_VERIFY_PARAM_add0_table                      output.o
X509_VERIFY_PARAM_clear_flags                     output.o
X509_VERIFY_PARAM_free                            output.o
X509_VERIFY_PARAM_get_depth                       output.o
X509_VERIFY_PARAM_get_flags                       output.o
X509_VERIFY_PARAM_inherit                         output.o
X509_VERIFY_PARAM_lookup                          output.o
X509_VERIFY_PARAM_new                             output.o
X509_VERIFY_PARAM_set1                            output.o
X509_VERIFY_PARAM_set1_name                       output.o
X509_VERIFY_PARAM_set1_policies                   output.o
X509_VERIFY_PARAM_set_depth                       output.o
X509_VERIFY_PARAM_set_flags                       output.o
X509_VERIFY_PARAM_set_purpose                     output.o
X509_VERIFY_PARAM_set_time                        output.o
X509_VERIFY_PARAM_set_trust                       output.o
X509_VERIFY_PARAM_table_cleanup                   output.o
X509_add1_ext_i2d                                 output.o
X509_add1_reject_object                           output.o
X509_add1_trust_object                            output.o
X509_add_ext                                      output.o
X509_alias_get0                                   output.o
X509_alias_set1                                   output.o
X509_check_akid                                   output.o
X509_check_ca                                     output.o
X509_check_issued                                 output.o
X509_check_private_key                            output.o
X509_check_purpose                                output.o
X509_check_trust                                  output.o
X509_cmp                                          output.o
X509_cmp_current_time                             output.o
X509_cmp_time                                     output.o
X509_delete_ext                                   output.o
X509_digest                                       output.o
X509_dup                                          output.o
X509_email_free                                   output.o
X509_find_by_issuer_and_serial                    output.o
X509_find_by_subject                              output.o
X509_free                                         output.o
X509_get0_pubkey_bitstr                           output.o
X509_get1_email                                   output.o
X509_get1_ocsp                                    output.o
X509_get_default_cert_area                        output.o
X509_get_default_cert_dir                         output.o
X509_get_default_cert_dir_env                     output.o
X509_get_default_cert_file                        output.o
X509_get_default_cert_file_env                    output.o
X509_get_default_private_dir                      output.o
X509_get_ex_data                                  output.o
X509_get_ex_new_index                             output.o
X509_get_ext                                      output.o
X509_get_ext_by_NID                               output.o
X509_get_ext_by_OBJ                               output.o
X509_get_ext_by_critical                          output.o
X509_get_ext_count                                output.o
X509_get_ext_d2i                                  output.o
X509_get_issuer_name                              output.o
X509_get_pubkey                                   output.o
X509_get_pubkey_parameters                        output.o
X509_get_serialNumber                             output.o
X509_get_subject_name                             output.o
X509_gmtime_adj                                   output.o
X509_issuer_and_serial_cmp                        output.o
X509_issuer_and_serial_hash                       output.o
X509_issuer_name_cmp                              output.o
X509_issuer_name_hash                             output.o
X509_issuer_name_hash_old                         output.o
X509_it                                           output.o
X509_keyid_get0                                   output.o
X509_keyid_set1                                   output.o
X509_new                                          output.o
X509_ocspid_print                                 output.o
X509_policy_check                                 output.o
X509_policy_level_get0_node                       output.o
X509_policy_level_node_count                      output.o
X509_policy_node_get0_parent                      output.o
X509_policy_node_get0_policy                      output.o
X509_policy_node_get0_qualifiers                  output.o
X509_policy_tree_free                             output.o
X509_policy_tree_get0_level                       output.o
X509_policy_tree_get0_policies                    output.o
X509_policy_tree_get0_user_policies               output.o
X509_policy_tree_level_count                      output.o
X509_print                                        output.o
X509_print_ex                                     output.o
X509_pubkey_digest                                output.o
X509_reject_clear                                 output.o
X509_set_ex_data                                  output.o
X509_sign                                         output.o
X509_signature_print                              output.o
X509_subject_name_cmp                             output.o
X509_subject_name_hash                            output.o
X509_subject_name_hash_old                        output.o
X509_supported_extension                          output.o
X509_time_adj                                     output.o
X509_time_adj_ex                                  output.o
X509_to_X509_REQ                                  output.o
X509_trust_clear                                  output.o
X509_verify                                       output.o
X509_verify_cert                                  output.o
X509_version                                      output.o
X509at_add1_attr                                  output.o
X509at_add1_attr_by_NID                           output.o
X509at_add1_attr_by_OBJ                           output.o
X509at_add1_attr_by_txt                           output.o
X509at_delete_attr                                output.o
X509at_get0_data_by_OBJ                           output.o
X509at_get_attr                                   output.o
X509at_get_attr_by_NID                            output.o
X509at_get_attr_by_OBJ                            output.o
X509at_get_attr_count                             output.o
X509v3_add_ext                                    output.o
X509v3_delete_ext                                 output.o
X509v3_get_ext                                    output.o
X509v3_get_ext_by_NID                             output.o
X509v3_get_ext_by_OBJ                             output.o
X509v3_get_ext_by_critical                        output.o
X509v3_get_ext_count                              output.o
X9_62_CHARACTERISTIC_TWO_free                     output.o
X9_62_CHARACTERISTIC_TWO_it                       output.o
X9_62_CHARACTERISTIC_TWO_new                      output.o
X9_62_CURVE_it                                    output.o
X9_62_FIELDID_it                                  output.o
X9_62_PENTANOMIAL_free                            output.o
X9_62_PENTANOMIAL_it                              output.o
X9_62_PENTANOMIAL_new                             output.o
ZLONG_it                                          output.o
_CONF_add_string                                  output.o
_CONF_free_data                                   output.o
_CONF_get_section                                 output.o
_CONF_get_section_values                          output.o
_CONF_get_string                                  output.o
_CONF_new_data                                    output.o
_CONF_new_section                                 output.o
__initfunc_acpi_init_global                       output.o
__initfunc_acpi_init_paral                        output.o
__initfunc_ata_init                               output.o
__initfunc_beep_init_msg                          output.o
__initfunc_cache_init_pass                        output.o
__initfunc_cache_init_pcpu                        output.o
__initfunc_cache_init_vcpu                        output.o
__initfunc_callrealmode_init_global               output.o
__initfunc_callrealmode_panic                     output.o
__initfunc_copy_minios                            output.o
__initfunc_core_init                              output.o
__initfunc_cpu_mmu_spt_init_global                output.o
__initfunc_cpu_mmu_spt_init_pcpu                  output.o
__initfunc_cpuid_init                             output.o
__initfunc_cpuid_pass_init                        output.o
__initfunc_create_pass_vm                         output.o
__initfunc_debug_ata_init                         output.o
__initfunc_debug_on_shift_key                     output.o
__initfunc_ehci_init                              output.o
__initfunc_end                                    output.o
__initfunc_exint_pass_init                        output.o
__initfunc_get_shiftflags                         output.o
__initfunc_gmm_pass_init                          output.o
__initfunc_idman_init                             output.o
__initfunc_idman_init_global                      output.o
__initfunc_idman_kernel_init                      output.o
__initfunc_ieee1394_init                          output.o
__initfunc_ieee1394_init_boot                     output.o
__initfunc_install_int0x15_hook                   output.o
__initfunc_int_init_global                        output.o
__initfunc_int_wakeup                             output.o
__initfunc_io_io_init                             output.o
__initfunc_io_iopass_init                         output.o
__initfunc_iommu_setup                            output.o
__initfunc_keyboard_init_msg                      output.o
__initfunc_localapic_init                         output.o
__initfunc_mm_init_global                         output.o
__initfunc_mmio_debug                             output.o
__initfunc_mmio_init                              output.o
__initfunc_msg_init_global                        output.o
__initfunc_msr_init                               output.o
__initfunc_msr_pass_init                          output.o
__initfunc_nmi_pass_init                          output.o
__initfunc_nmi_pass_init_pcpu                     output.o
__initfunc_panic_init_global                      output.o
__initfunc_panic_init_global3                     output.o
__initfunc_panic_init_msg                         output.o
__initfunc_panic_init_pcpu                        output.o
__initfunc_pci_init                               output.o
__initfunc_print_boot_msg                         output.o
__initfunc_printf_init_global                     output.o
__initfunc_pro100_init                            output.o
__initfunc_process_init_ap                        output.o
__initfunc_process_init_global                    output.o
__initfunc_process_wakeup                         output.o
__initfunc_random_init_config0                    output.o
__initfunc_random_init_global                     output.o
__initfunc_reboot_init_msg                        output.o
__initfunc_resume_pro1000                         output.o
__initfunc_segment_init_global                    output.o
__initfunc_serial_init_msg                        output.o
__initfunc_setiohooks                             output.o
__initfunc_sleep_init_global                      output.o
__initfunc_sleep_init_msg                         output.o
__initfunc_start                                  output.o
__initfunc_storage_io_initfunc                    output.o
__initfunc_storage_kernel_init                    output.o
__initfunc_suspend_pro1000                        output.o
__initfunc_svm_panic                              output.o
__initfunc_sx_init_pass_init                      output.o
__initfunc_thread_init_global                     output.o
__initfunc_thread_init_pcpu                       output.o
__initfunc_time_init_global                       output.o
__initfunc_time_init_global_status                output.o
__initfunc_time_init_msg                          output.o
__initfunc_time_init_pcpu                         output.o
__initfunc_timer_init_global                      output.o
__initfunc_tty_init_global                        output.o
__initfunc_tty_init_global2                       output.o
__initfunc_tty_init_msg                           output.o
__initfunc_uhci_init                              output.o
__initfunc_unmap_user_area                        output.o
__initfunc_vcpu_init_global                       output.o
__initfunc_vga_init                               output.o
__initfunc_virtualization_init_pcpu               output.o
__initfunc_vmmcall_boot_init                      output.o
__initfunc_vmmcall_dbgsh_init                     output.o
__initfunc_vmmcall_dbgsh_init_global              output.o
__initfunc_vmmcall_dbgsh_init_pcpu                output.o
__initfunc_vmmcall_iccard_init                    output.o
__initfunc_vmmcall_init                           output.o
__initfunc_vmmcall_log_init                       output.o
__initfunc_vmmcall_status_init                    output.o
__initfunc_vmmcall_status_init_global             output.o
__initfunc_vpn_kernel_init                        output.o
__initfunc_vpn_pro1000_init                       output.o
__initfunc_vramwrite_init_bsp                     output.o
__initfunc_vramwrite_init_msg                     output.o
__initfunc_vt_panic                               output.o
__initfunc_vt_register_status_callback            output.o
__initfunc_xsetbv_init                            output.o
__initfunc_xsetbv_pass_init                       output.o
__process_builtin                                 output.o
__process_builtin_end                             output.o
_dprintf                                          output.o
_dprintft                                         output.o
_shadow_DES_check_key                             output.o
a2d_ASN1_OBJECT                                   output.o
a2i_ASN1_INTEGER                                  output.o
a2i_ASN1_STRING                                   output.o
a2i_GENERAL_NAME                                  output.o
a2i_IPADDRESS                                     output.o
a2i_IPADDRESS_NC                                  output.o
a2i_ipadd                                         output.o
acpi_dsdt_parse                                   output.o
acpi_dsdt_system_state                            output.o
acpi_iohook                                       output.o
acpi_poweroff                                     output.o
acpi_reset                                        output.o
acpi_smi_hook                                     output.o
add_remap                                         output.o
aes_xts_init                                      output.o
ahci_config_read                                  output.o
ahci_config_write                                 output.o
ahci_new                                          output.o
alloc                                             output.o
alloc2                                            output.o
alloc_handler_descriptor                          output.o
alloc_page                                        output.o
alloc_pages                                       output.o
alloc_realmodemem                                 output.o
allocateNewAppID                                  output.o
allocateNewApplicationIdentifiers                 output.o
allocateNewVMID                                   output.o
ap_start_addr                                     output.o
apic_available                                    output.o
apinit_lock                                       output.o
apinit_procs                                      output.o
apinitproc0                                       output.o
app_pkey_methods                                  output.o
asm_vmlaunch_regs_32                              output.o
asm_vmlaunch_regs_64                              output.o
asm_vmresume_regs_32                              output.o
asm_vmresume_regs_64                              output.o
asm_vmrun_regs_32                                 output.o
asm_vmrun_regs_64                                 output.o
asn1_Finish                                       output.o
asn1_GetSequence                                  output.o
asn1_add_error                                    output.o
asn1_const_Finish                                 output.o
asn1_do_adb                                       output.o
asn1_do_lock                                      output.o
asn1_enc_free                                     output.o
asn1_enc_init                                     output.o
asn1_enc_restore                                  output.o
asn1_enc_save                                     output.o
asn1_ex_c2i                                       output.o
asn1_ex_i2c                                       output.o
asn1_get_choice_selector                          output.o
asn1_get_field_ptr                                output.o
asn1_set_choice_selector                          output.o
asn1_template_print_ctx                           output.o
assertion_failed                                  output.o
ata_ahci_mode                                     output.o
ata_bm_handle_command                             output.o
ata_bm_handle_device_specific                     output.o
ata_bm_handle_prd_table                           output.o
ata_bm_handle_status                              output.o
ata_bm_handler                                    output.o
ata_bm_handler_table                              output.o
ata_channel_lock                                  output.o
ata_channel_unlock                                output.o
ata_cmdblk_handler                                output.o
ata_cmdblk_handler_table                          output.o
ata_config_read                                   output.o
ata_config_write                                  output.o
ata_ctlblk_handler                                output.o
ata_ctlblk_handler_table                          output.o
ata_get_cmd_type                                  output.o
ata_handle_queued_status                          output.o
ata_init_io_handler                               output.o
ata_init_vendor                                   output.o
ata_set_bm_handler                                output.o
ata_set_cmdblk_handler                            output.o
ata_set_ctlblk_handler                            output.o
atapi_handle_cmd_packet                           output.o
atapi_handle_config_data                          output.o
atapi_handle_interrupt_reason                     output.o
atapi_handle_packet_data                          output.o
atapi_handle_pio_identify_packet                  output.o
auto_reboot                                       output.o
backtrace                                         output.o
beep_off                                          output.o
beep_on                                           output.o
beep_set_freq                                     output.o
bn_add_part_words                                 output.o
bn_add_words                                      output.o
bn_cmp_part_words                                 output.o
bn_cmp_words                                      output.o
bn_div_words                                      output.o
bn_dup_expand                                     output.o
bn_expand2                                        output.o
bn_mul_add_words                                  output.o
bn_mul_comba4                                     output.o
bn_mul_comba8                                     output.o
bn_mul_high                                       output.o
bn_mul_low_normal                                 output.o
bn_mul_low_recursive                              output.o
bn_mul_normal                                     output.o
bn_mul_part_recursive                             output.o
bn_mul_recursive                                  output.o
bn_mul_words                                      output.o
bn_sqr_comba4                                     output.o
bn_sqr_comba8                                     output.o
bn_sqr_normal                                     output.o
bn_sqr_recursive                                  output.o
bn_sqr_words                                      output.o
bn_sub_part_words                                 output.o
bn_sub_words                                      output.o
bss                                               output.o
c2i_ASN1_BIT_STRING                               output.o
c2i_ASN1_INTEGER                                  output.o
c2i_ASN1_OBJECT                                   output.o
cache_get_attr                                    output.o
cache_get_gmsr_amd                                output.o
cache_get_gmtrr                                   output.o
cache_get_gmtrr_attr                              output.o
cache_get_gmtrr_type                              output.o
cache_get_gmtrrcap                                output.o
cache_get_gpat                                    output.o
cache_set_gmsr_amd                                output.o
cache_set_gmtrr                                   output.o
cache_set_gpat                                    output.o
call_cpuid                                        output.o
call_initfunc                                     output.o
call_io                                           output.o
call_read_msr                                     output.o
call_write_msr                                    output.o
call_xsetbv                                       output.o
callfunc_and_getint                               output.o
callrealmode_bootcd_getstatus                     output.o
callrealmode_disk_readlba                         output.o
callrealmode_disk_readmbr                         output.o
callrealmode_end                                  output.o
callrealmode_endofcodeaddr                        output.o
callrealmode_getfontinfo                          output.o
callrealmode_getshiftflags                        output.o
callrealmode_getsysmemmap                         output.o
callrealmode_printmsg                             output.o
callrealmode_reboot                               output.o
callrealmode_setcursorpos                         output.o
callrealmode_setvideomode                         output.o
callrealmode_start                                output.o
callrealmode_start2                               output.o
callrealmode_startkernel32                        output.o
callrealmode_tcgbios                              output.o
callrealmode_usevcpu                              output.o
cancel_sleep                                      output.o
changePageStatus                                  output.o
check_defer                                       output.o
chelp_abort                                       output.o
chelp_bsearch                                     output.o
chelp_div_64_32_32                                output.o
chelp_div_64_32_64                                output.o
chelp_free                                        output.o
chelp_inited                                      output.o
chelp_isalnum                                     output.o
chelp_isalpha                                     output.o
chelp_isdigit                                     output.o
chelp_islower                                     output.o
chelp_isspace                                     output.o
chelp_isupper                                     output.o
chelp_isxdigit                                    output.o
chelp_malloc                                      output.o
chelp_memchr                                      output.o
chelp_memcmp                                      output.o
chelp_memcpy                                      output.o
chelp_memmove                                     output.o
chelp_memset                                      output.o
chelp_mod_64_32_32                                output.o
chelp_mul_64_64_64                                output.o
chelp_print                                       output.o
chelp_printf                                      output.o
chelp_qsort                                       output.o
chelp_realloc                                     output.o
chelp_snprintf                                    output.o
chelp_sprintf                                     output.o
chelp_strcat                                      output.o
chelp_strchr                                      output.o
chelp_strcmp                                      output.o
chelp_strcpy                                      output.o
chelp_stricmp                                     output.o
chelp_strlen                                      output.o
chelp_strncasecmp                                 output.o
chelp_strncmp                                     output.o
chelp_strncpy                                     output.o
chelp_strrchr                                     output.o
chelp_strtol                                      output.o
chelp_strtoul                                     output.o
chelp_strtoul_ex                                  output.o
chelp_swap                                        output.o
chelp_tolower                                     output.o
chelp_toupper                                     output.o
cleanse_ctr                                       output.o
clear_guest_status                                output.o
clflush_size                                      output.o
closePage                                         output.o
cmpxchg_gphys_l                                   output.o
cmpxchg_gphys_q                                   output.o
cmpxchg_hphys_l                                   output.o
cmpxchg_hphys_q                                   output.o
cms_Data_create                                   output.o
cms_DigestAlgorithm_find_ctx                      output.o
cms_DigestAlgorithm_init_bio                      output.o
cms_DigestAlgorithm_set                           output.o
cms_DigestedData_create                           output.o
cms_DigestedData_do_final                         output.o
cms_DigestedData_init_bio                         output.o
cms_EncryptedContent_init                         output.o
cms_EncryptedContent_init_bio                     output.o
cms_EncryptedData_init_bio                        output.o
cms_EnvelopedData_init_bio                        output.o
cms_SignedData_final                              output.o
cms_SignedData_init_bio                           output.o
cms_SignerIdentifier_cert_cmp                     output.o
cms_SignerIdentifier_get0_signer_id               output.o
cms_content_bio                                   output.o
cms_set1_SignerIdentifier                         output.o
config                                            output.o
copy_bootsector                                   output.o
core_init                                         output.o
core_io_handle_default                            output.o
core_io_modify_handler                            output.o
core_io_register_handler                          output.o
core_io_unregister_handler                        output.o
core_mm_read_guest_phys                           output.o
core_mm_write_guest_phys                          output.o
cpu_emul_cli                                      output.o
cpu_emul_cpuid                                    output.o
cpu_emul_hlt                                      output.o
cpu_emul_rdmsr                                    output.o
cpu_emul_realmode_int                             output.o
cpu_emul_sti                                      output.o
cpu_emul_wrmsr                                    output.o
cpu_emul_xsetbv                                   output.o
cpu_interpreter                                   output.o
cpu_mmu_get_pte                                   output.o
cpu_mmu_spt_clear_all                             output.o
cpu_mmu_spt_extern_mapsearch                      output.o
cpu_mmu_spt_init                                  output.o
cpu_mmu_spt_invalidate                            output.o
cpu_mmu_spt_map_1mb                               output.o
cpu_mmu_spt_pagefault                             output.o
cpu_mmu_spt_tlbflush                              output.o
cpu_mmu_spt_updatecr3                             output.o
cpu_seg_read_b                                    output.o
cpu_seg_read_l                                    output.o
cpu_seg_read_q                                    output.o
cpu_seg_read_w                                    output.o
cpu_seg_write_b                                   output.o
cpu_seg_write_l                                   output.o
cpu_seg_write_q                                   output.o
cpu_seg_write_w                                   output.o
cpu_stack_get                                     output.o
cpu_stack_pop                                     output.o
cpu_stack_push                                    output.o
cpu_stack_set                                     output.o
cpuinit_end                                       output.o
cpuinit_start                                     output.o
create_dom                                        output.o
crypt_sys_rsa_sign                                output.o
crypto_find                                       output.o
crypto_init                                       output.o
crypto_none_init                                  output.o
crypto_register                                   output.o
currentProtectedApplication                       output.o
currentRunningApplication                         output.o
curthread                                         output.o
d2i_ACCESS_DESCRIPTION                            output.o
d2i_ASN1_BIT_STRING                               output.o
d2i_ASN1_BMPSTRING                                output.o
d2i_ASN1_BOOLEAN                                  output.o
d2i_ASN1_ENUMERATED                               output.o
d2i_ASN1_GENERALIZEDTIME                          output.o
d2i_ASN1_GENERALSTRING                            output.o
d2i_ASN1_IA5STRING                                output.o
d2i_ASN1_INTEGER                                  output.o
d2i_ASN1_NULL                                     output.o
d2i_ASN1_OBJECT                                   output.o
d2i_ASN1_OCTET_STRING                             output.o
d2i_ASN1_PRINTABLE                                output.o
d2i_ASN1_PRINTABLESTRING                          output.o
d2i_ASN1_SEQUENCE_ANY                             output.o
d2i_ASN1_SET                                      output.o
d2i_ASN1_SET_ANY                                  output.o
d2i_ASN1_T61STRING                                output.o
d2i_ASN1_TIME                                     output.o
d2i_ASN1_TYPE                                     output.o
d2i_ASN1_UINTEGER                                 output.o
d2i_ASN1_UNIVERSALSTRING                          output.o
d2i_ASN1_UTCTIME                                  output.o
d2i_ASN1_UTF8STRING                               output.o
d2i_ASN1_VISIBLESTRING                            output.o
d2i_ASN1_bytes                                    output.o
d2i_ASN1_type_bytes                               output.o
d2i_AUTHORITY_INFO_ACCESS                         output.o
d2i_AUTHORITY_KEYID                               output.o
d2i_AutoPrivateKey                                output.o
d2i_BASIC_CONSTRAINTS                             output.o
d2i_CERTIFICATEPOLICIES                           output.o
d2i_CMS_ContentInfo                               output.o
d2i_CMS_bio                                       output.o
d2i_CRL_DIST_POINTS                               output.o
d2i_DHparams                                      output.o
d2i_DIRECTORYSTRING                               output.o
d2i_DISPLAYTEXT                                   output.o
d2i_DIST_POINT                                    output.o
d2i_DIST_POINT_NAME                               output.o
d2i_DSAPrivateKey                                 output.o
d2i_DSAPrivateKey_bio                             output.o
d2i_DSAPublicKey                                  output.o
d2i_DSA_PUBKEY                                    output.o
d2i_DSA_PUBKEY_bio                                output.o
d2i_DSA_SIG                                       output.o
d2i_DSAparams                                     output.o
d2i_ECDSA_SIG                                     output.o
d2i_ECPKPARAMETERS                                output.o
d2i_ECPKParameters                                output.o
d2i_ECParameters                                  output.o
d2i_ECPrivateKey                                  output.o
d2i_ECPrivateKey_bio                              output.o
d2i_EC_PRIVATEKEY                                 output.o
d2i_EC_PUBKEY                                     output.o
d2i_EC_PUBKEY_bio                                 output.o
d2i_EDIPARTYNAME                                  output.o
d2i_EXTENDED_KEY_USAGE                            output.o
d2i_GENERAL_NAME                                  output.o
d2i_GENERAL_NAMES                                 output.o
d2i_ISSUING_DIST_POINT                            output.o
d2i_NETSCAPE_CERT_SEQUENCE                        output.o
d2i_NETSCAPE_SPKAC                                output.o
d2i_NETSCAPE_SPKI                                 output.o
d2i_NOTICEREF                                     output.o
d2i_OCSP_BASICRESP                                output.o
d2i_OCSP_CERTID                                   output.o
d2i_OCSP_CERTSTATUS                               output.o
d2i_OCSP_CRLID                                    output.o
d2i_OCSP_ONEREQ                                   output.o
d2i_OCSP_REQINFO                                  output.o
d2i_OCSP_REQUEST                                  output.o
d2i_OCSP_RESPBYTES                                output.o
d2i_OCSP_RESPDATA                                 output.o
d2i_OCSP_RESPID                                   output.o
d2i_OCSP_RESPONSE                                 output.o
d2i_OCSP_REVOKEDINFO                              output.o
d2i_OCSP_SERVICELOC                               output.o
d2i_OCSP_SIGNATURE                                output.o
d2i_OCSP_SINGLERESP                               output.o
d2i_OTHERNAME                                     output.o
d2i_PBE2PARAM                                     output.o
d2i_PBEPARAM                                      output.o
d2i_PBKDF2PARAM                                   output.o
d2i_PKCS12                                        output.o
d2i_PKCS12_BAGS                                   output.o
d2i_PKCS12_MAC_DATA                               output.o
d2i_PKCS12_SAFEBAG                                output.o
d2i_PKCS12_bio                                    output.o
d2i_PKCS7                                         output.o
d2i_PKCS7_DIGEST                                  output.o
d2i_PKCS7_ENCRYPT                                 output.o
d2i_PKCS7_ENC_CONTENT                             output.o
d2i_PKCS7_ENVELOPE                                output.o
d2i_PKCS7_ISSUER_AND_SERIAL                       output.o
d2i_PKCS7_RECIP_INFO                              output.o
d2i_PKCS7_SIGNED                                  output.o
d2i_PKCS7_SIGNER_INFO                             output.o
d2i_PKCS7_SIGN_ENVELOPE                           output.o
d2i_PKCS7_bio                                     output.o
d2i_PKCS8PrivateKey_bio                           output.o
d2i_PKCS8_PRIV_KEY_INFO                           output.o
d2i_PKCS8_PRIV_KEY_INFO_bio                       output.o
d2i_PKCS8_bio                                     output.o
d2i_PKEY_USAGE_PERIOD                             output.o
d2i_POLICYINFO                                    output.o
d2i_POLICYQUALINFO                                output.o
d2i_PROXY_CERT_INFO_EXTENSION                     output.o
d2i_PROXY_POLICY                                  output.o
d2i_PUBKEY                                        output.o
d2i_PUBKEY_bio                                    output.o
d2i_PrivateKey                                    output.o
d2i_PrivateKey_bio                                output.o
d2i_RSAPrivateKey                                 output.o
d2i_RSAPrivateKey_bio                             output.o
d2i_RSAPublicKey                                  output.o
d2i_RSAPublicKey_bio                              output.o
d2i_RSA_PUBKEY                                    output.o
d2i_RSA_PUBKEY_bio                                output.o
d2i_SXNET                                         output.o
d2i_SXNETID                                       output.o
d2i_USERNOTICE                                    output.o
d2i_X509                                          output.o
d2i_X509_ALGOR                                    output.o
d2i_X509_ALGORS                                   output.o
d2i_X509_ATTRIBUTE                                output.o
d2i_X509_AUX                                      output.o
d2i_X509_CERT_AUX                                 output.o
d2i_X509_CERT_PAIR                                output.o
d2i_X509_CINF                                     output.o
d2i_X509_CRL                                      output.o
d2i_X509_CRL_INFO                                 output.o
d2i_X509_CRL_bio                                  output.o
d2i_X509_EXTENSION                                output.o
d2i_X509_EXTENSIONS                               output.o
d2i_X509_NAME                                     output.o
d2i_X509_NAME_ENTRY                               output.o
d2i_X509_PUBKEY                                   output.o
d2i_X509_REQ                                      output.o
d2i_X509_REQ_INFO                                 output.o
d2i_X509_REQ_bio                                  output.o
d2i_X509_REVOKED                                  output.o
d2i_X509_SIG                                      output.o
d2i_X509_VAL                                      output.o
d2i_X509_bio                                      output.o
deactivate_and_delete_urb                         output.o
debug_addstr                                      output.o
debug_gdb                                         output.o
debug_iohook                                      output.o
debug_msgregister                                 output.o
debug_msgunregister                               output.o
decryptcfg                                        output.o
default_pctx                                      output.o
dh_asn1_meth                                      output.o
dh_pkey_meth                                      output.o
disable_apic                                      output.o
do_exint_pass                                     output.o
do_externalint_enable                             output.o
do_io_nothing                                     output.o
do_iopass_default                                 output.o
do_panic_reboot                                   output.o
dom_io                                            output.o
dprintf_port                                      output.o
drhd_list_head                                    output.o
dsa_asn1_meths                                    output.o
dsa_builtin_paramgen                              output.o
dsa_pkey_meth                                     output.o
dsa_pub_internal_it                               output.o
dump_frame                                        output.o
dump_qh                                           output.o
dump_td                                           output.o
dump_td_byvirt                                    output.o
dwReaders                                         output.o
e801_fake_ax                                      output.o
e801_fake_bx                                      output.o
ec_GF2m_have_precompute_mult                      output.o
ec_GF2m_precompute_mult                           output.o
ec_GF2m_simple_add                                output.o
ec_GF2m_simple_cmp                                output.o
ec_GF2m_simple_dbl                                output.o
ec_GF2m_simple_field_div                          output.o
ec_GF2m_simple_field_mul                          output.o
ec_GF2m_simple_field_sqr                          output.o
ec_GF2m_simple_group_check_discriminant           output.o
ec_GF2m_simple_group_clear_finish                 output.o
ec_GF2m_simple_group_copy                         output.o
ec_GF2m_simple_group_finish                       output.o
ec_GF2m_simple_group_get_curve                    output.o
ec_GF2m_simple_group_get_degree                   output.o
ec_GF2m_simple_group_init                         output.o
ec_GF2m_simple_group_set_curve                    output.o
ec_GF2m_simple_invert                             output.o
ec_GF2m_simple_is_at_infinity                     output.o
ec_GF2m_simple_is_on_curve                        output.o
ec_GF2m_simple_make_affine                        output.o
ec_GF2m_simple_mul                                output.o
ec_GF2m_simple_oct2point                          output.o
ec_GF2m_simple_point2oct                          output.o
ec_GF2m_simple_point_clear_finish                 output.o
ec_GF2m_simple_point_copy                         output.o
ec_GF2m_simple_point_finish                       output.o
ec_GF2m_simple_point_get_affine_coordinates       output.o
ec_GF2m_simple_point_init                         output.o
ec_GF2m_simple_point_set_affine_coordinates       output.o
ec_GF2m_simple_point_set_to_infinity              output.o
ec_GF2m_simple_points_make_affine                 output.o
ec_GF2m_simple_set_compressed_coordinates         output.o
ec_GFp_mont_field_decode                          output.o
ec_GFp_mont_field_encode                          output.o
ec_GFp_mont_field_mul                             output.o
ec_GFp_mont_field_set_to_one                      output.o
ec_GFp_mont_field_sqr                             output.o
ec_GFp_mont_group_clear_finish                    output.o
ec_GFp_mont_group_copy                            output.o
ec_GFp_mont_group_finish                          output.o
ec_GFp_mont_group_init                            output.o
ec_GFp_mont_group_set_curve                       output.o
ec_GFp_nist_field_mul                             output.o
ec_GFp_nist_field_sqr                             output.o
ec_GFp_nist_group_copy                            output.o
ec_GFp_nist_group_set_curve                       output.o
ec_GFp_simple_add                                 output.o
ec_GFp_simple_cmp                                 output.o
ec_GFp_simple_dbl                                 output.o
ec_GFp_simple_field_mul                           output.o
ec_GFp_simple_field_sqr                           output.o
ec_GFp_simple_get_Jprojective_coordinates_GFp     output.o
ec_GFp_simple_group_check_discriminant            output.o
ec_GFp_simple_group_clear_finish                  output.o
ec_GFp_simple_group_copy                          output.o
ec_GFp_simple_group_finish                        output.o
ec_GFp_simple_group_get_curve                     output.o
ec_GFp_simple_group_get_degree                    output.o
ec_GFp_simple_group_init                          output.o
ec_GFp_simple_group_set_curve                     output.o
ec_GFp_simple_invert                              output.o
ec_GFp_simple_is_at_infinity                      output.o
ec_GFp_simple_is_on_curve                         output.o
ec_GFp_simple_make_affine                         output.o
ec_GFp_simple_oct2point                           output.o
ec_GFp_simple_point2oct                           output.o
ec_GFp_simple_point_clear_finish                  output.o
ec_GFp_simple_point_copy                          output.o
ec_GFp_simple_point_finish                        output.o
ec_GFp_simple_point_get_affine_coordinates        output.o
ec_GFp_simple_point_init                          output.o
ec_GFp_simple_point_set_affine_coordinates        output.o
ec_GFp_simple_point_set_to_infinity               output.o
ec_GFp_simple_points_make_affine                  output.o
ec_GFp_simple_set_Jprojective_coordinates_GFp     output.o
ec_GFp_simple_set_compressed_coordinates          output.o
ec_pkey_meth                                      output.o
ec_wNAF_have_precompute_mult                      output.o
ec_wNAF_mul                                       output.o
ec_wNAF_precompute_mult                           output.o
ecdh_check                                        output.o
ecdsa_check                                       output.o
eckey_asn1_meth                                   output.o
ehci_check_advance                                output.o
ehci_check_urb_advance                            output.o
ehci_cleanup_urbs                                 output.o
ehci_conceal_portroute                            output.o
ehci_deactivate_urb                               output.o
ehci_dump_alist                                   output.o
ehci_dump_all                                     output.o
ehci_dump_async                                   output.o
ehci_dump_qtd                                     output.o
ehci_dump_qtdm                                    output.o
ehci_dump_urb                                     output.o
ehci_dump_urblist                                 output.o
ehci_end_monitor_async                            output.o
ehci_host                                         output.o
ehci_init                                         output.o
ehci_monitor_async_list                           output.o
ehci_shadow_async_list                            output.o
ehci_shadow_buffer                                output.o
ehci_submit_bulk                                  output.o
ehci_submit_control                               output.o
ehci_submit_interrupt                             output.o
end                                               output.o
entry                                             output.o
entry_pd                                          output.o
entry_pd0                                         output.o
entry_pdp                                         output.o
evp_pkey_set_cb_translate                         output.o
exitprocess                                       output.o
findProtectedApplicationFromRIP                   output.o
free                                              output.o
free_config_descriptors                           output.o
free_device                                       output.o
free_page                                         output.o
free_page_phys                                    output.o
g_rgSCardT0Pci                                    output.o
g_rgSCardT1Pci                                    output.o
getCurrentProtectedApplication                    output.o
getGuestRSP                                       output.o
getMemoryOwnershipTableEntry                      output.o
getMemoryOwnershipTableIndex                      output.o
getSystemCallHandlerGPA                           output.o
getTSSGVA                                         output.o
get_acpi_time                                     output.o
get_acpi_time_raw                                 output.o
get_cpu_id                                        output.o
get_cpu_time                                      output.o
get_ept_base_HPA                                  output.o
get_guest_cr3_value                               output.o
get_guest_eptp_value                              output.o
get_gurb_by_address                               output.o
get_idman_session                                 output.o
get_page_table_base_GPA                           output.o
get_seg_access_rights                             output.o
get_seg_base                                      output.o
get_time                                          output.o
getfakesysmemmap                                  output.o
getsysmemmap                                      output.o
gmm_pass_gp2hp                                    output.o
gpaToHPA                                          output.o
gs_current                                        output.o
gs_currentcpu                                     output.o
gs_init_count                                     output.o
gs_inthandling                                    output.o
gs_nmi                                            output.o
gs_syscallstack                                   output.o
guest_int0x15_e801_fake_ax                        output.o
guest_int0x15_e801_fake_bx                        output.o
guest_int0x15_e820_data_minus0x18                 output.o
guest_int0x15_e820_end                            output.o
guest_int0x15_hook                                output.o
guest_int0x15_hook_end                            output.o
guest_int0x15_orig                                output.o
gvaToGPA                                          output.o
hContext                                          output.o
hObjectCnt                                        output.o
hSessionCnt                                       output.o
handle_connect_status                             output.o
handle_init_to_bsp                                output.o
handle_port_reset                                 output.o
handler_descriptor                                output.o
handler_descriptor_lock                           output.o
head                                              output.o
hex_to_string                                     output.o
hmac_asn1_meth                                    output.o
hmac_pkey_meth                                    output.o
hub_portdevice_register                           output.o
hypercall_handler                                 output.o
i2a_ACCESS_DESCRIPTION                            output.o
i2a_ASN1_INTEGER                                  output.o
i2a_ASN1_OBJECT                                   output.o
i2a_ASN1_STRING                                   output.o
i2c_ASN1_BIT_STRING                               output.o
i2c_ASN1_INTEGER                                  output.o
i2d_ACCESS_DESCRIPTION                            output.o
i2d_ASN1_BIT_STRING                               output.o
i2d_ASN1_BMPSTRING                                output.o
i2d_ASN1_BOOLEAN                                  output.o
i2d_ASN1_ENUMERATED                               output.o
i2d_ASN1_GENERALIZEDTIME                          output.o
i2d_ASN1_GENERALSTRING                            output.o
i2d_ASN1_IA5STRING                                output.o
i2d_ASN1_INTEGER                                  output.o
i2d_ASN1_NULL                                     output.o
i2d_ASN1_OBJECT                                   output.o
i2d_ASN1_OCTET_STRING                             output.o
i2d_ASN1_PRINTABLE                                output.o
i2d_ASN1_PRINTABLESTRING                          output.o
i2d_ASN1_SEQUENCE_ANY                             output.o
i2d_ASN1_SET                                      output.o
i2d_ASN1_SET_ANY                                  output.o
i2d_ASN1_T61STRING                                output.o
i2d_ASN1_TIME                                     output.o
i2d_ASN1_TYPE                                     output.o
i2d_ASN1_UNIVERSALSTRING                          output.o
i2d_ASN1_UTCTIME                                  output.o
i2d_ASN1_UTF8STRING                               output.o
i2d_ASN1_VISIBLESTRING                            output.o
i2d_ASN1_bio_stream                               output.o
i2d_ASN1_bytes                                    output.o
i2d_AUTHORITY_INFO_ACCESS                         output.o
i2d_AUTHORITY_KEYID                               output.o
i2d_BASIC_CONSTRAINTS                             output.o
i2d_CERTIFICATEPOLICIES                           output.o
i2d_CMS_ContentInfo                               output.o
i2d_CMS_bio                                       output.o
i2d_CMS_bio_stream                                output.o
i2d_CRL_DIST_POINTS                               output.o
i2d_DHparams                                      output.o
i2d_DIRECTORYSTRING                               output.o
i2d_DISPLAYTEXT                                   output.o
i2d_DIST_POINT                                    output.o
i2d_DIST_POINT_NAME                               output.o
i2d_DSAPrivateKey                                 output.o
i2d_DSAPrivateKey_bio                             output.o
i2d_DSAPublicKey                                  output.o
i2d_DSA_PUBKEY                                    output.o
i2d_DSA_PUBKEY_bio                                output.o
i2d_DSA_SIG                                       output.o
i2d_DSAparams                                     output.o
i2d_ECDSA_SIG                                     output.o
i2d_ECPKPARAMETERS                                output.o
i2d_ECPKParameters                                output.o
i2d_ECParameters                                  output.o
i2d_ECPrivateKey                                  output.o
i2d_ECPrivateKey_bio                              output.o
i2d_EC_PRIVATEKEY                                 output.o
i2d_EC_PUBKEY                                     output.o
i2d_EC_PUBKEY_bio                                 output.o
i2d_EDIPARTYNAME                                  output.o
i2d_EXTENDED_KEY_USAGE                            output.o
i2d_GENERAL_NAME                                  output.o
i2d_GENERAL_NAMES                                 output.o
i2d_ISSUING_DIST_POINT                            output.o
i2d_NETSCAPE_CERT_SEQUENCE                        output.o
i2d_NETSCAPE_SPKAC                                output.o
i2d_NETSCAPE_SPKI                                 output.o
i2d_NOTICEREF                                     output.o
i2d_OCSP_BASICRESP                                output.o
i2d_OCSP_CERTID                                   output.o
i2d_OCSP_CERTSTATUS                               output.o
i2d_OCSP_CRLID                                    output.o
i2d_OCSP_ONEREQ                                   output.o
i2d_OCSP_REQINFO                                  output.o
i2d_OCSP_REQUEST                                  output.o
i2d_OCSP_RESPBYTES                                output.o
i2d_OCSP_RESPDATA                                 output.o
i2d_OCSP_RESPID                                   output.o
i2d_OCSP_RESPONSE                                 output.o
i2d_OCSP_REVOKEDINFO                              output.o
i2d_OCSP_SERVICELOC                               output.o
i2d_OCSP_SIGNATURE                                output.o
i2d_OCSP_SINGLERESP                               output.o
i2d_OTHERNAME                                     output.o
i2d_PBE2PARAM                                     output.o
i2d_PBEPARAM                                      output.o
i2d_PBKDF2PARAM                                   output.o
i2d_PKCS12                                        output.o
i2d_PKCS12_BAGS                                   output.o
i2d_PKCS12_MAC_DATA                               output.o
i2d_PKCS12_SAFEBAG                                output.o
i2d_PKCS12_bio                                    output.o
i2d_PKCS7                                         output.o
i2d_PKCS7_DIGEST                                  output.o
i2d_PKCS7_ENCRYPT                                 output.o
i2d_PKCS7_ENC_CONTENT                             output.o
i2d_PKCS7_ENVELOPE                                output.o
i2d_PKCS7_ISSUER_AND_SERIAL                       output.o
i2d_PKCS7_NDEF                                    output.o
i2d_PKCS7_RECIP_INFO                              output.o
i2d_PKCS7_SIGNED                                  output.o
i2d_PKCS7_SIGNER_INFO                             output.o
i2d_PKCS7_SIGN_ENVELOPE                           output.o
i2d_PKCS7_bio                                     output.o
i2d_PKCS8PrivateKeyInfo_bio                       output.o
i2d_PKCS8PrivateKey_bio                           output.o
i2d_PKCS8PrivateKey_nid_bio                       output.o
i2d_PKCS8_PRIV_KEY_INFO                           output.o
i2d_PKCS8_PRIV_KEY_INFO_bio                       output.o
i2d_PKCS8_bio                                     output.o
i2d_PKEY_USAGE_PERIOD                             output.o
i2d_POLICYINFO                                    output.o
i2d_POLICYQUALINFO                                output.o
i2d_PROXY_CERT_INFO_EXTENSION                     output.o
i2d_PROXY_POLICY                                  output.o
i2d_PUBKEY                                        output.o
i2d_PUBKEY_bio                                    output.o
i2d_PrivateKey                                    output.o
i2d_PrivateKey_bio                                output.o
i2d_RSAPrivateKey                                 output.o
i2d_RSAPrivateKey_bio                             output.o
i2d_RSAPublicKey                                  output.o
i2d_RSAPublicKey_bio                              output.o
i2d_RSA_PUBKEY                                    output.o
i2d_RSA_PUBKEY_bio                                output.o
i2d_SXNET                                         output.o
i2d_SXNETID                                       output.o
i2d_USERNOTICE                                    output.o
i2d_X509                                          output.o
i2d_X509_ALGOR                                    output.o
i2d_X509_ALGORS                                   output.o
i2d_X509_ATTRIBUTE                                output.o
i2d_X509_AUX                                      output.o
i2d_X509_CERT_AUX                                 output.o
i2d_X509_CERT_PAIR                                output.o
i2d_X509_CINF                                     output.o
i2d_X509_CRL                                      output.o
i2d_X509_CRL_INFO                                 output.o
i2d_X509_CRL_bio                                  output.o
i2d_X509_EXTENSION                                output.o
i2d_X509_EXTENSIONS                               output.o
i2d_X509_NAME                                     output.o
i2d_X509_NAME_ENTRY                               output.o
i2d_X509_PUBKEY                                   output.o
i2d_X509_REQ                                      output.o
i2d_X509_REQ_INFO                                 output.o
i2d_X509_REQ_bio                                  output.o
i2d_X509_REVOKED                                  output.o
i2d_X509_SIG                                      output.o
i2d_X509_VAL                                      output.o
i2d_X509_bio                                      output.o
i2o_ECPublicKey                                   output.o
i2s_ASN1_ENUMERATED                               output.o
i2s_ASN1_ENUMERATED_TABLE                         output.o
i2s_ASN1_INTEGER                                  output.o
i2s_ASN1_OCTET_STRING                             output.o
i2t_ASN1_OBJECT                                   output.o
i2v_ASN1_BIT_STRING                               output.o
i2v_GENERAL_NAME                                  output.o
i2v_GENERAL_NAMES                                 output.o
idea_cbc_encrypt                                  output.o
idea_cfb64_encrypt                                output.o
idea_ecb_encrypt                                  output.o
idea_encrypt                                      output.o
idea_ofb64_encrypt                                output.o
idea_options                                      output.o
idea_set_decrypt_key                              output.o
idea_set_encrypt_key                              output.o
idman_reinit2                                     output.o
idman_reinit_session                              output.o
idman_user_init                                   output.o
ieee1394_init                                     output.o
init_hframelist                                   output.o
initfunc_init                                     output.o
initializeNewProtectedApplication                 output.o
int1a_TCG_CompactHashLogExtendEvent               output.o
int1a_TCG_HashAll                                 output.o
int1a_TCG_HashLogEvent                            output.o
int1a_TCG_HashLogExtendEvent                      output.o
int1a_TCG_PassThroughToTPM                        output.o
int1a_TCG_StatusCheck                             output.o
int1a_TCG_TSS                                     output.o
int_callfunc                                      output.o
int_exceptionHandler                              output.o
int_fatal                                         output.o
int_handler                                       output.o
int_init_ap                                       output.o
int_rsa_verify                                    output.o
iodom_init                                        output.o
iommu_detected                                    output.o
iommu_setup                                       output.o
ipchecksum                                        output.o
keyboard_flush                                    output.o
keyboard_reset                                    output.o
level_add_node                                    output.o
level_find_node                                   output.o
lh_delete                                         output.o
lh_doall                                          output.o
lh_doall_arg                                      output.o
lh_free                                           output.o
lh_insert                                         output.o
lh_new                                            output.o
lh_num_items                                      output.o
lh_retrieve                                       output.o
lh_strhash                                        output.o
lh_version                                        output.o
libInitFlag                                       output.o
load_bootsector                                   output.o
load_minios                                       output.o
load_new_vcpu                                     output.o
localapic_change_base_msr                         output.o
localapic_mmio_register                           output.o
localapic_wait_for_sipi                           output.o
mapHPAintoHVA                                     output.o
mapmem                                            output.o
mapmem_gphys                                      output.o
mapmem_hphys                                      output.o
matched_drhd_u                                    output.o
md4_block_data_order                              output.o
md5_block_data_order                              output.o
memcmp                                            output.o
memcpy                                            output.o
memorysize                                        output.o
mempool_allocmem                                  output.o
mempool_free                                      output.o
mempool_freemem                                   output.o
mempool_new                                       output.o
memset                                            output.o
message_exitcode                                  output.o
message_exitreason                                output.o
mm_flush_wb_cache                                 output.o
mm_force_unlock                                   output.o
mm_process_alloc                                  output.o
mm_process_free                                   output.o
mm_process_map_alloc                              output.o
mm_process_map_shared                             output.o
mm_process_map_shared_physpage                    output.o
mm_process_map_stack                              output.o
mm_process_switch                                 output.o
mm_process_unmap                                  output.o
mm_process_unmap_stack                            output.o
mm_process_unmapall                               output.o
mmio_access_memory                                output.o
mmio_access_page                                  output.o
mmio_lock                                         output.o
mmio_register                                     output.o
mmio_unlock                                       output.o
mmio_unregister                                   output.o
monitor_vmcs_read                                 output.o
monitor_vmcs_write                                output.o
move_vmm_area32                                   output.o
move_vmm_area64                                   output.o
mpudiv_128_32                                     output.o
mpumul_64_64                                      output.o
msg_findname                                      output.o
msg_register                                      output.o
msg_unregister                                    output.o
msg_unregister2                                   output.o
msg_unregisterall                                 output.o
msg_usb_bulk_read                                 output.o
msg_usb_bulk_write                                output.o
msg_usb_claim_interface                           output.o
msg_usb_close                                     output.o
msg_usb_control_msg                               output.o
msg_usb_find_busses                               output.o
msg_usb_find_devices                              output.o
msg_usb_get_busses                                output.o
msg_usb_get_string_simple                         output.o
msg_usb_init                                      output.o
msg_usb_open                                      output.o
msg_usb_release_interface                         output.o
msg_usb_reset                                     output.o
msg_vpn_FreeTimer                                 output.o
msg_vpn_GetCurrentCpuId                           output.o
msg_vpn_GetPhysicalNicInfo                        output.o
msg_vpn_GetTickCount                              output.o
msg_vpn_GetVirtualNicInfo                         output.o
msg_vpn_NewTimer                                  output.o
msg_vpn_SendPhysicalNic                           output.o
msg_vpn_SendVirtualNic                            output.o
msg_vpn_SetPhysicalNicRecvCallback                output.o
msg_vpn_SetTimer                                  output.o
msg_vpn_SetVirtualNicRecvCallback                 output.o
msg_vpn_ic_rsa_sign                               output.o
msgclose                                          output.o
msgopen                                           output.o
msgpremapbuf                                      output.o
msgregister                                       output.o
msgsendbuf                                        output.o
msgsenddesc                                       output.o
msgsendint                                        output.o
msgsetfunc                                        output.o
msgunregister                                     output.o
mszReaders                                        output.o
name_cmp                                          output.o
newprocess                                        output.o
num_dom                                           output.o
num_of_available_pages                            output.o
num_of_processors                                 output.o
numberOfProtectedApplications                     output.o
numberOfVMs                                       output.o
o2i_ECPublicKey                                   output.o
obj_cleanup_defer                                 output.o
openPage                                          output.o
packet_handle_command                             output.o
packet_handle_config                              output.o
packet_handle_invalid                             output.o
packet_handle_nondata                             output.o
packet_handle_rw                                  output.o
packet_handle_through                             output.o
panic                                             output.o
panic_oom                                         output.o
panic_test                                        output.o
panic_wakeup_all                                  output.o
parse_dmar_bios_report                            output.o
pci_append_device                                 output.o
pci_conceal_config_data_handler                   output.o
pci_conceal_new_device                            output.o
pci_config_addr_handler                           output.o
pci_config_data_handler                           output.o
pci_device_list_head                              output.o
pci_driver_list_head                              output.o
pci_handle_default_config_write                   output.o
pci_possible_new_device                           output.o
pci_print_device                                  output.o
pci_read_config_data16                            output.o
pci_read_config_data32                            output.o
pci_read_config_data8                             output.o
pci_read_config_data_port                         output.o
pci_register_driver                               output.o
pci_restore_config_addr                           output.o
pci_save_config_addr                              output.o
pci_write_config_data16                           output.o
pci_write_config_data32                           output.o
pci_write_config_data8                            output.o
pci_write_config_data_port                        output.o
pcpu_default                                      output.o
pcpu_init                                         output.o
pcpu_list_add                                     output.o
pcpu_list_foreach                                 output.o
pem_check_suffix                                  output.o
phys_in_vmm                                       output.o
phys_to_virt                                      output.o
pmap_autoalloc                                    output.o
pmap_clear                                        output.o
pmap_close                                        output.o
pmap_dump                                         output.o
pmap_getreadlevel                                 output.o
pmap_open_guest                                   output.o
pmap_open_vmm                                     output.o
pmap_pointer                                      output.o
pmap_read                                         output.o
pmap_seek                                         output.o
pmap_setlevel                                     output.o
pmap_write                                        output.o
policy_cache_find_data                            output.o
policy_cache_free                                 output.o
policy_cache_set                                  output.o
policy_cache_set_mapping                          output.o
policy_data_free                                  output.o
policy_data_new                                   output.o
policy_node_cmp_new                               output.o
policy_node_free                                  output.o
policy_node_match                                 output.o
prepare_for_sleep                                 output.o
printexitcode                                     output.o
printexitreason                                   output.o
printf                                            output.o
pro100_alloc_page                                 output.o
pro100_alloc_recv_buffer                          output.o
pro100_beep                                       output.o
pro100_config_read                                output.o
pro100_config_write                               output.o
pro100_exec_cu_op                                 output.o
pro100_flush                                      output.o
pro100_free_page                                  output.o
pro100_generate_int                               output.o
pro100_get_ctx                                    output.o
pro100_get_cu_command_string                      output.o
pro100_get_int_bit_string                         output.o
pro100_get_op_size                                output.o
pro100_get_ru_command_string                      output.o
pro100_get_stat_ack_string                        output.o
pro100_hook_read                                  output.o
pro100_hook_write                                 output.o
pro100_init                                       output.o
pro100_init_cu_base_addr                          output.o
pro100_init_recv_buffer                           output.o
pro100_init_ru_base_addr                          output.o
pro100_init_vpn_client                            output.o
pro100_io_handler                                 output.o
pro100_mem_read                                   output.o
pro100_mem_write                                  output.o
pro100_mm_handler                                 output.o
pro100_new                                        output.o
pro100_poll_ru                                    output.o
pro100_proc_guest_op                              output.o
pro100_read                                       output.o
pro100_read_send_packet                           output.o
pro100_send_packet_to_line                        output.o
pro100_sleep                                      output.o
pro100_wait_cu_ru_accepable                       output.o
pro100_write                                      output.o
pro100_write_recv_packet                          output.o
process_kill                                      output.o
process_syscall                                   output.o
processuser_no_sysenter                           output.o
processuser_syscall                               output.o
processuser_sysenter                              output.o
prohibit_iccard_init                              output.o
protectCurrentApplication                         output.o
ps2_locked                                        output.o
putchar                                           output.o
putchar_set_func                                  output.o
rand_ssleay_meth                                  output.o
read_gphys_b                                      output.o
read_gphys_l                                      output.o
read_gphys_q                                      output.o
read_gphys_w                                      output.o
read_hphys_b                                      output.o
read_hphys_l                                      output.o
read_hphys_q                                      output.o
read_hphys_w                                      output.o
read_linearaddr_b                                 output.o
read_linearaddr_l                                 output.o
read_linearaddr_q                                 output.o
read_linearaddr_tss                               output.o
read_linearaddr_w                                 output.o
readerState                                       output.o
readerTracker                                     output.o
realloc                                           output.o
reboot_test                                       output.o
register_status_callback                          output.o
restore_guest_status                              output.o
resume_vm                                         output.o
ret_to_user32                                     output.o
ret_to_user64                                     output.o
ripemd160_block_data_order                        output.o
rsa_asn1_meths                                    output.o
rsa_pkey_meth                                     output.o
rt                                                output.o
s2i_ASN1_INTEGER                                  output.o
s2i_ASN1_OCTET_STRING                             output.o
sReaderContext                                    output.o
saveSystemCallHandlerAddress                      output.o
save_guest_status                                 output.o
savemsr_index                                     output.o
savemsr_load                                      output.o
savemsr_save                                      output.o
scan_gframelist                                   output.o
schedule                                          output.o
security_storage_check_lba                        output.o
segment_init_ap                                   output.o
segment_wakeup                                    output.o
serial_getDebugChar                               output.o
serial_init_iohook                                output.o
serial_putDebugChar                               output.o
serial_putchar                                    output.o
sessionTable                                      output.o
setCurrentProtectedApplication                    output.o
set_int_handler                                   output.o
set_iofunc                                        output.o
setkbdled                                         output.o
shadow_and_activate_urb                           output.o
sig_app                                           output.o
sigx_app                                          output.o
sk_delete                                         output.o
sk_delete_ptr                                     output.o
sk_dup                                            output.o
sk_find                                           output.o
sk_find_ex                                        output.o
sk_free                                           output.o
sk_insert                                         output.o
sk_is_sorted                                      output.o
sk_new                                            output.o
sk_new_null                                       output.o
sk_num                                            output.o
sk_pop                                            output.o
sk_pop_free                                       output.o
sk_push                                           output.o
sk_set                                            output.o
sk_set_cmp_func                                   output.o
sk_shift                                          output.o
sk_sort                                           output.o
sk_unshift                                        output.o
sk_value                                          output.o
sk_zero                                           output.o
sleep_set_timer_counter                           output.o
slotFlag                                          output.o
slotTable                                         output.o
snprintf                                          output.o
start_all_processors                              output.o
storage_free                                      output.o
storage_get_num_hc                                output.o
storage_handle_sectors                            output.o
storage_hc_close                                  output.o
storage_hc_dev_atacommand                         output.o
storage_hc_dev_close                              output.o
storage_hc_dev_open                               output.o
storage_hc_hook_register                          output.o
storage_hc_hook_unregister                        output.o
storage_hc_open                                   output.o
storage_hc_register                               output.o
storage_hc_scandev                                output.o
storage_hc_unregister                             output.o
storage_init                                      output.o
storage_io_aget_size                              output.o
storage_io_aread                                  output.o
storage_io_awrite                                 output.o
storage_io_deinit                                 output.o
storage_io_get_num_devices                        output.o
storage_io_init                                   output.o
storage_new                                       output.o
storage_premap_buf                                output.o
storage_premap_handle_sectors                     output.o
strcmp                                            output.o
string_to_hex                                     output.o
strlen                                            output.o
svm_available                                     output.o
svm_enable_resume                                 output.o
svm_extern_iopass                                 output.o
svm_init                                          output.o
svm_init_signal                                   output.o
svm_ioio                                          output.o
svm_msr_update_lma                                output.o
svm_np_clear_all                                  output.o
svm_np_extern_mapsearch                           output.o
svm_np_init                                       output.o
svm_np_map_1mb                                    output.o
svm_np_pagefault                                  output.o
svm_np_tlbflush                                   output.o
svm_np_updatecr3                                  output.o
svm_paging_apply_fixed_cr0                        output.o
svm_paging_apply_fixed_cr4                        output.o
svm_paging_clear_all                              output.o
svm_paging_extern_flush_tlb_entry                 output.o
svm_paging_flush_guest_tlb                        output.o
svm_paging_get_gpat                               output.o
svm_paging_init                                   output.o
svm_paging_invalidate                             output.o
svm_paging_map_1mb                                output.o
svm_paging_npf                                    output.o
svm_paging_pagefault                              output.o
svm_paging_pg_change                              output.o
svm_paging_set_gpat                               output.o
svm_paging_spt_setcr3                             output.o
svm_paging_start                                  output.o
svm_paging_tlbflush                               output.o
svm_paging_updatecr3                              output.o
svm_panic_dump                                    output.o
svm_read_control_reg                              output.o
svm_read_flags                                    output.o
svm_read_gdtr                                     output.o
svm_read_general_reg                              output.o
svm_read_idtr                                     output.o
svm_read_ip                                       output.o
svm_read_msr                                      output.o
svm_read_sreg_acr                                 output.o
svm_read_sreg_base                                output.o
svm_read_sreg_limit                               output.o
svm_read_sreg_sel                                 output.o
svm_reset                                         output.o
svm_resume                                        output.o
svm_start_vm                                      output.o
svm_vmexit                                        output.o
svm_vminit                                        output.o
svm_write_control_reg                             output.o
svm_write_flags                                   output.o
svm_write_gdtr                                    output.o
svm_write_general_reg                             output.o
svm_write_idtr                                    output.o
svm_write_ip                                      output.o
svm_write_msr                                     output.o
svm_write_realmode_seg                            output.o
svm_writing_sreg                                  output.o
sx_handler                                        output.o
sym_to_phys                                       output.o
sync_all_processors                               output.o
sys_exitprocess                                   output.o
sys_msgclose                                      output.o
sys_msgopen                                       output.o
sys_msgregister                                   output.o
sys_msgret                                        output.o
sys_msgsendbuf                                    output.o
sys_msgsenddesc                                   output.o
sys_msgsendint                                    output.o
sys_msgsetfunc                                    output.o
sys_msgunregister                                 output.o
sys_newprocess                                    output.o
syscallHandlerAddress                             output.o
syscall_entry_lret                                output.o
syscall_entry_sysexit                             output.o
syscall_entry_sysret64                            output.o
tcg_measure                                       output.o
test_gpaToHPA                                     output.o
test_logicalCPUStatus                             output.o
test_start                                        output.o
test_traverseGuestPages                           output.o
thread_exit                                       output.o
thread_gettid                                     output.o
thread_new                                        output.o
thread_set_process_switch                         output.o
thread_start0                                     output.o
thread_start1                                     output.o
thread_switch                                     output.o
thread_wakeup                                     output.o
thread_will_stop                                  output.o
timer_free                                        output.o
timer_new                                         output.o
timer_set                                         output.o
traverseGuestPages                                output.o
traverseIA32ePDPT                                 output.o
traverseIA32ePDT                                  output.o
traverseIA32ePT                                   output.o
traverseIA32ePages                                output.o
tree_find_sk                                      output.o
tty_init_iohook                                   output.o
tty_putchar                                       output.o
tty_udp_register                                  output.o
ttylog_stop                                       output.o
uhci_activate_urb                                 output.o
uhci_check_advance                                output.o
uhci_check_urb_advance                            output.o
uhci_create_urb                                   output.o
uhci_current_frame_number                         output.o
uhci_deactivate_urb                               output.o
uhci_destroy_unlinked_urbs                        output.o
uhci_destroy_urb                                  output.o
uhci_dump_all                                     output.o
uhci_error_status_string                          output.o
uhci_framelist_monitor                            output.o
uhci_init                                         output.o
uhci_monitor_boost_hc                             output.o
uhci_reactivate_urb                               output.o
uhci_shadow_buffer                                output.o
uhci_submit_bulk                                  output.o
uhci_submit_control                               output.o
uhci_submit_interrupt                             output.o
unmapHPAintoHVA                                   output.o
unmapmem                                          output.o
update_mtrr_and_pat                               output.o
usb_bulk_read                                     output.o
usb_bulk_write                                    output.o
usb_busses_head                                   output.o
usb_claim_interface                               output.o
usb_clear_halt                                    output.o
usb_close                                         output.o
usb_control_msg                                   output.o
usb_find_busses                                   output.o
usb_find_devices                                  output.o
usb_get_bus                                       output.o
usb_get_busses                                    output.o
usb_get_descriptor                                output.o
usb_get_descriptor_by_endpoint                    output.o
usb_get_descriptor_early                          output.o
usb_get_string                                    output.o
usb_get_string_simple                             output.o
usb_hc_list_head                                  output.o
usb_hook_process                                  output.o
usb_hook_register                                 output.o
usb_hook_unregister                               output.o
usb_init                                          output.o
usb_init_device_monitor                           output.o
usb_interrupt_read                                output.o
usb_interrupt_write                               output.o
usb_log_level                                     output.o
usb_new_dev_handle                                output.o
usb_open                                          output.o
usb_register_host                                 output.o
usb_release_interface                             output.o
usb_reset                                         output.o
usb_resetep                                       output.o
usb_sc_lock                                       output.o
usb_sc_unlock                                     output.o
usb_set_altinterface                              output.o
usb_set_configuration                             output.o
usb_set_debug                                     output.o
usb_unregister_devices                            output.o
usbccid_init_handle                               output.o
usbhid_init_handle                                output.o
usbhub_init_handle                                output.o
usbmsc_init_handle                                output.o
use_pae                                           output.o
usleep                                            output.o
v2i_ASN1_BIT_STRING                               output.o
v2i_GENERAL_NAME                                  output.o
v2i_GENERAL_NAMES                                 output.o
v2i_GENERAL_NAME_ex                               output.o
v3_akey_id                                        output.o
v3_alt                                            output.o
v3_bcons                                          output.o
v3_cpols                                          output.o
v3_crl_hold                                       output.o
v3_crl_invdate                                    output.o
v3_crl_num                                        output.o
v3_crl_reason                                     output.o
v3_crld                                           output.o
v3_delta_crl                                      output.o
v3_ext_ku                                         output.o
v3_freshest_crl                                   output.o
v3_idp                                            output.o
v3_info                                           output.o
v3_inhibit_anyp                                   output.o
v3_key_usage                                      output.o
v3_name_constraints                               output.o
v3_ns_ia5_list                                    output.o
v3_nscert                                         output.o
v3_ocsp_accresp                                   output.o
v3_ocsp_acutoff                                   output.o
v3_ocsp_crlid                                     output.o
v3_ocsp_nocheck                                   output.o
v3_ocsp_nonce                                     output.o
v3_ocsp_serviceloc                                output.o
v3_pci                                            output.o
v3_pkey_usage_period                              output.o
v3_policy_constraints                             output.o
v3_policy_mappings                                output.o
v3_sinfo                                          output.o
v3_skey_id                                        output.o
v3_sxnet                                          output.o
vcpu_list_foreach                                 output.o
vga_fill_rect                                     output.o
vga_get_screen_size                               output.o
vga_is_ready                                      output.o
vga_register                                      output.o
vga_transfer_image                                output.o
vmctl_svm_init                                    output.o
vmctl_vt_init                                     output.o
vmm_base_cr3                                      output.o
vmm_main                                          output.o
vmm_pd                                            output.o
vmm_pd1                                           output.o
vmm_pd2                                           output.o
vmm_pdp                                           output.o
vmm_pml4                                          output.o
vmm_start_inf                                     output.o
vmm_term_inf                                      output.o
vmmcall                                           output.o
vmmcall_boot_continue                             output.o
vmmcall_boot_enable                               output.o
vmmcall_init                                      output.o
vmmcall_register                                  output.o
vmmsize                                           output.o
vpn_FreeTimer                                     output.o
vpn_GetCurrentCpuId                               output.o
vpn_GetPhysicalNicInfo                            output.o
vpn_GetTickCount                                  output.o
vpn_GetVirtualNicInfo                             output.o
vpn_NewTimer                                      output.o
vpn_SendPhysicalNic                               output.o
vpn_SendVirtualNic                                output.o
vpn_SetPhysicalNicRecvCallback                    output.o
vpn_SetTimer                                      output.o
vpn_SetVirtualNicRecvCallback                     output.o
vpn_ic_rsa_sign                                   output.o
vpn_new_nic                                       output.o
vpn_premap_PhysicalNicRecv                        output.o
vpn_premap_VirtualNicRecv                         output.o
vpn_premap_recvbuf                                output.o
vpn_start                                         output.o
vpn_user_init                                     output.o
vprintf                                           output.o
vramwrite_clearscreen                             output.o
vramwrite_exit_global                             output.o
vramwrite_get_cursor_pos                          output.o
vramwrite_init_global                             output.o
vramwrite_mark1                                   output.o
vramwrite_mark2                                   output.o
vramwrite_mark3                                   output.o
vramwrite_putchar                                 output.o
vramwrite_restore_cursor                          output.o
vramwrite_save_and_move_cursor                    output.o
vsnprintf                                         output.o
vt__vmx_init                                      output.o
vt__vmxon                                         output.o
vt_add_guest_msr                                  output.o
vt_available                                      output.o
vt_enable_resume                                  output.o
vt_ept_clear_all                                  output.o
vt_ept_extern_mapsearch                           output.o
vt_ept_init                                       output.o
vt_ept_map_1mb                                    output.o
vt_ept_tlbflush                                   output.o
vt_ept_updatecr3                                  output.o
vt_ept_violation                                  output.o
vt_extern_iopass                                  output.o
vt_generate_external_int                          output.o
vt_generate_pagefault                             output.o
vt_get_current_regs_in_vmcs                       output.o
vt_get_vmcs_regs_in_vmcs                          output.o
vt_init                                           output.o
vt_init_signal                                    output.o
vt_io                                             output.o
vt_iopass                                         output.o
vt_iopass_init                                    output.o
vt_msr_init                                       output.o
vt_msr_update_lma                                 output.o
vt_paging_apply_fixed_cr0                         output.o
vt_paging_apply_fixed_cr4                         output.o
vt_paging_clear_all                               output.o
vt_paging_extern_flush_tlb_entry                  output.o
vt_paging_flush_guest_tlb                         output.o
vt_paging_get_gpat                                output.o
vt_paging_init                                    output.o
vt_paging_invalidate                              output.o
vt_paging_map_1mb                                 output.o
vt_paging_npf                                     output.o
vt_paging_pagefault                               output.o
vt_paging_pg_change                               output.o
vt_paging_set_gpat                                output.o
vt_paging_spt_setcr3                              output.o
vt_paging_start                                   output.o
vt_paging_tlbflush                                output.o
vt_paging_updatecr3                               output.o
vt_panic_dump                                     output.o
vt_read_control_reg                               output.o
vt_read_flags                                     output.o
vt_read_gdtr                                      output.o
vt_read_general_reg                               output.o
vt_read_guest_msr                                 output.o
vt_read_idtr                                      output.o
vt_read_ip                                        output.o
vt_read_msr                                       output.o
vt_read_sreg_acr                                  output.o
vt_read_sreg_base                                 output.o
vt_read_sreg_limit                                output.o
vt_read_sreg_sel                                  output.o
vt_reset                                          output.o
vt_resume                                         output.o
vt_start_vm                                       output.o
vt_update_exception_bmp                           output.o
vt_vmexit                                         output.o
vt_vminit                                         output.o
vt_vmptrld                                        output.o
vt_write_control_reg                              output.o
vt_write_flags                                    output.o
vt_write_gdtr                                     output.o
vt_write_general_reg                              output.o
vt_write_guest_msr                                output.o
vt_write_idtr                                     output.o
vt_write_ip                                       output.o
vt_write_msr                                      output.o
vt_write_realmode_seg                             output.o
vt_writing_sreg                                   output.o
waitcycles                                        output.o
wakeup_cont                                       output.o
wakeup_entry_addr                                 output.o
wakeup_entry_cr0                                  output.o
wakeup_entry_cr3                                  output.o
wakeup_entry_cr4                                  output.o
wakeup_entry_end                                  output.o
wakeup_entry_gdtr                                 output.o
wakeup_entry_start                                output.o
wakeup_init                                       output.o
wakeup_main                                       output.o
whirlpool_block                                   output.o
write_gphys_b                                     output.o
write_gphys_l                                     output.o
write_gphys_q                                     output.o
write_gphys_w                                     output.o
write_hphys_b                                     output.o
write_hphys_l                                     output.o
write_hphys_q                                     output.o
write_hphys_w                                     output.o
write_linearaddr_b                                output.o
write_linearaddr_l                                output.o
write_linearaddr_ok_b                             output.o
write_linearaddr_ok_l                             output.o
write_linearaddr_ok_w                             output.o
write_linearaddr_q                                output.o
write_linearaddr_tss                              output.o
write_linearaddr_w                                output.o
x509_name_ff                                      output.o
