
Allocating common symbols
Common symbol       size              file

clflush_size        0x4               output.o
sReaderContext      0x60              output.o
sigx_app            0x8               output.o
num_dom             0x4               output.o
mszReaders          0x400             output.o
zero_page_pool      0x400             output.o
prohibit_iccard_init
                    0x4               output.o
curthread           0x8               output.o
sig_app             0x8               output.o
readerState         0x64              output.o
dom_io              0x800             output.o
acpi_dsdt_system_state
                    0x1e              output.o
ehci_host           0x8               output.o
num_of_processors   0x4               output.o
e801_fake_bx        0x2               output.o
iommu_detected      0x1               output.o
dwReaders           0x8               output.o
readerTracker       0x140             output.o
handler_descriptor_lock
                    0x1               output.o
e801_fake_ax        0x2               output.o

Discarded input sections

 .gomi          0x0000000000000000        0xe output.o

Memory Configuration

Name             Origin             Length             Attributes
*default*        0x0000000000000000 0xffffffffffffffff

Linker script and memory map

                0x0000000040100000                virt = 0x40100000
                0x0000000000100000                phys = 0x100000
                0x0000000040100000                . = virt
                0x0000000040100000                head = .
                0x00000000401000b0                . = (virt + SIZEOF_HEADERS)

.text           0x0000000040101000   0x115157 load address 0x0000000000101000
                0x0000000040101000                code = .
 *(.entry)
 .entry         0x0000000040101000     0x6000 output.o
                0x000000004010100c                entry
                0x000000004010109a                cpuinit_start
                0x00000000401012c8                vmm_base_cr3
                0x00000000401012e0                apinit_procs
                0x00000000401012e8                apinit_lock
                0x00000000401012f0                cpuinit_end
                0x0000000040103000                entry_pdp
                0x0000000040104000                entry_pd0
                0x0000000040105000                entry_pd
 *(.text)
 .text          0x0000000040107000   0x10f157 output.o
                0x000000004010766c                acpi_smi_hook
                0x00000000401076ba                acpi_iohook
                0x000000004010770c                acpi_reset
                0x0000000040107808                acpi_poweroff
                0x0000000040107841                get_acpi_time_raw
                0x000000004010c811                acpi_dsdt_parse
                0x000000004010ccea                apinitproc0
                0x000000004010cd13                apic_available
                0x000000004010cd3f                ap_start_addr
                0x000000004010cf82                panic_wakeup_all
                0x000000004010d006                disable_apic
                0x000000004010d07d                sync_all_processors
                0x000000004010d10d                start_all_processors
                0x000000004010d14c                assertion_failed
                0x000000004010d185                beep_set_freq
                0x000000004010d1b6                beep_on
                0x000000004010d1c6                beep_off
                0x000000004010d80d                update_mtrr_and_pat
                0x000000004010da52                cache_get_gpat
                0x000000004010daa8                cache_set_gpat
                0x000000004010daf2                cache_get_attr
                0x000000004010db98                cache_get_gmtrr_type
                0x000000004010dba3                cache_get_gmtrr_attr
                0x000000004010dbb6                cache_get_gmtrrcap
                0x000000004010dbe4                cache_get_gmtrr
                0x000000004010dd3d                cache_set_gmtrr
                0x000000004010dd97                cache_get_gmsr_amd
                0x000000004010dde7                cache_set_gmsr_amd
                0x000000004010e22b                callrealmode_endofcodeaddr
                0x000000004010e23c                callrealmode_usevcpu
                0x000000004010e249                callrealmode_printmsg
                0x000000004010e266                callrealmode_getsysmemmap
                0x000000004010e2bd                callrealmode_getshiftflags
                0x000000004010e2db                callrealmode_setvideomode
                0x000000004010e2f9                callrealmode_reboot
                0x000000004010e313                callrealmode_tcgbios
                0x000000004010e3a7                callrealmode_disk_readmbr
                0x000000004010e3e7                callrealmode_disk_readlba
                0x000000004010e42f                callrealmode_bootcd_getstatus
                0x000000004010e484                callrealmode_setcursorpos
                0x000000004010e4a9                callrealmode_startkernel32
                0x000000004010e4c9                callrealmode_getfontinfo
                0x000000004010e539                get_cpu_id
                0x000000004010e54d                cpu_emul_cpuid
                0x000000004010e601                cpu_emul_rdmsr
                0x000000004010e67a                cpu_emul_wrmsr
                0x000000004010e702                cpu_emul_hlt
                0x000000004010e71a                cpu_emul_cli
                0x000000004010e753                cpu_emul_sti
                0x000000004010e79a                cpu_emul_realmode_int
                0x000000004010e8fc                cpu_emul_xsetbv
                0x0000000040111118                cpu_interpreter
                0x0000000040113440                cpu_mmu_get_pte
                0x0000000040113bd5                write_linearaddr_ok_b
                0x0000000040113bf7                write_linearaddr_ok_w
                0x0000000040113c02                write_linearaddr_ok_l
                0x0000000040113c0d                write_linearaddr_b
                0x0000000040113c7b                write_linearaddr_w
                0x0000000040113d13                write_linearaddr_l
                0x0000000040113da9                write_linearaddr_q
                0x0000000040113e3d                read_linearaddr_b
                0x0000000040113eaa                read_linearaddr_w
                0x0000000040113f3b                read_linearaddr_l
                0x0000000040113fcc                read_linearaddr_q
                0x000000004011405d                read_linearaddr_tss
                0x00000000401140f0                write_linearaddr_tss
                0x000000004011804f                cpu_mmu_spt_tlbflush
                0x000000004011808a                cpu_mmu_spt_updatecr3
                0x000000004011832a                cpu_mmu_spt_invalidate
                0x00000000401183b2                cpu_mmu_spt_pagefault
                0x00000000401185a9                cpu_mmu_spt_extern_mapsearch
                0x00000000401186e8                cpu_mmu_spt_map_1mb
                0x000000004011889c                cpu_mmu_spt_clear_all
                0x00000000401189fd                cpu_mmu_spt_init
                0x0000000040119011                cpu_seg_read_b
                0x000000004011907e                cpu_seg_read_w
                0x00000000401190eb                cpu_seg_read_l
                0x0000000040119158                cpu_seg_read_q
                0x00000000401191c5                cpu_seg_write_b
                0x0000000040119233                cpu_seg_write_w
                0x00000000401192a1                cpu_seg_write_l
                0x000000004011930e                cpu_seg_write_q
                0x000000004011937b                cpu_stack_get
                0x00000000401193e5                cpu_stack_set
                0x000000004011947a                cpu_stack_push
                0x0000000040119526                cpu_stack_pop
                0x0000000040119611                call_cpuid
                0x00000000401199ca                debug_addstr
                0x00000000401199d0                debug_gdb
                0x00000000401199d6                debug_iohook
                0x00000000401199dc                debug_msgregister
                0x0000000040119a0c                debug_msgunregister
                0x0000000040119aa9                do_exint_pass
                0x0000000040119c0a                read_gphys_b
                0x0000000040119c7c                write_gphys_b
                0x0000000040119cff                read_gphys_w
                0x0000000040119d9c                write_gphys_w
                0x0000000040119e4d                read_gphys_l
                0x0000000040119eea                write_gphys_l
                0x0000000040119f9e                read_gphys_q
                0x000000004011a03b                write_gphys_q
                0x000000004011a0ec                cmpxchg_gphys_l
                0x000000004011a1aa                cmpxchg_gphys_q
                0x000000004011a268                gmm_pass_gp2hp
                0x000000004011a732                idman_reinit_session
                0x000000004011a7ad                idman_reinit2
                0x000000004011a7ce                get_idman_session
                0x000000004011a80e                call_initfunc
                0x000000004011a873                initfunc_init
                0x000000004011c3f5                int_fatal
                0x000000004011c754                callfunc_and_getint
                0x000000004011c768                do_externalint_enable
                0x000000004011c77d                set_int_handler
                0x000000004011c79c                int_exceptionHandler
                0x000000004011c7a7                int_init_ap
                0x000000004011c7fd                do_io_nothing
                0x000000004011c838                set_iofunc
                0x000000004011c8da                call_io
                0x000000004011c9c0                do_iopass_default
                0x000000004011cba6                keyboard_reset
                0x000000004011cbeb                setkbdled
                0x000000004011cc3c                keyboard_flush
                0x000000004011cc56                load_bootsector
                0x000000004011d011                copy_bootsector
                0x000000004011d2c0                localapic_wait_for_sipi
                0x000000004011d34d                localapic_change_base_msr
                0x000000004011d399                localapic_mmio_register
                0x000000004011dd64                resume_vm
                0x000000004011de1e                vmm_main
                0x000000004011e1a4                getsysmemmap
                0x000000004011e22b                getfakesysmemmap
                0x000000004011e29d                phys_to_virt
                0x000000004011e2b3                vmm_start_inf
                0x000000004011e2bf                vmm_term_inf
                0x000000004011e2d0                num_of_available_pages
                0x000000004011e343                alloc_pages
                0x000000004011e3b9                alloc_page
                0x000000004011e3c9                alloc
                0x000000004011e661                alloc2
                0x000000004011e699                free
                0x000000004011e7ac                realloc
                0x000000004011e8f8                free_page
                0x000000004011e90b                free_page_phys
                0x000000004011e92e                mempool_new
                0x000000004011e99c                mempool_free
                0x000000004011ea4d                mempool_allocmem
                0x000000004011ec32                mempool_freemem
                0x000000004011eeee                sym_to_phys
                0x000000004011ef02                phys_in_vmm
                0x000000004011ef1e                mm_force_unlock
                0x000000004011ef50                mm_process_alloc
                0x000000004011f120                mm_process_free
                0x000000004011f17d                mm_process_switch
                0x000000004011f19b                pmap_open_vmm
                0x000000004011f1c6                pmap_open_guest
                0x000000004011f208                pmap_close
                0x000000004011f20e                pmap_getreadlevel
                0x000000004011f21a                pmap_setlevel
                0x000000004011f226                pmap_seek
                0x000000004011f296                pmap_read
                0x000000004011f524                pmap_write
                0x000000004011f6bc                mm_process_unmap
                0x000000004011f7a9                mm_process_unmap_stack
                0x000000004011f984                mm_process_unmapall
                0x000000004011fa2b                pmap_pointer
                0x000000004011fa96                pmap_clear
                0x000000004011fb8c                pmap_autoalloc
                0x000000004011fd39                mm_process_map_alloc
                0x000000004011fe7c                mm_process_map_shared_physpage
                0x000000004011fee6                mm_process_map_shared
                0x0000000040120144                mm_process_map_stack
                0x00000000401209ee                pmap_dump
                0x0000000040120b06                unmapmem
                0x0000000040120be7                mapmem
                0x000000004012112e                read_hphys_b
                0x0000000040121183                write_hphys_b
                0x00000000401211b5                read_hphys_w
                0x00000000401211ec                write_hphys_w
                0x000000004012121f                read_hphys_l
                0x0000000040121254                write_hphys_l
                0x0000000040121286                read_hphys_q
                0x00000000401212bd                write_hphys_q
                0x00000000401212f1                cmpxchg_hphys_l
                0x0000000040121345                cmpxchg_hphys_q
                0x0000000040121399                alloc_realmodemem
                0x000000004012143a                mapmem_hphys
                0x0000000040121452                mapmem_gphys
                0x000000004012146a                mm_flush_wb_cache
                0x0000000040121814                mmio_access_memory
                0x0000000040121972                mmio_access_page
                0x0000000040121a2e                mmio_register
                0x0000000040121c7d                mmio_unregister
                0x0000000040121d04                mmio_lock
                0x0000000040121d1f                mmio_unlock
                0x0000000040121dbf                msg_findname
                0x0000000040121e2f                msg_register
                0x0000000040121efe                msg_unregister
                0x0000000040121f79                msg_unregisterall
                0x0000000040122004                msg_unregister2
                0x00000000401220d1                call_read_msr
                0x00000000401220e5                call_write_msr
                0x0000000040122381                load_minios
                0x00000000401226b2                backtrace
                0x0000000040123008                panic
                0x000000004012350d                auto_reboot
                0x000000004012352a                panic_test
                0x000000004012354d                pcpu_list_foreach
                0x000000004012358c                pcpu_list_add
                0x00000000401235e0                pcpu_init
                0x000000004012416a                vprintf
                0x00000000401241a5                printf
                0x00000000401241e3                vsnprintf
                0x0000000040124227                snprintf
                0x0000000040124463                sys_msgsetfunc
                0x0000000040124510                sys_msgclose
                0x000000004012452d                sys_msgret
                0x0000000040124619                sys_msgregister
                0x000000004012484a                sys_msgsenddesc
                0x000000004012505c                sys_msgsendint
                0x000000004012538c                sys_newprocess
                0x00000000401253ed                sys_msgunregister
                0x0000000040125479                sys_exitprocess
                0x00000000401254ce                sys_msgsendbuf
                0x0000000040125629                sys_msgopen
                0x000000004012568a                process_kill
                0x00000000401256eb                msgsetfunc
                0x0000000040125700                msgregister
                0x0000000040125716                msgopen
                0x0000000040125729                msgclose
                0x000000004012573b                msgsendint
                0x000000004012574f                msgsenddesc
                0x0000000040125763                newprocess
                0x0000000040125776                msgsendbuf
                0x0000000040125790                msgunregister
                0x00000000401257c0                exitprocess
                0x00000000401257d3                msgpremapbuf
                0x00000000401258ef                process_syscall
                0x000000004012599a                putchar
                0x00000000401259d8                putchar_set_func
                0x0000000040125caa                do_panic_reboot
                0x0000000040125d34                handle_init_to_bsp
                0x0000000040125d55                reboot_test
                0x0000000040125d84                savemsr_save
                0x0000000040125df1                savemsr_load
                0x0000000040126159                get_seg_base
                0x0000000040126215                get_seg_access_rights
                0x0000000040126235                segment_wakeup
                0x0000000040126277                segment_init_ap
                0x0000000040126516                serial_putDebugChar
                0x0000000040126528                serial_getDebugChar
                0x000000004012653d                serial_putchar
                0x000000004012659f                serial_init_iohook
                0x00000000401265e5                waitcycles
                0x0000000040126608                usleep
                0x0000000040126727                sleep_set_timer_counter
                0x000000004012688e                vmctl_svm_init
                0x0000000040126936                message_exitcode
                0x0000000040126eb9                printexitcode
                0x0000000040126ee6                svm_available
                0x0000000040126f97                svm_reset
                0x0000000040127214                svm_vminit
                0x00000000401275be                svm_vmexit
                0x00000000401275c4                svm_init
                0x000000004012770b                svm_enable_resume
                0x0000000040127810                svm_resume
                0x0000000040127962                svm_ioio
                0x0000000040127a6c                svm_extern_iopass
                0x0000000040127bd4                svm_init_signal
                0x0000000040127bf7                svm_start_vm
                0x0000000040128710                svm_msr_update_lma
                0x0000000040128785                svm_read_msr
                0x0000000040128a2a                svm_write_msr
                0x0000000040128f9d                svm_np_init
                0x0000000040129091                svm_np_pagefault
                0x00000000401290c9                svm_np_tlbflush
                0x00000000401290cf                svm_np_updatecr3
                0x00000000401290da                svm_np_clear_all
                0x000000004012916d                svm_np_extern_mapsearch
                0x00000000401291f6                svm_np_map_1mb
                0x0000000040129250                svm_paging_extern_flush_tlb_entry
                0x0000000040129277                svm_paging_map_1mb
                0x00000000401292a1                svm_paging_flush_guest_tlb
                0x00000000401292e0                svm_paging_init
                0x00000000401293fe                svm_paging_pagefault
                0x000000004012942a                svm_paging_tlbflush
                0x0000000040129451                svm_paging_invalidate
                0x000000004012947f                svm_paging_npf
                0x00000000401294ab                svm_paging_updatecr3
                0x00000000401294d7                svm_paging_spt_setcr3
                0x000000004012950b                svm_paging_clear_all
                0x0000000040129537                svm_paging_get_gpat
                0x0000000040129542                svm_paging_set_gpat
                0x0000000040129583                svm_paging_apply_fixed_cr0
                0x00000000401295a6                svm_paging_apply_fixed_cr4
                0x00000000401295ca                svm_paging_pg_change
                0x00000000401295d0                svm_paging_start
                0x00000000401295e2                svm_panic_dump
                0x00000000401296b0                svm_read_general_reg
                0x00000000401297ec                svm_write_general_reg
                0x00000000401298f8                svm_read_control_reg
                0x0000000040129993                svm_write_control_reg
                0x0000000040129a6f                svm_read_sreg_sel
                0x0000000040129b30                svm_read_sreg_acr
                0x0000000040129c0b                svm_read_sreg_base
                0x0000000040129d27                svm_read_sreg_limit
                0x0000000040129e38                svm_read_ip
                0x0000000040129e57                svm_write_ip
                0x0000000040129e7d                svm_read_flags
                0x0000000040129e9c                svm_write_flags
                0x0000000040129eb8                svm_read_gdtr
                0x0000000040129eef                svm_write_gdtr
                0x0000000040129f18                svm_read_idtr
                0x0000000040129f4f                svm_write_idtr
                0x0000000040129f78                svm_write_realmode_seg
                0x000000004012a0b7                svm_writing_sreg
                0x000000004012a1ce                int1a_TCG_StatusCheck
                0x000000004012a281                int1a_TCG_HashLogExtendEvent
                0x000000004012a30c                int1a_TCG_PassThroughToTPM
                0x000000004012a397                int1a_TCG_HashLogEvent
                0x000000004012a418                int1a_TCG_HashAll
                0x000000004012a4d0                int1a_TCG_TSS
                0x000000004012a55b                int1a_TCG_CompactHashLogExtendEvent
                0x000000004012a5bc                tcg_measure
                0x000000004012a8b5                thread_gettid
                0x000000004012a8ca                schedule
                0x000000004012ab10                thread_new
                0x000000004012ac3d                thread_wakeup
                0x000000004012ad22                thread_will_stop
                0x000000004012ad9a                thread_exit
                0x000000004012ae3e                thread_start1
                0x000000004012ae5c                thread_set_process_switch
                0x000000004012b004                get_cpu_time
                0x000000004012b0d7                get_acpi_time
                0x000000004012b188                get_time
                0x000000004012b365                timer_new
                0x000000004012b3e6                timer_set
                0x000000004012b4dc                timer_free
                0x000000004012b6ce                tty_putchar
                0x000000004012b858                ttylog_stop
                0x000000004012b868                tty_udp_register
                0x000000004012b8ac                tty_init_iohook
                0x000000004012b8d3                vcpu_list_foreach
                0x000000004012b912                load_new_vcpu
                0x000000004012b9d4                vga_register
                0x000000004012ba48                vga_is_ready
                0x000000004012baa8                vga_transfer_image
                0x000000004012baf6                vga_fill_rect
                0x000000004012bb31                vga_get_screen_size
                0x000000004012bc55                vmmcall
                0x000000004012bcae                vmmcall_register
                0x000000004012bceb                vmmcall_init
                0x000000004012c095                vmmcall_boot_continue
                0x000000004012c0e0                vmmcall_boot_enable
                0x000000004012c967                register_status_callback
                0x000000004012ca5c                vramwrite_clearscreen
                0x000000004012cabe                vramwrite_putchar
                0x000000004012cc95                vramwrite_mark1
                0x000000004012ccd6                vramwrite_mark2
                0x000000004012cd1e                vramwrite_mark3
                0x000000004012cd67                vramwrite_save_and_move_cursor
                0x000000004012cd9e                vramwrite_restore_cursor
                0x000000004012cdb0                vramwrite_get_cursor_pos
                0x000000004012cdfe                vramwrite_init_global
                0x000000004012ce0b                vramwrite_exit_global
                0x000000004012cebe                vt_generate_pagefault
                0x000000004012cf47                vt_generate_external_int
                0x000000004012cf99                vmctl_vt_init
                0x000000004012d041                vt_vmptrld
                0x000000004012d352                vt_ept_init
                0x000000004012d44e                vt_ept_violation
                0x000000004012d6bf                vt_ept_tlbflush
                0x000000004012d6c5                vt_ept_updatecr3
                0x000000004012d7b7                vt_ept_clear_all
                0x000000004012d84a                vt_ept_extern_mapsearch
                0x000000004012d8d3                vt_ept_map_1mb
                0x000000004012d925                message_exitreason
                0x000000004012da8b                printexitreason
                0x000000004012e31d                vt_available
                0x000000004012e3bc                vt__vmx_init
                0x000000004012e404                vt__vmxon
                0x000000004012e4b1                vt_vminit
                0x000000004012e50d                vt_vmexit
                0x000000004012e527                vt_init
                0x000000004012e537                vt_enable_resume
                0x000000004012e670                vt_resume
                0x000000004012e805                vt_io
                0x000000004012e926                vt_iopass_init
                0x000000004012eabb                vt_iopass
                0x000000004012eafe                vt_extern_iopass
                0x000000004012f72e                vt_update_exception_bmp
                0x000000004012fd96                vt_init_signal
                0x000000004012fda1                vt_start_vm
                0x000000004013017a                vt_add_guest_msr
                0x00000000401302d2                vt_read_guest_msr
                0x0000000040130305                vt_write_guest_msr
                0x0000000040130335                vt_msr_update_lma
                0x000000004013040d                vt_read_msr
                0x00000000401306b3                vt_write_msr
                0x0000000040130971                vt_msr_init
                0x0000000040130b73                vt_paging_extern_flush_tlb_entry
                0x0000000040130bd7                vt_paging_map_1mb
                0x0000000040130bf7                vt_paging_flush_guest_tlb
                0x0000000040130c57                vt_paging_pagefault
                0x0000000040130c8c                vt_paging_tlbflush
                0x0000000040130ca9                vt_paging_invalidate
                0x0000000040130cdc                vt_paging_npf
                0x0000000040130d11                vt_paging_updatecr3
                0x0000000040130d41                vt_paging_spt_setcr3
                0x0000000040130d6c                vt_paging_clear_all
                0x0000000040130d9f                vt_paging_get_gpat
                0x0000000040130daa                vt_paging_set_gpat
                0x0000000040130dfe                vt_paging_apply_fixed_cr0
                0x0000000040130e66                vt_paging_apply_fixed_cr4
                0x0000000040130eae                vt_paging_pg_change
                0x000000004013102e                vt_paging_init
                0x00000000401310a9                vt_paging_start
                0x00000000401310d6                vt_panic_dump
                0x0000000040131280                vt_read_general_reg
                0x00000000401313a1                vt_write_general_reg
                0x0000000040131495                vt_read_control_reg
                0x0000000040131503                vt_read_sreg_sel
                0x000000004013160c                vt_read_sreg_acr
                0x0000000040131663                vt_read_sreg_base
                0x00000000401316e5                vt_read_sreg_limit
                0x0000000040131762                vt_read_ip
                0x0000000040131770                vt_write_ip
                0x0000000040131790                vt_read_flags
                0x00000000401317b6                vt_write_flags
                0x00000000401317e1                vt_read_gdtr
                0x00000000401317f6                vt_write_gdtr
                0x000000004013180b                vt_read_idtr
                0x000000004013184f                vt_write_idtr
                0x0000000040131885                vt_write_control_reg
                0x0000000040131d58                vt_get_current_regs_in_vmcs
                0x0000000040131fe3                vt_get_vmcs_regs_in_vmcs
                0x0000000040132160                vt_write_realmode_seg
                0x00000000401322a9                vt_writing_sreg
                0x0000000040132332                vt_reset
                0x0000000040132610                prepare_for_sleep
                0x00000000401326d1                cancel_sleep
                0x00000000401326f3                wakeup_main
                0x000000004013277b                wakeup_cont
                0x00000000401328b0                wakeup_init
                0x00000000401328f9                call_xsetbv
                0x0000000040132970                mpumul_64_64
                0x0000000040132990                mpudiv_128_32
                0x00000000401329b0                ipchecksum
                0x0000000040132a40                asm_vmlaunch_regs_32
                0x0000000040132ac0                asm_vmresume_regs_32
                0x0000000040132b40                asm_vmrun_regs_32
                0x0000000040132ba0                asm_vmlaunch_regs_64
                0x0000000040132c80                asm_vmresume_regs_64
                0x0000000040132d60                asm_vmrun_regs_64
                0x0000000040132e01                callrealmode_start
                0x0000000040132e17                callrealmode_start2
                0x00000000401332a3                move_vmm_area32
                0x00000000401332a3                callrealmode_end
                0x00000000401332c8                move_vmm_area64
                0x00000000401332f0                int_handler
                0x0000000040133368                int_callfunc
                0x0000000040134000                syscall_entry_sysexit
                0x000000004013402c                syscall_entry_lret
                0x000000004013405c                ret_to_user32
                0x0000000040134068                syscall_entry_sysret64
                0x00000000401340b0                ret_to_user64
                0x0000000040135000                processuser_sysenter
                0x0000000040136000                processuser_no_sysenter
                0x0000000040137000                processuser_syscall
                0x0000000040138140                memset
                0x00000000401381c0                memcpy
                0x0000000040138200                strcmp
                0x0000000040138240                memcmp
                0x0000000040138280                strlen
                0x0000000040138298                sx_handler
                0x00000000401382f0                thread_switch
                0x0000000040138310                thread_start0
                0x000000004013834a                get_guest_cr3_value
                0x0000000040138358                get_guest_eptp_value
                0x0000000040138366                monitor_vmcs_read
                0x000000004013836f                monitor_vmcs_write
                0x0000000040138378                hypercall_handler
                0x00000000401383b5                get_page_table_base_GPA
                0x00000000401383cb                get_ept_base_HPA
                0x00000000401383e1                traverseGuestPages
                0x00000000401383ec                saveSystemCallHandlerAddress
                0x0000000040138438                closeSystemCallHandler
                0x0000000040138487                openSystemCallHandler
                0x00000000401384d6                getSystemCallHandlerGPA
                0x00000000401384e3                save_guest_status
                0x000000004013885d                clear_guest_status
                0x0000000040138b4b                restore_guest_status
                0x0000000040138e65                getTSSGVA
                0x0000000040138e75                getGuestRSP
                0x0000000040138e9a                allocateNewVMID
                0x0000000040138eb0                allocateNewAppID
                0x0000000040138ec8                allocateNewApplicationIdentifiers
                0x0000000040138ef2                protectCurrentApplication
                0x0000000040138f7b                getMemoryOwnershipTableIndex
                0x0000000040138f88                remapPage
                0x0000000040138fd2                changePageStatus
                0x0000000040139109                closePage
                0x00000000401391f5                openPage
                0x0000000040139296                getMemoryOwnershipTableEntry
                0x00000000401392ce                initializeNewProtectedApplication
                0x00000000401392f7                getCurrentProtectedApplication
                0x000000004013937f                findProtectedApplicationFromRIP
                0x00000000401393f5                setCurrentProtectedApplication
                0x0000000040139402                traverseIA32ePages
                0x00000000401396d7                traverseIA32ePDPT
                0x00000000401398f8                traverseIA32ePDT
                0x0000000040139a6b                traverseIA32ePT
                0x0000000040139b41                gvaToGPA
                0x0000000040139dcf                mapHPAintoHVA
                0x0000000040139ddf                gpaToHPA
                0x0000000040139fda                unmapHPAintoHVA
                0x0000000040139fe5                monitor_memset
                0x0000000040139fff                virt_to_phys
                0x000000004013a00c                test_gpaToHPA
                0x000000004013a055                test_start
                0x000000004013a0b3                test_traverseGuestPages
                0x000000004013a0f3                test_logicalCPUStatus
                0x000000004013a11a                restore_register
                0x000000004013a1c7                handleSystemCall
                0x000000004013a1ed                initPagePool
                0x000000004013a21f                findUnmappedPage
                0x000000004013a259                allocateNewZeroPage
                0x000000004013a2c0                core_init
                0x000000004013a2d1                core_mm_read_guest_phys
                0x000000004013a34b                core_mm_write_guest_phys
                0x000000004013a3c5                alloc_handler_descriptor
                0x000000004013a3d5                core_io_modify_handler
                0x000000004013a496                core_io_unregister_handler
                0x000000004013a51d                core_io_handle_default
                0x000000004013a7b5                panic_oom
                0x000000004013a7c8                core_io_register_handler
                0x000000004013a910                matched_drhd_u
                0x000000004013a96e                parse_dmar_bios_report
                0x000000004013a9b9                ieee1394_init
                0x000000004013a9f2                iommu_setup
                0x000000004013a9f8                iodom_init
                0x000000004013abc8                add_remap
                0x000000004013ac52                create_dom
                0x000000004013af81                pci_conceal_new_device
                0x000000004013b357                pci_conceal_config_data_handler
                0x000000004013b37c                pci_save_config_addr
                0x000000004013b38e                pci_restore_config_addr
                0x000000004013b3a0                pci_append_device
                0x000000004013b3d2                pci_config_data_handler
                0x000000004013b705                pci_config_addr_handler
                0x000000004013b74e                pci_register_driver
                0x000000004013b7ed                pci_read_config_data8
                0x000000004013b833                pci_read_config_data16
                0x000000004013b87a                pci_read_config_data32
                0x000000004013b8c0                pci_write_config_data8
                0x000000004013b906                pci_write_config_data16
                0x000000004013b94d                pci_write_config_data32
                0x000000004013b993                pci_read_config_data_port
                0x000000004013b9c5                pci_write_config_data_port
                0x000000004013b9fb                pci_handle_default_config_write
                0x000000004013ba2e                pci_print_device
                0x000000004013bd99                pci_possible_new_device
                0x000000004013bdc1                security_storage_check_lba
                0x000000004013f0f6                ahci_new
                0x000000004013f380                ahci_config_read
                0x000000004013f3e7                ahci_config_write
                0x000000004013f69f                ata_bm_handle_command
                0x000000004013f7d6                ata_bm_handle_status
                0x000000004013f887                ata_bm_handle_prd_table
                0x000000004013f986                ata_bm_handler
                0x000000004013fa89                ata_get_cmd_type
                0x000000004013fdf3                ata_handle_queued_status
                0x00000000401407b9                ata_channel_lock
                0x0000000040140835                ata_channel_unlock
                0x000000004014085c                ata_cmdblk_handler
                0x000000004014096e                ata_ctlblk_handler
                0x000000004014159f                ata_ahci_mode
                0x0000000040141aa5                ata_init_io_handler
                0x0000000040141b4a                ata_set_bm_handler
                0x0000000040141ba1                ata_set_cmdblk_handler
                0x0000000040141bda                ata_set_ctlblk_handler
                0x0000000040141c15                ata_config_read
                0x0000000040141cbb                ata_config_write
                0x0000000040141e35                ata_init_vendor
                0x0000000040141e5c                ata_bm_handle_device_specific
                0x0000000040141f60                atapi_handle_config_data
                0x00000000401421a0                atapi_handle_interrupt_reason
                0x00000000401421e6                atapi_handle_pio_identify_packet
                0x0000000040142380                atapi_handle_packet_data
                0x000000004014238b                atapi_handle_cmd_packet
                0x0000000040142409                packet_handle_through
                0x000000004014243c                packet_handle_nondata
                0x0000000040142456                packet_handle_config
                0x00000000401424a0                packet_handle_rw
                0x0000000040142521                packet_handle_invalid
                0x000000004014253b                packet_handle_command
                0x0000000040142570                uhci_init
                0x0000000040142def                uhci_current_frame_number
                0x0000000040142e10                dump_td_byvirt
                0x0000000040142fe9                dump_td
                0x00000000401430bb                dump_qh
                0x0000000040143290                dump_frame
                0x000000004014339a                uhci_dump_all
                0x000000004014355c                uhci_error_status_string
                0x000000004014383b                uhci_shadow_buffer
                0x0000000040143abe                uhci_framelist_monitor
                0x0000000040145a3e                scan_gframelist
                0x00000000401462eb                uhci_create_urb
                0x000000004014644f                uhci_destroy_urb
                0x000000004014657c                uhci_destroy_unlinked_urbs
                0x0000000040146651                uhci_deactivate_urb
                0x00000000401469de                uhci_activate_urb
                0x0000000040146f9a                uhci_reactivate_urb
                0x0000000040147040                uhci_submit_control
                0x0000000040147674                uhci_submit_interrupt
                0x00000000401476dc                uhci_submit_bulk
                0x0000000040147744                uhci_check_urb_advance
                0x000000004014777f                uhci_check_advance
                0x0000000040147985                init_hframelist
                0x0000000040147c61                ehci_conceal_portroute
                0x0000000040147ca9                ehci_init
                0x0000000040149a67                ehci_dump_qtd
                0x0000000040149ada                ehci_dump_qtdm
                0x0000000040149b0f                ehci_dump_alist
                0x0000000040149bd2                ehci_dump_urblist
                0x0000000040149c68                ehci_dump_urb
                0x000000004014a125                ehci_dump_async
                0x000000004014a5a6                ehci_dump_all
                0x000000004014bb23                ehci_shadow_buffer
                0x000000004014bddf                get_gurb_by_address
                0x000000004014be75                shadow_and_activate_urb
                0x000000004014c159                ehci_deactivate_urb
                0x000000004014c2f3                deactivate_and_delete_urb
                0x000000004014c55c                ehci_check_urb_advance
                0x000000004014c726                ehci_check_advance
                0x000000004014c974                ehci_shadow_async_list
                0x000000004014ca8e                ehci_cleanup_urbs
                0x000000004014cbfb                ehci_end_monitor_async
                0x000000004014cc64                ehci_monitor_async_list
                0x000000004014d323                ehci_submit_control
                0x000000004014d8b3                ehci_submit_bulk
                0x000000004014d8be                ehci_submit_interrupt
                0x000000004014f463                usbmsc_init_handle
                0x000000004014f83e                usbhub_init_handle
                0x000000004014f8b7                hub_portdevice_register
                0x000000004014ff80                usbccid_init_handle
                0x00000000401500a0                usb_set_debug
                0x00000000401500ac                usb_init
                0x00000000401500b2                usb_find_busses
                0x0000000040150193                usb_get_busses
                0x00000000401501a0                usb_get_bus
                0x00000000401501cf                usb_find_devices
                0x000000004015021f                usb_open
                0x0000000040150289                usb_close
                0x0000000040150299                usb_resetep
                0x00000000401502a4                usb_clear_halt
                0x00000000401502af                usb_reset
                0x00000000401502ba                usb_claim_interface
                0x00000000401502c8                usb_release_interface
                0x00000000401502da                usb_set_configuration
                0x0000000040150585                usb_set_altinterface
                0x0000000040150832                usb_control_msg
                0x0000000040150b81                usb_get_string
                0x0000000040150ebc                usb_get_string_simple
                0x00000000401510bc                usb_get_descriptor
                0x00000000401513fd                usb_get_descriptor_early
                0x0000000040151746                usb_get_descriptor_by_endpoint
                0x0000000040151a8c                usb_bulk_write
                0x0000000040151cc0                usb_interrupt_write
                0x0000000040151ef2                usb_bulk_read
                0x00000000401521ae                usb_interrupt_read
                0x000000004015246d                usb_register_host
                0x0000000040152588                usb_unregister_devices
                0x00000000401525ba                usb_sc_lock
                0x0000000040152632                usb_sc_unlock
                0x0000000040152d48                free_config_descriptors
                0x0000000040152e99                free_device
                0x0000000040153005                handle_connect_status
                0x0000000040153100                handle_port_reset
                0x00000000401531e1                dprintf_port
                0x0000000040154189                usb_init_device_monitor
                0x00000000401541f3                usb_new_dev_handle
                0x00000000401542a4                usbhid_init_handle
                0x00000000401543da                usb_hook_process
                0x00000000401546da                usb_hook_register
                0x00000000401547b4                usb_hook_unregister
                0x0000000040154838                _dprintf
                0x0000000040154885                _dprintft
                0x0000000040154938                pro100_io_handler
                0x0000000040154943                pro100_config_read
                0x0000000040154958                pro100_config_write
                0x0000000040154a82                pro100_init
                0x0000000040154a9c                pro100_init_vpn_client
                0x0000000040154adb                pro100_sleep
                0x0000000040154b0b                pro100_beep
                0x0000000040154b35                pro100_get_ctx
                0x0000000040154bd8                pro100_alloc_page
                0x0000000040154c12                pro100_free_page
                0x0000000040154c37                pro100_get_op_size
                0x0000000040154c7a                pro100_mem_read
                0x0000000040154cf0                pro100_read_send_packet
                0x0000000040154f02                pro100_mem_write
                0x0000000040154f76                pro100_write
                0x0000000040154fe9                pro100_read
                0x0000000040155068                pro100_wait_cu_ru_accepable
                0x00000000401550a3                pro100_init_cu_base_addr
                0x0000000040155103                pro100_init_ru_base_addr
                0x0000000040155163                pro100_flush
                0x000000004015517e                pro100_exec_cu_op
                0x00000000401552c2                pro100_send_packet_to_line
                0x00000000401553ff                pro100_generate_int
                0x000000004015542f                pro100_write_recv_packet
                0x00000000401555ab                pro100_proc_guest_op
                0x00000000401557b6                pro100_get_int_bit_string
                0x000000004015582c                pro100_get_stat_ack_string
                0x0000000040155897                pro100_get_cu_command_string
                0x0000000040155919                pro100_get_ru_command_string
                0x0000000040155963                pro100_init_recv_buffer
                0x0000000040155a9a                pro100_poll_ru
                0x0000000040155b95                pro100_hook_write
                0x0000000040155e5b                pro100_hook_read
                0x0000000040156012                pro100_mm_handler
                0x0000000040156166                pro100_alloc_recv_buffer
                0x00000000401561d3                pro100_new
                0x0000000040158423                storage_premap_buf
                0x000000004015842e                storage_premap_handle_sectors
                0x0000000040158762                storage_get_num_hc
                0x0000000040158794                storage_hc_open
                0x0000000040158888                storage_hc_close
                0x00000000401588d2                storage_hc_hook_register
                0x0000000040158949                storage_hc_hook_unregister
                0x00000000401589e3                storage_hc_register
                0x0000000040158bc1                storage_hc_unregister
                0x0000000040158cca                storage_hc_scandev
                0x0000000040158d11                storage_hc_dev_open
                0x0000000040158e4e                storage_hc_dev_atacommand
                0x0000000040159025                storage_hc_dev_close
                0x00000000401590ed                storage_io_init
                0x0000000040159102                storage_io_deinit
                0x000000004015910d                storage_io_get_num_devices
                0x00000000401591cb                storage_io_aget_size
                0x000000004015933d                storage_io_aread
                0x000000004015957e                storage_io_awrite
                0x0000000040159d02                storage_handle_sectors
                0x0000000040159f4b                storage_new
                0x000000004015a192                storage_free
                0x000000004015a391                storage_init
                0x000000004015a5c5                aes_xts_init
                0x000000004015a5f8                crypto_find
                0x000000004015a64b                crypto_register
                0x000000004015a69b                crypto_init
                0x000000004015a6f2                crypto_none_init
                0x000000004015a72a                vpn_GetCurrentCpuId
                0x000000004015a735                vpn_GetTickCount
                0x000000004015a765                vpn_NewTimer
                0x000000004015a77f                vpn_SetTimer
                0x000000004015a793                vpn_FreeTimer
                0x000000004015a79e                vpn_GetPhysicalNicInfo
                0x000000004015a7ad                vpn_SendPhysicalNic
                0x000000004015a7bc                vpn_SetPhysicalNicRecvCallback
                0x000000004015a7cb                vpn_GetVirtualNicInfo
                0x000000004015a7db                vpn_SendVirtualNic
                0x000000004015a7eb                vpn_SetVirtualNicRecvCallback
                0x000000004015a7fb                vpn_premap_PhysicalNicRecv
                0x000000004015a814                vpn_premap_VirtualNicRecv
                0x000000004015a82d                vpn_premap_recvbuf
                0x000000004015a838                vpn_ic_rsa_sign
                0x000000004015a8d1                vpn_new_nic
                0x000000004015aee1                msg_vpn_GetCurrentCpuId
                0x000000004015aefb                msg_vpn_ic_rsa_sign
                0x000000004015afa7                msg_vpn_GetTickCount
                0x000000004015afe5                msg_vpn_GetPhysicalNicInfo
                0x000000004015b049                msg_vpn_SendPhysicalNic
                0x000000004015b103                msg_vpn_SetPhysicalNicRecvCallback
                0x000000004015b14f                msg_vpn_GetVirtualNicInfo
                0x000000004015b1b3                msg_vpn_SendVirtualNic
                0x000000004015b26d                msg_vpn_SetVirtualNicRecvCallback
                0x000000004015b2b9                msg_vpn_NewTimer
                0x000000004015b329                msg_vpn_SetTimer
                0x000000004015b3fc                msg_vpn_FreeTimer
                0x000000004015b462                vpn_start
                0x000000004015b7ec                vpn_user_init
                0x000000004015b850                SeFreeConfigEntryList
                0x000000004015b8ae                SeGetConfigEntry
                0x000000004015b91f                SeGetConfigStr
                0x000000004015b94c                SeGetConfigBool
                0x000000004015b9f8                SeGetConfigInt
                0x000000004015ba1c                SeGetConfigInt64
                0x000000004015ba40                SeGetConfigBin
                0x000000004015ba64                SeIsSplitChar
                0x000000004015bad7                SeGetKeyAndValue
                0x000000004015bc67                SeLoadConfigEntryListFromBuf
                0x000000004015bddf                SeLoadConfigEntryList
                0x000000004015be30                SePKeyPasswordCallbackFunction
                0x000000004015be5d                SeDhFree
                0x000000004015be97                SeRsaVerifyWithPadding
                0x000000004015bf71                SeRsaSignWithPadding
                0x000000004015c035                SeRsaPublicDecrypt
                0x000000004015c0de                SeRsaPrivateEncrypt
                0x000000004015c187                SeRsaPrivateDecrypt
                0x000000004015c228                SeRsaPublicEncrypt
                0x000000004015c2c9                SeGetCertSha1
                0x000000004015c311                SeGetCertMd5
                0x000000004015c359                SeBinToBigNum
                0x000000004015c3a4                SeBufToBigNum
                0x000000004015c3bf                SeDhCompute
                0x000000004015c44b                SeBigNumToBuf
                0x000000004015c4e4                SeRsaPublicSize
                0x000000004015c52f                SeRsaPublicToBin
                0x000000004015c593                SeRsaPublicToBuf
                0x000000004015c5d7                SeDhNew
                0x000000004015c6ad                SeDhNewGroup2
                0x000000004015c6c2                SeCheckSignature
                0x000000004015c6ec                SeGetKeyFromCert
                0x000000004015c728                SeCompareCert
                0x000000004015c752                SeCheckCertAndKey
                0x000000004015c77c                SeIsBase64
                0x000000004015c83d                SeFreePKey
                0x000000004015c84d                SeFreeKey
                0x000000004015c875                SeIsCertSignedByCert
                0x000000004015c8e5                SeCheckCert
                0x000000004015c94b                SeBioToKey
                0x000000004015ca59                SeGetCertIssuerName
                0x000000004015cae5                SeGetCertSubjectName
                0x000000004015cb6f                SeFreeX509
                0x000000004015cb7f                SeFreeCert
                0x000000004015cbad                SeFreeBio
                0x000000004015cbbd                SeNewBio
                0x000000004015cbd0                SeCertToBio
                0x000000004015cc31                SeKeyToBio
                0x000000004015cd2d                SeRsaGen
                0x000000004015ce98                SeBioToBuf
                0x000000004015cf39                SeCertToBuf
                0x000000004015cf84                SeSaveCert
                0x000000004015cfe5                SeKeyToBuf
                0x000000004015d030                SeSaveKey
                0x000000004015d094                SeX509ToCert
                0x000000004015d14c                SeBioToCert
                0x000000004015d197                SeBigNumToStr
                0x000000004015d203                SeBufToBio
                0x000000004015d25c                SeBufToKey
                0x000000004015d2c8                SeLoadKey
                0x000000004015d373                SeCloneKey
                0x000000004015d3dd                SeBufToCert
                0x000000004015d432                SeLoadCert
                0x000000004015d47f                SeCloneCert
                0x000000004015d4d0                SeSha1
                0x000000004015d4f0                SeHashForSignBySHA1
                0x000000004015d59a                SeRsaSignWithSha1
                0x000000004015d63d                SeRsaVerifyWithSha1
                0x000000004015d6df                SeMacSha1
                0x000000004015d836                SeMacSha196
                0x000000004015d87d                SeMd5
                0x000000004015d89d                SeDes3Encrypt
                0x000000004015d935                SeDes3Decrypt
                0x000000004015d9cf                SeDesNewKeyValue
                0x000000004015da21                SeDes3NewKey
                0x000000004015daa2                SeDesNewKey
                0x000000004015dab3                SeDesRandKeyValue
                0x000000004015dacf                SeDesRandKey
                0x000000004015db19                SeDes3RandKey
                0x000000004015db62                SeDesFreeKeyValue
                0x000000004015db8a                SeDes3FreeKey
                0x000000004015dbc4                SeDesFreeKey
                0x000000004015dbcf                SeRand
                0x000000004015dbe3                SeRand64
                0x000000004015dbff                SeRand32
                0x000000004015dc1a                SeRand16
                0x000000004015dc36                SeRand8
                0x000000004015dc52                SeRand1
                0x000000004015dc65                SeInitCrypto
                0x000000004015dca8                SeFreeCrypto
                0x000000004015dcc0                SeIkeStrToPassword
                0x000000004015dd2d                SeIkePhase1CryptIdToKeySize
                0x000000004015dd4c                SeIkePhase2CryptIdToKeySize
                0x000000004015dd6b                SeIkeStrToPhase1CryptId
                0x000000004015ddd1                SeIkeStrToPhase1HashId
                0x000000004015de10                SeIkeStrToPhase2CryptId
                0x000000004015de7b                SeIkeStrToPhase2HashId
                0x000000004015deba                SeIkeIsZeroIP
                0x000000004015dee8                SeIkeInitIPv6Address
                0x000000004015df35                SeIkeInitIPv4Address
                0x000000004015df78                SeIkeGetIPv6Address
                0x000000004015dfb2                SeIkeGetIPv4Address
                0x000000004015dfcb                SeIkeIpAddressToStr
                0x000000004015e025                SeIkeBuildDataPayload
                0x000000004015e06e                SeIkeBuildTransformValue
                0x000000004015e128                SeIkeBuildTransformValueList
                0x000000004015e190                SeIkeBuildTransformPayload
                0x000000004015e20d                SeIkeBuildIdPayload
                0x000000004015e284                SeIkeBuildCertPayload
                0x000000004015e2e7                SeIkeBuildCertRequestPayload
                0x000000004015e34a                SeIkeBuildNoticePayload
                0x000000004015e3d7                SeIkeBuildDeletePayload
                0x000000004015e4a7                SeIkeGetFirstPayloadType
                0x000000004015e4c6                SeIkeBuildPayloadList
                0x000000004015e5d1                SeIkeBuildProposalPayload
                0x000000004015e67c                SeIkeBuildSaPayload
                0x000000004015e705                SeIkeBuildPayload
                0x000000004015e7de                SeIkeGetPayload
                0x000000004015e82c                SeIkeGetPayloadNum
                0x000000004015e868                SeIkeNewPayload
                0x000000004015e886                SeIkeNewDataPayload
                0x000000004015e8d6                SeIkeNewSaPayload
                0x000000004015e901                SeIkeNewProposalPayload
                0x000000004015e98b                SeIkeNewTransformPayload
                0x000000004015e9d6                SeIkeNewIdPayload
                0x000000004015ea56                SeIkeNewCertPayload
                0x000000004015eaba                SeIkeNewCertRequestPayload
                0x000000004015eb1e                SeIkeNewNoticePayload
                0x000000004015ebba                SeIkeNewDeletePayload
                0x000000004015ebf6                SeIkeNewTransformValue
                0x000000004015ec25                SeIkeFreeTransformValueList
                0x000000004015ec61                SeIkeParseTransformValueList
                0x000000004015edcd                SeIkeParseTransformPayload
                0x000000004015ee39                SeIkeFreeTransformPayload
                0x000000004015ee67                SeIkeParseIdPayload
                0x000000004015eee4                SeIkeFreeIdPayload
                0x000000004015ef12                SeIkeParseCertPayload
                0x000000004015ef7b                SeIkeFreeCertPayload
                0x000000004015efa9                SeIkeParseCertRequestPayload
                0x000000004015f012                SeIkeFreeCertRequestPayload
                0x000000004015f040                SeIkeParseNoticePayload
                0x000000004015f104                SeIkeFreeNoticePayload
                0x000000004015f148                SeIkeFreeDeletePayload
                0x000000004015f1a7                SeIkeParseDeletePayload
                0x000000004015f2b5                SeIkeParseDataPayload
                0x000000004015f2ef                SeIkeFreeDataPayload
                0x000000004015f302                SeIkeFreePayloadList
                0x000000004015f33e                SeIkeParsePayloadListEx
                0x000000004015f4c1                SeIkeParsePayloadList
                0x000000004015f4d4                SeIkeParseProposalPayload
                0x000000004015f584                SeIkeParseSaPayload
                0x000000004015f651                SeIkeParsePayload
                0x000000004015f751                SeIkeFreeProposalPayload
                0x000000004015f795                SeIkeFreeSaPayload
                0x000000004015f7c1                SeIkeFreePayload
                0x000000004015f868                SeIkeEncrypt
                0x000000004015f923                SeIkeEncryptWithPadding
                0x000000004015f9d3                SeIkeBuild
                0x000000004015fb2c                SeIkeDecrypt
                0x000000004015fbe7                SeIkeFree
                0x000000004015fc23                SeIkeParseEx
                0x000000004015fe0b                SeIkeParse
                0x000000004015fe1b                SeIkeParseHeader
                0x000000004015fe2b                SeIkeNew
                0x000000004015feb0                VPN_IPsec_Client_Start
                0x000000004015fed6                VPN_IPsec_Client_Stop
                0x000000004015fee6                SeIntInit
                0x000000004015ff09                SeIntFree
                0x000000004015ff23                VPN_IPsec_Init
                0x000000004015ff7f                VPN_IPsec_Free
                0x000000004015ffb1                SeSysMemoryAlloc
                0x000000004015ffcd                SeSysMemoryReAlloc
                0x000000004015fff6                SeSysMemoryFree
                0x000000004016000e                SeSysGetCurrentCpuId
                0x0000000040160026                SeSysNewLock
                0x000000004016003e                SeSysLock
                0x0000000040160056                SeSysUnlock
                0x000000004016006e                SeSysFreeLock
                0x0000000040160086                SeSysGetTickCount
                0x000000004016009e                SeSysNewTimer
                0x00000000401600c2                SeSysSetTimer
                0x00000000401600da                SeSysFreeTimer
                0x00000000401600f2                SeSysGetPhysicalNicInfo
                0x000000004016010f                SeSysSendPhysicalNic
                0x0000000040160135                SeSysSetPhysicalNicRecvCallback
                0x0000000040160157                SeSysGetVirtualNicInfo
                0x0000000040160174                SeSysSendVirtualNic
                0x000000004016019d                SeSysSetVirtualNicRecvCallback
                0x00000000401601c2                SeSysSaveData
                0x00000000401601e9                SeSysLoadData
                0x0000000040160210                SeSysFreeData
                0x000000004016022b                SeSysRsaSign
                0x0000000040160263                SeSysLog
                0x0000000040160291                SeRsaSign
                0x0000000040160330                Se4ParseIpPacketUDPv4
                0x000000004016042b                Se4FreeIpHeaderInfo
                0x000000004016045f                Se4IpChecksum
                0x00000000401604d2                Se4IpCheckChecksum
                0x0000000040160521                Se4ParseIpPacketICMPv4
                0x0000000040160650                Se4BuildIcmpEchoPacket
                0x000000004016070c                Se4AdjustTcpMss
                0x00000000401608b1                Se4Tick
                0x00000000401608c9                Se4BroadcastMacAddress
                0x00000000401608d4                Se4SendEthPacket
                0x00000000401609ab                Se4SendIpFragmentNow
                0x00000000401609d4                Se4InitArpEntryList
                0x00000000401609e4                Se4FreeArpEntryList
                0x0000000040160a20                Se4FlushArpEntryList
                0x0000000040160acd                Se4SearchArpEntryList
                0x0000000040160b59                Se4AddArpEntryList
                0x0000000040160c46                Se4SearchArpWaitList
                0x0000000040160c8e                Se4InitArpWaitList
                0x0000000040160c9e                Se4FreeArpWaitList
                0x0000000040160cda                Se4InsertIpWait
                0x0000000040160d5c                Se4InitIpWaitList
                0x0000000040160d6c                Se4FreeIpWait
                0x0000000040160d95                Se4FlushIpWaitList
                0x0000000040160e57                Se4FreeIpWaitList
                0x0000000040160e93                Se4InitIpCombineList
                0x0000000040160ea3                Se4SearchIpCombineList
                0x0000000040160f19                Se4InitIpFragmentList
                0x0000000040160f29                Se4InsertIpCombine
                0x0000000040161028                Se4FreeIpFragmentList
                0x0000000040161064                Se4FreeIpCombine
                0x000000004016109c                Se4FlushIpCombineList
                0x0000000040161185                Se4FreeIpCombineList
                0x00000000401611d3                Se4Free
                0x0000000040161217                Se4And
                0x0000000040161246                Se4GetNetworkAddress
                0x0000000040161251                Se4Or
                0x0000000040161280                Se4Not
                0x00000000401612aa                Se4GetBroadcastAddress
                0x00000000401612ef                Se4GetHostAddress
                0x0000000040161309                Se4GenerateSubnetMask32
                0x000000004016132a                Se4IPToStr
                0x000000004016136d                Se4ZeroIP
                0x0000000040161388                Se4StrToIP
                0x0000000040161429                Se4IPToUINT
                0x000000004016144b                Se4StrToIP32
                0x000000004016145d                Se4IsZeroIP
                0x0000000040161470                Se4Init
                0x0000000040161586                Se4Cmp
                0x00000000401615bf                Se4CheckUnicastAddress
                0x0000000040161610                Se4IsInSameNetwork
                0x000000004016165f                Se4CmpIpCombineList
                0x00000000401616fd                Se4SendWaitingIpWait
                0x00000000401617de                Se4MacIpRelationKnown
                0x000000004016188a                Se4CmpArpWaitEntry
                0x00000000401618c1                Se4CmpArpEntry
                0x00000000401618f8                Se4ParseIpPacket
                0x0000000040161a4e                Se4IsBroadcastAddress
                0x0000000040161a62                Se4SendArpResponse
                0x0000000040161b49                Se4SendArpDoProcess
                0x0000000040161c4f                Se4ProcessArpWaitList
                0x0000000040161d03                Se4MainProc
                0x0000000040161d34                Se4SendArpRequest
                0x0000000040161da9                Se4UINTToIP
                0x0000000040161dcb                Se4IPToStr32
                0x0000000040161def                Se4GenerateSubnetMask
                0x0000000040161e01                Se4IsSubnetMask
                0x0000000040161e3e                Se4RecvArpResponse
                0x0000000040161e83                Se4RecvArpRequest
                0x0000000040161fad                Se4RecvArp
                0x000000004016206a                Se4SendRawIp
                0x00000000401621cd                Se4SendIpFragment
                0x0000000040162300                Se4SendIp
                0x00000000401623e2                Se4SendUdp
                0x0000000040162514                Se4SendIcmp
                0x00000000401625cd                Se4SendIcmpEchoResponse
                0x0000000040162662                Se4RecvIpComplete
                0x000000004016272f                Se4CombineIp
                0x000000004016292d                Se4SendIcmpEchoRequest
                0x00000000401629c2                Se4RecvIp
                0x0000000040162c5c                Se4RecvEthPacket
                0x0000000040162cf0                Se6FreeIpHeaderInfo
                0x0000000040162d24                Se6IpChecksum
                0x0000000040162d97                Se6CalcChecksum
                0x0000000040162e58                Se6ParseIpPacketICMPv6
                0x0000000040163096                Se6ParseIpPacketUDPv6
                0x00000000401631e5                Se6BuildIcmpEchoPacket
                0x00000000401632ce                Se6BroadcastMacAddress
                0x00000000401632d9                Se6SendEthPacket
                0x00000000401633b0                Se6SendIpFragmentNow
                0x00000000401633d9                Se6InitNeighborEntryList
                0x00000000401633e9                Se6FreeNeighborEntryList
                0x0000000040163425                Se6FlushNeighborEntryList
                0x00000000401634d2                Se6SearchNeighborEntryList
                0x0000000040163529                Se6AddNeighborEntryList
                0x0000000040163613                Se6SearchNdpWaitList
                0x0000000040163662                Se6InitNdpWaitList
                0x0000000040163672                Se6FreeNdpWaitList
                0x00000000401636ae                Se6InsertIpWait
                0x000000004016373d                Se6InitIpWaitList
                0x000000004016374d                Se6FreeIpWait
                0x0000000040163776                Se6FreeIpWaitList
                0x00000000401637b2                Se6InitIpCombineList
                0x00000000401637c2                Se6SearchIpCombineList
                0x0000000040163866                Se6InitIpFragmentList
                0x0000000040163876                Se6FreeIpFragmentList
                0x00000000401638b2                Se6FreeIpCombine
                0x00000000401638ed                Se6FreeIpCombineList
                0x000000004016393b                Se6Free
                0x000000004016398b                Se6Tick
                0x00000000401639a3                Se6InsertIpCombine
                0x0000000040163ada                Se6FlushIpCombineList
                0x0000000040163bc6                Se6FlushIpWaitList
                0x0000000040163c8e                Se6GenerateEui64Address
                0x0000000040163cef                Se6GenerateMulticastMacAddress
                0x0000000040163d25                Se6GetAllNodeMulticastAddr
                0x0000000040163d51                Se6GetAllRouterMulticastAddr
                0x0000000040163d7d                Se6And
                0x0000000040163dbb                Se6GetPrefixAddress
                0x0000000040163dca                Se6Or
                0x0000000040163e08                Se6Not
                0x0000000040163e3c                Se6GetHostAddress
                0x0000000040163e78                Se6GenerateSubnetMask
                0x0000000040163edd                Se6GetSoliciationMulticastAddr
                0x0000000040163f8e                Se6LocalSubnet
                0x0000000040163fa2                Se6Cmp
                0x0000000040163fce                Se6GetIPAddrType
                0x00000000401640dc                Se6IsInSameNetwork
                0x00000000401641a3                Se6SendRawIp
                0x0000000040164315                Se6SendIpFragment
                0x0000000040164331                Se6SendIp
                0x00000000401644ae                Se6SendUdp
                0x00000000401645da                Se6SendIcmp
                0x00000000401646d6                Se6SendIcmpNeighborSoliciation
                0x000000004016484c                Se6SendNeighborSoliciationDoProcess
                0x0000000040164906                Se6SendNeighborSoliciation
                0x000000004016498e                Se6ProcessNdpWaitList
                0x0000000040164a48                Se6SendIcmpNeighborAdvertisement
                0x0000000040164b8c                Se6SendIcmpEchoResponse
                0x0000000040164c51                Se6SendIcmpEchoRequest
                0x0000000040164d16                Se6IsSubnetMask
                0x0000000040164d78                Se6SubnetMaskToInt
                0x0000000040164dd2                Se6SendIcmpRouterAdvertisement
                0x0000000040164faa                Se6MainProc
                0x0000000040165004                Se6CmpIpCombineList
                0x0000000040165095                Se6SendWaitingIpWait
                0x000000004016518c                Se6MacIpRelationKnown
                0x00000000401652ae                Se6CmpNdpWaitEntry
                0x00000000401652ef                Se6CmpNeighborEntry
                0x0000000040165330                Se6ParseIpPacket
                0x00000000401654d2                Se6IsZeroIP
                0x00000000401654f2                Se6CheckUnicastAddress
                0x0000000040165526                Se6IsNetworkPrefixAddress
                0x0000000040165568                Se6IsGuestNode
                0x000000004016560c                Se6AddGuestNode
                0x00000000401656e0                Se6RecvIpComplete
                0x0000000040165997                Se6CombineIp
                0x0000000040165bad                Se6RecvIp
                0x0000000040165dea                Se6RecvEthPacket
                0x0000000040165e5c                Se6IPToStr
                0x0000000040165fba                Se6IPItemStrToChars
                0x000000004016609a                Se6CheckIPItemStr
                0x0000000040166103                Se6ZeroIP
                0x0000000040166123                Se6StrToIP
                0x00000000401662ef                Se6GenerateEui64LocalAddress
                0x0000000040166362                Se6Init
                0x00000000401664c1                Se6GenerateEui64GlobalAddress
                0x00000000401665c2                Se6CheckSubnetLength
                0x00000000401665e0                SeTimerEntryCompare
                0x0000000040166620                SeEthGetInfo
                0x0000000040166644                SeEthSendAdd
                0x0000000040166677                SeEthParseEthernetPacket
                0x0000000040166778                SeEthGenRandMacAddress
                0x00000000401667ca                SeLoad
                0x000000004016682f                SeSave
                0x000000004016684b                SeTick
                0x000000004016685b                SeGetCurrentCpuId
                0x000000004016686b                SeNewLock
                0x00000000401668a6                SeEthNew
                0x00000000401669bc                SeTimerNew
                0x0000000040166a32                SeLock
                0x0000000040166a7c                SeUnlock
                0x0000000040166aa3                SeTick64Internal
                0x0000000040166af9                SeTick64
                0x0000000040166b18                SeInitKernel
                0x0000000040166b52                SeEthGetNextRecvPacket
                0x0000000040166b9b                SeEthDeleteOldSenderMacList
                0x0000000040166c6f                SeEthIsSenderMacAddressExistsInList
                0x0000000040166d16                SeEthNicCallback
                0x0000000040166e17                SeEthAddSenderMacList
                0x0000000040166f11                SeEthSend
                0x0000000040166f97                SeEthSendAll
                0x0000000040167068                SeTimerAdjust
                0x00000000401670ee                SeTimerSet
                0x0000000040167174                SeTimerCallback
                0x0000000040167284                SeDeleteLock
                0x00000000401672ac                SeEthFree
                0x0000000040167355                SeTimerFree
                0x00000000401673af                SeFreeKernel
                0x00000000401673c5                SeLogArgs
                0x0000000040167403                SeWarning
                0x0000000040167449                SeError
                0x000000004016748f                SeInfo
                0x00000000401674d5                SeFatal
                0x000000004016751b                SeDebug
                0x0000000040167561                SeDebugBin
                0x00000000401675cf                SeLog
                0x0000000040167610                SeB64CodeToChar
                0x0000000040167656                SeB64CharToCode
                0x000000004016769d                SeIsZero
                0x00000000401676e6                SeReplaceListPointer
                0x0000000040167742                SeIsInListStr
                0x00000000401677b3                SeIsInList
                0x00000000401677fe                SeCompareStr
                0x0000000040167820                SeSetSortFlag
                0x000000004016782e                SeSetCmp
                0x000000004016784f                SeFastSwap
                0x0000000040167883                SeQSort
                0x0000000040167b9b                SeSort
                0x0000000040167bd3                SeBSearch
                0x0000000040167ca2                SeSearch
                0x0000000040167d0a                SeFifoSize
                0x0000000040167d1d                SeDumpBuf
                0x0000000040167d45                SeSeekBuf
                0x0000000040167d7b                SeClearBuf
                0x0000000040167d94                SeSwap16
                0x0000000040167daf                SeSwap32
                0x0000000040167dd9                SeSwap64
                0x0000000040167e30                SeMalloc
                0x0000000040167e72                SeNewBuf
                0x0000000040167eb4                SeNewFifo
                0x0000000040167ef6                SeReAlloc
                0x0000000040167f67                SeAdjustBufSize
                0x0000000040167f9c                SeClearFifo
                0x0000000040167fd9                SeAdd
                0x0000000040168043                SeInsert
                0x0000000040168171                SeInsertStr
                0x00000000401681c4                SeDelete
                0x000000004016827f                SeDeleteAll
                0x00000000401682b6                SePop
                0x000000004016831d                SePush
                0x0000000040168380                SeMemSize
                0x00000000401683b2                SeFree
                0x00000000401683e1                SeFreeBuf
                0x0000000040168409                SeFreeBufWithoutBuffer
                0x0000000040168419                SeFreeFifo
                0x0000000040168441                SeFreeList
                0x000000004016846a                SeFreeQueue
                0x0000000040168493                SeFreeStack
                0x00000000401684bc                SeIsLittleEndian
                0x00000000401684cf                SeEndian16
                0x00000000401684f3                SeEndian32
                0x0000000040168516                SeEndian64
                0x000000004016853d                SeIsBigEndian
                0x0000000040168555                SeCmp
                0x00000000401685c4                SeCmpEx
                0x00000000401685f9                SeCmpBuf
                0x000000004016863a                SeCopy
                0x0000000040168662                SeClone
                0x00000000401686af                SeSwap
                0x0000000040168709                SeWriteBuf
                0x0000000040168780                SeMemToBuf
                0x00000000401687e6                SeRandBuf
                0x000000004016882c                SeCloneBuf
                0x0000000040168847                SeWriteBufLine
                0x000000004016889f                SeWriteBufBuf
                0x00000000401688ba                SeWriteBufInt
                0x00000000401688fa                SeWriteBufInt64
                0x000000004016893d                SeWriteBufStr
                0x00000000401689ab                SeAddBufStr
                0x00000000401689ea                SeReadDump
                0x0000000040168a4f                SePeekFifo
                0x0000000040168a8d                SePeekNext
                0x0000000040168acb                SeReadFifo
                0x0000000040168bb8                SeGetNext
                0x0000000040168c02                SeGetNextInt
                0x0000000040168c38                SeWriteFifo
                0x0000000040168ccc                SeInsertQueue
                0x0000000040168d02                SeInsertQueueInt
                0x0000000040168d36                SeCopyToArray
                0x0000000040168d5a                SeToArray
                0x0000000040168d9f                SeZero
                0x0000000040168dc1                SeZeroMalloc
                0x0000000040168df9                SeNewList
                0x0000000040168e4c                SeCloneList
                0x0000000040168e9a                SeNewQueue
                0x0000000040168ece                SeNewStack
                0x0000000040168f09                SeB64Decode
                0x00000000401690d8                SeB64Encode
                0x0000000040169291                SeReadBuf
                0x000000004016932b                SeReadBufFromBuf
                0x00000000401693c7                SeReadRemainBuf
                0x00000000401693ef                SeReadBufInt
                0x0000000040169424                SeReadBufInt64
                0x000000004016945c                SeReadBufStr
                0x0000000040169510                SeBuildICMPv6OptionValue
                0x000000004016959f                SeBuildICMPv6Options
                0x000000004016964a                SeParseICMPv6Options
                0x0000000040169723                SeFreePacketList
                0x000000004016975f                SeFreePacketListWithoutBuffer
                0x000000004016979b                SeGetNextHeaderFromQueue
                0x00000000401697c7                SeBuildAndAddIPv6PacketOptionHeader
                0x0000000040169864                SeBuildIPv6Packet
                0x0000000040169a49                SeBuildIPv6PacketWithFragment
                0x0000000040169c05                SeParseIPv6ExtHeader
                0x0000000040169cf2                SeParseIPv6Packet
                0x0000000040169d6d                SeParsePacketL3IPv6
                0x0000000040169dae                SeParsePacketL3IPv4
                0x0000000040169e67                SeParsePacketL3ARPv4
                0x0000000040169e91                SeParsePacketL2
                0x0000000040169f33                SeFreePacket
                0x0000000040169f43                SeParsePacket
                0x0000000040169fe0                SeSecCmpIkeSa
                0x000000004016a0b8                SeSecCalcP2Iv
                0x000000004016a16c                SeSecCalcP1Iv
                0x000000004016a219                SeSecCalcKEYMATFull
                0x000000004016a323                SeSecCalcKEYMAT
                0x000000004016a3ea                SeSecCalcKa
                0x000000004016a4bf                SeSecCalcP1KeySet
                0x000000004016a6d6                SeSecForceReconnect
                0x000000004016a70f                SeSecLifeSeconds64bit
                0x000000004016a72f                SeSecGetIPsecSa
                0x000000004016a77b                SeSecNewIkeSa
                0x000000004016a82c                SeSecFreeP1KeySet
                0x000000004016a87a                SeSecGenIkeSaMessageId
                0x000000004016a8e9                SeSecGenIkeSaInitCookie
                0x000000004016a958                SeSecInitSaList
                0x000000004016a992                SeSecSearchIPsecSaBySpi
                0x000000004016aa21                SeSecSearchIkeSaBySpi
                0x000000004016aaec                SeSecSearchIkeSa
                0x000000004016abb8                SeSecNewSpi
                0x000000004016abcf                SeSecGenIPsecSASpi
                0x000000004016ac3e                SeSecStrToAuthMethod
                0x000000004016aca9                SeSecTick
                0x000000004016acc3                SeSecCheckIPsecSaExpires
                0x000000004016ad86                SeSecCheckIkeSaExpires
                0x000000004016ae45                SeSecSetTimerCallback
                0x000000004016ae65                SeSecAddTimer
                0x000000004016ae85                SeSecDoInterval
                0x000000004016aef6                SeSecNewIPsecSa
                0x000000004016b063                SeSecSetRecvUdpCallback
                0x000000004016b083                SeSecSetRecvEspCallback
                0x000000004016b0a3                SeSecSetRecvVirtualIpCallback
                0x000000004016b0c3                SeSecSendUdp
                0x000000004016b10c                SeSecProcessIkeSaMsgPhase1
                0x000000004016ba15                SeSecSendIkeSaMsgPhase2
                0x000000004016bf37                SeSecSendIkeSaMsgPhase2FinalHash
                0x000000004016c0d7                SeSecProcessIkeSaMsgPhase2
                0x000000004016c536                SeSecSendIkeSaMsgInfo
                0x000000004016c79e                SeSecSendIkeSaMsgInfoSimple
                0x000000004016c806                SeSecSendIPsecSaDeleteMsg
                0x000000004016c88a                SeSecFreeIPsecSa
                0x000000004016c90a                SeSecDeleteExpiredIPsecSa
                0x000000004016c9b0                SeSecProcessIkeSaMsgInfo
                0x000000004016ccd5                SeSecProcessIkeSaMsg
                0x000000004016cd29                SeSecUdpRecvCallback
                0x000000004016cf95                SeSecSendIkeSaDeleteMsg
                0x000000004016d032                SeSecFreeIkeSa
                0x000000004016d1eb                SeSecFreeSaList
                0x000000004016d264                SeSecFreeMain
                0x000000004016d274                SeSecFree
                0x000000004016d2a3                SeSecDeleteExpiredIkeSa
                0x000000004016d406                SeSecStartVpnConnect
                0x000000004016da3a                SeSecProcessMain
                0x000000004016db2c                SeSecTimerCallback
                0x000000004016db3f                SeSecInitMain
                0x000000004016db64                SeSecInit
                0x000000004016dc98                SeSecSendEsp
                0x000000004016dcd1                SeSecVirtualIpRecvCallback
                0x000000004016deda                SeSecSendVirtualIp
                0x000000004016df02                SeSecEspRecvCallback
                0x000000004016e0b0                SeMakeCharArray
                0x000000004016e0e4                SeFreeToken
                0x000000004016e132                SeNullTokenList
                0x000000004016e166                SeDefaultTokenSplitChars
                0x000000004016e171                Se4BitToHex
                0x000000004016e186                SeHexTo4Bit
                0x000000004016e1c2                SeStrCmp
                0x000000004016e256                SeStrnCmp
                0x000000004016e323                SeToUpper
                0x000000004016e337                SeStrnCmpi
                0x000000004016e402                SeStrCmpi
                0x000000004016e4b2                SeToLower
                0x000000004016e4c6                SeStrCheckLen
                0x000000004016e502                SeStrCheckSize
                0x000000004016e520                SeStrLen
                0x000000004016e547                SeStrSize
                0x000000004016e55f                SeStrCpy
                0x000000004016e62a                SeStrCat
                0x000000004016e6cc                SeStrUpper
                0x000000004016e70c                SeStrLower
                0x000000004016e74c                SeToInt64
                0x000000004016e7a2                SeToInt
                0x000000004016e7f0                SeToStr64
                0x000000004016e8b7                SeToStr
                0x000000004016e971                SeToHex
                0x000000004016ea25                SeToHex64
                0x000000004016ead9                SeHexToInt
                0x000000004016eb61                SeHexToInt64
                0x000000004016ebeb                SeTrimLeft
                0x000000004016ec98                SeTrimRight
                0x000000004016edaa                SeTrim
                0x000000004016edcf                SeCopyStr
                0x000000004016ee24                SeTrimCopy
                0x000000004016ee51                SeUniqueToken
                0x000000004016efab                SeSearchStrEx
                0x000000004016f0ff                SeSearchStri
                0x000000004016f10f                SeSearchStr
                0x000000004016f11f                SeCalcReplaceStrEx
                0x000000004016f1da                SeReplaceStrEx
                0x000000004016f32f                SeReplaceStr
                0x000000004016f340                SeReplaceStri
                0x000000004016f351                SeTrimCrlf
                0x000000004016f398                SeStartWith
                0x000000004016f43e                SeEndWith
                0x000000004016f4a7                SeIsEmptyStr
                0x000000004016f4f1                SeNormalizeCrlf
                0x000000004016f584                SeIsCharInStr
                0x000000004016f5dc                SeParseToken
                0x000000004016f777                SeParseTokenWithNullStr
                0x000000004016f8d4                SeToStr3
                0x000000004016fa22                SeIsAllUpperStr
                0x000000004016fa94                SeIsAllLowerStr
                0x000000004016fb06                SeFormatEx
                0x0000000040170019                SeFormatArgs
                0x0000000040170079                SeFormat
                0x00000000401700af                SeBinToStr
                0x0000000040170156                SeBinToStrEx
                0x00000000401701ff                SeMacToStr
                0x0000000040170250                SeStrToBin
                0x000000004017033f                SeStrToBinEx
                0x00000000401703b2                SeStrToMac
                0x00000000401703c5                SeReadNextLine
                0x0000000040170490                SeVpnRecvIpV6PacketCallback
                0x00000000401704e0                SeVpnRecvIpV4PacketCallback
                0x0000000040170530                SeVpnInitIpStack
                0x0000000040170892                SeVpnFreeIpStack
                0x0000000040170932                SeVpnMainInit
                0x0000000040170a4b                SeVpnMainFree
                0x0000000040170a6f                SeVpnRecvEtherPacket
                0x0000000040170ad6                SeVpnSendEtherPacket
                0x0000000040170afb                SeVpnMainProcRecvEtherPacket
                0x0000000040170baa                SeVpnStatusChanged
                0x0000000040170bbc                SeVpnMainProcess
                0x0000000040170cba                SeVpnMainHandler
                0x0000000040170d07                SeVpnEthRecvCallback
                0x0000000040170d1f                SeVpnTimerCallback
                0x0000000040170d37                SeVpnTick
                0x0000000040170d4b                SeVpnAddTimer
                0x0000000040170d5f                SeVpnDoInterval
                0x0000000040170dcf                SeVpnFreeConfig
                0x0000000040170ddf                SeVpnFree
                0x0000000040170e30                SeVpnLoadConfig
                0x000000004017218e                SeVpnInit
                0x00000000401722b0                SeVpn4ClientSetTimerCallback
                0x00000000401722c3                SeVpn4ClientSetRecvUdpCallback
                0x00000000401722d6                SeVpn4ClientSetRecvEspCallback
                0x00000000401722e9                SeVpn4ClientSetRecvVirtualIpCallback
                0x00000000401722fc                SeVpn4ClientSendVirtualIp
                0x000000004017233b                SeVpn4ClientSendEsp
                0x00000000401723bb                SeVpn4ClientSendUdp
                0x0000000040172446                SeVpn4IPsecSendPing
                0x000000004017258e                SeVpn4IPsecInputFromPhysical
                0x0000000040172659                SeVpn4IPsecInputFromVirtual
                0x00000000401726cd                SeVpn4FreeIPsec
                0x00000000401726e1                SeVpn4InitSecConfig
                0x00000000401728c2                SeVpn4InitIPsec
                0x0000000040172993                SeVpn4DoInterval
                0x00000000401729ab                SeVpn4Tick
                0x00000000401729c3                SeVpn4ClientGetTick
                0x00000000401729d8                SeVpn4IPsecMainProc
                0x0000000040172a60                SeVpn4MainProc
                0x0000000040172a7b                SeVpn4SetTimer
                0x0000000040172a8e                SeVpn4ClientAddTimer
                0x0000000040172aa6                SeVpn4DhcpSendResponse
                0x0000000040172bbb                SeVpn4DhcpOptionsToBuf
                0x0000000040172c79                SeVpn4NewDhcpOption
                0x0000000040172ce0                SeVpn4DhcpBuildDhcpOptionList
                0x0000000040172ebe                SeVpn4DhcpSearchOption
                0x0000000040172efa                SeVpn4DhcpFreeOptionList
                0x0000000040172f50                SeVpn4DhcpParseOptionListMain
                0x000000004017303e                SeVpn4DhcpParseOptionList
                0x0000000040173131                SeVpn4DhcpServer
                0x00000000401733fc                SeVpn4RecvPacketPhysical
                0x00000000401734d1                SeVpn4RecvPacketVirtual
                0x0000000040173633                SeVpn4Init
                0x0000000040173698                SeVpn4Free
                0x00000000401736d0                SeVpn6ClientSetTimerCallback
                0x00000000401736e3                SeVpn6ClientSetRecvUdpCallback
                0x00000000401736f6                SeVpn6ClientSetRecvEspCallback
                0x0000000040173709                SeVpn6ClientSetRecvVirtualIpCallback
                0x000000004017371c                SeVpn6ClientSendVirtualIp
                0x000000004017375b                SeVpn6ClientSendEsp
                0x00000000401737fb                SeVpn6ClientSendUdp
                0x00000000401738b0                SeVpn6IPsecSendPing
                0x0000000040173a96                SeVpn6UpdateGuestOsIpAddress
                0x0000000040173b6a                SeVpn6IPsecInputFromPhysical
                0x0000000040173c35                SeVpn6IPsecInputFromVirtual
                0x0000000040173c69                SeVpn6InitSecConfig
                0x0000000040173e5b                SeVpn6InitIPsec
                0x0000000040173f3c                SeVpn6FreeIPsec
                0x0000000040173f50                SeVpn6DoInterval
                0x0000000040173f68                SeVpn6Tick
                0x0000000040173f80                SeVpn6ClientGetTick
                0x0000000040173f95                SeVpn6IPsecMainProc
                0x0000000040174025                SeVpn6MainProc
                0x0000000040174040                SeVpn6SetTimer
                0x0000000040174053                SeVpn6ClientAddTimer
                0x000000004017406b                SeVpn6RecvPacketPhysical
                0x00000000401740ed                SeVpn6RecvPacketVirtual
                0x0000000040174224                SeVpn6Init
                0x000000004017429a                SeVpn6Free
                0x00000000401742d0                crypt_sys_rsa_sign
                0x0000000040174665                msg_usb_bulk_read
                0x00000000401746c5                msg_usb_bulk_write
                0x0000000040174725                msg_usb_claim_interface
                0x000000004017476b                msg_usb_close
                0x00000000401747c5                msg_usb_control_msg
                0x000000004017483a                msg_usb_find_busses
                0x0000000040174878                msg_usb_find_devices
                0x00000000401748b6                msg_usb_get_busses
                0x000000004017491d                msg_usb_get_string_simple
                0x0000000040174979                msg_usb_init
                0x000000004017498e                msg_usb_open
                0x0000000040174a07                msg_usb_release_interface
                0x0000000040174a4d                msg_usb_reset
                0x0000000040174a90                IDMan_StReadSetData
                0x0000000040175175                idman_user_init
                0x00000000401751d0                IDMan_IPIdPassListMalloc
                0x00000000401752bb                IDMan_IPRetJudgment
                0x0000000040175337                IDMan_IPFinalizeReader
                0x0000000040175359                IDMan_IPFinalize
                0x00000000401753af                IDMan_IPInitialize
                0x00000000401754b8                IDMan_IPInitializeReader
                0x00000000401754e5                IDMan_getMemoryFree
                0x000000004017552d                IDMan_PaddingParamChk
                0x00000000401755f2                IDMan_CmPadding
                0x00000000401757ae                IDMan_CmPadding2
                0x000000004017592a                IDMan_IPgetCertPKCS
                0x0000000040176022                IDMan_IPgetCertIdxPKCS
                0x00000000401764f5                IDMan_IPCheckPKC
                0x000000004017671e                IDMan_CheckCardStatus
                0x0000000040176750                IDMan_IPgSParamChk
                0x0000000040176880                IDMan_IPgIdxSParamChk
                0x00000000401768b8                IDMan_IPgetPrivateKey
                0x0000000040176aab                IDMan_IPgetHash
                0x0000000040176ba2                IDMan_IPCrSignature
                0x0000000040176d0a                IDMan_generateSignature
                0x0000000040176e44                IDMan_generateSignatureByIndex
                0x0000000040176f6b                IDMan_EncryptByIndex
                0x0000000040177094                IDMan_IPgCParamChk
                0x0000000040177186                IDMan_getCertificate
                0x00000000401774a8                IDMan_IPgCIndexParamChk
                0x00000000401774e1                IDMan_getCertificateByIndex
                0x0000000040177878                IDMan_getStaticPassword
                0x0000000040177b90                IDMan_IPuAPKCS11ParamChk
                0x0000000040177c91                IDMan_IPuAPKCS11IdxParamChk
                0x0000000040177cb8                IDMan_IPgetCertPkeyPKCSx
                0x000000004017817b                IDMan_IPgetCertPkeyIdxPKCSx
                0x00000000401785a4                IDMan_IPgetCertPkeyPKCSy
                0x00000000401786f2                IDMan_IPCheckCrlPkcX
                0x000000004017882f                IDMan_IPgetMakeRandData
                0x00000000401788a7                IDMan_IPMkRandHash
                0x0000000040178964                IDMan_IPgetPrivateKeyPKCSx
                0x0000000040178b37                IDMan_IPSignatureVerify
                0x0000000040178cb0                IDMan_userAuthPKCS11
                0x0000000040179135                IDMan_userAuthPKCS11ByIndex
                0x00000000401795c0                IDMan_IPvSParamChk
                0x000000004017973e                IDMan_IPvSIdxParamChk
                0x00000000401797a1                IDMan_IPMkPublicKeyObj
                0x00000000401798e5                IDMan_IPCheckSignature
                0x0000000040179a9f                IDMan_verifySignature
                0x0000000040179c7c                IDMan_verifySignatureByIndex
                0x0000000040179e40                CardEstablishContext
                0x0000000040179e58                CardReleaseContext
                0x0000000040179e89                CardListReaders
                0x0000000040179ea1                CardConnect
                0x0000000040179edf                CardDisconnect
                0x0000000040179efc                CardStatus
                0x0000000040179f4d                CardTransmit
                0x0000000040179f89                SelectFileDF
                0x000000004017a07c                SelectFileEF
                0x000000004017a167                Verify
                0x000000004017a27b                InternalAuth
                0x000000004017a3bf                ReadBinary
                0x000000004017a9af                UpdateBinary
                0x000000004017aad9                GetICCardData
                0x000000004017aec0                GetUlByTxt
                0x000000004017aeff                GetVerByTex
                0x000000004017afe7                GetUlByByte
                0x000000004017b02c                TransHex2Tex
                0x000000004017b0bf                TransTex2Hex
                0x000000004017b176                GetLength
                0x000000004017b1e3                SetLength
                0x000000004017b248                GetTlvByBuf
                0x000000004017b5c5                GetDirDataByTlv
                0x000000004017b6ea                GetOdfDataByTlv
                0x000000004017b85d                GetTokenDataByTlv
                0x000000004017bcc3                AddObjTblByTlv
                0x000000004017c367                AddCertDataByBuf
                0x000000004017c46d                AddIdPassDataByBuf
                0x000000004017c80d                GetValueData
                0x000000004017cbb0                AddElem
                0x000000004017cc4e                SetElem
                0x000000004017cd15                GetElem
                0x000000004017cd51                GetAttrValType
                0x000000004017cec5                DestroyAttribute
                0x000000004017cf0f                DestroyTlvData
                0x000000004017cf24                DestroyElem
                0x000000004017cfaa                DestroyList
                0x000000004017cfe7                DestroySessionData
                0x000000004017d025                DestroyTokenData
                0x000000004017d085                DestroySlotData
                0x000000004017d0c1                DelElem
                0x000000004017d130                C_GetFunctionList
                0x000000004017d142                C_Initialize
                0x000000004017d2af                C_Finalize
                0x000000004017d34a                C_GetInfo
                0x000000004017d3d0                C_GetSlotList
                0x000000004017dcb4                C_GetSlotInfo
                0x000000004017dd9c                C_GetTokenInfo
                0x000000004017e5d3                C_GetMechanismList
                0x000000004017e6a4                C_GetMechanismInfo
                0x000000004017e760                C_OpenSession
                0x000000004017e91b                C_CloseSession
                0x000000004017e9f4                C_CloseAllSessions
                0x000000004017eb00                C_GetSessionInfo
                0x000000004017eb7c                C_Login
                0x000000004017efd3                C_Logout
                0x000000004017f0ea                C_FindObjectsInit
                0x000000004017f361                C_FindObjects
                0x000000004017f8ba                C_FindObjectsFinal
                0x000000004017f930                C_GetAttributeValue
                0x000000004017fc51                C_SignInit
                0x000000004017fd18                C_Sign
                0x000000004018009f                C_DigestInit
                0x000000004018011a                C_DigestUpdate
                0x00000000401801a2                C_DigestFinal
                0x00000000401802e9                C_VerifyInit
                0x00000000401803b0                C_Verify
                0x0000000040180522                C_CreateObject
                0x00000000401807cf                C_DestroyObject
                0x000000004018088f                C_SetAttributeValue
                0x0000000040181499                C_GetCardStatus
                0x0000000040181530                IDMan_StFree
                0x0000000040181540                IDMan_StMemcpy
                0x0000000040181564                IDMan_StMemset
                0x0000000040181582                IDMan_StMalloc
                0x00000000401815c9                IDMan_StMemcmp
                0x0000000040181622                IDMan_StStrlen
                0x000000004018163c                IDMan_StStrcat
                0x0000000040181679                IDMan_StStrchr
                0x00000000401816b6                IDMan_StStrcpy
                0x00000000401816dd                IDMan_StStrcmp
                0x0000000040181728                StIsspace
                0x00000000401817a5                StIsdigit
                0x00000000401817b7                IDMan_StAtoi
                0x0000000040181813                IDMan_StAtol
                0x000000004018187b                IDMan_CmMkHash
                0x0000000040181a36                IDMan_CmChgRSA
                0x0000000040181bff                IDMan_CmGetDN
                0x0000000040181ea6                IDMan_CmGetCertificateSign
                0x00000000401820d0                IDMan_CmGetPublicKey
                0x00000000401822ac                IDMan_CmMakeRand
                0x000000004018234a                IDMan_CmCheckCRL
                0x00000000401826d0                IDMan_SCardEstablishContext
                0x00000000401826ed                IDMan_SCardReleaseContext
                0x00000000401826f8                IDMan_SCardListReaders
                0x0000000040182728                IDMan_SCardConnect
                0x0000000040182758                IDMan_SCardDisconnect
                0x0000000040182763                IDMan_SCardStatus
                0x00000000401827e5                IDMan_SCardSizeLongToChar
                0x0000000040182826                IDMan_SCardSetBinay
                0x0000000040182bc5                IDMan_SCardTransmit
                0x0000000040182c30                EHDestroyEventHandler
                0x0000000040182c9d                EHInitEventHandler
                0x0000000040182d53                EHStatusHandler
                0x0000000040182ef0                HPSearchHotPluggables
                0x0000000040183240                PHGetProtocol
                0x000000004018361b                PHSetProtocol
                0x0000000040183684                RFAddReader
                0x000000004018379f                RFRemoveReader
                0x0000000040183859                RFReaderInfoById
                0x0000000040183889                RFCheckReaderEventState
                0x00000000401838c0                SCardEstablishContext
                0x00000000401839b0                SCardListReaders
                0x0000000040183a5d                SCardConnect
                0x0000000040183ce1                SCardDisconnect
                0x0000000040183e92                SCardBeginTransaction
                0x0000000040183ee6                SCardEndTransaction
                0x00000000401840ae                SCardStatus
                0x00000000401842b9                SCardReleaseContext
                0x000000004018437f                SCardTransmit
                0x00000000401845d0                SetATR
                0x000000004018483d                GetIFSCData
                0x0000000040184893                GetBWICWIData
                0x0000000040184931                IFDHCloseChannel
                0x00000000401849bd                IFDHGetCapabilities
                0x00000000401849fc                IFDHSetProtocolParameters
                0x00000000401850fb                IFDHPowerICC
                0x00000000401852fa                IFDHTransmitToICC
                0x00000000401855ba                IFDHControl
                0x00000000401856d3                IFDHICCPresence
                0x0000000040185788                IFDHCreateChannel
                0x000000004018583c                FindBaudRateTable
                0x000000004018587c                ExchangePPSData
                0x0000000040185f66                InitLeaderCardProtocol
                0x000000004018607f                T1XfrBlockTPDU
                0x00000000401866ec                T1NegociateIFSD
                0x0000000040186834                CardStateConfirm
                0x0000000040186869                GetCardStatus
                0x0000000040186960                PowerOn
                0x0000000040186b20                PowerOff
                0x0000000040186c88                CardMechanical
                0x0000000040186da0                TransmitPPS
                0x0000000040186f3a                TransmitCommand
                0x0000000040187007                ReceiveReply
                0x00000000401871cc                BlockSendCardT1
                0x0000000040187424                ReadDataT0
                0x00000000401874e9                T0XfrBlockCHAR
                0x0000000040187a6f                T0XfrBlockTPDU
                0x0000000040187af1                T1XfrBlockExtendedAPDU
                0x0000000040187e6b                OpenUSB
                0x0000000040188205                WriteUSB
                0x0000000040188236                ReadUSB
                0x0000000040188294                CloseUSB
                0x0000000040188304                AES_set_encrypt_key
                0x0000000040188710                AES_set_decrypt_key
                0x0000000040188936                AES_encrypt
                0x0000000040188def                AES_decrypt
                0x0000000040189290                BIO_set
                0x0000000040189365                BIO_new
                0x00000000401893de                BIO_free
                0x000000004018948d                BIO_vfree
                0x0000000040189498                BIO_clear_flags
                0x00000000401894a3                BIO_test_flags
                0x00000000401894ae                BIO_set_flags
                0x00000000401894b7                BIO_get_callback
                0x00000000401894c1                BIO_set_callback
                0x00000000401894cb                BIO_set_callback_arg
                0x00000000401894d5                BIO_get_callback_arg
                0x00000000401894df                BIO_method_name
                0x00000000401894ec                BIO_method_type
                0x00000000401894f7                BIO_read
                0x00000000401895f2                BIO_write
                0x00000000401896f6                BIO_puts
                0x00000000401897e8                BIO_gets
                0x00000000401898d8                BIO_indent
                0x000000004018991d                BIO_ctrl
                0x00000000401899f3                BIO_ptr_ctrl
                0x0000000040189a1e                BIO_int_ctrl
                0x0000000040189a34                BIO_callback_ctrl
                0x0000000040189b00                BIO_ctrl_pending
                0x0000000040189b1a                BIO_ctrl_wpending
                0x0000000040189b34                BIO_push
                0x0000000040189b82                BIO_pop
                0x0000000040189be7                BIO_get_retry_BIO
                0x0000000040189c36                BIO_get_retry_reason
                0x0000000040189c3f                BIO_find_type
                0x0000000040189c74                BIO_next
                0x0000000040189c8a                BIO_free_all
                0x0000000040189cb8                BIO_dup_chain
                0x0000000040189da7                BIO_copy_next_retry
                0x0000000040189dd4                BIO_get_ex_new_index
                0x0000000040189df3                BIO_set_ex_data
                0x0000000040189e02                BIO_get_ex_data
                0x0000000040189e11                BIO_number_read
                0x0000000040189e25                BIO_number_written
                0x0000000040189f8f                BN_set_params
                0x000000004018a022                BN_get_params
                0x000000004018a057                BN_value_one
                0x000000004018a062                BN_options
                0x000000004018a0a4                BN_num_bits_word
                0x000000004018a0ff                BN_num_bits
                0x000000004018a129                BN_clear_free
                0x000000004018a190                BN_free
                0x000000004018a1d9                BN_init
                0x000000004018a1ee                BN_new
                0x000000004018a261                bn_expand2
                0x000000004018a2b9                BN_copy
                0x000000004018a3a7                BN_dup
                0x000000004018a3fb                bn_dup_expand
                0x000000004018a47d                BN_swap
                0x000000004018a4e0                BN_clear
                0x000000004018a519                BN_get_word
                0x000000004018a53b                BN_set_word
                0x000000004018a59e                BN_bin2bn
                0x000000004018a6e1                BN_bn2bin
                0x000000004018a74f                BN_ucmp
                0x000000004018a79c                BN_cmp
                0x000000004018a850                BN_set_bit
                0x000000004018a915                BN_clear_bit
                0x000000004018a993                BN_is_bit_set
                0x000000004018a9d0                BN_mask_bits
                0x000000004018aa6c                BN_set_negative
                0x000000004018aa8c                bn_cmp_words
                0x000000004018aaee                bn_cmp_part_words
                0x000000004018ab80                BN_bn2hex
                0x000000004018ac66                BN_bn2dec
                0x000000004018ae75                BN_hex2bn
                0x000000004018b052                BN_dec2bn
                0x000000004018b203                BN_asc2bn
                0x000000004018b273                BN_print
                0x000000004018b757                BN_pseudo_rand
                0x000000004018b771                BN_rand
                0x000000004018b78b                BN_bntest_rand
                0x000000004018b7a5                BN_rand_range
                0x000000004018b7bb                BN_pseudo_rand_range
                0x000000004018b7e0                BN_mod_word
                0x000000004018b835                BN_div_word
                0x000000004018b91b                BN_sub_word
                0x000000004018ba1a                BN_add_word
                0x000000004018baed                BN_mul_word
                0x000000004018bfd4                BIO_s_mem
                0x000000004018bfdf                BIO_new_mem_buf
                0x000000004018c058                BUF_MEM_new
                0x000000004018c0bf                BUF_MEM_free
                0x000000004018c0ff                BUF_MEM_grow
                0x000000004018c1f9                BUF_MEM_grow_clean
                0x000000004018c30f                BUF_memdup
                0x000000004018c384                BUF_strlcpy
                0x000000004018c3e8                BUF_strndup
                0x000000004018c467                BUF_strdup
                0x000000004018c493                BUF_strlcat
                0x000000004018c4cd                BUF_reverse
                0x000000004018c524                OpenSSL_add_all_ciphers
                0x000000004018c9d0                OpenSSL_add_all_digests
                0x000000004018cb40                CRYPTO_get_new_lockid
                0x000000004018cbf8                CRYPTO_num_locks
                0x000000004018cc03                CRYPTO_get_dynlock_create_callback
                0x000000004018cc10                CRYPTO_get_dynlock_lock_callback
                0x000000004018cc1d                CRYPTO_get_dynlock_destroy_callback
                0x000000004018cc2a                CRYPTO_set_dynlock_create_callback
                0x000000004018cc37                CRYPTO_set_dynlock_lock_callback
                0x000000004018cc44                CRYPTO_set_dynlock_destroy_callback
                0x000000004018cc51                CRYPTO_get_locking_callback
                0x000000004018cc5e                CRYPTO_get_add_lock_callback
                0x000000004018cc6b                CRYPTO_set_locking_callback
                0x000000004018cc78                CRYPTO_set_add_lock_callback
                0x000000004018cc85                CRYPTO_THREADID_set_numeric
                0x000000004018ccb8                CRYPTO_THREADID_set_pointer
                0x000000004018ccee                CRYPTO_THREADID_set_callback
                0x000000004018cd0c                CRYPTO_THREADID_get_callback
                0x000000004018cd19                CRYPTO_THREADID_current
                0x000000004018cd63                CRYPTO_THREADID_cmp
                0x000000004018cd73                CRYPTO_THREADID_cpy
                0x000000004018cd83                CRYPTO_THREADID_hash
                0x000000004018cd8d                CRYPTO_get_id_callback
                0x000000004018cd9a                CRYPTO_set_id_callback
                0x000000004018cda7                CRYPTO_thread_id
                0x000000004018cdc0                CRYPTO_get_lock_name
                0x000000004018ce13                OPENSSL_ia32cap_loc
                0x000000004018ce1e                OPENSSL_cpuid_setup
                0x000000004018ce24                OPENSSL_showfatal
                0x000000004018ce6f                OPENSSL_isservice
                0x000000004018ce7a                OpenSSLDie
                0x000000004018ce9c                CRYPTO_lock
                0x000000004018cf33                CRYPTO_add_lock
                0x000000004018cfb7                CRYPTO_get_dynlock_value
                0x000000004018d056                CRYPTO_destroy_dynlockid
                0x000000004018d14e                CRYPTO_get_new_dynlockid
                0x000000004018d36a                OPENSSL_stderr
                0x000000004018d378                DES_encrypt1
                0x000000004018d786                DES_encrypt2
                0x000000004018da91                DES_encrypt3
                0x000000004018dbee                DES_decrypt3
                0x000000004018dd4e                DES_ncbc_encrypt
                0x000000004018e38b                DES_ede3_cbc_encrypt
                0x000000004018ede6                DH_generate_key
                0x000000004018edf6                DH_compute_key
                0x000000004018ee06                DH_OpenSSL
                0x000000004018ee14                DH_set_default_method
                0x000000004018ee21                DH_get_default_method
                0x000000004018ee44                DH_set_method
                0x000000004018ee91                DH_new_method
                0x000000004018efa7                DH_new
                0x000000004018efb7                DH_free
                0x000000004018f097                DH_up_ref
                0x000000004018f0c4                DH_get_ex_new_index
                0x000000004018f0e3                DH_set_ex_data
                0x000000004018f0f2                DH_get_ex_data
                0x000000004018f101                DH_size
                0x000000004018fe0a                EVP_aes_128_cbc
                0x000000004018fe15                EVP_aes_128_cfb128
                0x000000004018fe20                EVP_aes_128_ofb
                0x000000004018fe2b                EVP_aes_128_ecb
                0x000000004018fe36                EVP_aes_192_cbc
                0x000000004018fe41                EVP_aes_192_cfb128
                0x000000004018fe4c                EVP_aes_192_ofb
                0x000000004018fe57                EVP_aes_192_ecb
                0x000000004018fe62                EVP_aes_256_cbc
                0x000000004018fe6d                EVP_aes_256_cfb128
                0x000000004018fe78                EVP_aes_256_ofb
                0x000000004018fe83                EVP_aes_256_ecb
                0x000000004018fe8e                EVP_aes_128_cfb1
                0x000000004018fe99                EVP_aes_192_cfb1
                0x000000004018fea4                EVP_aes_256_cfb1
                0x000000004018feaf                EVP_aes_128_cfb8
                0x000000004018feba                EVP_aes_192_cfb8
                0x000000004018fec5                EVP_aes_256_cfb8
                0x00000000401901e6                EVP_bf_cbc
                0x00000000401901f1                EVP_bf_cfb64
                0x00000000401901fc                EVP_bf_ofb
                0x0000000040190207                EVP_bf_ecb
                0x000000004019052a                EVP_cast5_cbc
                0x0000000040190535                EVP_cast5_cfb64
                0x0000000040190540                EVP_cast5_ofb
                0x000000004019054b                EVP_cast5_ecb
                0x0000000040190b0b                EVP_des_cbc
                0x0000000040190b16                EVP_des_cfb64
                0x0000000040190b21                EVP_des_ofb
                0x0000000040190b2c                EVP_des_ecb
                0x0000000040190b37                EVP_des_cfb1
                0x0000000040190b42                EVP_des_cfb8
                0x0000000040191176                EVP_des_ede_cbc
                0x0000000040191181                EVP_des_ede_cfb64
                0x000000004019118c                EVP_des_ede_ofb
                0x0000000040191197                EVP_des_ede_ecb
                0x00000000401911a2                EVP_des_ede3_cbc
                0x00000000401911ad                EVP_des_ede3_cfb64
                0x00000000401911b8                EVP_des_ede3_ofb
                0x00000000401911c3                EVP_des_ede3_ecb
                0x00000000401911ce                EVP_des_ede3_cfb1
                0x00000000401911d9                EVP_des_ede3_cfb8
                0x00000000401911e4                EVP_des_ede
                0x00000000401911ef                EVP_des_ede3
                0x0000000040191577                EVP_idea_cbc
                0x0000000040191582                EVP_idea_cfb64
                0x000000004019158d                EVP_idea_ofb
                0x0000000040191598                EVP_idea_ecb
                0x0000000040191adf                EVP_rc2_cbc
                0x0000000040191aea                EVP_rc2_cfb64
                0x0000000040191af5                EVP_rc2_ofb
                0x0000000040191b00                EVP_rc2_ecb
                0x0000000040191b0b                EVP_rc2_64_cbc
                0x0000000040191b16                EVP_rc2_40_cbc
                0x0000000040191b79                EVP_rc4
                0x0000000040191b84                EVP_rc4_40
                0x0000000040191cfa                EVP_desx_cbc
                0x0000000040191d08                DES_ecb3_encrypt
                0x0000000040191dd8                DES_options
                0x0000000040191e2c                DES_ecb_encrypt
                0x00000000401925f4                ERR_get_implementation
                0x0000000040192606                ERR_set_implementation
                0x000000004019266f                ERR_load_ERR_strings
                0x00000000401927a1                ERR_load_strings
                0x00000000401927d1                ERR_unload_strings
                0x0000000040192823                ERR_free_strings
                0x0000000040192838                ERR_get_string_table
                0x0000000040192851                ERR_get_err_state_table
                0x000000004019286b                ERR_release_err_state_table
                0x0000000040192890                ERR_lib_error_string
                0x00000000401928d0                ERR_func_error_string
                0x0000000040192910                ERR_reason_error_string
                0x000000004019297f                ERR_error_string_n
                0x0000000040192af7                ERR_error_string
                0x0000000040192b26                ERR_remove_thread_state
                0x0000000040192b6b                ERR_remove_state
                0x0000000040192b7b                ERR_get_state
                0x0000000040192e73                ERR_peek_last_error_line_data
                0x0000000040192e94                ERR_peek_last_error_line
                0x0000000040192ebb                ERR_peek_last_error
                0x0000000040192ee6                ERR_peek_error_line_data
                0x0000000040192f07                ERR_peek_error_line
                0x0000000040192f2e                ERR_peek_error
                0x0000000040192f59                ERR_get_error_line_data
                0x0000000040192f7a                ERR_get_error_line
                0x0000000040192fa1                ERR_get_error
                0x0000000040192fcc                ERR_clear_error
                0x0000000040193087                ERR_put_error
                0x000000004019318f                ERR_get_next_error_library
                0x00000000401931a4                ERR_set_error_data
                0x0000000040193221                ERR_add_error_data
                0x000000004019335e                ERR_set_mark
                0x0000000040193389                ERR_pop_to_mark
                0x0000000040193460                ERR_load_crypto_strings
                0x00000000401934fc                ASN1_TYPE_set_octetstring
                0x0000000040193574                ASN1_TYPE_get_octetstring
                0x00000000401935d0                ASN1_TYPE_set_int_octetstring
                0x00000000401936fd                ASN1_TYPE_get_int_octetstring
                0x00000000401938f0                EVP_CIPHER_CTX_init
                0x0000000040193905                EVP_CIPHER_CTX_new
                0x000000004019393c                EVP_EncryptUpdate
                0x0000000040193ae8                EVP_EncryptFinal_ex
                0x0000000040193bbc                EVP_EncryptFinal
                0x0000000040193bc7                EVP_DecryptUpdate
                0x0000000040193cf6                EVP_CipherUpdate
                0x0000000040193d11                EVP_DecryptFinal_ex
                0x0000000040193eac                EVP_DecryptFinal
                0x0000000040193eb7                EVP_CipherFinal
                0x0000000040193ed7                EVP_CipherFinal_ex
                0x0000000040193ef7                EVP_CIPHER_CTX_cleanup
                0x0000000040193f62                EVP_CIPHER_CTX_free
                0x0000000040193f87                EVP_CIPHER_CTX_set_padding
                0x0000000040193fa8                EVP_CIPHER_CTX_ctrl
                0x0000000040194038                EVP_CIPHER_CTX_set_key_length
                0x0000000040194099                EVP_CipherInit_ex
                0x00000000401942ea                EVP_DecryptInit_ex
                0x00000000401942fb                EVP_EncryptInit_ex
                0x000000004019430c                EVP_CipherInit
                0x0000000040194370                EVP_DecryptInit
                0x0000000040194381                EVP_EncryptInit
                0x0000000040194392                EVP_CIPHER_CTX_rand_key
                0x00000000401943c8                EVP_CIPHER_CTX_copy
                0x00000000401944a8                ERR_load_EVP_strings
                0x00000000401944e0                EVP_CIPHER_param_to_asn1
                0x00000000401944fb                EVP_CIPHER_asn1_to_param
                0x0000000040194516                EVP_CIPHER_block_size
                0x000000004019451f                EVP_CIPHER_CTX_block_size
                0x000000004019452b                EVP_Cipher
                0x0000000040194539                EVP_CIPHER_CTX_cipher
                0x0000000040194542                EVP_CIPHER_flags
                0x000000004019454c                EVP_CIPHER_CTX_flags
                0x0000000040194559                EVP_CIPHER_CTX_get_app_data
                0x0000000040194563                EVP_CIPHER_CTX_set_app_data
                0x000000004019456d                EVP_CIPHER_iv_length
                0x0000000040194576                EVP_CIPHER_CTX_iv_length
                0x0000000040194582                EVP_CIPHER_set_asn1_iv
                0x00000000401945e4                EVP_CIPHER_get_asn1_iv
                0x000000004019467c                EVP_CIPHER_key_length
                0x0000000040194685                EVP_CIPHER_CTX_key_length
                0x000000004019468e                EVP_CIPHER_nid
                0x0000000040194696                EVP_CIPHER_type
                0x00000000401947d5                EVP_CIPHER_CTX_nid
                0x00000000401947e0                EVP_MD_block_size
                0x00000000401947e9                EVP_MD_type
                0x00000000401947f1                EVP_MD_pkey_type
                0x00000000401947fa                EVP_MD_size
                0x000000004019482c                EVP_MD_flags
                0x0000000040194836                EVP_MD_CTX_md
                0x000000004019484b                EVP_MD_CTX_set_flags
                0x0000000040194858                EVP_MD_CTX_clear_flags
                0x0000000040194867                EVP_MD_CTX_test_flags
                0x0000000040194872                EVP_CIPHER_CTX_set_flags
                0x000000004019487f                EVP_CIPHER_CTX_clear_flags
                0x000000004019488e                EVP_CIPHER_CTX_test_flags
                0x0000000040194ca9                CRYPTO_get_ex_data_implementation
                0x0000000040194cc5                CRYPTO_set_ex_data_implementation
                0x0000000040194d2e                CRYPTO_ex_data_new_class
                0x0000000040194d4c                CRYPTO_cleanup_all_ex_data
                0x0000000040194d6b                CRYPTO_get_ex_new_index
                0x0000000040194dda                CRYPTO_new_ex_data
                0x0000000040194e27                CRYPTO_dup_ex_data
                0x0000000040194e74                CRYPTO_free_ex_data
                0x0000000040194ec1                CRYPTO_set_ex_data
                0x0000000040194f7a                CRYPTO_get_ex_data
                0x0000000040195474                idea_encrypt
                0x0000000040195db8                idea_cbc_encrypt
                0x00000000401963e0                idea_cfb64_encrypt
                0x0000000040196600                idea_options
                0x000000004019660b                idea_ecb_encrypt
                0x00000000401966c4                idea_ofb64_encrypt
                0x00000000401968fd                idea_set_encrypt_key
                0x0000000040196a86                idea_set_decrypt_key
                0x0000000040196c7d                lh_strhash
                0x0000000040196cf0                lh_new
                0x0000000040196e51                lh_free
                0x0000000040196ebc                lh_insert
                0x0000000040197048                lh_delete
                0x0000000040197174                lh_retrieve
                0x00000000401971b7                lh_doall
                0x00000000401971d5                lh_doall_arg
                0x00000000401971f0                lh_num_items
                0x0000000040197237                EVP_dss
                0x0000000040197277                EVP_dss1
                0x00000000401972b7                EVP_ecdsa
                0x00000000401972f7                EVP_md4
                0x0000000040197337                EVP_md5
                0x0000000040197377                EVP_ripemd160
                0x00000000401973b7                EVP_sha
                0x000000004019747b                EVP_sha1
                0x0000000040197486                EVP_sha224
                0x0000000040197491                EVP_sha256
                0x000000004019749c                EVP_sha384
                0x00000000401974a7                EVP_sha512
                0x00000000401974b4                MD4_Init
                0x00000000401974f6                md4_block_data_order
                0x0000000040197ab9                MD4_Final
                0x0000000040197b86                MD4_Transform
                0x0000000040197b96                MD4_Update
                0x0000000040197cd8                MD5_Init
                0x0000000040197d1a                md5_block_data_order
                0x000000004019855a                MD5_Final
                0x0000000040198627                MD5_Transform
                0x0000000040198637                MD5_Update
                0x0000000040198778                MD5
                0x0000000040198814                CRYPTO_set_mem_functions
                0x0000000040198884                CRYPTO_set_mem_ex_functions
                0x00000000401988f4                CRYPTO_set_locked_mem_functions
                0x0000000040198934                CRYPTO_set_locked_mem_ex_functions
                0x0000000040198974                CRYPTO_set_mem_debug_functions
                0x00000000401989ad                CRYPTO_get_mem_functions
                0x0000000040198a02                CRYPTO_get_mem_ex_functions
                0x0000000040198a53                CRYPTO_get_locked_mem_functions
                0x0000000040198a88                CRYPTO_get_locked_mem_ex_functions
                0x0000000040198abb                CRYPTO_get_mem_debug_functions
                0x0000000040198b0c                CRYPTO_malloc_locked
                0x0000000040198bc8                CRYPTO_free_locked
                0x0000000040198c0f                CRYPTO_malloc
                0x0000000040198ccb                CRYPTO_strdup
                0x0000000040198d1a                CRYPTO_realloc
                0x0000000040198dd5                CRYPTO_realloc_clean
                0x0000000040198eb0                CRYPTO_free
                0x0000000040198ef7                CRYPTO_remalloc
                0x0000000040198f24                CRYPTO_set_mem_debug_options
                0x0000000040198f38                CRYPTO_get_mem_debug_options
                0x0000000040198f54                OPENSSL_cleanse
                0x00000000401993cc                CRYPTO_mem_ctrl
                0x0000000040199556                CRYPTO_is_mem_check_on
                0x00000000401995d2                CRYPTO_dbg_set_options
                0x00000000401995df                CRYPTO_dbg_get_options
                0x00000000401995ec                CRYPTO_push_info_
                0x00000000401996cb                CRYPTO_pop_info
                0x000000004019970d                CRYPTO_remove_all_info
                0x0000000040199750                CRYPTO_dbg_malloc
                0x00000000401998ef                CRYPTO_dbg_free
                0x0000000040199964                CRYPTO_dbg_realloc
                0x0000000040199a04                CRYPTO_mem_leaks
                0x0000000040199b23                CRYPTO_mem_leaks_cb
                0x0000000040199bfe                EVP_add_cipher
                0x0000000040199c4a                EVP_add_digest
                0x0000000040199ceb                EVP_get_cipherbyname
                0x0000000040199cfb                EVP_get_digestbyname
                0x0000000040199d0b                EVP_cleanup
                0x0000000040199d51                EVP_CIPHER_do_all
                0x0000000040199d76                EVP_CIPHER_do_all_sorted
                0x0000000040199d9b                EVP_MD_do_all
                0x0000000040199dc0                EVP_MD_do_all_sorted
                0x0000000040199ef4                OBJ_NAME_init
                0x0000000040199f41                OBJ_NAME_new_index
                0x000000004019a0a9                OBJ_NAME_get
                0x000000004019a14c                OBJ_NAME_add
                0x000000004019a233                OBJ_NAME_remove
                0x000000004019a2de                OBJ_NAME_do_all
                0x000000004019a308                OBJ_NAME_do_all_sorted
                0x000000004019a3ab                OBJ_NAME_cleanup
                0x000000004019a67a                check_defer
                0x000000004019a69b                OBJ_cleanup
                0x000000004019a70d                OBJ_new_nid
                0x000000004019a721                OBJ_add_object
                0x000000004019a8d3                OBJ_nid2obj
                0x000000004019a98f                OBJ_nid2sn
                0x000000004019aa4e                OBJ_nid2ln
                0x000000004019ab0e                OBJ_bsearch_ex_
                0x000000004019ac07                OBJ_bsearch_
                0x000000004019ac18                OBJ_sn2nid
                0x000000004019ac94                OBJ_ln2nid
                0x000000004019ad10                OBJ_txt2obj
                0x000000004019ae18                OBJ_obj2nid
                0x000000004019aea0                OBJ_txt2nid
                0x000000004019aedd                OBJ_obj2txt
                0x000000004019b230                OBJ_create
                0x000000004019b335                OBJ_create_objects
                0x000000004019b488                ERR_load_OBJ_strings
                0x000000004019b4c0                OBJ_dup
                0x000000004019b69a                OBJ_cmp
                0x000000004019b6b8                ERR_load_OCSP_strings
                0x000000004019b6f0                DES_ede3_ofb64_encrypt
                0x000000004019b8c0                DES_ofb64_encrypt
                0x000000004019bbe1                EVP_PKEY_bits
                0x000000004019bc05                EVP_PKEY_size
                0x000000004019bc29                EVP_PKEY_save_parameters
                0x000000004019bc5b                EVP_PKEY_missing_parameters
                0x000000004019bc7a                EVP_PKEY_copy_parameters
                0x000000004019bd1a                EVP_PKEY_cmp_parameters
                0x000000004019bd50                EVP_PKEY_cmp
                0x000000004019bdab                EVP_PKEY_new
                0x000000004019be36                EVP_PKEY_set_type
                0x000000004019be4b                EVP_PKEY_set_type_str
                0x000000004019be60                EVP_PKEY_assign
                0x000000004019be9d                EVP_PKEY_get0
                0x000000004019bea7                EVP_PKEY_set1_RSA
                0x000000004019bee1                EVP_PKEY_get1_RSA
                0x000000004019bf2c                EVP_PKEY_set1_DSA
                0x000000004019bf66                EVP_PKEY_get1_DSA
                0x000000004019bfb1                EVP_PKEY_set1_EC_KEY
                0x000000004019bfeb                EVP_PKEY_get1_EC_KEY
                0x000000004019c039                EVP_PKEY_set1_DH
                0x000000004019c073                EVP_PKEY_get1_DH
                0x000000004019c0be                EVP_PKEY_type
                0x000000004019c0e1                EVP_PKEY_id
                0x000000004019c0e9                EVP_PKEY_base_id
                0x000000004019c0f6                EVP_PKEY_free
                0x000000004019c153                EVP_PKEY_print_public
                0x000000004019c179                EVP_PKEY_print_private
                0x000000004019c1a1                EVP_PKEY_print_params
                0x000000004019c1ca                EVP_PKEY_get_default_digest_nid
                0x000000004019c204                PEM_read_bio_X509_REQ
                0x000000004019c225                PEM_write_bio_X509_REQ
                0x000000004019c269                PEM_write_bio_X509_REQ_NEW
                0x000000004019c2ad                PEM_read_bio_X509_CRL
                0x000000004019c2ce                PEM_write_bio_X509_CRL
                0x000000004019c312                PEM_read_bio_PKCS7
                0x000000004019c333                PEM_write_bio_PKCS7
                0x000000004019c377                PEM_read_bio_NETSCAPE_CERT_SEQUENCE
                0x000000004019c398                PEM_write_bio_NETSCAPE_CERT_SEQUENCE
                0x000000004019c3dc                PEM_read_bio_RSAPrivateKey
                0x000000004019c445                PEM_write_bio_RSAPrivateKey
                0x000000004019c47c                PEM_read_bio_RSAPublicKey
                0x000000004019c49d                PEM_write_bio_RSAPublicKey
                0x000000004019c4e1                PEM_read_bio_RSA_PUBKEY
                0x000000004019c502                PEM_write_bio_RSA_PUBKEY
                0x000000004019c546                PEM_read_bio_DSAPrivateKey
                0x000000004019c5af                PEM_write_bio_DSAPrivateKey
                0x000000004019c5e6                PEM_read_bio_DSA_PUBKEY
                0x000000004019c607                PEM_write_bio_DSA_PUBKEY
                0x000000004019c64b                PEM_read_bio_DSAparams
                0x000000004019c66c                PEM_write_bio_DSAparams
                0x000000004019c6b0                PEM_read_bio_ECPrivateKey
                0x000000004019c719                PEM_read_bio_ECPKParameters
                0x000000004019c73a                PEM_write_bio_ECPKParameters
                0x000000004019c77e                PEM_write_bio_ECPrivateKey
                0x000000004019c7b5                PEM_read_bio_EC_PUBKEY
                0x000000004019c7d6                PEM_write_bio_EC_PUBKEY
                0x000000004019c81a                PEM_read_bio_DHparams
                0x000000004019c83b                PEM_write_bio_DHparams
                0x000000004019c87f                PEM_read_bio_PUBKEY
                0x000000004019c8a0                PEM_write_bio_PUBKEY
                0x000000004019c8e4                ERR_load_PEM_strings
                0x000000004019c920                PEM_def_callback
                0x000000004019c94a                PEM_proc_type
                0x000000004019c9b2                PEM_dek_info
                0x000000004019ca71                PEM_do_header
                0x000000004019cc4a                PEM_get_EVP_CIPHER_INFO
                0x000000004019cee9                PEM_write_bio
                0x000000004019d1b8                PEM_ASN1_write_bio
                0x000000004019d5d3                PEM_read_bio
                0x000000004019dcbc                pem_check_suffix
                0x000000004019dd31                PEM_bytes_read_bio
                0x000000004019e07c                PEM_ASN1_read_bio
                0x000000004019e128                PEM_read_bio_PrivateKey
                0x000000004019e384                PEM_write_bio_PrivateKey
                0x000000004019e450                PEM_read_bio_Parameters
                0x000000004019e572                PEM_write_bio_Parameters
                0x000000004019e5f4                PEM_read_bio_X509
                0x000000004019e615                PEM_write_bio_X509
                0x000000004019e65c                ERR_load_PKCS12_strings
                0x000000004019e76a                d2i_PKCS7
                0x000000004019e77a                i2d_PKCS7
                0x000000004019e78a                PKCS7_new
                0x000000004019e79a                PKCS7_free
                0x000000004019e7aa                i2d_PKCS7_NDEF
                0x000000004019e7ba                PKCS7_dup
                0x000000004019e7cd                d2i_PKCS7_SIGNED
                0x000000004019e7dd                i2d_PKCS7_SIGNED
                0x000000004019e7ed                PKCS7_SIGNED_new
                0x000000004019e7fd                PKCS7_SIGNED_free
                0x000000004019e80d                d2i_PKCS7_SIGNER_INFO
                0x000000004019e81d                i2d_PKCS7_SIGNER_INFO
                0x000000004019e82d                PKCS7_SIGNER_INFO_new
                0x000000004019e83d                PKCS7_SIGNER_INFO_free
                0x000000004019e84d                d2i_PKCS7_ISSUER_AND_SERIAL
                0x000000004019e85d                i2d_PKCS7_ISSUER_AND_SERIAL
                0x000000004019e86d                PKCS7_ISSUER_AND_SERIAL_new
                0x000000004019e87d                PKCS7_ISSUER_AND_SERIAL_free
                0x000000004019e88d                d2i_PKCS7_ENVELOPE
                0x000000004019e89d                i2d_PKCS7_ENVELOPE
                0x000000004019e8ad                PKCS7_ENVELOPE_new
                0x000000004019e8bd                PKCS7_ENVELOPE_free
                0x000000004019e8cd                d2i_PKCS7_RECIP_INFO
                0x000000004019e8dd                i2d_PKCS7_RECIP_INFO
                0x000000004019e8ed                PKCS7_RECIP_INFO_new
                0x000000004019e8fd                PKCS7_RECIP_INFO_free
                0x000000004019e90d                d2i_PKCS7_ENC_CONTENT
                0x000000004019e91d                i2d_PKCS7_ENC_CONTENT
                0x000000004019e92d                PKCS7_ENC_CONTENT_new
                0x000000004019e93d                PKCS7_ENC_CONTENT_free
                0x000000004019e94d                d2i_PKCS7_SIGN_ENVELOPE
                0x000000004019e95d                i2d_PKCS7_SIGN_ENVELOPE
                0x000000004019e96d                PKCS7_SIGN_ENVELOPE_new
                0x000000004019e97d                PKCS7_SIGN_ENVELOPE_free
                0x000000004019e98d                d2i_PKCS7_ENCRYPT
                0x000000004019e99d                i2d_PKCS7_ENCRYPT
                0x000000004019e9ad                PKCS7_ENCRYPT_new
                0x000000004019e9bd                PKCS7_ENCRYPT_free
                0x000000004019e9cd                d2i_PKCS7_DIGEST
                0x000000004019e9dd                i2d_PKCS7_DIGEST
                0x000000004019e9ed                PKCS7_DIGEST_new
                0x000000004019e9fd                PKCS7_DIGEST_free
                0x000000004019ea0d                PKCS7_print_ctx
                0x000000004019ef89                PKCS7_dataInit
                0x000000004019f65e                PKCS7_dataDecode
                0x000000004019fd05                PKCS7_SIGNER_INFO_sign
                0x000000004019fece                PKCS7_get_issuer_and_serial
                0x000000004019ff3d                PKCS7_get_signed_attribute
                0x000000004019ff4c                PKCS7_dataFinal
                0x00000000401a04fe                PKCS7_get_attribute
                0x00000000401a050d                PKCS7_digest_from_attributes
                0x00000000401a052d                PKCS7_signatureVerify
                0x00000000401a0834                PKCS7_dataVerify
                0x00000000401a09b2                PKCS7_set_signed_attributes
                0x00000000401a0a45                PKCS7_set_attributes
                0x00000000401a0ad8                PKCS7_add_signed_attribute
                0x00000000401a0ae7                PKCS7_add_attribute
                0x00000000401a0b00                PKCS7_ctrl
                0x00000000401a0c3c                PKCS7_set_content
                0x00000000401a0ccd                PKCS7_set_type
                0x00000000401a0ede                PKCS7_content_new
                0x00000000401a0f4a                PKCS7_set0_type_other
                0x00000000401a0f7e                PKCS7_add_signer
                0x00000000401a10db                PKCS7_add_certificate
                0x00000000401a11bc                PKCS7_add_crl
                0x00000000401a129c                PKCS7_SIGNER_INFO_set
                0x00000000401a140c                PKCS7_add_signature
                0x00000000401a14e0                PKCS7_set_digest
                0x00000000401a15ac                PKCS7_get_signer_info
                0x00000000401a15f5                PKCS7_SIGNER_INFO_get0_algs
                0x00000000401a161f                PKCS7_RECIP_INFO_get0_alg
                0x00000000401a1631                PKCS7_add_recipient_info
                0x00000000401a16a0                PKCS7_RECIP_INFO_set
                0x00000000401a182b                PKCS7_add_recipient
                0x00000000401a1890                PKCS7_cert_from_signer_info
                0x00000000401a18e2                PKCS7_set_cipher
                0x00000000401a197c                PKCS7_stream
                0x00000000401a1a48                ERR_load_PKCS7_strings
                0x00000000401a1a80                ERR_load_RAND_strings
                0x00000000401a1ab8                DES_random_key
                0x00000000401a1b00                RAND_set_rand_method
                0x00000000401a1b12                RAND_get_rand_method
                0x00000000401a1b35                RAND_cleanup
                0x00000000401a1b5a                RAND_seed
                0x00000000401a1b92                RAND_add
                0x00000000401a1bdb                RAND_bytes
                0x00000000401a1c22                RAND_pseudo_bytes
                0x00000000401a1c69                RAND_status
                0x00000000401a1c8c                RC2_encrypt
                0x00000000401a1dea                RC2_decrypt
                0x00000000401a1f50                RC2_cbc_encrypt
                0x00000000401a2578                RC2_ecb_encrypt
                0x00000000401a2640                RC2_set_key
                0x00000000401a2770                RC2_cfb64_encrypt
                0x00000000401a2984                RC2_ofb64_encrypt
                0x00000000401a2b38                RC4
                0x00000000401a2fd4                RC4_options
                0x00000000401a2fdf                RC4_set_key
                0x00000000401a30e4                RIPEMD160_Init
                0x00000000401a312d                ripemd160_block_data_order
                0x00000000401a4782                RIPEMD160_Final
                0x00000000401a4857                RIPEMD160_Transform
                0x00000000401a4867                RIPEMD160_Update
                0x00000000401a49f2                d2i_RSAPrivateKey
                0x00000000401a4a02                i2d_RSAPrivateKey
                0x00000000401a4a12                d2i_RSAPublicKey
                0x00000000401a4a22                i2d_RSAPublicKey
                0x00000000401a4a32                RSAPublicKey_dup
                0x00000000401a4a45                RSAPrivateKey_dup
                0x00000000401a4a60                RSA_generate_key
                0x00000000401a4b20                ERR_load_RSA_strings
                0x00000000401a4b60                RSA_generate_key_ex
                0x00000000401a5130                RSA_set_default_method
                0x00000000401a513d                RSA_get_default_method
                0x00000000401a5160                RSA_get_method
                0x00000000401a516a                RSA_set_method
                0x00000000401a51b1                RSA_new_method
                0x00000000401a52fd                RSA_new
                0x00000000401a530d                RSA_free
                0x00000000401a541d                RSA_up_ref
                0x00000000401a544a                RSA_get_ex_new_index
                0x00000000401a5469                RSA_set_ex_data
                0x00000000401a5478                RSA_get_ex_data
                0x00000000401a5487                RSA_size
                0x00000000401a54a2                RSA_public_encrypt
                0x00000000401a54af                RSA_private_encrypt
                0x00000000401a54bc                RSA_private_decrypt
                0x00000000401a54c9                RSA_public_decrypt
                0x00000000401a54d6                RSA_flags
                0x00000000401a54ed                RSA_blinding_off
                0x00000000401a5527                RSA_setup_blinding
                0x00000000401a57d0                RSA_blinding_on
                0x00000000401a582e                RSA_memory_lock
                0x00000000401a5980                RSA_sign
                0x00000000401a5be5                int_rsa_verify
                0x00000000401a5f7f                RSA_verify
                0x00000000401a5fc0                DES_set_odd_parity
                0x00000000401a5fe3                DES_check_key_parity
                0x00000000401a6024                DES_is_weak_key
                0x00000000401a6073                DES_set_key_unchecked
                0x00000000401a6317                DES_set_key_checked
                0x00000000401a6368                DES_set_key
                0x00000000401a638c                DES_key_sched
                0x00000000401a6398                SHA1
                0x00000000401a754b                SHA1_Update
                0x00000000401a768a                SHA1_Transform
                0x00000000401a769a                SHA1_Final
                0x00000000401a777d                SHA1_Init
                0x00000000401a8fe0                SHA224_Init
                0x00000000401a9045                SHA256_Init
                0x00000000401a90aa                SHA256_Update
                0x00000000401a91e9                SHA224_Update
                0x00000000401a91f4                SHA256_Transform
                0x00000000401a9204                SHA256_Final
                0x00000000401a932e                SHA224_Final
                0x00000000401a9339                SHA256
                0x00000000401a93b4                SHA224
                0x00000000401aac25                SHA384_Init
                0x00000000401aacc3                SHA512_Init
                0x00000000401aad61                SHA512_Final
                0x00000000401aafc6                SHA384_Final
                0x00000000401aafd1                SHA512_Update
                0x00000000401ab0e1                SHA384_Update
                0x00000000401ab0ec                SHA512_Transform
                0x00000000401ab0fc                SHA384
                0x00000000401ab177                SHA512
                0x00000000401ac1c7                SHA_Update
                0x00000000401ac306                SHA_Transform
                0x00000000401ac316                SHA_Final
                0x00000000401ac3f9                SHA_Init
                0x00000000401ac450                sk_set_cmp_func
                0x00000000401ac46a                sk_new
                0x00000000401ac507                sk_new_null
                0x00000000401ac517                sk_insert
                0x00000000401ac5d2                sk_delete
                0x00000000401ac62e                sk_delete_ptr
                0x00000000401ac674                sk_push
                0x00000000401ac681                sk_unshift
                0x00000000401ac691                sk_shift
                0x00000000401ac6b7                sk_pop
                0x00000000401ac6dc                sk_zero
                0x00000000401ac711                sk_free
                0x00000000401ac73f                sk_pop_free
                0x00000000401ac791                sk_dup
                0x00000000401ac817                sk_num
                0x00000000401ac82b                sk_value
                0x00000000401ac85a                sk_set
                0x00000000401ac88e                sk_sort
                0x00000000401ac96c                sk_find_ex
                0x00000000401ac97c                sk_find
                0x00000000401ac98c                sk_is_sorted
                0x00000000401ace32                ASN1_tag2bit
                0x00000000401ace4d                asn1_ex_c2i
                0x00000000401ad69d                ASN1_item_ex_d2i
                0x00000000401ae57a                ASN1_template_d2i
                0x00000000401ae597                ASN1_item_d2i
                0x00000000401ae641                asn1_ex_i2c
                0x00000000401ae90a                ASN1_item_ex_i2d
                0x00000000401af169                ASN1_template_i2d
                0x00000000401af245                ASN1_item_i2d
                0x00000000401af255                ASN1_item_ndef_i2d
                0x00000000401af270                ASN1_primitive_free
                0x00000000401af596                ASN1_template_free
                0x00000000401af61a                ASN1_item_ex_free
                0x00000000401af62a                ASN1_item_free
                0x00000000401af712                ASN1_primitive_new
                0x00000000401afb3c                ASN1_template_new
                0x00000000401afbc9                ASN1_item_ex_new
                0x00000000401afbd9                ASN1_item_new
                0x00000000401afc08                d2i_ASN1_INTEGER
                0x00000000401afc18                i2d_ASN1_INTEGER
                0x00000000401afc28                ASN1_INTEGER_new
                0x00000000401afc38                ASN1_INTEGER_free
                0x00000000401afc48                d2i_ASN1_ENUMERATED
                0x00000000401afc58                i2d_ASN1_ENUMERATED
                0x00000000401afc68                ASN1_ENUMERATED_new
                0x00000000401afc78                ASN1_ENUMERATED_free
                0x00000000401afc88                d2i_ASN1_BIT_STRING
                0x00000000401afc98                i2d_ASN1_BIT_STRING
                0x00000000401afca8                ASN1_BIT_STRING_new
                0x00000000401afcb8                ASN1_BIT_STRING_free
                0x00000000401afcc8                d2i_ASN1_OCTET_STRING
                0x00000000401afcd8                i2d_ASN1_OCTET_STRING
                0x00000000401afce8                ASN1_OCTET_STRING_new
                0x00000000401afcf8                ASN1_OCTET_STRING_free
                0x00000000401afd08                d2i_ASN1_NULL
                0x00000000401afd18                i2d_ASN1_NULL
                0x00000000401afd28                ASN1_NULL_new
                0x00000000401afd38                ASN1_NULL_free
                0x00000000401afd48                d2i_ASN1_UTF8STRING
                0x00000000401afd58                i2d_ASN1_UTF8STRING
                0x00000000401afd68                ASN1_UTF8STRING_new
                0x00000000401afd78                ASN1_UTF8STRING_free
                0x00000000401afd88                d2i_ASN1_PRINTABLESTRING
                0x00000000401afd98                i2d_ASN1_PRINTABLESTRING
                0x00000000401afda8                ASN1_PRINTABLESTRING_new
                0x00000000401afdb8                ASN1_PRINTABLESTRING_free
                0x00000000401afdc8                d2i_ASN1_T61STRING
                0x00000000401afdd8                i2d_ASN1_T61STRING
                0x00000000401afde8                ASN1_T61STRING_new
                0x00000000401afdf8                ASN1_T61STRING_free
                0x00000000401afe08                d2i_ASN1_IA5STRING
                0x00000000401afe18                i2d_ASN1_IA5STRING
                0x00000000401afe28                ASN1_IA5STRING_new
                0x00000000401afe38                ASN1_IA5STRING_free
                0x00000000401afe48                d2i_ASN1_GENERALSTRING
                0x00000000401afe58                i2d_ASN1_GENERALSTRING
                0x00000000401afe68                ASN1_GENERALSTRING_new
                0x00000000401afe78                ASN1_GENERALSTRING_free
                0x00000000401afe88                d2i_ASN1_UTCTIME
                0x00000000401afe98                i2d_ASN1_UTCTIME
                0x00000000401afea8                ASN1_UTCTIME_new
                0x00000000401afeb8                ASN1_UTCTIME_free
                0x00000000401afec8                d2i_ASN1_GENERALIZEDTIME
                0x00000000401afed8                i2d_ASN1_GENERALIZEDTIME
                0x00000000401afee8                ASN1_GENERALIZEDTIME_new
                0x00000000401afef8                ASN1_GENERALIZEDTIME_free
                0x00000000401aff08                d2i_ASN1_VISIBLESTRING
                0x00000000401aff18                i2d_ASN1_VISIBLESTRING
                0x00000000401aff28                ASN1_VISIBLESTRING_new
                0x00000000401aff38                ASN1_VISIBLESTRING_free
                0x00000000401aff48                d2i_ASN1_UNIVERSALSTRING
                0x00000000401aff58                i2d_ASN1_UNIVERSALSTRING
                0x00000000401aff68                ASN1_UNIVERSALSTRING_new
                0x00000000401aff78                ASN1_UNIVERSALSTRING_free
                0x00000000401aff88                d2i_ASN1_BMPSTRING
                0x00000000401aff98                i2d_ASN1_BMPSTRING
                0x00000000401affa8                ASN1_BMPSTRING_new
                0x00000000401affb8                ASN1_BMPSTRING_free
                0x00000000401affc8                d2i_ASN1_TYPE
                0x00000000401affd8                i2d_ASN1_TYPE
                0x00000000401affe8                ASN1_TYPE_new
                0x00000000401afff8                ASN1_TYPE_free
                0x00000000401b0008                d2i_ASN1_PRINTABLE
                0x00000000401b0018                i2d_ASN1_PRINTABLE
                0x00000000401b0028                ASN1_PRINTABLE_new
                0x00000000401b0038                ASN1_PRINTABLE_free
                0x00000000401b0048                d2i_DISPLAYTEXT
                0x00000000401b0058                i2d_DISPLAYTEXT
                0x00000000401b0068                DISPLAYTEXT_new
                0x00000000401b0078                DISPLAYTEXT_free
                0x00000000401b0088                d2i_DIRECTORYSTRING
                0x00000000401b0098                i2d_DIRECTORYSTRING
                0x00000000401b00a8                DIRECTORYSTRING_new
                0x00000000401b00b8                DIRECTORYSTRING_free
                0x00000000401b00c8                d2i_ASN1_SEQUENCE_ANY
                0x00000000401b00d8                i2d_ASN1_SEQUENCE_ANY
                0x00000000401b00e8                d2i_ASN1_SET_ANY
                0x00000000401b00f8                i2d_ASN1_SET_ANY
                0x00000000401b0153                asn1_get_choice_selector
                0x00000000401b0163                asn1_set_choice_selector
                0x00000000401b0177                asn1_do_lock
                0x00000000401b01d1                asn1_enc_init
                0x00000000401b01f7                asn1_enc_free
                0x00000000401b0237                asn1_enc_save
                0x00000000401b02c1                asn1_enc_restore
                0x00000000401b033b                asn1_get_field_ptr
                0x00000000401b0353                asn1_do_adb
                0x00000000401b0410                ERR_load_UI_strings
                0x00000000401b0448                ERR_load_X509V3_strings
                0x00000000401b0480                X509_issuer_and_serial_hash
                0x00000000401b054f                X509_CRL_match
                0x00000000401b0567                X509_get_issuer_name
                0x00000000401b0574                X509_get_subject_name
                0x00000000401b0581                X509_get_serialNumber
                0x00000000401b058e                X509_cmp
                0x00000000401b05e8                X509_NAME_cmp
                0x00000000401b0661                X509_CRL_cmp
                0x00000000401b067a                X509_subject_name_cmp
                0x00000000401b0693                X509_issuer_name_cmp
                0x00000000401b06ac                X509_issuer_and_serial_cmp
                0x00000000401b06ec                X509_NAME_hash
                0x00000000401b0752                X509_subject_name_hash
                0x00000000401b0764                X509_issuer_name_hash
                0x00000000401b0776                X509_NAME_hash_old
                0x00000000401b07df                X509_subject_name_hash_old
                0x00000000401b07f1                X509_issuer_name_hash_old
                0x00000000401b0803                X509_find_by_issuer_and_serial
                0x00000000401b0886                X509_find_by_subject
                0x00000000401b08e3                X509_get_pubkey
                0x00000000401b090b                X509_get0_pubkey_bitstr
                0x00000000401b0928                X509_check_private_key
                0x00000000401b09e4                ERR_load_X509_strings
                0x00000000401b0a1c                X509_NAME_oneline
                0x00000000401b125a                X509_time_adj_ex
                0x00000000401b12a7                X509_time_adj
                0x00000000401b12bd                X509_gmtime_adj
                0x00000000401b12cd                X509_cmp_time
                0x00000000401b2392                X509_cmp_current_time
                0x00000000401b23a2                X509_get_pubkey_parameters
                0x00000000401b24ce                X509_verify_cert
                0x00000000401b2e61                X509_STORE_CTX_get_ex_new_index
                0x00000000401b2e80                X509_STORE_CTX_set_ex_data
                0x00000000401b2e92                X509_STORE_CTX_get_ex_data
                0x00000000401b2ea4                X509_STORE_CTX_get_error
                0x00000000401b2eb0                X509_STORE_CTX_set_error
                0x00000000401b2ebc                X509_STORE_CTX_get_error_depth
                0x00000000401b2ec8                X509_STORE_CTX_get_current_cert
                0x00000000401b2ed5                X509_STORE_CTX_get_chain
                0x00000000401b2ee2                X509_STORE_CTX_get1_chain
                0x00000000401b2f4e                X509_STORE_CTX_get0_current_issuer
                0x00000000401b2f5b                X509_STORE_CTX_get0_current_crl
                0x00000000401b2f68                X509_STORE_CTX_get0_parent_ctx
                0x00000000401b2f75                X509_STORE_CTX_set_cert
                0x00000000401b2f7f                X509_STORE_CTX_set_chain
                0x00000000401b2f89                X509_STORE_CTX_set0_crls
                0x00000000401b2f93                X509_STORE_CTX_purpose_inherit
                0x00000000401b30c0                X509_STORE_CTX_set_trust
                0x00000000401b30d7                X509_STORE_CTX_set_purpose
                0x00000000401b30ee                X509_STORE_CTX_new
                0x00000000401b3150                X509_STORE_CTX_init
                0x00000000401b34af                X509_STORE_CTX_trusted_stack
                0x00000000401b34c1                X509_STORE_CTX_cleanup
                0x00000000401b3564                X509_STORE_CTX_free
                0x00000000401b3584                X509_STORE_CTX_set_depth
                0x00000000401b3593                X509_STORE_CTX_set_flags
                0x00000000401b35a2                X509_STORE_CTX_set_time
                0x00000000401b35b3                X509_STORE_CTX_set_verify_cb
                0x00000000401b35bd                X509_STORE_CTX_get0_policy_tree
                0x00000000401b35ca                X509_STORE_CTX_get_explicit_policy
                0x00000000401b35d6                X509_STORE_CTX_set_default
                0x00000000401b3607                X509_STORE_CTX_get0_param
                0x00000000401b3611                X509_STORE_CTX_set0_param
                0x00000000401b3a07                X509_VERIFY_PARAM_free
                0x00000000401b3a27                X509_VERIFY_PARAM_new
                0x00000000401b3a6b                X509_VERIFY_PARAM_set1_name
                0x00000000401b3aac                X509_VERIFY_PARAM_set_flags
                0x00000000401b3ad0                X509_VERIFY_PARAM_clear_flags
                0x00000000401b3ae2                X509_VERIFY_PARAM_get_flags
                0x00000000401b3aec                X509_VERIFY_PARAM_set_purpose
                0x00000000401b3afb                X509_VERIFY_PARAM_set_trust
                0x00000000401b3b0a                X509_VERIFY_PARAM_set_depth
                0x00000000401b3b13                X509_VERIFY_PARAM_set_time
                0x00000000401b3b21                X509_VERIFY_PARAM_add0_policy
                0x00000000401b3b72                X509_VERIFY_PARAM_set1_policies
                0x00000000401b3c39                X509_VERIFY_PARAM_inherit
                0x00000000401b3d4f                X509_VERIFY_PARAM_set1
                0x00000000401b3d84                X509_VERIFY_PARAM_get_depth
                0x00000000401b3d8d                X509_VERIFY_PARAM_add0_table
                0x00000000401b3e14                X509_VERIFY_PARAM_lookup
                0x00000000401b3e6a                X509_VERIFY_PARAM_table_cleanup
                0x00000000401b3e94                d2i_X509_ALGOR
                0x00000000401b3ea4                i2d_X509_ALGOR
                0x00000000401b3eb4                X509_ALGOR_new
                0x00000000401b3ec4                X509_ALGOR_free
                0x00000000401b3ed4                d2i_X509_ALGORS
                0x00000000401b3ee4                i2d_X509_ALGORS
                0x00000000401b3ef4                X509_ALGOR_dup
                0x00000000401b3f07                X509_ALGOR_set0
                0x00000000401b3fb9                X509_ALGOR_get0
                0x00000000401b3ff4                X509_verify
                0x00000000401b4015                X509_REQ_verify
                0x00000000401b4036                NETSCAPE_SPKI_verify
                0x00000000401b4057                X509_sign
                0x00000000401b4091                X509_REQ_sign
                0x00000000401b40bf                X509_CRL_sign
                0x00000000401b40f9                NETSCAPE_SPKI_sign
                0x00000000401b4127                d2i_X509_bio
                0x00000000401b413d                i2d_X509_bio
                0x00000000401b4153                d2i_X509_CRL_bio
                0x00000000401b4169                i2d_X509_CRL_bio
                0x00000000401b417f                d2i_PKCS7_bio
                0x00000000401b4195                i2d_PKCS7_bio
                0x00000000401b41ab                d2i_X509_REQ_bio
                0x00000000401b41c1                i2d_X509_REQ_bio
                0x00000000401b41d7                d2i_RSAPrivateKey_bio
                0x00000000401b41ed                i2d_RSAPrivateKey_bio
                0x00000000401b4203                d2i_RSAPublicKey_bio
                0x00000000401b4219                d2i_RSA_PUBKEY_bio
                0x00000000401b4234                i2d_RSAPublicKey_bio
                0x00000000401b424a                i2d_RSA_PUBKEY_bio
                0x00000000401b4260                d2i_DSAPrivateKey_bio
                0x00000000401b427b                i2d_DSAPrivateKey_bio
                0x00000000401b4291                d2i_DSA_PUBKEY_bio
                0x00000000401b42ac                i2d_DSA_PUBKEY_bio
                0x00000000401b42c2                d2i_EC_PUBKEY_bio
                0x00000000401b42dd                i2d_EC_PUBKEY_bio
                0x00000000401b42f3                d2i_ECPrivateKey_bio
                0x00000000401b430e                i2d_ECPrivateKey_bio
                0x00000000401b4324                X509_pubkey_digest
                0x00000000401b437c                X509_digest
                0x00000000401b4395                X509_CRL_digest
                0x00000000401b43ae                X509_REQ_digest
                0x00000000401b43c7                X509_NAME_digest
                0x00000000401b43e0                PKCS7_ISSUER_AND_SERIAL_digest
                0x00000000401b43f9                d2i_PKCS8_bio
                0x00000000401b4414                i2d_PKCS8_bio
                0x00000000401b442a                d2i_PKCS8_PRIV_KEY_INFO_bio
                0x00000000401b4445                i2d_PKCS8_PRIV_KEY_INFO_bio
                0x00000000401b445b                i2d_PKCS8PrivateKeyInfo_bio
                0x00000000401b44af                i2d_PrivateKey_bio
                0x00000000401b44c5                d2i_PrivateKey_bio
                0x00000000401b44e0                i2d_PUBKEY_bio
                0x00000000401b44f6                d2i_PUBKEY_bio
                0x00000000401b4514                d2i_X509_ATTRIBUTE
                0x00000000401b4524                i2d_X509_ATTRIBUTE
                0x00000000401b4534                X509_ATTRIBUTE_new
                0x00000000401b4544                X509_ATTRIBUTE_free
                0x00000000401b4554                X509_ATTRIBUTE_dup
                0x00000000401b4567                X509_ATTRIBUTE_create
                0x00000000401b4d9e                d2i_X509_REVOKED
                0x00000000401b4dae                i2d_X509_REVOKED
                0x00000000401b4dbe                X509_REVOKED_new
                0x00000000401b4dce                X509_REVOKED_free
                0x00000000401b4dde                d2i_X509_CRL_INFO
                0x00000000401b4dee                i2d_X509_CRL_INFO
                0x00000000401b4dfe                X509_CRL_INFO_new
                0x00000000401b4e0e                X509_CRL_INFO_free
                0x00000000401b4e1e                d2i_X509_CRL
                0x00000000401b4e2e                i2d_X509_CRL
                0x00000000401b4e3e                X509_CRL_new
                0x00000000401b4e4e                X509_CRL_free
                0x00000000401b4e5e                X509_CRL_dup
                0x00000000401b4e71                X509_CRL_add0_revoked
                0x00000000401b4ef2                X509_CRL_verify
                0x00000000401b4f0c                X509_CRL_get0_by_serial
                0x00000000401b4f2c                X509_CRL_get0_by_cert
                0x00000000401b4f9b                X509_CRL_set_default_method
                0x00000000401b4fb4                X509_CRL_METHOD_new
                0x00000000401b5019                X509_CRL_METHOD_free
                0x00000000401b5029                X509_CRL_set_meth_data
                0x00000000401b5033                X509_CRL_get_meth_data
                0x00000000401b5040                d2i_X509_EXTENSION
                0x00000000401b5050                i2d_X509_EXTENSION
                0x00000000401b5060                X509_EXTENSION_new
                0x00000000401b5070                X509_EXTENSION_free
                0x00000000401b5080                d2i_X509_EXTENSIONS
                0x00000000401b5090                i2d_X509_EXTENSIONS
                0x00000000401b50a0                X509_EXTENSION_dup
                0x00000000401b543d                X509_NAME_ENTRY_free
                0x00000000401b544d                d2i_X509_NAME_ENTRY
                0x00000000401b545d                i2d_X509_NAME_ENTRY
                0x00000000401b546d                X509_NAME_ENTRY_new
                0x00000000401b599c                X509_NAME_ENTRY_dup
                0x00000000401b59af                d2i_X509_NAME
                0x00000000401b59bf                i2d_X509_NAME
                0x00000000401b59cf                X509_NAME_new
                0x00000000401b59df                X509_NAME_free
                0x00000000401b5b91                X509_NAME_dup
                0x00000000401b5ba4                X509_NAME_set
                0x00000000401b5c1c                d2i_X509_PUBKEY
                0x00000000401b5c2c                i2d_X509_PUBKEY
                0x00000000401b5c3c                X509_PUBKEY_new
                0x00000000401b5c4c                X509_PUBKEY_free
                0x00000000401b5c5c                X509_PUBKEY_set
                0x00000000401b5d4d                X509_PUBKEY_get
                0x00000000401b5eac                d2i_PUBKEY
                0x00000000401b5f15                i2d_PUBKEY
                0x00000000401b5f6d                d2i_RSA_PUBKEY
                0x00000000401b5ff2                i2d_RSA_PUBKEY
                0x00000000401b607f                d2i_DSA_PUBKEY
                0x00000000401b6104                i2d_DSA_PUBKEY
                0x00000000401b6191                d2i_EC_PUBKEY
                0x00000000401b6216                i2d_EC_PUBKEY
                0x00000000401b62a3                X509_PUBKEY_set0_param
                0x00000000401b6320                X509_PUBKEY_get0_param
                0x00000000401b638b                d2i_X509_REQ_INFO
                0x00000000401b639b                i2d_X509_REQ_INFO
                0x00000000401b63ab                X509_REQ_INFO_new
                0x00000000401b63bb                X509_REQ_INFO_free
                0x00000000401b63cb                d2i_X509_REQ
                0x00000000401b63db                i2d_X509_REQ
                0x00000000401b63eb                X509_REQ_new
                0x00000000401b63fb                X509_REQ_free
                0x00000000401b640b                X509_REQ_dup
                0x00000000401b6420                d2i_X509_SIG
                0x00000000401b6430                i2d_X509_SIG
                0x00000000401b6440                X509_SIG_new
                0x00000000401b6450                X509_SIG_free
                0x00000000401b6460                d2i_NETSCAPE_SPKAC
                0x00000000401b6470                i2d_NETSCAPE_SPKAC
                0x00000000401b6480                NETSCAPE_SPKAC_new
                0x00000000401b6490                NETSCAPE_SPKAC_free
                0x00000000401b64a0                d2i_NETSCAPE_SPKI
                0x00000000401b64b0                i2d_NETSCAPE_SPKI
                0x00000000401b64c0                NETSCAPE_SPKI_new
                0x00000000401b64d0                NETSCAPE_SPKI_free
                0x00000000401b65fc                d2i_X509_CINF
                0x00000000401b660c                i2d_X509_CINF
                0x00000000401b661c                X509_CINF_new
                0x00000000401b662c                X509_CINF_free
                0x00000000401b663c                d2i_X509
                0x00000000401b664c                i2d_X509
                0x00000000401b665c                X509_new
                0x00000000401b666c                X509_free
                0x00000000401b667c                X509_dup
                0x00000000401b668f                X509_get_ex_new_index
                0x00000000401b66ae                X509_set_ex_data
                0x00000000401b66bd                X509_get_ex_data
                0x00000000401b66cc                d2i_X509_AUX
                0x00000000401b673c                i2d_X509_AUX
                0x00000000401b6788                d2i_X509_CERT_AUX
                0x00000000401b6798                i2d_X509_CERT_AUX
                0x00000000401b67a8                X509_CERT_AUX_new
                0x00000000401b6800                X509_CERT_AUX_free
                0x00000000401b6810                X509_alias_set1
                0x00000000401b68b8                X509_keyid_set1
                0x00000000401b6960                X509_alias_get0
                0x00000000401b69a1                X509_keyid_get0
                0x00000000401b69e2                X509_add1_trust_object
                0x00000000401b6a4f                X509_add1_reject_object
                0x00000000401b6ab1                X509_trust_clear
                0x00000000401b6af0                X509_reject_clear
                0x00000000401b6b31                d2i_X509_CERT_PAIR
                0x00000000401b6b41                i2d_X509_CERT_PAIR
                0x00000000401b6b51                X509_CERT_PAIR_new
                0x00000000401b6b61                X509_CERT_PAIR_free
                0x00000000401b6b74                DES_xcbc_encrypt
                0x00000000401b72ec                ERR_load_TS_strings
                0x00000000401b7324                ERR_load_CMS_strings
                0x00000000401b73a6                OBJ_find_sigid_algs
                0x00000000401b742e                OBJ_find_sigid_by_algs
                0x00000000401b74b6                OBJ_add_sigid
                0x00000000401b75c4                OBJ_sigid_free
                0x00000000401b763b                EVP_whirlpool
                0x00000000401b766b                EVP_PKEY_meth_find
                0x00000000401b76e4                EVP_PKEY_meth_new
                0x00000000401b7802                EVP_PKEY_meth_free
                0x00000000401b7818                EVP_PKEY_meth_add0
                0x00000000401b787b                EVP_PKEY_CTX_free
                0x00000000401b78ca                EVP_PKEY_CTX_dup
                0x00000000401b7b00                EVP_PKEY_CTX_new_id
                0x00000000401b7b12                EVP_PKEY_CTX_new
                0x00000000401b7b22                EVP_PKEY_CTX_ctrl
                0x00000000401b7c1a                EVP_PKEY_CTX_ctrl_str
                0x00000000401b7cff                EVP_PKEY_CTX_get_operation
                0x00000000401b7d08                EVP_PKEY_CTX_set0_keygen_info
                0x00000000401b7d15                EVP_PKEY_CTX_set_data
                0x00000000401b7d1f                EVP_PKEY_CTX_get_data
                0x00000000401b7d29                EVP_PKEY_CTX_get0_pkey
                0x00000000401b7d33                EVP_PKEY_CTX_get0_peerkey
                0x00000000401b7d3d                EVP_PKEY_CTX_set_app_data
                0x00000000401b7d47                EVP_PKEY_CTX_get_app_data
                0x00000000401b7d51                EVP_PKEY_meth_set_init
                0x00000000401b7d5b                EVP_PKEY_meth_set_copy
                0x00000000401b7d65                EVP_PKEY_meth_set_cleanup
                0x00000000401b7d6f                EVP_PKEY_meth_set_paramgen
                0x00000000401b7d7d                EVP_PKEY_meth_set_keygen
                0x00000000401b7d8b                EVP_PKEY_meth_set_sign
                0x00000000401b7d99                EVP_PKEY_meth_set_verify
                0x00000000401b7da7                EVP_PKEY_meth_set_verify_recover
                0x00000000401b7db5                EVP_PKEY_meth_set_signctx
                0x00000000401b7dc3                EVP_PKEY_meth_set_verifyctx
                0x00000000401b7dd7                EVP_PKEY_meth_set_encrypt
                0x00000000401b7deb                EVP_PKEY_meth_set_decrypt
                0x00000000401b7dff                EVP_PKEY_meth_set_derive
                0x00000000401b7e13                EVP_PKEY_meth_set_ctrl
                0x00000000401b7e43                EVP_PKEY_asn1_get_count
                0x00000000401b7e62                EVP_PKEY_asn1_get0
                0x00000000401b7e92                EVP_PKEY_asn1_find
                0x00000000401b7f35                EVP_PKEY_asn1_find_str
                0x00000000401b7fbc                EVP_PKEY_asn1_add0
                0x00000000401b801f                EVP_PKEY_asn1_get0_info
                0x00000000401b8071                EVP_PKEY_get0_asn1
                0x00000000401b807b                EVP_PKEY_asn1_copy
                0x00000000401b8143                EVP_PKEY_asn1_free
                0x00000000401b8185                EVP_PKEY_asn1_new
                0x00000000401b82fa                EVP_PKEY_asn1_add_alias
                0x00000000401b8337                EVP_PKEY_asn1_set_public
                0x00000000401b8359                EVP_PKEY_asn1_set_private
                0x00000000401b836b                EVP_PKEY_asn1_set_param
                0x00000000401b8396                EVP_PKEY_asn1_set_free
                0x00000000401b83a3                EVP_PKEY_asn1_set_ctrl
                0x00000000401b83b0                EVP_PKEY_sign_init
                0x00000000401b841f                EVP_PKEY_sign
                0x00000000401b852b                EVP_PKEY_verify_init
                0x00000000401b859a                EVP_PKEY_verify
                0x00000000401b860a                EVP_PKEY_verify_recover_init
                0x00000000401b8679                EVP_PKEY_verify_recover
                0x00000000401b8785                EVP_PKEY_encrypt_init
                0x00000000401b87fa                EVP_PKEY_encrypt
                0x00000000401b890f                EVP_PKEY_decrypt_init
                0x00000000401b8984                EVP_PKEY_decrypt
                0x00000000401b8a99                EVP_PKEY_derive_init
                0x00000000401b8b0e                EVP_PKEY_derive_set_peer
                0x00000000401b8cf0                EVP_PKEY_derive
                0x00000000401b8f06                ASN1_PCTX_new
                0x00000000401b8f7d                ASN1_PCTX_free
                0x00000000401b8f88                ASN1_PCTX_get_flags
                0x00000000401b8f91                ASN1_PCTX_set_flags
                0x00000000401b8f9a                ASN1_PCTX_get_nm_flags
                0x00000000401b8fa4                ASN1_PCTX_set_nm_flags
                0x00000000401b8fae                ASN1_PCTX_get_cert_flags
                0x00000000401b8fb8                ASN1_PCTX_set_cert_flags
                0x00000000401b8fc2                ASN1_PCTX_get_oid_flags
                0x00000000401b8fcc                ASN1_PCTX_set_oid_flags
                0x00000000401b8fd6                ASN1_PCTX_get_str_flags
                0x00000000401b8fe0                ASN1_PCTX_set_str_flags
                0x00000000401b8fea                asn1_template_print_ctx
                0x00000000401b9925                ASN1_item_print
                0x00000000401b9aff                EVP_DigestSignInit
                0x00000000401b9b10                EVP_DigestVerifyInit
                0x00000000401b9b21                EVP_DigestSignFinal
                0x00000000401b9c60                EVP_DigestVerifyFinal
                0x00000000401b9d40                WHIRLPOOL_Init
                0x00000000401b9d5a                WHIRLPOOL_BitUpdate
                0x00000000401ba063                WHIRLPOOL_Update
                0x00000000401ba11f                WHIRLPOOL_Final
                0x00000000401ba226                WHIRLPOOL
                0x00000000401bd639                DHparams_print
                0x00000000401bf61c                whirlpool_block
                0x00000000401c01a9                EVP_PKEY_paramgen_init
                0x00000000401c0218                EVP_PKEY_paramgen
                0x00000000401c02d1                EVP_PKEY_keygen_init
                0x00000000401c0340                EVP_PKEY_keygen
                0x00000000401c03f9                EVP_PKEY_CTX_set_cb
                0x00000000401c0403                EVP_PKEY_CTX_get_cb
                0x00000000401c040d                evp_pkey_set_cb_translate
                0x00000000401c0425                EVP_PKEY_CTX_get_keygen_info
                0x00000000401c044d                EVP_PKEY_new_mac_key
                0x00000000401c05dc                CMS_SignedData_init
                0x00000000401c05f0                cms_set1_SignerIdentifier
                0x00000000401c0710                cms_SignerIdentifier_get0_signer_id
                0x00000000401c0767                cms_SignerIdentifier_cert_cmp
                0x00000000401c07e4                CMS_get0_SignerInfos
                0x00000000401c07ff                CMS_get0_signers
                0x00000000401c0884                CMS_SignerInfo_set1_signer_cert
                0x00000000401c08e5                CMS_SignerInfo_get0_signer_id
                0x00000000401c08f4                CMS_SignerInfo_cert_cmp
                0x00000000401c0903                CMS_set1_signers_certs
                0x00000000401c0a35                CMS_SignerInfo_get0_algs
                0x00000000401c0a6b                CMS_SignerInfo_sign
                0x00000000401c0cbf                cms_SignedData_final
                0x00000000401c0ee0                CMS_SignerInfo_verify
                0x00000000401c100d                cms_SignedData_init_bio
                0x00000000401c11da                CMS_SignerInfo_verify_content
                0x00000000401c138e                CMS_add_smimecap
                0x00000000401c13ee                CMS_add_simple_smimecap
                0x00000000401c1536                CMS_add_standard_smimecap
                0x00000000401c1673                CMS_add1_signer
                0x00000000401c1bd4                CMS_get0_RecipientInfos
                0x00000000401c1bef                CMS_RecipientInfo_type
                0x00000000401c1bf7                CMS_EnvelopedData_create
                0x00000000401c1d02                CMS_add1_recipient_cert
                0x00000000401c1ee6                CMS_RecipientInfo_ktri_get0_algs
                0x00000000401c1f49                CMS_RecipientInfo_ktri_get0_signer_id
                0x00000000401c1f87                CMS_RecipientInfo_ktri_cert_cmp
                0x00000000401c1fc5                CMS_RecipientInfo_set0_pkey
                0x00000000401c2003                CMS_RecipientInfo_kekri_id_cmp
                0x00000000401c2062                CMS_add0_recipient_key
                0x00000000401c22b1                CMS_RecipientInfo_kekri_get0_id
                0x00000000401c2357                CMS_RecipientInfo_set0_key
                0x00000000401c2399                CMS_RecipientInfo_decrypt
                0x00000000401c276f                cms_EnvelopedData_init_bio
                0x00000000401c2bec                EC_KEY_print
                0x00000000401c2c67                ECParameters_print
                0x00000000401c2cd9                ECPKParameters_print
                0x00000000401c38fc                CMS_signed_get_attr_count
                0x00000000401c390b                CMS_signed_get_attr_by_NID
                0x00000000401c391a                CMS_signed_get_attr_by_OBJ
                0x00000000401c3929                CMS_signed_get_attr
                0x00000000401c3938                CMS_signed_delete_attr
                0x00000000401c3947                CMS_signed_add1_attr
                0x00000000401c395f                CMS_signed_add1_attr_by_OBJ
                0x00000000401c3977                CMS_signed_add1_attr_by_NID
                0x00000000401c398f                CMS_signed_add1_attr_by_txt
                0x00000000401c39a7                CMS_signed_get0_data_by_OBJ
                0x00000000401c39b6                CMS_unsigned_get_attr_count
                0x00000000401c39c5                CMS_unsigned_get_attr_by_NID
                0x00000000401c39d4                CMS_unsigned_get_attr_by_OBJ
                0x00000000401c39e3                CMS_unsigned_get_attr
                0x00000000401c39f2                CMS_unsigned_delete_attr
                0x00000000401c3a01                CMS_unsigned_add1_attr
                0x00000000401c3a19                CMS_unsigned_add1_attr_by_OBJ
                0x00000000401c3a31                CMS_unsigned_add1_attr_by_NID
                0x00000000401c3a49                CMS_unsigned_add1_attr_by_txt
                0x00000000401c3a61                CMS_unsigned_get0_data_by_OBJ
                0x00000000401c3bde                d2i_CMS_ContentInfo
                0x00000000401c3bee                i2d_CMS_ContentInfo
                0x00000000401c3bfe                CMS_ContentInfo_new
                0x00000000401c3c0e                CMS_ContentInfo_free
                0x00000000401c3c1e                CMS_ContentInfo_print_ctx
                0x00000000401c3c31                CMS_get0_type
                0x00000000401c3c3a                CMS_get0_content
                0x00000000401c3d15                CMS_dataFinal
                0x00000000401c3e89                cms_content_bio
                0x00000000401c3ed9                CMS_dataInit
                0x00000000401c3fda                CMS_get0_eContentType
                0x00000000401c3ff4                CMS_set1_eContentType
                0x00000000401c404f                CMS_is_detached
                0x00000000401c4070                CMS_set_detached
                0x00000000401c4106                cms_Data_create
                0x00000000401c4140                cms_DigestAlgorithm_set
                0x00000000401c4191                cms_DigestAlgorithm_init_bio
                0x00000000401c4264                cms_DigestAlgorithm_find_ctx
                0x00000000401c4344                CMS_add0_CertificateChoices
                0x00000000401c43b5                CMS_add0_cert
                0x00000000401c445e                CMS_add1_cert
                0x00000000401c44a7                CMS_add0_RevocationInfoChoice
                0x00000000401c4518                CMS_add0_crl
                0x00000000401c4549                CMS_add1_crl
                0x00000000401c4592                CMS_get1_certs
                0x00000000401c464f                CMS_get1_crls
                0x00000000401c4840                cms_EncryptedContent_init_bio
                0x00000000401c4c26                cms_EncryptedContent_init
                0x00000000401c4cb2                CMS_EncryptedData_set1_key
                0x00000000401c4dbc                cms_EncryptedData_init_bio
                0x00000000401c4de8                AES_wrap_key
                0x00000000401c4f1f                AES_unwrap_key
                0x00000000401c5080                cms_DigestedData_create
                0x00000000401c5117                cms_DigestedData_init_bio
                0x00000000401c512a                cms_DigestedData_do_final
                0x00000000401c5248                CMS_stream
                0x00000000401c52c4                d2i_CMS_bio
                0x00000000401c52da                i2d_CMS_bio
                0x00000000401c52f0                PEM_read_bio_CMS
                0x00000000401c5311                PEM_write_bio_CMS
                0x00000000401c5355                BIO_new_CMS
                0x00000000401c5365                i2d_CMS_bio_stream
                0x00000000401c5376                PEM_write_bio_CMS_stream
                0x00000000401c538d                SMIME_write_CMS
                0x00000000401c541d                SMIME_read_CMS
                0x00000000401c5d5b                SMIME_read_ASN1
                0x00000000401c6180                SMIME_crlf_copy
                0x00000000401c62ab                i2d_ASN1_bio_stream
                0x00000000401c6443                SMIME_write_ASN1
                0x00000000401c6ad0                PEM_write_bio_ASN1_stream
                0x00000000401c6b57                SMIME_text
                0x00000000401c6ea5                BIO_new_NDEF
                0x00000000401c76c1                BIO_f_asn1
                0x00000000401c76cc                BIO_asn1_set_prefix
                0x00000000401c76e2                BIO_asn1_get_prefix
                0x00000000401c76f8                BIO_asn1_set_suffix
                0x00000000401c770e                BIO_asn1_get_suffix
                0x00000000401c7730                chelp_snprintf
                0x00000000401c776d                chelp_sprintf
                0x00000000401c77b4                chelp_print
                0x00000000401c77cc                chelp_printf
                0x00000000401c7834                chelp_mod_64_32_32
                0x00000000401c7849                chelp_div_64_32_64
                0x00000000401c785c                chelp_div_64_32_32
                0x00000000401c7867                chelp_mul_64_64_64
                0x00000000401c7874                BIO_printf
                0x00000000401c78b1                BIO_snprintf
                0x00000000401c78e7                chelp_abort
                0x00000000401c78fa                RAND_poll
                0x00000000401c7919                InitCryptoLibrary
                0x00000000401c7990                chelp_malloc
                0x00000000401c79a7                chelp_realloc
                0x00000000401c79ca                chelp_free
                0x00000000401c79da                chelp_swap
                0x00000000401c7a0e                chelp_qsort
                0x00000000401c7d22                chelp_bsearch
                0x00000000401c7df1                chelp_memchr
                0x00000000401c7e2a                chelp_memmove
                0x00000000401c7ea9                chelp_memcmp
                0x00000000401c7f18                chelp_memcpy
                0x00000000401c7f44                chelp_memset
                0x00000000401c7f70                chelp_isupper
                0x00000000401c7f83                chelp_islower
                0x00000000401c7f96                chelp_toupper
                0x00000000401c7fa2                chelp_tolower
                0x00000000401c7fae                chelp_isspace
                0x00000000401c7fca                chelp_isdigit
                0x00000000401c7fdd                chelp_isxdigit
                0x00000000401c8005                chelp_isalpha
                0x00000000401c8022                chelp_isalnum
                0x00000000401c804b                chelp_strtoul_ex
                0x00000000401c821c                chelp_strtoul
                0x00000000401c822c                chelp_strtol
                0x00000000401c823c                chelp_strcpy
                0x00000000401c826a                chelp_strncpy
                0x00000000401c82d7                chelp_strcat
                0x00000000401c8318                chelp_strcmp
                0x00000000401c8378                chelp_strncmp
                0x00000000401c84fa                chelp_stricmp
                0x00000000401c8539                chelp_strchr
                0x00000000401c8571                chelp_strrchr
                0x00000000401c85a5                chelp_strlen
                0x00000000401c85cc                chelp_strncasecmp
                0x00000000401c8620                decryptcfg
                0x00000000401c86a8                ASN1_BIT_STRING_set
                0x00000000401c86b3                i2c_ASN1_BIT_STRING
                0x00000000401c87c0                c2i_ASN1_BIT_STRING
                0x00000000401c8939                ASN1_BIT_STRING_set_bit
                0x00000000401c8a98                ASN1_BIT_STRING_get_bit
                0x00000000401c8ae0                ASN1_BIT_STRING_check
                0x00000000401c8b40                d2i_ASN1_type_bytes
                0x00000000401c8ce5                i2d_ASN1_bytes
                0x00000000401c8d9c                d2i_ASN1_bytes
                0x00000000401c93eb                ASN1_d2i_bio
                0x00000000401c945d                ASN1_item_d2i_bio
                0x00000000401c94d4                ASN1_digest
                0x00000000401c959b                ASN1_item_digest
                0x00000000401c9618                ASN1_dup
                0x00000000401c96d3                ASN1_item_dup
                0x00000000401c975c                ASN1_ENUMERATED_set
                0x00000000401c9871                ASN1_ENUMERATED_get
                0x00000000401c98e9                BN_to_ASN1_ENUMERATED
                0x00000000401c99f0                ASN1_ENUMERATED_to_BN
                0x00000000401c9a60                ASN1_GENERALIZEDTIME_check
                0x00000000401c9cd2                ASN1_GENERALIZEDTIME_set_string
                0x00000000401c9d4f                ASN1_GENERALIZEDTIME_adj
                0x00000000401c9eab                ASN1_GENERALIZEDTIME_set
                0x00000000401c9ec0                ASN1_i2d_bio
                0x00000000401c9f7e                ASN1_item_i2d_bio
                0x00000000401ca020                ASN1_INTEGER_dup
                0x00000000401ca02b                ASN1_INTEGER_cmp
                0x00000000401ca06b                i2c_ASN1_INTEGER
                0x00000000401ca1e3                c2i_ASN1_INTEGER
                0x00000000401ca3df                d2i_ASN1_UINTEGER
                0x00000000401ca54e                ASN1_INTEGER_set
                0x00000000401ca663                ASN1_INTEGER_get
                0x00000000401ca6dd                BN_to_ASN1_INTEGER
                0x00000000401ca7f5                ASN1_INTEGER_to_BN
                0x00000000401ca870                i2d_ASN1_OBJECT
                0x00000000401ca907                a2d_ASN1_OBJECT
                0x00000000401cae0e                i2t_ASN1_OBJECT
                0x00000000401cae1e                i2a_ASN1_OBJECT
                0x00000000401caf04                ASN1_OBJECT_new
                0x00000000401caf80                ASN1_OBJECT_free
                0x00000000401caff9                c2i_ASN1_OBJECT
                0x00000000401cb1a4                d2i_ASN1_OBJECT
                0x00000000401cb230                ASN1_OBJECT_create
                0x00000000401cb25c                ASN1_OCTET_STRING_dup
                0x00000000401cb267                ASN1_OCTET_STRING_cmp
                0x00000000401cb272                ASN1_OCTET_STRING_set
                0x00000000401cb280                ASN1_sign
                0x00000000401cb51e                ASN1_item_sign
                0x00000000401cbf32                X509_NAME_print_ex
                0x00000000401cc412                ASN1_STRING_print_ex
                0x00000000401cc428                ASN1_STRING_to_UTF8
                0x00000000401cc49c                d2i_ASN1_TIME
                0x00000000401cc4ac                i2d_ASN1_TIME
                0x00000000401cc4bc                ASN1_TIME_new
                0x00000000401cc4cc                ASN1_TIME_free
                0x00000000401cc4dc                ASN1_TIME_adj
                0x00000000401cc59f                ASN1_TIME_set
                0x00000000401cc5b4                ASN1_TIME_check
                0x00000000401cc5d8                ASN1_TIME_to_generalizedtime
                0x00000000401cc6cb                ASN1_TIME_set_string
                0x00000000401cc74c                ASN1_TYPE_get
                0x00000000401cc765                ASN1_TYPE_set
                0x00000000401cc7c6                ASN1_TYPE_set1
                0x00000000401cc852                ASN1_TYPE_cmp
                0x00000000401cc8a0                ASN1_UTCTIME_check
                0x00000000401ccac4                ASN1_UTCTIME_set_string
                0x00000000401ccb41                ASN1_UTCTIME_adj
                0x00000000401cccc9                ASN1_UTCTIME_set
                0x00000000401cccde                ASN1_UTCTIME_cmp_time_t
                0x00000000401cce50                UTF8_getc
                0x00000000401cd1df                UTF8_putc
                0x00000000401cd408                ASN1_verify
                0x00000000401cd577                ASN1_item_verify
                0x00000000401cd770                AES_cbc_encrypt
                0x00000000401cd794                AES_cfb128_encrypt
                0x00000000401cd7b2                AES_cfb1_encrypt
                0x00000000401cd7d0                AES_cfb8_encrypt
                0x00000000401cd7f0                AES_ecb_encrypt
                0x00000000401cd808                AES_ofb128_encrypt
                0x00000000401cd820                ERR_load_ASN1_strings
                0x00000000401cd88f                ASN1_check_infinite_end
                0x00000000401cd89a                ASN1_const_check_infinite_end
                0x00000000401cd8fe                ASN1_get_object
                0x00000000401cdac0                ASN1_put_object
                0x00000000401cdbc2                ASN1_put_eoc
                0x00000000401cdbde                ASN1_object_size
                0x00000000401cdc1a                asn1_Finish
                0x00000000401cdc25                asn1_const_Finish
                0x00000000401cdc30                asn1_GetSequence
                0x00000000401cdcde                ASN1_STRING_set
                0x00000000401cdde0                ASN1_STRING_copy
                0x00000000401cde31                ASN1_STRING_set0
                0x00000000401cde71                ASN1_STRING_type_new
                0x00000000401cdee8                ASN1_STRING_new
                0x00000000401cdef8                ASN1_STRING_free
                0x00000000401cdf2c                ASN1_STRING_dup
                0x00000000401cdf7f                ASN1_STRING_cmp
                0x00000000401cdfc0                asn1_add_error
                0x00000000401ce028                ASN1_STRING_length
                0x00000000401ce030                ASN1_STRING_length_set
                0x00000000401ce038                ASN1_STRING_type
                0x00000000401ce041                ASN1_STRING_data
                0x00000000401ce050                ASN1_tag2str
                0x00000000401cec2f                ASN1_parse_dump
                0x00000000401cec58                ASN1_parse
                0x00000000401cec9a                BIO_dump_indent_cb
                0x00000000401cf0ae                BIO_dump_cb
                0x00000000401cf0bf                BIO_dump
                0x00000000401cf0d7                BIO_dump_indent
                0x00000000401cfaac                BIO_f_buffer
                0x00000000401cfac0                BF_cfb64_encrypt
                0x00000000401cfca8                BF_options
                0x00000000401cfcb3                BF_ecb_encrypt
                0x00000000401cfd64                BF_encrypt
                0x00000000401d0125                BF_decrypt
                0x00000000401d04e6                BF_cbc_encrypt
                0x00000000401d0a78                BF_ofb64_encrypt
                0x00000000401d0c08                BF_set_key
                0x00000000401d1a31                BIO_f_base64
                0x00000000401d2130                BIO_f_cipher
                0x00000000401d213b                BIO_set_cipher
                0x00000000401d21f0                ERR_load_BIO_strings
                0x00000000401d25aa                BIO_f_md
                0x00000000401d25c0                BN_uadd
                0x00000000401d2704                BN_usub
                0x00000000401d28fe                BN_add
                0x00000000401d29a9                BN_sub
                0x00000000401d2abc                bn_mul_add_words
                0x00000000401d2d24                bn_mul_words
                0x00000000401d2f70                bn_sqr_words
                0x00000000401d30c3                bn_div_words
                0x00000000401d3213                bn_add_words
                0x00000000401d32ff                bn_sub_words
                0x00000000401d3409                bn_mul_comba8
                0x00000000401d4cae                bn_mul_comba4
                0x00000000401d52cd                bn_sqr_comba8
                0x00000000401d6317                bn_sqr_comba4
                0x00000000401d6710                BN_BLINDING_free
                0x00000000401d6767                BN_BLINDING_new
                0x00000000401d6852                BN_BLINDING_invert_ex
                0x00000000401d68b5                BN_BLINDING_invert
                0x00000000401d68cb                BN_BLINDING_get_thread_id
                0x00000000401d68d5                BN_BLINDING_set_thread_id
                0x00000000401d68df                BN_BLINDING_thread_id
                0x00000000401d68e9                BN_BLINDING_get_flags
                0x00000000401d68f3                BN_BLINDING_set_flags
                0x00000000401d68fd                BN_BLINDING_create_param
                0x00000000401d6a91                BN_BLINDING_update
                0x00000000401d6b83                BN_BLINDING_convert_ex
                0x00000000401d6c5e                BN_BLINDING_convert
                0x00000000401d6c74                BN_CTX_init
                0x00000000401d6cef                BN_CTX_new
                0x00000000401d6d8f                BN_CTX_free
                0x00000000401d6e0f                BN_CTX_start
                0x00000000401d6ef5                BN_CTX_end
                0x00000000401d6f6a                BN_CTX_get
                0x00000000401d70d0                BN_div
                0x00000000401d7bf4                ERR_load_BN_strings
                0x00000000401d7d0d                BN_exp
                0x00000000401d7ead                BN_mod_exp_recp
                0x00000000401d8339                BN_mod_exp_mont_consttime
                0x00000000401d896c                BN_mod_exp_mont
                0x00000000401d8f4b                BN_mod_exp_mont_word
                0x00000000401d938d                BN_mod_exp
                0x00000000401d93d9                BN_mod_exp_simple
                0x00000000401d9850                BN_gcd
                0x00000000401d9a66                BN_mod_inverse
                0x00000000401da4e0                BN_nnmod
                0x00000000401da53c                BN_mod_add
                0x00000000401da58a                BN_mod_add_quick
                0x00000000401da5de                BN_mod_sub
                0x00000000401da62c                BN_mod_sub_quick
                0x00000000401da674                BN_mod_mul
                0x00000000401da72c                BN_mod_sqr
                0x00000000401da782                BN_mod_lshift1
                0x00000000401da7d0                BN_mod_lshift1_quick
                0x00000000401da824                BN_mod_lshift_quick
                0x00000000401da91f                BN_mod_lshift
                0x00000000401dad2c                BN_mod_mul_montgomery
                0x00000000401dade1                BN_from_montgomery
                0x00000000401dae6b                BN_MONT_CTX_init
                0x00000000401daeb4                BN_MONT_CTX_new
                0x00000000401daef2                BN_MONT_CTX_free
                0x00000000401daf33                BN_MONT_CTX_set
                0x00000000401db12d                BN_MONT_CTX_copy
                0x00000000401db1ad                BN_MONT_CTX_set_locked
                0x00000000401db2b0                bn_sub_part_words
                0x00000000401db543                bn_add_part_words
                0x00000000401db901                bn_mul_normal
                0x00000000401dba69                bn_mul_recursive
                0x00000000401dbefb                bn_mul_high
                0x00000000401dc377                bn_mul_part_recursive
                0x00000000401dc84b                BN_mul
                0x00000000401dcb9b                bn_mul_low_normal
                0x00000000401dcc7d                bn_mul_low_recursive
                0x00000000401dceb7                BN_GENCB_call
                0x00000000401dcf05                BN_is_prime_fasttest_ex
                0x00000000401dd3d4                BN_is_prime_ex
                0x00000000401dd3e7                BN_generate_prime_ex
                0x00000000401dd938                BN_RECP_CTX_init
                0x00000000401dd967                BN_RECP_CTX_new
                0x00000000401dd9a5                BN_RECP_CTX_free
                0x00000000401dd9d9                BN_RECP_CTX_set
                0x00000000401dda2f                BN_reciprocal
                0x00000000401ddac8                BN_div_recp
                0x00000000401ddd73                BN_mod_mul_reciprocal
                0x00000000401dde3c                BN_lshift1
                0x00000000401ddefb                BN_rshift1
                0x00000000401ddfd3                BN_lshift
                0x00000000401de133                BN_rshift
                0x00000000401de2e0                bn_sqr_normal
                0x00000000401de3bc                bn_sqr_recursive
                0x00000000401de57a                BN_sqr
                0x00000000401de864                BIO_s_null
                0x00000000401de870                ERR_load_BUF_strings
                0x00000000401de8b0                CAST_cfb64_encrypt
                0x00000000401dea98                CAST_ecb_encrypt
                0x00000000401deb48                CAST_encrypt
                0x00000000401defa4                CAST_decrypt
                0x00000000401df426                CAST_cbc_encrypt
                0x00000000401df9b8                CAST_ofb64_encrypt
                0x00000000401dfb48                CAST_set_key
                0x00000000401e05e0                DES_ede3_cfb64_encrypt
                0x00000000401e080b                DES_ede3_cfb_encrypt
                0x00000000401e1010                DES_cfb64_encrypt
                0x00000000401e1230                DES_cfb_encrypt
                0x00000000401e185c                ERR_load_COMP_strings
                0x00000000401e1894                ERR_load_CONF_strings
                0x00000000401e18cc                ERR_load_CRYPTO_strings
                0x00000000401e1910                d2i_PrivateKey
                0x00000000401e1a71                d2i_AutoPrivateKey
                0x00000000401e1bde                d2i_DHparams
                0x00000000401e1bee                i2d_DHparams
                0x00000000401e1bfe                DHparams_dup
                0x00000000401e1c20                DH_check
                0x00000000401e1d59                DH_check_pub_key
                0x00000000401e1e04                ERR_load_DH_strings
                0x00000000401e1e40                DH_generate_parameters_ex
                0x00000000401e2048                EVP_MD_CTX_init
                0x00000000401e205d                EVP_MD_CTX_create
                0x00000000401e2094                EVP_DigestInit_ex
                0x00000000401e2173                EVP_DigestInit
                0x00000000401e21a8                EVP_DigestUpdate
                0x00000000401e21b4                EVP_DigestFinal_ex
                0x00000000401e224f                EVP_MD_CTX_cleanup
                0x00000000401e22ec                EVP_MD_CTX_destroy
                0x00000000401e230c                EVP_Digest
                0x00000000401e23b6                EVP_MD_CTX_copy_ex
                0x00000000401e24f3                EVP_MD_CTX_copy
                0x00000000401e2523                EVP_DigestFinal
                0x00000000401e260e                d2i_DSA_SIG
                0x00000000401e261e                i2d_DSA_SIG
                0x00000000401e262e                DSA_SIG_new
                0x00000000401e263e                DSA_SIG_free
                0x00000000401e264e                d2i_DSAPrivateKey
                0x00000000401e265e                i2d_DSAPrivateKey
                0x00000000401e266e                d2i_DSAparams
                0x00000000401e267e                i2d_DSAparams
                0x00000000401e268e                d2i_DSAPublicKey
                0x00000000401e269e                i2d_DSAPublicKey
                0x00000000401e26ae                DSAparams_dup
                0x00000000401e26c4                ERR_load_DSA_strings
                0x00000000401e2700                dsa_builtin_paramgen
                0x00000000401e2ff5                DSA_generate_parameters_ex
                0x00000000401e30a0                DSA_generate_key
                0x00000000401e3208                DSA_set_default_method
                0x00000000401e3215                DSA_get_default_method
                0x00000000401e3238                DSA_set_method
                0x00000000401e327f                DSA_new_method
                0x00000000401e3380                DSA_new
                0x00000000401e3390                DSA_free
                0x00000000401e345f                DSA_up_ref
                0x00000000401e348c                DSA_size
                0x00000000401e34e1                DSA_get_ex_new_index
                0x00000000401e3500                DSA_set_ex_data
                0x00000000401e350f                DSA_get_ex_data
                0x00000000401e351e                DSA_dup_DH
                0x00000000401e3ebc                DSA_OpenSSL
                0x00000000401e3ec8                DSA_do_sign
                0x00000000401e3ed5                DSA_sign
                0x00000000401e3f59                DSA_sign_setup
                0x00000000401e3f68                DSA_do_verify
                0x00000000401e3f75                DSA_verify
                0x00000000401e4000                ERR_load_DSO_strings
                0x00000000401e4951                EC_GROUP_get_basis_type
                0x00000000401e49b6                EC_GROUP_get_trinomial_basis
                0x00000000401e4a3f                EC_GROUP_get_pentanomial_basis
                0x00000000401e4b16                X9_62_PENTANOMIAL_new
                0x00000000401e4b26                X9_62_PENTANOMIAL_free
                0x00000000401e4b36                X9_62_CHARACTERISTIC_TWO_new
                0x00000000401e4b46                X9_62_CHARACTERISTIC_TWO_free
                0x00000000401e4b56                ECPARAMETERS_new
                0x00000000401e4b66                ECPARAMETERS_free
                0x00000000401e4b76                d2i_ECPKPARAMETERS
                0x00000000401e4b86                i2d_ECPKPARAMETERS
                0x00000000401e4b96                ECPKPARAMETERS_new
                0x00000000401e4ba6                ECPKPARAMETERS_free
                0x00000000401e57ae                d2i_EC_PRIVATEKEY
                0x00000000401e57be                i2d_EC_PRIVATEKEY
                0x00000000401e57ce                EC_PRIVATEKEY_new
                0x00000000401e57de                EC_PRIVATEKEY_free
                0x00000000401e57ee                d2i_ECPKParameters
                0x00000000401e58ab                i2d_ECPKParameters
                0x00000000401e5939                d2i_ECPrivateKey
                0x00000000401e5bb6                i2d_ECPrivateKey
                0x00000000401e5f46                i2d_ECParameters
                0x00000000401e5f7e                d2i_ECParameters
                0x00000000401e6064                o2i_ECPublicKey
                0x00000000401e615e                i2o_ECPublicKey
                0x00000000401e62a8                EC_GROUP_new_by_curve_name
                0x00000000401e67bc                EC_get_builtin_curves
                0x00000000401e6810                EC_GROUP_new_curve_GFp
                0x00000000401e68f8                EC_GROUP_new_curve_GF2m
                0x00000000401e6974                ERR_load_EC_strings
                0x00000000401e69b0                EC_KEY_new
                0x00000000401e6a3b                EC_KEY_free
                0x00000000401e6abd                EC_KEY_new_by_curve_name
                0x00000000401e6b08                EC_KEY_copy
                0x00000000401e6cc3                EC_KEY_dup
                0x00000000401e6d0d                EC_KEY_up_ref
                0x00000000401e6d3a                EC_KEY_generate_key
                0x00000000401e6f19                EC_KEY_check_key
                0x00000000401e71c9                EC_KEY_get0_group
                0x00000000401e71d3                EC_KEY_set_group
                0x00000000401e7216                EC_KEY_get0_private_key
                0x00000000401e7220                EC_KEY_set_private_key
                0x00000000401e7263                EC_KEY_get0_public_key
                0x00000000401e726d                EC_KEY_set_public_key
                0x00000000401e72b4                EC_KEY_get_enc_flags
                0x00000000401e72bd                EC_KEY_set_enc_flags
                0x00000000401e72c6                EC_KEY_get_conv_form
                0x00000000401e72cf                EC_KEY_set_conv_form
                0x00000000401e72e6                EC_KEY_get_key_method_data
                0x00000000401e72f5                EC_KEY_insert_key_method_data
                0x00000000401e7394                EC_KEY_set_asn1_flag
                0x00000000401e73a8                EC_KEY_precompute_mult
                0x00000000401e73d0                EC_GROUP_new
                0x00000000401e74e0                EC_GROUP_method_of
                0x00000000401e74e9                EC_METHOD_get_field_type
                0x00000000401e74f1                EC_GROUP_get0_generator
                0x00000000401e74fb                EC_GROUP_get_order
                0x00000000401e7530                EC_GROUP_get_cofactor
                0x00000000401e7565                EC_GROUP_set_curve_name
                0x00000000401e756e                EC_GROUP_get_curve_name
                0x00000000401e7577                EC_GROUP_set_asn1_flag
                0x00000000401e7580                EC_GROUP_get_asn1_flag
                0x00000000401e7589                EC_GROUP_set_point_conversion_form
                0x00000000401e7592                EC_GROUP_get_point_conversion_form
                0x00000000401e759b                EC_GROUP_set_seed
                0x00000000401e762e                EC_GROUP_get0_seed
                0x00000000401e7638                EC_GROUP_get_seed_len
                0x00000000401e7642                EC_GROUP_set_curve_GFp
                0x00000000401e7681                EC_GROUP_get_curve_GFp
                0x00000000401e76bb                EC_GROUP_set_curve_GF2m
                0x00000000401e76f5                EC_GROUP_get_curve_GF2m
                0x00000000401e7731                EC_GROUP_get_degree
                0x00000000401e776b                EC_GROUP_check_discriminant
                0x00000000401e77a5                EC_EX_DATA_set_data
                0x00000000401e7875                EC_EX_DATA_get_data
                0x00000000401e78aa                EC_EX_DATA_free_data
                0x00000000401e78f9                EC_EX_DATA_clear_free_data
                0x00000000401e7948                EC_EX_DATA_free_all_data
                0x00000000401e7994                EC_EX_DATA_clear_free_all_data
                0x00000000401e79e0                EC_POINT_new
                0x00000000401e7aae                EC_POINT_free
                0x00000000401e7adc                EC_GROUP_free
                0x00000000401e7b41                EC_POINT_clear_free
                0x00000000401e7b89                EC_GROUP_clear_free
                0x00000000401e7c15                EC_POINT_copy
                0x00000000401e7c81                EC_GROUP_set_generator
                0x00000000401e7d70                EC_GROUP_copy
                0x00000000401e7f9a                EC_GROUP_dup
                0x00000000401e7ff0                EC_POINT_dup
                0x00000000401e8046                EC_POINT_method_of
                0x00000000401e804f                EC_POINT_set_to_infinity
                0x00000000401e80b4                EC_POINT_set_Jprojective_coordinates_GFp
                0x00000000401e8119                EC_POINT_get_Jprojective_coordinates_GFp
                0x00000000401e8181                EC_POINT_set_affine_coordinates_GFp
                0x00000000401e81e9                EC_POINT_set_affine_coordinates_GF2m
                0x00000000401e8251                EC_POINT_get_affine_coordinates_GFp
                0x00000000401e82b9                EC_POINT_get_affine_coordinates_GF2m
                0x00000000401e8321                EC_POINT_set_compressed_coordinates_GFp
                0x00000000401e8389                EC_POINT_set_compressed_coordinates_GF2m
                0x00000000401e83f1                EC_POINT_point2oct
                0x00000000401e8459                EC_POINT_oct2point
                0x00000000401e84c1                EC_POINT_add
                0x00000000401e8533                EC_POINT_dbl
                0x00000000401e85a1                EC_POINT_invert
                0x00000000401e860b                EC_POINT_is_at_infinity
                0x00000000401e8673                EC_POINT_is_on_curve
                0x00000000401e86db                EC_POINT_cmp
                0x00000000401e8748                EC_GROUP_cmp
                0x00000000401e89cd                EC_POINT_make_affine
                0x00000000401e8a35                EC_POINTs_make_affine
                0x00000000401e8ac1                EC_POINTs_mul
                0x00000000401e8af1                EC_POINT_mul
                0x00000000401e8b29                EC_GROUP_precompute_mult
                0x00000000401e8b56                EC_GROUP_have_precompute_mult
                0x00000000401e8f8e                ec_wNAF_mul
                0x00000000401e9e6f                ec_wNAF_precompute_mult
                0x00000000401ea4c0                ec_wNAF_have_precompute_mult
                0x00000000401ea4f0                EC_POINT_point2bn
                0x00000000401ea5b6                EC_POINT_bn2point
                0x00000000401ea6af                EC_POINT_point2hex
                0x00000000401ea7b8                EC_POINT_hex2point
                0x00000000401ea828                ERR_load_ECDH_strings
                0x00000000401ea860                ECDH_compute_key
                0x00000000401ea905                ECDH_set_default_method
                0x00000000401ea912                ECDH_get_default_method
                0x00000000401ea9c9                ecdh_check
                0x00000000401eaa29                ECDH_set_method
                0x00000000401eaa53                ECDH_get_ex_new_index
                0x00000000401eaa72                ECDH_set_ex_data
                0x00000000401eaab3                ECDH_get_ex_data
                0x00000000401eaea1                ECDH_OpenSSL
                0x00000000401eaeac                ec_GFp_mont_field_set_to_one
                0x00000000401eaef6                ec_GFp_mont_field_decode
                0x00000000401eaf39                ec_GFp_mont_field_encode
                0x00000000401eaf86                ec_GFp_mont_field_sqr
                0x00000000401eafcf                ec_GFp_mont_field_mul
                0x00000000401eb018                ec_GFp_mont_group_set_curve
                0x00000000401eb1c0                ec_GFp_mont_group_copy
                0x00000000401eb2a8                ec_GFp_mont_group_clear_finish
                0x00000000401eb2fb                ec_GFp_mont_group_finish
                0x00000000401eb34e                ec_GFp_mont_group_init
                0x00000000401eb37c                EC_GFp_mont_method
                0x00000000401eb390                ec_GFp_nist_field_sqr
                0x00000000401eb46b                ec_GFp_nist_field_mul
                0x00000000401eb554                ec_GFp_nist_group_set_curve
                0x00000000401eb6de                ec_GFp_nist_group_copy
                0x00000000401eb6f7                EC_GFp_nist_method
                0x00000000401eb710                ec_GFp_simple_is_at_infinity
                0x00000000401eb720                ec_GFp_simple_field_sqr
                0x00000000401eb738                ec_GFp_simple_field_mul
                0x00000000401eb753                ec_GFp_simple_point_copy
                0x00000000401eb7b8                ec_GFp_simple_group_copy
                0x00000000401eb82f                ec_GFp_simple_point_set_to_infinity
                0x00000000401eb84f                ec_GFp_simple_get_Jprojective_coordinates_GFp
                0x00000000401eb9d6                ec_GFp_simple_group_get_curve
                0x00000000401ebb45                ec_GFp_simple_point_clear_finish
                0x00000000401ebb7a                ec_GFp_simple_group_clear_finish
                0x00000000401ebbae                ec_GFp_simple_points_make_affine
                0x00000000401ec11e                ec_GFp_simple_point_get_affine_coordinates
                0x00000000401ec45d                ec_GFp_simple_make_affine
                0x00000000401ec574                ec_GFp_simple_cmp
                0x00000000401ec827                ec_GFp_simple_is_on_curve
                0x00000000401ecb2f                ec_GFp_simple_invert
                0x00000000401ecb78                ec_GFp_simple_dbl
                0x00000000401ed024                ec_GFp_simple_add
                0x00000000401ed62b                ec_GFp_simple_group_get_degree
                0x00000000401ed63a                ec_GFp_simple_oct2point
                0x00000000401ed9c7                ec_GFp_simple_point2oct
                0x00000000401edd46                ec_GFp_simple_set_Jprojective_coordinates_GFp
                0x00000000401edf2c                ec_GFp_simple_set_compressed_coordinates
                0x00000000401ee3b8                ec_GFp_simple_point_set_affine_coordinates
                0x00000000401ee445                ec_GFp_simple_point_finish
                0x00000000401ee473                ec_GFp_simple_group_finish
                0x00000000401ee4a7                ec_GFp_simple_point_init
                0x00000000401ee4e1                ec_GFp_simple_group_init
                0x00000000401ee524                ec_GFp_simple_group_check_discriminant
                0x00000000401ee755                ec_GFp_simple_group_set_curve
                0x00000000401ee94d                EC_GFp_simple_method
                0x00000000401ee958                ERR_load_ECDSA_strings
                0x00000000401ee9c9                ECDSA_set_default_method
                0x00000000401ee9d6                ECDSA_get_default_method
                0x00000000401eea8d                ecdsa_check
                0x00000000401eeaed                ECDSA_set_method
                0x00000000401eeb17                ECDSA_size
                0x00000000401eebd9                ECDSA_get_ex_new_index
                0x00000000401eebf8                ECDSA_set_ex_data
                0x00000000401eec39                ECDSA_get_ex_data
                0x00000000401ef96b                ECDSA_OpenSSL
                0x00000000401ef978                ECDSA_do_sign_ex
                0x00000000401ef9e4                ECDSA_do_sign
                0x00000000401ef9fc                ECDSA_sign_ex
                0x00000000401efa88                ECDSA_sign
                0x00000000401efaaa                ECDSA_sign_setup
                0x00000000401efb08                ECDSA_do_verify
                0x00000000401efb66                ECDSA_verify
                0x00000000401efbf0                EVP_EncodeInit
                0x00000000401efc0a                EVP_EncodeBlock
                0x00000000401efd45                EVP_EncodeFinal
                0x00000000401efda2                EVP_EncodeUpdate
                0x00000000401efed2                EVP_DecodeInit
                0x00000000401efef3                EVP_DecodeBlock
                0x00000000401f0055                EVP_DecodeUpdate
                0x00000000401f032f                EVP_DecodeFinal
                0x00000000401f0390                EVP_set_pw_prompt
                0x00000000401f03bd                EVP_get_pw_prompt
                0x00000000401f03d8                EVP_read_pw_string_min
                0x00000000401f04b2                EVP_read_pw_string
                0x00000000401f04ca                EVP_BytesToKey
                0x00000000401f0795                EVP_PBE_alg_add_type
                0x00000000401f0855                EVP_PBE_alg_add
                0x00000000401f08c5                EVP_PBE_find
                0x00000000401f098c                EVP_PBE_CipherInit
                0x00000000401f0b66                EVP_PBE_cleanup
                0x00000000401f0b90                EVP_PKCS82PKEY
                0x00000000401f0ccb                EVP_PKEY2PKCS8_broken
                0x00000000401f0dd3                EVP_PKEY2PKCS8
                0x00000000401f0de3                PKCS8_set_broken
                0x00000000401f0e35                EVP_PKEY_get_attr_count
                0x00000000401f0e44                EVP_PKEY_get_attr_by_NID
                0x00000000401f0e53                EVP_PKEY_get_attr_by_OBJ
                0x00000000401f0e62                EVP_PKEY_get_attr
                0x00000000401f0e71                EVP_PKEY_delete_attr
                0x00000000401f0e80                EVP_PKEY_add1_attr
                0x00000000401f0e98                EVP_PKEY_add1_attr_by_OBJ
                0x00000000401f0eb0                EVP_PKEY_add1_attr_by_NID
                0x00000000401f0ec8                EVP_PKEY_add1_attr_by_txt
                0x00000000401f0ee0                HMAC_Init_ex
                0x00000000401f1114                HMAC_Update
                0x00000000401f1123                HMAC_Final
                0x00000000401f11b8                HMAC_CTX_init
                0x00000000401f11e6                HMAC_Init
                0x00000000401f1242                HMAC_CTX_copy
                0x00000000401f12d8                HMAC_CTX_cleanup
                0x00000000401f1318                HMAC
                0x00000000401f13e9                HMAC_CTX_set_flags
                0x00000000401f1430                i2d_PrivateKey
                0x00000000401f1e20                RAND_SSLeay
                0x00000000401f1e54                d2i_NETSCAPE_CERT_SEQUENCE
                0x00000000401f1e64                i2d_NETSCAPE_CERT_SEQUENCE
                0x00000000401f1e74                NETSCAPE_CERT_SEQUENCE_new
                0x00000000401f1e84                NETSCAPE_CERT_SEQUENCE_free
                0x00000000401f1e94                OPENSSL_gmtime
                0x00000000401f1e9f                OPENSSL_gmtime_adj
                0x00000000401f2148                PKCS12_PBE_add
                0x00000000401f214e                PKCS12_PBE_keyivgen
                0x00000000401f235c                PKCS12_key_gen_uni
                0x00000000401f2879                PKCS12_key_gen_asc
                0x00000000401f2958                PKCS8_decrypt
                0x00000000401f297c                OPENSSL_asc2uni
                0x00000000401f2a0b                OPENSSL_uni2asc
                0x00000000401f2a8c                i2d_PKCS12_bio
                0x00000000401f2aa2                d2i_PKCS12_bio
                0x00000000401f2ab8                PKCS12_x5092certbag
                0x00000000401f2ad2                PKCS12_x509crl2certbag
                0x00000000401f2aec                PKCS12_certbag2x509
                0x00000000401f2b43                PKCS12_certbag2x509crl
                0x00000000401f2b9c                PKCS5_PBE_add
                0x00000000401f2ba2                PKCS5_PBE_keyivgen
                0x00000000401f2e84                PKCS5_PBKDF2_HMAC
                0x00000000401f30a4                PKCS5_PBKDF2_HMAC_SHA1
                0x00000000401f3112                PKCS5_v2_PBE_keyivgen
                0x00000000401f3514                d2i_PBEPARAM
                0x00000000401f3524                i2d_PBEPARAM
                0x00000000401f3534                PBEPARAM_new
                0x00000000401f3544                PBEPARAM_free
                0x00000000401f3554                PKCS5_pbe_set0_algor
                0x00000000401f370f                PKCS5_pbe_set
                0x00000000401f37a4                d2i_PBE2PARAM
                0x00000000401f37b4                i2d_PBE2PARAM
                0x00000000401f37c4                PBE2PARAM_new
                0x00000000401f37d4                PBE2PARAM_free
                0x00000000401f37e4                d2i_PBKDF2PARAM
                0x00000000401f37f4                i2d_PBKDF2PARAM
                0x00000000401f3804                PBKDF2PARAM_new
                0x00000000401f3814                PBKDF2PARAM_free
                0x00000000401f3824                PKCS5_pbe2_set_iv
                0x00000000401f3d3d                PKCS5_pbe2_set
                0x00000000401f3d80                d2i_PKCS8_PRIV_KEY_INFO
                0x00000000401f3d90                i2d_PKCS8_PRIV_KEY_INFO
                0x00000000401f3da0                PKCS8_PRIV_KEY_INFO_new
                0x00000000401f3db0                PKCS8_PRIV_KEY_INFO_free
                0x00000000401f3dc0                PKCS8_pkey_set0
                0x00000000401f3e8b                PKCS8_pkey_get0
                0x00000000401f3f20                EVP_SignFinal
                0x00000000401f4100                EVP_VerifyFinal
                0x00000000401f42f1                policy_cache_free
                0x00000000401f4331                policy_cache_set
                0x00000000401f4685                policy_cache_find_data
                0x00000000401f46c0                policy_data_free
                0x00000000401f4705                policy_data_new
                0x00000000401f4804                policy_cache_set_mapping
                0x00000000401f4a6e                X509_policy_tree_free
                0x00000000401f4b1a                X509_policy_check
                0x00000000401f5588                d2i_PKCS8PrivateKey_bio
                0x00000000401f569c                PEM_read_bio_PKCS8
                0x00000000401f56bd                PEM_write_bio_PKCS8
                0x00000000401f5701                PEM_read_bio_PKCS8_PRIV_KEY_INFO
                0x00000000401f5722                PEM_write_bio_PKCS8_PRIV_KEY_INFO
                0x00000000401f5968                i2d_PKCS8PrivateKey_nid_bio
                0x00000000401f5999                i2d_PKCS8PrivateKey_bio
                0x00000000401f59ca                PEM_write_bio_PKCS8PrivateKey
                0x00000000401f59fb                PEM_write_bio_PKCS8PrivateKey_nid
                0x00000000401f5a2c                PKCS7_add_attrib_smimecap
                0x00000000401f5aaf                PKCS7_get_smimecap
                0x00000000401f5afe                PKCS7_simple_smimecap
                0x00000000401f5c44                PKCS7_add_attrib_content_type
                0x00000000401f5ca3                PKCS7_add0_attrib_signing_time
                0x00000000401f5d06                PKCS7_add1_attrib_digest
                0x00000000401f7682                RSA_PKCS1_SSLeay
                0x00000000401f7690                RSA_padding_add_none
                0x00000000401f76fc                RSA_padding_check_none
                0x00000000401f7784                PKCS1_MGF1
                0x00000000401f7979                RSA_padding_check_PKCS1_OAEP
                0x00000000401f7bfd                RSA_padding_add_PKCS1_OAEP
                0x00000000401f7e00                RSA_padding_add_PKCS1_type_1
                0x00000000401f7e9b                RSA_padding_check_PKCS1_type_1
                0x00000000401f7fe4                RSA_padding_add_PKCS1_type_2
                0x00000000401f80a5                RSA_padding_check_PKCS1_type_2
                0x00000000401f81c0                RSA_verify_PKCS1_PSS
                0x00000000401f8573                RSA_padding_add_PKCS1_PSS
                0x00000000401f884c                RSA_padding_add_SSLv23
                0x00000000401f8920                RSA_padding_check_SSLv23
                0x00000000401f8a80                RSA_padding_add_X931
                0x00000000401f8b36                RSA_padding_check_X931
                0x00000000401f8c52                RSA_X931_hash_id
                0x00000000401f8c94                ASN1_bn_print
                0x00000000401f8e90                X509_ocspid_print
                0x00000000401f9018                X509_signature_print
                0x00000000401f911a                ASN1_STRING_print
                0x00000000401f91d3                ASN1_GENERALIZEDTIME_print
                0x00000000401f9488                ASN1_UTCTIME_print
                0x00000000401f95f4                ASN1_TIME_print
                0x00000000401f962d                X509_print_ex
                0x00000000401f9b71                X509_print
                0x00000000401f9b86                X509_NAME_print
                0x00000000401f9c7c                X509_CERT_AUX_print
                0x00000000401fa21c                UI_free
                0x00000000401fa25b                UI_add_input_string
                0x00000000401fa28c                UI_dup_input_string
                0x00000000401fa334                UI_add_verify_string
                0x00000000401fa365                UI_dup_verify_string
                0x00000000401fa40d                UI_add_input_boolean
                0x00000000401fa437                UI_dup_input_boolean
                0x00000000401fa5df                UI_add_info_string
                0x00000000401fa61c                UI_dup_info_string
                0x00000000401fa6a3                UI_add_error_string
                0x00000000401fa6e0                UI_dup_error_string
                0x00000000401fa767                UI_construct_prompt
                0x00000000401fa897                UI_add_user_data
                0x00000000401fa8a5                UI_get0_user_data
                0x00000000401fa8af                UI_process
                0x00000000401fa9e4                UI_ctrl
                0x00000000401faa71                UI_get_ex_new_index
                0x00000000401faa90                UI_set_ex_data
                0x00000000401faa9f                UI_get_ex_data
                0x00000000401faaae                UI_set_default_method
                0x00000000401faabb                UI_get_default_method
                0x00000000401faade                UI_new_method
                0x00000000401fab6d                UI_new
                0x00000000401fab7d                UI_get_method
                0x00000000401fab86                UI_set_method
                0x00000000401fab92                UI_create_method
                0x00000000401fabeb                UI_destroy_method
                0x00000000401fac15                UI_method_set_opener
                0x00000000401fac30                UI_method_set_writer
                0x00000000401fac4b                UI_method_set_flusher
                0x00000000401fac66                UI_method_set_reader
                0x00000000401fac81                UI_method_set_closer
                0x00000000401fac9c                UI_method_set_prompt_constructor
                0x00000000401facb7                UI_method_get_opener
                0x00000000401faccd                UI_method_get_writer
                0x00000000401face3                UI_method_get_flusher
                0x00000000401facf9                UI_method_get_reader
                0x00000000401fad0f                UI_method_get_closer
                0x00000000401fad25                UI_method_get_prompt_constructor
                0x00000000401fad3b                UI_get_string_type
                0x00000000401fad4d                UI_get_input_flags
                0x00000000401fad60                UI_get0_output_string
                0x00000000401fad76                UI_get0_action_string
                0x00000000401fad9f                UI_get0_result_string
                0x00000000401fadc4                UI_get0_result
                0x00000000401fae56                UI_get0_test_string
                0x00000000401fae76                UI_get_result_minsize
                0x00000000401fae9a                UI_get_result_maxsize
                0x00000000401faebe                UI_set_result
                0x00000000401fb3b4                UI_OpenSSL
                0x00000000401fb3c0                d2i_AUTHORITY_KEYID
                0x00000000401fb3d0                i2d_AUTHORITY_KEYID
                0x00000000401fb3e0                AUTHORITY_KEYID_new
                0x00000000401fb3f0                AUTHORITY_KEYID_free
                0x00000000401fb693                POLICYINFO_free
                0x00000000401fb6a3                d2i_CERTIFICATEPOLICIES
                0x00000000401fb6b3                i2d_CERTIFICATEPOLICIES
                0x00000000401fb6c3                CERTIFICATEPOLICIES_new
                0x00000000401fb6d3                CERTIFICATEPOLICIES_free
                0x00000000401fb6e3                d2i_POLICYINFO
                0x00000000401fb6f3                i2d_POLICYINFO
                0x00000000401fb703                POLICYINFO_new
                0x00000000401fb713                d2i_POLICYQUALINFO
                0x00000000401fb723                i2d_POLICYQUALINFO
                0x00000000401fb733                POLICYQUALINFO_new
                0x00000000401fb743                POLICYQUALINFO_free
                0x00000000401fb753                d2i_USERNOTICE
                0x00000000401fb763                i2d_USERNOTICE
                0x00000000401fb773                USERNOTICE_new
                0x00000000401fb783                USERNOTICE_free
                0x00000000401fb793                d2i_NOTICEREF
                0x00000000401fb7a3                i2d_NOTICEREF
                0x00000000401fb7b3                NOTICEREF_new
                0x00000000401fc0f8                NOTICEREF_free
                0x00000000401fc108                X509_POLICY_NODE_print
                0x00000000401fc740                DIST_POINT_free
                0x00000000401fc750                d2i_DIST_POINT_NAME
                0x00000000401fc760                i2d_DIST_POINT_NAME
                0x00000000401fc770                DIST_POINT_NAME_new
                0x00000000401fc98a                DIST_POINT_NAME_free
                0x00000000401fc99a                d2i_DIST_POINT
                0x00000000401fc9aa                i2d_DIST_POINT
                0x00000000401fc9ba                DIST_POINT_new
                0x00000000401fcc5d                d2i_CRL_DIST_POINTS
                0x00000000401fcc6d                i2d_CRL_DIST_POINTS
                0x00000000401fcc7d                CRL_DIST_POINTS_new
                0x00000000401fcc8d                CRL_DIST_POINTS_free
                0x00000000401fcc9d                d2i_ISSUING_DIST_POINT
                0x00000000401fccad                i2d_ISSUING_DIST_POINT
                0x00000000401fccbd                ISSUING_DIST_POINT_new
                0x00000000401fcccd                ISSUING_DIST_POINT_free
                0x00000000401fceda                DIST_POINT_set_dpname
                0x00000000401fcfc8                i2d_GENERAL_NAME
                0x00000000401fcfd8                d2i_GENERAL_NAME
                0x00000000401fcfe8                d2i_OTHERNAME
                0x00000000401fcff8                i2d_OTHERNAME
                0x00000000401fd008                OTHERNAME_new
                0x00000000401fd018                OTHERNAME_free
                0x00000000401fd028                d2i_EDIPARTYNAME
                0x00000000401fd038                i2d_EDIPARTYNAME
                0x00000000401fd048                EDIPARTYNAME_new
                0x00000000401fd058                EDIPARTYNAME_free
                0x00000000401fd068                GENERAL_NAME_new
                0x00000000401fd078                GENERAL_NAME_free
                0x00000000401fd088                d2i_GENERAL_NAMES
                0x00000000401fd098                i2d_GENERAL_NAMES
                0x00000000401fd0a8                GENERAL_NAMES_new
                0x00000000401fd0b8                GENERAL_NAMES_free
                0x00000000401fd0c8                GENERAL_NAME_dup
                0x00000000401fd0e0                OTHERNAME_cmp
                0x00000000401fd12e                GENERAL_NAME_cmp
                0x00000000401fd1b6                GENERAL_NAME_set0_value
                0x00000000401fd1ee                GENERAL_NAME_get0_value
                0x00000000401fd232                GENERAL_NAME_set0_othername
                0x00000000401fd288                GENERAL_NAME_get0_otherName
                0x00000000401fd8ee                GENERAL_SUBTREE_new
                0x00000000401fd8fe                GENERAL_SUBTREE_free
                0x00000000401fd90e                NAME_CONSTRAINTS_new
                0x00000000401fd91e                NAME_CONSTRAINTS_free
                0x00000000401fdabc                NAME_CONSTRAINTS_check
                0x00000000401fdbee                POLICY_CONSTRAINTS_new
                0x00000000401fdbfe                POLICY_CONSTRAINTS_free
                0x00000000401fde03                POLICY_MAPPING_free
                0x00000000401fde13                POLICY_MAPPING_new
                0x00000000401fe0b7                X509V3_EXT_val_prn
                0x00000000401fe1de                X509V3_EXT_print
                0x00000000401fe3ba                X509V3_extensions_print
                0x00000000401fe8c1                X509_PURPOSE_get_count
                0x00000000401fe8e0                X509_PURPOSE_get0
                0x00000000401fe916                X509_PURPOSE_get_by_sname
                0x00000000401fe956                X509_PURPOSE_get_by_id
                0x00000000401fe996                X509_PURPOSE_set
                0x00000000401fe9f0                X509_PURPOSE_add
                0x00000000401febb9                X509_PURPOSE_cleanup
                0x00000000401fec08                X509_PURPOSE_get_id
                0x00000000401fec10                X509_PURPOSE_get0_name
                0x00000000401fec1a                X509_PURPOSE_get0_sname
                0x00000000401fec24                X509_PURPOSE_get_trust
                0x00000000401fec2d                X509_supported_extension
                0x00000000401ff19e                X509_check_purpose
                0x00000000401ff238                X509_check_ca
                0x00000000401ff293                X509_check_akid
                0x00000000401ff370                X509_check_issued
                0x00000000401ff550                X509V3_conf_free
                0x00000000401ff649                X509V3_add_value
                0x00000000401ff77a                X509V3_add_value_uchar
                0x00000000401ff785                X509V3_add_value_bool
                0x00000000401ff7a5                X509V3_add_value_bool_nf
                0x00000000401ff7be                i2s_ASN1_ENUMERATED
                0x00000000401ff838                i2s_ASN1_INTEGER
                0x00000000401ff8b2                s2i_ASN1_INTEGER
                0x00000000401ff9ef                X509V3_add_value_int
                0x00000000401ffa57                X509V3_get_value_bool
                0x00000000401ffbce                X509V3_get_value_int
                0x00000000401ffc3f                X509V3_parse_list
                0x00000000401ffe72                hex_to_string
                0x00000000401fff39                string_to_hex
                0x00000000402000f6                name_cmp
                0x0000000040200155                X509_email_free
                0x00000000402002c1                X509_REQ_get1_email
                0x0000000040200337                X509_get1_email
                0x0000000040200391                X509_get1_ocsp
                0x0000000040200430                a2i_ipadd
                0x00000000402005a1                a2i_IPADDRESS_NC
                0x0000000040200691                a2i_IPADDRESS
                0x00000000402006ed                X509V3_NAME_from_section
                0x00000000402007e0                X509at_get_attr_count
                0x00000000402007eb                X509at_get_attr_by_OBJ
                0x0000000040200859                X509at_get_attr_by_NID
                0x0000000040200898                X509at_get_attr
                0x00000000402008e3                X509at_delete_attr
                0x000000004020092e                X509at_add1_attr
                0x0000000040200a09                X509_ATTRIBUTE_set1_object
                0x0000000040200a52                X509_ATTRIBUTE_set1_data
                0x0000000040200bda                X509_ATTRIBUTE_create_by_OBJ
                0x0000000040200cae                X509_ATTRIBUTE_create_by_txt
                0x0000000040200d66                X509at_add1_attr_by_txt
                0x0000000040200dbc                X509_ATTRIBUTE_create_by_NID
                0x0000000040200e56                X509at_add1_attr_by_NID
                0x0000000040200eac                X509at_add1_attr_by_OBJ
                0x0000000040200f02                X509_ATTRIBUTE_count
                0x0000000040200f24                X509_ATTRIBUTE_get0_object
                0x0000000040200f39                X509_ATTRIBUTE_get0_type
                0x0000000040200f90                X509_ATTRIBUTE_get0_data
                0x0000000040200ff6                X509at_get0_data_by_OBJ
                0x00000000402010a4                X509_CRL_get_ext_count
                0x00000000402010b6                X509_CRL_get_ext_by_NID
                0x00000000402010c8                X509_CRL_get_ext_by_OBJ
                0x00000000402010da                X509_CRL_get_ext_by_critical
                0x00000000402010ec                X509_CRL_get_ext
                0x00000000402010fe                X509_CRL_delete_ext
                0x0000000040201110                X509_CRL_get_ext_d2i
                0x0000000040201122                X509_CRL_add1_ext_i2d
                0x0000000040201134                X509_CRL_add_ext
                0x000000004020114f                X509_get_ext_count
                0x0000000040201161                X509_get_ext_by_NID
                0x0000000040201173                X509_get_ext_by_OBJ
                0x0000000040201185                X509_get_ext_by_critical
                0x0000000040201197                X509_get_ext
                0x00000000402011a9                X509_delete_ext
                0x00000000402011bb                X509_add_ext
                0x00000000402011d6                X509_get_ext_d2i
                0x00000000402011e8                X509_add1_ext_i2d
                0x00000000402011fa                X509_REVOKED_get_ext_count
                0x0000000040201209                X509_REVOKED_get_ext_by_NID
                0x0000000040201218                X509_REVOKED_get_ext_by_OBJ
                0x0000000040201227                X509_REVOKED_get_ext_by_critical
                0x0000000040201236                X509_REVOKED_get_ext
                0x0000000040201245                X509_REVOKED_delete_ext
                0x0000000040201254                X509_REVOKED_add_ext
                0x000000004020126c                X509_REVOKED_get_ext_d2i
                0x000000004020127b                X509_REVOKED_add1_ext_i2d
                0x00000000402013fe                X509_LOOKUP_new
                0x000000004020146d                X509_LOOKUP_free
                0x00000000402014a1                X509_LOOKUP_init
                0x00000000402014c2                X509_LOOKUP_shutdown
                0x00000000402014e3                X509_LOOKUP_ctrl
                0x000000004020150a                X509_LOOKUP_by_subject
                0x0000000040201531                X509_LOOKUP_by_issuer_serial
                0x0000000040201551                X509_LOOKUP_by_fingerprint
                0x0000000040201571                X509_LOOKUP_by_alias
                0x0000000040201591                X509_STORE_new
                0x0000000040201689                X509_STORE_free
                0x0000000040201719                X509_STORE_add_lookup
                0x00000000402017a1                X509_OBJECT_up_ref_count
                0x00000000402017fb                X509_OBJECT_free_contents
                0x0000000040201823                X509_OBJECT_idx_by_subject
                0x0000000040201833                X509_OBJECT_retrieve_by_subject
                0x000000004020185f                X509_STORE_get_by_subject
                0x0000000040201973                X509_STORE_get1_certs
                0x0000000040201b45                X509_STORE_get1_crls
                0x0000000040201d08                X509_OBJECT_retrieve_match
                0x0000000040201ddb                X509_STORE_add_crl
                0x0000000040201eef                X509_STORE_add_cert
                0x0000000040202003                X509_STORE_CTX_get1_issuer
                0x00000000402021c9                X509_STORE_set_flags
                0x00000000402021d8                X509_STORE_set_depth
                0x00000000402021ec                X509_STORE_set_purpose
                0x00000000402021fb                X509_STORE_set_trust
                0x000000004020220a                X509_STORE_set1_param
                0x0000000040202219                X509_STORE_set_verify_cb
                0x0000000040202230                X509_to_X509_REQ
                0x000000004020233c                X509_REQ_get_pubkey
                0x0000000040202364                X509_REQ_check_private_key
                0x0000000040202499                X509_REQ_extension_nid
                0x00000000402024d8                X509_REQ_get_extension_nids
                0x00000000402024e5                X509_REQ_set_extension_nids
                0x00000000402024f2                X509_REQ_add_extensions_nid
                0x0000000040202615                X509_REQ_add_extensions
                0x0000000040202625                X509_REQ_get_attr_count
                0x0000000040202637                X509_REQ_get_attr_by_NID
                0x0000000040202649                X509_REQ_get_attr_by_OBJ
                0x000000004020265b                X509_REQ_get_attr
                0x000000004020266d                X509_REQ_get_extensions
                0x000000004020276f                X509_REQ_delete_attr
                0x0000000040202781                X509_REQ_add1_attr
                0x000000004020279c                X509_REQ_add1_attr_by_OBJ
                0x00000000402027b7                X509_REQ_add1_attr_by_NID
                0x00000000402027d2                X509_REQ_add1_attr_by_txt
                0x0000000040202975                X509_TRUST_set_default
                0x0000000040202989                X509_TRUST_get_count
                0x00000000402029a8                X509_TRUST_get0
                0x00000000402029dc                X509_TRUST_get_by_id
                0x0000000040202a1c                X509_check_trust
                0x0000000040202a7f                X509_TRUST_set
                0x0000000040202ad9                X509_TRUST_add
                0x0000000040202c85                X509_TRUST_cleanup
                0x0000000040202cd1                X509_TRUST_get_flags
                0x0000000040202cda                X509_TRUST_get0_name
                0x0000000040202ce4                X509_TRUST_get_trust
                0x0000000040202cf0                X509v3_get_ext_count
                0x0000000040202d05                X509v3_get_ext_by_OBJ
                0x0000000040202d73                X509v3_get_ext_by_NID
                0x0000000040202db2                X509v3_get_ext_by_critical
                0x0000000040202e28                X509v3_get_ext
                0x0000000040202e73                X509v3_delete_ext
                0x0000000040202ebe                X509v3_add_ext
                0x0000000040202fc3                X509_EXTENSION_set_object
                0x000000004020300c                X509_EXTENSION_set_critical
                0x000000004020302b                X509_EXTENSION_set_data
                0x0000000040203055                X509_EXTENSION_create_by_OBJ
                0x000000004020312f                X509_EXTENSION_create_by_NID
                0x00000000402031bb                X509_EXTENSION_get_object
                0x00000000402031d0                X509_EXTENSION_get_data
                0x00000000402031e6                X509_EXTENSION_get_critical
                0x0000000040203200                X509_NAME_entry_count
                0x0000000040203218                X509_NAME_get_index_by_OBJ
                0x000000004020328b                X509_NAME_get_index_by_NID
                0x00000000402032ca                X509_NAME_get_entry
                0x0000000040203318                X509_NAME_delete_entry
                0x00000000402033e4                X509_NAME_add_entry
                0x0000000040203558                X509_NAME_ENTRY_set_object
                0x00000000402035c4                X509_NAME_ENTRY_set_data
                0x00000000402036a9                X509_NAME_ENTRY_create_by_OBJ
                0x000000004020375c                X509_NAME_ENTRY_create_by_NID
                0x00000000402037f2                X509_NAME_add_entry_by_NID
                0x0000000040203859                X509_NAME_ENTRY_create_by_txt
                0x0000000040203911                X509_NAME_add_entry_by_txt
                0x0000000040203978                X509_NAME_add_entry_by_OBJ
                0x00000000402039df                X509_NAME_ENTRY_get_object
                0x00000000402039f4                X509_NAME_ENTRY_get_data
                0x0000000040203a0a                X509_NAME_get_text_by_OBJ
                0x0000000040203a8c                X509_NAME_get_text_by_NID
                0x0000000040203adc                X509_REQ_set_version
                0x0000000040203af8                X509_REQ_set_subject_name
                0x0000000040203b19                X509_REQ_set_pubkey
                0x0000000040203b3c                d2i_X509_VAL
                0x0000000040203b4c                i2d_X509_VAL
                0x0000000040203b5c                X509_VAL_new
                0x0000000040203b6c                X509_VAL_free
                0x0000000040203b80                CRYPTO_cbc128_encrypt
                0x0000000040203ccb                CRYPTO_cbc128_decrypt
                0x0000000040204014                CRYPTO_cfb128_encrypt
                0x00000000402042c5                CRYPTO_cfb128_1_encrypt
                0x000000004020438f                CRYPTO_cfb128_8_encrypt
                0x00000000402043fc                CRYPTO_ofb128_encrypt
                0x0000000040204528                i2d_ASN1_BOOLEAN
                0x00000000402045a2                d2i_ASN1_BOOLEAN
                0x00000000402048e0                ASN1_mbstring_ncopy
                0x0000000040204de5                ASN1_mbstring_copy
                0x0000000040204e10                ASN1_PRINTABLE_type
                0x0000000040204ed1                ASN1_UNIVERSALSTRING_to_string
                0x0000000040204fbf                ASN1_STRING_set_default_mask
                0x0000000040204fcc                ASN1_STRING_get_default_mask
                0x0000000040204fd9                ASN1_STRING_set_default_mask_asc
                0x000000004020509c                ASN1_STRING_TABLE_get
                0x0000000040205102                ASN1_STRING_set_by_NID
                0x00000000402051c1                ASN1_STRING_TABLE_add
                0x00000000402052f6                ASN1_STRING_TABLE_cleanup
                0x0000000040205320                ASN1_seq_unpack
                0x0000000040205385                ASN1_seq_pack
                0x0000000040205483                ASN1_unpack_string
                0x00000000402054d6                ASN1_pack_string
                0x00000000402055d8                ASN1_item_pack
                0x00000000402056d1                ASN1_item_unpack
                0x0000000040205728                BN_mod_exp2_mont
                0x0000000040205fb4                BN_kronecker
                0x00000000402062da                BN_get0_nist_prime_192
                0x00000000402062e5                BN_get0_nist_prime_224
                0x00000000402062f0                BN_get0_nist_prime_256
                0x00000000402062fb                BN_get0_nist_prime_384
                0x0000000040206306                BN_get0_nist_prime_521
                0x0000000040206311                BN_nist_mod_192
                0x000000004020657f                BN_nist_mod_224
                0x00000000402068c5                BN_nist_mod_256
                0x0000000040206d5d                BN_nist_mod_384
                0x00000000402072fd                BN_nist_mod_521
                0x00000000402074e0                BN_mod_sqrt
                0x0000000040207e8b                CONF_modules_load
                0x000000004020830c                CONF_modules_finish
                0x0000000040208386                CONF_modules_unload
                0x000000004020843c                CONF_module_add
                0x000000004020845e                CONF_modules_free
                0x0000000040208473                CONF_imodule_get_name
                0x000000004020847d                CONF_imodule_get_value
                0x0000000040208487                CONF_imodule_get_usr_data
                0x0000000040208491                CONF_imodule_set_usr_data
                0x000000004020849b                CONF_imodule_get_module
                0x00000000402084a4                CONF_imodule_get_flags
                0x00000000402084ae                CONF_imodule_set_flags
                0x00000000402084b8                CONF_module_get_usr_data
                0x00000000402084c2                CONF_module_set_usr_data
                0x00000000402084cc                CONF_get1_default_config_file
                0x0000000040208547                CONF_modules_load_file
                0x0000000040208621                CONF_parse_list
                0x0000000040208730                DSO_set_default_method
                0x000000004020873d                DSO_get_default_method
                0x000000004020874a                DSO_get_method
                0x0000000040208753                DSO_set_method
                0x000000004020875f                DSO_new_method
                0x0000000040208852                DSO_new
                0x0000000040208862                DSO_free
                0x0000000040208978                DSO_flags
                0x000000004020898b                DSO_up_ref
                0x00000000402089dd                DSO_bind_var
                0x0000000040208a7b                DSO_bind_func
                0x0000000040208b19                DSO_ctrl
                0x0000000040208bb1                DSO_set_name_converter
                0x0000000040208bf5                DSO_get_filename
                0x0000000040208c28                DSO_set_filename
                0x0000000040208d25                DSO_load
                0x0000000040208ed4                DSO_merge
                0x0000000040208f37                DSO_convert_filename
                0x0000000040209047                DSO_get_loaded_filename
                0x000000004020907a                DSO_pathbyaddr
                0x00000000402090ee                DSO_global_lookup
                0x0000000040209148                DSO_METHOD_openssl
                0x0000000040209160                ec_GF2m_simple_is_at_infinity
                0x0000000040209170                ec_GF2m_simple_points_make_affine
                0x00000000402091d9                ec_GF2m_simple_field_div
                0x00000000402091f4                ec_GF2m_simple_field_sqr
                0x000000004020920f                ec_GF2m_simple_field_mul
                0x000000004020922d                ec_GF2m_simple_point_copy
                0x0000000040209292                ec_GF2m_simple_group_get_curve
                0x000000004020931a                ec_GF2m_simple_point_set_to_infinity
                0x000000004020933a                ec_GF2m_simple_make_affine
                0x000000004020944e                ec_GF2m_simple_cmp
                0x00000000402095eb                ec_GF2m_simple_is_on_curve
                0x0000000040209789                ec_GF2m_simple_invert
                0x00000000402097f3                ec_GF2m_simple_add
                0x0000000040209c0a                ec_GF2m_simple_dbl
                0x0000000040209c1b                ec_GF2m_simple_oct2point
                0x0000000040209fdb                ec_GF2m_simple_group_get_degree
                0x0000000040209fed                ec_GF2m_simple_point2oct
                0x000000004020a39e                ec_GF2m_simple_group_check_discriminant
                0x000000004020a475                ec_GF2m_simple_set_compressed_coordinates
                0x000000004020a709                ec_GF2m_simple_point_get_affine_coordinates
                0x000000004020a7fd                ec_GF2m_simple_point_set_affine_coordinates
                0x000000004020a8dd                ec_GF2m_simple_point_clear_finish
                0x000000004020a912                ec_GF2m_simple_group_clear_finish
                0x000000004020a982                ec_GF2m_simple_point_finish
                0x000000004020a9b0                ec_GF2m_simple_group_finish
                0x000000004020a9e4                ec_GF2m_simple_point_init
                0x000000004020aa17                ec_GF2m_simple_group_init
                0x000000004020aa50                ec_GF2m_simple_group_set_curve
                0x000000004020abfe                ec_GF2m_simple_group_copy
                0x000000004020ad9d                EC_GF2m_simple_method
                0x000000004020ada8                d2i_ECDSA_SIG
                0x000000004020adb8                i2d_ECDSA_SIG
                0x000000004020adc8                ECDSA_SIG_new
                0x000000004020add8                ECDSA_SIG_free
                0x000000004020adfe                ERR_print_errors_cb
                0x000000004020aeee                ERR_print_errors
                0x000000004020af04                PKCS12_item_pack_safebag
                0x000000004020b000                PKCS12_MAKE_KEYBAG
                0x000000004020b05f                PKCS12_MAKE_SHKEYBAG
                0x000000004020b150                PKCS12_pack_p7data
                0x000000004020b214                PKCS12_unpack_p7data
                0x000000004020b269                PKCS12_pack_p7encdata
                0x000000004020b40a                PKCS12_unpack_p7encdata
                0x000000004020b474                PKCS12_decrypt_skey
                0x000000004020b483                PKCS12_pack_authsafes
                0x000000004020b4aa                PKCS12_unpack_authsafes
                0x000000004020b508                d2i_PKCS12
                0x000000004020b518                i2d_PKCS12
                0x000000004020b528                PKCS12_new
                0x000000004020b538                PKCS12_free
                0x000000004020b548                d2i_PKCS12_MAC_DATA
                0x000000004020b558                i2d_PKCS12_MAC_DATA
                0x000000004020b568                PKCS12_MAC_DATA_new
                0x000000004020b578                PKCS12_MAC_DATA_free
                0x000000004020b588                d2i_PKCS12_BAGS
                0x000000004020b598                i2d_PKCS12_BAGS
                0x000000004020b5a8                PKCS12_BAGS_new
                0x000000004020b5b8                PKCS12_BAGS_free
                0x000000004020b5c8                d2i_PKCS12_SAFEBAG
                0x000000004020b5d8                i2d_PKCS12_SAFEBAG
                0x000000004020b5e8                PKCS12_SAFEBAG_new
                0x000000004020b5f8                PKCS12_SAFEBAG_free
                0x000000004020b608                PKCS12_pbe_crypt
                0x000000004020b788                PKCS12_item_decrypt_d2i
                0x000000004020b854                PKCS12_item_i2d_encrypt
                0x000000004020b990                PKCS8_encrypt
                0x000000004020bac8                X509_policy_tree_level_count
                0x000000004020badb                X509_policy_tree_get0_level
                0x000000004020bb0a                X509_policy_tree_get0_policies
                0x000000004020bb20                X509_policy_tree_get0_user_policies
                0x000000004020bb42                X509_policy_level_node_count
                0x000000004020bb79                X509_policy_level_get0_node
                0x000000004020bba4                X509_policy_node_get0_policy
                0x000000004020bbbd                X509_policy_node_get0_qualifiers
                0x000000004020bbd6                X509_policy_node_get0_parent
                0x000000004020bc0b                policy_node_cmp_new
                0x000000004020bc1b                tree_find_sk
                0x000000004020bc57                level_find_node
                0x000000004020bccb                policy_node_free
                0x000000004020bcd6                level_add_node
                0x000000004020bdd2                policy_node_match
                0x000000004020bfd9                i2v_GENERAL_NAME
                0x000000004020c260                i2v_GENERAL_NAMES
                0x000000004020c2c4                GENERAL_NAME_print
                0x000000004020c468                a2i_GENERAL_NAME
                0x000000004020c82c                v2i_GENERAL_NAME_ex
                0x000000004020c999                v2i_GENERAL_NAME
                0x000000004020cce4                v2i_GENERAL_NAMES
                0x000000004020cddd                d2i_BASIC_CONSTRAINTS
                0x000000004020cded                i2d_BASIC_CONSTRAINTS
                0x000000004020cdfd                BASIC_CONSTRAINTS_new
                0x000000004020ce0d                BASIC_CONSTRAINTS_free
                0x000000004020d5a5                X509V3_EXT_nconf
                0x000000004020d67c                X509V3_EXT_nconf_nid
                0x000000004020d70c                X509V3_EXT_i2d
                0x000000004020d776                X509V3_EXT_add_nconf_sk
                0x000000004020d81e                X509V3_EXT_add_nconf
                0x000000004020d83d                X509V3_EXT_CRL_add_nconf
                0x000000004020d85c                X509V3_EXT_REQ_add_nconf
                0x000000004020d8bb                X509V3_get_string
                0x000000004020d906                X509V3_get_section
                0x000000004020d952                X509V3_string_free
                0x000000004020d970                X509V3_section_free
                0x000000004020d98e                X509V3_set_nconf
                0x000000004020d9a0                X509V3_set_ctx
                0x000000004020d9b9                X509V3_EXT_conf
                0x000000004020da02                X509V3_EXT_conf_nid
                0x000000004020da4b                X509V3_set_conf_lhash
                0x000000004020da5d                X509V3_EXT_add_conf
                0x000000004020daa6                X509V3_EXT_CRL_add_conf
                0x000000004020daef                X509V3_EXT_REQ_add_conf
                0x000000004020dc8f                ACCESS_DESCRIPTION_free
                0x000000004020dc9f                d2i_ACCESS_DESCRIPTION
                0x000000004020dcaf                i2d_ACCESS_DESCRIPTION
                0x000000004020dcbf                ACCESS_DESCRIPTION_new
                0x000000004020dee9                d2i_AUTHORITY_INFO_ACCESS
                0x000000004020def9                i2d_AUTHORITY_INFO_ACCESS
                0x000000004020df09                AUTHORITY_INFO_ACCESS_new
                0x000000004020df19                AUTHORITY_INFO_ACCESS_free
                0x000000004020df29                i2a_ACCESS_DESCRIPTION
                0x000000004020df6c                X509V3_EXT_add
                0x000000004020e000                X509V3_EXT_get_nid
                0x000000004020e078                X509V3_EXT_get
                0x000000004020e096                X509V3_EXT_add_list
                0x000000004020e0d4                X509V3_EXT_add_alias
                0x000000004020e1cf                X509V3_EXT_cleanup
                0x000000004020e1f1                X509V3_add_standard_extensions
                0x000000004020e1fc                X509V3_EXT_d2i
                0x000000004020e257                X509V3_get_d2i
                0x000000004020e37f                X509V3_add1_i2d
                0x000000004020f340                d2i_PROXY_POLICY
                0x000000004020f350                i2d_PROXY_POLICY
                0x000000004020f360                PROXY_POLICY_new
                0x000000004020f370                PROXY_POLICY_free
                0x000000004020f380                d2i_PROXY_CERT_INFO_EXTENSION
                0x000000004020f390                i2d_PROXY_CERT_INFO_EXTENSION
                0x000000004020f3a0                PROXY_CERT_INFO_EXTENSION_new
                0x000000004020f3b0                PROXY_CERT_INFO_EXTENSION_free
                0x000000004020f451                d2i_PKEY_USAGE_PERIOD
                0x000000004020f461                i2d_PKEY_USAGE_PERIOD
                0x000000004020f471                PKEY_USAGE_PERIOD_new
                0x000000004020f481                PKEY_USAGE_PERIOD_free
                0x000000004020f4a0                i2s_ASN1_OCTET_STRING
                0x000000004020f4b5                s2i_ASN1_OCTET_STRING
                0x000000004020f767                d2i_SXNETID
                0x000000004020f777                i2d_SXNETID
                0x000000004020f787                SXNETID_new
                0x000000004020f797                SXNETID_free
                0x000000004020f7a7                d2i_SXNET
                0x000000004020f7b7                i2d_SXNET
                0x000000004020f7c7                SXNET_new
                0x000000004020f7d7                SXNET_free
                0x000000004020f7e7                SXNET_get_id_INTEGER
                0x000000004020f846                SXNET_get_id_ulong
                0x000000004020f8d7                SXNET_get_id_asc
                0x000000004020f946                SXNET_add_id_INTEGER
                0x000000004020fb06                SXNET_add_id_ulong
                0x000000004020fba4                SXNET_add_id_asc
                0x000000004020fc78                X509_get_default_private_dir
                0x000000004020fc83                X509_get_default_cert_area
                0x000000004020fc8e                X509_get_default_cert_dir
                0x000000004020fc99                X509_get_default_cert_file
                0x000000004020fca4                X509_get_default_cert_dir_env
                0x000000004020fcaf                X509_get_default_cert_file_env
                0x000000004020fd01                i2d_ASN1_SET
                0x000000004020ff6a                d2i_ASN1_SET
                0x000000004021082f                ASN1_generate_v3
                0x0000000040211161                ASN1_generate_nconf
                0x000000004021136c                BN_GF2m_add
                0x000000004021144a                BN_GF2m_mod_arr
                0x00000000402116e6                BN_GF2m_mod_sqr_arr
                0x000000004021188a                BN_GF2m_mod_mul_arr
                0x0000000040211af0                BN_GF2m_mod_exp_arr
                0x0000000040211c27                BN_GF2m_mod_sqrt_arr
                0x0000000040211ccf                BN_GF2m_mod_solve_quad_arr
                0x0000000040212099                BN_GF2m_poly2arr
                0x0000000040212123                BN_GF2m_mod_solve_quad
                0x00000000402121f0                BN_GF2m_mod_sqrt
                0x00000000402122bd                BN_GF2m_mod_exp
                0x0000000040212392                BN_GF2m_mod_sqr
                0x000000004021245f                BN_GF2m_mod_mul
                0x0000000040212534                BN_GF2m_mod
                0x00000000402125f9                BN_GF2m_mod_inv
                0x00000000402127d9                BN_GF2m_mod_div
                0x0000000040212876                BN_GF2m_arr2poly
                0x00000000402128db                BN_GF2m_mod_div_arr
                0x000000004021296f                BN_GF2m_mod_inv_arr
                0x0000000040212a00                CONF_set_nconf
                0x0000000040212a47                CONF_set_default_method
                0x0000000040212a59                CONF_load
                0x0000000040212a83                NCONF_new
                0x0000000040212ad0                NCONF_free
                0x0000000040212ae1                NCONF_free_data
                0x0000000040212af2                CONF_free
                0x0000000040212b11                NCONF_load
                0x0000000040212b46                NCONF_load_bio
                0x0000000040212b7b                CONF_load_bio
                0x0000000040212bc5                NCONF_get_section
                0x0000000040212c22                CONF_get_section
                0x0000000040212c57                NCONF_get_string
                0x0000000040212cfe                CONF_get_string
                0x0000000040212d45                NCONF_get_number_e
                0x0000000040212de0                CONF_get_number
                0x0000000040212e3e                NCONF_dump_bio
                0x0000000040212e73                CONF_dump_bio
                0x0000000040212ea0                DSO_METHOD_null
                0x000000004021376a                ec_GF2m_simple_mul
                0x00000000402139c5                ec_GF2m_precompute_mult
                0x00000000402139d0                ec_GF2m_have_precompute_mult
                0x00000000402139dc                i2a_ASN1_INTEGER
                0x0000000040213b1d                a2i_ASN1_INTEGER
                0x0000000040213e20                i2a_ASN1_STRING
                0x0000000040213f31                a2i_ASN1_STRING
                0x00000000402141e8                d2i_OCSP_SIGNATURE
                0x00000000402141f8                i2d_OCSP_SIGNATURE
                0x0000000040214208                OCSP_SIGNATURE_new
                0x0000000040214218                OCSP_SIGNATURE_free
                0x0000000040214228                d2i_OCSP_CERTID
                0x0000000040214238                i2d_OCSP_CERTID
                0x0000000040214248                OCSP_CERTID_new
                0x0000000040214258                OCSP_CERTID_free
                0x0000000040214268                d2i_OCSP_ONEREQ
                0x0000000040214278                i2d_OCSP_ONEREQ
                0x0000000040214288                OCSP_ONEREQ_new
                0x0000000040214298                OCSP_ONEREQ_free
                0x00000000402142a8                d2i_OCSP_REQINFO
                0x00000000402142b8                i2d_OCSP_REQINFO
                0x00000000402142c8                OCSP_REQINFO_new
                0x00000000402142d8                OCSP_REQINFO_free
                0x00000000402142e8                d2i_OCSP_REQUEST
                0x00000000402142f8                i2d_OCSP_REQUEST
                0x0000000040214308                OCSP_REQUEST_new
                0x0000000040214318                OCSP_REQUEST_free
                0x0000000040214328                d2i_OCSP_RESPBYTES
                0x0000000040214338                i2d_OCSP_RESPBYTES
                0x0000000040214348                OCSP_RESPBYTES_new
                0x0000000040214358                OCSP_RESPBYTES_free
                0x0000000040214368                d2i_OCSP_RESPONSE
                0x0000000040214378                i2d_OCSP_RESPONSE
                0x0000000040214388                OCSP_RESPONSE_new
                0x0000000040214398                OCSP_RESPONSE_free
                0x00000000402143a8                d2i_OCSP_RESPID
                0x00000000402143b8                i2d_OCSP_RESPID
                0x00000000402143c8                OCSP_RESPID_new
                0x00000000402143d8                OCSP_RESPID_free
                0x00000000402143e8                d2i_OCSP_REVOKEDINFO
                0x00000000402143f8                i2d_OCSP_REVOKEDINFO
                0x0000000040214408                OCSP_REVOKEDINFO_new
                0x0000000040214418                OCSP_REVOKEDINFO_free
                0x0000000040214428                d2i_OCSP_CERTSTATUS
                0x0000000040214438                i2d_OCSP_CERTSTATUS
                0x0000000040214448                OCSP_CERTSTATUS_new
                0x0000000040214458                OCSP_CERTSTATUS_free
                0x0000000040214468                d2i_OCSP_SINGLERESP
                0x0000000040214478                i2d_OCSP_SINGLERESP
                0x0000000040214488                OCSP_SINGLERESP_new
                0x0000000040214498                OCSP_SINGLERESP_free
                0x00000000402144a8                d2i_OCSP_RESPDATA
                0x00000000402144b8                i2d_OCSP_RESPDATA
                0x00000000402144c8                OCSP_RESPDATA_new
                0x00000000402144d8                OCSP_RESPDATA_free
                0x00000000402144e8                d2i_OCSP_BASICRESP
                0x00000000402144f8                i2d_OCSP_BASICRESP
                0x0000000040214508                OCSP_BASICRESP_new
                0x0000000040214518                OCSP_BASICRESP_free
                0x0000000040214528                d2i_OCSP_CRLID
                0x0000000040214538                i2d_OCSP_CRLID
                0x0000000040214548                OCSP_CRLID_new
                0x0000000040214558                OCSP_CRLID_free
                0x0000000040214568                d2i_OCSP_SERVICELOC
                0x0000000040214578                i2d_OCSP_SERVICELOC
                0x0000000040214588                OCSP_SERVICELOC_new
                0x0000000040214598                OCSP_SERVICELOC_free
                0x000000004021495c                v2i_ASN1_BIT_STRING
                0x0000000040214adf                i2v_ASN1_BIT_STRING
                0x0000000040214b34                i2s_ASN1_ENUMERATED_TABLE
                0x0000000040214d00                d2i_EXTENDED_KEY_USAGE
                0x0000000040214d10                i2d_EXTENDED_KEY_USAGE
                0x0000000040214d20                EXTENDED_KEY_USAGE_new
                0x0000000040214d30                EXTENDED_KEY_USAGE_free
                0x0000000040214fa8                _CONF_get_section
                0x0000000040214fdc                _CONF_get_section_values
                0x0000000040214ff7                _CONF_add_string
                0x0000000040215082                _CONF_get_string
                0x0000000040215120                _CONF_new_data
                0x0000000040215162                _CONF_free_data
                0x00000000402151b3                _CONF_new_section
                0x0000000040216141                NCONF_default
                0x000000004021614c                NCONF_WIN32
                0x0000000040216157                codeend = .

.iplt           0x0000000040216160        0x0 load address 0x0000000000216160
 .iplt          0x0000000000000000        0x0 output.o

.rodata         0x0000000040216160    0x34fcc load address 0x0000000000216160
 .rodata        0x0000000040216160    0x34fcc output.o
                0x0000000040224300                BN_version
                0x0000000040224720                DES_SPtrans
                0x0000000040225720                DH_version
                0x0000000040226c00                OSSL_DES_version
                0x0000000040226c40                OSSL_libdes_version
                0x0000000040226d20                EVP_version
                0x0000000040226de0                IDEA_version
                0x0000000040226e20                lh_version
                0x0000000040227460                MD4_version
                0x00000000402274a0                MD5_version
                0x0000000040234020                PEM_version
                0x0000000040234080                PKCS7_ATTR_VERIFY_it
                0x00000000402340c0                PKCS7_ATTR_SIGN_it
                0x0000000040234100                PKCS7_DIGEST_it
                0x0000000040234140                PKCS7_ENCRYPT_it
                0x0000000040234180                PKCS7_SIGN_ENVELOPE_it
                0x00000000402341c0                PKCS7_ENC_CONTENT_it
                0x0000000040234200                PKCS7_RECIP_INFO_it
                0x0000000040234240                PKCS7_ENVELOPE_it
                0x0000000040234280                PKCS7_ISSUER_AND_SERIAL_it
                0x00000000402342c0                PKCS7_SIGNER_INFO_it
                0x0000000040234300                PKCS7_SIGNED_it
                0x0000000040234340                PKCS7_it
                0x0000000040234e00                RC2_version
                0x0000000040234f40                RC4_version
                0x0000000040234f80                RMD160_version
                0x0000000040234fc0                RSAPublicKey_it
                0x0000000040235000                RSAPrivateKey_it
                0x00000000402352a0                RSA_version
                0x00000000402364a0                SHA1_version
                0x00000000402364e0                SHA256_version
                0x0000000040236620                SHA512_version
                0x00000000402368e0                SHA_version
                0x0000000040236920                STACK_version
                0x0000000040236b80                ASN1_SET_ANY_it
                0x0000000040236bc0                ASN1_SEQUENCE_ANY_it
                0x0000000040236c00                ASN1_OCTET_STRING_NDEF_it
                0x0000000040236c40                ASN1_FBOOLEAN_it
                0x0000000040236c80                ASN1_TBOOLEAN_it
                0x0000000040236cc0                ASN1_BOOLEAN_it
                0x0000000040236d00                DIRECTORYSTRING_it
                0x0000000040236d40                DISPLAYTEXT_it
                0x0000000040236d80                ASN1_PRINTABLE_it
                0x0000000040236dc0                ASN1_SEQUENCE_it
                0x0000000040236e00                ASN1_ANY_it
                0x0000000040236e40                ASN1_BMPSTRING_it
                0x0000000040236e80                ASN1_UNIVERSALSTRING_it
                0x0000000040236ec0                ASN1_VISIBLESTRING_it
                0x0000000040236f00                ASN1_GENERALIZEDTIME_it
                0x0000000040236f40                ASN1_UTCTIME_it
                0x0000000040236f80                ASN1_GENERALSTRING_it
                0x0000000040236fc0                ASN1_IA5STRING_it
                0x0000000040237000                ASN1_T61STRING_it
                0x0000000040237040                ASN1_PRINTABLESTRING_it
                0x0000000040237080                ASN1_UTF8STRING_it
                0x00000000402370c0                ASN1_OBJECT_it
                0x0000000040237100                ASN1_NULL_it
                0x0000000040237140                ASN1_OCTET_STRING_it
                0x0000000040237180                ASN1_BIT_STRING_it
                0x00000000402371c0                ASN1_ENUMERATED_it
                0x0000000040237200                ASN1_INTEGER_it
                0x00000000402372e0                X509_version
                0x0000000040237440                X509_ALGORS_it
                0x0000000040237480                X509_ALGOR_it
                0x0000000040237560                X509_ATTRIBUTE_it
                0x00000000402375a0                X509_ATTRIBUTE_SET_it
                0x00000000402376a0                CBIGNUM_it
                0x00000000402376e0                BIGNUM_it
                0x0000000040237720                X509_CRL_it
                0x0000000040237760                X509_CRL_INFO_it
                0x00000000402377a0                X509_REVOKED_it
                0x0000000040237a80                X509_EXTENSIONS_it
                0x0000000040237ac0                X509_EXTENSION_it
                0x0000000040237bc0                ZLONG_it
                0x0000000040237c00                LONG_it
                0x0000000040237c40                X509_NAME_it
                0x0000000040237c80                x509_name_ff
                0x0000000040237cc0                X509_NAME_INTERNAL_it
                0x0000000040237d00                X509_NAME_ENTRIES_it
                0x0000000040237d40                X509_NAME_ENTRY_it
                0x0000000040237e60                X509_PUBKEY_it
                0x0000000040237f40                X509_REQ_it
                0x0000000040237f80                X509_REQ_INFO_it
                0x0000000040238160                X509_SIG_it
                0x0000000040238200                NETSCAPE_SPKI_it
                0x0000000040238240                NETSCAPE_SPKAC_it
                0x0000000040238360                X509_it
                0x00000000402383a0                X509_CINF_it
                0x0000000040238680                X509_CERT_PAIR_it
                0x00000000402386c0                X509_CERT_AUX_it
                0x0000000040238cc0                rsa_pkey_meth
                0x0000000040238da0                dh_pkey_meth
                0x0000000040238e80                dsa_pkey_meth
                0x0000000040238f60                ec_pkey_meth
                0x0000000040239040                hmac_pkey_meth
                0x0000000040239160                rsa_asn1_meths
                0x00000000402392e0                dh_asn1_meth
                0x00000000402393a0                dsa_asn1_meths
                0x0000000040239740                eckey_asn1_meth
                0x0000000040239800                hmac_asn1_meth
                0x000000004023a940                CMS_Receipt_it
                0x000000004023a980                CMS_ReceiptRequest_it
                0x000000004023a9c0                CMS_ReceiptsFrom_it
                0x000000004023aa00                CMS_Attributes_Verify_it
                0x000000004023aa40                CMS_Attributes_Sign_it
                0x000000004023aa80                CMS_ContentInfo_it
                0x000000004023aac0                CMS_CompressedData_it
                0x000000004023ab00                CMS_AuthenticatedData_it
                0x000000004023ab40                CMS_EncryptedData_it
                0x000000004023ab80                CMS_DigestedData_it
                0x000000004023abc0                CMS_EnvelopedData_it
                0x000000004023ac00                CMS_RecipientInfo_it
                0x000000004023ac40                CMS_OtherRecipientInfo_it
                0x000000004023ac80                CMS_PasswordRecipientInfo_it
                0x000000004023acc0                CMS_KEKRecipientInfo_it
                0x000000004023ad00                CMS_KEKIdentifier_it
                0x000000004023ad40                CMS_KeyAgreeRecipientInfo_it
                0x000000004023ad80                CMS_OriginatorIdentifierOrKey_it
                0x000000004023adc0                CMS_OriginatorPublicKey_it
                0x000000004023ae00                CMS_RecipientEncryptedKey_it
                0x000000004023ae40                CMS_KeyAgreeRecipientIdentifier_it
                0x000000004023ae80                CMS_RecipientKeyIdentifier_it
                0x000000004023aec0                CMS_OtherKeyAttribute_it
                0x000000004023af00                CMS_KeyTransRecipientInfo_it
                0x000000004023af40                CMS_EncryptedContentInfo_it
                0x000000004023af80                CMS_OriginatorInfo_it
                0x000000004023afc0                CMS_SignedData_it
                0x000000004023b000                CMS_RevocationInfoChoice_it
                0x000000004023b040                CMS_OtherRevocationInfoFormat_it
                0x000000004023b080                CMS_SignerInfo_it
                0x000000004023b0c0                CMS_EncapsulatedContentInfo_it
                0x000000004023b100                CMS_SignerIdentifier_it
                0x000000004023b140                CMS_CertificateChoices_it
                0x000000004023b180                CMS_OtherCertificateFormat_it
                0x000000004023b1c0                CMS_IssuerAndSerialNumber_it
                0x000000004023ca00                ASN1_TIME_it
                0x000000004023ca80                ASN1_version
                0x000000004023cbe0                BF_version
                0x000000004023ed80                CAST_version
                0x000000004023ee40                CAST_S_table7
                0x000000004023f240                CAST_S_table6
                0x000000004023f640                CAST_S_table5
                0x000000004023fa40                CAST_S_table4
                0x000000004023fe40                CAST_S_table3
                0x0000000040240240                CAST_S_table2
                0x0000000040240640                CAST_S_table1
                0x0000000040240a40                CAST_S_table0
                0x0000000040241080                DHparams_it
                0x0000000040241180                DSAPublicKey_it
                0x00000000402411c0                dsa_pub_internal_it
                0x0000000040241200                DSAparams_it
                0x0000000040241240                DSAPrivateKey_it
                0x0000000040241280                DSA_SIG_it
                0x00000000402416a0                DSA_version
                0x00000000402416e0                EC_PRIVATEKEY_it
                0x0000000040241720                ECPKPARAMETERS_it
                0x0000000040241760                ECPARAMETERS_it
                0x00000000402417a0                X9_62_CURVE_it
                0x00000000402417e0                X9_62_FIELDID_it
                0x0000000040241820                X9_62_CHARACTERISTIC_TWO_it
                0x0000000040241860                X9_62_PENTANOMIAL_it
                0x0000000040245820                ECDH_version
                0x0000000040245c20                ECDSA_version
                0x0000000040245f20                RAND_version
                0x0000000040245f60                NETSCAPE_CERT_SEQUENCE_it
                0x0000000040246040                PBEPARAM_it
                0x00000000402460e0                PBKDF2PARAM_it
                0x0000000040246120                PBE2PARAM_it
                0x0000000040246260                PKCS8_PRIV_KEY_INFO_it
                0x0000000040246420                AUTHORITY_KEYID_it
                0x00000000402464e0                NOTICEREF_it
                0x0000000040246520                USERNOTICE_it
                0x0000000040246560                POLICYQUALINFO_it
                0x00000000402465a0                POLICYINFO_it
                0x00000000402465e0                CERTIFICATEPOLICIES_it
                0x0000000040246620                v3_cpols
                0x0000000040246940                v3_idp
                0x00000000402469c0                ISSUING_DIST_POINT_it
                0x0000000040246a00                CRL_DIST_POINTS_it
                0x0000000040246a40                DIST_POINT_it
                0x0000000040246a80                DIST_POINT_NAME_it
                0x0000000040246ac0                v3_freshest_crl
                0x0000000040246b40                v3_crld
                0x0000000040247000                GENERAL_NAMES_it
                0x0000000040247040                GENERAL_NAME_it
                0x0000000040247080                EDIPARTYNAME_it
                0x00000000402470c0                OTHERNAME_it
                0x0000000040247380                NAME_CONSTRAINTS_it
                0x00000000402473c0                GENERAL_SUBTREE_it
                0x0000000040247400                v3_name_constraints
                0x0000000040247560                POLICY_CONSTRAINTS_it
                0x00000000402475a0                v3_policy_constraints
                0x0000000040247680                POLICY_MAPPINGS_it
                0x00000000402476c0                POLICY_MAPPING_it
                0x0000000040247700                v3_policy_mappings
                0x0000000040247880                X509_VAL_it
                0x0000000040248320                ECDSA_SIG_it
                0x00000000402483c0                PKCS12_AUTHSAFES_it
                0x0000000040248400                PKCS12_SAFEBAGS_it
                0x0000000040248440                PKCS12_SAFEBAG_it
                0x0000000040248480                PKCS12_BAGS_it
                0x00000000402484c0                PKCS12_MAC_DATA_it
                0x0000000040248500                PKCS12_it
                0x0000000040248b40                v3_alt
                0x0000000040248c80                BASIC_CONSTRAINTS_it
                0x0000000040248cc0                v3_bcons
                0x0000000040248da0                AUTHORITY_INFO_ACCESS_it
                0x0000000040248de0                ACCESS_DESCRIPTION_it
                0x0000000040248e20                v3_sinfo
                0x0000000040248ea0                v3_info
                0x0000000040248fc0                v3_ocsp_serviceloc
                0x0000000040249040                v3_ocsp_nocheck
                0x00000000402490c0                v3_ocsp_nonce
                0x0000000040249140                v3_crl_hold
                0x00000000402491c0                v3_crl_invdate
                0x0000000040249240                v3_ocsp_acutoff
                0x00000000402492c0                v3_ocsp_crlid
                0x0000000040249340                v3_pci
                0x00000000402493c0                PROXY_CERT_INFO_EXTENSION_it
                0x0000000040249400                PROXY_POLICY_it
                0x0000000040249500                PKEY_USAGE_PERIOD_it
                0x0000000040249540                v3_pkey_usage_period
                0x0000000040249620                v3_skey_id
                0x00000000402496a0                SXNET_it
                0x00000000402496e0                SXNETID_it
                0x0000000040249720                v3_sxnet
                0x0000000040249d00                CONF_version
                0x0000000040249d40                OCSP_SERVICELOC_it
                0x0000000040249d80                OCSP_CRLID_it
                0x0000000040249dc0                OCSP_BASICRESP_it
                0x0000000040249e00                OCSP_RESPDATA_it
                0x0000000040249e40                OCSP_SINGLERESP_it
                0x0000000040249e80                OCSP_CERTSTATUS_it
                0x0000000040249ec0                OCSP_REVOKEDINFO_it
                0x0000000040249f00                OCSP_RESPID_it
                0x0000000040249f40                OCSP_RESPONSE_it
                0x0000000040249f80                OCSP_RESPBYTES_it
                0x0000000040249fc0                OCSP_REQUEST_it
                0x000000004024a000                OCSP_REQINFO_it
                0x000000004024a040                OCSP_ONEREQ_it
                0x000000004024a080                OCSP_CERTID_it
                0x000000004024a0c0                OCSP_SIGNATURE_it
                0x000000004024a8c0                v3_akey_id
                0x000000004024a940                v3_key_usage
                0x000000004024a9c0                v3_nscert
                0x000000004024aa40                v3_crl_reason
                0x000000004024aac0                EXTENDED_KEY_USAGE_it
                0x000000004024ab00                v3_ocsp_accresp
                0x000000004024ab80                v3_ext_ku
                0x000000004024ac40                v3_ns_ia5_list
                0x000000004024af80                v3_inhibit_anyp
                0x000000004024b000                v3_delta_crl
                0x000000004024b080                v3_crl_num
                0x000000004024b100                CONF_def_version

.rodata.str1.8  0x000000004024b130     0x9888 load address 0x000000000024b130
 .rodata.str1.8
                0x000000004024b130     0x9888 output.o
                                       0x9bad (size before relaxing)

.rodata.str1.1  0x00000000402549b8    0x12c3d load address 0x00000000002549b8
 .rodata.str1.1
                0x00000000402549b8    0x12c3d output.o
                                      0x1505e (size before relaxing)

.eh_frame       0x00000000402675f8    0x371b8 load address 0x00000000002675f8
 .eh_frame      0x00000000402675f8    0x371b8 output.o

.eh_frame_hdr   0x000000004029e7b0        0x8 load address 0x000000000029e7b0
 .eh_frame_hdr  0x000000004029e7b0        0x8 output.o

.note.gnu.build-id
                0x000000004029e7b8      0x288 load address 0x000000000029e7b8
 .note.gnu.build-id
                0x000000004029e7b8      0x288 output.o

.rela.dyn       0x000000004029ea40        0x0 load address 0x000000000029ea40
 .rela.iplt     0x0000000000000000        0x0 output.o
 .rela.text     0x0000000000000000        0x0 output.o

.data           0x000000004029f000  0x9837000 load address 0x000000000029f000
                0x000000004029f000                data = .
 *(.data)
 .data          0x000000004029f000   0x9eaa3c output.o
                0x000000004029f020                config
                0x00000000402af190                use_pae
                0x00000000402af3b0                savemsr_index
                0x00000000402b0000                vmm_pml4
                0x00000000402b1000                vmm_pdp
                0x00000000402b2000                vmm_pd
                0x00000000402b3000                vmm_pd1
                0x00000000402b4000                vmm_pd2
                0x00000000402b5000                guest_int0x15_hook
                0x00000000402b501d                guest_int0x15_e801_fake_ax
                0x00000000402b5020                guest_int0x15_e801_fake_bx
                0x00000000402b5031                guest_int0x15_orig
                0x00000000402b5046                guest_int0x15_e820_data_minus0x18
                0x00000000402b504e                guest_int0x15_e820_end
                0x00000000402b5074                guest_int0x15_hook_end
                0x00000000402b6078                wakeup_entry_start
                0x00000000402b6081                wakeup_entry_addr
                0x00000000402b60a7                wakeup_entry_cr4
                0x00000000402b60b0                wakeup_entry_cr3
                0x00000000402b60b9                wakeup_entry_cr0
                0x00000000402b60c8                wakeup_entry_gdtr
                0x00000000402b60d2                wakeup_entry_end
                0x00000000402b60d4                ept_spinlock
                0x00000000402b6160                ata_bm_handler_table
                0x00000000402b61c0                ata_ctlblk_handler_table
                0x00000000402b61e0                ata_cmdblk_handler_table
                0x00000000402b6c70                usb_log_level
                0x00000000402b7600                hSessionCnt
                0x00000000402b7608                hObjectCnt
                0x00000000402b7e00                g_rgSCardT1Pci
                0x00000000402b7e10                g_rgSCardT0Pci
                0x00000000402b7e20                FI
                0x00000000402b7e60                DI
                0x00000000402bc480                default_pctx
                0x00000000402bf720                rand_ssleay_meth
                0x0000000040c89a40                . = ALIGN (0x8)
 *fill*         0x0000000040c89a3c        0x4 
                0x0000000040c89a40                __initfunc_start = .
 *(.initfunc)
 .initfunc      0x0000000040c89a40      0x640 output.o
                0x0000000040c89a40                __initfunc_acpi_init_paral
                0x0000000040c89a50                __initfunc_acpi_init_global
                0x0000000040c89a60                __initfunc_beep_init_msg
                0x0000000040c89a70                __initfunc_cache_init_pass
                0x0000000040c89a80                __initfunc_cache_init_vcpu
                0x0000000040c89a90                __initfunc_cache_init_pcpu
                0x0000000040c89aa0                __initfunc_callrealmode_panic
                0x0000000040c89ab0                __initfunc_callrealmode_init_global
                0x0000000040c89ac0                __initfunc_cpu_mmu_spt_init_pcpu
                0x0000000040c89ad0                __initfunc_cpu_mmu_spt_init_global
                0x0000000040c89ae0                __initfunc_cpuid_init
                0x0000000040c89af0                __initfunc_cpuid_pass_init
                0x0000000040c89b00                __initfunc_exint_pass_init
                0x0000000040c89b10                __initfunc_gmm_pass_init
                0x0000000040c89b20                __initfunc_install_int0x15_hook
                0x0000000040c89b30                __initfunc_idman_init
                0x0000000040c89b40                __initfunc_idman_init_global
                0x0000000040c89b50                __initfunc_int_wakeup
                0x0000000040c89b60                __initfunc_int_init_global
                0x0000000040c89b70                __initfunc_io_io_init
                0x0000000040c89b80                __initfunc_setiohooks
                0x0000000040c89b90                __initfunc_io_iopass_init
                0x0000000040c89ba0                __initfunc_keyboard_init_msg
                0x0000000040c89bb0                __initfunc_localapic_init
                0x0000000040c89bc0                __initfunc_get_shiftflags
                0x0000000040c89bd0                __initfunc_copy_minios
                0x0000000040c89be0                __initfunc_print_boot_msg
                0x0000000040c89bf0                __initfunc_debug_on_shift_key
                0x0000000040c89c00                __initfunc_create_pass_vm
                0x0000000040c89c10                __initfunc_virtualization_init_pcpu
                0x0000000040c89c20                __initfunc_unmap_user_area
                0x0000000040c89c30                __initfunc_mm_init_global
                0x0000000040c89c40                __initfunc_mmio_debug
                0x0000000040c89c50                __initfunc_mmio_init
                0x0000000040c89c60                __initfunc_msg_init_global
                0x0000000040c89c70                __initfunc_msr_init
                0x0000000040c89c80                __initfunc_msr_pass_init
                0x0000000040c89c90                __initfunc_nmi_pass_init_pcpu
                0x0000000040c89ca0                __initfunc_nmi_pass_init
                0x0000000040c89cb0                __initfunc_panic_init_pcpu
                0x0000000040c89cc0                __initfunc_panic_init_msg
                0x0000000040c89cd0                __initfunc_panic_init_global3
                0x0000000040c89ce0                __initfunc_panic_init_global
                0x0000000040c89cf0                __initfunc_printf_init_global
                0x0000000040c89d00                __initfunc_process_wakeup
                0x0000000040c89d10                __initfunc_process_init_ap
                0x0000000040c89d20                __initfunc_process_init_global
                0x0000000040c89d30                __initfunc_random_init_config0
                0x0000000040c89d40                __initfunc_random_init_global
                0x0000000040c89d50                __initfunc_reboot_init_msg
                0x0000000040c89d60                __initfunc_segment_init_global
                0x0000000040c89d70                __initfunc_serial_init_msg
                0x0000000040c89d80                __initfunc_sleep_init_msg
                0x0000000040c89d90                __initfunc_sleep_init_global
                0x0000000040c89da0                __initfunc_svm_panic
                0x0000000040c89db0                __initfunc_sx_init_pass_init
                0x0000000040c89dc0                __initfunc_thread_init_pcpu
                0x0000000040c89dd0                __initfunc_thread_init_global
                0x0000000040c89de0                __initfunc_time_init_msg
                0x0000000040c89df0                __initfunc_time_init_pcpu
                0x0000000040c89e00                __initfunc_time_init_global_status
                0x0000000040c89e10                __initfunc_time_init_global
                0x0000000040c89e20                __initfunc_timer_init_global
                0x0000000040c89e30                __initfunc_tty_init_msg
                0x0000000040c89e40                __initfunc_tty_init_global2
                0x0000000040c89e50                __initfunc_tty_init_global
                0x0000000040c89e60                __initfunc_vcpu_init_global
                0x0000000040c89e70                __initfunc_vga_init
                0x0000000040c89e80                __initfunc_vmmcall_init
                0x0000000040c89e90                __initfunc_vmmcall_boot_init
                0x0000000040c89ea0                __initfunc_vmmcall_dbgsh_init_pcpu
                0x0000000040c89eb0                __initfunc_vmmcall_dbgsh_init_global
                0x0000000040c89ec0                __initfunc_vmmcall_dbgsh_init
                0x0000000040c89ed0                __initfunc_vmmcall_iccard_init
                0x0000000040c89ee0                __initfunc_vmmcall_log_init
                0x0000000040c89ef0                __initfunc_vmmcall_status_init
                0x0000000040c89f00                __initfunc_vmmcall_status_init_global
                0x0000000040c89f10                __initfunc_vramwrite_init_bsp
                0x0000000040c89f20                __initfunc_vramwrite_init_msg
                0x0000000040c89f30                __initfunc_vt_register_status_callback
                0x0000000040c89f40                __initfunc_vt_panic
                0x0000000040c89f50                __initfunc_xsetbv_init
                0x0000000040c89f60                __initfunc_xsetbv_pass_init
                0x0000000040c89f70                __initfunc_core_init
                0x0000000040c89f80                __initfunc_ieee1394_init_boot
                0x0000000040c89f90                __initfunc_ieee1394_init
                0x0000000040c89fa0                __initfunc_iommu_setup
                0x0000000040c89fb0                __initfunc_pci_init
                0x0000000040c89fc0                __initfunc_debug_ata_init
                0x0000000040c89fd0                __initfunc_ata_init
                0x0000000040c89fe0                __initfunc_uhci_init
                0x0000000040c89ff0                __initfunc_ehci_init
                0x0000000040c8a000                __initfunc_pro100_init
                0x0000000040c8a010                __initfunc_suspend_pro1000
                0x0000000040c8a020                __initfunc_resume_pro1000
                0x0000000040c8a030                __initfunc_vpn_pro1000_init
                0x0000000040c8a040                __initfunc_storage_kernel_init
                0x0000000040c8a050                __initfunc_storage_io_initfunc
                0x0000000040c8a060                __initfunc_vpn_kernel_init
                0x0000000040c8a070                __initfunc_idman_kernel_init
                0x0000000040c8a080                __initfunc_end = .
                0x0000000040c8a080                __process_builtin = .
 *(.processes)
 .processes     0x0000000040c8a080      0x1a0 output.o
                0x0000000040c8a220                __process_builtin_end = .
                0x0000000040c8a220                bss = .
 *(.bss)
 .bss           0x0000000040c8a220  0x8e4a7e0 output.o
                0x0000000040c8da40                vmmsize
                0x0000000040c8da48                memorysize
                0x00000000411914e0                pcpu_default
                0x00000000411aed04                ps2_locked
                0x00000000411af1a8                protecting
                0x00000000411af1b0                syscallHandlerAddress
                0x00000000411af1c0                currentProtectedApplication
                0x00000000411af1c8                numberOfVMs
                0x00000000411af1d0                numberOfProtectedApplications
                0x00000000411af1d8                currentRunningApplication
                0x00000000499af920                syscall_metatata_table
                0x00000000499af940                handler_descriptor
                0x00000000499afb48                drhd_list_head
                0x00000000499b1380                pci_driver_list_head
                0x00000000499b1388                pci_device_list_head
                0x00000000499b1530                uhci_monitor_boost_hc
                0x00000000499b1548                usb_hc_list_head
                0x00000000499b1550                usb_busses_head
                0x00000000499b8e48                rt
                0x0000000049ad2870                hContext
                0x0000000049ad2878                sessionTable
                0x0000000049ad2880                slotTable
                0x0000000049ad2888                slotFlag
                0x0000000049ad2889                libInitFlag
                0x0000000049ad34e0                OPENSSL_NONPIC_relocated
                0x0000000049ad34e8                OPENSSL_ia32cap_P
                0x0000000049ad4128                cleanse_ctr
                0x0000000049ad4188                obj_cleanup_defer
                0x0000000049ad41a8                _shadow_DES_check_key
                0x0000000049ad42a8                app_pkey_methods
                0x0000000049ad4300                chelp_inited
 *(COMMON)
 COMMON         0x0000000049ad4a00     0x12c4 output.o
                0x0000000049ad4a00                clflush_size
                0x0000000049ad4a20                sReaderContext
                0x0000000049ad4a80                sigx_app
                0x0000000049ad4a88                num_dom
                0x0000000049ad4aa0                mszReaders
                0x0000000049ad4ea0                zero_page_pool
                0x0000000049ad52a0                prohibit_iccard_init
                0x0000000049ad52a8                curthread
                0x0000000049ad52b0                sig_app
                0x0000000049ad52c0                readerState
                0x0000000049ad5340                dom_io
                0x0000000049ad5b40                acpi_dsdt_system_state
                0x0000000049ad5b60                ehci_host
                0x0000000049ad5b68                num_of_processors
                0x0000000049ad5b6c                e801_fake_bx
                0x0000000049ad5b6e                iommu_detected
                0x0000000049ad5b70                dwReaders
                0x0000000049ad5b80                readerTracker
                0x0000000049ad5cc0                handler_descriptor_lock
                0x0000000049ad5cc2                e801_fake_ax
                0x0000000049ad6000                . = ALIGN (0x1000)
 *fill*         0x0000000049ad5cc4      0x33c 

.igot.plt       0x0000000049ad6000        0x0 load address 0x0000000009ad6000
 .igot.plt      0x0000000000000000        0x0 output.o
                0x0000000049ad6000                . = ALIGN (0x1000)
                0x0000000049ad6000                PAGE_POOL_START = .
                0x0000000049ed6000                . = (PAGE_POOL_START + 0x400000)
                0x0000000049ed6000                end = .

/DISCARD/
 *(.gomi)
LOAD output.o
OUTPUT(bitvisor.elf elf64-x86-64)

.comment        0x0000000000000000       0x55
 .comment       0x0000000000000000       0x55 output.o
                                       0x5e74 (size before relaxing)

.note.GNU-stack
                0x0000000000000000        0x0
 .note.GNU-stack
                0x0000000000000000        0x0 output.o

.debug_aranges  0x0000000000000000     0x6a80
 .debug_aranges
                0x0000000000000000     0x6a80 output.o

.debug_info     0x0000000000000000   0x2c6bf5
 .debug_info    0x0000000000000000   0x2c6bf5 output.o

.debug_abbrev   0x0000000000000000    0x49ab4
 .debug_abbrev  0x0000000000000000    0x49ab4 output.o

.debug_line     0x0000000000000000    0x4e7d4
 .debug_line    0x0000000000000000    0x4e7d4 output.o

.debug_str      0x0000000000000000    0x370d3
 .debug_str     0x0000000000000000    0x370d3 output.o
                                     0x1319fa (size before relaxing)

.debug_loc      0x0000000000000000   0x244c95
 .debug_loc     0x0000000000000000   0x244c95 output.o

.debug_ranges   0x0000000000000000     0x63a0
 .debug_ranges  0x0000000000000000     0x63a0 output.o

Cross Reference Table

Symbol                                            File
ACCESS_DESCRIPTION_free                           output.o
ACCESS_DESCRIPTION_it                             output.o
ACCESS_DESCRIPTION_new                            output.o
AES_cbc_encrypt                                   output.o
AES_cfb128_encrypt                                output.o
AES_cfb1_encrypt                                  output.o
AES_cfb8_encrypt                                  output.o
AES_decrypt                                       output.o
AES_ecb_encrypt                                   output.o
AES_encrypt                                       output.o
AES_ofb128_encrypt                                output.o
AES_set_decrypt_key                               output.o
AES_set_encrypt_key                               output.o
AES_unwrap_key                                    output.o
AES_wrap_key                                      output.o
ASN1_ANY_it                                       output.o
ASN1_BIT_STRING_check                             output.o
ASN1_BIT_STRING_free                              output.o
ASN1_BIT_STRING_get_bit                           output.o
ASN1_BIT_STRING_it                                output.o
ASN1_BIT_STRING_new                               output.o
ASN1_BIT_STRING_set                               output.o
ASN1_BIT_STRING_set_bit                           output.o
ASN1_BMPSTRING_free                               output.o
ASN1_BMPSTRING_it                                 output.o
ASN1_BMPSTRING_new                                output.o
ASN1_BOOLEAN_it                                   output.o
ASN1_ENUMERATED_free                              output.o
ASN1_ENUMERATED_get                               output.o
ASN1_ENUMERATED_it                                output.o
ASN1_ENUMERATED_new                               output.o
ASN1_ENUMERATED_set                               output.o
ASN1_ENUMERATED_to_BN                             output.o
ASN1_FBOOLEAN_it                                  output.o
ASN1_GENERALIZEDTIME_adj                          output.o
ASN1_GENERALIZEDTIME_check                        output.o
ASN1_GENERALIZEDTIME_free                         output.o
ASN1_GENERALIZEDTIME_it                           output.o
ASN1_GENERALIZEDTIME_new                          output.o
ASN1_GENERALIZEDTIME_print                        output.o
ASN1_GENERALIZEDTIME_set                          output.o
ASN1_GENERALIZEDTIME_set_string                   output.o
ASN1_GENERALSTRING_free                           output.o
ASN1_GENERALSTRING_it                             output.o
ASN1_GENERALSTRING_new                            output.o
ASN1_IA5STRING_free                               output.o
ASN1_IA5STRING_it                                 output.o
ASN1_IA5STRING_new                                output.o
ASN1_INTEGER_cmp                                  output.o
ASN1_INTEGER_dup                                  output.o
ASN1_INTEGER_free                                 output.o
ASN1_INTEGER_get                                  output.o
ASN1_INTEGER_it                                   output.o
ASN1_INTEGER_new                                  output.o
ASN1_INTEGER_set                                  output.o
ASN1_INTEGER_to_BN                                output.o
ASN1_NULL_free                                    output.o
ASN1_NULL_it                                      output.o
ASN1_NULL_new                                     output.o
ASN1_OBJECT_create                                output.o
ASN1_OBJECT_free                                  output.o
ASN1_OBJECT_it                                    output.o
ASN1_OBJECT_new                                   output.o
ASN1_OCTET_STRING_NDEF_it                         output.o
ASN1_OCTET_STRING_cmp                             output.o
ASN1_OCTET_STRING_dup                             output.o
ASN1_OCTET_STRING_free                            output.o
ASN1_OCTET_STRING_it                              output.o
ASN1_OCTET_STRING_new                             output.o
ASN1_OCTET_STRING_set                             output.o
ASN1_PCTX_free                                    output.o
ASN1_PCTX_get_cert_flags                          output.o
ASN1_PCTX_get_flags                               output.o
ASN1_PCTX_get_nm_flags                            output.o
ASN1_PCTX_get_oid_flags                           output.o
ASN1_PCTX_get_str_flags                           output.o
ASN1_PCTX_new                                     output.o
ASN1_PCTX_set_cert_flags                          output.o
ASN1_PCTX_set_flags                               output.o
ASN1_PCTX_set_nm_flags                            output.o
ASN1_PCTX_set_oid_flags                           output.o
ASN1_PCTX_set_str_flags                           output.o
ASN1_PRINTABLESTRING_free                         output.o
ASN1_PRINTABLESTRING_it                           output.o
ASN1_PRINTABLESTRING_new                          output.o
ASN1_PRINTABLE_free                               output.o
ASN1_PRINTABLE_it                                 output.o
ASN1_PRINTABLE_new                                output.o
ASN1_PRINTABLE_type                               output.o
ASN1_SEQUENCE_ANY_it                              output.o
ASN1_SEQUENCE_it                                  output.o
ASN1_SET_ANY_it                                   output.o
ASN1_STRING_TABLE_add                             output.o
ASN1_STRING_TABLE_cleanup                         output.o
ASN1_STRING_TABLE_get                             output.o
ASN1_STRING_cmp                                   output.o
ASN1_STRING_copy                                  output.o
ASN1_STRING_data                                  output.o
ASN1_STRING_dup                                   output.o
ASN1_STRING_free                                  output.o
ASN1_STRING_get_default_mask                      output.o
ASN1_STRING_length                                output.o
ASN1_STRING_length_set                            output.o
ASN1_STRING_new                                   output.o
ASN1_STRING_print                                 output.o
ASN1_STRING_print_ex                              output.o
ASN1_STRING_set                                   output.o
ASN1_STRING_set0                                  output.o
ASN1_STRING_set_by_NID                            output.o
ASN1_STRING_set_default_mask                      output.o
ASN1_STRING_set_default_mask_asc                  output.o
ASN1_STRING_to_UTF8                               output.o
ASN1_STRING_type                                  output.o
ASN1_STRING_type_new                              output.o
ASN1_T61STRING_free                               output.o
ASN1_T61STRING_it                                 output.o
ASN1_T61STRING_new                                output.o
ASN1_TBOOLEAN_it                                  output.o
ASN1_TIME_adj                                     output.o
ASN1_TIME_check                                   output.o
ASN1_TIME_free                                    output.o
ASN1_TIME_it                                      output.o
ASN1_TIME_new                                     output.o
ASN1_TIME_print                                   output.o
ASN1_TIME_set                                     output.o
ASN1_TIME_set_string                              output.o
ASN1_TIME_to_generalizedtime                      output.o
ASN1_TYPE_cmp                                     output.o
ASN1_TYPE_free                                    output.o
ASN1_TYPE_get                                     output.o
ASN1_TYPE_get_int_octetstring                     output.o
ASN1_TYPE_get_octetstring                         output.o
ASN1_TYPE_new                                     output.o
ASN1_TYPE_set                                     output.o
ASN1_TYPE_set1                                    output.o
ASN1_TYPE_set_int_octetstring                     output.o
ASN1_TYPE_set_octetstring                         output.o
ASN1_UNIVERSALSTRING_free                         output.o
ASN1_UNIVERSALSTRING_it                           output.o
ASN1_UNIVERSALSTRING_new                          output.o
ASN1_UNIVERSALSTRING_to_string                    output.o
ASN1_UTCTIME_adj                                  output.o
ASN1_UTCTIME_check                                output.o
ASN1_UTCTIME_cmp_time_t                           output.o
ASN1_UTCTIME_free                                 output.o
ASN1_UTCTIME_it                                   output.o
ASN1_UTCTIME_new                                  output.o
ASN1_UTCTIME_print                                output.o
ASN1_UTCTIME_set                                  output.o
ASN1_UTCTIME_set_string                           output.o
ASN1_UTF8STRING_free                              output.o
ASN1_UTF8STRING_it                                output.o
ASN1_UTF8STRING_new                               output.o
ASN1_VISIBLESTRING_free                           output.o
ASN1_VISIBLESTRING_it                             output.o
ASN1_VISIBLESTRING_new                            output.o
ASN1_bn_print                                     output.o
ASN1_check_infinite_end                           output.o
ASN1_const_check_infinite_end                     output.o
ASN1_d2i_bio                                      output.o
ASN1_digest                                       output.o
ASN1_dup                                          output.o
ASN1_generate_nconf                               output.o
ASN1_generate_v3                                  output.o
ASN1_get_object                                   output.o
ASN1_i2d_bio                                      output.o
ASN1_item_d2i                                     output.o
ASN1_item_d2i_bio                                 output.o
ASN1_item_digest                                  output.o
ASN1_item_dup                                     output.o
ASN1_item_ex_d2i                                  output.o
ASN1_item_ex_free                                 output.o
ASN1_item_ex_i2d                                  output.o
ASN1_item_ex_new                                  output.o
ASN1_item_free                                    output.o
ASN1_item_i2d                                     output.o
ASN1_item_i2d_bio                                 output.o
ASN1_item_ndef_i2d                                output.o
ASN1_item_new                                     output.o
ASN1_item_pack                                    output.o
ASN1_item_print                                   output.o
ASN1_item_sign                                    output.o
ASN1_item_unpack                                  output.o
ASN1_item_verify                                  output.o
ASN1_mbstring_copy                                output.o
ASN1_mbstring_ncopy                               output.o
ASN1_object_size                                  output.o
ASN1_pack_string                                  output.o
ASN1_parse                                        output.o
ASN1_parse_dump                                   output.o
ASN1_primitive_free                               output.o
ASN1_primitive_new                                output.o
ASN1_put_eoc                                      output.o
ASN1_put_object                                   output.o
ASN1_seq_pack                                     output.o
ASN1_seq_unpack                                   output.o
ASN1_sign                                         output.o
ASN1_tag2bit                                      output.o
ASN1_tag2str                                      output.o
ASN1_template_d2i                                 output.o
ASN1_template_free                                output.o
ASN1_template_i2d                                 output.o
ASN1_template_new                                 output.o
ASN1_unpack_string                                output.o
ASN1_verify                                       output.o
ASN1_version                                      output.o
AUTHORITY_INFO_ACCESS_free                        output.o
AUTHORITY_INFO_ACCESS_it                          output.o
AUTHORITY_INFO_ACCESS_new                         output.o
AUTHORITY_KEYID_free                              output.o
AUTHORITY_KEYID_it                                output.o
AUTHORITY_KEYID_new                               output.o
AddCertDataByBuf                                  output.o
AddElem                                           output.o
AddIdPassDataByBuf                                output.o
AddObjTblByTlv                                    output.o
BASIC_CONSTRAINTS_free                            output.o
BASIC_CONSTRAINTS_it                              output.o
BASIC_CONSTRAINTS_new                             output.o
BF_cbc_encrypt                                    output.o
BF_cfb64_encrypt                                  output.o
BF_decrypt                                        output.o
BF_ecb_encrypt                                    output.o
BF_encrypt                                        output.o
BF_ofb64_encrypt                                  output.o
BF_options                                        output.o
BF_set_key                                        output.o
BF_version                                        output.o
BIGNUM_it                                         output.o
BIO_asn1_get_prefix                               output.o
BIO_asn1_get_suffix                               output.o
BIO_asn1_set_prefix                               output.o
BIO_asn1_set_suffix                               output.o
BIO_callback_ctrl                                 output.o
BIO_clear_flags                                   output.o
BIO_copy_next_retry                               output.o
BIO_ctrl                                          output.o
BIO_ctrl_pending                                  output.o
BIO_ctrl_wpending                                 output.o
BIO_dump                                          output.o
BIO_dump_cb                                       output.o
BIO_dump_indent                                   output.o
BIO_dump_indent_cb                                output.o
BIO_dup_chain                                     output.o
BIO_f_asn1                                        output.o
BIO_f_base64                                      output.o
BIO_f_buffer                                      output.o
BIO_f_cipher                                      output.o
BIO_f_md                                          output.o
BIO_find_type                                     output.o
BIO_free                                          output.o
BIO_free_all                                      output.o
BIO_get_callback                                  output.o
BIO_get_callback_arg                              output.o
BIO_get_ex_data                                   output.o
BIO_get_ex_new_index                              output.o
BIO_get_retry_BIO                                 output.o
BIO_get_retry_reason                              output.o
BIO_gets                                          output.o
BIO_indent                                        output.o
BIO_int_ctrl                                      output.o
BIO_method_name                                   output.o
BIO_method_type                                   output.o
BIO_new                                           output.o
BIO_new_CMS                                       output.o
BIO_new_NDEF                                      output.o
BIO_new_mem_buf                                   output.o
BIO_next                                          output.o
BIO_number_read                                   output.o
BIO_number_written                                output.o
BIO_pop                                           output.o
BIO_printf                                        output.o
BIO_ptr_ctrl                                      output.o
BIO_push                                          output.o
BIO_puts                                          output.o
BIO_read                                          output.o
BIO_s_mem                                         output.o
BIO_s_null                                        output.o
BIO_set                                           output.o
BIO_set_callback                                  output.o
BIO_set_callback_arg                              output.o
BIO_set_cipher                                    output.o
BIO_set_ex_data                                   output.o
BIO_set_flags                                     output.o
BIO_snprintf                                      output.o
BIO_test_flags                                    output.o
BIO_vfree                                         output.o
BIO_write                                         output.o
BN_BLINDING_convert                               output.o
BN_BLINDING_convert_ex                            output.o
BN_BLINDING_create_param                          output.o
BN_BLINDING_free                                  output.o
BN_BLINDING_get_flags                             output.o
BN_BLINDING_get_thread_id                         output.o
BN_BLINDING_invert                                output.o
BN_BLINDING_invert_ex                             output.o
BN_BLINDING_new                                   output.o
BN_BLINDING_set_flags                             output.o
BN_BLINDING_set_thread_id                         output.o
BN_BLINDING_thread_id                             output.o
BN_BLINDING_update                                output.o
BN_CTX_end                                        output.o
BN_CTX_free                                       output.o
BN_CTX_get                                        output.o
BN_CTX_init                                       output.o
BN_CTX_new                                        output.o
BN_CTX_start                                      output.o
BN_GENCB_call                                     output.o
BN_GF2m_add                                       output.o
BN_GF2m_arr2poly                                  output.o
BN_GF2m_mod                                       output.o
BN_GF2m_mod_arr                                   output.o
BN_GF2m_mod_div                                   output.o
BN_GF2m_mod_div_arr                               output.o
BN_GF2m_mod_exp                                   output.o
BN_GF2m_mod_exp_arr                               output.o
BN_GF2m_mod_inv                                   output.o
BN_GF2m_mod_inv_arr                               output.o
BN_GF2m_mod_mul                                   output.o
BN_GF2m_mod_mul_arr                               output.o
BN_GF2m_mod_solve_quad                            output.o
BN_GF2m_mod_solve_quad_arr                        output.o
BN_GF2m_mod_sqr                                   output.o
BN_GF2m_mod_sqr_arr                               output.o
BN_GF2m_mod_sqrt                                  output.o
BN_GF2m_mod_sqrt_arr                              output.o
BN_GF2m_poly2arr                                  output.o
BN_MONT_CTX_copy                                  output.o
BN_MONT_CTX_free                                  output.o
BN_MONT_CTX_init                                  output.o
BN_MONT_CTX_new                                   output.o
BN_MONT_CTX_set                                   output.o
BN_MONT_CTX_set_locked                            output.o
BN_RECP_CTX_free                                  output.o
BN_RECP_CTX_init                                  output.o
BN_RECP_CTX_new                                   output.o
BN_RECP_CTX_set                                   output.o
BN_add                                            output.o
BN_add_word                                       output.o
BN_asc2bn                                         output.o
BN_bin2bn                                         output.o
BN_bn2bin                                         output.o
BN_bn2dec                                         output.o
BN_bn2hex                                         output.o
BN_bntest_rand                                    output.o
BN_clear                                          output.o
BN_clear_bit                                      output.o
BN_clear_free                                     output.o
BN_cmp                                            output.o
BN_copy                                           output.o
BN_dec2bn                                         output.o
BN_div                                            output.o
BN_div_recp                                       output.o
BN_div_word                                       output.o
BN_dup                                            output.o
BN_exp                                            output.o
BN_free                                           output.o
BN_from_montgomery                                output.o
BN_gcd                                            output.o
BN_generate_prime_ex                              output.o
BN_get0_nist_prime_192                            output.o
BN_get0_nist_prime_224                            output.o
BN_get0_nist_prime_256                            output.o
BN_get0_nist_prime_384                            output.o
BN_get0_nist_prime_521                            output.o
BN_get_params                                     output.o
BN_get_word                                       output.o
BN_hex2bn                                         output.o
BN_init                                           output.o
BN_is_bit_set                                     output.o
BN_is_prime_ex                                    output.o
BN_is_prime_fasttest_ex                           output.o
BN_kronecker                                      output.o
BN_lshift                                         output.o
BN_lshift1                                        output.o
BN_mask_bits                                      output.o
BN_mod_add                                        output.o
BN_mod_add_quick                                  output.o
BN_mod_exp                                        output.o
BN_mod_exp2_mont                                  output.o
BN_mod_exp_mont                                   output.o
BN_mod_exp_mont_consttime                         output.o
BN_mod_exp_mont_word                              output.o
BN_mod_exp_recp                                   output.o
BN_mod_exp_simple                                 output.o
BN_mod_inverse                                    output.o
BN_mod_lshift                                     output.o
BN_mod_lshift1                                    output.o
BN_mod_lshift1_quick                              output.o
BN_mod_lshift_quick                               output.o
BN_mod_mul                                        output.o
BN_mod_mul_montgomery                             output.o
BN_mod_mul_reciprocal                             output.o
BN_mod_sqr                                        output.o
BN_mod_sqrt                                       output.o
BN_mod_sub                                        output.o
BN_mod_sub_quick                                  output.o
BN_mod_word                                       output.o
BN_mul                                            output.o
BN_mul_word                                       output.o
BN_new                                            output.o
BN_nist_mod_192                                   output.o
BN_nist_mod_224                                   output.o
BN_nist_mod_256                                   output.o
BN_nist_mod_384                                   output.o
BN_nist_mod_521                                   output.o
BN_nnmod                                          output.o
BN_num_bits                                       output.o
BN_num_bits_word                                  output.o
BN_options                                        output.o
BN_print                                          output.o
BN_pseudo_rand                                    output.o
BN_pseudo_rand_range                              output.o
BN_rand                                           output.o
BN_rand_range                                     output.o
BN_reciprocal                                     output.o
BN_rshift                                         output.o
BN_rshift1                                        output.o
BN_set_bit                                        output.o
BN_set_negative                                   output.o
BN_set_params                                     output.o
BN_set_word                                       output.o
BN_sqr                                            output.o
BN_sub                                            output.o
BN_sub_word                                       output.o
BN_swap                                           output.o
BN_to_ASN1_ENUMERATED                             output.o
BN_to_ASN1_INTEGER                                output.o
BN_uadd                                           output.o
BN_ucmp                                           output.o
BN_usub                                           output.o
BN_value_one                                      output.o
BN_version                                        output.o
BUF_MEM_free                                      output.o
BUF_MEM_grow                                      output.o
BUF_MEM_grow_clean                                output.o
BUF_MEM_new                                       output.o
BUF_memdup                                        output.o
BUF_reverse                                       output.o
BUF_strdup                                        output.o
BUF_strlcat                                       output.o
BUF_strlcpy                                       output.o
BUF_strndup                                       output.o
BlockSendCardT1                                   output.o
CAST_S_table0                                     output.o
CAST_S_table1                                     output.o
CAST_S_table2                                     output.o
CAST_S_table3                                     output.o
CAST_S_table4                                     output.o
CAST_S_table5                                     output.o
CAST_S_table6                                     output.o
CAST_S_table7                                     output.o
CAST_cbc_encrypt                                  output.o
CAST_cfb64_encrypt                                output.o
CAST_decrypt                                      output.o
CAST_ecb_encrypt                                  output.o
CAST_encrypt                                      output.o
CAST_ofb64_encrypt                                output.o
CAST_set_key                                      output.o
CAST_version                                      output.o
CBIGNUM_it                                        output.o
CERTIFICATEPOLICIES_free                          output.o
CERTIFICATEPOLICIES_it                            output.o
CERTIFICATEPOLICIES_new                           output.o
CMS_Attributes_Sign_it                            output.o
CMS_Attributes_Verify_it                          output.o
CMS_AuthenticatedData_it                          output.o
CMS_CertificateChoices_it                         output.o
CMS_CompressedData_it                             output.o
CMS_ContentInfo_free                              output.o
CMS_ContentInfo_it                                output.o
CMS_ContentInfo_new                               output.o
CMS_ContentInfo_print_ctx                         output.o
CMS_DigestedData_it                               output.o
CMS_EncapsulatedContentInfo_it                    output.o
CMS_EncryptedContentInfo_it                       output.o
CMS_EncryptedData_it                              output.o
CMS_EncryptedData_set1_key                        output.o
CMS_EnvelopedData_create                          output.o
CMS_EnvelopedData_it                              output.o
CMS_IssuerAndSerialNumber_it                      output.o
CMS_KEKIdentifier_it                              output.o
CMS_KEKRecipientInfo_it                           output.o
CMS_KeyAgreeRecipientIdentifier_it                output.o
CMS_KeyAgreeRecipientInfo_it                      output.o
CMS_KeyTransRecipientInfo_it                      output.o
CMS_OriginatorIdentifierOrKey_it                  output.o
CMS_OriginatorInfo_it                             output.o
CMS_OriginatorPublicKey_it                        output.o
CMS_OtherCertificateFormat_it                     output.o
CMS_OtherKeyAttribute_it                          output.o
CMS_OtherRecipientInfo_it                         output.o
CMS_OtherRevocationInfoFormat_it                  output.o
CMS_PasswordRecipientInfo_it                      output.o
CMS_ReceiptRequest_it                             output.o
CMS_Receipt_it                                    output.o
CMS_ReceiptsFrom_it                               output.o
CMS_RecipientEncryptedKey_it                      output.o
CMS_RecipientInfo_decrypt                         output.o
CMS_RecipientInfo_it                              output.o
CMS_RecipientInfo_kekri_get0_id                   output.o
CMS_RecipientInfo_kekri_id_cmp                    output.o
CMS_RecipientInfo_ktri_cert_cmp                   output.o
CMS_RecipientInfo_ktri_get0_algs                  output.o
CMS_RecipientInfo_ktri_get0_signer_id             output.o
CMS_RecipientInfo_set0_key                        output.o
CMS_RecipientInfo_set0_pkey                       output.o
CMS_RecipientInfo_type                            output.o
CMS_RecipientKeyIdentifier_it                     output.o
CMS_RevocationInfoChoice_it                       output.o
CMS_SignedData_init                               output.o
CMS_SignedData_it                                 output.o
CMS_SignerIdentifier_it                           output.o
CMS_SignerInfo_cert_cmp                           output.o
CMS_SignerInfo_get0_algs                          output.o
CMS_SignerInfo_get0_signer_id                     output.o
CMS_SignerInfo_it                                 output.o
CMS_SignerInfo_set1_signer_cert                   output.o
CMS_SignerInfo_sign                               output.o
CMS_SignerInfo_verify                             output.o
CMS_SignerInfo_verify_content                     output.o
CMS_add0_CertificateChoices                       output.o
CMS_add0_RevocationInfoChoice                     output.o
CMS_add0_cert                                     output.o
CMS_add0_crl                                      output.o
CMS_add0_recipient_key                            output.o
CMS_add1_cert                                     output.o
CMS_add1_crl                                      output.o
CMS_add1_recipient_cert                           output.o
CMS_add1_signer                                   output.o
CMS_add_simple_smimecap                           output.o
CMS_add_smimecap                                  output.o
CMS_add_standard_smimecap                         output.o
CMS_dataFinal                                     output.o
CMS_dataInit                                      output.o
CMS_get0_RecipientInfos                           output.o
CMS_get0_SignerInfos                              output.o
CMS_get0_content                                  output.o
CMS_get0_eContentType                             output.o
CMS_get0_signers                                  output.o
CMS_get0_type                                     output.o
CMS_get1_certs                                    output.o
CMS_get1_crls                                     output.o
CMS_is_detached                                   output.o
CMS_set1_eContentType                             output.o
CMS_set1_signers_certs                            output.o
CMS_set_detached                                  output.o
CMS_signed_add1_attr                              output.o
CMS_signed_add1_attr_by_NID                       output.o
CMS_signed_add1_attr_by_OBJ                       output.o
CMS_signed_add1_attr_by_txt                       output.o
CMS_signed_delete_attr                            output.o
CMS_signed_get0_data_by_OBJ                       output.o
CMS_signed_get_attr                               output.o
CMS_signed_get_attr_by_NID                        output.o
CMS_signed_get_attr_by_OBJ                        output.o
CMS_signed_get_attr_count                         output.o
CMS_stream                                        output.o
CMS_unsigned_add1_attr                            output.o
CMS_unsigned_add1_attr_by_NID                     output.o
CMS_unsigned_add1_attr_by_OBJ                     output.o
CMS_unsigned_add1_attr_by_txt                     output.o
CMS_unsigned_delete_attr                          output.o
CMS_unsigned_get0_data_by_OBJ                     output.o
CMS_unsigned_get_attr                             output.o
CMS_unsigned_get_attr_by_NID                      output.o
CMS_unsigned_get_attr_by_OBJ                      output.o
CMS_unsigned_get_attr_count                       output.o
CONF_def_version                                  output.o
CONF_dump_bio                                     output.o
CONF_free                                         output.o
CONF_get1_default_config_file                     output.o
CONF_get_number                                   output.o
CONF_get_section                                  output.o
CONF_get_string                                   output.o
CONF_imodule_get_flags                            output.o
CONF_imodule_get_module                           output.o
CONF_imodule_get_name                             output.o
CONF_imodule_get_usr_data                         output.o
CONF_imodule_get_value                            output.o
CONF_imodule_set_flags                            output.o
CONF_imodule_set_usr_data                         output.o
CONF_load                                         output.o
CONF_load_bio                                     output.o
CONF_module_add                                   output.o
CONF_module_get_usr_data                          output.o
CONF_module_set_usr_data                          output.o
CONF_modules_finish                               output.o
CONF_modules_free                                 output.o
CONF_modules_load                                 output.o
CONF_modules_load_file                            output.o
CONF_modules_unload                               output.o
CONF_parse_list                                   output.o
CONF_set_default_method                           output.o
CONF_set_nconf                                    output.o
CONF_version                                      output.o
CRL_DIST_POINTS_free                              output.o
CRL_DIST_POINTS_it                                output.o
CRL_DIST_POINTS_new                               output.o
CRYPTO_THREADID_cmp                               output.o
CRYPTO_THREADID_cpy                               output.o
CRYPTO_THREADID_current                           output.o
CRYPTO_THREADID_get_callback                      output.o
CRYPTO_THREADID_hash                              output.o
CRYPTO_THREADID_set_callback                      output.o
CRYPTO_THREADID_set_numeric                       output.o
CRYPTO_THREADID_set_pointer                       output.o
CRYPTO_add_lock                                   output.o
CRYPTO_cbc128_decrypt                             output.o
CRYPTO_cbc128_encrypt                             output.o
CRYPTO_cfb128_1_encrypt                           output.o
CRYPTO_cfb128_8_encrypt                           output.o
CRYPTO_cfb128_encrypt                             output.o
CRYPTO_cleanup_all_ex_data                        output.o
CRYPTO_dbg_free                                   output.o
CRYPTO_dbg_get_options                            output.o
CRYPTO_dbg_malloc                                 output.o
CRYPTO_dbg_realloc                                output.o
CRYPTO_dbg_set_options                            output.o
CRYPTO_destroy_dynlockid                          output.o
CRYPTO_dup_ex_data                                output.o
CRYPTO_ex_data_new_class                          output.o
CRYPTO_free                                       output.o
CRYPTO_free_ex_data                               output.o
CRYPTO_free_locked                                output.o
CRYPTO_get_add_lock_callback                      output.o
CRYPTO_get_dynlock_create_callback                output.o
CRYPTO_get_dynlock_destroy_callback               output.o
CRYPTO_get_dynlock_lock_callback                  output.o
CRYPTO_get_dynlock_value                          output.o
CRYPTO_get_ex_data                                output.o
CRYPTO_get_ex_data_implementation                 output.o
CRYPTO_get_ex_new_index                           output.o
CRYPTO_get_id_callback                            output.o
CRYPTO_get_lock_name                              output.o
CRYPTO_get_locked_mem_ex_functions                output.o
CRYPTO_get_locked_mem_functions                   output.o
CRYPTO_get_locking_callback                       output.o
CRYPTO_get_mem_debug_functions                    output.o
CRYPTO_get_mem_debug_options                      output.o
CRYPTO_get_mem_ex_functions                       output.o
CRYPTO_get_mem_functions                          output.o
CRYPTO_get_new_dynlockid                          output.o
CRYPTO_get_new_lockid                             output.o
CRYPTO_is_mem_check_on                            output.o
CRYPTO_lock                                       output.o
CRYPTO_malloc                                     output.o
CRYPTO_malloc_locked                              output.o
CRYPTO_mem_ctrl                                   output.o
CRYPTO_mem_leaks                                  output.o
CRYPTO_mem_leaks_cb                               output.o
CRYPTO_new_ex_data                                output.o
CRYPTO_num_locks                                  output.o
CRYPTO_ofb128_encrypt                             output.o
CRYPTO_pop_info                                   output.o
CRYPTO_push_info_                                 output.o
CRYPTO_realloc                                    output.o
CRYPTO_realloc_clean                              output.o
CRYPTO_remalloc                                   output.o
CRYPTO_remove_all_info                            output.o
CRYPTO_set_add_lock_callback                      output.o
CRYPTO_set_dynlock_create_callback                output.o
CRYPTO_set_dynlock_destroy_callback               output.o
CRYPTO_set_dynlock_lock_callback                  output.o
CRYPTO_set_ex_data                                output.o
CRYPTO_set_ex_data_implementation                 output.o
CRYPTO_set_id_callback                            output.o
CRYPTO_set_locked_mem_ex_functions                output.o
CRYPTO_set_locked_mem_functions                   output.o
CRYPTO_set_locking_callback                       output.o
CRYPTO_set_mem_debug_functions                    output.o
CRYPTO_set_mem_debug_options                      output.o
CRYPTO_set_mem_ex_functions                       output.o
CRYPTO_set_mem_functions                          output.o
CRYPTO_strdup                                     output.o
CRYPTO_thread_id                                  output.o
C_CloseAllSessions                                output.o
C_CloseSession                                    output.o
C_CreateObject                                    output.o
C_DestroyObject                                   output.o
C_DigestFinal                                     output.o
C_DigestInit                                      output.o
C_DigestUpdate                                    output.o
C_Finalize                                        output.o
C_FindObjects                                     output.o
C_FindObjectsFinal                                output.o
C_FindObjectsInit                                 output.o
C_GetAttributeValue                               output.o
C_GetCardStatus                                   output.o
C_GetFunctionList                                 output.o
C_GetInfo                                         output.o
C_GetMechanismInfo                                output.o
C_GetMechanismList                                output.o
C_GetSessionInfo                                  output.o
C_GetSlotInfo                                     output.o
C_GetSlotList                                     output.o
C_GetTokenInfo                                    output.o
C_Initialize                                      output.o
C_Login                                           output.o
C_Logout                                          output.o
C_OpenSession                                     output.o
C_SetAttributeValue                               output.o
C_Sign                                            output.o
C_SignInit                                        output.o
C_Verify                                          output.o
C_VerifyInit                                      output.o
CardConnect                                       output.o
CardDisconnect                                    output.o
CardEstablishContext                              output.o
CardListReaders                                   output.o
CardMechanical                                    output.o
CardReleaseContext                                output.o
CardStateConfirm                                  output.o
CardStatus                                        output.o
CardTransmit                                      output.o
CloseUSB                                          output.o
DES_SPtrans                                       output.o
DES_cfb64_encrypt                                 output.o
DES_cfb_encrypt                                   output.o
DES_check_key_parity                              output.o
DES_decrypt3                                      output.o
DES_ecb3_encrypt                                  output.o
DES_ecb_encrypt                                   output.o
DES_ede3_cbc_encrypt                              output.o
DES_ede3_cfb64_encrypt                            output.o
DES_ede3_cfb_encrypt                              output.o
DES_ede3_ofb64_encrypt                            output.o
DES_encrypt1                                      output.o
DES_encrypt2                                      output.o
DES_encrypt3                                      output.o
DES_is_weak_key                                   output.o
DES_key_sched                                     output.o
DES_ncbc_encrypt                                  output.o
DES_ofb64_encrypt                                 output.o
DES_options                                       output.o
DES_random_key                                    output.o
DES_set_key                                       output.o
DES_set_key_checked                               output.o
DES_set_key_unchecked                             output.o
DES_set_odd_parity                                output.o
DES_xcbc_encrypt                                  output.o
DH_OpenSSL                                        output.o
DH_check                                          output.o
DH_check_pub_key                                  output.o
DH_compute_key                                    output.o
DH_free                                           output.o
DH_generate_key                                   output.o
DH_generate_parameters_ex                         output.o
DH_get_default_method                             output.o
DH_get_ex_data                                    output.o
DH_get_ex_new_index                               output.o
DH_new                                            output.o
DH_new_method                                     output.o
DH_set_default_method                             output.o
DH_set_ex_data                                    output.o
DH_set_method                                     output.o
DH_size                                           output.o
DH_up_ref                                         output.o
DH_version                                        output.o
DHparams_dup                                      output.o
DHparams_it                                       output.o
DHparams_print                                    output.o
DI                                                output.o
DIRECTORYSTRING_free                              output.o
DIRECTORYSTRING_it                                output.o
DIRECTORYSTRING_new                               output.o
DISPLAYTEXT_free                                  output.o
DISPLAYTEXT_it                                    output.o
DISPLAYTEXT_new                                   output.o
DIST_POINT_NAME_free                              output.o
DIST_POINT_NAME_it                                output.o
DIST_POINT_NAME_new                               output.o
DIST_POINT_free                                   output.o
DIST_POINT_it                                     output.o
DIST_POINT_new                                    output.o
DIST_POINT_set_dpname                             output.o
DSAPrivateKey_it                                  output.o
DSAPublicKey_it                                   output.o
DSA_OpenSSL                                       output.o
DSA_SIG_free                                      output.o
DSA_SIG_it                                        output.o
DSA_SIG_new                                       output.o
DSA_do_sign                                       output.o
DSA_do_verify                                     output.o
DSA_dup_DH                                        output.o
DSA_free                                          output.o
DSA_generate_key                                  output.o
DSA_generate_parameters_ex                        output.o
DSA_get_default_method                            output.o
DSA_get_ex_data                                   output.o
DSA_get_ex_new_index                              output.o
DSA_new                                           output.o
DSA_new_method                                    output.o
DSA_set_default_method                            output.o
DSA_set_ex_data                                   output.o
DSA_set_method                                    output.o
DSA_sign                                          output.o
DSA_sign_setup                                    output.o
DSA_size                                          output.o
DSA_up_ref                                        output.o
DSA_verify                                        output.o
DSA_version                                       output.o
DSAparams_dup                                     output.o
DSAparams_it                                      output.o
DSO_METHOD_null                                   output.o
DSO_METHOD_openssl                                output.o
DSO_bind_func                                     output.o
DSO_bind_var                                      output.o
DSO_convert_filename                              output.o
DSO_ctrl                                          output.o
DSO_flags                                         output.o
DSO_free                                          output.o
DSO_get_default_method                            output.o
DSO_get_filename                                  output.o
DSO_get_loaded_filename                           output.o
DSO_get_method                                    output.o
DSO_global_lookup                                 output.o
DSO_load                                          output.o
DSO_merge                                         output.o
DSO_new                                           output.o
DSO_new_method                                    output.o
DSO_pathbyaddr                                    output.o
DSO_set_default_method                            output.o
DSO_set_filename                                  output.o
DSO_set_method                                    output.o
DSO_set_name_converter                            output.o
DSO_up_ref                                        output.o
DelElem                                           output.o
DestroyAttribute                                  output.o
DestroyElem                                       output.o
DestroyList                                       output.o
DestroySessionData                                output.o
DestroySlotData                                   output.o
DestroyTlvData                                    output.o
DestroyTokenData                                  output.o
ECDH_OpenSSL                                      output.o
ECDH_compute_key                                  output.o
ECDH_get_default_method                           output.o
ECDH_get_ex_data                                  output.o
ECDH_get_ex_new_index                             output.o
ECDH_set_default_method                           output.o
ECDH_set_ex_data                                  output.o
ECDH_set_method                                   output.o
ECDH_version                                      output.o
ECDSA_OpenSSL                                     output.o
ECDSA_SIG_free                                    output.o
ECDSA_SIG_it                                      output.o
ECDSA_SIG_new                                     output.o
ECDSA_do_sign                                     output.o
ECDSA_do_sign_ex                                  output.o
ECDSA_do_verify                                   output.o
ECDSA_get_default_method                          output.o
ECDSA_get_ex_data                                 output.o
ECDSA_get_ex_new_index                            output.o
ECDSA_set_default_method                          output.o
ECDSA_set_ex_data                                 output.o
ECDSA_set_method                                  output.o
ECDSA_sign                                        output.o
ECDSA_sign_ex                                     output.o
ECDSA_sign_setup                                  output.o
ECDSA_size                                        output.o
ECDSA_verify                                      output.o
ECDSA_version                                     output.o
ECPARAMETERS_free                                 output.o
ECPARAMETERS_it                                   output.o
ECPARAMETERS_new                                  output.o
ECPKPARAMETERS_free                               output.o
ECPKPARAMETERS_it                                 output.o
ECPKPARAMETERS_new                                output.o
ECPKParameters_print                              output.o
ECParameters_print                                output.o
EC_EX_DATA_clear_free_all_data                    output.o
EC_EX_DATA_clear_free_data                        output.o
EC_EX_DATA_free_all_data                          output.o
EC_EX_DATA_free_data                              output.o
EC_EX_DATA_get_data                               output.o
EC_EX_DATA_set_data                               output.o
EC_GF2m_simple_method                             output.o
EC_GFp_mont_method                                output.o
EC_GFp_nist_method                                output.o
EC_GFp_simple_method                              output.o
EC_GROUP_check_discriminant                       output.o
EC_GROUP_clear_free                               output.o
EC_GROUP_cmp                                      output.o
EC_GROUP_copy                                     output.o
EC_GROUP_dup                                      output.o
EC_GROUP_free                                     output.o
EC_GROUP_get0_generator                           output.o
EC_GROUP_get0_seed                                output.o
EC_GROUP_get_asn1_flag                            output.o
EC_GROUP_get_basis_type                           output.o
EC_GROUP_get_cofactor                             output.o
EC_GROUP_get_curve_GF2m                           output.o
EC_GROUP_get_curve_GFp                            output.o
EC_GROUP_get_curve_name                           output.o
EC_GROUP_get_degree                               output.o
EC_GROUP_get_order                                output.o
EC_GROUP_get_pentanomial_basis                    output.o
EC_GROUP_get_point_conversion_form                output.o
EC_GROUP_get_seed_len                             output.o
EC_GROUP_get_trinomial_basis                      output.o
EC_GROUP_have_precompute_mult                     output.o
EC_GROUP_method_of                                output.o
EC_GROUP_new                                      output.o
EC_GROUP_new_by_curve_name                        output.o
EC_GROUP_new_curve_GF2m                           output.o
EC_GROUP_new_curve_GFp                            output.o
EC_GROUP_precompute_mult                          output.o
EC_GROUP_set_asn1_flag                            output.o
EC_GROUP_set_curve_GF2m                           output.o
EC_GROUP_set_curve_GFp                            output.o
EC_GROUP_set_curve_name                           output.o
EC_GROUP_set_generator                            output.o
EC_GROUP_set_point_conversion_form                output.o
EC_GROUP_set_seed                                 output.o
EC_KEY_check_key                                  output.o
EC_KEY_copy                                       output.o
EC_KEY_dup                                        output.o
EC_KEY_free                                       output.o
EC_KEY_generate_key                               output.o
EC_KEY_get0_group                                 output.o
EC_KEY_get0_private_key                           output.o
EC_KEY_get0_public_key                            output.o
EC_KEY_get_conv_form                              output.o
EC_KEY_get_enc_flags                              output.o
EC_KEY_get_key_method_data                        output.o
EC_KEY_insert_key_method_data                     output.o
EC_KEY_new                                        output.o
EC_KEY_new_by_curve_name                          output.o
EC_KEY_precompute_mult                            output.o
EC_KEY_print                                      output.o
EC_KEY_set_asn1_flag                              output.o
EC_KEY_set_conv_form                              output.o
EC_KEY_set_enc_flags                              output.o
EC_KEY_set_group                                  output.o
EC_KEY_set_private_key                            output.o
EC_KEY_set_public_key                             output.o
EC_KEY_up_ref                                     output.o
EC_METHOD_get_field_type                          output.o
EC_POINT_add                                      output.o
EC_POINT_bn2point                                 output.o
EC_POINT_clear_free                               output.o
EC_POINT_cmp                                      output.o
EC_POINT_copy                                     output.o
EC_POINT_dbl                                      output.o
EC_POINT_dup                                      output.o
EC_POINT_free                                     output.o
EC_POINT_get_Jprojective_coordinates_GFp          output.o
EC_POINT_get_affine_coordinates_GF2m              output.o
EC_POINT_get_affine_coordinates_GFp               output.o
EC_POINT_hex2point                                output.o
EC_POINT_invert                                   output.o
EC_POINT_is_at_infinity                           output.o
EC_POINT_is_on_curve                              output.o
EC_POINT_make_affine                              output.o
EC_POINT_method_of                                output.o
EC_POINT_mul                                      output.o
EC_POINT_new                                      output.o
EC_POINT_oct2point                                output.o
EC_POINT_point2bn                                 output.o
EC_POINT_point2hex                                output.o
EC_POINT_point2oct                                output.o
EC_POINT_set_Jprojective_coordinates_GFp          output.o
EC_POINT_set_affine_coordinates_GF2m              output.o
EC_POINT_set_affine_coordinates_GFp               output.o
EC_POINT_set_compressed_coordinates_GF2m          output.o
EC_POINT_set_compressed_coordinates_GFp           output.o
EC_POINT_set_to_infinity                          output.o
EC_POINTs_make_affine                             output.o
EC_POINTs_mul                                     output.o
EC_PRIVATEKEY_free                                output.o
EC_PRIVATEKEY_it                                  output.o
EC_PRIVATEKEY_new                                 output.o
EC_get_builtin_curves                             output.o
EDIPARTYNAME_free                                 output.o
EDIPARTYNAME_it                                   output.o
EDIPARTYNAME_new                                  output.o
EHDestroyEventHandler                             output.o
EHInitEventHandler                                output.o
EHStatusHandler                                   output.o
ERR_add_error_data                                output.o
ERR_clear_error                                   output.o
ERR_error_string                                  output.o
ERR_error_string_n                                output.o
ERR_free_strings                                  output.o
ERR_func_error_string                             output.o
ERR_get_err_state_table                           output.o
ERR_get_error                                     output.o
ERR_get_error_line                                output.o
ERR_get_error_line_data                           output.o
ERR_get_implementation                            output.o
ERR_get_next_error_library                        output.o
ERR_get_state                                     output.o
ERR_get_string_table                              output.o
ERR_lib_error_string                              output.o
ERR_load_ASN1_strings                             output.o
ERR_load_BIO_strings                              output.o
ERR_load_BN_strings                               output.o
ERR_load_BUF_strings                              output.o
ERR_load_CMS_strings                              output.o
ERR_load_COMP_strings                             output.o
ERR_load_CONF_strings                             output.o
ERR_load_CRYPTO_strings                           output.o
ERR_load_DH_strings                               output.o
ERR_load_DSA_strings                              output.o
ERR_load_DSO_strings                              output.o
ERR_load_ECDH_strings                             output.o
ERR_load_ECDSA_strings                            output.o
ERR_load_EC_strings                               output.o
ERR_load_ERR_strings                              output.o
ERR_load_EVP_strings                              output.o
ERR_load_OBJ_strings                              output.o
ERR_load_OCSP_strings                             output.o
ERR_load_PEM_strings                              output.o
ERR_load_PKCS12_strings                           output.o
ERR_load_PKCS7_strings                            output.o
ERR_load_RAND_strings                             output.o
ERR_load_RSA_strings                              output.o
ERR_load_TS_strings                               output.o
ERR_load_UI_strings                               output.o
ERR_load_X509V3_strings                           output.o
ERR_load_X509_strings                             output.o
ERR_load_crypto_strings                           output.o
ERR_load_strings                                  output.o
ERR_peek_error                                    output.o
ERR_peek_error_line                               output.o
ERR_peek_error_line_data                          output.o
ERR_peek_last_error                               output.o
ERR_peek_last_error_line                          output.o
ERR_peek_last_error_line_data                     output.o
ERR_pop_to_mark                                   output.o
ERR_print_errors                                  output.o
ERR_print_errors_cb                               output.o
ERR_put_error                                     output.o
ERR_reason_error_string                           output.o
ERR_release_err_state_table                       output.o
ERR_remove_state                                  output.o
ERR_remove_thread_state                           output.o
ERR_set_error_data                                output.o
ERR_set_implementation                            output.o
ERR_set_mark                                      output.o
ERR_unload_strings                                output.o
EVP_BytesToKey                                    output.o
EVP_CIPHER_CTX_block_size                         output.o
EVP_CIPHER_CTX_cipher                             output.o
EVP_CIPHER_CTX_cleanup                            output.o
EVP_CIPHER_CTX_clear_flags                        output.o
EVP_CIPHER_CTX_copy                               output.o
EVP_CIPHER_CTX_ctrl                               output.o
EVP_CIPHER_CTX_flags                              output.o
EVP_CIPHER_CTX_free                               output.o
EVP_CIPHER_CTX_get_app_data                       output.o
EVP_CIPHER_CTX_init                               output.o
EVP_CIPHER_CTX_iv_length                          output.o
EVP_CIPHER_CTX_key_length                         output.o
EVP_CIPHER_CTX_new                                output.o
EVP_CIPHER_CTX_nid                                output.o
EVP_CIPHER_CTX_rand_key                           output.o
EVP_CIPHER_CTX_set_app_data                       output.o
EVP_CIPHER_CTX_set_flags                          output.o
EVP_CIPHER_CTX_set_key_length                     output.o
EVP_CIPHER_CTX_set_padding                        output.o
EVP_CIPHER_CTX_test_flags                         output.o
EVP_CIPHER_asn1_to_param                          output.o
EVP_CIPHER_block_size                             output.o
EVP_CIPHER_do_all                                 output.o
EVP_CIPHER_do_all_sorted                          output.o
EVP_CIPHER_flags                                  output.o
EVP_CIPHER_get_asn1_iv                            output.o
EVP_CIPHER_iv_length                              output.o
EVP_CIPHER_key_length                             output.o
EVP_CIPHER_nid                                    output.o
EVP_CIPHER_param_to_asn1                          output.o
EVP_CIPHER_set_asn1_iv                            output.o
EVP_CIPHER_type                                   output.o
EVP_Cipher                                        output.o
EVP_CipherFinal                                   output.o
EVP_CipherFinal_ex                                output.o
EVP_CipherInit                                    output.o
EVP_CipherInit_ex                                 output.o
EVP_CipherUpdate                                  output.o
EVP_DecodeBlock                                   output.o
EVP_DecodeFinal                                   output.o
EVP_DecodeInit                                    output.o
EVP_DecodeUpdate                                  output.o
EVP_DecryptFinal                                  output.o
EVP_DecryptFinal_ex                               output.o
EVP_DecryptInit                                   output.o
EVP_DecryptInit_ex                                output.o
EVP_DecryptUpdate                                 output.o
EVP_Digest                                        output.o
EVP_DigestFinal                                   output.o
EVP_DigestFinal_ex                                output.o
EVP_DigestInit                                    output.o
EVP_DigestInit_ex                                 output.o
EVP_DigestSignFinal                               output.o
EVP_DigestSignInit                                output.o
EVP_DigestUpdate                                  output.o
EVP_DigestVerifyFinal                             output.o
EVP_DigestVerifyInit                              output.o
EVP_EncodeBlock                                   output.o
EVP_EncodeFinal                                   output.o
EVP_EncodeInit                                    output.o
EVP_EncodeUpdate                                  output.o
EVP_EncryptFinal                                  output.o
EVP_EncryptFinal_ex                               output.o
EVP_EncryptInit                                   output.o
EVP_EncryptInit_ex                                output.o
EVP_EncryptUpdate                                 output.o
EVP_MD_CTX_cleanup                                output.o
EVP_MD_CTX_clear_flags                            output.o
EVP_MD_CTX_copy                                   output.o
EVP_MD_CTX_copy_ex                                output.o
EVP_MD_CTX_create                                 output.o
EVP_MD_CTX_destroy                                output.o
EVP_MD_CTX_init                                   output.o
EVP_MD_CTX_md                                     output.o
EVP_MD_CTX_set_flags                              output.o
EVP_MD_CTX_test_flags                             output.o
EVP_MD_block_size                                 output.o
EVP_MD_do_all                                     output.o
EVP_MD_do_all_sorted                              output.o
EVP_MD_flags                                      output.o
EVP_MD_pkey_type                                  output.o
EVP_MD_size                                       output.o
EVP_MD_type                                       output.o
EVP_PBE_CipherInit                                output.o
EVP_PBE_alg_add                                   output.o
EVP_PBE_alg_add_type                              output.o
EVP_PBE_cleanup                                   output.o
EVP_PBE_find                                      output.o
EVP_PKCS82PKEY                                    output.o
EVP_PKEY2PKCS8                                    output.o
EVP_PKEY2PKCS8_broken                             output.o
EVP_PKEY_CTX_ctrl                                 output.o
EVP_PKEY_CTX_ctrl_str                             output.o
EVP_PKEY_CTX_dup                                  output.o
EVP_PKEY_CTX_free                                 output.o
EVP_PKEY_CTX_get0_peerkey                         output.o
EVP_PKEY_CTX_get0_pkey                            output.o
EVP_PKEY_CTX_get_app_data                         output.o
EVP_PKEY_CTX_get_cb                               output.o
EVP_PKEY_CTX_get_data                             output.o
EVP_PKEY_CTX_get_keygen_info                      output.o
EVP_PKEY_CTX_get_operation                        output.o
EVP_PKEY_CTX_new                                  output.o
EVP_PKEY_CTX_new_id                               output.o
EVP_PKEY_CTX_set0_keygen_info                     output.o
EVP_PKEY_CTX_set_app_data                         output.o
EVP_PKEY_CTX_set_cb                               output.o
EVP_PKEY_CTX_set_data                             output.o
EVP_PKEY_add1_attr                                output.o
EVP_PKEY_add1_attr_by_NID                         output.o
EVP_PKEY_add1_attr_by_OBJ                         output.o
EVP_PKEY_add1_attr_by_txt                         output.o
EVP_PKEY_asn1_add0                                output.o
EVP_PKEY_asn1_add_alias                           output.o
EVP_PKEY_asn1_copy                                output.o
EVP_PKEY_asn1_find                                output.o
EVP_PKEY_asn1_find_str                            output.o
EVP_PKEY_asn1_free                                output.o
EVP_PKEY_asn1_get0                                output.o
EVP_PKEY_asn1_get0_info                           output.o
EVP_PKEY_asn1_get_count                           output.o
EVP_PKEY_asn1_new                                 output.o
EVP_PKEY_asn1_set_ctrl                            output.o
EVP_PKEY_asn1_set_free                            output.o
EVP_PKEY_asn1_set_param                           output.o
EVP_PKEY_asn1_set_private                         output.o
EVP_PKEY_asn1_set_public                          output.o
EVP_PKEY_assign                                   output.o
EVP_PKEY_base_id                                  output.o
EVP_PKEY_bits                                     output.o
EVP_PKEY_cmp                                      output.o
EVP_PKEY_cmp_parameters                           output.o
EVP_PKEY_copy_parameters                          output.o
EVP_PKEY_decrypt                                  output.o
EVP_PKEY_decrypt_init                             output.o
EVP_PKEY_delete_attr                              output.o
EVP_PKEY_derive                                   output.o
EVP_PKEY_derive_init                              output.o
EVP_PKEY_derive_set_peer                          output.o
EVP_PKEY_encrypt                                  output.o
EVP_PKEY_encrypt_init                             output.o
EVP_PKEY_free                                     output.o
EVP_PKEY_get0                                     output.o
EVP_PKEY_get0_asn1                                output.o
EVP_PKEY_get1_DH                                  output.o
EVP_PKEY_get1_DSA                                 output.o
EVP_PKEY_get1_EC_KEY                              output.o
EVP_PKEY_get1_RSA                                 output.o
EVP_PKEY_get_attr                                 output.o
EVP_PKEY_get_attr_by_NID                          output.o
EVP_PKEY_get_attr_by_OBJ                          output.o
EVP_PKEY_get_attr_count                           output.o
EVP_PKEY_get_default_digest_nid                   output.o
EVP_PKEY_id                                       output.o
EVP_PKEY_keygen                                   output.o
EVP_PKEY_keygen_init                              output.o
EVP_PKEY_meth_add0                                output.o
EVP_PKEY_meth_find                                output.o
EVP_PKEY_meth_free                                output.o
EVP_PKEY_meth_new                                 output.o
EVP_PKEY_meth_set_cleanup                         output.o
EVP_PKEY_meth_set_copy                            output.o
EVP_PKEY_meth_set_ctrl                            output.o
EVP_PKEY_meth_set_decrypt                         output.o
EVP_PKEY_meth_set_derive                          output.o
EVP_PKEY_meth_set_encrypt                         output.o
EVP_PKEY_meth_set_init                            output.o
EVP_PKEY_meth_set_keygen                          output.o
EVP_PKEY_meth_set_paramgen                        output.o
EVP_PKEY_meth_set_sign                            output.o
EVP_PKEY_meth_set_signctx                         output.o
EVP_PKEY_meth_set_verify                          output.o
EVP_PKEY_meth_set_verify_recover                  output.o
EVP_PKEY_meth_set_verifyctx                       output.o
EVP_PKEY_missing_parameters                       output.o
EVP_PKEY_new                                      output.o
EVP_PKEY_new_mac_key                              output.o
EVP_PKEY_paramgen                                 output.o
EVP_PKEY_paramgen_init                            output.o
EVP_PKEY_print_params                             output.o
EVP_PKEY_print_private                            output.o
EVP_PKEY_print_public                             output.o
EVP_PKEY_save_parameters                          output.o
EVP_PKEY_set1_DH                                  output.o
EVP_PKEY_set1_DSA                                 output.o
EVP_PKEY_set1_EC_KEY                              output.o
EVP_PKEY_set1_RSA                                 output.o
EVP_PKEY_set_type                                 output.o
EVP_PKEY_set_type_str                             output.o
EVP_PKEY_sign                                     output.o
EVP_PKEY_sign_init                                output.o
EVP_PKEY_size                                     output.o
EVP_PKEY_type                                     output.o
EVP_PKEY_verify                                   output.o
EVP_PKEY_verify_init                              output.o
EVP_PKEY_verify_recover                           output.o
EVP_PKEY_verify_recover_init                      output.o
EVP_SignFinal                                     output.o
EVP_VerifyFinal                                   output.o
EVP_add_cipher                                    output.o
EVP_add_digest                                    output.o
EVP_aes_128_cbc                                   output.o
EVP_aes_128_cfb1                                  output.o
EVP_aes_128_cfb128                                output.o
EVP_aes_128_cfb8                                  output.o
EVP_aes_128_ecb                                   output.o
EVP_aes_128_ofb                                   output.o
EVP_aes_192_cbc                                   output.o
EVP_aes_192_cfb1                                  output.o
EVP_aes_192_cfb128                                output.o
EVP_aes_192_cfb8                                  output.o
EVP_aes_192_ecb                                   output.o
EVP_aes_192_ofb                                   output.o
EVP_aes_256_cbc                                   output.o
EVP_aes_256_cfb1                                  output.o
EVP_aes_256_cfb128                                output.o
EVP_aes_256_cfb8                                  output.o
EVP_aes_256_ecb                                   output.o
EVP_aes_256_ofb                                   output.o
EVP_bf_cbc                                        output.o
EVP_bf_cfb64                                      output.o
EVP_bf_ecb                                        output.o
EVP_bf_ofb                                        output.o
EVP_cast5_cbc                                     output.o
EVP_cast5_cfb64                                   output.o
EVP_cast5_ecb                                     output.o
EVP_cast5_ofb                                     output.o
EVP_cleanup                                       output.o
EVP_des_cbc                                       output.o
EVP_des_cfb1                                      output.o
EVP_des_cfb64                                     output.o
EVP_des_cfb8                                      output.o
EVP_des_ecb                                       output.o
EVP_des_ede                                       output.o
EVP_des_ede3                                      output.o
EVP_des_ede3_cbc                                  output.o
EVP_des_ede3_cfb1                                 output.o
EVP_des_ede3_cfb64                                output.o
EVP_des_ede3_cfb8                                 output.o
EVP_des_ede3_ecb                                  output.o
EVP_des_ede3_ofb                                  output.o
EVP_des_ede_cbc                                   output.o
EVP_des_ede_cfb64                                 output.o
EVP_des_ede_ecb                                   output.o
EVP_des_ede_ofb                                   output.o
EVP_des_ofb                                       output.o
EVP_desx_cbc                                      output.o
EVP_dss                                           output.o
EVP_dss1                                          output.o
EVP_ecdsa                                         output.o
EVP_get_cipherbyname                              output.o
EVP_get_digestbyname                              output.o
EVP_get_pw_prompt                                 output.o
EVP_idea_cbc                                      output.o
EVP_idea_cfb64                                    output.o
EVP_idea_ecb                                      output.o
EVP_idea_ofb                                      output.o
EVP_md4                                           output.o
EVP_md5                                           output.o
EVP_rc2_40_cbc                                    output.o
EVP_rc2_64_cbc                                    output.o
EVP_rc2_cbc                                       output.o
EVP_rc2_cfb64                                     output.o
EVP_rc2_ecb                                       output.o
EVP_rc2_ofb                                       output.o
EVP_rc4                                           output.o
EVP_rc4_40                                        output.o
EVP_read_pw_string                                output.o
EVP_read_pw_string_min                            output.o
EVP_ripemd160                                     output.o
EVP_set_pw_prompt                                 output.o
EVP_sha                                           output.o
EVP_sha1                                          output.o
EVP_sha224                                        output.o
EVP_sha256                                        output.o
EVP_sha384                                        output.o
EVP_sha512                                        output.o
EVP_version                                       output.o
EVP_whirlpool                                     output.o
EXTENDED_KEY_USAGE_free                           output.o
EXTENDED_KEY_USAGE_it                             output.o
EXTENDED_KEY_USAGE_new                            output.o
ExchangePPSData                                   output.o
FI                                                output.o
FindBaudRateTable                                 output.o
GENERAL_NAMES_free                                output.o
GENERAL_NAMES_it                                  output.o
GENERAL_NAMES_new                                 output.o
GENERAL_NAME_cmp                                  output.o
GENERAL_NAME_dup                                  output.o
GENERAL_NAME_free                                 output.o
GENERAL_NAME_get0_otherName                       output.o
GENERAL_NAME_get0_value                           output.o
GENERAL_NAME_it                                   output.o
GENERAL_NAME_new                                  output.o
GENERAL_NAME_print                                output.o
GENERAL_NAME_set0_othername                       output.o
GENERAL_NAME_set0_value                           output.o
GENERAL_SUBTREE_free                              output.o
GENERAL_SUBTREE_it                                output.o
GENERAL_SUBTREE_new                               output.o
GetAttrValType                                    output.o
GetBWICWIData                                     output.o
GetCardStatus                                     output.o
GetDirDataByTlv                                   output.o
GetElem                                           output.o
GetICCardData                                     output.o
GetIFSCData                                       output.o
GetLength                                         output.o
GetOdfDataByTlv                                   output.o
GetTlvByBuf                                       output.o
GetTokenDataByTlv                                 output.o
GetUlByByte                                       output.o
GetUlByTxt                                        output.o
GetValueData                                      output.o
GetVerByTex                                       output.o
HMAC                                              output.o
HMAC_CTX_cleanup                                  output.o
HMAC_CTX_copy                                     output.o
HMAC_CTX_init                                     output.o
HMAC_CTX_set_flags                                output.o
HMAC_Final                                        output.o
HMAC_Init                                         output.o
HMAC_Init_ex                                      output.o
HMAC_Update                                       output.o
HPSearchHotPluggables                             output.o
IDEA_version                                      output.o
IDMan_CheckCardStatus                             output.o
IDMan_CmCheckCRL                                  output.o
IDMan_CmChgRSA                                    output.o
IDMan_CmGetCertificateSign                        output.o
IDMan_CmGetDN                                     output.o
IDMan_CmGetPublicKey                              output.o
IDMan_CmMakeRand                                  output.o
IDMan_CmMkHash                                    output.o
IDMan_CmPadding                                   output.o
IDMan_CmPadding2                                  output.o
IDMan_EncryptByIndex                              output.o
IDMan_IPCheckCrlPkcX                              output.o
IDMan_IPCheckPKC                                  output.o
IDMan_IPCheckSignature                            output.o
IDMan_IPCrSignature                               output.o
IDMan_IPFinalize                                  output.o
IDMan_IPFinalizeReader                            output.o
IDMan_IPIdPassListMalloc                          output.o
IDMan_IPInitialize                                output.o
IDMan_IPInitializeReader                          output.o
IDMan_IPMkPublicKeyObj                            output.o
IDMan_IPMkRandHash                                output.o
IDMan_IPRetJudgment                               output.o
IDMan_IPSignatureVerify                           output.o
IDMan_IPgCIndexParamChk                           output.o
IDMan_IPgCParamChk                                output.o
IDMan_IPgIdxSParamChk                             output.o
IDMan_IPgSParamChk                                output.o
IDMan_IPgetCertIdxPKCS                            output.o
IDMan_IPgetCertPKCS                               output.o
IDMan_IPgetCertPkeyIdxPKCSx                       output.o
IDMan_IPgetCertPkeyPKCSx                          output.o
IDMan_IPgetCertPkeyPKCSy                          output.o
IDMan_IPgetHash                                   output.o
IDMan_IPgetMakeRandData                           output.o
IDMan_IPgetPrivateKey                             output.o
IDMan_IPgetPrivateKeyPKCSx                        output.o
IDMan_IPuAPKCS11IdxParamChk                       output.o
IDMan_IPuAPKCS11ParamChk                          output.o
IDMan_IPvSIdxParamChk                             output.o
IDMan_IPvSParamChk                                output.o
IDMan_PaddingParamChk                             output.o
IDMan_SCardConnect                                output.o
IDMan_SCardDisconnect                             output.o
IDMan_SCardEstablishContext                       output.o
IDMan_SCardListReaders                            output.o
IDMan_SCardReleaseContext                         output.o
IDMan_SCardSetBinay                               output.o
IDMan_SCardSizeLongToChar                         output.o
IDMan_SCardStatus                                 output.o
IDMan_SCardTransmit                               output.o
IDMan_StAtoi                                      output.o
IDMan_StAtol                                      output.o
IDMan_StFree                                      output.o
IDMan_StMalloc                                    output.o
IDMan_StMemcmp                                    output.o
IDMan_StMemcpy                                    output.o
IDMan_StMemset                                    output.o
IDMan_StReadSetData                               output.o
IDMan_StStrcat                                    output.o
IDMan_StStrchr                                    output.o
IDMan_StStrcmp                                    output.o
IDMan_StStrcpy                                    output.o
IDMan_StStrlen                                    output.o
IDMan_generateSignature                           output.o
IDMan_generateSignatureByIndex                    output.o
IDMan_getCertificate                              output.o
IDMan_getCertificateByIndex                       output.o
IDMan_getMemoryFree                               output.o
IDMan_getStaticPassword                           output.o
IDMan_userAuthPKCS11                              output.o
IDMan_userAuthPKCS11ByIndex                       output.o
IDMan_verifySignature                             output.o
IDMan_verifySignatureByIndex                      output.o
IFDHCloseChannel                                  output.o
IFDHControl                                       output.o
IFDHCreateChannel                                 output.o
IFDHGetCapabilities                               output.o
IFDHICCPresence                                   output.o
IFDHPowerICC                                      output.o
IFDHSetProtocolParameters                         output.o
IFDHTransmitToICC                                 output.o
ISSUING_DIST_POINT_free                           output.o
ISSUING_DIST_POINT_it                             output.o
ISSUING_DIST_POINT_new                            output.o
InitCryptoLibrary                                 output.o
InitLeaderCardProtocol                            output.o
InternalAuth                                      output.o
LONG_it                                           output.o
MD4_Final                                         output.o
MD4_Init                                          output.o
MD4_Transform                                     output.o
MD4_Update                                        output.o
MD4_version                                       output.o
MD5                                               output.o
MD5_Final                                         output.o
MD5_Init                                          output.o
MD5_Transform                                     output.o
MD5_Update                                        output.o
MD5_version                                       output.o
NAME_CONSTRAINTS_check                            output.o
NAME_CONSTRAINTS_free                             output.o
NAME_CONSTRAINTS_it                               output.o
NAME_CONSTRAINTS_new                              output.o
NCONF_WIN32                                       output.o
NCONF_default                                     output.o
NCONF_dump_bio                                    output.o
NCONF_free                                        output.o
NCONF_free_data                                   output.o
NCONF_get_number_e                                output.o
NCONF_get_section                                 output.o
NCONF_get_string                                  output.o
NCONF_load                                        output.o
NCONF_load_bio                                    output.o
NCONF_new                                         output.o
NETSCAPE_CERT_SEQUENCE_free                       output.o
NETSCAPE_CERT_SEQUENCE_it                         output.o
NETSCAPE_CERT_SEQUENCE_new                        output.o
NETSCAPE_SPKAC_free                               output.o
NETSCAPE_SPKAC_it                                 output.o
NETSCAPE_SPKAC_new                                output.o
NETSCAPE_SPKI_free                                output.o
NETSCAPE_SPKI_it                                  output.o
NETSCAPE_SPKI_new                                 output.o
NETSCAPE_SPKI_sign                                output.o
NETSCAPE_SPKI_verify                              output.o
NOTICEREF_free                                    output.o
NOTICEREF_it                                      output.o
NOTICEREF_new                                     output.o
OBJ_NAME_add                                      output.o
OBJ_NAME_cleanup                                  output.o
OBJ_NAME_do_all                                   output.o
OBJ_NAME_do_all_sorted                            output.o
OBJ_NAME_get                                      output.o
OBJ_NAME_init                                     output.o
OBJ_NAME_new_index                                output.o
OBJ_NAME_remove                                   output.o
OBJ_add_object                                    output.o
OBJ_add_sigid                                     output.o
OBJ_bsearch_                                      output.o
OBJ_bsearch_ex_                                   output.o
OBJ_cleanup                                       output.o
OBJ_cmp                                           output.o
OBJ_create                                        output.o
OBJ_create_objects                                output.o
OBJ_dup                                           output.o
OBJ_find_sigid_algs                               output.o
OBJ_find_sigid_by_algs                            output.o
OBJ_ln2nid                                        output.o
OBJ_new_nid                                       output.o
OBJ_nid2ln                                        output.o
OBJ_nid2obj                                       output.o
OBJ_nid2sn                                        output.o
OBJ_obj2nid                                       output.o
OBJ_obj2txt                                       output.o
OBJ_sigid_free                                    output.o
OBJ_sn2nid                                        output.o
OBJ_txt2nid                                       output.o
OBJ_txt2obj                                       output.o
OCSP_BASICRESP_free                               output.o
OCSP_BASICRESP_it                                 output.o
OCSP_BASICRESP_new                                output.o
OCSP_CERTID_free                                  output.o
OCSP_CERTID_it                                    output.o
OCSP_CERTID_new                                   output.o
OCSP_CERTSTATUS_free                              output.o
OCSP_CERTSTATUS_it                                output.o
OCSP_CERTSTATUS_new                               output.o
OCSP_CRLID_free                                   output.o
OCSP_CRLID_it                                     output.o
OCSP_CRLID_new                                    output.o
OCSP_ONEREQ_free                                  output.o
OCSP_ONEREQ_it                                    output.o
OCSP_ONEREQ_new                                   output.o
OCSP_REQINFO_free                                 output.o
OCSP_REQINFO_it                                   output.o
OCSP_REQINFO_new                                  output.o
OCSP_REQUEST_free                                 output.o
OCSP_REQUEST_it                                   output.o
OCSP_REQUEST_new                                  output.o
OCSP_RESPBYTES_free                               output.o
OCSP_RESPBYTES_it                                 output.o
OCSP_RESPBYTES_new                                output.o
OCSP_RESPDATA_free                                output.o
OCSP_RESPDATA_it                                  output.o
OCSP_RESPDATA_new                                 output.o
OCSP_RESPID_free                                  output.o
OCSP_RESPID_it                                    output.o
OCSP_RESPID_new                                   output.o
OCSP_RESPONSE_free                                output.o
OCSP_RESPONSE_it                                  output.o
OCSP_RESPONSE_new                                 output.o
OCSP_REVOKEDINFO_free                             output.o
OCSP_REVOKEDINFO_it                               output.o
OCSP_REVOKEDINFO_new                              output.o
OCSP_SERVICELOC_free                              output.o
OCSP_SERVICELOC_it                                output.o
OCSP_SERVICELOC_new                               output.o
OCSP_SIGNATURE_free                               output.o
OCSP_SIGNATURE_it                                 output.o
OCSP_SIGNATURE_new                                output.o
OCSP_SINGLERESP_free                              output.o
OCSP_SINGLERESP_it                                output.o
OCSP_SINGLERESP_new                               output.o
OPENSSL_NONPIC_relocated                          output.o
OPENSSL_asc2uni                                   output.o
OPENSSL_cleanse                                   output.o
OPENSSL_cpuid_setup                               output.o
OPENSSL_gmtime                                    output.o
OPENSSL_gmtime_adj                                output.o
OPENSSL_ia32cap_P                                 output.o
OPENSSL_ia32cap_loc                               output.o
OPENSSL_isservice                                 output.o
OPENSSL_showfatal                                 output.o
OPENSSL_stderr                                    output.o
OPENSSL_uni2asc                                   output.o
OSSL_DES_version                                  output.o
OSSL_libdes_version                               output.o
OTHERNAME_cmp                                     output.o
OTHERNAME_free                                    output.o
OTHERNAME_it                                      output.o
OTHERNAME_new                                     output.o
OpenSSLDie                                        output.o
OpenSSL_add_all_ciphers                           output.o
OpenSSL_add_all_digests                           output.o
OpenUSB                                           output.o
PAGE_POOL_START                                   output.o
PBE2PARAM_free                                    output.o
PBE2PARAM_it                                      output.o
PBE2PARAM_new                                     output.o
PBEPARAM_free                                     output.o
PBEPARAM_it                                       output.o
PBEPARAM_new                                      output.o
PBKDF2PARAM_free                                  output.o
PBKDF2PARAM_it                                    output.o
PBKDF2PARAM_new                                   output.o
PEM_ASN1_read_bio                                 output.o
PEM_ASN1_write_bio                                output.o
PEM_bytes_read_bio                                output.o
PEM_def_callback                                  output.o
PEM_dek_info                                      output.o
PEM_do_header                                     output.o
PEM_get_EVP_CIPHER_INFO                           output.o
PEM_proc_type                                     output.o
PEM_read_bio                                      output.o
PEM_read_bio_CMS                                  output.o
PEM_read_bio_DHparams                             output.o
PEM_read_bio_DSAPrivateKey                        output.o
PEM_read_bio_DSA_PUBKEY                           output.o
PEM_read_bio_DSAparams                            output.o
PEM_read_bio_ECPKParameters                       output.o
PEM_read_bio_ECPrivateKey                         output.o
PEM_read_bio_EC_PUBKEY                            output.o
PEM_read_bio_NETSCAPE_CERT_SEQUENCE               output.o
PEM_read_bio_PKCS7                                output.o
PEM_read_bio_PKCS8                                output.o
PEM_read_bio_PKCS8_PRIV_KEY_INFO                  output.o
PEM_read_bio_PUBKEY                               output.o
PEM_read_bio_Parameters                           output.o
PEM_read_bio_PrivateKey                           output.o
PEM_read_bio_RSAPrivateKey                        output.o
PEM_read_bio_RSAPublicKey                         output.o
PEM_read_bio_RSA_PUBKEY                           output.o
PEM_read_bio_X509                                 output.o
PEM_read_bio_X509_CRL                             output.o
PEM_read_bio_X509_REQ                             output.o
PEM_version                                       output.o
PEM_write_bio                                     output.o
PEM_write_bio_ASN1_stream                         output.o
PEM_write_bio_CMS                                 output.o
PEM_write_bio_CMS_stream                          output.o
PEM_write_bio_DHparams                            output.o
PEM_write_bio_DSAPrivateKey                       output.o
PEM_write_bio_DSA_PUBKEY                          output.o
PEM_write_bio_DSAparams                           output.o
PEM_write_bio_ECPKParameters                      output.o
PEM_write_bio_ECPrivateKey                        output.o
PEM_write_bio_EC_PUBKEY                           output.o
PEM_write_bio_NETSCAPE_CERT_SEQUENCE              output.o
PEM_write_bio_PKCS7                               output.o
PEM_write_bio_PKCS8                               output.o
PEM_write_bio_PKCS8PrivateKey                     output.o
PEM_write_bio_PKCS8PrivateKey_nid                 output.o
PEM_write_bio_PKCS8_PRIV_KEY_INFO                 output.o
PEM_write_bio_PUBKEY                              output.o
PEM_write_bio_Parameters                          output.o
PEM_write_bio_PrivateKey                          output.o
PEM_write_bio_RSAPrivateKey                       output.o
PEM_write_bio_RSAPublicKey                        output.o
PEM_write_bio_RSA_PUBKEY                          output.o
PEM_write_bio_X509                                output.o
PEM_write_bio_X509_CRL                            output.o
PEM_write_bio_X509_REQ                            output.o
PEM_write_bio_X509_REQ_NEW                        output.o
PHGetProtocol                                     output.o
PHSetProtocol                                     output.o
PKCS12_AUTHSAFES_it                               output.o
PKCS12_BAGS_free                                  output.o
PKCS12_BAGS_it                                    output.o
PKCS12_BAGS_new                                   output.o
PKCS12_MAC_DATA_free                              output.o
PKCS12_MAC_DATA_it                                output.o
PKCS12_MAC_DATA_new                               output.o
PKCS12_MAKE_KEYBAG                                output.o
PKCS12_MAKE_SHKEYBAG                              output.o
PKCS12_PBE_add                                    output.o
PKCS12_PBE_keyivgen                               output.o
PKCS12_SAFEBAGS_it                                output.o
PKCS12_SAFEBAG_free                               output.o
PKCS12_SAFEBAG_it                                 output.o
PKCS12_SAFEBAG_new                                output.o
PKCS12_certbag2x509                               output.o
PKCS12_certbag2x509crl                            output.o
PKCS12_decrypt_skey                               output.o
PKCS12_free                                       output.o
PKCS12_it                                         output.o
PKCS12_item_decrypt_d2i                           output.o
PKCS12_item_i2d_encrypt                           output.o
PKCS12_item_pack_safebag                          output.o
PKCS12_key_gen_asc                                output.o
PKCS12_key_gen_uni                                output.o
PKCS12_new                                        output.o
PKCS12_pack_authsafes                             output.o
PKCS12_pack_p7data                                output.o
PKCS12_pack_p7encdata                             output.o
PKCS12_pbe_crypt                                  output.o
PKCS12_unpack_authsafes                           output.o
PKCS12_unpack_p7data                              output.o
PKCS12_unpack_p7encdata                           output.o
PKCS12_x5092certbag                               output.o
PKCS12_x509crl2certbag                            output.o
PKCS1_MGF1                                        output.o
PKCS5_PBE_add                                     output.o
PKCS5_PBE_keyivgen                                output.o
PKCS5_PBKDF2_HMAC                                 output.o
PKCS5_PBKDF2_HMAC_SHA1                            output.o
PKCS5_pbe2_set                                    output.o
PKCS5_pbe2_set_iv                                 output.o
PKCS5_pbe_set                                     output.o
PKCS5_pbe_set0_algor                              output.o
PKCS5_v2_PBE_keyivgen                             output.o
PKCS7_ATTR_SIGN_it                                output.o
PKCS7_ATTR_VERIFY_it                              output.o
PKCS7_DIGEST_free                                 output.o
PKCS7_DIGEST_it                                   output.o
PKCS7_DIGEST_new                                  output.o
PKCS7_ENCRYPT_free                                output.o
PKCS7_ENCRYPT_it                                  output.o
PKCS7_ENCRYPT_new                                 output.o
PKCS7_ENC_CONTENT_free                            output.o
PKCS7_ENC_CONTENT_it                              output.o
PKCS7_ENC_CONTENT_new                             output.o
PKCS7_ENVELOPE_free                               output.o
PKCS7_ENVELOPE_it                                 output.o
PKCS7_ENVELOPE_new                                output.o
PKCS7_ISSUER_AND_SERIAL_digest                    output.o
PKCS7_ISSUER_AND_SERIAL_free                      output.o
PKCS7_ISSUER_AND_SERIAL_it                        output.o
PKCS7_ISSUER_AND_SERIAL_new                       output.o
PKCS7_RECIP_INFO_free                             output.o
PKCS7_RECIP_INFO_get0_alg                         output.o
PKCS7_RECIP_INFO_it                               output.o
PKCS7_RECIP_INFO_new                              output.o
PKCS7_RECIP_INFO_set                              output.o
PKCS7_SIGNED_free                                 output.o
PKCS7_SIGNED_it                                   output.o
PKCS7_SIGNED_new                                  output.o
PKCS7_SIGNER_INFO_free                            output.o
PKCS7_SIGNER_INFO_get0_algs                       output.o
PKCS7_SIGNER_INFO_it                              output.o
PKCS7_SIGNER_INFO_new                             output.o
PKCS7_SIGNER_INFO_set                             output.o
PKCS7_SIGNER_INFO_sign                            output.o
PKCS7_SIGN_ENVELOPE_free                          output.o
PKCS7_SIGN_ENVELOPE_it                            output.o
PKCS7_SIGN_ENVELOPE_new                           output.o
PKCS7_add0_attrib_signing_time                    output.o
PKCS7_add1_attrib_digest                          output.o
PKCS7_add_attrib_content_type                     output.o
PKCS7_add_attrib_smimecap                         output.o
PKCS7_add_attribute                               output.o
PKCS7_add_certificate                             output.o
PKCS7_add_crl                                     output.o
PKCS7_add_recipient                               output.o
PKCS7_add_recipient_info                          output.o
PKCS7_add_signature                               output.o
PKCS7_add_signed_attribute                        output.o
PKCS7_add_signer                                  output.o
PKCS7_cert_from_signer_info                       output.o
PKCS7_content_new                                 output.o
PKCS7_ctrl                                        output.o
PKCS7_dataDecode                                  output.o
PKCS7_dataFinal                                   output.o
PKCS7_dataInit                                    output.o
PKCS7_dataVerify                                  output.o
PKCS7_digest_from_attributes                      output.o
PKCS7_dup                                         output.o
PKCS7_free                                        output.o
PKCS7_get_attribute                               output.o
PKCS7_get_issuer_and_serial                       output.o
PKCS7_get_signed_attribute                        output.o
PKCS7_get_signer_info                             output.o
PKCS7_get_smimecap                                output.o
PKCS7_it                                          output.o
PKCS7_new                                         output.o
PKCS7_print_ctx                                   output.o
PKCS7_set0_type_other                             output.o
PKCS7_set_attributes                              output.o
PKCS7_set_cipher                                  output.o
PKCS7_set_content                                 output.o
PKCS7_set_digest                                  output.o
PKCS7_set_signed_attributes                       output.o
PKCS7_set_type                                    output.o
PKCS7_signatureVerify                             output.o
PKCS7_simple_smimecap                             output.o
PKCS7_stream                                      output.o
PKCS8_PRIV_KEY_INFO_free                          output.o
PKCS8_PRIV_KEY_INFO_it                            output.o
PKCS8_PRIV_KEY_INFO_new                           output.o
PKCS8_decrypt                                     output.o
PKCS8_encrypt                                     output.o
PKCS8_pkey_get0                                   output.o
PKCS8_pkey_set0                                   output.o
PKCS8_set_broken                                  output.o
PKEY_USAGE_PERIOD_free                            output.o
PKEY_USAGE_PERIOD_it                              output.o
PKEY_USAGE_PERIOD_new                             output.o
POLICYINFO_free                                   output.o
POLICYINFO_it                                     output.o
POLICYINFO_new                                    output.o
POLICYQUALINFO_free                               output.o
POLICYQUALINFO_it                                 output.o
POLICYQUALINFO_new                                output.o
POLICY_CONSTRAINTS_free                           output.o
POLICY_CONSTRAINTS_it                             output.o
POLICY_CONSTRAINTS_new                            output.o
POLICY_MAPPINGS_it                                output.o
POLICY_MAPPING_free                               output.o
POLICY_MAPPING_it                                 output.o
POLICY_MAPPING_new                                output.o
PROXY_CERT_INFO_EXTENSION_free                    output.o
PROXY_CERT_INFO_EXTENSION_it                      output.o
PROXY_CERT_INFO_EXTENSION_new                     output.o
PROXY_POLICY_free                                 output.o
PROXY_POLICY_it                                   output.o
PROXY_POLICY_new                                  output.o
PowerOff                                          output.o
PowerOn                                           output.o
RAND_SSLeay                                       output.o
RAND_add                                          output.o
RAND_bytes                                        output.o
RAND_cleanup                                      output.o
RAND_get_rand_method                              output.o
RAND_poll                                         output.o
RAND_pseudo_bytes                                 output.o
RAND_seed                                         output.o
RAND_set_rand_method                              output.o
RAND_status                                       output.o
RAND_version                                      output.o
RC2_cbc_encrypt                                   output.o
RC2_cfb64_encrypt                                 output.o
RC2_decrypt                                       output.o
RC2_ecb_encrypt                                   output.o
RC2_encrypt                                       output.o
RC2_ofb64_encrypt                                 output.o
RC2_set_key                                       output.o
RC2_version                                       output.o
RC4                                               output.o
RC4_options                                       output.o
RC4_set_key                                       output.o
RC4_version                                       output.o
RFAddReader                                       output.o
RFCheckReaderEventState                           output.o
RFReaderInfoById                                  output.o
RFRemoveReader                                    output.o
RIPEMD160_Final                                   output.o
RIPEMD160_Init                                    output.o
RIPEMD160_Transform                               output.o
RIPEMD160_Update                                  output.o
RMD160_version                                    output.o
RSAPrivateKey_dup                                 output.o
RSAPrivateKey_it                                  output.o
RSAPublicKey_dup                                  output.o
RSAPublicKey_it                                   output.o
RSA_PKCS1_SSLeay                                  output.o
RSA_X931_hash_id                                  output.o
RSA_blinding_off                                  output.o
RSA_blinding_on                                   output.o
RSA_flags                                         output.o
RSA_free                                          output.o
RSA_generate_key                                  output.o
RSA_generate_key_ex                               output.o
RSA_get_default_method                            output.o
RSA_get_ex_data                                   output.o
RSA_get_ex_new_index                              output.o
RSA_get_method                                    output.o
RSA_memory_lock                                   output.o
RSA_new                                           output.o
RSA_new_method                                    output.o
RSA_padding_add_PKCS1_OAEP                        output.o
RSA_padding_add_PKCS1_PSS                         output.o
RSA_padding_add_PKCS1_type_1                      output.o
RSA_padding_add_PKCS1_type_2                      output.o
RSA_padding_add_SSLv23                            output.o
RSA_padding_add_X931                              output.o
RSA_padding_add_none                              output.o
RSA_padding_check_PKCS1_OAEP                      output.o
RSA_padding_check_PKCS1_type_1                    output.o
RSA_padding_check_PKCS1_type_2                    output.o
RSA_padding_check_SSLv23                          output.o
RSA_padding_check_X931                            output.o
RSA_padding_check_none                            output.o
RSA_private_decrypt                               output.o
RSA_private_encrypt                               output.o
RSA_public_decrypt                                output.o
RSA_public_encrypt                                output.o
RSA_set_default_method                            output.o
RSA_set_ex_data                                   output.o
RSA_set_method                                    output.o
RSA_setup_blinding                                output.o
RSA_sign                                          output.o
RSA_size                                          output.o
RSA_up_ref                                        output.o
RSA_verify                                        output.o
RSA_verify_PKCS1_PSS                              output.o
RSA_version                                       output.o
ReadBinary                                        output.o
ReadDataT0                                        output.o
ReadUSB                                           output.o
ReceiveReply                                      output.o
SCardBeginTransaction                             output.o
SCardConnect                                      output.o
SCardDisconnect                                   output.o
SCardEndTransaction                               output.o
SCardEstablishContext                             output.o
SCardListReaders                                  output.o
SCardReleaseContext                               output.o
SCardStatus                                       output.o
SCardTransmit                                     output.o
SHA1                                              output.o
SHA1_Final                                        output.o
SHA1_Init                                         output.o
SHA1_Transform                                    output.o
SHA1_Update                                       output.o
SHA1_version                                      output.o
SHA224                                            output.o
SHA224_Final                                      output.o
SHA224_Init                                       output.o
SHA224_Update                                     output.o
SHA256                                            output.o
SHA256_Final                                      output.o
SHA256_Init                                       output.o
SHA256_Transform                                  output.o
SHA256_Update                                     output.o
SHA256_version                                    output.o
SHA384                                            output.o
SHA384_Final                                      output.o
SHA384_Init                                       output.o
SHA384_Update                                     output.o
SHA512                                            output.o
SHA512_Final                                      output.o
SHA512_Init                                       output.o
SHA512_Transform                                  output.o
SHA512_Update                                     output.o
SHA512_version                                    output.o
SHA_Final                                         output.o
SHA_Init                                          output.o
SHA_Transform                                     output.o
SHA_Update                                        output.o
SHA_version                                       output.o
SMIME_crlf_copy                                   output.o
SMIME_read_ASN1                                   output.o
SMIME_read_CMS                                    output.o
SMIME_text                                        output.o
SMIME_write_ASN1                                  output.o
SMIME_write_CMS                                   output.o
STACK_version                                     output.o
SXNETID_free                                      output.o
SXNETID_it                                        output.o
SXNETID_new                                       output.o
SXNET_add_id_INTEGER                              output.o
SXNET_add_id_asc                                  output.o
SXNET_add_id_ulong                                output.o
SXNET_free                                        output.o
SXNET_get_id_INTEGER                              output.o
SXNET_get_id_asc                                  output.o
SXNET_get_id_ulong                                output.o
SXNET_it                                          output.o
SXNET_new                                         output.o
Se4AddArpEntryList                                output.o
Se4AdjustTcpMss                                   output.o
Se4And                                            output.o
Se4BitToHex                                       output.o
Se4BroadcastMacAddress                            output.o
Se4BuildIcmpEchoPacket                            output.o
Se4CheckUnicastAddress                            output.o
Se4Cmp                                            output.o
Se4CmpArpEntry                                    output.o
Se4CmpArpWaitEntry                                output.o
Se4CmpIpCombineList                               output.o
Se4CombineIp                                      output.o
Se4FlushArpEntryList                              output.o
Se4FlushIpCombineList                             output.o
Se4FlushIpWaitList                                output.o
Se4Free                                           output.o
Se4FreeArpEntryList                               output.o
Se4FreeArpWaitList                                output.o
Se4FreeIpCombine                                  output.o
Se4FreeIpCombineList                              output.o
Se4FreeIpFragmentList                             output.o
Se4FreeIpHeaderInfo                               output.o
Se4FreeIpWait                                     output.o
Se4FreeIpWaitList                                 output.o
Se4GenerateSubnetMask                             output.o
Se4GenerateSubnetMask32                           output.o
Se4GetBroadcastAddress                            output.o
Se4GetHostAddress                                 output.o
Se4GetNetworkAddress                              output.o
Se4IPToStr                                        output.o
Se4IPToStr32                                      output.o
Se4IPToUINT                                       output.o
Se4Init                                           output.o
Se4InitArpEntryList                               output.o
Se4InitArpWaitList                                output.o
Se4InitIpCombineList                              output.o
Se4InitIpFragmentList                             output.o
Se4InitIpWaitList                                 output.o
Se4InsertIpCombine                                output.o
Se4InsertIpWait                                   output.o
Se4IpCheckChecksum                                output.o
Se4IpChecksum                                     output.o
Se4IsBroadcastAddress                             output.o
Se4IsInSameNetwork                                output.o
Se4IsSubnetMask                                   output.o
Se4IsZeroIP                                       output.o
Se4MacIpRelationKnown                             output.o
Se4MainProc                                       output.o
Se4Not                                            output.o
Se4Or                                             output.o
Se4ParseIpPacket                                  output.o
Se4ParseIpPacketICMPv4                            output.o
Se4ParseIpPacketUDPv4                             output.o
Se4ProcessArpWaitList                             output.o
Se4RecvArp                                        output.o
Se4RecvArpRequest                                 output.o
Se4RecvArpResponse                                output.o
Se4RecvEthPacket                                  output.o
Se4RecvIp                                         output.o
Se4RecvIpComplete                                 output.o
Se4SearchArpEntryList                             output.o
Se4SearchArpWaitList                              output.o
Se4SearchIpCombineList                            output.o
Se4SendArpDoProcess                               output.o
Se4SendArpRequest                                 output.o
Se4SendArpResponse                                output.o
Se4SendEthPacket                                  output.o
Se4SendIcmp                                       output.o
Se4SendIcmpEchoRequest                            output.o
Se4SendIcmpEchoResponse                           output.o
Se4SendIp                                         output.o
Se4SendIpFragment                                 output.o
Se4SendIpFragmentNow                              output.o
Se4SendRawIp                                      output.o
Se4SendUdp                                        output.o
Se4SendWaitingIpWait                              output.o
Se4StrToIP                                        output.o
Se4StrToIP32                                      output.o
Se4Tick                                           output.o
Se4UINTToIP                                       output.o
Se4ZeroIP                                         output.o
Se6AddGuestNode                                   output.o
Se6AddNeighborEntryList                           output.o
Se6And                                            output.o
Se6BroadcastMacAddress                            output.o
Se6BuildIcmpEchoPacket                            output.o
Se6CalcChecksum                                   output.o
Se6CheckIPItemStr                                 output.o
Se6CheckSubnetLength                              output.o
Se6CheckUnicastAddress                            output.o
Se6Cmp                                            output.o
Se6CmpIpCombineList                               output.o
Se6CmpNdpWaitEntry                                output.o
Se6CmpNeighborEntry                               output.o
Se6CombineIp                                      output.o
Se6FlushIpCombineList                             output.o
Se6FlushIpWaitList                                output.o
Se6FlushNeighborEntryList                         output.o
Se6Free                                           output.o
Se6FreeIpCombine                                  output.o
Se6FreeIpCombineList                              output.o
Se6FreeIpFragmentList                             output.o
Se6FreeIpHeaderInfo                               output.o
Se6FreeIpWait                                     output.o
Se6FreeIpWaitList                                 output.o
Se6FreeNdpWaitList                                output.o
Se6FreeNeighborEntryList                          output.o
Se6GenerateEui64Address                           output.o
Se6GenerateEui64GlobalAddress                     output.o
Se6GenerateEui64LocalAddress                      output.o
Se6GenerateMulticastMacAddress                    output.o
Se6GenerateSubnetMask                             output.o
Se6GetAllNodeMulticastAddr                        output.o
Se6GetAllRouterMulticastAddr                      output.o
Se6GetHostAddress                                 output.o
Se6GetIPAddrType                                  output.o
Se6GetPrefixAddress                               output.o
Se6GetSoliciationMulticastAddr                    output.o
Se6IPItemStrToChars                               output.o
Se6IPToStr                                        output.o
Se6Init                                           output.o
Se6InitIpCombineList                              output.o
Se6InitIpFragmentList                             output.o
Se6InitIpWaitList                                 output.o
Se6InitNdpWaitList                                output.o
Se6InitNeighborEntryList                          output.o
Se6InsertIpCombine                                output.o
Se6InsertIpWait                                   output.o
Se6IpChecksum                                     output.o
Se6IsGuestNode                                    output.o
Se6IsInSameNetwork                                output.o
Se6IsNetworkPrefixAddress                         output.o
Se6IsSubnetMask                                   output.o
Se6IsZeroIP                                       output.o
Se6LocalSubnet                                    output.o
Se6MacIpRelationKnown                             output.o
Se6MainProc                                       output.o
Se6Not                                            output.o
Se6Or                                             output.o
Se6ParseIpPacket                                  output.o
Se6ParseIpPacketICMPv6                            output.o
Se6ParseIpPacketUDPv6                             output.o
Se6ProcessNdpWaitList                             output.o
Se6RecvEthPacket                                  output.o
Se6RecvIp                                         output.o
Se6RecvIpComplete                                 output.o
Se6SearchIpCombineList                            output.o
Se6SearchNdpWaitList                              output.o
Se6SearchNeighborEntryList                        output.o
Se6SendEthPacket                                  output.o
Se6SendIcmp                                       output.o
Se6SendIcmpEchoRequest                            output.o
Se6SendIcmpEchoResponse                           output.o
Se6SendIcmpNeighborAdvertisement                  output.o
Se6SendIcmpNeighborSoliciation                    output.o
Se6SendIcmpRouterAdvertisement                    output.o
Se6SendIp                                         output.o
Se6SendIpFragment                                 output.o
Se6SendIpFragmentNow                              output.o
Se6SendNeighborSoliciation                        output.o
Se6SendNeighborSoliciationDoProcess               output.o
Se6SendRawIp                                      output.o
Se6SendUdp                                        output.o
Se6SendWaitingIpWait                              output.o
Se6StrToIP                                        output.o
Se6SubnetMaskToInt                                output.o
Se6Tick                                           output.o
Se6ZeroIP                                         output.o
SeAdd                                             output.o
SeAddBufStr                                       output.o
SeAdjustBufSize                                   output.o
SeB64CharToCode                                   output.o
SeB64CodeToChar                                   output.o
SeB64Decode                                       output.o
SeB64Encode                                       output.o
SeBSearch                                         output.o
SeBigNumToBuf                                     output.o
SeBigNumToStr                                     output.o
SeBinToBigNum                                     output.o
SeBinToStr                                        output.o
SeBinToStrEx                                      output.o
SeBioToBuf                                        output.o
SeBioToCert                                       output.o
SeBioToKey                                        output.o
SeBufToBigNum                                     output.o
SeBufToBio                                        output.o
SeBufToCert                                       output.o
SeBufToKey                                        output.o
SeBuildAndAddIPv6PacketOptionHeader               output.o
SeBuildICMPv6OptionValue                          output.o
SeBuildICMPv6Options                              output.o
SeBuildIPv6Packet                                 output.o
SeBuildIPv6PacketWithFragment                     output.o
SeCalcReplaceStrEx                                output.o
SeCertToBio                                       output.o
SeCertToBuf                                       output.o
SeCheckCert                                       output.o
SeCheckCertAndKey                                 output.o
SeCheckSignature                                  output.o
SeClearBuf                                        output.o
SeClearFifo                                       output.o
SeClone                                           output.o
SeCloneBuf                                        output.o
SeCloneCert                                       output.o
SeCloneKey                                        output.o
SeCloneList                                       output.o
SeCmp                                             output.o
SeCmpBuf                                          output.o
SeCmpEx                                           output.o
SeCompareCert                                     output.o
SeCompareStr                                      output.o
SeCopy                                            output.o
SeCopyStr                                         output.o
SeCopyToArray                                     output.o
SeDebug                                           output.o
SeDebugBin                                        output.o
SeDefaultTokenSplitChars                          output.o
SeDelete                                          output.o
SeDeleteAll                                       output.o
SeDeleteLock                                      output.o
SeDes3Decrypt                                     output.o
SeDes3Encrypt                                     output.o
SeDes3FreeKey                                     output.o
SeDes3NewKey                                      output.o
SeDes3RandKey                                     output.o
SeDesFreeKey                                      output.o
SeDesFreeKeyValue                                 output.o
SeDesNewKey                                       output.o
SeDesNewKeyValue                                  output.o
SeDesRandKey                                      output.o
SeDesRandKeyValue                                 output.o
SeDhCompute                                       output.o
SeDhFree                                          output.o
SeDhNew                                           output.o
SeDhNewGroup2                                     output.o
SeDumpBuf                                         output.o
SeEndWith                                         output.o
SeEndian16                                        output.o
SeEndian32                                        output.o
SeEndian64                                        output.o
SeError                                           output.o
SeEthAddSenderMacList                             output.o
SeEthDeleteOldSenderMacList                       output.o
SeEthFree                                         output.o
SeEthGenRandMacAddress                            output.o
SeEthGetInfo                                      output.o
SeEthGetNextRecvPacket                            output.o
SeEthIsSenderMacAddressExistsInList               output.o
SeEthNew                                          output.o
SeEthNicCallback                                  output.o
SeEthParseEthernetPacket                          output.o
SeEthSend                                         output.o
SeEthSendAdd                                      output.o
SeEthSendAll                                      output.o
SeFastSwap                                        output.o
SeFatal                                           output.o
SeFifoSize                                        output.o
SeFormat                                          output.o
SeFormatArgs                                      output.o
SeFormatEx                                        output.o
SeFree                                            output.o
SeFreeBio                                         output.o
SeFreeBuf                                         output.o
SeFreeBufWithoutBuffer                            output.o
SeFreeCert                                        output.o
SeFreeConfigEntryList                             output.o
SeFreeCrypto                                      output.o
SeFreeFifo                                        output.o
SeFreeKernel                                      output.o
SeFreeKey                                         output.o
SeFreeList                                        output.o
SeFreePKey                                        output.o
SeFreePacket                                      output.o
SeFreePacketList                                  output.o
SeFreePacketListWithoutBuffer                     output.o
SeFreeQueue                                       output.o
SeFreeStack                                       output.o
SeFreeToken                                       output.o
SeFreeX509                                        output.o
SeGetCertIssuerName                               output.o
SeGetCertMd5                                      output.o
SeGetCertSha1                                     output.o
SeGetCertSubjectName                              output.o
SeGetConfigBin                                    output.o
SeGetConfigBool                                   output.o
SeGetConfigEntry                                  output.o
SeGetConfigInt                                    output.o
SeGetConfigInt64                                  output.o
SeGetConfigStr                                    output.o
SeGetCurrentCpuId                                 output.o
SeGetKeyAndValue                                  output.o
SeGetKeyFromCert                                  output.o
SeGetNext                                         output.o
SeGetNextHeaderFromQueue                          output.o
SeGetNextInt                                      output.o
SeHashForSignBySHA1                               output.o
SeHexTo4Bit                                       output.o
SeHexToInt                                        output.o
SeHexToInt64                                      output.o
SeIkeBuild                                        output.o
SeIkeBuildCertPayload                             output.o
SeIkeBuildCertRequestPayload                      output.o
SeIkeBuildDataPayload                             output.o
SeIkeBuildDeletePayload                           output.o
SeIkeBuildIdPayload                               output.o
SeIkeBuildNoticePayload                           output.o
SeIkeBuildPayload                                 output.o
SeIkeBuildPayloadList                             output.o
SeIkeBuildProposalPayload                         output.o
SeIkeBuildSaPayload                               output.o
SeIkeBuildTransformPayload                        output.o
SeIkeBuildTransformValue                          output.o
SeIkeBuildTransformValueList                      output.o
SeIkeDecrypt                                      output.o
SeIkeEncrypt                                      output.o
SeIkeEncryptWithPadding                           output.o
SeIkeFree                                         output.o
SeIkeFreeCertPayload                              output.o
SeIkeFreeCertRequestPayload                       output.o
SeIkeFreeDataPayload                              output.o
SeIkeFreeDeletePayload                            output.o
SeIkeFreeIdPayload                                output.o
SeIkeFreeNoticePayload                            output.o
SeIkeFreePayload                                  output.o
SeIkeFreePayloadList                              output.o
SeIkeFreeProposalPayload                          output.o
SeIkeFreeSaPayload                                output.o
SeIkeFreeTransformPayload                         output.o
SeIkeFreeTransformValueList                       output.o
SeIkeGetFirstPayloadType                          output.o
SeIkeGetIPv4Address                               output.o
SeIkeGetIPv6Address                               output.o
SeIkeGetPayload                                   output.o
SeIkeGetPayloadNum                                output.o
SeIkeInitIPv4Address                              output.o
SeIkeInitIPv6Address                              output.o
SeIkeIpAddressToStr                               output.o
SeIkeIsZeroIP                                     output.o
SeIkeNew                                          output.o
SeIkeNewCertPayload                               output.o
SeIkeNewCertRequestPayload                        output.o
SeIkeNewDataPayload                               output.o
SeIkeNewDeletePayload                             output.o
SeIkeNewIdPayload                                 output.o
SeIkeNewNoticePayload                             output.o
SeIkeNewPayload                                   output.o
SeIkeNewProposalPayload                           output.o
SeIkeNewSaPayload                                 output.o
SeIkeNewTransformPayload                          output.o
SeIkeNewTransformValue                            output.o
SeIkeParse                                        output.o
SeIkeParseCertPayload                             output.o
SeIkeParseCertRequestPayload                      output.o
SeIkeParseDataPayload                             output.o
SeIkeParseDeletePayload                           output.o
SeIkeParseEx                                      output.o
SeIkeParseHeader                                  output.o
SeIkeParseIdPayload                               output.o
SeIkeParseNoticePayload                           output.o
SeIkeParsePayload                                 output.o
SeIkeParsePayloadList                             output.o
SeIkeParsePayloadListEx                           output.o
SeIkeParseProposalPayload                         output.o
SeIkeParseSaPayload                               output.o
SeIkeParseTransformPayload                        output.o
SeIkeParseTransformValueList                      output.o
SeIkePhase1CryptIdToKeySize                       output.o
SeIkePhase2CryptIdToKeySize                       output.o
SeIkeStrToPassword                                output.o
SeIkeStrToPhase1CryptId                           output.o
SeIkeStrToPhase1HashId                            output.o
SeIkeStrToPhase2CryptId                           output.o
SeIkeStrToPhase2HashId                            output.o
SeInfo                                            output.o
SeInitCrypto                                      output.o
SeInitKernel                                      output.o
SeInsert                                          output.o
SeInsertQueue                                     output.o
SeInsertQueueInt                                  output.o
SeInsertStr                                       output.o
SeIntFree                                         output.o
SeIntInit                                         output.o
SeIsAllLowerStr                                   output.o
SeIsAllUpperStr                                   output.o
SeIsBase64                                        output.o
SeIsBigEndian                                     output.o
SeIsCertSignedByCert                              output.o
SeIsCharInStr                                     output.o
SeIsEmptyStr                                      output.o
SeIsInList                                        output.o
SeIsInListStr                                     output.o
SeIsLittleEndian                                  output.o
SeIsSplitChar                                     output.o
SeIsZero                                          output.o
SeKeyToBio                                        output.o
SeKeyToBuf                                        output.o
SeLoad                                            output.o
SeLoadCert                                        output.o
SeLoadConfigEntryList                             output.o
SeLoadConfigEntryListFromBuf                      output.o
SeLoadKey                                         output.o
SeLock                                            output.o
SeLog                                             output.o
SeLogArgs                                         output.o
SeMacSha1                                         output.o
SeMacSha196                                       output.o
SeMacToStr                                        output.o
SeMakeCharArray                                   output.o
SeMalloc                                          output.o
SeMd5                                             output.o
SeMemSize                                         output.o
SeMemToBuf                                        output.o
SeNewBio                                          output.o
SeNewBuf                                          output.o
SeNewFifo                                         output.o
SeNewList                                         output.o
SeNewLock                                         output.o
SeNewQueue                                        output.o
SeNewStack                                        output.o
SeNormalizeCrlf                                   output.o
SeNullTokenList                                   output.o
SePKeyPasswordCallbackFunction                    output.o
SeParseICMPv6Options                              output.o
SeParseIPv6ExtHeader                              output.o
SeParseIPv6Packet                                 output.o
SeParsePacket                                     output.o
SeParsePacketL2                                   output.o
SeParsePacketL3ARPv4                              output.o
SeParsePacketL3IPv4                               output.o
SeParsePacketL3IPv6                               output.o
SeParseToken                                      output.o
SeParseTokenWithNullStr                           output.o
SePeekFifo                                        output.o
SePeekNext                                        output.o
SePop                                             output.o
SePush                                            output.o
SeQSort                                           output.o
SeRand                                            output.o
SeRand1                                           output.o
SeRand16                                          output.o
SeRand32                                          output.o
SeRand64                                          output.o
SeRand8                                           output.o
SeRandBuf                                         output.o
SeReAlloc                                         output.o
SeReadBuf                                         output.o
SeReadBufFromBuf                                  output.o
SeReadBufInt                                      output.o
SeReadBufInt64                                    output.o
SeReadBufStr                                      output.o
SeReadDump                                        output.o
SeReadFifo                                        output.o
SeReadNextLine                                    output.o
SeReadRemainBuf                                   output.o
SeReplaceListPointer                              output.o
SeReplaceStr                                      output.o
SeReplaceStrEx                                    output.o
SeReplaceStri                                     output.o
SeRsaGen                                          output.o
SeRsaPrivateDecrypt                               output.o
SeRsaPrivateEncrypt                               output.o
SeRsaPublicDecrypt                                output.o
SeRsaPublicEncrypt                                output.o
SeRsaPublicSize                                   output.o
SeRsaPublicToBin                                  output.o
SeRsaPublicToBuf                                  output.o
SeRsaSign                                         output.o
SeRsaSignWithPadding                              output.o
SeRsaSignWithSha1                                 output.o
SeRsaVerifyWithPadding                            output.o
SeRsaVerifyWithSha1                               output.o
SeSave                                            output.o
SeSaveCert                                        output.o
SeSaveKey                                         output.o
SeSearch                                          output.o
SeSearchStr                                       output.o
SeSearchStrEx                                     output.o
SeSearchStri                                      output.o
SeSecAddTimer                                     output.o
SeSecCalcKEYMAT                                   output.o
SeSecCalcKEYMATFull                               output.o
SeSecCalcKa                                       output.o
SeSecCalcP1Iv                                     output.o
SeSecCalcP1KeySet                                 output.o
SeSecCalcP2Iv                                     output.o
SeSecCheckIPsecSaExpires                          output.o
SeSecCheckIkeSaExpires                            output.o
SeSecCmpIkeSa                                     output.o
SeSecDeleteExpiredIPsecSa                         output.o
SeSecDeleteExpiredIkeSa                           output.o
SeSecDoInterval                                   output.o
SeSecEspRecvCallback                              output.o
SeSecForceReconnect                               output.o
SeSecFree                                         output.o
SeSecFreeIPsecSa                                  output.o
SeSecFreeIkeSa                                    output.o
SeSecFreeMain                                     output.o
SeSecFreeP1KeySet                                 output.o
SeSecFreeSaList                                   output.o
SeSecGenIPsecSASpi                                output.o
SeSecGenIkeSaInitCookie                           output.o
SeSecGenIkeSaMessageId                            output.o
SeSecGetIPsecSa                                   output.o
SeSecInit                                         output.o
SeSecInitMain                                     output.o
SeSecInitSaList                                   output.o
SeSecLifeSeconds64bit                             output.o
SeSecNewIPsecSa                                   output.o
SeSecNewIkeSa                                     output.o
SeSecNewSpi                                       output.o
SeSecProcessIkeSaMsg                              output.o
SeSecProcessIkeSaMsgInfo                          output.o
SeSecProcessIkeSaMsgPhase1                        output.o
SeSecProcessIkeSaMsgPhase2                        output.o
SeSecProcessMain                                  output.o
SeSecSearchIPsecSaBySpi                           output.o
SeSecSearchIkeSa                                  output.o
SeSecSearchIkeSaBySpi                             output.o
SeSecSendEsp                                      output.o
SeSecSendIPsecSaDeleteMsg                         output.o
SeSecSendIkeSaDeleteMsg                           output.o
SeSecSendIkeSaMsgInfo                             output.o
SeSecSendIkeSaMsgInfoSimple                       output.o
SeSecSendIkeSaMsgPhase2                           output.o
SeSecSendIkeSaMsgPhase2FinalHash                  output.o
SeSecSendUdp                                      output.o
SeSecSendVirtualIp                                output.o
SeSecSetRecvEspCallback                           output.o
SeSecSetRecvUdpCallback                           output.o
SeSecSetRecvVirtualIpCallback                     output.o
SeSecSetTimerCallback                             output.o
SeSecStartVpnConnect                              output.o
SeSecStrToAuthMethod                              output.o
SeSecTick                                         output.o
SeSecTimerCallback                                output.o
SeSecUdpRecvCallback                              output.o
SeSecVirtualIpRecvCallback                        output.o
SeSeekBuf                                         output.o
SeSetCmp                                          output.o
SeSetSortFlag                                     output.o
SeSha1                                            output.o
SeSort                                            output.o
SeStartWith                                       output.o
SeStrCat                                          output.o
SeStrCheckLen                                     output.o
SeStrCheckSize                                    output.o
SeStrCmp                                          output.o
SeStrCmpi                                         output.o
SeStrCpy                                          output.o
SeStrLen                                          output.o
SeStrLower                                        output.o
SeStrSize                                         output.o
SeStrToBin                                        output.o
SeStrToBinEx                                      output.o
SeStrToMac                                        output.o
SeStrUpper                                        output.o
SeStrnCmp                                         output.o
SeStrnCmpi                                        output.o
SeSwap                                            output.o
SeSwap16                                          output.o
SeSwap32                                          output.o
SeSwap64                                          output.o
SeSysFreeData                                     output.o
SeSysFreeLock                                     output.o
SeSysFreeTimer                                    output.o
SeSysGetCurrentCpuId                              output.o
SeSysGetPhysicalNicInfo                           output.o
SeSysGetTickCount                                 output.o
SeSysGetVirtualNicInfo                            output.o
SeSysLoadData                                     output.o
SeSysLock                                         output.o
SeSysLog                                          output.o
SeSysMemoryAlloc                                  output.o
SeSysMemoryFree                                   output.o
SeSysMemoryReAlloc                                output.o
SeSysNewLock                                      output.o
SeSysNewTimer                                     output.o
SeSysRsaSign                                      output.o
SeSysSaveData                                     output.o
SeSysSendPhysicalNic                              output.o
SeSysSendVirtualNic                               output.o
SeSysSetPhysicalNicRecvCallback                   output.o
SeSysSetTimer                                     output.o
SeSysSetVirtualNicRecvCallback                    output.o
SeSysUnlock                                       output.o
SeTick                                            output.o
SeTick64                                          output.o
SeTick64Internal                                  output.o
SeTimerAdjust                                     output.o
SeTimerCallback                                   output.o
SeTimerEntryCompare                               output.o
SeTimerFree                                       output.o
SeTimerNew                                        output.o
SeTimerSet                                        output.o
SeToArray                                         output.o
SeToHex                                           output.o
SeToHex64                                         output.o
SeToInt                                           output.o
SeToInt64                                         output.o
SeToLower                                         output.o
SeToStr                                           output.o
SeToStr3                                          output.o
SeToStr64                                         output.o
SeToUpper                                         output.o
SeTrim                                            output.o
SeTrimCopy                                        output.o
SeTrimCrlf                                        output.o
SeTrimLeft                                        output.o
SeTrimRight                                       output.o
SeUniqueToken                                     output.o
SeUnlock                                          output.o
SeVpn4ClientAddTimer                              output.o
SeVpn4ClientGetTick                               output.o
SeVpn4ClientSendEsp                               output.o
SeVpn4ClientSendUdp                               output.o
SeVpn4ClientSendVirtualIp                         output.o
SeVpn4ClientSetRecvEspCallback                    output.o
SeVpn4ClientSetRecvUdpCallback                    output.o
SeVpn4ClientSetRecvVirtualIpCallback              output.o
SeVpn4ClientSetTimerCallback                      output.o
SeVpn4DhcpBuildDhcpOptionList                     output.o
SeVpn4DhcpFreeOptionList                          output.o
SeVpn4DhcpOptionsToBuf                            output.o
SeVpn4DhcpParseOptionList                         output.o
SeVpn4DhcpParseOptionListMain                     output.o
SeVpn4DhcpSearchOption                            output.o
SeVpn4DhcpSendResponse                            output.o
SeVpn4DhcpServer                                  output.o
SeVpn4DoInterval                                  output.o
SeVpn4Free                                        output.o
SeVpn4FreeIPsec                                   output.o
SeVpn4IPsecInputFromPhysical                      output.o
SeVpn4IPsecInputFromVirtual                       output.o
SeVpn4IPsecMainProc                               output.o
SeVpn4IPsecSendPing                               output.o
SeVpn4Init                                        output.o
SeVpn4InitIPsec                                   output.o
SeVpn4InitSecConfig                               output.o
SeVpn4MainProc                                    output.o
SeVpn4NewDhcpOption                               output.o
SeVpn4RecvPacketPhysical                          output.o
SeVpn4RecvPacketVirtual                           output.o
SeVpn4SetTimer                                    output.o
SeVpn4Tick                                        output.o
SeVpn6ClientAddTimer                              output.o
SeVpn6ClientGetTick                               output.o
SeVpn6ClientSendEsp                               output.o
SeVpn6ClientSendUdp                               output.o
SeVpn6ClientSendVirtualIp                         output.o
SeVpn6ClientSetRecvEspCallback                    output.o
SeVpn6ClientSetRecvUdpCallback                    output.o
SeVpn6ClientSetRecvVirtualIpCallback              output.o
SeVpn6ClientSetTimerCallback                      output.o
SeVpn6DoInterval                                  output.o
SeVpn6Free                                        output.o
SeVpn6FreeIPsec                                   output.o
SeVpn6IPsecInputFromPhysical                      output.o
SeVpn6IPsecInputFromVirtual                       output.o
SeVpn6IPsecMainProc                               output.o
SeVpn6IPsecSendPing                               output.o
SeVpn6Init                                        output.o
SeVpn6InitIPsec                                   output.o
SeVpn6InitSecConfig                               output.o
SeVpn6MainProc                                    output.o
SeVpn6RecvPacketPhysical                          output.o
SeVpn6RecvPacketVirtual                           output.o
SeVpn6SetTimer                                    output.o
SeVpn6Tick                                        output.o
SeVpn6UpdateGuestOsIpAddress                      output.o
SeVpnAddTimer                                     output.o
SeVpnDoInterval                                   output.o
SeVpnEthRecvCallback                              output.o
SeVpnFree                                         output.o
SeVpnFreeConfig                                   output.o
SeVpnFreeIpStack                                  output.o
SeVpnInit                                         output.o
SeVpnInitIpStack                                  output.o
SeVpnLoadConfig                                   output.o
SeVpnMainFree                                     output.o
SeVpnMainHandler                                  output.o
SeVpnMainInit                                     output.o
SeVpnMainProcRecvEtherPacket                      output.o
SeVpnMainProcess                                  output.o
SeVpnRecvEtherPacket                              output.o
SeVpnRecvIpV4PacketCallback                       output.o
SeVpnRecvIpV6PacketCallback                       output.o
SeVpnSendEtherPacket                              output.o
SeVpnStatusChanged                                output.o
SeVpnTick                                         output.o
SeVpnTimerCallback                                output.o
SeWarning                                         output.o
SeWriteBuf                                        output.o
SeWriteBufBuf                                     output.o
SeWriteBufInt                                     output.o
SeWriteBufInt64                                   output.o
SeWriteBufLine                                    output.o
SeWriteBufStr                                     output.o
SeWriteFifo                                       output.o
SeX509ToCert                                      output.o
SeZero                                            output.o
SeZeroMalloc                                      output.o
SelectFileDF                                      output.o
SelectFileEF                                      output.o
SetATR                                            output.o
SetElem                                           output.o
SetLength                                         output.o
StIsdigit                                         output.o
StIsspace                                         output.o
T0XfrBlockCHAR                                    output.o
T0XfrBlockTPDU                                    output.o
T1NegociateIFSD                                   output.o
T1XfrBlockExtendedAPDU                            output.o
T1XfrBlockTPDU                                    output.o
TransHex2Tex                                      output.o
TransTex2Hex                                      output.o
TransmitCommand                                   output.o
TransmitPPS                                       output.o
UI_OpenSSL                                        output.o
UI_add_error_string                               output.o
UI_add_info_string                                output.o
UI_add_input_boolean                              output.o
UI_add_input_string                               output.o
UI_add_user_data                                  output.o
UI_add_verify_string                              output.o
UI_construct_prompt                               output.o
UI_create_method                                  output.o
UI_ctrl                                           output.o
UI_destroy_method                                 output.o
UI_dup_error_string                               output.o
UI_dup_info_string                                output.o
UI_dup_input_boolean                              output.o
UI_dup_input_string                               output.o
UI_dup_verify_string                              output.o
UI_free                                           output.o
UI_get0_action_string                             output.o
UI_get0_output_string                             output.o
UI_get0_result                                    output.o
UI_get0_result_string                             output.o
UI_get0_test_string                               output.o
UI_get0_user_data                                 output.o
UI_get_default_method                             output.o
UI_get_ex_data                                    output.o
UI_get_ex_new_index                               output.o
UI_get_input_flags                                output.o
UI_get_method                                     output.o
UI_get_result_maxsize                             output.o
UI_get_result_minsize                             output.o
UI_get_string_type                                output.o
UI_method_get_closer                              output.o
UI_method_get_flusher                             output.o
UI_method_get_opener                              output.o
UI_method_get_prompt_constructor                  output.o
UI_method_get_reader                              output.o
UI_method_get_writer                              output.o
UI_method_set_closer                              output.o
UI_method_set_flusher                             output.o
UI_method_set_opener                              output.o
UI_method_set_prompt_constructor                  output.o
UI_method_set_reader                              output.o
UI_method_set_writer                              output.o
UI_new                                            output.o
UI_new_method                                     output.o
UI_process                                        output.o
UI_set_default_method                             output.o
UI_set_ex_data                                    output.o
UI_set_method                                     output.o
UI_set_result                                     output.o
USERNOTICE_free                                   output.o
USERNOTICE_it                                     output.o
USERNOTICE_new                                    output.o
UTF8_getc                                         output.o
UTF8_putc                                         output.o
UpdateBinary                                      output.o
VPN_IPsec_Client_Start                            output.o
VPN_IPsec_Client_Stop                             output.o
VPN_IPsec_Free                                    output.o
VPN_IPsec_Init                                    output.o
Verify                                            output.o
WHIRLPOOL                                         output.o
WHIRLPOOL_BitUpdate                               output.o
WHIRLPOOL_Final                                   output.o
WHIRLPOOL_Init                                    output.o
WHIRLPOOL_Update                                  output.o
WriteUSB                                          output.o
X509V3_EXT_CRL_add_conf                           output.o
X509V3_EXT_CRL_add_nconf                          output.o
X509V3_EXT_REQ_add_conf                           output.o
X509V3_EXT_REQ_add_nconf                          output.o
X509V3_EXT_add                                    output.o
X509V3_EXT_add_alias                              output.o
X509V3_EXT_add_conf                               output.o
X509V3_EXT_add_list                               output.o
X509V3_EXT_add_nconf                              output.o
X509V3_EXT_add_nconf_sk                           output.o
X509V3_EXT_cleanup                                output.o
X509V3_EXT_conf                                   output.o
X509V3_EXT_conf_nid                               output.o
X509V3_EXT_d2i                                    output.o
X509V3_EXT_get                                    output.o
X509V3_EXT_get_nid                                output.o
X509V3_EXT_i2d                                    output.o
X509V3_EXT_nconf                                  output.o
X509V3_EXT_nconf_nid                              output.o
X509V3_EXT_print                                  output.o
X509V3_EXT_val_prn                                output.o
X509V3_NAME_from_section                          output.o
X509V3_add1_i2d                                   output.o
X509V3_add_standard_extensions                    output.o
X509V3_add_value                                  output.o
X509V3_add_value_bool                             output.o
X509V3_add_value_bool_nf                          output.o
X509V3_add_value_int                              output.o
X509V3_add_value_uchar                            output.o
X509V3_conf_free                                  output.o
X509V3_extensions_print                           output.o
X509V3_get_d2i                                    output.o
X509V3_get_section                                output.o
X509V3_get_string                                 output.o
X509V3_get_value_bool                             output.o
X509V3_get_value_int                              output.o
X509V3_parse_list                                 output.o
X509V3_section_free                               output.o
X509V3_set_conf_lhash                             output.o
X509V3_set_ctx                                    output.o
X509V3_set_nconf                                  output.o
X509V3_string_free                                output.o
X509_ALGORS_it                                    output.o
X509_ALGOR_dup                                    output.o
X509_ALGOR_free                                   output.o
X509_ALGOR_get0                                   output.o
X509_ALGOR_it                                     output.o
X509_ALGOR_new                                    output.o
X509_ALGOR_set0                                   output.o
X509_ATTRIBUTE_SET_it                             output.o
X509_ATTRIBUTE_count                              output.o
X509_ATTRIBUTE_create                             output.o
X509_ATTRIBUTE_create_by_NID                      output.o
X509_ATTRIBUTE_create_by_OBJ                      output.o
X509_ATTRIBUTE_create_by_txt                      output.o
X509_ATTRIBUTE_dup                                output.o
X509_ATTRIBUTE_free                               output.o
X509_ATTRIBUTE_get0_data                          output.o
X509_ATTRIBUTE_get0_object                        output.o
X509_ATTRIBUTE_get0_type                          output.o
X509_ATTRIBUTE_it                                 output.o
X509_ATTRIBUTE_new                                output.o
X509_ATTRIBUTE_set1_data                          output.o
X509_ATTRIBUTE_set1_object                        output.o
X509_CERT_AUX_free                                output.o
X509_CERT_AUX_it                                  output.o
X509_CERT_AUX_new                                 output.o
X509_CERT_AUX_print                               output.o
X509_CERT_PAIR_free                               output.o
X509_CERT_PAIR_it                                 output.o
X509_CERT_PAIR_new                                output.o
X509_CINF_free                                    output.o
X509_CINF_it                                      output.o
X509_CINF_new                                     output.o
X509_CRL_INFO_free                                output.o
X509_CRL_INFO_it                                  output.o
X509_CRL_INFO_new                                 output.o
X509_CRL_METHOD_free                              output.o
X509_CRL_METHOD_new                               output.o
X509_CRL_add0_revoked                             output.o
X509_CRL_add1_ext_i2d                             output.o
X509_CRL_add_ext                                  output.o
X509_CRL_cmp                                      output.o
X509_CRL_delete_ext                               output.o
X509_CRL_digest                                   output.o
X509_CRL_dup                                      output.o
X509_CRL_free                                     output.o
X509_CRL_get0_by_cert                             output.o
X509_CRL_get0_by_serial                           output.o
X509_CRL_get_ext                                  output.o
X509_CRL_get_ext_by_NID                           output.o
X509_CRL_get_ext_by_OBJ                           output.o
X509_CRL_get_ext_by_critical                      output.o
X509_CRL_get_ext_count                            output.o
X509_CRL_get_ext_d2i                              output.o
X509_CRL_get_meth_data                            output.o
X509_CRL_it                                       output.o
X509_CRL_match                                    output.o
X509_CRL_new                                      output.o
X509_CRL_set_default_method                       output.o
X509_CRL_set_meth_data                            output.o
X509_CRL_sign                                     output.o
X509_CRL_verify                                   output.o
X509_EXTENSIONS_it                                output.o
X509_EXTENSION_create_by_NID                      output.o
X509_EXTENSION_create_by_OBJ                      output.o
X509_EXTENSION_dup                                output.o
X509_EXTENSION_free                               output.o
X509_EXTENSION_get_critical                       output.o
X509_EXTENSION_get_data                           output.o
X509_EXTENSION_get_object                         output.o
X509_EXTENSION_it                                 output.o
X509_EXTENSION_new                                output.o
X509_EXTENSION_set_critical                       output.o
X509_EXTENSION_set_data                           output.o
X509_EXTENSION_set_object                         output.o
X509_LOOKUP_by_alias                              output.o
X509_LOOKUP_by_fingerprint                        output.o
X509_LOOKUP_by_issuer_serial                      output.o
X509_LOOKUP_by_subject                            output.o
X509_LOOKUP_ctrl                                  output.o
X509_LOOKUP_free                                  output.o
X509_LOOKUP_init                                  output.o
X509_LOOKUP_new                                   output.o
X509_LOOKUP_shutdown                              output.o
X509_NAME_ENTRIES_it                              output.o
X509_NAME_ENTRY_create_by_NID                     output.o
X509_NAME_ENTRY_create_by_OBJ                     output.o
X509_NAME_ENTRY_create_by_txt                     output.o
X509_NAME_ENTRY_dup                               output.o
X509_NAME_ENTRY_free                              output.o
X509_NAME_ENTRY_get_data                          output.o
X509_NAME_ENTRY_get_object                        output.o
X509_NAME_ENTRY_it                                output.o
X509_NAME_ENTRY_new                               output.o
X509_NAME_ENTRY_set_data                          output.o
X509_NAME_ENTRY_set_object                        output.o
X509_NAME_INTERNAL_it                             output.o
X509_NAME_add_entry                               output.o
X509_NAME_add_entry_by_NID                        output.o
X509_NAME_add_entry_by_OBJ                        output.o
X509_NAME_add_entry_by_txt                        output.o
X509_NAME_cmp                                     output.o
X509_NAME_delete_entry                            output.o
X509_NAME_digest                                  output.o
X509_NAME_dup                                     output.o
X509_NAME_entry_count                             output.o
X509_NAME_free                                    output.o
X509_NAME_get_entry                               output.o
X509_NAME_get_index_by_NID                        output.o
X509_NAME_get_index_by_OBJ                        output.o
X509_NAME_get_text_by_NID                         output.o
X509_NAME_get_text_by_OBJ                         output.o
X509_NAME_hash                                    output.o
X509_NAME_hash_old                                output.o
X509_NAME_it                                      output.o
X509_NAME_new                                     output.o
X509_NAME_oneline                                 output.o
X509_NAME_print                                   output.o
X509_NAME_print_ex                                output.o
X509_NAME_set                                     output.o
X509_OBJECT_free_contents                         output.o
X509_OBJECT_idx_by_subject                        output.o
X509_OBJECT_retrieve_by_subject                   output.o
X509_OBJECT_retrieve_match                        output.o
X509_OBJECT_up_ref_count                          output.o
X509_POLICY_NODE_print                            output.o
X509_PUBKEY_free                                  output.o
X509_PUBKEY_get                                   output.o
X509_PUBKEY_get0_param                            output.o
X509_PUBKEY_it                                    output.o
X509_PUBKEY_new                                   output.o
X509_PUBKEY_set                                   output.o
X509_PUBKEY_set0_param                            output.o
X509_PURPOSE_add                                  output.o
X509_PURPOSE_cleanup                              output.o
X509_PURPOSE_get0                                 output.o
X509_PURPOSE_get0_name                            output.o
X509_PURPOSE_get0_sname                           output.o
X509_PURPOSE_get_by_id                            output.o
X509_PURPOSE_get_by_sname                         output.o
X509_PURPOSE_get_count                            output.o
X509_PURPOSE_get_id                               output.o
X509_PURPOSE_get_trust                            output.o
X509_PURPOSE_set                                  output.o
X509_REQ_INFO_free                                output.o
X509_REQ_INFO_it                                  output.o
X509_REQ_INFO_new                                 output.o
X509_REQ_add1_attr                                output.o
X509_REQ_add1_attr_by_NID                         output.o
X509_REQ_add1_attr_by_OBJ                         output.o
X509_REQ_add1_attr_by_txt                         output.o
X509_REQ_add_extensions                           output.o
X509_REQ_add_extensions_nid                       output.o
X509_REQ_check_private_key                        output.o
X509_REQ_delete_attr                              output.o
X509_REQ_digest                                   output.o
X509_REQ_dup                                      output.o
X509_REQ_extension_nid                            output.o
X509_REQ_free                                     output.o
X509_REQ_get1_email                               output.o
X509_REQ_get_attr                                 output.o
X509_REQ_get_attr_by_NID                          output.o
X509_REQ_get_attr_by_OBJ                          output.o
X509_REQ_get_attr_count                           output.o
X509_REQ_get_extension_nids                       output.o
X509_REQ_get_extensions                           output.o
X509_REQ_get_pubkey                               output.o
X509_REQ_it                                       output.o
X509_REQ_new                                      output.o
X509_REQ_set_extension_nids                       output.o
X509_REQ_set_pubkey                               output.o
X509_REQ_set_subject_name                         output.o
X509_REQ_set_version                              output.o
X509_REQ_sign                                     output.o
X509_REQ_verify                                   output.o
X509_REVOKED_add1_ext_i2d                         output.o
X509_REVOKED_add_ext                              output.o
X509_REVOKED_delete_ext                           output.o
X509_REVOKED_free                                 output.o
X509_REVOKED_get_ext                              output.o
X509_REVOKED_get_ext_by_NID                       output.o
X509_REVOKED_get_ext_by_OBJ                       output.o
X509_REVOKED_get_ext_by_critical                  output.o
X509_REVOKED_get_ext_count                        output.o
X509_REVOKED_get_ext_d2i                          output.o
X509_REVOKED_it                                   output.o
X509_REVOKED_new                                  output.o
X509_SIG_free                                     output.o
X509_SIG_it                                       output.o
X509_SIG_new                                      output.o
X509_STORE_CTX_cleanup                            output.o
X509_STORE_CTX_free                               output.o
X509_STORE_CTX_get0_current_crl                   output.o
X509_STORE_CTX_get0_current_issuer                output.o
X509_STORE_CTX_get0_param                         output.o
X509_STORE_CTX_get0_parent_ctx                    output.o
X509_STORE_CTX_get0_policy_tree                   output.o
X509_STORE_CTX_get1_chain                         output.o
X509_STORE_CTX_get1_issuer                        output.o
X509_STORE_CTX_get_chain                          output.o
X509_STORE_CTX_get_current_cert                   output.o
X509_STORE_CTX_get_error                          output.o
X509_STORE_CTX_get_error_depth                    output.o
X509_STORE_CTX_get_ex_data                        output.o
X509_STORE_CTX_get_ex_new_index                   output.o
X509_STORE_CTX_get_explicit_policy                output.o
X509_STORE_CTX_init                               output.o
X509_STORE_CTX_new                                output.o
X509_STORE_CTX_purpose_inherit                    output.o
X509_STORE_CTX_set0_crls                          output.o
X509_STORE_CTX_set0_param                         output.o
X509_STORE_CTX_set_cert                           output.o
X509_STORE_CTX_set_chain                          output.o
X509_STORE_CTX_set_default                        output.o
X509_STORE_CTX_set_depth                          output.o
X509_STORE_CTX_set_error                          output.o
X509_STORE_CTX_set_ex_data                        output.o
X509_STORE_CTX_set_flags                          output.o
X509_STORE_CTX_set_purpose                        output.o
X509_STORE_CTX_set_time                           output.o
X509_STORE_CTX_set_trust                          output.o
X509_STORE_CTX_set_verify_cb                      output.o
X509_STORE_CTX_trusted_stack                      output.o
X509_STORE_add_cert                               output.o
X509_STORE_add_crl                                output.o
X509_STORE_add_lookup                             output.o
X509_STORE_free                                   output.o
X509_STORE_get1_certs                             output.o
X509_STORE_get1_crls                              output.o
X509_STORE_get_by_subject                         output.o
X509_STORE_new                                    output.o
X509_STORE_set1_param                             output.o
X509_STORE_set_depth                              output.o
X509_STORE_set_flags                              output.o
X509_STORE_set_purpose                            output.o
X509_STORE_set_trust                              output.o
X509_STORE_set_verify_cb                          output.o
X509_TRUST_add                                    output.o
X509_TRUST_cleanup                                output.o
X509_TRUST_get0                                   output.o
X509_TRUST_get0_name                              output.o
X509_TRUST_get_by_id                              output.o
X509_TRUST_get_count                              output.o
X509_TRUST_get_flags                              output.o
X509_TRUST_get_trust                              output.o
X509_TRUST_set                                    output.o
X509_TRUST_set_default                            output.o
X509_VAL_free                                     output.o
X509_VAL_it                                       output.o
X509_VAL_new                                      output.o
X509_VERIFY_PARAM_add0_policy                     output.o
X509_VERIFY_PARAM_add0_table                      output.o
X509_VERIFY_PARAM_clear_flags                     output.o
X509_VERIFY_PARAM_free                            output.o
X509_VERIFY_PARAM_get_depth                       output.o
X509_VERIFY_PARAM_get_flags                       output.o
X509_VERIFY_PARAM_inherit                         output.o
X509_VERIFY_PARAM_lookup                          output.o
X509_VERIFY_PARAM_new                             output.o
X509_VERIFY_PARAM_set1                            output.o
X509_VERIFY_PARAM_set1_name                       output.o
X509_VERIFY_PARAM_set1_policies                   output.o
X509_VERIFY_PARAM_set_depth                       output.o
X509_VERIFY_PARAM_set_flags                       output.o
X509_VERIFY_PARAM_set_purpose                     output.o
X509_VERIFY_PARAM_set_time                        output.o
X509_VERIFY_PARAM_set_trust                       output.o
X509_VERIFY_PARAM_table_cleanup                   output.o
X509_add1_ext_i2d                                 output.o
X509_add1_reject_object                           output.o
X509_add1_trust_object                            output.o
X509_add_ext                                      output.o
X509_alias_get0                                   output.o
X509_alias_set1                                   output.o
X509_check_akid                                   output.o
X509_check_ca                                     output.o
X509_check_issued                                 output.o
X509_check_private_key                            output.o
X509_check_purpose                                output.o
X509_check_trust                                  output.o
X509_cmp                                          output.o
X509_cmp_current_time                             output.o
X509_cmp_time                                     output.o
X509_delete_ext                                   output.o
X509_digest                                       output.o
X509_dup                                          output.o
X509_email_free                                   output.o
X509_find_by_issuer_and_serial                    output.o
X509_find_by_subject                              output.o
X509_free                                         output.o
X509_get0_pubkey_bitstr                           output.o
X509_get1_email                                   output.o
X509_get1_ocsp                                    output.o
X509_get_default_cert_area                        output.o
X509_get_default_cert_dir                         output.o
X509_get_default_cert_dir_env                     output.o
X509_get_default_cert_file                        output.o
X509_get_default_cert_file_env                    output.o
X509_get_default_private_dir                      output.o
X509_get_ex_data                                  output.o
X509_get_ex_new_index                             output.o
X509_get_ext                                      output.o
X509_get_ext_by_NID                               output.o
X509_get_ext_by_OBJ                               output.o
X509_get_ext_by_critical                          output.o
X509_get_ext_count                                output.o
X509_get_ext_d2i                                  output.o
X509_get_issuer_name                              output.o
X509_get_pubkey                                   output.o
X509_get_pubkey_parameters                        output.o
X509_get_serialNumber                             output.o
X509_get_subject_name                             output.o
X509_gmtime_adj                                   output.o
X509_issuer_and_serial_cmp                        output.o
X509_issuer_and_serial_hash                       output.o
X509_issuer_name_cmp                              output.o
X509_issuer_name_hash                             output.o
X509_issuer_name_hash_old                         output.o
X509_it                                           output.o
X509_keyid_get0                                   output.o
X509_keyid_set1                                   output.o
X509_new                                          output.o
X509_ocspid_print                                 output.o
X509_policy_check                                 output.o
X509_policy_level_get0_node                       output.o
X509_policy_level_node_count                      output.o
X509_policy_node_get0_parent                      output.o
X509_policy_node_get0_policy                      output.o
X509_policy_node_get0_qualifiers                  output.o
X509_policy_tree_free                             output.o
X509_policy_tree_get0_level                       output.o
X509_policy_tree_get0_policies                    output.o
X509_policy_tree_get0_user_policies               output.o
X509_policy_tree_level_count                      output.o
X509_print                                        output.o
X509_print_ex                                     output.o
X509_pubkey_digest                                output.o
X509_reject_clear                                 output.o
X509_set_ex_data                                  output.o
X509_sign                                         output.o
X509_signature_print                              output.o
X509_subject_name_cmp                             output.o
X509_subject_name_hash                            output.o
X509_subject_name_hash_old                        output.o
X509_supported_extension                          output.o
X509_time_adj                                     output.o
X509_time_adj_ex                                  output.o
X509_to_X509_REQ                                  output.o
X509_trust_clear                                  output.o
X509_verify                                       output.o
X509_verify_cert                                  output.o
X509_version                                      output.o
X509at_add1_attr                                  output.o
X509at_add1_attr_by_NID                           output.o
X509at_add1_attr_by_OBJ                           output.o
X509at_add1_attr_by_txt                           output.o
X509at_delete_attr                                output.o
X509at_get0_data_by_OBJ                           output.o
X509at_get_attr                                   output.o
X509at_get_attr_by_NID                            output.o
X509at_get_attr_by_OBJ                            output.o
X509at_get_attr_count                             output.o
X509v3_add_ext                                    output.o
X509v3_delete_ext                                 output.o
X509v3_get_ext                                    output.o
X509v3_get_ext_by_NID                             output.o
X509v3_get_ext_by_OBJ                             output.o
X509v3_get_ext_by_critical                        output.o
X509v3_get_ext_count                              output.o
X9_62_CHARACTERISTIC_TWO_free                     output.o
X9_62_CHARACTERISTIC_TWO_it                       output.o
X9_62_CHARACTERISTIC_TWO_new                      output.o
X9_62_CURVE_it                                    output.o
X9_62_FIELDID_it                                  output.o
X9_62_PENTANOMIAL_free                            output.o
X9_62_PENTANOMIAL_it                              output.o
X9_62_PENTANOMIAL_new                             output.o
ZLONG_it                                          output.o
_CONF_add_string                                  output.o
_CONF_free_data                                   output.o
_CONF_get_section                                 output.o
_CONF_get_section_values                          output.o
_CONF_get_string                                  output.o
_CONF_new_data                                    output.o
_CONF_new_section                                 output.o
__initfunc_acpi_init_global                       output.o
__initfunc_acpi_init_paral                        output.o
__initfunc_ata_init                               output.o
__initfunc_beep_init_msg                          output.o
__initfunc_cache_init_pass                        output.o
__initfunc_cache_init_pcpu                        output.o
__initfunc_cache_init_vcpu                        output.o
__initfunc_callrealmode_init_global               output.o
__initfunc_callrealmode_panic                     output.o
__initfunc_copy_minios                            output.o
__initfunc_core_init                              output.o
__initfunc_cpu_mmu_spt_init_global                output.o
__initfunc_cpu_mmu_spt_init_pcpu                  output.o
__initfunc_cpuid_init                             output.o
__initfunc_cpuid_pass_init                        output.o
__initfunc_create_pass_vm                         output.o
__initfunc_debug_ata_init                         output.o
__initfunc_debug_on_shift_key                     output.o
__initfunc_ehci_init                              output.o
__initfunc_end                                    output.o
__initfunc_exint_pass_init                        output.o
__initfunc_get_shiftflags                         output.o
__initfunc_gmm_pass_init                          output.o
__initfunc_idman_init                             output.o
__initfunc_idman_init_global                      output.o
__initfunc_idman_kernel_init                      output.o
__initfunc_ieee1394_init                          output.o
__initfunc_ieee1394_init_boot                     output.o
__initfunc_install_int0x15_hook                   output.o
__initfunc_int_init_global                        output.o
__initfunc_int_wakeup                             output.o
__initfunc_io_io_init                             output.o
__initfunc_io_iopass_init                         output.o
__initfunc_iommu_setup                            output.o
__initfunc_keyboard_init_msg                      output.o
__initfunc_localapic_init                         output.o
__initfunc_mm_init_global                         output.o
__initfunc_mmio_debug                             output.o
__initfunc_mmio_init                              output.o
__initfunc_msg_init_global                        output.o
__initfunc_msr_init                               output.o
__initfunc_msr_pass_init                          output.o
__initfunc_nmi_pass_init                          output.o
__initfunc_nmi_pass_init_pcpu                     output.o
__initfunc_panic_init_global                      output.o
__initfunc_panic_init_global3                     output.o
__initfunc_panic_init_msg                         output.o
__initfunc_panic_init_pcpu                        output.o
__initfunc_pci_init                               output.o
__initfunc_print_boot_msg                         output.o
__initfunc_printf_init_global                     output.o
__initfunc_pro100_init                            output.o
__initfunc_process_init_ap                        output.o
__initfunc_process_init_global                    output.o
__initfunc_process_wakeup                         output.o
__initfunc_random_init_config0                    output.o
__initfunc_random_init_global                     output.o
__initfunc_reboot_init_msg                        output.o
__initfunc_resume_pro1000                         output.o
__initfunc_segment_init_global                    output.o
__initfunc_serial_init_msg                        output.o
__initfunc_setiohooks                             output.o
__initfunc_sleep_init_global                      output.o
__initfunc_sleep_init_msg                         output.o
__initfunc_start                                  output.o
__initfunc_storage_io_initfunc                    output.o
__initfunc_storage_kernel_init                    output.o
__initfunc_suspend_pro1000                        output.o
__initfunc_svm_panic                              output.o
__initfunc_sx_init_pass_init                      output.o
__initfunc_thread_init_global                     output.o
__initfunc_thread_init_pcpu                       output.o
__initfunc_time_init_global                       output.o
__initfunc_time_init_global_status                output.o
__initfunc_time_init_msg                          output.o
__initfunc_time_init_pcpu                         output.o
__initfunc_timer_init_global                      output.o
__initfunc_tty_init_global                        output.o
__initfunc_tty_init_global2                       output.o
__initfunc_tty_init_msg                           output.o
__initfunc_uhci_init                              output.o
__initfunc_unmap_user_area                        output.o
__initfunc_vcpu_init_global                       output.o
__initfunc_vga_init                               output.o
__initfunc_virtualization_init_pcpu               output.o
__initfunc_vmmcall_boot_init                      output.o
__initfunc_vmmcall_dbgsh_init                     output.o
__initfunc_vmmcall_dbgsh_init_global              output.o
__initfunc_vmmcall_dbgsh_init_pcpu                output.o
__initfunc_vmmcall_iccard_init                    output.o
__initfunc_vmmcall_init                           output.o
__initfunc_vmmcall_log_init                       output.o
__initfunc_vmmcall_status_init                    output.o
__initfunc_vmmcall_status_init_global             output.o
__initfunc_vpn_kernel_init                        output.o
__initfunc_vpn_pro1000_init                       output.o
__initfunc_vramwrite_init_bsp                     output.o
__initfunc_vramwrite_init_msg                     output.o
__initfunc_vt_panic                               output.o
__initfunc_vt_register_status_callback            output.o
__initfunc_xsetbv_init                            output.o
__initfunc_xsetbv_pass_init                       output.o
__process_builtin                                 output.o
__process_builtin_end                             output.o
_dprintf                                          output.o
_dprintft                                         output.o
_shadow_DES_check_key                             output.o
a2d_ASN1_OBJECT                                   output.o
a2i_ASN1_INTEGER                                  output.o
a2i_ASN1_STRING                                   output.o
a2i_GENERAL_NAME                                  output.o
a2i_IPADDRESS                                     output.o
a2i_IPADDRESS_NC                                  output.o
a2i_ipadd                                         output.o
acpi_dsdt_parse                                   output.o
acpi_dsdt_system_state                            output.o
acpi_iohook                                       output.o
acpi_poweroff                                     output.o
acpi_reset                                        output.o
acpi_smi_hook                                     output.o
add_remap                                         output.o
aes_xts_init                                      output.o
ahci_config_read                                  output.o
ahci_config_write                                 output.o
ahci_new                                          output.o
alloc                                             output.o
alloc2                                            output.o
alloc_handler_descriptor                          output.o
alloc_page                                        output.o
alloc_pages                                       output.o
alloc_realmodemem                                 output.o
allocateNewAppID                                  output.o
allocateNewApplicationIdentifiers                 output.o
allocateNewVMID                                   output.o
allocateNewZeroPage                               output.o
ap_start_addr                                     output.o
apic_available                                    output.o
apinit_lock                                       output.o
apinit_procs                                      output.o
apinitproc0                                       output.o
app_pkey_methods                                  output.o
asm_vmlaunch_regs_32                              output.o
asm_vmlaunch_regs_64                              output.o
asm_vmresume_regs_32                              output.o
asm_vmresume_regs_64                              output.o
asm_vmrun_regs_32                                 output.o
asm_vmrun_regs_64                                 output.o
asn1_Finish                                       output.o
asn1_GetSequence                                  output.o
asn1_add_error                                    output.o
asn1_const_Finish                                 output.o
asn1_do_adb                                       output.o
asn1_do_lock                                      output.o
asn1_enc_free                                     output.o
asn1_enc_init                                     output.o
asn1_enc_restore                                  output.o
asn1_enc_save                                     output.o
asn1_ex_c2i                                       output.o
asn1_ex_i2c                                       output.o
asn1_get_choice_selector                          output.o
asn1_get_field_ptr                                output.o
asn1_set_choice_selector                          output.o
asn1_template_print_ctx                           output.o
assertion_failed                                  output.o
ata_ahci_mode                                     output.o
ata_bm_handle_command                             output.o
ata_bm_handle_device_specific                     output.o
ata_bm_handle_prd_table                           output.o
ata_bm_handle_status                              output.o
ata_bm_handler                                    output.o
ata_bm_handler_table                              output.o
ata_channel_lock                                  output.o
ata_channel_unlock                                output.o
ata_cmdblk_handler                                output.o
ata_cmdblk_handler_table                          output.o
ata_config_read                                   output.o
ata_config_write                                  output.o
ata_ctlblk_handler                                output.o
ata_ctlblk_handler_table                          output.o
ata_get_cmd_type                                  output.o
ata_handle_queued_status                          output.o
ata_init_io_handler                               output.o
ata_init_vendor                                   output.o
ata_set_bm_handler                                output.o
ata_set_cmdblk_handler                            output.o
ata_set_ctlblk_handler                            output.o
atapi_handle_cmd_packet                           output.o
atapi_handle_config_data                          output.o
atapi_handle_interrupt_reason                     output.o
atapi_handle_packet_data                          output.o
atapi_handle_pio_identify_packet                  output.o
auto_reboot                                       output.o
backtrace                                         output.o
beep_off                                          output.o
beep_on                                           output.o
beep_set_freq                                     output.o
bn_add_part_words                                 output.o
bn_add_words                                      output.o
bn_cmp_part_words                                 output.o
bn_cmp_words                                      output.o
bn_div_words                                      output.o
bn_dup_expand                                     output.o
bn_expand2                                        output.o
bn_mul_add_words                                  output.o
bn_mul_comba4                                     output.o
bn_mul_comba8                                     output.o
bn_mul_high                                       output.o
bn_mul_low_normal                                 output.o
bn_mul_low_recursive                              output.o
bn_mul_normal                                     output.o
bn_mul_part_recursive                             output.o
bn_mul_recursive                                  output.o
bn_mul_words                                      output.o
bn_sqr_comba4                                     output.o
bn_sqr_comba8                                     output.o
bn_sqr_normal                                     output.o
bn_sqr_recursive                                  output.o
bn_sqr_words                                      output.o
bn_sub_part_words                                 output.o
bn_sub_words                                      output.o
bss                                               output.o
c2i_ASN1_BIT_STRING                               output.o
c2i_ASN1_INTEGER                                  output.o
c2i_ASN1_OBJECT                                   output.o
cache_get_attr                                    output.o
cache_get_gmsr_amd                                output.o
cache_get_gmtrr                                   output.o
cache_get_gmtrr_attr                              output.o
cache_get_gmtrr_type                              output.o
cache_get_gmtrrcap                                output.o
cache_get_gpat                                    output.o
cache_set_gmsr_amd                                output.o
cache_set_gmtrr                                   output.o
cache_set_gpat                                    output.o
call_cpuid                                        output.o
call_initfunc                                     output.o
call_io                                           output.o
call_read_msr                                     output.o
call_write_msr                                    output.o
call_xsetbv                                       output.o
callfunc_and_getint                               output.o
callrealmode_bootcd_getstatus                     output.o
callrealmode_disk_readlba                         output.o
callrealmode_disk_readmbr                         output.o
callrealmode_end                                  output.o
callrealmode_endofcodeaddr                        output.o
callrealmode_getfontinfo                          output.o
callrealmode_getshiftflags                        output.o
callrealmode_getsysmemmap                         output.o
callrealmode_printmsg                             output.o
callrealmode_reboot                               output.o
callrealmode_setcursorpos                         output.o
callrealmode_setvideomode                         output.o
callrealmode_start                                output.o
callrealmode_start2                               output.o
callrealmode_startkernel32                        output.o
callrealmode_tcgbios                              output.o
callrealmode_usevcpu                              output.o
cancel_sleep                                      output.o
changePageStatus                                  output.o
check_defer                                       output.o
chelp_abort                                       output.o
chelp_bsearch                                     output.o
chelp_div_64_32_32                                output.o
chelp_div_64_32_64                                output.o
chelp_free                                        output.o
chelp_inited                                      output.o
chelp_isalnum                                     output.o
chelp_isalpha                                     output.o
chelp_isdigit                                     output.o
chelp_islower                                     output.o
chelp_isspace                                     output.o
chelp_isupper                                     output.o
chelp_isxdigit                                    output.o
chelp_malloc                                      output.o
chelp_memchr                                      output.o
chelp_memcmp                                      output.o
chelp_memcpy                                      output.o
chelp_memmove                                     output.o
chelp_memset                                      output.o
chelp_mod_64_32_32                                output.o
chelp_mul_64_64_64                                output.o
chelp_print                                       output.o
chelp_printf                                      output.o
chelp_qsort                                       output.o
chelp_realloc                                     output.o
chelp_snprintf                                    output.o
chelp_sprintf                                     output.o
chelp_strcat                                      output.o
chelp_strchr                                      output.o
chelp_strcmp                                      output.o
chelp_strcpy                                      output.o
chelp_stricmp                                     output.o
chelp_strlen                                      output.o
chelp_strncasecmp                                 output.o
chelp_strncmp                                     output.o
chelp_strncpy                                     output.o
chelp_strrchr                                     output.o
chelp_strtol                                      output.o
chelp_strtoul                                     output.o
chelp_strtoul_ex                                  output.o
chelp_swap                                        output.o
chelp_tolower                                     output.o
chelp_toupper                                     output.o
cleanse_ctr                                       output.o
clear_guest_status                                output.o
clflush_size                                      output.o
closePage                                         output.o
closeSystemCallHandler                            output.o
cmpxchg_gphys_l                                   output.o
cmpxchg_gphys_q                                   output.o
cmpxchg_hphys_l                                   output.o
cmpxchg_hphys_q                                   output.o
cms_Data_create                                   output.o
cms_DigestAlgorithm_find_ctx                      output.o
cms_DigestAlgorithm_init_bio                      output.o
cms_DigestAlgorithm_set                           output.o
cms_DigestedData_create                           output.o
cms_DigestedData_do_final                         output.o
cms_DigestedData_init_bio                         output.o
cms_EncryptedContent_init                         output.o
cms_EncryptedContent_init_bio                     output.o
cms_EncryptedData_init_bio                        output.o
cms_EnvelopedData_init_bio                        output.o
cms_SignedData_final                              output.o
cms_SignedData_init_bio                           output.o
cms_SignerIdentifier_cert_cmp                     output.o
cms_SignerIdentifier_get0_signer_id               output.o
cms_content_bio                                   output.o
cms_set1_SignerIdentifier                         output.o
config                                            output.o
copy_bootsector                                   output.o
core_init                                         output.o
core_io_handle_default                            output.o
core_io_modify_handler                            output.o
core_io_register_handler                          output.o
core_io_unregister_handler                        output.o
core_mm_read_guest_phys                           output.o
core_mm_write_guest_phys                          output.o
cpu_emul_cli                                      output.o
cpu_emul_cpuid                                    output.o
cpu_emul_hlt                                      output.o
cpu_emul_rdmsr                                    output.o
cpu_emul_realmode_int                             output.o
cpu_emul_sti                                      output.o
cpu_emul_wrmsr                                    output.o
cpu_emul_xsetbv                                   output.o
cpu_interpreter                                   output.o
cpu_mmu_get_pte                                   output.o
cpu_mmu_spt_clear_all                             output.o
cpu_mmu_spt_extern_mapsearch                      output.o
cpu_mmu_spt_init                                  output.o
cpu_mmu_spt_invalidate                            output.o
cpu_mmu_spt_map_1mb                               output.o
cpu_mmu_spt_pagefault                             output.o
cpu_mmu_spt_tlbflush                              output.o
cpu_mmu_spt_updatecr3                             output.o
cpu_seg_read_b                                    output.o
cpu_seg_read_l                                    output.o
cpu_seg_read_q                                    output.o
cpu_seg_read_w                                    output.o
cpu_seg_write_b                                   output.o
cpu_seg_write_l                                   output.o
cpu_seg_write_q                                   output.o
cpu_seg_write_w                                   output.o
cpu_stack_get                                     output.o
cpu_stack_pop                                     output.o
cpu_stack_push                                    output.o
cpu_stack_set                                     output.o
cpuinit_end                                       output.o
cpuinit_start                                     output.o
create_dom                                        output.o
crypt_sys_rsa_sign                                output.o
crypto_find                                       output.o
crypto_init                                       output.o
crypto_none_init                                  output.o
crypto_register                                   output.o
currentProtectedApplication                       output.o
currentRunningApplication                         output.o
curthread                                         output.o
d2i_ACCESS_DESCRIPTION                            output.o
d2i_ASN1_BIT_STRING                               output.o
d2i_ASN1_BMPSTRING                                output.o
d2i_ASN1_BOOLEAN                                  output.o
d2i_ASN1_ENUMERATED                               output.o
d2i_ASN1_GENERALIZEDTIME                          output.o
d2i_ASN1_GENERALSTRING                            output.o
d2i_ASN1_IA5STRING                                output.o
d2i_ASN1_INTEGER                                  output.o
d2i_ASN1_NULL                                     output.o
d2i_ASN1_OBJECT                                   output.o
d2i_ASN1_OCTET_STRING                             output.o
d2i_ASN1_PRINTABLE                                output.o
d2i_ASN1_PRINTABLESTRING                          output.o
d2i_ASN1_SEQUENCE_ANY                             output.o
d2i_ASN1_SET                                      output.o
d2i_ASN1_SET_ANY                                  output.o
d2i_ASN1_T61STRING                                output.o
d2i_ASN1_TIME                                     output.o
d2i_ASN1_TYPE                                     output.o
d2i_ASN1_UINTEGER                                 output.o
d2i_ASN1_UNIVERSALSTRING                          output.o
d2i_ASN1_UTCTIME                                  output.o
d2i_ASN1_UTF8STRING                               output.o
d2i_ASN1_VISIBLESTRING                            output.o
d2i_ASN1_bytes                                    output.o
d2i_ASN1_type_bytes                               output.o
d2i_AUTHORITY_INFO_ACCESS                         output.o
d2i_AUTHORITY_KEYID                               output.o
d2i_AutoPrivateKey                                output.o
d2i_BASIC_CONSTRAINTS                             output.o
d2i_CERTIFICATEPOLICIES                           output.o
d2i_CMS_ContentInfo                               output.o
d2i_CMS_bio                                       output.o
d2i_CRL_DIST_POINTS                               output.o
d2i_DHparams                                      output.o
d2i_DIRECTORYSTRING                               output.o
d2i_DISPLAYTEXT                                   output.o
d2i_DIST_POINT                                    output.o
d2i_DIST_POINT_NAME                               output.o
d2i_DSAPrivateKey                                 output.o
d2i_DSAPrivateKey_bio                             output.o
d2i_DSAPublicKey                                  output.o
d2i_DSA_PUBKEY                                    output.o
d2i_DSA_PUBKEY_bio                                output.o
d2i_DSA_SIG                                       output.o
d2i_DSAparams                                     output.o
d2i_ECDSA_SIG                                     output.o
d2i_ECPKPARAMETERS                                output.o
d2i_ECPKParameters                                output.o
d2i_ECParameters                                  output.o
d2i_ECPrivateKey                                  output.o
d2i_ECPrivateKey_bio                              output.o
d2i_EC_PRIVATEKEY                                 output.o
d2i_EC_PUBKEY                                     output.o
d2i_EC_PUBKEY_bio                                 output.o
d2i_EDIPARTYNAME                                  output.o
d2i_EXTENDED_KEY_USAGE                            output.o
d2i_GENERAL_NAME                                  output.o
d2i_GENERAL_NAMES                                 output.o
d2i_ISSUING_DIST_POINT                            output.o
d2i_NETSCAPE_CERT_SEQUENCE                        output.o
d2i_NETSCAPE_SPKAC                                output.o
d2i_NETSCAPE_SPKI                                 output.o
d2i_NOTICEREF                                     output.o
d2i_OCSP_BASICRESP                                output.o
d2i_OCSP_CERTID                                   output.o
d2i_OCSP_CERTSTATUS                               output.o
d2i_OCSP_CRLID                                    output.o
d2i_OCSP_ONEREQ                                   output.o
d2i_OCSP_REQINFO                                  output.o
d2i_OCSP_REQUEST                                  output.o
d2i_OCSP_RESPBYTES                                output.o
d2i_OCSP_RESPDATA                                 output.o
d2i_OCSP_RESPID                                   output.o
d2i_OCSP_RESPONSE                                 output.o
d2i_OCSP_REVOKEDINFO                              output.o
d2i_OCSP_SERVICELOC                               output.o
d2i_OCSP_SIGNATURE                                output.o
d2i_OCSP_SINGLERESP                               output.o
d2i_OTHERNAME                                     output.o
d2i_PBE2PARAM                                     output.o
d2i_PBEPARAM                                      output.o
d2i_PBKDF2PARAM                                   output.o
d2i_PKCS12                                        output.o
d2i_PKCS12_BAGS                                   output.o
d2i_PKCS12_MAC_DATA                               output.o
d2i_PKCS12_SAFEBAG                                output.o
d2i_PKCS12_bio                                    output.o
d2i_PKCS7                                         output.o
d2i_PKCS7_DIGEST                                  output.o
d2i_PKCS7_ENCRYPT                                 output.o
d2i_PKCS7_ENC_CONTENT                             output.o
d2i_PKCS7_ENVELOPE                                output.o
d2i_PKCS7_ISSUER_AND_SERIAL                       output.o
d2i_PKCS7_RECIP_INFO                              output.o
d2i_PKCS7_SIGNED                                  output.o
d2i_PKCS7_SIGNER_INFO                             output.o
d2i_PKCS7_SIGN_ENVELOPE                           output.o
d2i_PKCS7_bio                                     output.o
d2i_PKCS8PrivateKey_bio                           output.o
d2i_PKCS8_PRIV_KEY_INFO                           output.o
d2i_PKCS8_PRIV_KEY_INFO_bio                       output.o
d2i_PKCS8_bio                                     output.o
d2i_PKEY_USAGE_PERIOD                             output.o
d2i_POLICYINFO                                    output.o
d2i_POLICYQUALINFO                                output.o
d2i_PROXY_CERT_INFO_EXTENSION                     output.o
d2i_PROXY_POLICY                                  output.o
d2i_PUBKEY                                        output.o
d2i_PUBKEY_bio                                    output.o
d2i_PrivateKey                                    output.o
d2i_PrivateKey_bio                                output.o
d2i_RSAPrivateKey                                 output.o
d2i_RSAPrivateKey_bio                             output.o
d2i_RSAPublicKey                                  output.o
d2i_RSAPublicKey_bio                              output.o
d2i_RSA_PUBKEY                                    output.o
d2i_RSA_PUBKEY_bio                                output.o
d2i_SXNET                                         output.o
d2i_SXNETID                                       output.o
d2i_USERNOTICE                                    output.o
d2i_X509                                          output.o
d2i_X509_ALGOR                                    output.o
d2i_X509_ALGORS                                   output.o
d2i_X509_ATTRIBUTE                                output.o
d2i_X509_AUX                                      output.o
d2i_X509_CERT_AUX                                 output.o
d2i_X509_CERT_PAIR                                output.o
d2i_X509_CINF                                     output.o
d2i_X509_CRL                                      output.o
d2i_X509_CRL_INFO                                 output.o
d2i_X509_CRL_bio                                  output.o
d2i_X509_EXTENSION                                output.o
d2i_X509_EXTENSIONS                               output.o
d2i_X509_NAME                                     output.o
d2i_X509_NAME_ENTRY                               output.o
d2i_X509_PUBKEY                                   output.o
d2i_X509_REQ                                      output.o
d2i_X509_REQ_INFO                                 output.o
d2i_X509_REQ_bio                                  output.o
d2i_X509_REVOKED                                  output.o
d2i_X509_SIG                                      output.o
d2i_X509_VAL                                      output.o
d2i_X509_bio                                      output.o
deactivate_and_delete_urb                         output.o
debug_addstr                                      output.o
debug_gdb                                         output.o
debug_iohook                                      output.o
debug_msgregister                                 output.o
debug_msgunregister                               output.o
decryptcfg                                        output.o
default_pctx                                      output.o
dh_asn1_meth                                      output.o
dh_pkey_meth                                      output.o
disable_apic                                      output.o
do_exint_pass                                     output.o
do_externalint_enable                             output.o
do_io_nothing                                     output.o
do_iopass_default                                 output.o
do_panic_reboot                                   output.o
dom_io                                            output.o
dprintf_port                                      output.o
drhd_list_head                                    output.o
dsa_asn1_meths                                    output.o
dsa_builtin_paramgen                              output.o
dsa_pkey_meth                                     output.o
dsa_pub_internal_it                               output.o
dump_frame                                        output.o
dump_qh                                           output.o
dump_td                                           output.o
dump_td_byvirt                                    output.o
dwReaders                                         output.o
e801_fake_ax                                      output.o
e801_fake_bx                                      output.o
ec_GF2m_have_precompute_mult                      output.o
ec_GF2m_precompute_mult                           output.o
ec_GF2m_simple_add                                output.o
ec_GF2m_simple_cmp                                output.o
ec_GF2m_simple_dbl                                output.o
ec_GF2m_simple_field_div                          output.o
ec_GF2m_simple_field_mul                          output.o
ec_GF2m_simple_field_sqr                          output.o
ec_GF2m_simple_group_check_discriminant           output.o
ec_GF2m_simple_group_clear_finish                 output.o
ec_GF2m_simple_group_copy                         output.o
ec_GF2m_simple_group_finish                       output.o
ec_GF2m_simple_group_get_curve                    output.o
ec_GF2m_simple_group_get_degree                   output.o
ec_GF2m_simple_group_init                         output.o
ec_GF2m_simple_group_set_curve                    output.o
ec_GF2m_simple_invert                             output.o
ec_GF2m_simple_is_at_infinity                     output.o
ec_GF2m_simple_is_on_curve                        output.o
ec_GF2m_simple_make_affine                        output.o
ec_GF2m_simple_mul                                output.o
ec_GF2m_simple_oct2point                          output.o
ec_GF2m_simple_point2oct                          output.o
ec_GF2m_simple_point_clear_finish                 output.o
ec_GF2m_simple_point_copy                         output.o
ec_GF2m_simple_point_finish                       output.o
ec_GF2m_simple_point_get_affine_coordinates       output.o
ec_GF2m_simple_point_init                         output.o
ec_GF2m_simple_point_set_affine_coordinates       output.o
ec_GF2m_simple_point_set_to_infinity              output.o
ec_GF2m_simple_points_make_affine                 output.o
ec_GF2m_simple_set_compressed_coordinates         output.o
ec_GFp_mont_field_decode                          output.o
ec_GFp_mont_field_encode                          output.o
ec_GFp_mont_field_mul                             output.o
ec_GFp_mont_field_set_to_one                      output.o
ec_GFp_mont_field_sqr                             output.o
ec_GFp_mont_group_clear_finish                    output.o
ec_GFp_mont_group_copy                            output.o
ec_GFp_mont_group_finish                          output.o
ec_GFp_mont_group_init                            output.o
ec_GFp_mont_group_set_curve                       output.o
ec_GFp_nist_field_mul                             output.o
ec_GFp_nist_field_sqr                             output.o
ec_GFp_nist_group_copy                            output.o
ec_GFp_nist_group_set_curve                       output.o
ec_GFp_simple_add                                 output.o
ec_GFp_simple_cmp                                 output.o
ec_GFp_simple_dbl                                 output.o
ec_GFp_simple_field_mul                           output.o
ec_GFp_simple_field_sqr                           output.o
ec_GFp_simple_get_Jprojective_coordinates_GFp     output.o
ec_GFp_simple_group_check_discriminant            output.o
ec_GFp_simple_group_clear_finish                  output.o
ec_GFp_simple_group_copy                          output.o
ec_GFp_simple_group_finish                        output.o
ec_GFp_simple_group_get_curve                     output.o
ec_GFp_simple_group_get_degree                    output.o
ec_GFp_simple_group_init                          output.o
ec_GFp_simple_group_set_curve                     output.o
ec_GFp_simple_invert                              output.o
ec_GFp_simple_is_at_infinity                      output.o
ec_GFp_simple_is_on_curve                         output.o
ec_GFp_simple_make_affine                         output.o
ec_GFp_simple_oct2point                           output.o
ec_GFp_simple_point2oct                           output.o
ec_GFp_simple_point_clear_finish                  output.o
ec_GFp_simple_point_copy                          output.o
ec_GFp_simple_point_finish                        output.o
ec_GFp_simple_point_get_affine_coordinates        output.o
ec_GFp_simple_point_init                          output.o
ec_GFp_simple_point_set_affine_coordinates        output.o
ec_GFp_simple_point_set_to_infinity               output.o
ec_GFp_simple_points_make_affine                  output.o
ec_GFp_simple_set_Jprojective_coordinates_GFp     output.o
ec_GFp_simple_set_compressed_coordinates          output.o
ec_pkey_meth                                      output.o
ec_wNAF_have_precompute_mult                      output.o
ec_wNAF_mul                                       output.o
ec_wNAF_precompute_mult                           output.o
ecdh_check                                        output.o
ecdsa_check                                       output.o
eckey_asn1_meth                                   output.o
ehci_check_advance                                output.o
ehci_check_urb_advance                            output.o
ehci_cleanup_urbs                                 output.o
ehci_conceal_portroute                            output.o
ehci_deactivate_urb                               output.o
ehci_dump_alist                                   output.o
ehci_dump_all                                     output.o
ehci_dump_async                                   output.o
ehci_dump_qtd                                     output.o
ehci_dump_qtdm                                    output.o
ehci_dump_urb                                     output.o
ehci_dump_urblist                                 output.o
ehci_end_monitor_async                            output.o
ehci_host                                         output.o
ehci_init                                         output.o
ehci_monitor_async_list                           output.o
ehci_shadow_async_list                            output.o
ehci_shadow_buffer                                output.o
ehci_submit_bulk                                  output.o
ehci_submit_control                               output.o
ehci_submit_interrupt                             output.o
end                                               output.o
entry                                             output.o
entry_pd                                          output.o
entry_pd0                                         output.o
entry_pdp                                         output.o
ept_spinlock                                      output.o
evp_pkey_set_cb_translate                         output.o
exitprocess                                       output.o
findProtectedApplicationFromRIP                   output.o
findUnmappedPage                                  output.o
free                                              output.o
free_config_descriptors                           output.o
free_device                                       output.o
free_page                                         output.o
free_page_phys                                    output.o
g_rgSCardT0Pci                                    output.o
g_rgSCardT1Pci                                    output.o
getCurrentProtectedApplication                    output.o
getGuestRSP                                       output.o
getMemoryOwnershipTableEntry                      output.o
getMemoryOwnershipTableIndex                      output.o
getSystemCallHandlerGPA                           output.o
getTSSGVA                                         output.o
get_acpi_time                                     output.o
get_acpi_time_raw                                 output.o
get_cpu_id                                        output.o
get_cpu_time                                      output.o
get_ept_base_HPA                                  output.o
get_guest_cr3_value                               output.o
get_guest_eptp_value                              output.o
get_gurb_by_address                               output.o
get_idman_session                                 output.o
get_page_table_base_GPA                           output.o
get_seg_access_rights                             output.o
get_seg_base                                      output.o
get_time                                          output.o
getfakesysmemmap                                  output.o
getsysmemmap                                      output.o
gmm_pass_gp2hp                                    output.o
gpaToHPA                                          output.o
gs_current                                        output.o
gs_currentcpu                                     output.o
gs_init_count                                     output.o
gs_inthandling                                    output.o
gs_nmi                                            output.o
gs_syscallstack                                   output.o
guest_int0x15_e801_fake_ax                        output.o
guest_int0x15_e801_fake_bx                        output.o
guest_int0x15_e820_data_minus0x18                 output.o
guest_int0x15_e820_end                            output.o
guest_int0x15_hook                                output.o
guest_int0x15_hook_end                            output.o
guest_int0x15_orig                                output.o
gvaToGPA                                          output.o
hContext                                          output.o
hObjectCnt                                        output.o
hSessionCnt                                       output.o
handleSystemCall                                  output.o
handle_connect_status                             output.o
handle_init_to_bsp                                output.o
handle_port_reset                                 output.o
handler_descriptor                                output.o
handler_descriptor_lock                           output.o
head                                              output.o
hex_to_string                                     output.o
hmac_asn1_meth                                    output.o
hmac_pkey_meth                                    output.o
hub_portdevice_register                           output.o
hypercall_handler                                 output.o
i2a_ACCESS_DESCRIPTION                            output.o
i2a_ASN1_INTEGER                                  output.o
i2a_ASN1_OBJECT                                   output.o
i2a_ASN1_STRING                                   output.o
i2c_ASN1_BIT_STRING                               output.o
i2c_ASN1_INTEGER                                  output.o
i2d_ACCESS_DESCRIPTION                            output.o
i2d_ASN1_BIT_STRING                               output.o
i2d_ASN1_BMPSTRING                                output.o
i2d_ASN1_BOOLEAN                                  output.o
i2d_ASN1_ENUMERATED                               output.o
i2d_ASN1_GENERALIZEDTIME                          output.o
i2d_ASN1_GENERALSTRING                            output.o
i2d_ASN1_IA5STRING                                output.o
i2d_ASN1_INTEGER                                  output.o
i2d_ASN1_NULL                                     output.o
i2d_ASN1_OBJECT                                   output.o
i2d_ASN1_OCTET_STRING                             output.o
i2d_ASN1_PRINTABLE                                output.o
i2d_ASN1_PRINTABLESTRING                          output.o
i2d_ASN1_SEQUENCE_ANY                             output.o
i2d_ASN1_SET                                      output.o
i2d_ASN1_SET_ANY                                  output.o
i2d_ASN1_T61STRING                                output.o
i2d_ASN1_TIME                                     output.o
i2d_ASN1_TYPE                                     output.o
i2d_ASN1_UNIVERSALSTRING                          output.o
i2d_ASN1_UTCTIME                                  output.o
i2d_ASN1_UTF8STRING                               output.o
i2d_ASN1_VISIBLESTRING                            output.o
i2d_ASN1_bio_stream                               output.o
i2d_ASN1_bytes                                    output.o
i2d_AUTHORITY_INFO_ACCESS                         output.o
i2d_AUTHORITY_KEYID                               output.o
i2d_BASIC_CONSTRAINTS                             output.o
i2d_CERTIFICATEPOLICIES                           output.o
i2d_CMS_ContentInfo                               output.o
i2d_CMS_bio                                       output.o
i2d_CMS_bio_stream                                output.o
i2d_CRL_DIST_POINTS                               output.o
i2d_DHparams                                      output.o
i2d_DIRECTORYSTRING                               output.o
i2d_DISPLAYTEXT                                   output.o
i2d_DIST_POINT                                    output.o
i2d_DIST_POINT_NAME                               output.o
i2d_DSAPrivateKey                                 output.o
i2d_DSAPrivateKey_bio                             output.o
i2d_DSAPublicKey                                  output.o
i2d_DSA_PUBKEY                                    output.o
i2d_DSA_PUBKEY_bio                                output.o
i2d_DSA_SIG                                       output.o
i2d_DSAparams                                     output.o
i2d_ECDSA_SIG                                     output.o
i2d_ECPKPARAMETERS                                output.o
i2d_ECPKParameters                                output.o
i2d_ECParameters                                  output.o
i2d_ECPrivateKey                                  output.o
i2d_ECPrivateKey_bio                              output.o
i2d_EC_PRIVATEKEY                                 output.o
i2d_EC_PUBKEY                                     output.o
i2d_EC_PUBKEY_bio                                 output.o
i2d_EDIPARTYNAME                                  output.o
i2d_EXTENDED_KEY_USAGE                            output.o
i2d_GENERAL_NAME                                  output.o
i2d_GENERAL_NAMES                                 output.o
i2d_ISSUING_DIST_POINT                            output.o
i2d_NETSCAPE_CERT_SEQUENCE                        output.o
i2d_NETSCAPE_SPKAC                                output.o
i2d_NETSCAPE_SPKI                                 output.o
i2d_NOTICEREF                                     output.o
i2d_OCSP_BASICRESP                                output.o
i2d_OCSP_CERTID                                   output.o
i2d_OCSP_CERTSTATUS                               output.o
i2d_OCSP_CRLID                                    output.o
i2d_OCSP_ONEREQ                                   output.o
i2d_OCSP_REQINFO                                  output.o
i2d_OCSP_REQUEST                                  output.o
i2d_OCSP_RESPBYTES                                output.o
i2d_OCSP_RESPDATA                                 output.o
i2d_OCSP_RESPID                                   output.o
i2d_OCSP_RESPONSE                                 output.o
i2d_OCSP_REVOKEDINFO                              output.o
i2d_OCSP_SERVICELOC                               output.o
i2d_OCSP_SIGNATURE                                output.o
i2d_OCSP_SINGLERESP                               output.o
i2d_OTHERNAME                                     output.o
i2d_PBE2PARAM                                     output.o
i2d_PBEPARAM                                      output.o
i2d_PBKDF2PARAM                                   output.o
i2d_PKCS12                                        output.o
i2d_PKCS12_BAGS                                   output.o
i2d_PKCS12_MAC_DATA                               output.o
i2d_PKCS12_SAFEBAG                                output.o
i2d_PKCS12_bio                                    output.o
i2d_PKCS7                                         output.o
i2d_PKCS7_DIGEST                                  output.o
i2d_PKCS7_ENCRYPT                                 output.o
i2d_PKCS7_ENC_CONTENT                             output.o
i2d_PKCS7_ENVELOPE                                output.o
i2d_PKCS7_ISSUER_AND_SERIAL                       output.o
i2d_PKCS7_NDEF                                    output.o
i2d_PKCS7_RECIP_INFO                              output.o
i2d_PKCS7_SIGNED                                  output.o
i2d_PKCS7_SIGNER_INFO                             output.o
i2d_PKCS7_SIGN_ENVELOPE                           output.o
i2d_PKCS7_bio                                     output.o
i2d_PKCS8PrivateKeyInfo_bio                       output.o
i2d_PKCS8PrivateKey_bio                           output.o
i2d_PKCS8PrivateKey_nid_bio                       output.o
i2d_PKCS8_PRIV_KEY_INFO                           output.o
i2d_PKCS8_PRIV_KEY_INFO_bio                       output.o
i2d_PKCS8_bio                                     output.o
i2d_PKEY_USAGE_PERIOD                             output.o
i2d_POLICYINFO                                    output.o
i2d_POLICYQUALINFO                                output.o
i2d_PROXY_CERT_INFO_EXTENSION                     output.o
i2d_PROXY_POLICY                                  output.o
i2d_PUBKEY                                        output.o
i2d_PUBKEY_bio                                    output.o
i2d_PrivateKey                                    output.o
i2d_PrivateKey_bio                                output.o
i2d_RSAPrivateKey                                 output.o
i2d_RSAPrivateKey_bio                             output.o
i2d_RSAPublicKey                                  output.o
i2d_RSAPublicKey_bio                              output.o
i2d_RSA_PUBKEY                                    output.o
i2d_RSA_PUBKEY_bio                                output.o
i2d_SXNET                                         output.o
i2d_SXNETID                                       output.o
i2d_USERNOTICE                                    output.o
i2d_X509                                          output.o
i2d_X509_ALGOR                                    output.o
i2d_X509_ALGORS                                   output.o
i2d_X509_ATTRIBUTE                                output.o
i2d_X509_AUX                                      output.o
i2d_X509_CERT_AUX                                 output.o
i2d_X509_CERT_PAIR                                output.o
i2d_X509_CINF                                     output.o
i2d_X509_CRL                                      output.o
i2d_X509_CRL_INFO                                 output.o
i2d_X509_CRL_bio                                  output.o
i2d_X509_EXTENSION                                output.o
i2d_X509_EXTENSIONS                               output.o
i2d_X509_NAME                                     output.o
i2d_X509_NAME_ENTRY                               output.o
i2d_X509_PUBKEY                                   output.o
i2d_X509_REQ                                      output.o
i2d_X509_REQ_INFO                                 output.o
i2d_X509_REQ_bio                                  output.o
i2d_X509_REVOKED                                  output.o
i2d_X509_SIG                                      output.o
i2d_X509_VAL                                      output.o
i2d_X509_bio                                      output.o
i2o_ECPublicKey                                   output.o
i2s_ASN1_ENUMERATED                               output.o
i2s_ASN1_ENUMERATED_TABLE                         output.o
i2s_ASN1_INTEGER                                  output.o
i2s_ASN1_OCTET_STRING                             output.o
i2t_ASN1_OBJECT                                   output.o
i2v_ASN1_BIT_STRING                               output.o
i2v_GENERAL_NAME                                  output.o
i2v_GENERAL_NAMES                                 output.o
idea_cbc_encrypt                                  output.o
idea_cfb64_encrypt                                output.o
idea_ecb_encrypt                                  output.o
idea_encrypt                                      output.o
idea_ofb64_encrypt                                output.o
idea_options                                      output.o
idea_set_decrypt_key                              output.o
idea_set_encrypt_key                              output.o
idman_reinit2                                     output.o
idman_reinit_session                              output.o
idman_user_init                                   output.o
ieee1394_init                                     output.o
initPagePool                                      output.o
init_hframelist                                   output.o
initfunc_init                                     output.o
initializeNewProtectedApplication                 output.o
int1a_TCG_CompactHashLogExtendEvent               output.o
int1a_TCG_HashAll                                 output.o
int1a_TCG_HashLogEvent                            output.o
int1a_TCG_HashLogExtendEvent                      output.o
int1a_TCG_PassThroughToTPM                        output.o
int1a_TCG_StatusCheck                             output.o
int1a_TCG_TSS                                     output.o
int_callfunc                                      output.o
int_exceptionHandler                              output.o
int_fatal                                         output.o
int_handler                                       output.o
int_init_ap                                       output.o
int_rsa_verify                                    output.o
iodom_init                                        output.o
iommu_detected                                    output.o
iommu_setup                                       output.o
ipchecksum                                        output.o
keyboard_flush                                    output.o
keyboard_reset                                    output.o
level_add_node                                    output.o
level_find_node                                   output.o
lh_delete                                         output.o
lh_doall                                          output.o
lh_doall_arg                                      output.o
lh_free                                           output.o
lh_insert                                         output.o
lh_new                                            output.o
lh_num_items                                      output.o
lh_retrieve                                       output.o
lh_strhash                                        output.o
lh_version                                        output.o
libInitFlag                                       output.o
load_bootsector                                   output.o
load_minios                                       output.o
load_new_vcpu                                     output.o
localapic_change_base_msr                         output.o
localapic_mmio_register                           output.o
localapic_wait_for_sipi                           output.o
mapHPAintoHVA                                     output.o
mapmem                                            output.o
mapmem_gphys                                      output.o
mapmem_hphys                                      output.o
matched_drhd_u                                    output.o
md4_block_data_order                              output.o
md5_block_data_order                              output.o
memcmp                                            output.o
memcpy                                            output.o
memorysize                                        output.o
mempool_allocmem                                  output.o
mempool_free                                      output.o
mempool_freemem                                   output.o
mempool_new                                       output.o
memset                                            output.o
message_exitcode                                  output.o
message_exitreason                                output.o
mm_flush_wb_cache                                 output.o
mm_force_unlock                                   output.o
mm_process_alloc                                  output.o
mm_process_free                                   output.o
mm_process_map_alloc                              output.o
mm_process_map_shared                             output.o
mm_process_map_shared_physpage                    output.o
mm_process_map_stack                              output.o
mm_process_switch                                 output.o
mm_process_unmap                                  output.o
mm_process_unmap_stack                            output.o
mm_process_unmapall                               output.o
mmio_access_memory                                output.o
mmio_access_page                                  output.o
mmio_lock                                         output.o
mmio_register                                     output.o
mmio_unlock                                       output.o
mmio_unregister                                   output.o
monitor_memset                                    output.o
monitor_vmcs_read                                 output.o
monitor_vmcs_write                                output.o
move_vmm_area32                                   output.o
move_vmm_area64                                   output.o
mpudiv_128_32                                     output.o
mpumul_64_64                                      output.o
msg_findname                                      output.o
msg_register                                      output.o
msg_unregister                                    output.o
msg_unregister2                                   output.o
msg_unregisterall                                 output.o
msg_usb_bulk_read                                 output.o
msg_usb_bulk_write                                output.o
msg_usb_claim_interface                           output.o
msg_usb_close                                     output.o
msg_usb_control_msg                               output.o
msg_usb_find_busses                               output.o
msg_usb_find_devices                              output.o
msg_usb_get_busses                                output.o
msg_usb_get_string_simple                         output.o
msg_usb_init                                      output.o
msg_usb_open                                      output.o
msg_usb_release_interface                         output.o
msg_usb_reset                                     output.o
msg_vpn_FreeTimer                                 output.o
msg_vpn_GetCurrentCpuId                           output.o
msg_vpn_GetPhysicalNicInfo                        output.o
msg_vpn_GetTickCount                              output.o
msg_vpn_GetVirtualNicInfo                         output.o
msg_vpn_NewTimer                                  output.o
msg_vpn_SendPhysicalNic                           output.o
msg_vpn_SendVirtualNic                            output.o
msg_vpn_SetPhysicalNicRecvCallback                output.o
msg_vpn_SetTimer                                  output.o
msg_vpn_SetVirtualNicRecvCallback                 output.o
msg_vpn_ic_rsa_sign                               output.o
msgclose                                          output.o
msgopen                                           output.o
msgpremapbuf                                      output.o
msgregister                                       output.o
msgsendbuf                                        output.o
msgsenddesc                                       output.o
msgsendint                                        output.o
msgsetfunc                                        output.o
msgunregister                                     output.o
mszReaders                                        output.o
name_cmp                                          output.o
newprocess                                        output.o
num_dom                                           output.o
num_of_available_pages                            output.o
num_of_processors                                 output.o
numberOfProtectedApplications                     output.o
numberOfVMs                                       output.o
o2i_ECPublicKey                                   output.o
obj_cleanup_defer                                 output.o
openPage                                          output.o
openSystemCallHandler                             output.o
packet_handle_command                             output.o
packet_handle_config                              output.o
packet_handle_invalid                             output.o
packet_handle_nondata                             output.o
packet_handle_rw                                  output.o
packet_handle_through                             output.o
panic                                             output.o
panic_oom                                         output.o
panic_test                                        output.o
panic_wakeup_all                                  output.o
parse_dmar_bios_report                            output.o
pci_append_device                                 output.o
pci_conceal_config_data_handler                   output.o
pci_conceal_new_device                            output.o
pci_config_addr_handler                           output.o
pci_config_data_handler                           output.o
pci_device_list_head                              output.o
pci_driver_list_head                              output.o
pci_handle_default_config_write                   output.o
pci_possible_new_device                           output.o
pci_print_device                                  output.o
pci_read_config_data16                            output.o
pci_read_config_data32                            output.o
pci_read_config_data8                             output.o
pci_read_config_data_port                         output.o
pci_register_driver                               output.o
pci_restore_config_addr                           output.o
pci_save_config_addr                              output.o
pci_write_config_data16                           output.o
pci_write_config_data32                           output.o
pci_write_config_data8                            output.o
pci_write_config_data_port                        output.o
pcpu_default                                      output.o
pcpu_init                                         output.o
pcpu_list_add                                     output.o
pcpu_list_foreach                                 output.o
pem_check_suffix                                  output.o
phys_in_vmm                                       output.o
phys_to_virt                                      output.o
pmap_autoalloc                                    output.o
pmap_clear                                        output.o
pmap_close                                        output.o
pmap_dump                                         output.o
pmap_getreadlevel                                 output.o
pmap_open_guest                                   output.o
pmap_open_vmm                                     output.o
pmap_pointer                                      output.o
pmap_read                                         output.o
pmap_seek                                         output.o
pmap_setlevel                                     output.o
pmap_write                                        output.o
policy_cache_find_data                            output.o
policy_cache_free                                 output.o
policy_cache_set                                  output.o
policy_cache_set_mapping                          output.o
policy_data_free                                  output.o
policy_data_new                                   output.o
policy_node_cmp_new                               output.o
policy_node_free                                  output.o
policy_node_match                                 output.o
prepare_for_sleep                                 output.o
printexitcode                                     output.o
printexitreason                                   output.o
printf                                            output.o
pro100_alloc_page                                 output.o
pro100_alloc_recv_buffer                          output.o
pro100_beep                                       output.o
pro100_config_read                                output.o
pro100_config_write                               output.o
pro100_exec_cu_op                                 output.o
pro100_flush                                      output.o
pro100_free_page                                  output.o
pro100_generate_int                               output.o
pro100_get_ctx                                    output.o
pro100_get_cu_command_string                      output.o
pro100_get_int_bit_string                         output.o
pro100_get_op_size                                output.o
pro100_get_ru_command_string                      output.o
pro100_get_stat_ack_string                        output.o
pro100_hook_read                                  output.o
pro100_hook_write                                 output.o
pro100_init                                       output.o
pro100_init_cu_base_addr                          output.o
pro100_init_recv_buffer                           output.o
pro100_init_ru_base_addr                          output.o
pro100_init_vpn_client                            output.o
pro100_io_handler                                 output.o
pro100_mem_read                                   output.o
pro100_mem_write                                  output.o
pro100_mm_handler                                 output.o
pro100_new                                        output.o
pro100_poll_ru                                    output.o
pro100_proc_guest_op                              output.o
pro100_read                                       output.o
pro100_read_send_packet                           output.o
pro100_send_packet_to_line                        output.o
pro100_sleep                                      output.o
pro100_wait_cu_ru_accepable                       output.o
pro100_write                                      output.o
pro100_write_recv_packet                          output.o
process_kill                                      output.o
process_syscall                                   output.o
processuser_no_sysenter                           output.o
processuser_syscall                               output.o
processuser_sysenter                              output.o
prohibit_iccard_init                              output.o
protectCurrentApplication                         output.o
protecting                                        output.o
ps2_locked                                        output.o
putchar                                           output.o
putchar_set_func                                  output.o
rand_ssleay_meth                                  output.o
read_gphys_b                                      output.o
read_gphys_l                                      output.o
read_gphys_q                                      output.o
read_gphys_w                                      output.o
read_hphys_b                                      output.o
read_hphys_l                                      output.o
read_hphys_q                                      output.o
read_hphys_w                                      output.o
read_linearaddr_b                                 output.o
read_linearaddr_l                                 output.o
read_linearaddr_q                                 output.o
read_linearaddr_tss                               output.o
read_linearaddr_w                                 output.o
readerState                                       output.o
readerTracker                                     output.o
realloc                                           output.o
reboot_test                                       output.o
register_status_callback                          output.o
remapPage                                         output.o
restore_guest_status                              output.o
restore_register                                  output.o
resume_vm                                         output.o
ret_to_user32                                     output.o
ret_to_user64                                     output.o
ripemd160_block_data_order                        output.o
rsa_asn1_meths                                    output.o
rsa_pkey_meth                                     output.o
rt                                                output.o
s2i_ASN1_INTEGER                                  output.o
s2i_ASN1_OCTET_STRING                             output.o
sReaderContext                                    output.o
saveSystemCallHandlerAddress                      output.o
save_guest_status                                 output.o
savemsr_index                                     output.o
savemsr_load                                      output.o
savemsr_save                                      output.o
scan_gframelist                                   output.o
schedule                                          output.o
security_storage_check_lba                        output.o
segment_init_ap                                   output.o
segment_wakeup                                    output.o
serial_getDebugChar                               output.o
serial_init_iohook                                output.o
serial_putDebugChar                               output.o
serial_putchar                                    output.o
sessionTable                                      output.o
setCurrentProtectedApplication                    output.o
set_int_handler                                   output.o
set_iofunc                                        output.o
setkbdled                                         output.o
shadow_and_activate_urb                           output.o
sig_app                                           output.o
sigx_app                                          output.o
sk_delete                                         output.o
sk_delete_ptr                                     output.o
sk_dup                                            output.o
sk_find                                           output.o
sk_find_ex                                        output.o
sk_free                                           output.o
sk_insert                                         output.o
sk_is_sorted                                      output.o
sk_new                                            output.o
sk_new_null                                       output.o
sk_num                                            output.o
sk_pop                                            output.o
sk_pop_free                                       output.o
sk_push                                           output.o
sk_set                                            output.o
sk_set_cmp_func                                   output.o
sk_shift                                          output.o
sk_sort                                           output.o
sk_unshift                                        output.o
sk_value                                          output.o
sk_zero                                           output.o
sleep_set_timer_counter                           output.o
slotFlag                                          output.o
slotTable                                         output.o
snprintf                                          output.o
start_all_processors                              output.o
storage_free                                      output.o
storage_get_num_hc                                output.o
storage_handle_sectors                            output.o
storage_hc_close                                  output.o
storage_hc_dev_atacommand                         output.o
storage_hc_dev_close                              output.o
storage_hc_dev_open                               output.o
storage_hc_hook_register                          output.o
storage_hc_hook_unregister                        output.o
storage_hc_open                                   output.o
storage_hc_register                               output.o
storage_hc_scandev                                output.o
storage_hc_unregister                             output.o
storage_init                                      output.o
storage_io_aget_size                              output.o
storage_io_aread                                  output.o
storage_io_awrite                                 output.o
storage_io_deinit                                 output.o
storage_io_get_num_devices                        output.o
storage_io_init                                   output.o
storage_new                                       output.o
storage_premap_buf                                output.o
storage_premap_handle_sectors                     output.o
strcmp                                            output.o
string_to_hex                                     output.o
strlen                                            output.o
svm_available                                     output.o
svm_enable_resume                                 output.o
svm_extern_iopass                                 output.o
svm_init                                          output.o
svm_init_signal                                   output.o
svm_ioio                                          output.o
svm_msr_update_lma                                output.o
svm_np_clear_all                                  output.o
svm_np_extern_mapsearch                           output.o
svm_np_init                                       output.o
svm_np_map_1mb                                    output.o
svm_np_pagefault                                  output.o
svm_np_tlbflush                                   output.o
svm_np_updatecr3                                  output.o
svm_paging_apply_fixed_cr0                        output.o
svm_paging_apply_fixed_cr4                        output.o
svm_paging_clear_all                              output.o
svm_paging_extern_flush_tlb_entry                 output.o
svm_paging_flush_guest_tlb                        output.o
svm_paging_get_gpat                               output.o
svm_paging_init                                   output.o
svm_paging_invalidate                             output.o
svm_paging_map_1mb                                output.o
svm_paging_npf                                    output.o
svm_paging_pagefault                              output.o
svm_paging_pg_change                              output.o
svm_paging_set_gpat                               output.o
svm_paging_spt_setcr3                             output.o
svm_paging_start                                  output.o
svm_paging_tlbflush                               output.o
svm_paging_updatecr3                              output.o
svm_panic_dump                                    output.o
svm_read_control_reg                              output.o
svm_read_flags                                    output.o
svm_read_gdtr                                     output.o
svm_read_general_reg                              output.o
svm_read_idtr                                     output.o
svm_read_ip                                       output.o
svm_read_msr                                      output.o
svm_read_sreg_acr                                 output.o
svm_read_sreg_base                                output.o
svm_read_sreg_limit                               output.o
svm_read_sreg_sel                                 output.o
svm_reset                                         output.o
svm_resume                                        output.o
svm_start_vm                                      output.o
svm_vmexit                                        output.o
svm_vminit                                        output.o
svm_write_control_reg                             output.o
svm_write_flags                                   output.o
svm_write_gdtr                                    output.o
svm_write_general_reg                             output.o
svm_write_idtr                                    output.o
svm_write_ip                                      output.o
svm_write_msr                                     output.o
svm_write_realmode_seg                            output.o
svm_writing_sreg                                  output.o
sx_handler                                        output.o
sym_to_phys                                       output.o
sync_all_processors                               output.o
sys_exitprocess                                   output.o
sys_msgclose                                      output.o
sys_msgopen                                       output.o
sys_msgregister                                   output.o
sys_msgret                                        output.o
sys_msgsendbuf                                    output.o
sys_msgsenddesc                                   output.o
sys_msgsendint                                    output.o
sys_msgsetfunc                                    output.o
sys_msgunregister                                 output.o
sys_newprocess                                    output.o
syscallHandlerAddress                             output.o
syscall_entry_lret                                output.o
syscall_entry_sysexit                             output.o
syscall_entry_sysret64                            output.o
syscall_metatata_table                            output.o
tcg_measure                                       output.o
test_gpaToHPA                                     output.o
test_logicalCPUStatus                             output.o
test_start                                        output.o
test_traverseGuestPages                           output.o
thread_exit                                       output.o
thread_gettid                                     output.o
thread_new                                        output.o
thread_set_process_switch                         output.o
thread_start0                                     output.o
thread_start1                                     output.o
thread_switch                                     output.o
thread_wakeup                                     output.o
thread_will_stop                                  output.o
timer_free                                        output.o
timer_new                                         output.o
timer_set                                         output.o
traverseGuestPages                                output.o
traverseIA32ePDPT                                 output.o
traverseIA32ePDT                                  output.o
traverseIA32ePT                                   output.o
traverseIA32ePages                                output.o
tree_find_sk                                      output.o
tty_init_iohook                                   output.o
tty_putchar                                       output.o
tty_udp_register                                  output.o
ttylog_stop                                       output.o
uhci_activate_urb                                 output.o
uhci_check_advance                                output.o
uhci_check_urb_advance                            output.o
uhci_create_urb                                   output.o
uhci_current_frame_number                         output.o
uhci_deactivate_urb                               output.o
uhci_destroy_unlinked_urbs                        output.o
uhci_destroy_urb                                  output.o
uhci_dump_all                                     output.o
uhci_error_status_string                          output.o
uhci_framelist_monitor                            output.o
uhci_init                                         output.o
uhci_monitor_boost_hc                             output.o
uhci_reactivate_urb                               output.o
uhci_shadow_buffer                                output.o
uhci_submit_bulk                                  output.o
uhci_submit_control                               output.o
uhci_submit_interrupt                             output.o
unmapHPAintoHVA                                   output.o
unmapmem                                          output.o
update_mtrr_and_pat                               output.o
usb_bulk_read                                     output.o
usb_bulk_write                                    output.o
usb_busses_head                                   output.o
usb_claim_interface                               output.o
usb_clear_halt                                    output.o
usb_close                                         output.o
usb_control_msg                                   output.o
usb_find_busses                                   output.o
usb_find_devices                                  output.o
usb_get_bus                                       output.o
usb_get_busses                                    output.o
usb_get_descriptor                                output.o
usb_get_descriptor_by_endpoint                    output.o
usb_get_descriptor_early                          output.o
usb_get_string                                    output.o
usb_get_string_simple                             output.o
usb_hc_list_head                                  output.o
usb_hook_process                                  output.o
usb_hook_register                                 output.o
usb_hook_unregister                               output.o
usb_init                                          output.o
usb_init_device_monitor                           output.o
usb_interrupt_read                                output.o
usb_interrupt_write                               output.o
usb_log_level                                     output.o
usb_new_dev_handle                                output.o
usb_open                                          output.o
usb_register_host                                 output.o
usb_release_interface                             output.o
usb_reset                                         output.o
usb_resetep                                       output.o
usb_sc_lock                                       output.o
usb_sc_unlock                                     output.o
usb_set_altinterface                              output.o
usb_set_configuration                             output.o
usb_set_debug                                     output.o
usb_unregister_devices                            output.o
usbccid_init_handle                               output.o
usbhid_init_handle                                output.o
usbhub_init_handle                                output.o
usbmsc_init_handle                                output.o
use_pae                                           output.o
usleep                                            output.o
v2i_ASN1_BIT_STRING                               output.o
v2i_GENERAL_NAME                                  output.o
v2i_GENERAL_NAMES                                 output.o
v2i_GENERAL_NAME_ex                               output.o
v3_akey_id                                        output.o
v3_alt                                            output.o
v3_bcons                                          output.o
v3_cpols                                          output.o
v3_crl_hold                                       output.o
v3_crl_invdate                                    output.o
v3_crl_num                                        output.o
v3_crl_reason                                     output.o
v3_crld                                           output.o
v3_delta_crl                                      output.o
v3_ext_ku                                         output.o
v3_freshest_crl                                   output.o
v3_idp                                            output.o
v3_info                                           output.o
v3_inhibit_anyp                                   output.o
v3_key_usage                                      output.o
v3_name_constraints                               output.o
v3_ns_ia5_list                                    output.o
v3_nscert                                         output.o
v3_ocsp_accresp                                   output.o
v3_ocsp_acutoff                                   output.o
v3_ocsp_crlid                                     output.o
v3_ocsp_nocheck                                   output.o
v3_ocsp_nonce                                     output.o
v3_ocsp_serviceloc                                output.o
v3_pci                                            output.o
v3_pkey_usage_period                              output.o
v3_policy_constraints                             output.o
v3_policy_mappings                                output.o
v3_sinfo                                          output.o
v3_skey_id                                        output.o
v3_sxnet                                          output.o
vcpu_list_foreach                                 output.o
vga_fill_rect                                     output.o
vga_get_screen_size                               output.o
vga_is_ready                                      output.o
vga_register                                      output.o
vga_transfer_image                                output.o
virt_to_phys                                      output.o
vmctl_svm_init                                    output.o
vmctl_vt_init                                     output.o
vmm_base_cr3                                      output.o
vmm_main                                          output.o
vmm_pd                                            output.o
vmm_pd1                                           output.o
vmm_pd2                                           output.o
vmm_pdp                                           output.o
vmm_pml4                                          output.o
vmm_start_inf                                     output.o
vmm_term_inf                                      output.o
vmmcall                                           output.o
vmmcall_boot_continue                             output.o
vmmcall_boot_enable                               output.o
vmmcall_init                                      output.o
vmmcall_register                                  output.o
vmmsize                                           output.o
vpn_FreeTimer                                     output.o
vpn_GetCurrentCpuId                               output.o
vpn_GetPhysicalNicInfo                            output.o
vpn_GetTickCount                                  output.o
vpn_GetVirtualNicInfo                             output.o
vpn_NewTimer                                      output.o
vpn_SendPhysicalNic                               output.o
vpn_SendVirtualNic                                output.o
vpn_SetPhysicalNicRecvCallback                    output.o
vpn_SetTimer                                      output.o
vpn_SetVirtualNicRecvCallback                     output.o
vpn_ic_rsa_sign                                   output.o
vpn_new_nic                                       output.o
vpn_premap_PhysicalNicRecv                        output.o
vpn_premap_VirtualNicRecv                         output.o
vpn_premap_recvbuf                                output.o
vpn_start                                         output.o
vpn_user_init                                     output.o
vprintf                                           output.o
vramwrite_clearscreen                             output.o
vramwrite_exit_global                             output.o
vramwrite_get_cursor_pos                          output.o
vramwrite_init_global                             output.o
vramwrite_mark1                                   output.o
vramwrite_mark2                                   output.o
vramwrite_mark3                                   output.o
vramwrite_putchar                                 output.o
vramwrite_restore_cursor                          output.o
vramwrite_save_and_move_cursor                    output.o
vsnprintf                                         output.o
vt__vmx_init                                      output.o
vt__vmxon                                         output.o
vt_add_guest_msr                                  output.o
vt_available                                      output.o
vt_enable_resume                                  output.o
vt_ept_clear_all                                  output.o
vt_ept_extern_mapsearch                           output.o
vt_ept_init                                       output.o
vt_ept_map_1mb                                    output.o
vt_ept_tlbflush                                   output.o
vt_ept_updatecr3                                  output.o
vt_ept_violation                                  output.o
vt_extern_iopass                                  output.o
vt_generate_external_int                          output.o
vt_generate_pagefault                             output.o
vt_get_current_regs_in_vmcs                       output.o
vt_get_vmcs_regs_in_vmcs                          output.o
vt_init                                           output.o
vt_init_signal                                    output.o
vt_io                                             output.o
vt_iopass                                         output.o
vt_iopass_init                                    output.o
vt_msr_init                                       output.o
vt_msr_update_lma                                 output.o
vt_paging_apply_fixed_cr0                         output.o
vt_paging_apply_fixed_cr4                         output.o
vt_paging_clear_all                               output.o
vt_paging_extern_flush_tlb_entry                  output.o
vt_paging_flush_guest_tlb                         output.o
vt_paging_get_gpat                                output.o
vt_paging_init                                    output.o
vt_paging_invalidate                              output.o
vt_paging_map_1mb                                 output.o
vt_paging_npf                                     output.o
vt_paging_pagefault                               output.o
vt_paging_pg_change                               output.o
vt_paging_set_gpat                                output.o
vt_paging_spt_setcr3                              output.o
vt_paging_start                                   output.o
vt_paging_tlbflush                                output.o
vt_paging_updatecr3                               output.o
vt_panic_dump                                     output.o
vt_read_control_reg                               output.o
vt_read_flags                                     output.o
vt_read_gdtr                                      output.o
vt_read_general_reg                               output.o
vt_read_guest_msr                                 output.o
vt_read_idtr                                      output.o
vt_read_ip                                        output.o
vt_read_msr                                       output.o
vt_read_sreg_acr                                  output.o
vt_read_sreg_base                                 output.o
vt_read_sreg_limit                                output.o
vt_read_sreg_sel                                  output.o
vt_reset                                          output.o
vt_resume                                         output.o
vt_start_vm                                       output.o
vt_update_exception_bmp                           output.o
vt_vmexit                                         output.o
vt_vminit                                         output.o
vt_vmptrld                                        output.o
vt_write_control_reg                              output.o
vt_write_flags                                    output.o
vt_write_gdtr                                     output.o
vt_write_general_reg                              output.o
vt_write_guest_msr                                output.o
vt_write_idtr                                     output.o
vt_write_ip                                       output.o
vt_write_msr                                      output.o
vt_write_realmode_seg                             output.o
vt_writing_sreg                                   output.o
waitcycles                                        output.o
wakeup_cont                                       output.o
wakeup_entry_addr                                 output.o
wakeup_entry_cr0                                  output.o
wakeup_entry_cr3                                  output.o
wakeup_entry_cr4                                  output.o
wakeup_entry_end                                  output.o
wakeup_entry_gdtr                                 output.o
wakeup_entry_start                                output.o
wakeup_init                                       output.o
wakeup_main                                       output.o
whirlpool_block                                   output.o
write_gphys_b                                     output.o
write_gphys_l                                     output.o
write_gphys_q                                     output.o
write_gphys_w                                     output.o
write_hphys_b                                     output.o
write_hphys_l                                     output.o
write_hphys_q                                     output.o
write_hphys_w                                     output.o
write_linearaddr_b                                output.o
write_linearaddr_l                                output.o
write_linearaddr_ok_b                             output.o
write_linearaddr_ok_l                             output.o
write_linearaddr_ok_w                             output.o
write_linearaddr_q                                output.o
write_linearaddr_tss                              output.o
write_linearaddr_w                                output.o
x509_name_ff                                      output.o
zero_page_pool                                    output.o
