
Allocating common symbols
Common symbol       size              file

clflush_size        0x4               output.o
sReaderContext      0x60              output.o
sigx_app            0x8               output.o
num_dom             0x4               output.o
mszReaders          0x400             output.o
zero_page_pool      0x400             output.o
prohibit_iccard_init
                    0x4               output.o
curthread           0x8               output.o
sig_app             0x8               output.o
readerState         0x64              output.o
dom_io              0x800             output.o
acpi_dsdt_system_state
                    0x1e              output.o
ehci_host           0x8               output.o
num_of_processors   0x4               output.o
e801_fake_bx        0x2               output.o
iommu_detected      0x1               output.o
dwReaders           0x8               output.o
readerTracker       0x140             output.o
handler_descriptor_lock
                    0x1               output.o
e801_fake_ax        0x2               output.o

Discarded input sections

 .gomi          0x0000000000000000        0xe output.o

Memory Configuration

Name             Origin             Length             Attributes
*default*        0x0000000000000000 0xffffffffffffffff

Linker script and memory map

                0x0000000040100000                virt = 0x40100000
                0x0000000000100000                phys = 0x100000
                0x0000000040100000                . = virt
                0x0000000040100000                head = .
                0x00000000401000b0                . = (virt + SIZEOF_HEADERS)

.text           0x0000000040101000   0x1153e7 load address 0x0000000000101000
                0x0000000040101000                code = .
 *(.entry)
 .entry         0x0000000040101000     0x6000 output.o
                0x000000004010100c                entry
                0x000000004010109a                cpuinit_start
                0x00000000401012c8                vmm_base_cr3
                0x00000000401012e0                apinit_procs
                0x00000000401012e8                apinit_lock
                0x00000000401012f0                cpuinit_end
                0x0000000040103000                entry_pdp
                0x0000000040104000                entry_pd0
                0x0000000040105000                entry_pd
 *(.text)
 .text          0x0000000040107000   0x10f3e7 output.o
                0x000000004010766c                acpi_smi_hook
                0x00000000401076ba                acpi_iohook
                0x000000004010770c                acpi_reset
                0x0000000040107808                acpi_poweroff
                0x0000000040107841                get_acpi_time_raw
                0x000000004010c811                acpi_dsdt_parse
                0x000000004010ccea                apinitproc0
                0x000000004010cd13                apic_available
                0x000000004010cd3f                ap_start_addr
                0x000000004010cf82                panic_wakeup_all
                0x000000004010d006                disable_apic
                0x000000004010d07d                sync_all_processors
                0x000000004010d10d                start_all_processors
                0x000000004010d14c                assertion_failed
                0x000000004010d185                beep_set_freq
                0x000000004010d1b6                beep_on
                0x000000004010d1c6                beep_off
                0x000000004010d80d                update_mtrr_and_pat
                0x000000004010da52                cache_get_gpat
                0x000000004010daa8                cache_set_gpat
                0x000000004010daf2                cache_get_attr
                0x000000004010db98                cache_get_gmtrr_type
                0x000000004010dba3                cache_get_gmtrr_attr
                0x000000004010dbb6                cache_get_gmtrrcap
                0x000000004010dbe4                cache_get_gmtrr
                0x000000004010dd3d                cache_set_gmtrr
                0x000000004010dd97                cache_get_gmsr_amd
                0x000000004010dde7                cache_set_gmsr_amd
                0x000000004010e22b                callrealmode_endofcodeaddr
                0x000000004010e23c                callrealmode_usevcpu
                0x000000004010e249                callrealmode_printmsg
                0x000000004010e266                callrealmode_getsysmemmap
                0x000000004010e2bd                callrealmode_getshiftflags
                0x000000004010e2db                callrealmode_setvideomode
                0x000000004010e2f9                callrealmode_reboot
                0x000000004010e313                callrealmode_tcgbios
                0x000000004010e3a7                callrealmode_disk_readmbr
                0x000000004010e3e7                callrealmode_disk_readlba
                0x000000004010e42f                callrealmode_bootcd_getstatus
                0x000000004010e484                callrealmode_setcursorpos
                0x000000004010e4a9                callrealmode_startkernel32
                0x000000004010e4c9                callrealmode_getfontinfo
                0x000000004010e539                get_cpu_id
                0x000000004010e54d                cpu_emul_cpuid
                0x000000004010e601                cpu_emul_rdmsr
                0x000000004010e67a                cpu_emul_wrmsr
                0x000000004010e702                cpu_emul_hlt
                0x000000004010e71a                cpu_emul_cli
                0x000000004010e753                cpu_emul_sti
                0x000000004010e79a                cpu_emul_realmode_int
                0x000000004010e8fc                cpu_emul_xsetbv
                0x0000000040111118                cpu_interpreter
                0x0000000040113440                cpu_mmu_get_pte
                0x0000000040113bd5                write_linearaddr_ok_b
                0x0000000040113bf7                write_linearaddr_ok_w
                0x0000000040113c02                write_linearaddr_ok_l
                0x0000000040113c0d                write_linearaddr_b
                0x0000000040113c7b                write_linearaddr_w
                0x0000000040113d13                write_linearaddr_l
                0x0000000040113da9                write_linearaddr_q
                0x0000000040113e3d                read_linearaddr_b
                0x0000000040113eaa                read_linearaddr_w
                0x0000000040113f3b                read_linearaddr_l
                0x0000000040113fcc                read_linearaddr_q
                0x000000004011405d                read_linearaddr_tss
                0x00000000401140f0                write_linearaddr_tss
                0x000000004011804f                cpu_mmu_spt_tlbflush
                0x000000004011808a                cpu_mmu_spt_updatecr3
                0x000000004011832a                cpu_mmu_spt_invalidate
                0x00000000401183b2                cpu_mmu_spt_pagefault
                0x00000000401185a9                cpu_mmu_spt_extern_mapsearch
                0x00000000401186e8                cpu_mmu_spt_map_1mb
                0x000000004011889c                cpu_mmu_spt_clear_all
                0x00000000401189fd                cpu_mmu_spt_init
                0x0000000040119011                cpu_seg_read_b
                0x000000004011907e                cpu_seg_read_w
                0x00000000401190eb                cpu_seg_read_l
                0x0000000040119158                cpu_seg_read_q
                0x00000000401191c5                cpu_seg_write_b
                0x0000000040119233                cpu_seg_write_w
                0x00000000401192a1                cpu_seg_write_l
                0x000000004011930e                cpu_seg_write_q
                0x000000004011937b                cpu_stack_get
                0x00000000401193e5                cpu_stack_set
                0x000000004011947a                cpu_stack_push
                0x0000000040119526                cpu_stack_pop
                0x0000000040119611                call_cpuid
                0x00000000401199ca                debug_addstr
                0x00000000401199d0                debug_gdb
                0x00000000401199d6                debug_iohook
                0x00000000401199dc                debug_msgregister
                0x0000000040119a0c                debug_msgunregister
                0x0000000040119aa9                do_exint_pass
                0x0000000040119bfd                read_gphys_b
                0x0000000040119c6f                write_gphys_b
                0x0000000040119cf2                read_gphys_w
                0x0000000040119d8f                write_gphys_w
                0x0000000040119e40                read_gphys_l
                0x0000000040119edd                write_gphys_l
                0x0000000040119f91                read_gphys_q
                0x000000004011a02e                write_gphys_q
                0x000000004011a0df                cmpxchg_gphys_l
                0x000000004011a19d                cmpxchg_gphys_q
                0x000000004011a25b                gmm_pass_gp2hp
                0x000000004011a725                idman_reinit_session
                0x000000004011a7a0                idman_reinit2
                0x000000004011a7c1                get_idman_session
                0x000000004011a801                call_initfunc
                0x000000004011a866                initfunc_init
                0x000000004011c3e5                int_fatal
                0x000000004011c744                callfunc_and_getint
                0x000000004011c758                do_externalint_enable
                0x000000004011c76d                set_int_handler
                0x000000004011c78c                int_exceptionHandler
                0x000000004011c797                int_init_ap
                0x000000004011c7ed                do_io_nothing
                0x000000004011c828                set_iofunc
                0x000000004011c8ca                call_io
                0x000000004011c9b0                do_iopass_default
                0x000000004011cb96                keyboard_reset
                0x000000004011cbdb                setkbdled
                0x000000004011cc2c                keyboard_flush
                0x000000004011cc46                load_bootsector
                0x000000004011d001                copy_bootsector
                0x000000004011d2b0                localapic_wait_for_sipi
                0x000000004011d33d                localapic_change_base_msr
                0x000000004011d389                localapic_mmio_register
                0x000000004011dd54                resume_vm
                0x000000004011de0e                vmm_main
                0x000000004011e194                getsysmemmap
                0x000000004011e21b                getfakesysmemmap
                0x000000004011e28d                phys_to_virt
                0x000000004011e2a3                vmm_start_inf
                0x000000004011e2af                vmm_term_inf
                0x000000004011e2c0                num_of_available_pages
                0x000000004011e333                alloc_pages
                0x000000004011e3a9                alloc_page
                0x000000004011e3b9                alloc
                0x000000004011e651                alloc2
                0x000000004011e689                free
                0x000000004011e79c                realloc
                0x000000004011e8e8                free_page
                0x000000004011e8fb                free_page_phys
                0x000000004011e91e                mempool_new
                0x000000004011e98c                mempool_free
                0x000000004011ea3d                mempool_allocmem
                0x000000004011ec22                mempool_freemem
                0x000000004011eede                sym_to_phys
                0x000000004011eef2                phys_in_vmm
                0x000000004011ef0e                mm_force_unlock
                0x000000004011ef40                mm_process_alloc
                0x000000004011f110                mm_process_free
                0x000000004011f16d                mm_process_switch
                0x000000004011f18b                pmap_open_vmm
                0x000000004011f1b6                pmap_open_guest
                0x000000004011f1f8                pmap_close
                0x000000004011f1fe                pmap_getreadlevel
                0x000000004011f20a                pmap_setlevel
                0x000000004011f216                pmap_seek
                0x000000004011f286                pmap_read
                0x000000004011f514                pmap_write
                0x000000004011f6ac                mm_process_unmap
                0x000000004011f799                mm_process_unmap_stack
                0x000000004011f974                mm_process_unmapall
                0x000000004011fa1b                pmap_pointer
                0x000000004011fa86                pmap_clear
                0x000000004011fb7c                pmap_autoalloc
                0x000000004011fd29                mm_process_map_alloc
                0x000000004011fe6c                mm_process_map_shared_physpage
                0x000000004011fed6                mm_process_map_shared
                0x0000000040120134                mm_process_map_stack
                0x00000000401209de                pmap_dump
                0x0000000040120af6                unmapmem
                0x0000000040120bd7                mapmem
                0x000000004012111e                read_hphys_b
                0x0000000040121173                write_hphys_b
                0x00000000401211a5                read_hphys_w
                0x00000000401211dc                write_hphys_w
                0x000000004012120f                read_hphys_l
                0x0000000040121244                write_hphys_l
                0x0000000040121276                read_hphys_q
                0x00000000401212ad                write_hphys_q
                0x00000000401212e1                cmpxchg_hphys_l
                0x0000000040121335                cmpxchg_hphys_q
                0x0000000040121389                alloc_realmodemem
                0x000000004012142a                mapmem_hphys
                0x0000000040121442                mapmem_gphys
                0x000000004012145a                mm_flush_wb_cache
                0x0000000040121804                mmio_access_memory
                0x0000000040121962                mmio_access_page
                0x0000000040121a1e                mmio_register
                0x0000000040121c6d                mmio_unregister
                0x0000000040121cf4                mmio_lock
                0x0000000040121d0f                mmio_unlock
                0x0000000040121daf                msg_findname
                0x0000000040121e1f                msg_register
                0x0000000040121eee                msg_unregister
                0x0000000040121f69                msg_unregisterall
                0x0000000040121ff4                msg_unregister2
                0x00000000401220c1                call_read_msr
                0x00000000401220d5                call_write_msr
                0x0000000040122371                load_minios
                0x00000000401226a2                backtrace
                0x0000000040122ff8                panic
                0x00000000401234fd                auto_reboot
                0x000000004012351a                panic_test
                0x000000004012353d                pcpu_list_foreach
                0x000000004012357c                pcpu_list_add
                0x00000000401235d0                pcpu_init
                0x000000004012415a                vprintf
                0x0000000040124195                printf
                0x00000000401241d3                vsnprintf
                0x0000000040124217                snprintf
                0x0000000040124453                sys_msgsetfunc
                0x0000000040124500                sys_msgclose
                0x000000004012451d                sys_msgret
                0x0000000040124609                sys_msgregister
                0x000000004012483a                sys_msgsenddesc
                0x000000004012504c                sys_msgsendint
                0x000000004012537c                sys_newprocess
                0x00000000401253dd                sys_msgunregister
                0x0000000040125469                sys_exitprocess
                0x00000000401254be                sys_msgsendbuf
                0x0000000040125619                sys_msgopen
                0x000000004012567a                process_kill
                0x00000000401256db                msgsetfunc
                0x00000000401256f0                msgregister
                0x0000000040125706                msgopen
                0x0000000040125719                msgclose
                0x000000004012572b                msgsendint
                0x000000004012573f                msgsenddesc
                0x0000000040125753                newprocess
                0x0000000040125766                msgsendbuf
                0x0000000040125780                msgunregister
                0x00000000401257b0                exitprocess
                0x00000000401257c3                msgpremapbuf
                0x00000000401258df                process_syscall
                0x000000004012598a                putchar
                0x00000000401259c8                putchar_set_func
                0x0000000040125c9a                do_panic_reboot
                0x0000000040125d24                handle_init_to_bsp
                0x0000000040125d45                reboot_test
                0x0000000040125d74                savemsr_save
                0x0000000040125de1                savemsr_load
                0x0000000040126149                get_seg_base
                0x0000000040126205                get_seg_access_rights
                0x0000000040126225                segment_wakeup
                0x0000000040126267                segment_init_ap
                0x0000000040126506                serial_putDebugChar
                0x0000000040126518                serial_getDebugChar
                0x000000004012652d                serial_putchar
                0x000000004012658f                serial_init_iohook
                0x00000000401265d5                waitcycles
                0x00000000401265f8                usleep
                0x0000000040126717                sleep_set_timer_counter
                0x000000004012687e                vmctl_svm_init
                0x0000000040126926                message_exitcode
                0x0000000040126ea9                printexitcode
                0x0000000040126ed6                svm_available
                0x0000000040126f87                svm_reset
                0x0000000040127204                svm_vminit
                0x00000000401275ae                svm_vmexit
                0x00000000401275b4                svm_init
                0x00000000401276fb                svm_enable_resume
                0x0000000040127800                svm_resume
                0x0000000040127952                svm_ioio
                0x0000000040127a5c                svm_extern_iopass
                0x0000000040127bc4                svm_init_signal
                0x0000000040127be7                svm_start_vm
                0x0000000040128700                svm_msr_update_lma
                0x0000000040128775                svm_read_msr
                0x0000000040128a1a                svm_write_msr
                0x0000000040128f8d                svm_np_init
                0x0000000040129081                svm_np_pagefault
                0x00000000401290b9                svm_np_tlbflush
                0x00000000401290bf                svm_np_updatecr3
                0x00000000401290ca                svm_np_clear_all
                0x000000004012915d                svm_np_extern_mapsearch
                0x00000000401291e6                svm_np_map_1mb
                0x0000000040129240                svm_paging_extern_flush_tlb_entry
                0x0000000040129267                svm_paging_map_1mb
                0x0000000040129291                svm_paging_flush_guest_tlb
                0x00000000401292d0                svm_paging_init
                0x00000000401293ee                svm_paging_pagefault
                0x000000004012941a                svm_paging_tlbflush
                0x0000000040129441                svm_paging_invalidate
                0x000000004012946f                svm_paging_npf
                0x000000004012949b                svm_paging_updatecr3
                0x00000000401294c7                svm_paging_spt_setcr3
                0x00000000401294fb                svm_paging_clear_all
                0x0000000040129527                svm_paging_get_gpat
                0x0000000040129532                svm_paging_set_gpat
                0x0000000040129573                svm_paging_apply_fixed_cr0
                0x0000000040129596                svm_paging_apply_fixed_cr4
                0x00000000401295ba                svm_paging_pg_change
                0x00000000401295c0                svm_paging_start
                0x00000000401295d2                svm_panic_dump
                0x00000000401296a0                svm_read_general_reg
                0x00000000401297dc                svm_write_general_reg
                0x00000000401298e8                svm_read_control_reg
                0x0000000040129983                svm_write_control_reg
                0x0000000040129a5f                svm_read_sreg_sel
                0x0000000040129b20                svm_read_sreg_acr
                0x0000000040129bfb                svm_read_sreg_base
                0x0000000040129d17                svm_read_sreg_limit
                0x0000000040129e28                svm_read_ip
                0x0000000040129e47                svm_write_ip
                0x0000000040129e6d                svm_read_flags
                0x0000000040129e8c                svm_write_flags
                0x0000000040129ea8                svm_read_gdtr
                0x0000000040129edf                svm_write_gdtr
                0x0000000040129f08                svm_read_idtr
                0x0000000040129f3f                svm_write_idtr
                0x0000000040129f68                svm_write_realmode_seg
                0x000000004012a0a7                svm_writing_sreg
                0x000000004012a1be                int1a_TCG_StatusCheck
                0x000000004012a271                int1a_TCG_HashLogExtendEvent
                0x000000004012a2fc                int1a_TCG_PassThroughToTPM
                0x000000004012a387                int1a_TCG_HashLogEvent
                0x000000004012a408                int1a_TCG_HashAll
                0x000000004012a4c0                int1a_TCG_TSS
                0x000000004012a54b                int1a_TCG_CompactHashLogExtendEvent
                0x000000004012a5ac                tcg_measure
                0x000000004012a8a5                thread_gettid
                0x000000004012a8ba                schedule
                0x000000004012ab00                thread_new
                0x000000004012ac2d                thread_wakeup
                0x000000004012ad12                thread_will_stop
                0x000000004012ad8a                thread_exit
                0x000000004012ae2e                thread_start1
                0x000000004012ae4c                thread_set_process_switch
                0x000000004012aff4                get_cpu_time
                0x000000004012b0c7                get_acpi_time
                0x000000004012b178                get_time
                0x000000004012b355                timer_new
                0x000000004012b3d6                timer_set
                0x000000004012b4cc                timer_free
                0x000000004012b6be                tty_putchar
                0x000000004012b848                ttylog_stop
                0x000000004012b858                tty_udp_register
                0x000000004012b89c                tty_init_iohook
                0x000000004012b8c3                vcpu_list_foreach
                0x000000004012b902                load_new_vcpu
                0x000000004012b9c4                vga_register
                0x000000004012ba38                vga_is_ready
                0x000000004012ba98                vga_transfer_image
                0x000000004012bae6                vga_fill_rect
                0x000000004012bb21                vga_get_screen_size
                0x000000004012bc45                vmmcall
                0x000000004012bc9e                vmmcall_register
                0x000000004012bcdb                vmmcall_init
                0x000000004012c085                vmmcall_boot_continue
                0x000000004012c0d0                vmmcall_boot_enable
                0x000000004012c957                register_status_callback
                0x000000004012ca4c                vramwrite_clearscreen
                0x000000004012caae                vramwrite_putchar
                0x000000004012cc85                vramwrite_mark1
                0x000000004012ccc6                vramwrite_mark2
                0x000000004012cd0e                vramwrite_mark3
                0x000000004012cd57                vramwrite_save_and_move_cursor
                0x000000004012cd8e                vramwrite_restore_cursor
                0x000000004012cda0                vramwrite_get_cursor_pos
                0x000000004012cdee                vramwrite_init_global
                0x000000004012cdfb                vramwrite_exit_global
                0x000000004012ceae                vt_generate_pagefault
                0x000000004012cf37                vt_generate_external_int
                0x000000004012cf89                vmctl_vt_init
                0x000000004012d031                vt_vmptrld
                0x000000004012d342                vt_ept_init
                0x000000004012d43e                vt_ept_violation
                0x000000004012d657                vt_ept_tlbflush
                0x000000004012d65d                vt_ept_updatecr3
                0x000000004012d74f                vt_ept_clear_all
                0x000000004012d7e2                vt_ept_extern_mapsearch
                0x000000004012d86b                vt_ept_map_1mb
                0x000000004012d8bd                message_exitreason
                0x000000004012da23                printexitreason
                0x000000004012e2b5                vt_available
                0x000000004012e354                vt__vmx_init
                0x000000004012e39c                vt__vmxon
                0x000000004012e449                vt_vminit
                0x000000004012e4a5                vt_vmexit
                0x000000004012e4bf                vt_init
                0x000000004012e4cf                vt_enable_resume
                0x000000004012e608                vt_resume
                0x000000004012e795                vt_io
                0x000000004012e8b6                vt_iopass_init
                0x000000004012ea4b                vt_iopass
                0x000000004012ea8e                vt_extern_iopass
                0x000000004012f6be                vt_update_exception_bmp
                0x000000004012fd26                vt_init_signal
                0x000000004012fd31                vt_start_vm
                0x000000004013010a                vt_add_guest_msr
                0x0000000040130262                vt_read_guest_msr
                0x0000000040130295                vt_write_guest_msr
                0x00000000401302c5                vt_msr_update_lma
                0x000000004013039d                vt_read_msr
                0x0000000040130643                vt_write_msr
                0x0000000040130901                vt_msr_init
                0x0000000040130b03                vt_paging_extern_flush_tlb_entry
                0x0000000040130b67                vt_paging_map_1mb
                0x0000000040130b87                vt_paging_flush_guest_tlb
                0x0000000040130be7                vt_paging_pagefault
                0x0000000040130c1c                vt_paging_tlbflush
                0x0000000040130c39                vt_paging_invalidate
                0x0000000040130c6c                vt_paging_npf
                0x0000000040130ca1                vt_paging_updatecr3
                0x0000000040130cd1                vt_paging_spt_setcr3
                0x0000000040130cfc                vt_paging_clear_all
                0x0000000040130d2f                vt_paging_get_gpat
                0x0000000040130d3a                vt_paging_set_gpat
                0x0000000040130d8e                vt_paging_apply_fixed_cr0
                0x0000000040130df6                vt_paging_apply_fixed_cr4
                0x0000000040130e3e                vt_paging_pg_change
                0x0000000040130fbe                vt_paging_init
                0x0000000040131039                vt_paging_start
                0x0000000040131066                vt_panic_dump
                0x0000000040131210                vt_read_general_reg
                0x0000000040131331                vt_write_general_reg
                0x0000000040131425                vt_read_control_reg
                0x0000000040131493                vt_read_sreg_sel
                0x000000004013159c                vt_read_sreg_acr
                0x00000000401315f3                vt_read_sreg_base
                0x0000000040131675                vt_read_sreg_limit
                0x00000000401316f2                vt_read_ip
                0x0000000040131700                vt_write_ip
                0x0000000040131720                vt_read_flags
                0x0000000040131746                vt_write_flags
                0x0000000040131771                vt_read_gdtr
                0x0000000040131786                vt_write_gdtr
                0x000000004013179b                vt_read_idtr
                0x00000000401317df                vt_write_idtr
                0x0000000040131815                vt_write_control_reg
                0x0000000040131ce8                vt_get_current_regs_in_vmcs
                0x0000000040131f73                vt_get_vmcs_regs_in_vmcs
                0x00000000401320f0                vt_write_realmode_seg
                0x0000000040132239                vt_writing_sreg
                0x00000000401322c2                vt_reset
                0x00000000401325a0                prepare_for_sleep
                0x0000000040132661                cancel_sleep
                0x0000000040132683                wakeup_main
                0x000000004013270b                wakeup_cont
                0x0000000040132840                wakeup_init
                0x0000000040132889                call_xsetbv
                0x0000000040132900                mpumul_64_64
                0x0000000040132920                mpudiv_128_32
                0x0000000040132940                ipchecksum
                0x00000000401329d0                asm_vmlaunch_regs_32
                0x0000000040132a50                asm_vmresume_regs_32
                0x0000000040132ad0                asm_vmrun_regs_32
                0x0000000040132b30                asm_vmlaunch_regs_64
                0x0000000040132c10                asm_vmresume_regs_64
                0x0000000040132cf0                asm_vmrun_regs_64
                0x0000000040132d91                callrealmode_start
                0x0000000040132da7                callrealmode_start2
                0x0000000040133233                move_vmm_area32
                0x0000000040133233                callrealmode_end
                0x0000000040133258                move_vmm_area64
                0x0000000040133280                int_handler
                0x00000000401332f8                int_callfunc
                0x0000000040134000                syscall_entry_sysexit
                0x000000004013402c                syscall_entry_lret
                0x000000004013405c                ret_to_user32
                0x0000000040134068                syscall_entry_sysret64
                0x00000000401340b0                ret_to_user64
                0x0000000040135000                processuser_sysenter
                0x0000000040136000                processuser_no_sysenter
                0x0000000040137000                processuser_syscall
                0x0000000040138140                memset
                0x00000000401381c0                memcpy
                0x0000000040138200                strcmp
                0x0000000040138240                memcmp
                0x0000000040138280                strlen
                0x0000000040138298                sx_handler
                0x00000000401382f0                thread_switch
                0x0000000040138310                thread_start0
                0x000000004013834a                get_guest_cr3_value
                0x0000000040138358                get_guest_eptp_value
                0x0000000040138366                monitor_vmcs_read
                0x000000004013836f                monitor_vmcs_write
                0x0000000040138378                hypercall_handler
                0x00000000401383a6                get_page_table_base_GPA
                0x00000000401383bc                get_ept_base_HPA
                0x00000000401383d2                traverseGuestPages
                0x00000000401383dd                saveSystemCallHandlerAddress
                0x0000000040138451                getSystemCallHandlerGPA
                0x000000004013845e                save_guest_status
                0x00000000401387d8                clear_guest_status
                0x0000000040138ac6                restore_guest_status
                0x0000000040138de0                getTSSGVA
                0x0000000040138df0                getGuestRSP
                0x0000000040138e15                allocateNewVMID
                0x0000000040138e2b                allocateNewAppID
                0x0000000040138e43                allocateNewApplicationIdentifiers
                0x0000000040138e6d                protectCurrentApplication
                0x0000000040138eec                getMemoryOwnershipTableIndex
                0x0000000040138ef9                remapPage
                0x0000000040138f43                changePageStatus
                0x000000004013907a                closePage
                0x00000000401391a7                openPage
                0x0000000040139236                getMemoryOwnershipTableEntry
                0x000000004013926e                initializeNewProtectedApplication
                0x0000000040139297                getCurrentProtectedApplication
                0x000000004013931f                findProtectedApplicationFromRIP
                0x00000000401393c6                setCurrentProtectedApplication
                0x00000000401393d3                traverseIA32ePages
                0x00000000401396be                traverseIA32ePDPT
                0x00000000401398e6                traverseIA32ePDT
                0x0000000040139a59                traverseIA32ePT
                0x0000000040139b26                gvaToGPA
                0x0000000040139db4                mapHPAintoHVA
                0x0000000040139dc4                gpaToHPA
                0x000000004013a271                unmapHPAintoHVA
                0x000000004013a27c                monitor_memset
                0x000000004013a296                virt_to_phys
                0x000000004013a2a3                test_gpaToHPA
                0x000000004013a2ec                test_start
                0x000000004013a34a                test_traverseGuestPages
                0x000000004013a38a                test_logicalCPUStatus
                0x000000004013a3b1                restore_register
                0x000000004013a45e                handleSystemCall
                0x000000004013a484                initPagePool
                0x000000004013a4b6                findUnmappedPage
                0x000000004013a4f0                allocateNewZeroPage
                0x000000004013a550                core_init
                0x000000004013a561                core_mm_read_guest_phys
                0x000000004013a5db                core_mm_write_guest_phys
                0x000000004013a655                alloc_handler_descriptor
                0x000000004013a665                core_io_modify_handler
                0x000000004013a726                core_io_unregister_handler
                0x000000004013a7ad                core_io_handle_default
                0x000000004013aa45                panic_oom
                0x000000004013aa58                core_io_register_handler
                0x000000004013aba0                matched_drhd_u
                0x000000004013abfe                parse_dmar_bios_report
                0x000000004013ac49                ieee1394_init
                0x000000004013ac82                iommu_setup
                0x000000004013ac88                iodom_init
                0x000000004013ae58                add_remap
                0x000000004013aee2                create_dom
                0x000000004013b211                pci_conceal_new_device
                0x000000004013b5e7                pci_conceal_config_data_handler
                0x000000004013b60c                pci_save_config_addr
                0x000000004013b61e                pci_restore_config_addr
                0x000000004013b630                pci_append_device
                0x000000004013b662                pci_config_data_handler
                0x000000004013b995                pci_config_addr_handler
                0x000000004013b9de                pci_register_driver
                0x000000004013ba7d                pci_read_config_data8
                0x000000004013bac3                pci_read_config_data16
                0x000000004013bb0a                pci_read_config_data32
                0x000000004013bb50                pci_write_config_data8
                0x000000004013bb96                pci_write_config_data16
                0x000000004013bbdd                pci_write_config_data32
                0x000000004013bc23                pci_read_config_data_port
                0x000000004013bc55                pci_write_config_data_port
                0x000000004013bc8b                pci_handle_default_config_write
                0x000000004013bcbe                pci_print_device
                0x000000004013c029                pci_possible_new_device
                0x000000004013c051                security_storage_check_lba
                0x000000004013f386                ahci_new
                0x000000004013f610                ahci_config_read
                0x000000004013f677                ahci_config_write
                0x000000004013f92f                ata_bm_handle_command
                0x000000004013fa66                ata_bm_handle_status
                0x000000004013fb17                ata_bm_handle_prd_table
                0x000000004013fc16                ata_bm_handler
                0x000000004013fd19                ata_get_cmd_type
                0x0000000040140083                ata_handle_queued_status
                0x0000000040140a49                ata_channel_lock
                0x0000000040140ac5                ata_channel_unlock
                0x0000000040140aec                ata_cmdblk_handler
                0x0000000040140bfe                ata_ctlblk_handler
                0x000000004014182f                ata_ahci_mode
                0x0000000040141d35                ata_init_io_handler
                0x0000000040141dda                ata_set_bm_handler
                0x0000000040141e31                ata_set_cmdblk_handler
                0x0000000040141e6a                ata_set_ctlblk_handler
                0x0000000040141ea5                ata_config_read
                0x0000000040141f4b                ata_config_write
                0x00000000401420c5                ata_init_vendor
                0x00000000401420ec                ata_bm_handle_device_specific
                0x00000000401421f0                atapi_handle_config_data
                0x0000000040142430                atapi_handle_interrupt_reason
                0x0000000040142476                atapi_handle_pio_identify_packet
                0x0000000040142610                atapi_handle_packet_data
                0x000000004014261b                atapi_handle_cmd_packet
                0x0000000040142699                packet_handle_through
                0x00000000401426cc                packet_handle_nondata
                0x00000000401426e6                packet_handle_config
                0x0000000040142730                packet_handle_rw
                0x00000000401427b1                packet_handle_invalid
                0x00000000401427cb                packet_handle_command
                0x0000000040142800                uhci_init
                0x000000004014307f                uhci_current_frame_number
                0x00000000401430a0                dump_td_byvirt
                0x0000000040143279                dump_td
                0x000000004014334b                dump_qh
                0x0000000040143520                dump_frame
                0x000000004014362a                uhci_dump_all
                0x00000000401437ec                uhci_error_status_string
                0x0000000040143acb                uhci_shadow_buffer
                0x0000000040143d4e                uhci_framelist_monitor
                0x0000000040145cce                scan_gframelist
                0x000000004014657b                uhci_create_urb
                0x00000000401466df                uhci_destroy_urb
                0x000000004014680c                uhci_destroy_unlinked_urbs
                0x00000000401468e1                uhci_deactivate_urb
                0x0000000040146c6e                uhci_activate_urb
                0x000000004014722a                uhci_reactivate_urb
                0x00000000401472d0                uhci_submit_control
                0x0000000040147904                uhci_submit_interrupt
                0x000000004014796c                uhci_submit_bulk
                0x00000000401479d4                uhci_check_urb_advance
                0x0000000040147a0f                uhci_check_advance
                0x0000000040147c15                init_hframelist
                0x0000000040147ef1                ehci_conceal_portroute
                0x0000000040147f39                ehci_init
                0x0000000040149cf7                ehci_dump_qtd
                0x0000000040149d6a                ehci_dump_qtdm
                0x0000000040149d9f                ehci_dump_alist
                0x0000000040149e62                ehci_dump_urblist
                0x0000000040149ef8                ehci_dump_urb
                0x000000004014a3b5                ehci_dump_async
                0x000000004014a836                ehci_dump_all
                0x000000004014bdb3                ehci_shadow_buffer
                0x000000004014c06f                get_gurb_by_address
                0x000000004014c105                shadow_and_activate_urb
                0x000000004014c3e9                ehci_deactivate_urb
                0x000000004014c583                deactivate_and_delete_urb
                0x000000004014c7ec                ehci_check_urb_advance
                0x000000004014c9b6                ehci_check_advance
                0x000000004014cc04                ehci_shadow_async_list
                0x000000004014cd1e                ehci_cleanup_urbs
                0x000000004014ce8b                ehci_end_monitor_async
                0x000000004014cef4                ehci_monitor_async_list
                0x000000004014d5b3                ehci_submit_control
                0x000000004014db43                ehci_submit_bulk
                0x000000004014db4e                ehci_submit_interrupt
                0x000000004014f6f3                usbmsc_init_handle
                0x000000004014face                usbhub_init_handle
                0x000000004014fb47                hub_portdevice_register
                0x0000000040150210                usbccid_init_handle
                0x0000000040150330                usb_set_debug
                0x000000004015033c                usb_init
                0x0000000040150342                usb_find_busses
                0x0000000040150423                usb_get_busses
                0x0000000040150430                usb_get_bus
                0x000000004015045f                usb_find_devices
                0x00000000401504af                usb_open
                0x0000000040150519                usb_close
                0x0000000040150529                usb_resetep
                0x0000000040150534                usb_clear_halt
                0x000000004015053f                usb_reset
                0x000000004015054a                usb_claim_interface
                0x0000000040150558                usb_release_interface
                0x000000004015056a                usb_set_configuration
                0x0000000040150815                usb_set_altinterface
                0x0000000040150ac2                usb_control_msg
                0x0000000040150e11                usb_get_string
                0x000000004015114c                usb_get_string_simple
                0x000000004015134c                usb_get_descriptor
                0x000000004015168d                usb_get_descriptor_early
                0x00000000401519d6                usb_get_descriptor_by_endpoint
                0x0000000040151d1c                usb_bulk_write
                0x0000000040151f50                usb_interrupt_write
                0x0000000040152182                usb_bulk_read
                0x000000004015243e                usb_interrupt_read
                0x00000000401526fd                usb_register_host
                0x0000000040152818                usb_unregister_devices
                0x000000004015284a                usb_sc_lock
                0x00000000401528c2                usb_sc_unlock
                0x0000000040152fd8                free_config_descriptors
                0x0000000040153129                free_device
                0x0000000040153295                handle_connect_status
                0x0000000040153390                handle_port_reset
                0x0000000040153471                dprintf_port
                0x0000000040154419                usb_init_device_monitor
                0x0000000040154483                usb_new_dev_handle
                0x0000000040154534                usbhid_init_handle
                0x000000004015466a                usb_hook_process
                0x000000004015496a                usb_hook_register
                0x0000000040154a44                usb_hook_unregister
                0x0000000040154ac8                _dprintf
                0x0000000040154b15                _dprintft
                0x0000000040154bc8                pro100_io_handler
                0x0000000040154bd3                pro100_config_read
                0x0000000040154be8                pro100_config_write
                0x0000000040154d12                pro100_init
                0x0000000040154d2c                pro100_init_vpn_client
                0x0000000040154d6b                pro100_sleep
                0x0000000040154d9b                pro100_beep
                0x0000000040154dc5                pro100_get_ctx
                0x0000000040154e68                pro100_alloc_page
                0x0000000040154ea2                pro100_free_page
                0x0000000040154ec7                pro100_get_op_size
                0x0000000040154f0a                pro100_mem_read
                0x0000000040154f80                pro100_read_send_packet
                0x0000000040155192                pro100_mem_write
                0x0000000040155206                pro100_write
                0x0000000040155279                pro100_read
                0x00000000401552f8                pro100_wait_cu_ru_accepable
                0x0000000040155333                pro100_init_cu_base_addr
                0x0000000040155393                pro100_init_ru_base_addr
                0x00000000401553f3                pro100_flush
                0x000000004015540e                pro100_exec_cu_op
                0x0000000040155552                pro100_send_packet_to_line
                0x000000004015568f                pro100_generate_int
                0x00000000401556bf                pro100_write_recv_packet
                0x000000004015583b                pro100_proc_guest_op
                0x0000000040155a46                pro100_get_int_bit_string
                0x0000000040155abc                pro100_get_stat_ack_string
                0x0000000040155b27                pro100_get_cu_command_string
                0x0000000040155ba9                pro100_get_ru_command_string
                0x0000000040155bf3                pro100_init_recv_buffer
                0x0000000040155d2a                pro100_poll_ru
                0x0000000040155e25                pro100_hook_write
                0x00000000401560eb                pro100_hook_read
                0x00000000401562a2                pro100_mm_handler
                0x00000000401563f6                pro100_alloc_recv_buffer
                0x0000000040156463                pro100_new
                0x00000000401586b3                storage_premap_buf
                0x00000000401586be                storage_premap_handle_sectors
                0x00000000401589f2                storage_get_num_hc
                0x0000000040158a24                storage_hc_open
                0x0000000040158b18                storage_hc_close
                0x0000000040158b62                storage_hc_hook_register
                0x0000000040158bd9                storage_hc_hook_unregister
                0x0000000040158c73                storage_hc_register
                0x0000000040158e51                storage_hc_unregister
                0x0000000040158f5a                storage_hc_scandev
                0x0000000040158fa1                storage_hc_dev_open
                0x00000000401590de                storage_hc_dev_atacommand
                0x00000000401592b5                storage_hc_dev_close
                0x000000004015937d                storage_io_init
                0x0000000040159392                storage_io_deinit
                0x000000004015939d                storage_io_get_num_devices
                0x000000004015945b                storage_io_aget_size
                0x00000000401595cd                storage_io_aread
                0x000000004015980e                storage_io_awrite
                0x0000000040159f92                storage_handle_sectors
                0x000000004015a1db                storage_new
                0x000000004015a422                storage_free
                0x000000004015a621                storage_init
                0x000000004015a855                aes_xts_init
                0x000000004015a888                crypto_find
                0x000000004015a8db                crypto_register
                0x000000004015a92b                crypto_init
                0x000000004015a982                crypto_none_init
                0x000000004015a9ba                vpn_GetCurrentCpuId
                0x000000004015a9c5                vpn_GetTickCount
                0x000000004015a9f5                vpn_NewTimer
                0x000000004015aa0f                vpn_SetTimer
                0x000000004015aa23                vpn_FreeTimer
                0x000000004015aa2e                vpn_GetPhysicalNicInfo
                0x000000004015aa3d                vpn_SendPhysicalNic
                0x000000004015aa4c                vpn_SetPhysicalNicRecvCallback
                0x000000004015aa5b                vpn_GetVirtualNicInfo
                0x000000004015aa6b                vpn_SendVirtualNic
                0x000000004015aa7b                vpn_SetVirtualNicRecvCallback
                0x000000004015aa8b                vpn_premap_PhysicalNicRecv
                0x000000004015aaa4                vpn_premap_VirtualNicRecv
                0x000000004015aabd                vpn_premap_recvbuf
                0x000000004015aac8                vpn_ic_rsa_sign
                0x000000004015ab61                vpn_new_nic
                0x000000004015b171                msg_vpn_GetCurrentCpuId
                0x000000004015b18b                msg_vpn_ic_rsa_sign
                0x000000004015b237                msg_vpn_GetTickCount
                0x000000004015b275                msg_vpn_GetPhysicalNicInfo
                0x000000004015b2d9                msg_vpn_SendPhysicalNic
                0x000000004015b393                msg_vpn_SetPhysicalNicRecvCallback
                0x000000004015b3df                msg_vpn_GetVirtualNicInfo
                0x000000004015b443                msg_vpn_SendVirtualNic
                0x000000004015b4fd                msg_vpn_SetVirtualNicRecvCallback
                0x000000004015b549                msg_vpn_NewTimer
                0x000000004015b5b9                msg_vpn_SetTimer
                0x000000004015b68c                msg_vpn_FreeTimer
                0x000000004015b6f2                vpn_start
                0x000000004015ba7c                vpn_user_init
                0x000000004015bae0                SeFreeConfigEntryList
                0x000000004015bb3e                SeGetConfigEntry
                0x000000004015bbaf                SeGetConfigStr
                0x000000004015bbdc                SeGetConfigBool
                0x000000004015bc88                SeGetConfigInt
                0x000000004015bcac                SeGetConfigInt64
                0x000000004015bcd0                SeGetConfigBin
                0x000000004015bcf4                SeIsSplitChar
                0x000000004015bd67                SeGetKeyAndValue
                0x000000004015bef7                SeLoadConfigEntryListFromBuf
                0x000000004015c06f                SeLoadConfigEntryList
                0x000000004015c0c0                SePKeyPasswordCallbackFunction
                0x000000004015c0ed                SeDhFree
                0x000000004015c127                SeRsaVerifyWithPadding
                0x000000004015c201                SeRsaSignWithPadding
                0x000000004015c2c5                SeRsaPublicDecrypt
                0x000000004015c36e                SeRsaPrivateEncrypt
                0x000000004015c417                SeRsaPrivateDecrypt
                0x000000004015c4b8                SeRsaPublicEncrypt
                0x000000004015c559                SeGetCertSha1
                0x000000004015c5a1                SeGetCertMd5
                0x000000004015c5e9                SeBinToBigNum
                0x000000004015c634                SeBufToBigNum
                0x000000004015c64f                SeDhCompute
                0x000000004015c6db                SeBigNumToBuf
                0x000000004015c774                SeRsaPublicSize
                0x000000004015c7bf                SeRsaPublicToBin
                0x000000004015c823                SeRsaPublicToBuf
                0x000000004015c867                SeDhNew
                0x000000004015c93d                SeDhNewGroup2
                0x000000004015c952                SeCheckSignature
                0x000000004015c97c                SeGetKeyFromCert
                0x000000004015c9b8                SeCompareCert
                0x000000004015c9e2                SeCheckCertAndKey
                0x000000004015ca0c                SeIsBase64
                0x000000004015cacd                SeFreePKey
                0x000000004015cadd                SeFreeKey
                0x000000004015cb05                SeIsCertSignedByCert
                0x000000004015cb75                SeCheckCert
                0x000000004015cbdb                SeBioToKey
                0x000000004015cce9                SeGetCertIssuerName
                0x000000004015cd75                SeGetCertSubjectName
                0x000000004015cdff                SeFreeX509
                0x000000004015ce0f                SeFreeCert
                0x000000004015ce3d                SeFreeBio
                0x000000004015ce4d                SeNewBio
                0x000000004015ce60                SeCertToBio
                0x000000004015cec1                SeKeyToBio
                0x000000004015cfbd                SeRsaGen
                0x000000004015d128                SeBioToBuf
                0x000000004015d1c9                SeCertToBuf
                0x000000004015d214                SeSaveCert
                0x000000004015d275                SeKeyToBuf
                0x000000004015d2c0                SeSaveKey
                0x000000004015d324                SeX509ToCert
                0x000000004015d3dc                SeBioToCert
                0x000000004015d427                SeBigNumToStr
                0x000000004015d493                SeBufToBio
                0x000000004015d4ec                SeBufToKey
                0x000000004015d558                SeLoadKey
                0x000000004015d603                SeCloneKey
                0x000000004015d66d                SeBufToCert
                0x000000004015d6c2                SeLoadCert
                0x000000004015d70f                SeCloneCert
                0x000000004015d760                SeSha1
                0x000000004015d780                SeHashForSignBySHA1
                0x000000004015d82a                SeRsaSignWithSha1
                0x000000004015d8cd                SeRsaVerifyWithSha1
                0x000000004015d96f                SeMacSha1
                0x000000004015dac6                SeMacSha196
                0x000000004015db0d                SeMd5
                0x000000004015db2d                SeDes3Encrypt
                0x000000004015dbc5                SeDes3Decrypt
                0x000000004015dc5f                SeDesNewKeyValue
                0x000000004015dcb1                SeDes3NewKey
                0x000000004015dd32                SeDesNewKey
                0x000000004015dd43                SeDesRandKeyValue
                0x000000004015dd5f                SeDesRandKey
                0x000000004015dda9                SeDes3RandKey
                0x000000004015ddf2                SeDesFreeKeyValue
                0x000000004015de1a                SeDes3FreeKey
                0x000000004015de54                SeDesFreeKey
                0x000000004015de5f                SeRand
                0x000000004015de73                SeRand64
                0x000000004015de8f                SeRand32
                0x000000004015deaa                SeRand16
                0x000000004015dec6                SeRand8
                0x000000004015dee2                SeRand1
                0x000000004015def5                SeInitCrypto
                0x000000004015df38                SeFreeCrypto
                0x000000004015df50                SeIkeStrToPassword
                0x000000004015dfbd                SeIkePhase1CryptIdToKeySize
                0x000000004015dfdc                SeIkePhase2CryptIdToKeySize
                0x000000004015dffb                SeIkeStrToPhase1CryptId
                0x000000004015e061                SeIkeStrToPhase1HashId
                0x000000004015e0a0                SeIkeStrToPhase2CryptId
                0x000000004015e10b                SeIkeStrToPhase2HashId
                0x000000004015e14a                SeIkeIsZeroIP
                0x000000004015e178                SeIkeInitIPv6Address
                0x000000004015e1c5                SeIkeInitIPv4Address
                0x000000004015e208                SeIkeGetIPv6Address
                0x000000004015e242                SeIkeGetIPv4Address
                0x000000004015e25b                SeIkeIpAddressToStr
                0x000000004015e2b5                SeIkeBuildDataPayload
                0x000000004015e2fe                SeIkeBuildTransformValue
                0x000000004015e3b8                SeIkeBuildTransformValueList
                0x000000004015e420                SeIkeBuildTransformPayload
                0x000000004015e49d                SeIkeBuildIdPayload
                0x000000004015e514                SeIkeBuildCertPayload
                0x000000004015e577                SeIkeBuildCertRequestPayload
                0x000000004015e5da                SeIkeBuildNoticePayload
                0x000000004015e667                SeIkeBuildDeletePayload
                0x000000004015e737                SeIkeGetFirstPayloadType
                0x000000004015e756                SeIkeBuildPayloadList
                0x000000004015e861                SeIkeBuildProposalPayload
                0x000000004015e90c                SeIkeBuildSaPayload
                0x000000004015e995                SeIkeBuildPayload
                0x000000004015ea6e                SeIkeGetPayload
                0x000000004015eabc                SeIkeGetPayloadNum
                0x000000004015eaf8                SeIkeNewPayload
                0x000000004015eb16                SeIkeNewDataPayload
                0x000000004015eb66                SeIkeNewSaPayload
                0x000000004015eb91                SeIkeNewProposalPayload
                0x000000004015ec1b                SeIkeNewTransformPayload
                0x000000004015ec66                SeIkeNewIdPayload
                0x000000004015ece6                SeIkeNewCertPayload
                0x000000004015ed4a                SeIkeNewCertRequestPayload
                0x000000004015edae                SeIkeNewNoticePayload
                0x000000004015ee4a                SeIkeNewDeletePayload
                0x000000004015ee86                SeIkeNewTransformValue
                0x000000004015eeb5                SeIkeFreeTransformValueList
                0x000000004015eef1                SeIkeParseTransformValueList
                0x000000004015f05d                SeIkeParseTransformPayload
                0x000000004015f0c9                SeIkeFreeTransformPayload
                0x000000004015f0f7                SeIkeParseIdPayload
                0x000000004015f174                SeIkeFreeIdPayload
                0x000000004015f1a2                SeIkeParseCertPayload
                0x000000004015f20b                SeIkeFreeCertPayload
                0x000000004015f239                SeIkeParseCertRequestPayload
                0x000000004015f2a2                SeIkeFreeCertRequestPayload
                0x000000004015f2d0                SeIkeParseNoticePayload
                0x000000004015f394                SeIkeFreeNoticePayload
                0x000000004015f3d8                SeIkeFreeDeletePayload
                0x000000004015f437                SeIkeParseDeletePayload
                0x000000004015f545                SeIkeParseDataPayload
                0x000000004015f57f                SeIkeFreeDataPayload
                0x000000004015f592                SeIkeFreePayloadList
                0x000000004015f5ce                SeIkeParsePayloadListEx
                0x000000004015f751                SeIkeParsePayloadList
                0x000000004015f764                SeIkeParseProposalPayload
                0x000000004015f814                SeIkeParseSaPayload
                0x000000004015f8e1                SeIkeParsePayload
                0x000000004015f9e1                SeIkeFreeProposalPayload
                0x000000004015fa25                SeIkeFreeSaPayload
                0x000000004015fa51                SeIkeFreePayload
                0x000000004015faf8                SeIkeEncrypt
                0x000000004015fbb3                SeIkeEncryptWithPadding
                0x000000004015fc63                SeIkeBuild
                0x000000004015fdbc                SeIkeDecrypt
                0x000000004015fe77                SeIkeFree
                0x000000004015feb3                SeIkeParseEx
                0x000000004016009b                SeIkeParse
                0x00000000401600ab                SeIkeParseHeader
                0x00000000401600bb                SeIkeNew
                0x0000000040160140                VPN_IPsec_Client_Start
                0x0000000040160166                VPN_IPsec_Client_Stop
                0x0000000040160176                SeIntInit
                0x0000000040160199                SeIntFree
                0x00000000401601b3                VPN_IPsec_Init
                0x000000004016020f                VPN_IPsec_Free
                0x0000000040160241                SeSysMemoryAlloc
                0x000000004016025d                SeSysMemoryReAlloc
                0x0000000040160286                SeSysMemoryFree
                0x000000004016029e                SeSysGetCurrentCpuId
                0x00000000401602b6                SeSysNewLock
                0x00000000401602ce                SeSysLock
                0x00000000401602e6                SeSysUnlock
                0x00000000401602fe                SeSysFreeLock
                0x0000000040160316                SeSysGetTickCount
                0x000000004016032e                SeSysNewTimer
                0x0000000040160352                SeSysSetTimer
                0x000000004016036a                SeSysFreeTimer
                0x0000000040160382                SeSysGetPhysicalNicInfo
                0x000000004016039f                SeSysSendPhysicalNic
                0x00000000401603c5                SeSysSetPhysicalNicRecvCallback
                0x00000000401603e7                SeSysGetVirtualNicInfo
                0x0000000040160404                SeSysSendVirtualNic
                0x000000004016042d                SeSysSetVirtualNicRecvCallback
                0x0000000040160452                SeSysSaveData
                0x0000000040160479                SeSysLoadData
                0x00000000401604a0                SeSysFreeData
                0x00000000401604bb                SeSysRsaSign
                0x00000000401604f3                SeSysLog
                0x0000000040160521                SeRsaSign
                0x00000000401605c0                Se4ParseIpPacketUDPv4
                0x00000000401606bb                Se4FreeIpHeaderInfo
                0x00000000401606ef                Se4IpChecksum
                0x0000000040160762                Se4IpCheckChecksum
                0x00000000401607b1                Se4ParseIpPacketICMPv4
                0x00000000401608e0                Se4BuildIcmpEchoPacket
                0x000000004016099c                Se4AdjustTcpMss
                0x0000000040160b41                Se4Tick
                0x0000000040160b59                Se4BroadcastMacAddress
                0x0000000040160b64                Se4SendEthPacket
                0x0000000040160c3b                Se4SendIpFragmentNow
                0x0000000040160c64                Se4InitArpEntryList
                0x0000000040160c74                Se4FreeArpEntryList
                0x0000000040160cb0                Se4FlushArpEntryList
                0x0000000040160d5d                Se4SearchArpEntryList
                0x0000000040160de9                Se4AddArpEntryList
                0x0000000040160ed6                Se4SearchArpWaitList
                0x0000000040160f1e                Se4InitArpWaitList
                0x0000000040160f2e                Se4FreeArpWaitList
                0x0000000040160f6a                Se4InsertIpWait
                0x0000000040160fec                Se4InitIpWaitList
                0x0000000040160ffc                Se4FreeIpWait
                0x0000000040161025                Se4FlushIpWaitList
                0x00000000401610e7                Se4FreeIpWaitList
                0x0000000040161123                Se4InitIpCombineList
                0x0000000040161133                Se4SearchIpCombineList
                0x00000000401611a9                Se4InitIpFragmentList
                0x00000000401611b9                Se4InsertIpCombine
                0x00000000401612b8                Se4FreeIpFragmentList
                0x00000000401612f4                Se4FreeIpCombine
                0x000000004016132c                Se4FlushIpCombineList
                0x0000000040161415                Se4FreeIpCombineList
                0x0000000040161463                Se4Free
                0x00000000401614a7                Se4And
                0x00000000401614d6                Se4GetNetworkAddress
                0x00000000401614e1                Se4Or
                0x0000000040161510                Se4Not
                0x000000004016153a                Se4GetBroadcastAddress
                0x000000004016157f                Se4GetHostAddress
                0x0000000040161599                Se4GenerateSubnetMask32
                0x00000000401615ba                Se4IPToStr
                0x00000000401615fd                Se4ZeroIP
                0x0000000040161618                Se4StrToIP
                0x00000000401616b9                Se4IPToUINT
                0x00000000401616db                Se4StrToIP32
                0x00000000401616ed                Se4IsZeroIP
                0x0000000040161700                Se4Init
                0x0000000040161816                Se4Cmp
                0x000000004016184f                Se4CheckUnicastAddress
                0x00000000401618a0                Se4IsInSameNetwork
                0x00000000401618ef                Se4CmpIpCombineList
                0x000000004016198d                Se4SendWaitingIpWait
                0x0000000040161a6e                Se4MacIpRelationKnown
                0x0000000040161b1a                Se4CmpArpWaitEntry
                0x0000000040161b51                Se4CmpArpEntry
                0x0000000040161b88                Se4ParseIpPacket
                0x0000000040161cde                Se4IsBroadcastAddress
                0x0000000040161cf2                Se4SendArpResponse
                0x0000000040161dd9                Se4SendArpDoProcess
                0x0000000040161edf                Se4ProcessArpWaitList
                0x0000000040161f93                Se4MainProc
                0x0000000040161fc4                Se4SendArpRequest
                0x0000000040162039                Se4UINTToIP
                0x000000004016205b                Se4IPToStr32
                0x000000004016207f                Se4GenerateSubnetMask
                0x0000000040162091                Se4IsSubnetMask
                0x00000000401620ce                Se4RecvArpResponse
                0x0000000040162113                Se4RecvArpRequest
                0x000000004016223d                Se4RecvArp
                0x00000000401622fa                Se4SendRawIp
                0x000000004016245d                Se4SendIpFragment
                0x0000000040162590                Se4SendIp
                0x0000000040162672                Se4SendUdp
                0x00000000401627a4                Se4SendIcmp
                0x000000004016285d                Se4SendIcmpEchoResponse
                0x00000000401628f2                Se4RecvIpComplete
                0x00000000401629bf                Se4CombineIp
                0x0000000040162bbd                Se4SendIcmpEchoRequest
                0x0000000040162c52                Se4RecvIp
                0x0000000040162eec                Se4RecvEthPacket
                0x0000000040162f80                Se6FreeIpHeaderInfo
                0x0000000040162fb4                Se6IpChecksum
                0x0000000040163027                Se6CalcChecksum
                0x00000000401630e8                Se6ParseIpPacketICMPv6
                0x0000000040163326                Se6ParseIpPacketUDPv6
                0x0000000040163475                Se6BuildIcmpEchoPacket
                0x000000004016355e                Se6BroadcastMacAddress
                0x0000000040163569                Se6SendEthPacket
                0x0000000040163640                Se6SendIpFragmentNow
                0x0000000040163669                Se6InitNeighborEntryList
                0x0000000040163679                Se6FreeNeighborEntryList
                0x00000000401636b5                Se6FlushNeighborEntryList
                0x0000000040163762                Se6SearchNeighborEntryList
                0x00000000401637b9                Se6AddNeighborEntryList
                0x00000000401638a3                Se6SearchNdpWaitList
                0x00000000401638f2                Se6InitNdpWaitList
                0x0000000040163902                Se6FreeNdpWaitList
                0x000000004016393e                Se6InsertIpWait
                0x00000000401639cd                Se6InitIpWaitList
                0x00000000401639dd                Se6FreeIpWait
                0x0000000040163a06                Se6FreeIpWaitList
                0x0000000040163a42                Se6InitIpCombineList
                0x0000000040163a52                Se6SearchIpCombineList
                0x0000000040163af6                Se6InitIpFragmentList
                0x0000000040163b06                Se6FreeIpFragmentList
                0x0000000040163b42                Se6FreeIpCombine
                0x0000000040163b7d                Se6FreeIpCombineList
                0x0000000040163bcb                Se6Free
                0x0000000040163c1b                Se6Tick
                0x0000000040163c33                Se6InsertIpCombine
                0x0000000040163d6a                Se6FlushIpCombineList
                0x0000000040163e56                Se6FlushIpWaitList
                0x0000000040163f1e                Se6GenerateEui64Address
                0x0000000040163f7f                Se6GenerateMulticastMacAddress
                0x0000000040163fb5                Se6GetAllNodeMulticastAddr
                0x0000000040163fe1                Se6GetAllRouterMulticastAddr
                0x000000004016400d                Se6And
                0x000000004016404b                Se6GetPrefixAddress
                0x000000004016405a                Se6Or
                0x0000000040164098                Se6Not
                0x00000000401640cc                Se6GetHostAddress
                0x0000000040164108                Se6GenerateSubnetMask
                0x000000004016416d                Se6GetSoliciationMulticastAddr
                0x000000004016421e                Se6LocalSubnet
                0x0000000040164232                Se6Cmp
                0x000000004016425e                Se6GetIPAddrType
                0x000000004016436c                Se6IsInSameNetwork
                0x0000000040164433                Se6SendRawIp
                0x00000000401645a5                Se6SendIpFragment
                0x00000000401645c1                Se6SendIp
                0x000000004016473e                Se6SendUdp
                0x000000004016486a                Se6SendIcmp
                0x0000000040164966                Se6SendIcmpNeighborSoliciation
                0x0000000040164adc                Se6SendNeighborSoliciationDoProcess
                0x0000000040164b96                Se6SendNeighborSoliciation
                0x0000000040164c1e                Se6ProcessNdpWaitList
                0x0000000040164cd8                Se6SendIcmpNeighborAdvertisement
                0x0000000040164e1c                Se6SendIcmpEchoResponse
                0x0000000040164ee1                Se6SendIcmpEchoRequest
                0x0000000040164fa6                Se6IsSubnetMask
                0x0000000040165008                Se6SubnetMaskToInt
                0x0000000040165062                Se6SendIcmpRouterAdvertisement
                0x000000004016523a                Se6MainProc
                0x0000000040165294                Se6CmpIpCombineList
                0x0000000040165325                Se6SendWaitingIpWait
                0x000000004016541c                Se6MacIpRelationKnown
                0x000000004016553e                Se6CmpNdpWaitEntry
                0x000000004016557f                Se6CmpNeighborEntry
                0x00000000401655c0                Se6ParseIpPacket
                0x0000000040165762                Se6IsZeroIP
                0x0000000040165782                Se6CheckUnicastAddress
                0x00000000401657b6                Se6IsNetworkPrefixAddress
                0x00000000401657f8                Se6IsGuestNode
                0x000000004016589c                Se6AddGuestNode
                0x0000000040165970                Se6RecvIpComplete
                0x0000000040165c27                Se6CombineIp
                0x0000000040165e3d                Se6RecvIp
                0x000000004016607a                Se6RecvEthPacket
                0x00000000401660ec                Se6IPToStr
                0x000000004016624a                Se6IPItemStrToChars
                0x000000004016632a                Se6CheckIPItemStr
                0x0000000040166393                Se6ZeroIP
                0x00000000401663b3                Se6StrToIP
                0x000000004016657f                Se6GenerateEui64LocalAddress
                0x00000000401665f2                Se6Init
                0x0000000040166751                Se6GenerateEui64GlobalAddress
                0x0000000040166852                Se6CheckSubnetLength
                0x0000000040166870                SeTimerEntryCompare
                0x00000000401668b0                SeEthGetInfo
                0x00000000401668d4                SeEthSendAdd
                0x0000000040166907                SeEthParseEthernetPacket
                0x0000000040166a08                SeEthGenRandMacAddress
                0x0000000040166a5a                SeLoad
                0x0000000040166abf                SeSave
                0x0000000040166adb                SeTick
                0x0000000040166aeb                SeGetCurrentCpuId
                0x0000000040166afb                SeNewLock
                0x0000000040166b36                SeEthNew
                0x0000000040166c4c                SeTimerNew
                0x0000000040166cc2                SeLock
                0x0000000040166d0c                SeUnlock
                0x0000000040166d33                SeTick64Internal
                0x0000000040166d89                SeTick64
                0x0000000040166da8                SeInitKernel
                0x0000000040166de2                SeEthGetNextRecvPacket
                0x0000000040166e2b                SeEthDeleteOldSenderMacList
                0x0000000040166eff                SeEthIsSenderMacAddressExistsInList
                0x0000000040166fa6                SeEthNicCallback
                0x00000000401670a7                SeEthAddSenderMacList
                0x00000000401671a1                SeEthSend
                0x0000000040167227                SeEthSendAll
                0x00000000401672f8                SeTimerAdjust
                0x000000004016737e                SeTimerSet
                0x0000000040167404                SeTimerCallback
                0x0000000040167514                SeDeleteLock
                0x000000004016753c                SeEthFree
                0x00000000401675e5                SeTimerFree
                0x000000004016763f                SeFreeKernel
                0x0000000040167655                SeLogArgs
                0x0000000040167693                SeWarning
                0x00000000401676d9                SeError
                0x000000004016771f                SeInfo
                0x0000000040167765                SeFatal
                0x00000000401677ab                SeDebug
                0x00000000401677f1                SeDebugBin
                0x000000004016785f                SeLog
                0x00000000401678a0                SeB64CodeToChar
                0x00000000401678e6                SeB64CharToCode
                0x000000004016792d                SeIsZero
                0x0000000040167976                SeReplaceListPointer
                0x00000000401679d2                SeIsInListStr
                0x0000000040167a43                SeIsInList
                0x0000000040167a8e                SeCompareStr
                0x0000000040167ab0                SeSetSortFlag
                0x0000000040167abe                SeSetCmp
                0x0000000040167adf                SeFastSwap
                0x0000000040167b13                SeQSort
                0x0000000040167e2b                SeSort
                0x0000000040167e63                SeBSearch
                0x0000000040167f32                SeSearch
                0x0000000040167f9a                SeFifoSize
                0x0000000040167fad                SeDumpBuf
                0x0000000040167fd5                SeSeekBuf
                0x000000004016800b                SeClearBuf
                0x0000000040168024                SeSwap16
                0x000000004016803f                SeSwap32
                0x0000000040168069                SeSwap64
                0x00000000401680c0                SeMalloc
                0x0000000040168102                SeNewBuf
                0x0000000040168144                SeNewFifo
                0x0000000040168186                SeReAlloc
                0x00000000401681f7                SeAdjustBufSize
                0x000000004016822c                SeClearFifo
                0x0000000040168269                SeAdd
                0x00000000401682d3                SeInsert
                0x0000000040168401                SeInsertStr
                0x0000000040168454                SeDelete
                0x000000004016850f                SeDeleteAll
                0x0000000040168546                SePop
                0x00000000401685ad                SePush
                0x0000000040168610                SeMemSize
                0x0000000040168642                SeFree
                0x0000000040168671                SeFreeBuf
                0x0000000040168699                SeFreeBufWithoutBuffer
                0x00000000401686a9                SeFreeFifo
                0x00000000401686d1                SeFreeList
                0x00000000401686fa                SeFreeQueue
                0x0000000040168723                SeFreeStack
                0x000000004016874c                SeIsLittleEndian
                0x000000004016875f                SeEndian16
                0x0000000040168783                SeEndian32
                0x00000000401687a6                SeEndian64
                0x00000000401687cd                SeIsBigEndian
                0x00000000401687e5                SeCmp
                0x0000000040168854                SeCmpEx
                0x0000000040168889                SeCmpBuf
                0x00000000401688ca                SeCopy
                0x00000000401688f2                SeClone
                0x000000004016893f                SeSwap
                0x0000000040168999                SeWriteBuf
                0x0000000040168a10                SeMemToBuf
                0x0000000040168a76                SeRandBuf
                0x0000000040168abc                SeCloneBuf
                0x0000000040168ad7                SeWriteBufLine
                0x0000000040168b2f                SeWriteBufBuf
                0x0000000040168b4a                SeWriteBufInt
                0x0000000040168b8a                SeWriteBufInt64
                0x0000000040168bcd                SeWriteBufStr
                0x0000000040168c3b                SeAddBufStr
                0x0000000040168c7a                SeReadDump
                0x0000000040168cdf                SePeekFifo
                0x0000000040168d1d                SePeekNext
                0x0000000040168d5b                SeReadFifo
                0x0000000040168e48                SeGetNext
                0x0000000040168e92                SeGetNextInt
                0x0000000040168ec8                SeWriteFifo
                0x0000000040168f5c                SeInsertQueue
                0x0000000040168f92                SeInsertQueueInt
                0x0000000040168fc6                SeCopyToArray
                0x0000000040168fea                SeToArray
                0x000000004016902f                SeZero
                0x0000000040169051                SeZeroMalloc
                0x0000000040169089                SeNewList
                0x00000000401690dc                SeCloneList
                0x000000004016912a                SeNewQueue
                0x000000004016915e                SeNewStack
                0x0000000040169199                SeB64Decode
                0x0000000040169368                SeB64Encode
                0x0000000040169521                SeReadBuf
                0x00000000401695bb                SeReadBufFromBuf
                0x0000000040169657                SeReadRemainBuf
                0x000000004016967f                SeReadBufInt
                0x00000000401696b4                SeReadBufInt64
                0x00000000401696ec                SeReadBufStr
                0x00000000401697a0                SeBuildICMPv6OptionValue
                0x000000004016982f                SeBuildICMPv6Options
                0x00000000401698da                SeParseICMPv6Options
                0x00000000401699b3                SeFreePacketList
                0x00000000401699ef                SeFreePacketListWithoutBuffer
                0x0000000040169a2b                SeGetNextHeaderFromQueue
                0x0000000040169a57                SeBuildAndAddIPv6PacketOptionHeader
                0x0000000040169af4                SeBuildIPv6Packet
                0x0000000040169cd9                SeBuildIPv6PacketWithFragment
                0x0000000040169e95                SeParseIPv6ExtHeader
                0x0000000040169f82                SeParseIPv6Packet
                0x0000000040169ffd                SeParsePacketL3IPv6
                0x000000004016a03e                SeParsePacketL3IPv4
                0x000000004016a0f7                SeParsePacketL3ARPv4
                0x000000004016a121                SeParsePacketL2
                0x000000004016a1c3                SeFreePacket
                0x000000004016a1d3                SeParsePacket
                0x000000004016a270                SeSecCmpIkeSa
                0x000000004016a348                SeSecCalcP2Iv
                0x000000004016a3fc                SeSecCalcP1Iv
                0x000000004016a4a9                SeSecCalcKEYMATFull
                0x000000004016a5b3                SeSecCalcKEYMAT
                0x000000004016a67a                SeSecCalcKa
                0x000000004016a74f                SeSecCalcP1KeySet
                0x000000004016a966                SeSecForceReconnect
                0x000000004016a99f                SeSecLifeSeconds64bit
                0x000000004016a9bf                SeSecGetIPsecSa
                0x000000004016aa0b                SeSecNewIkeSa
                0x000000004016aabc                SeSecFreeP1KeySet
                0x000000004016ab0a                SeSecGenIkeSaMessageId
                0x000000004016ab79                SeSecGenIkeSaInitCookie
                0x000000004016abe8                SeSecInitSaList
                0x000000004016ac22                SeSecSearchIPsecSaBySpi
                0x000000004016acb1                SeSecSearchIkeSaBySpi
                0x000000004016ad7c                SeSecSearchIkeSa
                0x000000004016ae48                SeSecNewSpi
                0x000000004016ae5f                SeSecGenIPsecSASpi
                0x000000004016aece                SeSecStrToAuthMethod
                0x000000004016af39                SeSecTick
                0x000000004016af53                SeSecCheckIPsecSaExpires
                0x000000004016b016                SeSecCheckIkeSaExpires
                0x000000004016b0d5                SeSecSetTimerCallback
                0x000000004016b0f5                SeSecAddTimer
                0x000000004016b115                SeSecDoInterval
                0x000000004016b186                SeSecNewIPsecSa
                0x000000004016b2f3                SeSecSetRecvUdpCallback
                0x000000004016b313                SeSecSetRecvEspCallback
                0x000000004016b333                SeSecSetRecvVirtualIpCallback
                0x000000004016b353                SeSecSendUdp
                0x000000004016b39c                SeSecProcessIkeSaMsgPhase1
                0x000000004016bca5                SeSecSendIkeSaMsgPhase2
                0x000000004016c1c7                SeSecSendIkeSaMsgPhase2FinalHash
                0x000000004016c367                SeSecProcessIkeSaMsgPhase2
                0x000000004016c7c6                SeSecSendIkeSaMsgInfo
                0x000000004016ca2e                SeSecSendIkeSaMsgInfoSimple
                0x000000004016ca96                SeSecSendIPsecSaDeleteMsg
                0x000000004016cb1a                SeSecFreeIPsecSa
                0x000000004016cb9a                SeSecDeleteExpiredIPsecSa
                0x000000004016cc40                SeSecProcessIkeSaMsgInfo
                0x000000004016cf65                SeSecProcessIkeSaMsg
                0x000000004016cfb9                SeSecUdpRecvCallback
                0x000000004016d225                SeSecSendIkeSaDeleteMsg
                0x000000004016d2c2                SeSecFreeIkeSa
                0x000000004016d47b                SeSecFreeSaList
                0x000000004016d4f4                SeSecFreeMain
                0x000000004016d504                SeSecFree
                0x000000004016d533                SeSecDeleteExpiredIkeSa
                0x000000004016d696                SeSecStartVpnConnect
                0x000000004016dcca                SeSecProcessMain
                0x000000004016ddbc                SeSecTimerCallback
                0x000000004016ddcf                SeSecInitMain
                0x000000004016ddf4                SeSecInit
                0x000000004016df28                SeSecSendEsp
                0x000000004016df61                SeSecVirtualIpRecvCallback
                0x000000004016e16a                SeSecSendVirtualIp
                0x000000004016e192                SeSecEspRecvCallback
                0x000000004016e340                SeMakeCharArray
                0x000000004016e374                SeFreeToken
                0x000000004016e3c2                SeNullTokenList
                0x000000004016e3f6                SeDefaultTokenSplitChars
                0x000000004016e401                Se4BitToHex
                0x000000004016e416                SeHexTo4Bit
                0x000000004016e452                SeStrCmp
                0x000000004016e4e6                SeStrnCmp
                0x000000004016e5b3                SeToUpper
                0x000000004016e5c7                SeStrnCmpi
                0x000000004016e692                SeStrCmpi
                0x000000004016e742                SeToLower
                0x000000004016e756                SeStrCheckLen
                0x000000004016e792                SeStrCheckSize
                0x000000004016e7b0                SeStrLen
                0x000000004016e7d7                SeStrSize
                0x000000004016e7ef                SeStrCpy
                0x000000004016e8ba                SeStrCat
                0x000000004016e95c                SeStrUpper
                0x000000004016e99c                SeStrLower
                0x000000004016e9dc                SeToInt64
                0x000000004016ea32                SeToInt
                0x000000004016ea80                SeToStr64
                0x000000004016eb47                SeToStr
                0x000000004016ec01                SeToHex
                0x000000004016ecb5                SeToHex64
                0x000000004016ed69                SeHexToInt
                0x000000004016edf1                SeHexToInt64
                0x000000004016ee7b                SeTrimLeft
                0x000000004016ef28                SeTrimRight
                0x000000004016f03a                SeTrim
                0x000000004016f05f                SeCopyStr
                0x000000004016f0b4                SeTrimCopy
                0x000000004016f0e1                SeUniqueToken
                0x000000004016f23b                SeSearchStrEx
                0x000000004016f38f                SeSearchStri
                0x000000004016f39f                SeSearchStr
                0x000000004016f3af                SeCalcReplaceStrEx
                0x000000004016f46a                SeReplaceStrEx
                0x000000004016f5bf                SeReplaceStr
                0x000000004016f5d0                SeReplaceStri
                0x000000004016f5e1                SeTrimCrlf
                0x000000004016f628                SeStartWith
                0x000000004016f6ce                SeEndWith
                0x000000004016f737                SeIsEmptyStr
                0x000000004016f781                SeNormalizeCrlf
                0x000000004016f814                SeIsCharInStr
                0x000000004016f86c                SeParseToken
                0x000000004016fa07                SeParseTokenWithNullStr
                0x000000004016fb64                SeToStr3
                0x000000004016fcb2                SeIsAllUpperStr
                0x000000004016fd24                SeIsAllLowerStr
                0x000000004016fd96                SeFormatEx
                0x00000000401702a9                SeFormatArgs
                0x0000000040170309                SeFormat
                0x000000004017033f                SeBinToStr
                0x00000000401703e6                SeBinToStrEx
                0x000000004017048f                SeMacToStr
                0x00000000401704e0                SeStrToBin
                0x00000000401705cf                SeStrToBinEx
                0x0000000040170642                SeStrToMac
                0x0000000040170655                SeReadNextLine
                0x0000000040170720                SeVpnRecvIpV6PacketCallback
                0x0000000040170770                SeVpnRecvIpV4PacketCallback
                0x00000000401707c0                SeVpnInitIpStack
                0x0000000040170b22                SeVpnFreeIpStack
                0x0000000040170bc2                SeVpnMainInit
                0x0000000040170cdb                SeVpnMainFree
                0x0000000040170cff                SeVpnRecvEtherPacket
                0x0000000040170d66                SeVpnSendEtherPacket
                0x0000000040170d8b                SeVpnMainProcRecvEtherPacket
                0x0000000040170e3a                SeVpnStatusChanged
                0x0000000040170e4c                SeVpnMainProcess
                0x0000000040170f4a                SeVpnMainHandler
                0x0000000040170f97                SeVpnEthRecvCallback
                0x0000000040170faf                SeVpnTimerCallback
                0x0000000040170fc7                SeVpnTick
                0x0000000040170fdb                SeVpnAddTimer
                0x0000000040170fef                SeVpnDoInterval
                0x000000004017105f                SeVpnFreeConfig
                0x000000004017106f                SeVpnFree
                0x00000000401710c0                SeVpnLoadConfig
                0x000000004017241e                SeVpnInit
                0x0000000040172540                SeVpn4ClientSetTimerCallback
                0x0000000040172553                SeVpn4ClientSetRecvUdpCallback
                0x0000000040172566                SeVpn4ClientSetRecvEspCallback
                0x0000000040172579                SeVpn4ClientSetRecvVirtualIpCallback
                0x000000004017258c                SeVpn4ClientSendVirtualIp
                0x00000000401725cb                SeVpn4ClientSendEsp
                0x000000004017264b                SeVpn4ClientSendUdp
                0x00000000401726d6                SeVpn4IPsecSendPing
                0x000000004017281e                SeVpn4IPsecInputFromPhysical
                0x00000000401728e9                SeVpn4IPsecInputFromVirtual
                0x000000004017295d                SeVpn4FreeIPsec
                0x0000000040172971                SeVpn4InitSecConfig
                0x0000000040172b52                SeVpn4InitIPsec
                0x0000000040172c23                SeVpn4DoInterval
                0x0000000040172c3b                SeVpn4Tick
                0x0000000040172c53                SeVpn4ClientGetTick
                0x0000000040172c68                SeVpn4IPsecMainProc
                0x0000000040172cf0                SeVpn4MainProc
                0x0000000040172d0b                SeVpn4SetTimer
                0x0000000040172d1e                SeVpn4ClientAddTimer
                0x0000000040172d36                SeVpn4DhcpSendResponse
                0x0000000040172e4b                SeVpn4DhcpOptionsToBuf
                0x0000000040172f09                SeVpn4NewDhcpOption
                0x0000000040172f70                SeVpn4DhcpBuildDhcpOptionList
                0x000000004017314e                SeVpn4DhcpSearchOption
                0x000000004017318a                SeVpn4DhcpFreeOptionList
                0x00000000401731e0                SeVpn4DhcpParseOptionListMain
                0x00000000401732ce                SeVpn4DhcpParseOptionList
                0x00000000401733c1                SeVpn4DhcpServer
                0x000000004017368c                SeVpn4RecvPacketPhysical
                0x0000000040173761                SeVpn4RecvPacketVirtual
                0x00000000401738c3                SeVpn4Init
                0x0000000040173928                SeVpn4Free
                0x0000000040173960                SeVpn6ClientSetTimerCallback
                0x0000000040173973                SeVpn6ClientSetRecvUdpCallback
                0x0000000040173986                SeVpn6ClientSetRecvEspCallback
                0x0000000040173999                SeVpn6ClientSetRecvVirtualIpCallback
                0x00000000401739ac                SeVpn6ClientSendVirtualIp
                0x00000000401739eb                SeVpn6ClientSendEsp
                0x0000000040173a8b                SeVpn6ClientSendUdp
                0x0000000040173b40                SeVpn6IPsecSendPing
                0x0000000040173d26                SeVpn6UpdateGuestOsIpAddress
                0x0000000040173dfa                SeVpn6IPsecInputFromPhysical
                0x0000000040173ec5                SeVpn6IPsecInputFromVirtual
                0x0000000040173ef9                SeVpn6InitSecConfig
                0x00000000401740eb                SeVpn6InitIPsec
                0x00000000401741cc                SeVpn6FreeIPsec
                0x00000000401741e0                SeVpn6DoInterval
                0x00000000401741f8                SeVpn6Tick
                0x0000000040174210                SeVpn6ClientGetTick
                0x0000000040174225                SeVpn6IPsecMainProc
                0x00000000401742b5                SeVpn6MainProc
                0x00000000401742d0                SeVpn6SetTimer
                0x00000000401742e3                SeVpn6ClientAddTimer
                0x00000000401742fb                SeVpn6RecvPacketPhysical
                0x000000004017437d                SeVpn6RecvPacketVirtual
                0x00000000401744b4                SeVpn6Init
                0x000000004017452a                SeVpn6Free
                0x0000000040174560                crypt_sys_rsa_sign
                0x00000000401748f5                msg_usb_bulk_read
                0x0000000040174955                msg_usb_bulk_write
                0x00000000401749b5                msg_usb_claim_interface
                0x00000000401749fb                msg_usb_close
                0x0000000040174a55                msg_usb_control_msg
                0x0000000040174aca                msg_usb_find_busses
                0x0000000040174b08                msg_usb_find_devices
                0x0000000040174b46                msg_usb_get_busses
                0x0000000040174bad                msg_usb_get_string_simple
                0x0000000040174c09                msg_usb_init
                0x0000000040174c1e                msg_usb_open
                0x0000000040174c97                msg_usb_release_interface
                0x0000000040174cdd                msg_usb_reset
                0x0000000040174d20                IDMan_StReadSetData
                0x0000000040175405                idman_user_init
                0x0000000040175460                IDMan_IPIdPassListMalloc
                0x000000004017554b                IDMan_IPRetJudgment
                0x00000000401755c7                IDMan_IPFinalizeReader
                0x00000000401755e9                IDMan_IPFinalize
                0x000000004017563f                IDMan_IPInitialize
                0x0000000040175748                IDMan_IPInitializeReader
                0x0000000040175775                IDMan_getMemoryFree
                0x00000000401757bd                IDMan_PaddingParamChk
                0x0000000040175882                IDMan_CmPadding
                0x0000000040175a3e                IDMan_CmPadding2
                0x0000000040175bba                IDMan_IPgetCertPKCS
                0x00000000401762b2                IDMan_IPgetCertIdxPKCS
                0x0000000040176785                IDMan_IPCheckPKC
                0x00000000401769ae                IDMan_CheckCardStatus
                0x00000000401769e0                IDMan_IPgSParamChk
                0x0000000040176b10                IDMan_IPgIdxSParamChk
                0x0000000040176b48                IDMan_IPgetPrivateKey
                0x0000000040176d3b                IDMan_IPgetHash
                0x0000000040176e32                IDMan_IPCrSignature
                0x0000000040176f9a                IDMan_generateSignature
                0x00000000401770d4                IDMan_generateSignatureByIndex
                0x00000000401771fb                IDMan_EncryptByIndex
                0x0000000040177324                IDMan_IPgCParamChk
                0x0000000040177416                IDMan_getCertificate
                0x0000000040177738                IDMan_IPgCIndexParamChk
                0x0000000040177771                IDMan_getCertificateByIndex
                0x0000000040177b08                IDMan_getStaticPassword
                0x0000000040177e20                IDMan_IPuAPKCS11ParamChk
                0x0000000040177f21                IDMan_IPuAPKCS11IdxParamChk
                0x0000000040177f48                IDMan_IPgetCertPkeyPKCSx
                0x000000004017840b                IDMan_IPgetCertPkeyIdxPKCSx
                0x0000000040178834                IDMan_IPgetCertPkeyPKCSy
                0x0000000040178982                IDMan_IPCheckCrlPkcX
                0x0000000040178abf                IDMan_IPgetMakeRandData
                0x0000000040178b37                IDMan_IPMkRandHash
                0x0000000040178bf4                IDMan_IPgetPrivateKeyPKCSx
                0x0000000040178dc7                IDMan_IPSignatureVerify
                0x0000000040178f40                IDMan_userAuthPKCS11
                0x00000000401793c5                IDMan_userAuthPKCS11ByIndex
                0x0000000040179850                IDMan_IPvSParamChk
                0x00000000401799ce                IDMan_IPvSIdxParamChk
                0x0000000040179a31                IDMan_IPMkPublicKeyObj
                0x0000000040179b75                IDMan_IPCheckSignature
                0x0000000040179d2f                IDMan_verifySignature
                0x0000000040179f0c                IDMan_verifySignatureByIndex
                0x000000004017a0d0                CardEstablishContext
                0x000000004017a0e8                CardReleaseContext
                0x000000004017a119                CardListReaders
                0x000000004017a131                CardConnect
                0x000000004017a16f                CardDisconnect
                0x000000004017a18c                CardStatus
                0x000000004017a1dd                CardTransmit
                0x000000004017a219                SelectFileDF
                0x000000004017a30c                SelectFileEF
                0x000000004017a3f7                Verify
                0x000000004017a50b                InternalAuth
                0x000000004017a64f                ReadBinary
                0x000000004017ac3f                UpdateBinary
                0x000000004017ad69                GetICCardData
                0x000000004017b150                GetUlByTxt
                0x000000004017b18f                GetVerByTex
                0x000000004017b277                GetUlByByte
                0x000000004017b2bc                TransHex2Tex
                0x000000004017b34f                TransTex2Hex
                0x000000004017b406                GetLength
                0x000000004017b473                SetLength
                0x000000004017b4d8                GetTlvByBuf
                0x000000004017b855                GetDirDataByTlv
                0x000000004017b97a                GetOdfDataByTlv
                0x000000004017baed                GetTokenDataByTlv
                0x000000004017bf53                AddObjTblByTlv
                0x000000004017c5f7                AddCertDataByBuf
                0x000000004017c6fd                AddIdPassDataByBuf
                0x000000004017ca9d                GetValueData
                0x000000004017ce40                AddElem
                0x000000004017cede                SetElem
                0x000000004017cfa5                GetElem
                0x000000004017cfe1                GetAttrValType
                0x000000004017d155                DestroyAttribute
                0x000000004017d19f                DestroyTlvData
                0x000000004017d1b4                DestroyElem
                0x000000004017d23a                DestroyList
                0x000000004017d277                DestroySessionData
                0x000000004017d2b5                DestroyTokenData
                0x000000004017d315                DestroySlotData
                0x000000004017d351                DelElem
                0x000000004017d3c0                C_GetFunctionList
                0x000000004017d3d2                C_Initialize
                0x000000004017d53f                C_Finalize
                0x000000004017d5da                C_GetInfo
                0x000000004017d660                C_GetSlotList
                0x000000004017df44                C_GetSlotInfo
                0x000000004017e02c                C_GetTokenInfo
                0x000000004017e863                C_GetMechanismList
                0x000000004017e934                C_GetMechanismInfo
                0x000000004017e9f0                C_OpenSession
                0x000000004017ebab                C_CloseSession
                0x000000004017ec84                C_CloseAllSessions
                0x000000004017ed90                C_GetSessionInfo
                0x000000004017ee0c                C_Login
                0x000000004017f263                C_Logout
                0x000000004017f37a                C_FindObjectsInit
                0x000000004017f5f1                C_FindObjects
                0x000000004017fb4a                C_FindObjectsFinal
                0x000000004017fbc0                C_GetAttributeValue
                0x000000004017fee1                C_SignInit
                0x000000004017ffa8                C_Sign
                0x000000004018032f                C_DigestInit
                0x00000000401803aa                C_DigestUpdate
                0x0000000040180432                C_DigestFinal
                0x0000000040180579                C_VerifyInit
                0x0000000040180640                C_Verify
                0x00000000401807b2                C_CreateObject
                0x0000000040180a5f                C_DestroyObject
                0x0000000040180b1f                C_SetAttributeValue
                0x0000000040181729                C_GetCardStatus
                0x00000000401817c0                IDMan_StFree
                0x00000000401817d0                IDMan_StMemcpy
                0x00000000401817f4                IDMan_StMemset
                0x0000000040181812                IDMan_StMalloc
                0x0000000040181859                IDMan_StMemcmp
                0x00000000401818b2                IDMan_StStrlen
                0x00000000401818cc                IDMan_StStrcat
                0x0000000040181909                IDMan_StStrchr
                0x0000000040181946                IDMan_StStrcpy
                0x000000004018196d                IDMan_StStrcmp
                0x00000000401819b8                StIsspace
                0x0000000040181a35                StIsdigit
                0x0000000040181a47                IDMan_StAtoi
                0x0000000040181aa3                IDMan_StAtol
                0x0000000040181b0b                IDMan_CmMkHash
                0x0000000040181cc6                IDMan_CmChgRSA
                0x0000000040181e8f                IDMan_CmGetDN
                0x0000000040182136                IDMan_CmGetCertificateSign
                0x0000000040182360                IDMan_CmGetPublicKey
                0x000000004018253c                IDMan_CmMakeRand
                0x00000000401825da                IDMan_CmCheckCRL
                0x0000000040182960                IDMan_SCardEstablishContext
                0x000000004018297d                IDMan_SCardReleaseContext
                0x0000000040182988                IDMan_SCardListReaders
                0x00000000401829b8                IDMan_SCardConnect
                0x00000000401829e8                IDMan_SCardDisconnect
                0x00000000401829f3                IDMan_SCardStatus
                0x0000000040182a75                IDMan_SCardSizeLongToChar
                0x0000000040182ab6                IDMan_SCardSetBinay
                0x0000000040182e55                IDMan_SCardTransmit
                0x0000000040182ec0                EHDestroyEventHandler
                0x0000000040182f2d                EHInitEventHandler
                0x0000000040182fe3                EHStatusHandler
                0x0000000040183180                HPSearchHotPluggables
                0x00000000401834d0                PHGetProtocol
                0x00000000401838ab                PHSetProtocol
                0x0000000040183914                RFAddReader
                0x0000000040183a2f                RFRemoveReader
                0x0000000040183ae9                RFReaderInfoById
                0x0000000040183b19                RFCheckReaderEventState
                0x0000000040183b50                SCardEstablishContext
                0x0000000040183c40                SCardListReaders
                0x0000000040183ced                SCardConnect
                0x0000000040183f71                SCardDisconnect
                0x0000000040184122                SCardBeginTransaction
                0x0000000040184176                SCardEndTransaction
                0x000000004018433e                SCardStatus
                0x0000000040184549                SCardReleaseContext
                0x000000004018460f                SCardTransmit
                0x0000000040184860                SetATR
                0x0000000040184acd                GetIFSCData
                0x0000000040184b23                GetBWICWIData
                0x0000000040184bc1                IFDHCloseChannel
                0x0000000040184c4d                IFDHGetCapabilities
                0x0000000040184c8c                IFDHSetProtocolParameters
                0x000000004018538b                IFDHPowerICC
                0x000000004018558a                IFDHTransmitToICC
                0x000000004018584a                IFDHControl
                0x0000000040185963                IFDHICCPresence
                0x0000000040185a18                IFDHCreateChannel
                0x0000000040185acc                FindBaudRateTable
                0x0000000040185b0c                ExchangePPSData
                0x00000000401861f6                InitLeaderCardProtocol
                0x000000004018630f                T1XfrBlockTPDU
                0x000000004018697c                T1NegociateIFSD
                0x0000000040186ac4                CardStateConfirm
                0x0000000040186af9                GetCardStatus
                0x0000000040186bf0                PowerOn
                0x0000000040186db0                PowerOff
                0x0000000040186f18                CardMechanical
                0x0000000040187030                TransmitPPS
                0x00000000401871ca                TransmitCommand
                0x0000000040187297                ReceiveReply
                0x000000004018745c                BlockSendCardT1
                0x00000000401876b4                ReadDataT0
                0x0000000040187779                T0XfrBlockCHAR
                0x0000000040187cff                T0XfrBlockTPDU
                0x0000000040187d81                T1XfrBlockExtendedAPDU
                0x00000000401880fb                OpenUSB
                0x0000000040188495                WriteUSB
                0x00000000401884c6                ReadUSB
                0x0000000040188524                CloseUSB
                0x0000000040188594                AES_set_encrypt_key
                0x00000000401889a0                AES_set_decrypt_key
                0x0000000040188bc6                AES_encrypt
                0x000000004018907f                AES_decrypt
                0x0000000040189520                BIO_set
                0x00000000401895f5                BIO_new
                0x000000004018966e                BIO_free
                0x000000004018971d                BIO_vfree
                0x0000000040189728                BIO_clear_flags
                0x0000000040189733                BIO_test_flags
                0x000000004018973e                BIO_set_flags
                0x0000000040189747                BIO_get_callback
                0x0000000040189751                BIO_set_callback
                0x000000004018975b                BIO_set_callback_arg
                0x0000000040189765                BIO_get_callback_arg
                0x000000004018976f                BIO_method_name
                0x000000004018977c                BIO_method_type
                0x0000000040189787                BIO_read
                0x0000000040189882                BIO_write
                0x0000000040189986                BIO_puts
                0x0000000040189a78                BIO_gets
                0x0000000040189b68                BIO_indent
                0x0000000040189bad                BIO_ctrl
                0x0000000040189c83                BIO_ptr_ctrl
                0x0000000040189cae                BIO_int_ctrl
                0x0000000040189cc4                BIO_callback_ctrl
                0x0000000040189d90                BIO_ctrl_pending
                0x0000000040189daa                BIO_ctrl_wpending
                0x0000000040189dc4                BIO_push
                0x0000000040189e12                BIO_pop
                0x0000000040189e77                BIO_get_retry_BIO
                0x0000000040189ec6                BIO_get_retry_reason
                0x0000000040189ecf                BIO_find_type
                0x0000000040189f04                BIO_next
                0x0000000040189f1a                BIO_free_all
                0x0000000040189f48                BIO_dup_chain
                0x000000004018a037                BIO_copy_next_retry
                0x000000004018a064                BIO_get_ex_new_index
                0x000000004018a083                BIO_set_ex_data
                0x000000004018a092                BIO_get_ex_data
                0x000000004018a0a1                BIO_number_read
                0x000000004018a0b5                BIO_number_written
                0x000000004018a21f                BN_set_params
                0x000000004018a2b2                BN_get_params
                0x000000004018a2e7                BN_value_one
                0x000000004018a2f2                BN_options
                0x000000004018a334                BN_num_bits_word
                0x000000004018a38f                BN_num_bits
                0x000000004018a3b9                BN_clear_free
                0x000000004018a420                BN_free
                0x000000004018a469                BN_init
                0x000000004018a47e                BN_new
                0x000000004018a4f1                bn_expand2
                0x000000004018a549                BN_copy
                0x000000004018a637                BN_dup
                0x000000004018a68b                bn_dup_expand
                0x000000004018a70d                BN_swap
                0x000000004018a770                BN_clear
                0x000000004018a7a9                BN_get_word
                0x000000004018a7cb                BN_set_word
                0x000000004018a82e                BN_bin2bn
                0x000000004018a971                BN_bn2bin
                0x000000004018a9df                BN_ucmp
                0x000000004018aa2c                BN_cmp
                0x000000004018aae0                BN_set_bit
                0x000000004018aba5                BN_clear_bit
                0x000000004018ac23                BN_is_bit_set
                0x000000004018ac60                BN_mask_bits
                0x000000004018acfc                BN_set_negative
                0x000000004018ad1c                bn_cmp_words
                0x000000004018ad7e                bn_cmp_part_words
                0x000000004018ae10                BN_bn2hex
                0x000000004018aef6                BN_bn2dec
                0x000000004018b105                BN_hex2bn
                0x000000004018b2e2                BN_dec2bn
                0x000000004018b493                BN_asc2bn
                0x000000004018b503                BN_print
                0x000000004018b9e7                BN_pseudo_rand
                0x000000004018ba01                BN_rand
                0x000000004018ba1b                BN_bntest_rand
                0x000000004018ba35                BN_rand_range
                0x000000004018ba4b                BN_pseudo_rand_range
                0x000000004018ba70                BN_mod_word
                0x000000004018bac5                BN_div_word
                0x000000004018bbab                BN_sub_word
                0x000000004018bcaa                BN_add_word
                0x000000004018bd7d                BN_mul_word
                0x000000004018c264                BIO_s_mem
                0x000000004018c26f                BIO_new_mem_buf
                0x000000004018c2e8                BUF_MEM_new
                0x000000004018c34f                BUF_MEM_free
                0x000000004018c38f                BUF_MEM_grow
                0x000000004018c489                BUF_MEM_grow_clean
                0x000000004018c59f                BUF_memdup
                0x000000004018c614                BUF_strlcpy
                0x000000004018c678                BUF_strndup
                0x000000004018c6f7                BUF_strdup
                0x000000004018c723                BUF_strlcat
                0x000000004018c75d                BUF_reverse
                0x000000004018c7b4                OpenSSL_add_all_ciphers
                0x000000004018cc60                OpenSSL_add_all_digests
                0x000000004018cdd0                CRYPTO_get_new_lockid
                0x000000004018ce88                CRYPTO_num_locks
                0x000000004018ce93                CRYPTO_get_dynlock_create_callback
                0x000000004018cea0                CRYPTO_get_dynlock_lock_callback
                0x000000004018cead                CRYPTO_get_dynlock_destroy_callback
                0x000000004018ceba                CRYPTO_set_dynlock_create_callback
                0x000000004018cec7                CRYPTO_set_dynlock_lock_callback
                0x000000004018ced4                CRYPTO_set_dynlock_destroy_callback
                0x000000004018cee1                CRYPTO_get_locking_callback
                0x000000004018ceee                CRYPTO_get_add_lock_callback
                0x000000004018cefb                CRYPTO_set_locking_callback
                0x000000004018cf08                CRYPTO_set_add_lock_callback
                0x000000004018cf15                CRYPTO_THREADID_set_numeric
                0x000000004018cf48                CRYPTO_THREADID_set_pointer
                0x000000004018cf7e                CRYPTO_THREADID_set_callback
                0x000000004018cf9c                CRYPTO_THREADID_get_callback
                0x000000004018cfa9                CRYPTO_THREADID_current
                0x000000004018cff3                CRYPTO_THREADID_cmp
                0x000000004018d003                CRYPTO_THREADID_cpy
                0x000000004018d013                CRYPTO_THREADID_hash
                0x000000004018d01d                CRYPTO_get_id_callback
                0x000000004018d02a                CRYPTO_set_id_callback
                0x000000004018d037                CRYPTO_thread_id
                0x000000004018d050                CRYPTO_get_lock_name
                0x000000004018d0a3                OPENSSL_ia32cap_loc
                0x000000004018d0ae                OPENSSL_cpuid_setup
                0x000000004018d0b4                OPENSSL_showfatal
                0x000000004018d0ff                OPENSSL_isservice
                0x000000004018d10a                OpenSSLDie
                0x000000004018d12c                CRYPTO_lock
                0x000000004018d1c3                CRYPTO_add_lock
                0x000000004018d247                CRYPTO_get_dynlock_value
                0x000000004018d2e6                CRYPTO_destroy_dynlockid
                0x000000004018d3de                CRYPTO_get_new_dynlockid
                0x000000004018d5fa                OPENSSL_stderr
                0x000000004018d608                DES_encrypt1
                0x000000004018da16                DES_encrypt2
                0x000000004018dd21                DES_encrypt3
                0x000000004018de7e                DES_decrypt3
                0x000000004018dfde                DES_ncbc_encrypt
                0x000000004018e61b                DES_ede3_cbc_encrypt
                0x000000004018f076                DH_generate_key
                0x000000004018f086                DH_compute_key
                0x000000004018f096                DH_OpenSSL
                0x000000004018f0a4                DH_set_default_method
                0x000000004018f0b1                DH_get_default_method
                0x000000004018f0d4                DH_set_method
                0x000000004018f121                DH_new_method
                0x000000004018f237                DH_new
                0x000000004018f247                DH_free
                0x000000004018f327                DH_up_ref
                0x000000004018f354                DH_get_ex_new_index
                0x000000004018f373                DH_set_ex_data
                0x000000004018f382                DH_get_ex_data
                0x000000004018f391                DH_size
                0x000000004019009a                EVP_aes_128_cbc
                0x00000000401900a5                EVP_aes_128_cfb128
                0x00000000401900b0                EVP_aes_128_ofb
                0x00000000401900bb                EVP_aes_128_ecb
                0x00000000401900c6                EVP_aes_192_cbc
                0x00000000401900d1                EVP_aes_192_cfb128
                0x00000000401900dc                EVP_aes_192_ofb
                0x00000000401900e7                EVP_aes_192_ecb
                0x00000000401900f2                EVP_aes_256_cbc
                0x00000000401900fd                EVP_aes_256_cfb128
                0x0000000040190108                EVP_aes_256_ofb
                0x0000000040190113                EVP_aes_256_ecb
                0x000000004019011e                EVP_aes_128_cfb1
                0x0000000040190129                EVP_aes_192_cfb1
                0x0000000040190134                EVP_aes_256_cfb1
                0x000000004019013f                EVP_aes_128_cfb8
                0x000000004019014a                EVP_aes_192_cfb8
                0x0000000040190155                EVP_aes_256_cfb8
                0x0000000040190476                EVP_bf_cbc
                0x0000000040190481                EVP_bf_cfb64
                0x000000004019048c                EVP_bf_ofb
                0x0000000040190497                EVP_bf_ecb
                0x00000000401907ba                EVP_cast5_cbc
                0x00000000401907c5                EVP_cast5_cfb64
                0x00000000401907d0                EVP_cast5_ofb
                0x00000000401907db                EVP_cast5_ecb
                0x0000000040190d9b                EVP_des_cbc
                0x0000000040190da6                EVP_des_cfb64
                0x0000000040190db1                EVP_des_ofb
                0x0000000040190dbc                EVP_des_ecb
                0x0000000040190dc7                EVP_des_cfb1
                0x0000000040190dd2                EVP_des_cfb8
                0x0000000040191406                EVP_des_ede_cbc
                0x0000000040191411                EVP_des_ede_cfb64
                0x000000004019141c                EVP_des_ede_ofb
                0x0000000040191427                EVP_des_ede_ecb
                0x0000000040191432                EVP_des_ede3_cbc
                0x000000004019143d                EVP_des_ede3_cfb64
                0x0000000040191448                EVP_des_ede3_ofb
                0x0000000040191453                EVP_des_ede3_ecb
                0x000000004019145e                EVP_des_ede3_cfb1
                0x0000000040191469                EVP_des_ede3_cfb8
                0x0000000040191474                EVP_des_ede
                0x000000004019147f                EVP_des_ede3
                0x0000000040191807                EVP_idea_cbc
                0x0000000040191812                EVP_idea_cfb64
                0x000000004019181d                EVP_idea_ofb
                0x0000000040191828                EVP_idea_ecb
                0x0000000040191d6f                EVP_rc2_cbc
                0x0000000040191d7a                EVP_rc2_cfb64
                0x0000000040191d85                EVP_rc2_ofb
                0x0000000040191d90                EVP_rc2_ecb
                0x0000000040191d9b                EVP_rc2_64_cbc
                0x0000000040191da6                EVP_rc2_40_cbc
                0x0000000040191e09                EVP_rc4
                0x0000000040191e14                EVP_rc4_40
                0x0000000040191f8a                EVP_desx_cbc
                0x0000000040191f98                DES_ecb3_encrypt
                0x0000000040192068                DES_options
                0x00000000401920bc                DES_ecb_encrypt
                0x0000000040192884                ERR_get_implementation
                0x0000000040192896                ERR_set_implementation
                0x00000000401928ff                ERR_load_ERR_strings
                0x0000000040192a31                ERR_load_strings
                0x0000000040192a61                ERR_unload_strings
                0x0000000040192ab3                ERR_free_strings
                0x0000000040192ac8                ERR_get_string_table
                0x0000000040192ae1                ERR_get_err_state_table
                0x0000000040192afb                ERR_release_err_state_table
                0x0000000040192b20                ERR_lib_error_string
                0x0000000040192b60                ERR_func_error_string
                0x0000000040192ba0                ERR_reason_error_string
                0x0000000040192c0f                ERR_error_string_n
                0x0000000040192d87                ERR_error_string
                0x0000000040192db6                ERR_remove_thread_state
                0x0000000040192dfb                ERR_remove_state
                0x0000000040192e0b                ERR_get_state
                0x0000000040193103                ERR_peek_last_error_line_data
                0x0000000040193124                ERR_peek_last_error_line
                0x000000004019314b                ERR_peek_last_error
                0x0000000040193176                ERR_peek_error_line_data
                0x0000000040193197                ERR_peek_error_line
                0x00000000401931be                ERR_peek_error
                0x00000000401931e9                ERR_get_error_line_data
                0x000000004019320a                ERR_get_error_line
                0x0000000040193231                ERR_get_error
                0x000000004019325c                ERR_clear_error
                0x0000000040193317                ERR_put_error
                0x000000004019341f                ERR_get_next_error_library
                0x0000000040193434                ERR_set_error_data
                0x00000000401934b1                ERR_add_error_data
                0x00000000401935ee                ERR_set_mark
                0x0000000040193619                ERR_pop_to_mark
                0x00000000401936f0                ERR_load_crypto_strings
                0x000000004019378c                ASN1_TYPE_set_octetstring
                0x0000000040193804                ASN1_TYPE_get_octetstring
                0x0000000040193860                ASN1_TYPE_set_int_octetstring
                0x000000004019398d                ASN1_TYPE_get_int_octetstring
                0x0000000040193b80                EVP_CIPHER_CTX_init
                0x0000000040193b95                EVP_CIPHER_CTX_new
                0x0000000040193bcc                EVP_EncryptUpdate
                0x0000000040193d78                EVP_EncryptFinal_ex
                0x0000000040193e4c                EVP_EncryptFinal
                0x0000000040193e57                EVP_DecryptUpdate
                0x0000000040193f86                EVP_CipherUpdate
                0x0000000040193fa1                EVP_DecryptFinal_ex
                0x000000004019413c                EVP_DecryptFinal
                0x0000000040194147                EVP_CipherFinal
                0x0000000040194167                EVP_CipherFinal_ex
                0x0000000040194187                EVP_CIPHER_CTX_cleanup
                0x00000000401941f2                EVP_CIPHER_CTX_free
                0x0000000040194217                EVP_CIPHER_CTX_set_padding
                0x0000000040194238                EVP_CIPHER_CTX_ctrl
                0x00000000401942c8                EVP_CIPHER_CTX_set_key_length
                0x0000000040194329                EVP_CipherInit_ex
                0x000000004019457a                EVP_DecryptInit_ex
                0x000000004019458b                EVP_EncryptInit_ex
                0x000000004019459c                EVP_CipherInit
                0x0000000040194600                EVP_DecryptInit
                0x0000000040194611                EVP_EncryptInit
                0x0000000040194622                EVP_CIPHER_CTX_rand_key
                0x0000000040194658                EVP_CIPHER_CTX_copy
                0x0000000040194738                ERR_load_EVP_strings
                0x0000000040194770                EVP_CIPHER_param_to_asn1
                0x000000004019478b                EVP_CIPHER_asn1_to_param
                0x00000000401947a6                EVP_CIPHER_block_size
                0x00000000401947af                EVP_CIPHER_CTX_block_size
                0x00000000401947bb                EVP_Cipher
                0x00000000401947c9                EVP_CIPHER_CTX_cipher
                0x00000000401947d2                EVP_CIPHER_flags
                0x00000000401947dc                EVP_CIPHER_CTX_flags
                0x00000000401947e9                EVP_CIPHER_CTX_get_app_data
                0x00000000401947f3                EVP_CIPHER_CTX_set_app_data
                0x00000000401947fd                EVP_CIPHER_iv_length
                0x0000000040194806                EVP_CIPHER_CTX_iv_length
                0x0000000040194812                EVP_CIPHER_set_asn1_iv
                0x0000000040194874                EVP_CIPHER_get_asn1_iv
                0x000000004019490c                EVP_CIPHER_key_length
                0x0000000040194915                EVP_CIPHER_CTX_key_length
                0x000000004019491e                EVP_CIPHER_nid
                0x0000000040194926                EVP_CIPHER_type
                0x0000000040194a65                EVP_CIPHER_CTX_nid
                0x0000000040194a70                EVP_MD_block_size
                0x0000000040194a79                EVP_MD_type
                0x0000000040194a81                EVP_MD_pkey_type
                0x0000000040194a8a                EVP_MD_size
                0x0000000040194abc                EVP_MD_flags
                0x0000000040194ac6                EVP_MD_CTX_md
                0x0000000040194adb                EVP_MD_CTX_set_flags
                0x0000000040194ae8                EVP_MD_CTX_clear_flags
                0x0000000040194af7                EVP_MD_CTX_test_flags
                0x0000000040194b02                EVP_CIPHER_CTX_set_flags
                0x0000000040194b0f                EVP_CIPHER_CTX_clear_flags
                0x0000000040194b1e                EVP_CIPHER_CTX_test_flags
                0x0000000040194f39                CRYPTO_get_ex_data_implementation
                0x0000000040194f55                CRYPTO_set_ex_data_implementation
                0x0000000040194fbe                CRYPTO_ex_data_new_class
                0x0000000040194fdc                CRYPTO_cleanup_all_ex_data
                0x0000000040194ffb                CRYPTO_get_ex_new_index
                0x000000004019506a                CRYPTO_new_ex_data
                0x00000000401950b7                CRYPTO_dup_ex_data
                0x0000000040195104                CRYPTO_free_ex_data
                0x0000000040195151                CRYPTO_set_ex_data
                0x000000004019520a                CRYPTO_get_ex_data
                0x0000000040195704                idea_encrypt
                0x0000000040196048                idea_cbc_encrypt
                0x0000000040196670                idea_cfb64_encrypt
                0x0000000040196890                idea_options
                0x000000004019689b                idea_ecb_encrypt
                0x0000000040196954                idea_ofb64_encrypt
                0x0000000040196b8d                idea_set_encrypt_key
                0x0000000040196d16                idea_set_decrypt_key
                0x0000000040196f0d                lh_strhash
                0x0000000040196f80                lh_new
                0x00000000401970e1                lh_free
                0x000000004019714c                lh_insert
                0x00000000401972d8                lh_delete
                0x0000000040197404                lh_retrieve
                0x0000000040197447                lh_doall
                0x0000000040197465                lh_doall_arg
                0x0000000040197480                lh_num_items
                0x00000000401974c7                EVP_dss
                0x0000000040197507                EVP_dss1
                0x0000000040197547                EVP_ecdsa
                0x0000000040197587                EVP_md4
                0x00000000401975c7                EVP_md5
                0x0000000040197607                EVP_ripemd160
                0x0000000040197647                EVP_sha
                0x000000004019770b                EVP_sha1
                0x0000000040197716                EVP_sha224
                0x0000000040197721                EVP_sha256
                0x000000004019772c                EVP_sha384
                0x0000000040197737                EVP_sha512
                0x0000000040197744                MD4_Init
                0x0000000040197786                md4_block_data_order
                0x0000000040197d49                MD4_Final
                0x0000000040197e16                MD4_Transform
                0x0000000040197e26                MD4_Update
                0x0000000040197f68                MD5_Init
                0x0000000040197faa                md5_block_data_order
                0x00000000401987ea                MD5_Final
                0x00000000401988b7                MD5_Transform
                0x00000000401988c7                MD5_Update
                0x0000000040198a08                MD5
                0x0000000040198aa4                CRYPTO_set_mem_functions
                0x0000000040198b14                CRYPTO_set_mem_ex_functions
                0x0000000040198b84                CRYPTO_set_locked_mem_functions
                0x0000000040198bc4                CRYPTO_set_locked_mem_ex_functions
                0x0000000040198c04                CRYPTO_set_mem_debug_functions
                0x0000000040198c3d                CRYPTO_get_mem_functions
                0x0000000040198c92                CRYPTO_get_mem_ex_functions
                0x0000000040198ce3                CRYPTO_get_locked_mem_functions
                0x0000000040198d18                CRYPTO_get_locked_mem_ex_functions
                0x0000000040198d4b                CRYPTO_get_mem_debug_functions
                0x0000000040198d9c                CRYPTO_malloc_locked
                0x0000000040198e58                CRYPTO_free_locked
                0x0000000040198e9f                CRYPTO_malloc
                0x0000000040198f5b                CRYPTO_strdup
                0x0000000040198faa                CRYPTO_realloc
                0x0000000040199065                CRYPTO_realloc_clean
                0x0000000040199140                CRYPTO_free
                0x0000000040199187                CRYPTO_remalloc
                0x00000000401991b4                CRYPTO_set_mem_debug_options
                0x00000000401991c8                CRYPTO_get_mem_debug_options
                0x00000000401991e4                OPENSSL_cleanse
                0x000000004019965c                CRYPTO_mem_ctrl
                0x00000000401997e6                CRYPTO_is_mem_check_on
                0x0000000040199862                CRYPTO_dbg_set_options
                0x000000004019986f                CRYPTO_dbg_get_options
                0x000000004019987c                CRYPTO_push_info_
                0x000000004019995b                CRYPTO_pop_info
                0x000000004019999d                CRYPTO_remove_all_info
                0x00000000401999e0                CRYPTO_dbg_malloc
                0x0000000040199b7f                CRYPTO_dbg_free
                0x0000000040199bf4                CRYPTO_dbg_realloc
                0x0000000040199c94                CRYPTO_mem_leaks
                0x0000000040199db3                CRYPTO_mem_leaks_cb
                0x0000000040199e8e                EVP_add_cipher
                0x0000000040199eda                EVP_add_digest
                0x0000000040199f7b                EVP_get_cipherbyname
                0x0000000040199f8b                EVP_get_digestbyname
                0x0000000040199f9b                EVP_cleanup
                0x0000000040199fe1                EVP_CIPHER_do_all
                0x000000004019a006                EVP_CIPHER_do_all_sorted
                0x000000004019a02b                EVP_MD_do_all
                0x000000004019a050                EVP_MD_do_all_sorted
                0x000000004019a184                OBJ_NAME_init
                0x000000004019a1d1                OBJ_NAME_new_index
                0x000000004019a339                OBJ_NAME_get
                0x000000004019a3dc                OBJ_NAME_add
                0x000000004019a4c3                OBJ_NAME_remove
                0x000000004019a56e                OBJ_NAME_do_all
                0x000000004019a598                OBJ_NAME_do_all_sorted
                0x000000004019a63b                OBJ_NAME_cleanup
                0x000000004019a90a                check_defer
                0x000000004019a92b                OBJ_cleanup
                0x000000004019a99d                OBJ_new_nid
                0x000000004019a9b1                OBJ_add_object
                0x000000004019ab63                OBJ_nid2obj
                0x000000004019ac1f                OBJ_nid2sn
                0x000000004019acde                OBJ_nid2ln
                0x000000004019ad9e                OBJ_bsearch_ex_
                0x000000004019ae97                OBJ_bsearch_
                0x000000004019aea8                OBJ_sn2nid
                0x000000004019af24                OBJ_ln2nid
                0x000000004019afa0                OBJ_txt2obj
                0x000000004019b0a8                OBJ_obj2nid
                0x000000004019b130                OBJ_txt2nid
                0x000000004019b16d                OBJ_obj2txt
                0x000000004019b4c0                OBJ_create
                0x000000004019b5c5                OBJ_create_objects
                0x000000004019b718                ERR_load_OBJ_strings
                0x000000004019b750                OBJ_dup
                0x000000004019b92a                OBJ_cmp
                0x000000004019b948                ERR_load_OCSP_strings
                0x000000004019b980                DES_ede3_ofb64_encrypt
                0x000000004019bb50                DES_ofb64_encrypt
                0x000000004019be71                EVP_PKEY_bits
                0x000000004019be95                EVP_PKEY_size
                0x000000004019beb9                EVP_PKEY_save_parameters
                0x000000004019beeb                EVP_PKEY_missing_parameters
                0x000000004019bf0a                EVP_PKEY_copy_parameters
                0x000000004019bfaa                EVP_PKEY_cmp_parameters
                0x000000004019bfe0                EVP_PKEY_cmp
                0x000000004019c03b                EVP_PKEY_new
                0x000000004019c0c6                EVP_PKEY_set_type
                0x000000004019c0db                EVP_PKEY_set_type_str
                0x000000004019c0f0                EVP_PKEY_assign
                0x000000004019c12d                EVP_PKEY_get0
                0x000000004019c137                EVP_PKEY_set1_RSA
                0x000000004019c171                EVP_PKEY_get1_RSA
                0x000000004019c1bc                EVP_PKEY_set1_DSA
                0x000000004019c1f6                EVP_PKEY_get1_DSA
                0x000000004019c241                EVP_PKEY_set1_EC_KEY
                0x000000004019c27b                EVP_PKEY_get1_EC_KEY
                0x000000004019c2c9                EVP_PKEY_set1_DH
                0x000000004019c303                EVP_PKEY_get1_DH
                0x000000004019c34e                EVP_PKEY_type
                0x000000004019c371                EVP_PKEY_id
                0x000000004019c379                EVP_PKEY_base_id
                0x000000004019c386                EVP_PKEY_free
                0x000000004019c3e3                EVP_PKEY_print_public
                0x000000004019c409                EVP_PKEY_print_private
                0x000000004019c431                EVP_PKEY_print_params
                0x000000004019c45a                EVP_PKEY_get_default_digest_nid
                0x000000004019c494                PEM_read_bio_X509_REQ
                0x000000004019c4b5                PEM_write_bio_X509_REQ
                0x000000004019c4f9                PEM_write_bio_X509_REQ_NEW
                0x000000004019c53d                PEM_read_bio_X509_CRL
                0x000000004019c55e                PEM_write_bio_X509_CRL
                0x000000004019c5a2                PEM_read_bio_PKCS7
                0x000000004019c5c3                PEM_write_bio_PKCS7
                0x000000004019c607                PEM_read_bio_NETSCAPE_CERT_SEQUENCE
                0x000000004019c628                PEM_write_bio_NETSCAPE_CERT_SEQUENCE
                0x000000004019c66c                PEM_read_bio_RSAPrivateKey
                0x000000004019c6d5                PEM_write_bio_RSAPrivateKey
                0x000000004019c70c                PEM_read_bio_RSAPublicKey
                0x000000004019c72d                PEM_write_bio_RSAPublicKey
                0x000000004019c771                PEM_read_bio_RSA_PUBKEY
                0x000000004019c792                PEM_write_bio_RSA_PUBKEY
                0x000000004019c7d6                PEM_read_bio_DSAPrivateKey
                0x000000004019c83f                PEM_write_bio_DSAPrivateKey
                0x000000004019c876                PEM_read_bio_DSA_PUBKEY
                0x000000004019c897                PEM_write_bio_DSA_PUBKEY
                0x000000004019c8db                PEM_read_bio_DSAparams
                0x000000004019c8fc                PEM_write_bio_DSAparams
                0x000000004019c940                PEM_read_bio_ECPrivateKey
                0x000000004019c9a9                PEM_read_bio_ECPKParameters
                0x000000004019c9ca                PEM_write_bio_ECPKParameters
                0x000000004019ca0e                PEM_write_bio_ECPrivateKey
                0x000000004019ca45                PEM_read_bio_EC_PUBKEY
                0x000000004019ca66                PEM_write_bio_EC_PUBKEY
                0x000000004019caaa                PEM_read_bio_DHparams
                0x000000004019cacb                PEM_write_bio_DHparams
                0x000000004019cb0f                PEM_read_bio_PUBKEY
                0x000000004019cb30                PEM_write_bio_PUBKEY
                0x000000004019cb74                ERR_load_PEM_strings
                0x000000004019cbb0                PEM_def_callback
                0x000000004019cbda                PEM_proc_type
                0x000000004019cc42                PEM_dek_info
                0x000000004019cd01                PEM_do_header
                0x000000004019ceda                PEM_get_EVP_CIPHER_INFO
                0x000000004019d179                PEM_write_bio
                0x000000004019d448                PEM_ASN1_write_bio
                0x000000004019d863                PEM_read_bio
                0x000000004019df4c                pem_check_suffix
                0x000000004019dfc1                PEM_bytes_read_bio
                0x000000004019e30c                PEM_ASN1_read_bio
                0x000000004019e3b8                PEM_read_bio_PrivateKey
                0x000000004019e614                PEM_write_bio_PrivateKey
                0x000000004019e6e0                PEM_read_bio_Parameters
                0x000000004019e802                PEM_write_bio_Parameters
                0x000000004019e884                PEM_read_bio_X509
                0x000000004019e8a5                PEM_write_bio_X509
                0x000000004019e8ec                ERR_load_PKCS12_strings
                0x000000004019e9fa                d2i_PKCS7
                0x000000004019ea0a                i2d_PKCS7
                0x000000004019ea1a                PKCS7_new
                0x000000004019ea2a                PKCS7_free
                0x000000004019ea3a                i2d_PKCS7_NDEF
                0x000000004019ea4a                PKCS7_dup
                0x000000004019ea5d                d2i_PKCS7_SIGNED
                0x000000004019ea6d                i2d_PKCS7_SIGNED
                0x000000004019ea7d                PKCS7_SIGNED_new
                0x000000004019ea8d                PKCS7_SIGNED_free
                0x000000004019ea9d                d2i_PKCS7_SIGNER_INFO
                0x000000004019eaad                i2d_PKCS7_SIGNER_INFO
                0x000000004019eabd                PKCS7_SIGNER_INFO_new
                0x000000004019eacd                PKCS7_SIGNER_INFO_free
                0x000000004019eadd                d2i_PKCS7_ISSUER_AND_SERIAL
                0x000000004019eaed                i2d_PKCS7_ISSUER_AND_SERIAL
                0x000000004019eafd                PKCS7_ISSUER_AND_SERIAL_new
                0x000000004019eb0d                PKCS7_ISSUER_AND_SERIAL_free
                0x000000004019eb1d                d2i_PKCS7_ENVELOPE
                0x000000004019eb2d                i2d_PKCS7_ENVELOPE
                0x000000004019eb3d                PKCS7_ENVELOPE_new
                0x000000004019eb4d                PKCS7_ENVELOPE_free
                0x000000004019eb5d                d2i_PKCS7_RECIP_INFO
                0x000000004019eb6d                i2d_PKCS7_RECIP_INFO
                0x000000004019eb7d                PKCS7_RECIP_INFO_new
                0x000000004019eb8d                PKCS7_RECIP_INFO_free
                0x000000004019eb9d                d2i_PKCS7_ENC_CONTENT
                0x000000004019ebad                i2d_PKCS7_ENC_CONTENT
                0x000000004019ebbd                PKCS7_ENC_CONTENT_new
                0x000000004019ebcd                PKCS7_ENC_CONTENT_free
                0x000000004019ebdd                d2i_PKCS7_SIGN_ENVELOPE
                0x000000004019ebed                i2d_PKCS7_SIGN_ENVELOPE
                0x000000004019ebfd                PKCS7_SIGN_ENVELOPE_new
                0x000000004019ec0d                PKCS7_SIGN_ENVELOPE_free
                0x000000004019ec1d                d2i_PKCS7_ENCRYPT
                0x000000004019ec2d                i2d_PKCS7_ENCRYPT
                0x000000004019ec3d                PKCS7_ENCRYPT_new
                0x000000004019ec4d                PKCS7_ENCRYPT_free
                0x000000004019ec5d                d2i_PKCS7_DIGEST
                0x000000004019ec6d                i2d_PKCS7_DIGEST
                0x000000004019ec7d                PKCS7_DIGEST_new
                0x000000004019ec8d                PKCS7_DIGEST_free
                0x000000004019ec9d                PKCS7_print_ctx
                0x000000004019f219                PKCS7_dataInit
                0x000000004019f8ee                PKCS7_dataDecode
                0x000000004019ff95                PKCS7_SIGNER_INFO_sign
                0x00000000401a015e                PKCS7_get_issuer_and_serial
                0x00000000401a01cd                PKCS7_get_signed_attribute
                0x00000000401a01dc                PKCS7_dataFinal
                0x00000000401a078e                PKCS7_get_attribute
                0x00000000401a079d                PKCS7_digest_from_attributes
                0x00000000401a07bd                PKCS7_signatureVerify
                0x00000000401a0ac4                PKCS7_dataVerify
                0x00000000401a0c42                PKCS7_set_signed_attributes
                0x00000000401a0cd5                PKCS7_set_attributes
                0x00000000401a0d68                PKCS7_add_signed_attribute
                0x00000000401a0d77                PKCS7_add_attribute
                0x00000000401a0d90                PKCS7_ctrl
                0x00000000401a0ecc                PKCS7_set_content
                0x00000000401a0f5d                PKCS7_set_type
                0x00000000401a116e                PKCS7_content_new
                0x00000000401a11da                PKCS7_set0_type_other
                0x00000000401a120e                PKCS7_add_signer
                0x00000000401a136b                PKCS7_add_certificate
                0x00000000401a144c                PKCS7_add_crl
                0x00000000401a152c                PKCS7_SIGNER_INFO_set
                0x00000000401a169c                PKCS7_add_signature
                0x00000000401a1770                PKCS7_set_digest
                0x00000000401a183c                PKCS7_get_signer_info
                0x00000000401a1885                PKCS7_SIGNER_INFO_get0_algs
                0x00000000401a18af                PKCS7_RECIP_INFO_get0_alg
                0x00000000401a18c1                PKCS7_add_recipient_info
                0x00000000401a1930                PKCS7_RECIP_INFO_set
                0x00000000401a1abb                PKCS7_add_recipient
                0x00000000401a1b20                PKCS7_cert_from_signer_info
                0x00000000401a1b72                PKCS7_set_cipher
                0x00000000401a1c0c                PKCS7_stream
                0x00000000401a1cd8                ERR_load_PKCS7_strings
                0x00000000401a1d10                ERR_load_RAND_strings
                0x00000000401a1d48                DES_random_key
                0x00000000401a1d90                RAND_set_rand_method
                0x00000000401a1da2                RAND_get_rand_method
                0x00000000401a1dc5                RAND_cleanup
                0x00000000401a1dea                RAND_seed
                0x00000000401a1e22                RAND_add
                0x00000000401a1e6b                RAND_bytes
                0x00000000401a1eb2                RAND_pseudo_bytes
                0x00000000401a1ef9                RAND_status
                0x00000000401a1f1c                RC2_encrypt
                0x00000000401a207a                RC2_decrypt
                0x00000000401a21e0                RC2_cbc_encrypt
                0x00000000401a2808                RC2_ecb_encrypt
                0x00000000401a28d0                RC2_set_key
                0x00000000401a2a00                RC2_cfb64_encrypt
                0x00000000401a2c14                RC2_ofb64_encrypt
                0x00000000401a2dc8                RC4
                0x00000000401a3264                RC4_options
                0x00000000401a326f                RC4_set_key
                0x00000000401a3374                RIPEMD160_Init
                0x00000000401a33bd                ripemd160_block_data_order
                0x00000000401a4a12                RIPEMD160_Final
                0x00000000401a4ae7                RIPEMD160_Transform
                0x00000000401a4af7                RIPEMD160_Update
                0x00000000401a4c82                d2i_RSAPrivateKey
                0x00000000401a4c92                i2d_RSAPrivateKey
                0x00000000401a4ca2                d2i_RSAPublicKey
                0x00000000401a4cb2                i2d_RSAPublicKey
                0x00000000401a4cc2                RSAPublicKey_dup
                0x00000000401a4cd5                RSAPrivateKey_dup
                0x00000000401a4cf0                RSA_generate_key
                0x00000000401a4db0                ERR_load_RSA_strings
                0x00000000401a4df0                RSA_generate_key_ex
                0x00000000401a53c0                RSA_set_default_method
                0x00000000401a53cd                RSA_get_default_method
                0x00000000401a53f0                RSA_get_method
                0x00000000401a53fa                RSA_set_method
                0x00000000401a5441                RSA_new_method
                0x00000000401a558d                RSA_new
                0x00000000401a559d                RSA_free
                0x00000000401a56ad                RSA_up_ref
                0x00000000401a56da                RSA_get_ex_new_index
                0x00000000401a56f9                RSA_set_ex_data
                0x00000000401a5708                RSA_get_ex_data
                0x00000000401a5717                RSA_size
                0x00000000401a5732                RSA_public_encrypt
                0x00000000401a573f                RSA_private_encrypt
                0x00000000401a574c                RSA_private_decrypt
                0x00000000401a5759                RSA_public_decrypt
                0x00000000401a5766                RSA_flags
                0x00000000401a577d                RSA_blinding_off
                0x00000000401a57b7                RSA_setup_blinding
                0x00000000401a5a60                RSA_blinding_on
                0x00000000401a5abe                RSA_memory_lock
                0x00000000401a5c10                RSA_sign
                0x00000000401a5e75                int_rsa_verify
                0x00000000401a620f                RSA_verify
                0x00000000401a6250                DES_set_odd_parity
                0x00000000401a6273                DES_check_key_parity
                0x00000000401a62b4                DES_is_weak_key
                0x00000000401a6303                DES_set_key_unchecked
                0x00000000401a65a7                DES_set_key_checked
                0x00000000401a65f8                DES_set_key
                0x00000000401a661c                DES_key_sched
                0x00000000401a6628                SHA1
                0x00000000401a77db                SHA1_Update
                0x00000000401a791a                SHA1_Transform
                0x00000000401a792a                SHA1_Final
                0x00000000401a7a0d                SHA1_Init
                0x00000000401a9270                SHA224_Init
                0x00000000401a92d5                SHA256_Init
                0x00000000401a933a                SHA256_Update
                0x00000000401a9479                SHA224_Update
                0x00000000401a9484                SHA256_Transform
                0x00000000401a9494                SHA256_Final
                0x00000000401a95be                SHA224_Final
                0x00000000401a95c9                SHA256
                0x00000000401a9644                SHA224
                0x00000000401aaeb5                SHA384_Init
                0x00000000401aaf53                SHA512_Init
                0x00000000401aaff1                SHA512_Final
                0x00000000401ab256                SHA384_Final
                0x00000000401ab261                SHA512_Update
                0x00000000401ab371                SHA384_Update
                0x00000000401ab37c                SHA512_Transform
                0x00000000401ab38c                SHA384
                0x00000000401ab407                SHA512
                0x00000000401ac457                SHA_Update
                0x00000000401ac596                SHA_Transform
                0x00000000401ac5a6                SHA_Final
                0x00000000401ac689                SHA_Init
                0x00000000401ac6e0                sk_set_cmp_func
                0x00000000401ac6fa                sk_new
                0x00000000401ac797                sk_new_null
                0x00000000401ac7a7                sk_insert
                0x00000000401ac862                sk_delete
                0x00000000401ac8be                sk_delete_ptr
                0x00000000401ac904                sk_push
                0x00000000401ac911                sk_unshift
                0x00000000401ac921                sk_shift
                0x00000000401ac947                sk_pop
                0x00000000401ac96c                sk_zero
                0x00000000401ac9a1                sk_free
                0x00000000401ac9cf                sk_pop_free
                0x00000000401aca21                sk_dup
                0x00000000401acaa7                sk_num
                0x00000000401acabb                sk_value
                0x00000000401acaea                sk_set
                0x00000000401acb1e                sk_sort
                0x00000000401acbfc                sk_find_ex
                0x00000000401acc0c                sk_find
                0x00000000401acc1c                sk_is_sorted
                0x00000000401ad0c2                ASN1_tag2bit
                0x00000000401ad0dd                asn1_ex_c2i
                0x00000000401ad92d                ASN1_item_ex_d2i
                0x00000000401ae80a                ASN1_template_d2i
                0x00000000401ae827                ASN1_item_d2i
                0x00000000401ae8d1                asn1_ex_i2c
                0x00000000401aeb9a                ASN1_item_ex_i2d
                0x00000000401af3f9                ASN1_template_i2d
                0x00000000401af4d5                ASN1_item_i2d
                0x00000000401af4e5                ASN1_item_ndef_i2d
                0x00000000401af500                ASN1_primitive_free
                0x00000000401af826                ASN1_template_free
                0x00000000401af8aa                ASN1_item_ex_free
                0x00000000401af8ba                ASN1_item_free
                0x00000000401af9a2                ASN1_primitive_new
                0x00000000401afdcc                ASN1_template_new
                0x00000000401afe59                ASN1_item_ex_new
                0x00000000401afe69                ASN1_item_new
                0x00000000401afe98                d2i_ASN1_INTEGER
                0x00000000401afea8                i2d_ASN1_INTEGER
                0x00000000401afeb8                ASN1_INTEGER_new
                0x00000000401afec8                ASN1_INTEGER_free
                0x00000000401afed8                d2i_ASN1_ENUMERATED
                0x00000000401afee8                i2d_ASN1_ENUMERATED
                0x00000000401afef8                ASN1_ENUMERATED_new
                0x00000000401aff08                ASN1_ENUMERATED_free
                0x00000000401aff18                d2i_ASN1_BIT_STRING
                0x00000000401aff28                i2d_ASN1_BIT_STRING
                0x00000000401aff38                ASN1_BIT_STRING_new
                0x00000000401aff48                ASN1_BIT_STRING_free
                0x00000000401aff58                d2i_ASN1_OCTET_STRING
                0x00000000401aff68                i2d_ASN1_OCTET_STRING
                0x00000000401aff78                ASN1_OCTET_STRING_new
                0x00000000401aff88                ASN1_OCTET_STRING_free
                0x00000000401aff98                d2i_ASN1_NULL
                0x00000000401affa8                i2d_ASN1_NULL
                0x00000000401affb8                ASN1_NULL_new
                0x00000000401affc8                ASN1_NULL_free
                0x00000000401affd8                d2i_ASN1_UTF8STRING
                0x00000000401affe8                i2d_ASN1_UTF8STRING
                0x00000000401afff8                ASN1_UTF8STRING_new
                0x00000000401b0008                ASN1_UTF8STRING_free
                0x00000000401b0018                d2i_ASN1_PRINTABLESTRING
                0x00000000401b0028                i2d_ASN1_PRINTABLESTRING
                0x00000000401b0038                ASN1_PRINTABLESTRING_new
                0x00000000401b0048                ASN1_PRINTABLESTRING_free
                0x00000000401b0058                d2i_ASN1_T61STRING
                0x00000000401b0068                i2d_ASN1_T61STRING
                0x00000000401b0078                ASN1_T61STRING_new
                0x00000000401b0088                ASN1_T61STRING_free
                0x00000000401b0098                d2i_ASN1_IA5STRING
                0x00000000401b00a8                i2d_ASN1_IA5STRING
                0x00000000401b00b8                ASN1_IA5STRING_new
                0x00000000401b00c8                ASN1_IA5STRING_free
                0x00000000401b00d8                d2i_ASN1_GENERALSTRING
                0x00000000401b00e8                i2d_ASN1_GENERALSTRING
                0x00000000401b00f8                ASN1_GENERALSTRING_new
                0x00000000401b0108                ASN1_GENERALSTRING_free
                0x00000000401b0118                d2i_ASN1_UTCTIME
                0x00000000401b0128                i2d_ASN1_UTCTIME
                0x00000000401b0138                ASN1_UTCTIME_new
                0x00000000401b0148                ASN1_UTCTIME_free
                0x00000000401b0158                d2i_ASN1_GENERALIZEDTIME
                0x00000000401b0168                i2d_ASN1_GENERALIZEDTIME
                0x00000000401b0178                ASN1_GENERALIZEDTIME_new
                0x00000000401b0188                ASN1_GENERALIZEDTIME_free
                0x00000000401b0198                d2i_ASN1_VISIBLESTRING
                0x00000000401b01a8                i2d_ASN1_VISIBLESTRING
                0x00000000401b01b8                ASN1_VISIBLESTRING_new
                0x00000000401b01c8                ASN1_VISIBLESTRING_free
                0x00000000401b01d8                d2i_ASN1_UNIVERSALSTRING
                0x00000000401b01e8                i2d_ASN1_UNIVERSALSTRING
                0x00000000401b01f8                ASN1_UNIVERSALSTRING_new
                0x00000000401b0208                ASN1_UNIVERSALSTRING_free
                0x00000000401b0218                d2i_ASN1_BMPSTRING
                0x00000000401b0228                i2d_ASN1_BMPSTRING
                0x00000000401b0238                ASN1_BMPSTRING_new
                0x00000000401b0248                ASN1_BMPSTRING_free
                0x00000000401b0258                d2i_ASN1_TYPE
                0x00000000401b0268                i2d_ASN1_TYPE
                0x00000000401b0278                ASN1_TYPE_new
                0x00000000401b0288                ASN1_TYPE_free
                0x00000000401b0298                d2i_ASN1_PRINTABLE
                0x00000000401b02a8                i2d_ASN1_PRINTABLE
                0x00000000401b02b8                ASN1_PRINTABLE_new
                0x00000000401b02c8                ASN1_PRINTABLE_free
                0x00000000401b02d8                d2i_DISPLAYTEXT
                0x00000000401b02e8                i2d_DISPLAYTEXT
                0x00000000401b02f8                DISPLAYTEXT_new
                0x00000000401b0308                DISPLAYTEXT_free
                0x00000000401b0318                d2i_DIRECTORYSTRING
                0x00000000401b0328                i2d_DIRECTORYSTRING
                0x00000000401b0338                DIRECTORYSTRING_new
                0x00000000401b0348                DIRECTORYSTRING_free
                0x00000000401b0358                d2i_ASN1_SEQUENCE_ANY
                0x00000000401b0368                i2d_ASN1_SEQUENCE_ANY
                0x00000000401b0378                d2i_ASN1_SET_ANY
                0x00000000401b0388                i2d_ASN1_SET_ANY
                0x00000000401b03e3                asn1_get_choice_selector
                0x00000000401b03f3                asn1_set_choice_selector
                0x00000000401b0407                asn1_do_lock
                0x00000000401b0461                asn1_enc_init
                0x00000000401b0487                asn1_enc_free
                0x00000000401b04c7                asn1_enc_save
                0x00000000401b0551                asn1_enc_restore
                0x00000000401b05cb                asn1_get_field_ptr
                0x00000000401b05e3                asn1_do_adb
                0x00000000401b06a0                ERR_load_UI_strings
                0x00000000401b06d8                ERR_load_X509V3_strings
                0x00000000401b0710                X509_issuer_and_serial_hash
                0x00000000401b07df                X509_CRL_match
                0x00000000401b07f7                X509_get_issuer_name
                0x00000000401b0804                X509_get_subject_name
                0x00000000401b0811                X509_get_serialNumber
                0x00000000401b081e                X509_cmp
                0x00000000401b0878                X509_NAME_cmp
                0x00000000401b08f1                X509_CRL_cmp
                0x00000000401b090a                X509_subject_name_cmp
                0x00000000401b0923                X509_issuer_name_cmp
                0x00000000401b093c                X509_issuer_and_serial_cmp
                0x00000000401b097c                X509_NAME_hash
                0x00000000401b09e2                X509_subject_name_hash
                0x00000000401b09f4                X509_issuer_name_hash
                0x00000000401b0a06                X509_NAME_hash_old
                0x00000000401b0a6f                X509_subject_name_hash_old
                0x00000000401b0a81                X509_issuer_name_hash_old
                0x00000000401b0a93                X509_find_by_issuer_and_serial
                0x00000000401b0b16                X509_find_by_subject
                0x00000000401b0b73                X509_get_pubkey
                0x00000000401b0b9b                X509_get0_pubkey_bitstr
                0x00000000401b0bb8                X509_check_private_key
                0x00000000401b0c74                ERR_load_X509_strings
                0x00000000401b0cac                X509_NAME_oneline
                0x00000000401b14ea                X509_time_adj_ex
                0x00000000401b1537                X509_time_adj
                0x00000000401b154d                X509_gmtime_adj
                0x00000000401b155d                X509_cmp_time
                0x00000000401b2622                X509_cmp_current_time
                0x00000000401b2632                X509_get_pubkey_parameters
                0x00000000401b275e                X509_verify_cert
                0x00000000401b30f1                X509_STORE_CTX_get_ex_new_index
                0x00000000401b3110                X509_STORE_CTX_set_ex_data
                0x00000000401b3122                X509_STORE_CTX_get_ex_data
                0x00000000401b3134                X509_STORE_CTX_get_error
                0x00000000401b3140                X509_STORE_CTX_set_error
                0x00000000401b314c                X509_STORE_CTX_get_error_depth
                0x00000000401b3158                X509_STORE_CTX_get_current_cert
                0x00000000401b3165                X509_STORE_CTX_get_chain
                0x00000000401b3172                X509_STORE_CTX_get1_chain
                0x00000000401b31de                X509_STORE_CTX_get0_current_issuer
                0x00000000401b31eb                X509_STORE_CTX_get0_current_crl
                0x00000000401b31f8                X509_STORE_CTX_get0_parent_ctx
                0x00000000401b3205                X509_STORE_CTX_set_cert
                0x00000000401b320f                X509_STORE_CTX_set_chain
                0x00000000401b3219                X509_STORE_CTX_set0_crls
                0x00000000401b3223                X509_STORE_CTX_purpose_inherit
                0x00000000401b3350                X509_STORE_CTX_set_trust
                0x00000000401b3367                X509_STORE_CTX_set_purpose
                0x00000000401b337e                X509_STORE_CTX_new
                0x00000000401b33e0                X509_STORE_CTX_init
                0x00000000401b373f                X509_STORE_CTX_trusted_stack
                0x00000000401b3751                X509_STORE_CTX_cleanup
                0x00000000401b37f4                X509_STORE_CTX_free
                0x00000000401b3814                X509_STORE_CTX_set_depth
                0x00000000401b3823                X509_STORE_CTX_set_flags
                0x00000000401b3832                X509_STORE_CTX_set_time
                0x00000000401b3843                X509_STORE_CTX_set_verify_cb
                0x00000000401b384d                X509_STORE_CTX_get0_policy_tree
                0x00000000401b385a                X509_STORE_CTX_get_explicit_policy
                0x00000000401b3866                X509_STORE_CTX_set_default
                0x00000000401b3897                X509_STORE_CTX_get0_param
                0x00000000401b38a1                X509_STORE_CTX_set0_param
                0x00000000401b3c97                X509_VERIFY_PARAM_free
                0x00000000401b3cb7                X509_VERIFY_PARAM_new
                0x00000000401b3cfb                X509_VERIFY_PARAM_set1_name
                0x00000000401b3d3c                X509_VERIFY_PARAM_set_flags
                0x00000000401b3d60                X509_VERIFY_PARAM_clear_flags
                0x00000000401b3d72                X509_VERIFY_PARAM_get_flags
                0x00000000401b3d7c                X509_VERIFY_PARAM_set_purpose
                0x00000000401b3d8b                X509_VERIFY_PARAM_set_trust
                0x00000000401b3d9a                X509_VERIFY_PARAM_set_depth
                0x00000000401b3da3                X509_VERIFY_PARAM_set_time
                0x00000000401b3db1                X509_VERIFY_PARAM_add0_policy
                0x00000000401b3e02                X509_VERIFY_PARAM_set1_policies
                0x00000000401b3ec9                X509_VERIFY_PARAM_inherit
                0x00000000401b3fdf                X509_VERIFY_PARAM_set1
                0x00000000401b4014                X509_VERIFY_PARAM_get_depth
                0x00000000401b401d                X509_VERIFY_PARAM_add0_table
                0x00000000401b40a4                X509_VERIFY_PARAM_lookup
                0x00000000401b40fa                X509_VERIFY_PARAM_table_cleanup
                0x00000000401b4124                d2i_X509_ALGOR
                0x00000000401b4134                i2d_X509_ALGOR
                0x00000000401b4144                X509_ALGOR_new
                0x00000000401b4154                X509_ALGOR_free
                0x00000000401b4164                d2i_X509_ALGORS
                0x00000000401b4174                i2d_X509_ALGORS
                0x00000000401b4184                X509_ALGOR_dup
                0x00000000401b4197                X509_ALGOR_set0
                0x00000000401b4249                X509_ALGOR_get0
                0x00000000401b4284                X509_verify
                0x00000000401b42a5                X509_REQ_verify
                0x00000000401b42c6                NETSCAPE_SPKI_verify
                0x00000000401b42e7                X509_sign
                0x00000000401b4321                X509_REQ_sign
                0x00000000401b434f                X509_CRL_sign
                0x00000000401b4389                NETSCAPE_SPKI_sign
                0x00000000401b43b7                d2i_X509_bio
                0x00000000401b43cd                i2d_X509_bio
                0x00000000401b43e3                d2i_X509_CRL_bio
                0x00000000401b43f9                i2d_X509_CRL_bio
                0x00000000401b440f                d2i_PKCS7_bio
                0x00000000401b4425                i2d_PKCS7_bio
                0x00000000401b443b                d2i_X509_REQ_bio
                0x00000000401b4451                i2d_X509_REQ_bio
                0x00000000401b4467                d2i_RSAPrivateKey_bio
                0x00000000401b447d                i2d_RSAPrivateKey_bio
                0x00000000401b4493                d2i_RSAPublicKey_bio
                0x00000000401b44a9                d2i_RSA_PUBKEY_bio
                0x00000000401b44c4                i2d_RSAPublicKey_bio
                0x00000000401b44da                i2d_RSA_PUBKEY_bio
                0x00000000401b44f0                d2i_DSAPrivateKey_bio
                0x00000000401b450b                i2d_DSAPrivateKey_bio
                0x00000000401b4521                d2i_DSA_PUBKEY_bio
                0x00000000401b453c                i2d_DSA_PUBKEY_bio
                0x00000000401b4552                d2i_EC_PUBKEY_bio
                0x00000000401b456d                i2d_EC_PUBKEY_bio
                0x00000000401b4583                d2i_ECPrivateKey_bio
                0x00000000401b459e                i2d_ECPrivateKey_bio
                0x00000000401b45b4                X509_pubkey_digest
                0x00000000401b460c                X509_digest
                0x00000000401b4625                X509_CRL_digest
                0x00000000401b463e                X509_REQ_digest
                0x00000000401b4657                X509_NAME_digest
                0x00000000401b4670                PKCS7_ISSUER_AND_SERIAL_digest
                0x00000000401b4689                d2i_PKCS8_bio
                0x00000000401b46a4                i2d_PKCS8_bio
                0x00000000401b46ba                d2i_PKCS8_PRIV_KEY_INFO_bio
                0x00000000401b46d5                i2d_PKCS8_PRIV_KEY_INFO_bio
                0x00000000401b46eb                i2d_PKCS8PrivateKeyInfo_bio
                0x00000000401b473f                i2d_PrivateKey_bio
                0x00000000401b4755                d2i_PrivateKey_bio
                0x00000000401b4770                i2d_PUBKEY_bio
                0x00000000401b4786                d2i_PUBKEY_bio
                0x00000000401b47a4                d2i_X509_ATTRIBUTE
                0x00000000401b47b4                i2d_X509_ATTRIBUTE
                0x00000000401b47c4                X509_ATTRIBUTE_new
                0x00000000401b47d4                X509_ATTRIBUTE_free
                0x00000000401b47e4                X509_ATTRIBUTE_dup
                0x00000000401b47f7                X509_ATTRIBUTE_create
                0x00000000401b502e                d2i_X509_REVOKED
                0x00000000401b503e                i2d_X509_REVOKED
                0x00000000401b504e                X509_REVOKED_new
                0x00000000401b505e                X509_REVOKED_free
                0x00000000401b506e                d2i_X509_CRL_INFO
                0x00000000401b507e                i2d_X509_CRL_INFO
                0x00000000401b508e                X509_CRL_INFO_new
                0x00000000401b509e                X509_CRL_INFO_free
                0x00000000401b50ae                d2i_X509_CRL
                0x00000000401b50be                i2d_X509_CRL
                0x00000000401b50ce                X509_CRL_new
                0x00000000401b50de                X509_CRL_free
                0x00000000401b50ee                X509_CRL_dup
                0x00000000401b5101                X509_CRL_add0_revoked
                0x00000000401b5182                X509_CRL_verify
                0x00000000401b519c                X509_CRL_get0_by_serial
                0x00000000401b51bc                X509_CRL_get0_by_cert
                0x00000000401b522b                X509_CRL_set_default_method
                0x00000000401b5244                X509_CRL_METHOD_new
                0x00000000401b52a9                X509_CRL_METHOD_free
                0x00000000401b52b9                X509_CRL_set_meth_data
                0x00000000401b52c3                X509_CRL_get_meth_data
                0x00000000401b52d0                d2i_X509_EXTENSION
                0x00000000401b52e0                i2d_X509_EXTENSION
                0x00000000401b52f0                X509_EXTENSION_new
                0x00000000401b5300                X509_EXTENSION_free
                0x00000000401b5310                d2i_X509_EXTENSIONS
                0x00000000401b5320                i2d_X509_EXTENSIONS
                0x00000000401b5330                X509_EXTENSION_dup
                0x00000000401b56cd                X509_NAME_ENTRY_free
                0x00000000401b56dd                d2i_X509_NAME_ENTRY
                0x00000000401b56ed                i2d_X509_NAME_ENTRY
                0x00000000401b56fd                X509_NAME_ENTRY_new
                0x00000000401b5c2c                X509_NAME_ENTRY_dup
                0x00000000401b5c3f                d2i_X509_NAME
                0x00000000401b5c4f                i2d_X509_NAME
                0x00000000401b5c5f                X509_NAME_new
                0x00000000401b5c6f                X509_NAME_free
                0x00000000401b5e21                X509_NAME_dup
                0x00000000401b5e34                X509_NAME_set
                0x00000000401b5eac                d2i_X509_PUBKEY
                0x00000000401b5ebc                i2d_X509_PUBKEY
                0x00000000401b5ecc                X509_PUBKEY_new
                0x00000000401b5edc                X509_PUBKEY_free
                0x00000000401b5eec                X509_PUBKEY_set
                0x00000000401b5fdd                X509_PUBKEY_get
                0x00000000401b613c                d2i_PUBKEY
                0x00000000401b61a5                i2d_PUBKEY
                0x00000000401b61fd                d2i_RSA_PUBKEY
                0x00000000401b6282                i2d_RSA_PUBKEY
                0x00000000401b630f                d2i_DSA_PUBKEY
                0x00000000401b6394                i2d_DSA_PUBKEY
                0x00000000401b6421                d2i_EC_PUBKEY
                0x00000000401b64a6                i2d_EC_PUBKEY
                0x00000000401b6533                X509_PUBKEY_set0_param
                0x00000000401b65b0                X509_PUBKEY_get0_param
                0x00000000401b661b                d2i_X509_REQ_INFO
                0x00000000401b662b                i2d_X509_REQ_INFO
                0x00000000401b663b                X509_REQ_INFO_new
                0x00000000401b664b                X509_REQ_INFO_free
                0x00000000401b665b                d2i_X509_REQ
                0x00000000401b666b                i2d_X509_REQ
                0x00000000401b667b                X509_REQ_new
                0x00000000401b668b                X509_REQ_free
                0x00000000401b669b                X509_REQ_dup
                0x00000000401b66b0                d2i_X509_SIG
                0x00000000401b66c0                i2d_X509_SIG
                0x00000000401b66d0                X509_SIG_new
                0x00000000401b66e0                X509_SIG_free
                0x00000000401b66f0                d2i_NETSCAPE_SPKAC
                0x00000000401b6700                i2d_NETSCAPE_SPKAC
                0x00000000401b6710                NETSCAPE_SPKAC_new
                0x00000000401b6720                NETSCAPE_SPKAC_free
                0x00000000401b6730                d2i_NETSCAPE_SPKI
                0x00000000401b6740                i2d_NETSCAPE_SPKI
                0x00000000401b6750                NETSCAPE_SPKI_new
                0x00000000401b6760                NETSCAPE_SPKI_free
                0x00000000401b688c                d2i_X509_CINF
                0x00000000401b689c                i2d_X509_CINF
                0x00000000401b68ac                X509_CINF_new
                0x00000000401b68bc                X509_CINF_free
                0x00000000401b68cc                d2i_X509
                0x00000000401b68dc                i2d_X509
                0x00000000401b68ec                X509_new
                0x00000000401b68fc                X509_free
                0x00000000401b690c                X509_dup
                0x00000000401b691f                X509_get_ex_new_index
                0x00000000401b693e                X509_set_ex_data
                0x00000000401b694d                X509_get_ex_data
                0x00000000401b695c                d2i_X509_AUX
                0x00000000401b69cc                i2d_X509_AUX
                0x00000000401b6a18                d2i_X509_CERT_AUX
                0x00000000401b6a28                i2d_X509_CERT_AUX
                0x00000000401b6a38                X509_CERT_AUX_new
                0x00000000401b6a90                X509_CERT_AUX_free
                0x00000000401b6aa0                X509_alias_set1
                0x00000000401b6b48                X509_keyid_set1
                0x00000000401b6bf0                X509_alias_get0
                0x00000000401b6c31                X509_keyid_get0
                0x00000000401b6c72                X509_add1_trust_object
                0x00000000401b6cdf                X509_add1_reject_object
                0x00000000401b6d41                X509_trust_clear
                0x00000000401b6d80                X509_reject_clear
                0x00000000401b6dc1                d2i_X509_CERT_PAIR
                0x00000000401b6dd1                i2d_X509_CERT_PAIR
                0x00000000401b6de1                X509_CERT_PAIR_new
                0x00000000401b6df1                X509_CERT_PAIR_free
                0x00000000401b6e04                DES_xcbc_encrypt
                0x00000000401b757c                ERR_load_TS_strings
                0x00000000401b75b4                ERR_load_CMS_strings
                0x00000000401b7636                OBJ_find_sigid_algs
                0x00000000401b76be                OBJ_find_sigid_by_algs
                0x00000000401b7746                OBJ_add_sigid
                0x00000000401b7854                OBJ_sigid_free
                0x00000000401b78cb                EVP_whirlpool
                0x00000000401b78fb                EVP_PKEY_meth_find
                0x00000000401b7974                EVP_PKEY_meth_new
                0x00000000401b7a92                EVP_PKEY_meth_free
                0x00000000401b7aa8                EVP_PKEY_meth_add0
                0x00000000401b7b0b                EVP_PKEY_CTX_free
                0x00000000401b7b5a                EVP_PKEY_CTX_dup
                0x00000000401b7d90                EVP_PKEY_CTX_new_id
                0x00000000401b7da2                EVP_PKEY_CTX_new
                0x00000000401b7db2                EVP_PKEY_CTX_ctrl
                0x00000000401b7eaa                EVP_PKEY_CTX_ctrl_str
                0x00000000401b7f8f                EVP_PKEY_CTX_get_operation
                0x00000000401b7f98                EVP_PKEY_CTX_set0_keygen_info
                0x00000000401b7fa5                EVP_PKEY_CTX_set_data
                0x00000000401b7faf                EVP_PKEY_CTX_get_data
                0x00000000401b7fb9                EVP_PKEY_CTX_get0_pkey
                0x00000000401b7fc3                EVP_PKEY_CTX_get0_peerkey
                0x00000000401b7fcd                EVP_PKEY_CTX_set_app_data
                0x00000000401b7fd7                EVP_PKEY_CTX_get_app_data
                0x00000000401b7fe1                EVP_PKEY_meth_set_init
                0x00000000401b7feb                EVP_PKEY_meth_set_copy
                0x00000000401b7ff5                EVP_PKEY_meth_set_cleanup
                0x00000000401b7fff                EVP_PKEY_meth_set_paramgen
                0x00000000401b800d                EVP_PKEY_meth_set_keygen
                0x00000000401b801b                EVP_PKEY_meth_set_sign
                0x00000000401b8029                EVP_PKEY_meth_set_verify
                0x00000000401b8037                EVP_PKEY_meth_set_verify_recover
                0x00000000401b8045                EVP_PKEY_meth_set_signctx
                0x00000000401b8053                EVP_PKEY_meth_set_verifyctx
                0x00000000401b8067                EVP_PKEY_meth_set_encrypt
                0x00000000401b807b                EVP_PKEY_meth_set_decrypt
                0x00000000401b808f                EVP_PKEY_meth_set_derive
                0x00000000401b80a3                EVP_PKEY_meth_set_ctrl
                0x00000000401b80d3                EVP_PKEY_asn1_get_count
                0x00000000401b80f2                EVP_PKEY_asn1_get0
                0x00000000401b8122                EVP_PKEY_asn1_find
                0x00000000401b81c5                EVP_PKEY_asn1_find_str
                0x00000000401b824c                EVP_PKEY_asn1_add0
                0x00000000401b82af                EVP_PKEY_asn1_get0_info
                0x00000000401b8301                EVP_PKEY_get0_asn1
                0x00000000401b830b                EVP_PKEY_asn1_copy
                0x00000000401b83d3                EVP_PKEY_asn1_free
                0x00000000401b8415                EVP_PKEY_asn1_new
                0x00000000401b858a                EVP_PKEY_asn1_add_alias
                0x00000000401b85c7                EVP_PKEY_asn1_set_public
                0x00000000401b85e9                EVP_PKEY_asn1_set_private
                0x00000000401b85fb                EVP_PKEY_asn1_set_param
                0x00000000401b8626                EVP_PKEY_asn1_set_free
                0x00000000401b8633                EVP_PKEY_asn1_set_ctrl
                0x00000000401b8640                EVP_PKEY_sign_init
                0x00000000401b86af                EVP_PKEY_sign
                0x00000000401b87bb                EVP_PKEY_verify_init
                0x00000000401b882a                EVP_PKEY_verify
                0x00000000401b889a                EVP_PKEY_verify_recover_init
                0x00000000401b8909                EVP_PKEY_verify_recover
                0x00000000401b8a15                EVP_PKEY_encrypt_init
                0x00000000401b8a8a                EVP_PKEY_encrypt
                0x00000000401b8b9f                EVP_PKEY_decrypt_init
                0x00000000401b8c14                EVP_PKEY_decrypt
                0x00000000401b8d29                EVP_PKEY_derive_init
                0x00000000401b8d9e                EVP_PKEY_derive_set_peer
                0x00000000401b8f80                EVP_PKEY_derive
                0x00000000401b9196                ASN1_PCTX_new
                0x00000000401b920d                ASN1_PCTX_free
                0x00000000401b9218                ASN1_PCTX_get_flags
                0x00000000401b9221                ASN1_PCTX_set_flags
                0x00000000401b922a                ASN1_PCTX_get_nm_flags
                0x00000000401b9234                ASN1_PCTX_set_nm_flags
                0x00000000401b923e                ASN1_PCTX_get_cert_flags
                0x00000000401b9248                ASN1_PCTX_set_cert_flags
                0x00000000401b9252                ASN1_PCTX_get_oid_flags
                0x00000000401b925c                ASN1_PCTX_set_oid_flags
                0x00000000401b9266                ASN1_PCTX_get_str_flags
                0x00000000401b9270                ASN1_PCTX_set_str_flags
                0x00000000401b927a                asn1_template_print_ctx
                0x00000000401b9bb5                ASN1_item_print
                0x00000000401b9d8f                EVP_DigestSignInit
                0x00000000401b9da0                EVP_DigestVerifyInit
                0x00000000401b9db1                EVP_DigestSignFinal
                0x00000000401b9ef0                EVP_DigestVerifyFinal
                0x00000000401b9fd0                WHIRLPOOL_Init
                0x00000000401b9fea                WHIRLPOOL_BitUpdate
                0x00000000401ba2f3                WHIRLPOOL_Update
                0x00000000401ba3af                WHIRLPOOL_Final
                0x00000000401ba4b6                WHIRLPOOL
                0x00000000401bd8c9                DHparams_print
                0x00000000401bf8ac                whirlpool_block
                0x00000000401c0439                EVP_PKEY_paramgen_init
                0x00000000401c04a8                EVP_PKEY_paramgen
                0x00000000401c0561                EVP_PKEY_keygen_init
                0x00000000401c05d0                EVP_PKEY_keygen
                0x00000000401c0689                EVP_PKEY_CTX_set_cb
                0x00000000401c0693                EVP_PKEY_CTX_get_cb
                0x00000000401c069d                evp_pkey_set_cb_translate
                0x00000000401c06b5                EVP_PKEY_CTX_get_keygen_info
                0x00000000401c06dd                EVP_PKEY_new_mac_key
                0x00000000401c086c                CMS_SignedData_init
                0x00000000401c0880                cms_set1_SignerIdentifier
                0x00000000401c09a0                cms_SignerIdentifier_get0_signer_id
                0x00000000401c09f7                cms_SignerIdentifier_cert_cmp
                0x00000000401c0a74                CMS_get0_SignerInfos
                0x00000000401c0a8f                CMS_get0_signers
                0x00000000401c0b14                CMS_SignerInfo_set1_signer_cert
                0x00000000401c0b75                CMS_SignerInfo_get0_signer_id
                0x00000000401c0b84                CMS_SignerInfo_cert_cmp
                0x00000000401c0b93                CMS_set1_signers_certs
                0x00000000401c0cc5                CMS_SignerInfo_get0_algs
                0x00000000401c0cfb                CMS_SignerInfo_sign
                0x00000000401c0f4f                cms_SignedData_final
                0x00000000401c1170                CMS_SignerInfo_verify
                0x00000000401c129d                cms_SignedData_init_bio
                0x00000000401c146a                CMS_SignerInfo_verify_content
                0x00000000401c161e                CMS_add_smimecap
                0x00000000401c167e                CMS_add_simple_smimecap
                0x00000000401c17c6                CMS_add_standard_smimecap
                0x00000000401c1903                CMS_add1_signer
                0x00000000401c1e64                CMS_get0_RecipientInfos
                0x00000000401c1e7f                CMS_RecipientInfo_type
                0x00000000401c1e87                CMS_EnvelopedData_create
                0x00000000401c1f92                CMS_add1_recipient_cert
                0x00000000401c2176                CMS_RecipientInfo_ktri_get0_algs
                0x00000000401c21d9                CMS_RecipientInfo_ktri_get0_signer_id
                0x00000000401c2217                CMS_RecipientInfo_ktri_cert_cmp
                0x00000000401c2255                CMS_RecipientInfo_set0_pkey
                0x00000000401c2293                CMS_RecipientInfo_kekri_id_cmp
                0x00000000401c22f2                CMS_add0_recipient_key
                0x00000000401c2541                CMS_RecipientInfo_kekri_get0_id
                0x00000000401c25e7                CMS_RecipientInfo_set0_key
                0x00000000401c2629                CMS_RecipientInfo_decrypt
                0x00000000401c29ff                cms_EnvelopedData_init_bio
                0x00000000401c2e7c                EC_KEY_print
                0x00000000401c2ef7                ECParameters_print
                0x00000000401c2f69                ECPKParameters_print
                0x00000000401c3b8c                CMS_signed_get_attr_count
                0x00000000401c3b9b                CMS_signed_get_attr_by_NID
                0x00000000401c3baa                CMS_signed_get_attr_by_OBJ
                0x00000000401c3bb9                CMS_signed_get_attr
                0x00000000401c3bc8                CMS_signed_delete_attr
                0x00000000401c3bd7                CMS_signed_add1_attr
                0x00000000401c3bef                CMS_signed_add1_attr_by_OBJ
                0x00000000401c3c07                CMS_signed_add1_attr_by_NID
                0x00000000401c3c1f                CMS_signed_add1_attr_by_txt
                0x00000000401c3c37                CMS_signed_get0_data_by_OBJ
                0x00000000401c3c46                CMS_unsigned_get_attr_count
                0x00000000401c3c55                CMS_unsigned_get_attr_by_NID
                0x00000000401c3c64                CMS_unsigned_get_attr_by_OBJ
                0x00000000401c3c73                CMS_unsigned_get_attr
                0x00000000401c3c82                CMS_unsigned_delete_attr
                0x00000000401c3c91                CMS_unsigned_add1_attr
                0x00000000401c3ca9                CMS_unsigned_add1_attr_by_OBJ
                0x00000000401c3cc1                CMS_unsigned_add1_attr_by_NID
                0x00000000401c3cd9                CMS_unsigned_add1_attr_by_txt
                0x00000000401c3cf1                CMS_unsigned_get0_data_by_OBJ
                0x00000000401c3e6e                d2i_CMS_ContentInfo
                0x00000000401c3e7e                i2d_CMS_ContentInfo
                0x00000000401c3e8e                CMS_ContentInfo_new
                0x00000000401c3e9e                CMS_ContentInfo_free
                0x00000000401c3eae                CMS_ContentInfo_print_ctx
                0x00000000401c3ec1                CMS_get0_type
                0x00000000401c3eca                CMS_get0_content
                0x00000000401c3fa5                CMS_dataFinal
                0x00000000401c4119                cms_content_bio
                0x00000000401c4169                CMS_dataInit
                0x00000000401c426a                CMS_get0_eContentType
                0x00000000401c4284                CMS_set1_eContentType
                0x00000000401c42df                CMS_is_detached
                0x00000000401c4300                CMS_set_detached
                0x00000000401c4396                cms_Data_create
                0x00000000401c43d0                cms_DigestAlgorithm_set
                0x00000000401c4421                cms_DigestAlgorithm_init_bio
                0x00000000401c44f4                cms_DigestAlgorithm_find_ctx
                0x00000000401c45d4                CMS_add0_CertificateChoices
                0x00000000401c4645                CMS_add0_cert
                0x00000000401c46ee                CMS_add1_cert
                0x00000000401c4737                CMS_add0_RevocationInfoChoice
                0x00000000401c47a8                CMS_add0_crl
                0x00000000401c47d9                CMS_add1_crl
                0x00000000401c4822                CMS_get1_certs
                0x00000000401c48df                CMS_get1_crls
                0x00000000401c4ad0                cms_EncryptedContent_init_bio
                0x00000000401c4eb6                cms_EncryptedContent_init
                0x00000000401c4f42                CMS_EncryptedData_set1_key
                0x00000000401c504c                cms_EncryptedData_init_bio
                0x00000000401c5078                AES_wrap_key
                0x00000000401c51af                AES_unwrap_key
                0x00000000401c5310                cms_DigestedData_create
                0x00000000401c53a7                cms_DigestedData_init_bio
                0x00000000401c53ba                cms_DigestedData_do_final
                0x00000000401c54d8                CMS_stream
                0x00000000401c5554                d2i_CMS_bio
                0x00000000401c556a                i2d_CMS_bio
                0x00000000401c5580                PEM_read_bio_CMS
                0x00000000401c55a1                PEM_write_bio_CMS
                0x00000000401c55e5                BIO_new_CMS
                0x00000000401c55f5                i2d_CMS_bio_stream
                0x00000000401c5606                PEM_write_bio_CMS_stream
                0x00000000401c561d                SMIME_write_CMS
                0x00000000401c56ad                SMIME_read_CMS
                0x00000000401c5feb                SMIME_read_ASN1
                0x00000000401c6410                SMIME_crlf_copy
                0x00000000401c653b                i2d_ASN1_bio_stream
                0x00000000401c66d3                SMIME_write_ASN1
                0x00000000401c6d60                PEM_write_bio_ASN1_stream
                0x00000000401c6de7                SMIME_text
                0x00000000401c7135                BIO_new_NDEF
                0x00000000401c7951                BIO_f_asn1
                0x00000000401c795c                BIO_asn1_set_prefix
                0x00000000401c7972                BIO_asn1_get_prefix
                0x00000000401c7988                BIO_asn1_set_suffix
                0x00000000401c799e                BIO_asn1_get_suffix
                0x00000000401c79c0                chelp_snprintf
                0x00000000401c79fd                chelp_sprintf
                0x00000000401c7a44                chelp_print
                0x00000000401c7a5c                chelp_printf
                0x00000000401c7ac4                chelp_mod_64_32_32
                0x00000000401c7ad9                chelp_div_64_32_64
                0x00000000401c7aec                chelp_div_64_32_32
                0x00000000401c7af7                chelp_mul_64_64_64
                0x00000000401c7b04                BIO_printf
                0x00000000401c7b41                BIO_snprintf
                0x00000000401c7b77                chelp_abort
                0x00000000401c7b8a                RAND_poll
                0x00000000401c7ba9                InitCryptoLibrary
                0x00000000401c7c20                chelp_malloc
                0x00000000401c7c37                chelp_realloc
                0x00000000401c7c5a                chelp_free
                0x00000000401c7c6a                chelp_swap
                0x00000000401c7c9e                chelp_qsort
                0x00000000401c7fb2                chelp_bsearch
                0x00000000401c8081                chelp_memchr
                0x00000000401c80ba                chelp_memmove
                0x00000000401c8139                chelp_memcmp
                0x00000000401c81a8                chelp_memcpy
                0x00000000401c81d4                chelp_memset
                0x00000000401c8200                chelp_isupper
                0x00000000401c8213                chelp_islower
                0x00000000401c8226                chelp_toupper
                0x00000000401c8232                chelp_tolower
                0x00000000401c823e                chelp_isspace
                0x00000000401c825a                chelp_isdigit
                0x00000000401c826d                chelp_isxdigit
                0x00000000401c8295                chelp_isalpha
                0x00000000401c82b2                chelp_isalnum
                0x00000000401c82db                chelp_strtoul_ex
                0x00000000401c84ac                chelp_strtoul
                0x00000000401c84bc                chelp_strtol
                0x00000000401c84cc                chelp_strcpy
                0x00000000401c84fa                chelp_strncpy
                0x00000000401c8567                chelp_strcat
                0x00000000401c85a8                chelp_strcmp
                0x00000000401c8608                chelp_strncmp
                0x00000000401c878a                chelp_stricmp
                0x00000000401c87c9                chelp_strchr
                0x00000000401c8801                chelp_strrchr
                0x00000000401c8835                chelp_strlen
                0x00000000401c885c                chelp_strncasecmp
                0x00000000401c88b0                decryptcfg
                0x00000000401c8938                ASN1_BIT_STRING_set
                0x00000000401c8943                i2c_ASN1_BIT_STRING
                0x00000000401c8a50                c2i_ASN1_BIT_STRING
                0x00000000401c8bc9                ASN1_BIT_STRING_set_bit
                0x00000000401c8d28                ASN1_BIT_STRING_get_bit
                0x00000000401c8d70                ASN1_BIT_STRING_check
                0x00000000401c8dd0                d2i_ASN1_type_bytes
                0x00000000401c8f75                i2d_ASN1_bytes
                0x00000000401c902c                d2i_ASN1_bytes
                0x00000000401c967b                ASN1_d2i_bio
                0x00000000401c96ed                ASN1_item_d2i_bio
                0x00000000401c9764                ASN1_digest
                0x00000000401c982b                ASN1_item_digest
                0x00000000401c98a8                ASN1_dup
                0x00000000401c9963                ASN1_item_dup
                0x00000000401c99ec                ASN1_ENUMERATED_set
                0x00000000401c9b01                ASN1_ENUMERATED_get
                0x00000000401c9b79                BN_to_ASN1_ENUMERATED
                0x00000000401c9c80                ASN1_ENUMERATED_to_BN
                0x00000000401c9cf0                ASN1_GENERALIZEDTIME_check
                0x00000000401c9f62                ASN1_GENERALIZEDTIME_set_string
                0x00000000401c9fdf                ASN1_GENERALIZEDTIME_adj
                0x00000000401ca13b                ASN1_GENERALIZEDTIME_set
                0x00000000401ca150                ASN1_i2d_bio
                0x00000000401ca20e                ASN1_item_i2d_bio
                0x00000000401ca2b0                ASN1_INTEGER_dup
                0x00000000401ca2bb                ASN1_INTEGER_cmp
                0x00000000401ca2fb                i2c_ASN1_INTEGER
                0x00000000401ca473                c2i_ASN1_INTEGER
                0x00000000401ca66f                d2i_ASN1_UINTEGER
                0x00000000401ca7de                ASN1_INTEGER_set
                0x00000000401ca8f3                ASN1_INTEGER_get
                0x00000000401ca96d                BN_to_ASN1_INTEGER
                0x00000000401caa85                ASN1_INTEGER_to_BN
                0x00000000401cab00                i2d_ASN1_OBJECT
                0x00000000401cab97                a2d_ASN1_OBJECT
                0x00000000401cb09e                i2t_ASN1_OBJECT
                0x00000000401cb0ae                i2a_ASN1_OBJECT
                0x00000000401cb194                ASN1_OBJECT_new
                0x00000000401cb210                ASN1_OBJECT_free
                0x00000000401cb289                c2i_ASN1_OBJECT
                0x00000000401cb434                d2i_ASN1_OBJECT
                0x00000000401cb4c0                ASN1_OBJECT_create
                0x00000000401cb4ec                ASN1_OCTET_STRING_dup
                0x00000000401cb4f7                ASN1_OCTET_STRING_cmp
                0x00000000401cb502                ASN1_OCTET_STRING_set
                0x00000000401cb510                ASN1_sign
                0x00000000401cb7ae                ASN1_item_sign
                0x00000000401cc1c2                X509_NAME_print_ex
                0x00000000401cc6a2                ASN1_STRING_print_ex
                0x00000000401cc6b8                ASN1_STRING_to_UTF8
                0x00000000401cc72c                d2i_ASN1_TIME
                0x00000000401cc73c                i2d_ASN1_TIME
                0x00000000401cc74c                ASN1_TIME_new
                0x00000000401cc75c                ASN1_TIME_free
                0x00000000401cc76c                ASN1_TIME_adj
                0x00000000401cc82f                ASN1_TIME_set
                0x00000000401cc844                ASN1_TIME_check
                0x00000000401cc868                ASN1_TIME_to_generalizedtime
                0x00000000401cc95b                ASN1_TIME_set_string
                0x00000000401cc9dc                ASN1_TYPE_get
                0x00000000401cc9f5                ASN1_TYPE_set
                0x00000000401cca56                ASN1_TYPE_set1
                0x00000000401ccae2                ASN1_TYPE_cmp
                0x00000000401ccb30                ASN1_UTCTIME_check
                0x00000000401ccd54                ASN1_UTCTIME_set_string
                0x00000000401ccdd1                ASN1_UTCTIME_adj
                0x00000000401ccf59                ASN1_UTCTIME_set
                0x00000000401ccf6e                ASN1_UTCTIME_cmp_time_t
                0x00000000401cd0e0                UTF8_getc
                0x00000000401cd46f                UTF8_putc
                0x00000000401cd698                ASN1_verify
                0x00000000401cd807                ASN1_item_verify
                0x00000000401cda00                AES_cbc_encrypt
                0x00000000401cda24                AES_cfb128_encrypt
                0x00000000401cda42                AES_cfb1_encrypt
                0x00000000401cda60                AES_cfb8_encrypt
                0x00000000401cda80                AES_ecb_encrypt
                0x00000000401cda98                AES_ofb128_encrypt
                0x00000000401cdab0                ERR_load_ASN1_strings
                0x00000000401cdb1f                ASN1_check_infinite_end
                0x00000000401cdb2a                ASN1_const_check_infinite_end
                0x00000000401cdb8e                ASN1_get_object
                0x00000000401cdd50                ASN1_put_object
                0x00000000401cde52                ASN1_put_eoc
                0x00000000401cde6e                ASN1_object_size
                0x00000000401cdeaa                asn1_Finish
                0x00000000401cdeb5                asn1_const_Finish
                0x00000000401cdec0                asn1_GetSequence
                0x00000000401cdf6e                ASN1_STRING_set
                0x00000000401ce070                ASN1_STRING_copy
                0x00000000401ce0c1                ASN1_STRING_set0
                0x00000000401ce101                ASN1_STRING_type_new
                0x00000000401ce178                ASN1_STRING_new
                0x00000000401ce188                ASN1_STRING_free
                0x00000000401ce1bc                ASN1_STRING_dup
                0x00000000401ce20f                ASN1_STRING_cmp
                0x00000000401ce250                asn1_add_error
                0x00000000401ce2b8                ASN1_STRING_length
                0x00000000401ce2c0                ASN1_STRING_length_set
                0x00000000401ce2c8                ASN1_STRING_type
                0x00000000401ce2d1                ASN1_STRING_data
                0x00000000401ce2e0                ASN1_tag2str
                0x00000000401ceebf                ASN1_parse_dump
                0x00000000401ceee8                ASN1_parse
                0x00000000401cef2a                BIO_dump_indent_cb
                0x00000000401cf33e                BIO_dump_cb
                0x00000000401cf34f                BIO_dump
                0x00000000401cf367                BIO_dump_indent
                0x00000000401cfd3c                BIO_f_buffer
                0x00000000401cfd50                BF_cfb64_encrypt
                0x00000000401cff38                BF_options
                0x00000000401cff43                BF_ecb_encrypt
                0x00000000401cfff4                BF_encrypt
                0x00000000401d03b5                BF_decrypt
                0x00000000401d0776                BF_cbc_encrypt
                0x00000000401d0d08                BF_ofb64_encrypt
                0x00000000401d0e98                BF_set_key
                0x00000000401d1cc1                BIO_f_base64
                0x00000000401d23c0                BIO_f_cipher
                0x00000000401d23cb                BIO_set_cipher
                0x00000000401d2480                ERR_load_BIO_strings
                0x00000000401d283a                BIO_f_md
                0x00000000401d2850                BN_uadd
                0x00000000401d2994                BN_usub
                0x00000000401d2b8e                BN_add
                0x00000000401d2c39                BN_sub
                0x00000000401d2d4c                bn_mul_add_words
                0x00000000401d2fb4                bn_mul_words
                0x00000000401d3200                bn_sqr_words
                0x00000000401d3353                bn_div_words
                0x00000000401d34a3                bn_add_words
                0x00000000401d358f                bn_sub_words
                0x00000000401d3699                bn_mul_comba8
                0x00000000401d4f3e                bn_mul_comba4
                0x00000000401d555d                bn_sqr_comba8
                0x00000000401d65a7                bn_sqr_comba4
                0x00000000401d69a0                BN_BLINDING_free
                0x00000000401d69f7                BN_BLINDING_new
                0x00000000401d6ae2                BN_BLINDING_invert_ex
                0x00000000401d6b45                BN_BLINDING_invert
                0x00000000401d6b5b                BN_BLINDING_get_thread_id
                0x00000000401d6b65                BN_BLINDING_set_thread_id
                0x00000000401d6b6f                BN_BLINDING_thread_id
                0x00000000401d6b79                BN_BLINDING_get_flags
                0x00000000401d6b83                BN_BLINDING_set_flags
                0x00000000401d6b8d                BN_BLINDING_create_param
                0x00000000401d6d21                BN_BLINDING_update
                0x00000000401d6e13                BN_BLINDING_convert_ex
                0x00000000401d6eee                BN_BLINDING_convert
                0x00000000401d6f04                BN_CTX_init
                0x00000000401d6f7f                BN_CTX_new
                0x00000000401d701f                BN_CTX_free
                0x00000000401d709f                BN_CTX_start
                0x00000000401d7185                BN_CTX_end
                0x00000000401d71fa                BN_CTX_get
                0x00000000401d7360                BN_div
                0x00000000401d7e84                ERR_load_BN_strings
                0x00000000401d7f9d                BN_exp
                0x00000000401d813d                BN_mod_exp_recp
                0x00000000401d85c9                BN_mod_exp_mont_consttime
                0x00000000401d8bfc                BN_mod_exp_mont
                0x00000000401d91db                BN_mod_exp_mont_word
                0x00000000401d961d                BN_mod_exp
                0x00000000401d9669                BN_mod_exp_simple
                0x00000000401d9ae0                BN_gcd
                0x00000000401d9cf6                BN_mod_inverse
                0x00000000401da770                BN_nnmod
                0x00000000401da7cc                BN_mod_add
                0x00000000401da81a                BN_mod_add_quick
                0x00000000401da86e                BN_mod_sub
                0x00000000401da8bc                BN_mod_sub_quick
                0x00000000401da904                BN_mod_mul
                0x00000000401da9bc                BN_mod_sqr
                0x00000000401daa12                BN_mod_lshift1
                0x00000000401daa60                BN_mod_lshift1_quick
                0x00000000401daab4                BN_mod_lshift_quick
                0x00000000401dabaf                BN_mod_lshift
                0x00000000401dafbc                BN_mod_mul_montgomery
                0x00000000401db071                BN_from_montgomery
                0x00000000401db0fb                BN_MONT_CTX_init
                0x00000000401db144                BN_MONT_CTX_new
                0x00000000401db182                BN_MONT_CTX_free
                0x00000000401db1c3                BN_MONT_CTX_set
                0x00000000401db3bd                BN_MONT_CTX_copy
                0x00000000401db43d                BN_MONT_CTX_set_locked
                0x00000000401db540                bn_sub_part_words
                0x00000000401db7d3                bn_add_part_words
                0x00000000401dbb91                bn_mul_normal
                0x00000000401dbcf9                bn_mul_recursive
                0x00000000401dc18b                bn_mul_high
                0x00000000401dc607                bn_mul_part_recursive
                0x00000000401dcadb                BN_mul
                0x00000000401dce2b                bn_mul_low_normal
                0x00000000401dcf0d                bn_mul_low_recursive
                0x00000000401dd147                BN_GENCB_call
                0x00000000401dd195                BN_is_prime_fasttest_ex
                0x00000000401dd664                BN_is_prime_ex
                0x00000000401dd677                BN_generate_prime_ex
                0x00000000401ddbc8                BN_RECP_CTX_init
                0x00000000401ddbf7                BN_RECP_CTX_new
                0x00000000401ddc35                BN_RECP_CTX_free
                0x00000000401ddc69                BN_RECP_CTX_set
                0x00000000401ddcbf                BN_reciprocal
                0x00000000401ddd58                BN_div_recp
                0x00000000401de003                BN_mod_mul_reciprocal
                0x00000000401de0cc                BN_lshift1
                0x00000000401de18b                BN_rshift1
                0x00000000401de263                BN_lshift
                0x00000000401de3c3                BN_rshift
                0x00000000401de570                bn_sqr_normal
                0x00000000401de64c                bn_sqr_recursive
                0x00000000401de80a                BN_sqr
                0x00000000401deaf4                BIO_s_null
                0x00000000401deb00                ERR_load_BUF_strings
                0x00000000401deb40                CAST_cfb64_encrypt
                0x00000000401ded28                CAST_ecb_encrypt
                0x00000000401dedd8                CAST_encrypt
                0x00000000401df234                CAST_decrypt
                0x00000000401df6b6                CAST_cbc_encrypt
                0x00000000401dfc48                CAST_ofb64_encrypt
                0x00000000401dfdd8                CAST_set_key
                0x00000000401e0870                DES_ede3_cfb64_encrypt
                0x00000000401e0a9b                DES_ede3_cfb_encrypt
                0x00000000401e12a0                DES_cfb64_encrypt
                0x00000000401e14c0                DES_cfb_encrypt
                0x00000000401e1aec                ERR_load_COMP_strings
                0x00000000401e1b24                ERR_load_CONF_strings
                0x00000000401e1b5c                ERR_load_CRYPTO_strings
                0x00000000401e1ba0                d2i_PrivateKey
                0x00000000401e1d01                d2i_AutoPrivateKey
                0x00000000401e1e6e                d2i_DHparams
                0x00000000401e1e7e                i2d_DHparams
                0x00000000401e1e8e                DHparams_dup
                0x00000000401e1eb0                DH_check
                0x00000000401e1fe9                DH_check_pub_key
                0x00000000401e2094                ERR_load_DH_strings
                0x00000000401e20d0                DH_generate_parameters_ex
                0x00000000401e22d8                EVP_MD_CTX_init
                0x00000000401e22ed                EVP_MD_CTX_create
                0x00000000401e2324                EVP_DigestInit_ex
                0x00000000401e2403                EVP_DigestInit
                0x00000000401e2438                EVP_DigestUpdate
                0x00000000401e2444                EVP_DigestFinal_ex
                0x00000000401e24df                EVP_MD_CTX_cleanup
                0x00000000401e257c                EVP_MD_CTX_destroy
                0x00000000401e259c                EVP_Digest
                0x00000000401e2646                EVP_MD_CTX_copy_ex
                0x00000000401e2783                EVP_MD_CTX_copy
                0x00000000401e27b3                EVP_DigestFinal
                0x00000000401e289e                d2i_DSA_SIG
                0x00000000401e28ae                i2d_DSA_SIG
                0x00000000401e28be                DSA_SIG_new
                0x00000000401e28ce                DSA_SIG_free
                0x00000000401e28de                d2i_DSAPrivateKey
                0x00000000401e28ee                i2d_DSAPrivateKey
                0x00000000401e28fe                d2i_DSAparams
                0x00000000401e290e                i2d_DSAparams
                0x00000000401e291e                d2i_DSAPublicKey
                0x00000000401e292e                i2d_DSAPublicKey
                0x00000000401e293e                DSAparams_dup
                0x00000000401e2954                ERR_load_DSA_strings
                0x00000000401e2990                dsa_builtin_paramgen
                0x00000000401e3285                DSA_generate_parameters_ex
                0x00000000401e3330                DSA_generate_key
                0x00000000401e3498                DSA_set_default_method
                0x00000000401e34a5                DSA_get_default_method
                0x00000000401e34c8                DSA_set_method
                0x00000000401e350f                DSA_new_method
                0x00000000401e3610                DSA_new
                0x00000000401e3620                DSA_free
                0x00000000401e36ef                DSA_up_ref
                0x00000000401e371c                DSA_size
                0x00000000401e3771                DSA_get_ex_new_index
                0x00000000401e3790                DSA_set_ex_data
                0x00000000401e379f                DSA_get_ex_data
                0x00000000401e37ae                DSA_dup_DH
                0x00000000401e414c                DSA_OpenSSL
                0x00000000401e4158                DSA_do_sign
                0x00000000401e4165                DSA_sign
                0x00000000401e41e9                DSA_sign_setup
                0x00000000401e41f8                DSA_do_verify
                0x00000000401e4205                DSA_verify
                0x00000000401e4290                ERR_load_DSO_strings
                0x00000000401e4be1                EC_GROUP_get_basis_type
                0x00000000401e4c46                EC_GROUP_get_trinomial_basis
                0x00000000401e4ccf                EC_GROUP_get_pentanomial_basis
                0x00000000401e4da6                X9_62_PENTANOMIAL_new
                0x00000000401e4db6                X9_62_PENTANOMIAL_free
                0x00000000401e4dc6                X9_62_CHARACTERISTIC_TWO_new
                0x00000000401e4dd6                X9_62_CHARACTERISTIC_TWO_free
                0x00000000401e4de6                ECPARAMETERS_new
                0x00000000401e4df6                ECPARAMETERS_free
                0x00000000401e4e06                d2i_ECPKPARAMETERS
                0x00000000401e4e16                i2d_ECPKPARAMETERS
                0x00000000401e4e26                ECPKPARAMETERS_new
                0x00000000401e4e36                ECPKPARAMETERS_free
                0x00000000401e5a3e                d2i_EC_PRIVATEKEY
                0x00000000401e5a4e                i2d_EC_PRIVATEKEY
                0x00000000401e5a5e                EC_PRIVATEKEY_new
                0x00000000401e5a6e                EC_PRIVATEKEY_free
                0x00000000401e5a7e                d2i_ECPKParameters
                0x00000000401e5b3b                i2d_ECPKParameters
                0x00000000401e5bc9                d2i_ECPrivateKey
                0x00000000401e5e46                i2d_ECPrivateKey
                0x00000000401e61d6                i2d_ECParameters
                0x00000000401e620e                d2i_ECParameters
                0x00000000401e62f4                o2i_ECPublicKey
                0x00000000401e63ee                i2o_ECPublicKey
                0x00000000401e6538                EC_GROUP_new_by_curve_name
                0x00000000401e6a4c                EC_get_builtin_curves
                0x00000000401e6aa0                EC_GROUP_new_curve_GFp
                0x00000000401e6b88                EC_GROUP_new_curve_GF2m
                0x00000000401e6c04                ERR_load_EC_strings
                0x00000000401e6c40                EC_KEY_new
                0x00000000401e6ccb                EC_KEY_free
                0x00000000401e6d4d                EC_KEY_new_by_curve_name
                0x00000000401e6d98                EC_KEY_copy
                0x00000000401e6f53                EC_KEY_dup
                0x00000000401e6f9d                EC_KEY_up_ref
                0x00000000401e6fca                EC_KEY_generate_key
                0x00000000401e71a9                EC_KEY_check_key
                0x00000000401e7459                EC_KEY_get0_group
                0x00000000401e7463                EC_KEY_set_group
                0x00000000401e74a6                EC_KEY_get0_private_key
                0x00000000401e74b0                EC_KEY_set_private_key
                0x00000000401e74f3                EC_KEY_get0_public_key
                0x00000000401e74fd                EC_KEY_set_public_key
                0x00000000401e7544                EC_KEY_get_enc_flags
                0x00000000401e754d                EC_KEY_set_enc_flags
                0x00000000401e7556                EC_KEY_get_conv_form
                0x00000000401e755f                EC_KEY_set_conv_form
                0x00000000401e7576                EC_KEY_get_key_method_data
                0x00000000401e7585                EC_KEY_insert_key_method_data
                0x00000000401e7624                EC_KEY_set_asn1_flag
                0x00000000401e7638                EC_KEY_precompute_mult
                0x00000000401e7660                EC_GROUP_new
                0x00000000401e7770                EC_GROUP_method_of
                0x00000000401e7779                EC_METHOD_get_field_type
                0x00000000401e7781                EC_GROUP_get0_generator
                0x00000000401e778b                EC_GROUP_get_order
                0x00000000401e77c0                EC_GROUP_get_cofactor
                0x00000000401e77f5                EC_GROUP_set_curve_name
                0x00000000401e77fe                EC_GROUP_get_curve_name
                0x00000000401e7807                EC_GROUP_set_asn1_flag
                0x00000000401e7810                EC_GROUP_get_asn1_flag
                0x00000000401e7819                EC_GROUP_set_point_conversion_form
                0x00000000401e7822                EC_GROUP_get_point_conversion_form
                0x00000000401e782b                EC_GROUP_set_seed
                0x00000000401e78be                EC_GROUP_get0_seed
                0x00000000401e78c8                EC_GROUP_get_seed_len
                0x00000000401e78d2                EC_GROUP_set_curve_GFp
                0x00000000401e7911                EC_GROUP_get_curve_GFp
                0x00000000401e794b                EC_GROUP_set_curve_GF2m
                0x00000000401e7985                EC_GROUP_get_curve_GF2m
                0x00000000401e79c1                EC_GROUP_get_degree
                0x00000000401e79fb                EC_GROUP_check_discriminant
                0x00000000401e7a35                EC_EX_DATA_set_data
                0x00000000401e7b05                EC_EX_DATA_get_data
                0x00000000401e7b3a                EC_EX_DATA_free_data
                0x00000000401e7b89                EC_EX_DATA_clear_free_data
                0x00000000401e7bd8                EC_EX_DATA_free_all_data
                0x00000000401e7c24                EC_EX_DATA_clear_free_all_data
                0x00000000401e7c70                EC_POINT_new
                0x00000000401e7d3e                EC_POINT_free
                0x00000000401e7d6c                EC_GROUP_free
                0x00000000401e7dd1                EC_POINT_clear_free
                0x00000000401e7e19                EC_GROUP_clear_free
                0x00000000401e7ea5                EC_POINT_copy
                0x00000000401e7f11                EC_GROUP_set_generator
                0x00000000401e8000                EC_GROUP_copy
                0x00000000401e822a                EC_GROUP_dup
                0x00000000401e8280                EC_POINT_dup
                0x00000000401e82d6                EC_POINT_method_of
                0x00000000401e82df                EC_POINT_set_to_infinity
                0x00000000401e8344                EC_POINT_set_Jprojective_coordinates_GFp
                0x00000000401e83a9                EC_POINT_get_Jprojective_coordinates_GFp
                0x00000000401e8411                EC_POINT_set_affine_coordinates_GFp
                0x00000000401e8479                EC_POINT_set_affine_coordinates_GF2m
                0x00000000401e84e1                EC_POINT_get_affine_coordinates_GFp
                0x00000000401e8549                EC_POINT_get_affine_coordinates_GF2m
                0x00000000401e85b1                EC_POINT_set_compressed_coordinates_GFp
                0x00000000401e8619                EC_POINT_set_compressed_coordinates_GF2m
                0x00000000401e8681                EC_POINT_point2oct
                0x00000000401e86e9                EC_POINT_oct2point
                0x00000000401e8751                EC_POINT_add
                0x00000000401e87c3                EC_POINT_dbl
                0x00000000401e8831                EC_POINT_invert
                0x00000000401e889b                EC_POINT_is_at_infinity
                0x00000000401e8903                EC_POINT_is_on_curve
                0x00000000401e896b                EC_POINT_cmp
                0x00000000401e89d8                EC_GROUP_cmp
                0x00000000401e8c5d                EC_POINT_make_affine
                0x00000000401e8cc5                EC_POINTs_make_affine
                0x00000000401e8d51                EC_POINTs_mul
                0x00000000401e8d81                EC_POINT_mul
                0x00000000401e8db9                EC_GROUP_precompute_mult
                0x00000000401e8de6                EC_GROUP_have_precompute_mult
                0x00000000401e921e                ec_wNAF_mul
                0x00000000401ea0ff                ec_wNAF_precompute_mult
                0x00000000401ea750                ec_wNAF_have_precompute_mult
                0x00000000401ea780                EC_POINT_point2bn
                0x00000000401ea846                EC_POINT_bn2point
                0x00000000401ea93f                EC_POINT_point2hex
                0x00000000401eaa48                EC_POINT_hex2point
                0x00000000401eaab8                ERR_load_ECDH_strings
                0x00000000401eaaf0                ECDH_compute_key
                0x00000000401eab95                ECDH_set_default_method
                0x00000000401eaba2                ECDH_get_default_method
                0x00000000401eac59                ecdh_check
                0x00000000401eacb9                ECDH_set_method
                0x00000000401eace3                ECDH_get_ex_new_index
                0x00000000401ead02                ECDH_set_ex_data
                0x00000000401ead43                ECDH_get_ex_data
                0x00000000401eb131                ECDH_OpenSSL
                0x00000000401eb13c                ec_GFp_mont_field_set_to_one
                0x00000000401eb186                ec_GFp_mont_field_decode
                0x00000000401eb1c9                ec_GFp_mont_field_encode
                0x00000000401eb216                ec_GFp_mont_field_sqr
                0x00000000401eb25f                ec_GFp_mont_field_mul
                0x00000000401eb2a8                ec_GFp_mont_group_set_curve
                0x00000000401eb450                ec_GFp_mont_group_copy
                0x00000000401eb538                ec_GFp_mont_group_clear_finish
                0x00000000401eb58b                ec_GFp_mont_group_finish
                0x00000000401eb5de                ec_GFp_mont_group_init
                0x00000000401eb60c                EC_GFp_mont_method
                0x00000000401eb620                ec_GFp_nist_field_sqr
                0x00000000401eb6fb                ec_GFp_nist_field_mul
                0x00000000401eb7e4                ec_GFp_nist_group_set_curve
                0x00000000401eb96e                ec_GFp_nist_group_copy
                0x00000000401eb987                EC_GFp_nist_method
                0x00000000401eb9a0                ec_GFp_simple_is_at_infinity
                0x00000000401eb9b0                ec_GFp_simple_field_sqr
                0x00000000401eb9c8                ec_GFp_simple_field_mul
                0x00000000401eb9e3                ec_GFp_simple_point_copy
                0x00000000401eba48                ec_GFp_simple_group_copy
                0x00000000401ebabf                ec_GFp_simple_point_set_to_infinity
                0x00000000401ebadf                ec_GFp_simple_get_Jprojective_coordinates_GFp
                0x00000000401ebc66                ec_GFp_simple_group_get_curve
                0x00000000401ebdd5                ec_GFp_simple_point_clear_finish
                0x00000000401ebe0a                ec_GFp_simple_group_clear_finish
                0x00000000401ebe3e                ec_GFp_simple_points_make_affine
                0x00000000401ec3ae                ec_GFp_simple_point_get_affine_coordinates
                0x00000000401ec6ed                ec_GFp_simple_make_affine
                0x00000000401ec804                ec_GFp_simple_cmp
                0x00000000401ecab7                ec_GFp_simple_is_on_curve
                0x00000000401ecdbf                ec_GFp_simple_invert
                0x00000000401ece08                ec_GFp_simple_dbl
                0x00000000401ed2b4                ec_GFp_simple_add
                0x00000000401ed8bb                ec_GFp_simple_group_get_degree
                0x00000000401ed8ca                ec_GFp_simple_oct2point
                0x00000000401edc57                ec_GFp_simple_point2oct
                0x00000000401edfd6                ec_GFp_simple_set_Jprojective_coordinates_GFp
                0x00000000401ee1bc                ec_GFp_simple_set_compressed_coordinates
                0x00000000401ee648                ec_GFp_simple_point_set_affine_coordinates
                0x00000000401ee6d5                ec_GFp_simple_point_finish
                0x00000000401ee703                ec_GFp_simple_group_finish
                0x00000000401ee737                ec_GFp_simple_point_init
                0x00000000401ee771                ec_GFp_simple_group_init
                0x00000000401ee7b4                ec_GFp_simple_group_check_discriminant
                0x00000000401ee9e5                ec_GFp_simple_group_set_curve
                0x00000000401eebdd                EC_GFp_simple_method
                0x00000000401eebe8                ERR_load_ECDSA_strings
                0x00000000401eec59                ECDSA_set_default_method
                0x00000000401eec66                ECDSA_get_default_method
                0x00000000401eed1d                ecdsa_check
                0x00000000401eed7d                ECDSA_set_method
                0x00000000401eeda7                ECDSA_size
                0x00000000401eee69                ECDSA_get_ex_new_index
                0x00000000401eee88                ECDSA_set_ex_data
                0x00000000401eeec9                ECDSA_get_ex_data
                0x00000000401efbfb                ECDSA_OpenSSL
                0x00000000401efc08                ECDSA_do_sign_ex
                0x00000000401efc74                ECDSA_do_sign
                0x00000000401efc8c                ECDSA_sign_ex
                0x00000000401efd18                ECDSA_sign
                0x00000000401efd3a                ECDSA_sign_setup
                0x00000000401efd98                ECDSA_do_verify
                0x00000000401efdf6                ECDSA_verify
                0x00000000401efe80                EVP_EncodeInit
                0x00000000401efe9a                EVP_EncodeBlock
                0x00000000401effd5                EVP_EncodeFinal
                0x00000000401f0032                EVP_EncodeUpdate
                0x00000000401f0162                EVP_DecodeInit
                0x00000000401f0183                EVP_DecodeBlock
                0x00000000401f02e5                EVP_DecodeUpdate
                0x00000000401f05bf                EVP_DecodeFinal
                0x00000000401f0620                EVP_set_pw_prompt
                0x00000000401f064d                EVP_get_pw_prompt
                0x00000000401f0668                EVP_read_pw_string_min
                0x00000000401f0742                EVP_read_pw_string
                0x00000000401f075a                EVP_BytesToKey
                0x00000000401f0a25                EVP_PBE_alg_add_type
                0x00000000401f0ae5                EVP_PBE_alg_add
                0x00000000401f0b55                EVP_PBE_find
                0x00000000401f0c1c                EVP_PBE_CipherInit
                0x00000000401f0df6                EVP_PBE_cleanup
                0x00000000401f0e20                EVP_PKCS82PKEY
                0x00000000401f0f5b                EVP_PKEY2PKCS8_broken
                0x00000000401f1063                EVP_PKEY2PKCS8
                0x00000000401f1073                PKCS8_set_broken
                0x00000000401f10c5                EVP_PKEY_get_attr_count
                0x00000000401f10d4                EVP_PKEY_get_attr_by_NID
                0x00000000401f10e3                EVP_PKEY_get_attr_by_OBJ
                0x00000000401f10f2                EVP_PKEY_get_attr
                0x00000000401f1101                EVP_PKEY_delete_attr
                0x00000000401f1110                EVP_PKEY_add1_attr
                0x00000000401f1128                EVP_PKEY_add1_attr_by_OBJ
                0x00000000401f1140                EVP_PKEY_add1_attr_by_NID
                0x00000000401f1158                EVP_PKEY_add1_attr_by_txt
                0x00000000401f1170                HMAC_Init_ex
                0x00000000401f13a4                HMAC_Update
                0x00000000401f13b3                HMAC_Final
                0x00000000401f1448                HMAC_CTX_init
                0x00000000401f1476                HMAC_Init
                0x00000000401f14d2                HMAC_CTX_copy
                0x00000000401f1568                HMAC_CTX_cleanup
                0x00000000401f15a8                HMAC
                0x00000000401f1679                HMAC_CTX_set_flags
                0x00000000401f16c0                i2d_PrivateKey
                0x00000000401f20b0                RAND_SSLeay
                0x00000000401f20e4                d2i_NETSCAPE_CERT_SEQUENCE
                0x00000000401f20f4                i2d_NETSCAPE_CERT_SEQUENCE
                0x00000000401f2104                NETSCAPE_CERT_SEQUENCE_new
                0x00000000401f2114                NETSCAPE_CERT_SEQUENCE_free
                0x00000000401f2124                OPENSSL_gmtime
                0x00000000401f212f                OPENSSL_gmtime_adj
                0x00000000401f23d8                PKCS12_PBE_add
                0x00000000401f23de                PKCS12_PBE_keyivgen
                0x00000000401f25ec                PKCS12_key_gen_uni
                0x00000000401f2b09                PKCS12_key_gen_asc
                0x00000000401f2be8                PKCS8_decrypt
                0x00000000401f2c0c                OPENSSL_asc2uni
                0x00000000401f2c9b                OPENSSL_uni2asc
                0x00000000401f2d1c                i2d_PKCS12_bio
                0x00000000401f2d32                d2i_PKCS12_bio
                0x00000000401f2d48                PKCS12_x5092certbag
                0x00000000401f2d62                PKCS12_x509crl2certbag
                0x00000000401f2d7c                PKCS12_certbag2x509
                0x00000000401f2dd3                PKCS12_certbag2x509crl
                0x00000000401f2e2c                PKCS5_PBE_add
                0x00000000401f2e32                PKCS5_PBE_keyivgen
                0x00000000401f3114                PKCS5_PBKDF2_HMAC
                0x00000000401f3334                PKCS5_PBKDF2_HMAC_SHA1
                0x00000000401f33a2                PKCS5_v2_PBE_keyivgen
                0x00000000401f37a4                d2i_PBEPARAM
                0x00000000401f37b4                i2d_PBEPARAM
                0x00000000401f37c4                PBEPARAM_new
                0x00000000401f37d4                PBEPARAM_free
                0x00000000401f37e4                PKCS5_pbe_set0_algor
                0x00000000401f399f                PKCS5_pbe_set
                0x00000000401f3a34                d2i_PBE2PARAM
                0x00000000401f3a44                i2d_PBE2PARAM
                0x00000000401f3a54                PBE2PARAM_new
                0x00000000401f3a64                PBE2PARAM_free
                0x00000000401f3a74                d2i_PBKDF2PARAM
                0x00000000401f3a84                i2d_PBKDF2PARAM
                0x00000000401f3a94                PBKDF2PARAM_new
                0x00000000401f3aa4                PBKDF2PARAM_free
                0x00000000401f3ab4                PKCS5_pbe2_set_iv
                0x00000000401f3fcd                PKCS5_pbe2_set
                0x00000000401f4010                d2i_PKCS8_PRIV_KEY_INFO
                0x00000000401f4020                i2d_PKCS8_PRIV_KEY_INFO
                0x00000000401f4030                PKCS8_PRIV_KEY_INFO_new
                0x00000000401f4040                PKCS8_PRIV_KEY_INFO_free
                0x00000000401f4050                PKCS8_pkey_set0
                0x00000000401f411b                PKCS8_pkey_get0
                0x00000000401f41b0                EVP_SignFinal
                0x00000000401f4390                EVP_VerifyFinal
                0x00000000401f4581                policy_cache_free
                0x00000000401f45c1                policy_cache_set
                0x00000000401f4915                policy_cache_find_data
                0x00000000401f4950                policy_data_free
                0x00000000401f4995                policy_data_new
                0x00000000401f4a94                policy_cache_set_mapping
                0x00000000401f4cfe                X509_policy_tree_free
                0x00000000401f4daa                X509_policy_check
                0x00000000401f5818                d2i_PKCS8PrivateKey_bio
                0x00000000401f592c                PEM_read_bio_PKCS8
                0x00000000401f594d                PEM_write_bio_PKCS8
                0x00000000401f5991                PEM_read_bio_PKCS8_PRIV_KEY_INFO
                0x00000000401f59b2                PEM_write_bio_PKCS8_PRIV_KEY_INFO
                0x00000000401f5bf8                i2d_PKCS8PrivateKey_nid_bio
                0x00000000401f5c29                i2d_PKCS8PrivateKey_bio
                0x00000000401f5c5a                PEM_write_bio_PKCS8PrivateKey
                0x00000000401f5c8b                PEM_write_bio_PKCS8PrivateKey_nid
                0x00000000401f5cbc                PKCS7_add_attrib_smimecap
                0x00000000401f5d3f                PKCS7_get_smimecap
                0x00000000401f5d8e                PKCS7_simple_smimecap
                0x00000000401f5ed4                PKCS7_add_attrib_content_type
                0x00000000401f5f33                PKCS7_add0_attrib_signing_time
                0x00000000401f5f96                PKCS7_add1_attrib_digest
                0x00000000401f7912                RSA_PKCS1_SSLeay
                0x00000000401f7920                RSA_padding_add_none
                0x00000000401f798c                RSA_padding_check_none
                0x00000000401f7a14                PKCS1_MGF1
                0x00000000401f7c09                RSA_padding_check_PKCS1_OAEP
                0x00000000401f7e8d                RSA_padding_add_PKCS1_OAEP
                0x00000000401f8090                RSA_padding_add_PKCS1_type_1
                0x00000000401f812b                RSA_padding_check_PKCS1_type_1
                0x00000000401f8274                RSA_padding_add_PKCS1_type_2
                0x00000000401f8335                RSA_padding_check_PKCS1_type_2
                0x00000000401f8450                RSA_verify_PKCS1_PSS
                0x00000000401f8803                RSA_padding_add_PKCS1_PSS
                0x00000000401f8adc                RSA_padding_add_SSLv23
                0x00000000401f8bb0                RSA_padding_check_SSLv23
                0x00000000401f8d10                RSA_padding_add_X931
                0x00000000401f8dc6                RSA_padding_check_X931
                0x00000000401f8ee2                RSA_X931_hash_id
                0x00000000401f8f24                ASN1_bn_print
                0x00000000401f9120                X509_ocspid_print
                0x00000000401f92a8                X509_signature_print
                0x00000000401f93aa                ASN1_STRING_print
                0x00000000401f9463                ASN1_GENERALIZEDTIME_print
                0x00000000401f9718                ASN1_UTCTIME_print
                0x00000000401f9884                ASN1_TIME_print
                0x00000000401f98bd                X509_print_ex
                0x00000000401f9e01                X509_print
                0x00000000401f9e16                X509_NAME_print
                0x00000000401f9f0c                X509_CERT_AUX_print
                0x00000000401fa4ac                UI_free
                0x00000000401fa4eb                UI_add_input_string
                0x00000000401fa51c                UI_dup_input_string
                0x00000000401fa5c4                UI_add_verify_string
                0x00000000401fa5f5                UI_dup_verify_string
                0x00000000401fa69d                UI_add_input_boolean
                0x00000000401fa6c7                UI_dup_input_boolean
                0x00000000401fa86f                UI_add_info_string
                0x00000000401fa8ac                UI_dup_info_string
                0x00000000401fa933                UI_add_error_string
                0x00000000401fa970                UI_dup_error_string
                0x00000000401fa9f7                UI_construct_prompt
                0x00000000401fab27                UI_add_user_data
                0x00000000401fab35                UI_get0_user_data
                0x00000000401fab3f                UI_process
                0x00000000401fac74                UI_ctrl
                0x00000000401fad01                UI_get_ex_new_index
                0x00000000401fad20                UI_set_ex_data
                0x00000000401fad2f                UI_get_ex_data
                0x00000000401fad3e                UI_set_default_method
                0x00000000401fad4b                UI_get_default_method
                0x00000000401fad6e                UI_new_method
                0x00000000401fadfd                UI_new
                0x00000000401fae0d                UI_get_method
                0x00000000401fae16                UI_set_method
                0x00000000401fae22                UI_create_method
                0x00000000401fae7b                UI_destroy_method
                0x00000000401faea5                UI_method_set_opener
                0x00000000401faec0                UI_method_set_writer
                0x00000000401faedb                UI_method_set_flusher
                0x00000000401faef6                UI_method_set_reader
                0x00000000401faf11                UI_method_set_closer
                0x00000000401faf2c                UI_method_set_prompt_constructor
                0x00000000401faf47                UI_method_get_opener
                0x00000000401faf5d                UI_method_get_writer
                0x00000000401faf73                UI_method_get_flusher
                0x00000000401faf89                UI_method_get_reader
                0x00000000401faf9f                UI_method_get_closer
                0x00000000401fafb5                UI_method_get_prompt_constructor
                0x00000000401fafcb                UI_get_string_type
                0x00000000401fafdd                UI_get_input_flags
                0x00000000401faff0                UI_get0_output_string
                0x00000000401fb006                UI_get0_action_string
                0x00000000401fb02f                UI_get0_result_string
                0x00000000401fb054                UI_get0_result
                0x00000000401fb0e6                UI_get0_test_string
                0x00000000401fb106                UI_get_result_minsize
                0x00000000401fb12a                UI_get_result_maxsize
                0x00000000401fb14e                UI_set_result
                0x00000000401fb644                UI_OpenSSL
                0x00000000401fb650                d2i_AUTHORITY_KEYID
                0x00000000401fb660                i2d_AUTHORITY_KEYID
                0x00000000401fb670                AUTHORITY_KEYID_new
                0x00000000401fb680                AUTHORITY_KEYID_free
                0x00000000401fb923                POLICYINFO_free
                0x00000000401fb933                d2i_CERTIFICATEPOLICIES
                0x00000000401fb943                i2d_CERTIFICATEPOLICIES
                0x00000000401fb953                CERTIFICATEPOLICIES_new
                0x00000000401fb963                CERTIFICATEPOLICIES_free
                0x00000000401fb973                d2i_POLICYINFO
                0x00000000401fb983                i2d_POLICYINFO
                0x00000000401fb993                POLICYINFO_new
                0x00000000401fb9a3                d2i_POLICYQUALINFO
                0x00000000401fb9b3                i2d_POLICYQUALINFO
                0x00000000401fb9c3                POLICYQUALINFO_new
                0x00000000401fb9d3                POLICYQUALINFO_free
                0x00000000401fb9e3                d2i_USERNOTICE
                0x00000000401fb9f3                i2d_USERNOTICE
                0x00000000401fba03                USERNOTICE_new
                0x00000000401fba13                USERNOTICE_free
                0x00000000401fba23                d2i_NOTICEREF
                0x00000000401fba33                i2d_NOTICEREF
                0x00000000401fba43                NOTICEREF_new
                0x00000000401fc388                NOTICEREF_free
                0x00000000401fc398                X509_POLICY_NODE_print
                0x00000000401fc9d0                DIST_POINT_free
                0x00000000401fc9e0                d2i_DIST_POINT_NAME
                0x00000000401fc9f0                i2d_DIST_POINT_NAME
                0x00000000401fca00                DIST_POINT_NAME_new
                0x00000000401fcc1a                DIST_POINT_NAME_free
                0x00000000401fcc2a                d2i_DIST_POINT
                0x00000000401fcc3a                i2d_DIST_POINT
                0x00000000401fcc4a                DIST_POINT_new
                0x00000000401fceed                d2i_CRL_DIST_POINTS
                0x00000000401fcefd                i2d_CRL_DIST_POINTS
                0x00000000401fcf0d                CRL_DIST_POINTS_new
                0x00000000401fcf1d                CRL_DIST_POINTS_free
                0x00000000401fcf2d                d2i_ISSUING_DIST_POINT
                0x00000000401fcf3d                i2d_ISSUING_DIST_POINT
                0x00000000401fcf4d                ISSUING_DIST_POINT_new
                0x00000000401fcf5d                ISSUING_DIST_POINT_free
                0x00000000401fd16a                DIST_POINT_set_dpname
                0x00000000401fd258                i2d_GENERAL_NAME
                0x00000000401fd268                d2i_GENERAL_NAME
                0x00000000401fd278                d2i_OTHERNAME
                0x00000000401fd288                i2d_OTHERNAME
                0x00000000401fd298                OTHERNAME_new
                0x00000000401fd2a8                OTHERNAME_free
                0x00000000401fd2b8                d2i_EDIPARTYNAME
                0x00000000401fd2c8                i2d_EDIPARTYNAME
                0x00000000401fd2d8                EDIPARTYNAME_new
                0x00000000401fd2e8                EDIPARTYNAME_free
                0x00000000401fd2f8                GENERAL_NAME_new
                0x00000000401fd308                GENERAL_NAME_free
                0x00000000401fd318                d2i_GENERAL_NAMES
                0x00000000401fd328                i2d_GENERAL_NAMES
                0x00000000401fd338                GENERAL_NAMES_new
                0x00000000401fd348                GENERAL_NAMES_free
                0x00000000401fd358                GENERAL_NAME_dup
                0x00000000401fd370                OTHERNAME_cmp
                0x00000000401fd3be                GENERAL_NAME_cmp
                0x00000000401fd446                GENERAL_NAME_set0_value
                0x00000000401fd47e                GENERAL_NAME_get0_value
                0x00000000401fd4c2                GENERAL_NAME_set0_othername
                0x00000000401fd518                GENERAL_NAME_get0_otherName
                0x00000000401fdb7e                GENERAL_SUBTREE_new
                0x00000000401fdb8e                GENERAL_SUBTREE_free
                0x00000000401fdb9e                NAME_CONSTRAINTS_new
                0x00000000401fdbae                NAME_CONSTRAINTS_free
                0x00000000401fdd4c                NAME_CONSTRAINTS_check
                0x00000000401fde7e                POLICY_CONSTRAINTS_new
                0x00000000401fde8e                POLICY_CONSTRAINTS_free
                0x00000000401fe093                POLICY_MAPPING_free
                0x00000000401fe0a3                POLICY_MAPPING_new
                0x00000000401fe347                X509V3_EXT_val_prn
                0x00000000401fe46e                X509V3_EXT_print
                0x00000000401fe64a                X509V3_extensions_print
                0x00000000401feb51                X509_PURPOSE_get_count
                0x00000000401feb70                X509_PURPOSE_get0
                0x00000000401feba6                X509_PURPOSE_get_by_sname
                0x00000000401febe6                X509_PURPOSE_get_by_id
                0x00000000401fec26                X509_PURPOSE_set
                0x00000000401fec80                X509_PURPOSE_add
                0x00000000401fee49                X509_PURPOSE_cleanup
                0x00000000401fee98                X509_PURPOSE_get_id
                0x00000000401feea0                X509_PURPOSE_get0_name
                0x00000000401feeaa                X509_PURPOSE_get0_sname
                0x00000000401feeb4                X509_PURPOSE_get_trust
                0x00000000401feebd                X509_supported_extension
                0x00000000401ff42e                X509_check_purpose
                0x00000000401ff4c8                X509_check_ca
                0x00000000401ff523                X509_check_akid
                0x00000000401ff600                X509_check_issued
                0x00000000401ff7e0                X509V3_conf_free
                0x00000000401ff8d9                X509V3_add_value
                0x00000000401ffa0a                X509V3_add_value_uchar
                0x00000000401ffa15                X509V3_add_value_bool
                0x00000000401ffa35                X509V3_add_value_bool_nf
                0x00000000401ffa4e                i2s_ASN1_ENUMERATED
                0x00000000401ffac8                i2s_ASN1_INTEGER
                0x00000000401ffb42                s2i_ASN1_INTEGER
                0x00000000401ffc7f                X509V3_add_value_int
                0x00000000401ffce7                X509V3_get_value_bool
                0x00000000401ffe5e                X509V3_get_value_int
                0x00000000401ffecf                X509V3_parse_list
                0x0000000040200102                hex_to_string
                0x00000000402001c9                string_to_hex
                0x0000000040200386                name_cmp
                0x00000000402003e5                X509_email_free
                0x0000000040200551                X509_REQ_get1_email
                0x00000000402005c7                X509_get1_email
                0x0000000040200621                X509_get1_ocsp
                0x00000000402006c0                a2i_ipadd
                0x0000000040200831                a2i_IPADDRESS_NC
                0x0000000040200921                a2i_IPADDRESS
                0x000000004020097d                X509V3_NAME_from_section
                0x0000000040200a70                X509at_get_attr_count
                0x0000000040200a7b                X509at_get_attr_by_OBJ
                0x0000000040200ae9                X509at_get_attr_by_NID
                0x0000000040200b28                X509at_get_attr
                0x0000000040200b73                X509at_delete_attr
                0x0000000040200bbe                X509at_add1_attr
                0x0000000040200c99                X509_ATTRIBUTE_set1_object
                0x0000000040200ce2                X509_ATTRIBUTE_set1_data
                0x0000000040200e6a                X509_ATTRIBUTE_create_by_OBJ
                0x0000000040200f3e                X509_ATTRIBUTE_create_by_txt
                0x0000000040200ff6                X509at_add1_attr_by_txt
                0x000000004020104c                X509_ATTRIBUTE_create_by_NID
                0x00000000402010e6                X509at_add1_attr_by_NID
                0x000000004020113c                X509at_add1_attr_by_OBJ
                0x0000000040201192                X509_ATTRIBUTE_count
                0x00000000402011b4                X509_ATTRIBUTE_get0_object
                0x00000000402011c9                X509_ATTRIBUTE_get0_type
                0x0000000040201220                X509_ATTRIBUTE_get0_data
                0x0000000040201286                X509at_get0_data_by_OBJ
                0x0000000040201334                X509_CRL_get_ext_count
                0x0000000040201346                X509_CRL_get_ext_by_NID
                0x0000000040201358                X509_CRL_get_ext_by_OBJ
                0x000000004020136a                X509_CRL_get_ext_by_critical
                0x000000004020137c                X509_CRL_get_ext
                0x000000004020138e                X509_CRL_delete_ext
                0x00000000402013a0                X509_CRL_get_ext_d2i
                0x00000000402013b2                X509_CRL_add1_ext_i2d
                0x00000000402013c4                X509_CRL_add_ext
                0x00000000402013df                X509_get_ext_count
                0x00000000402013f1                X509_get_ext_by_NID
                0x0000000040201403                X509_get_ext_by_OBJ
                0x0000000040201415                X509_get_ext_by_critical
                0x0000000040201427                X509_get_ext
                0x0000000040201439                X509_delete_ext
                0x000000004020144b                X509_add_ext
                0x0000000040201466                X509_get_ext_d2i
                0x0000000040201478                X509_add1_ext_i2d
                0x000000004020148a                X509_REVOKED_get_ext_count
                0x0000000040201499                X509_REVOKED_get_ext_by_NID
                0x00000000402014a8                X509_REVOKED_get_ext_by_OBJ
                0x00000000402014b7                X509_REVOKED_get_ext_by_critical
                0x00000000402014c6                X509_REVOKED_get_ext
                0x00000000402014d5                X509_REVOKED_delete_ext
                0x00000000402014e4                X509_REVOKED_add_ext
                0x00000000402014fc                X509_REVOKED_get_ext_d2i
                0x000000004020150b                X509_REVOKED_add1_ext_i2d
                0x000000004020168e                X509_LOOKUP_new
                0x00000000402016fd                X509_LOOKUP_free
                0x0000000040201731                X509_LOOKUP_init
                0x0000000040201752                X509_LOOKUP_shutdown
                0x0000000040201773                X509_LOOKUP_ctrl
                0x000000004020179a                X509_LOOKUP_by_subject
                0x00000000402017c1                X509_LOOKUP_by_issuer_serial
                0x00000000402017e1                X509_LOOKUP_by_fingerprint
                0x0000000040201801                X509_LOOKUP_by_alias
                0x0000000040201821                X509_STORE_new
                0x0000000040201919                X509_STORE_free
                0x00000000402019a9                X509_STORE_add_lookup
                0x0000000040201a31                X509_OBJECT_up_ref_count
                0x0000000040201a8b                X509_OBJECT_free_contents
                0x0000000040201ab3                X509_OBJECT_idx_by_subject
                0x0000000040201ac3                X509_OBJECT_retrieve_by_subject
                0x0000000040201aef                X509_STORE_get_by_subject
                0x0000000040201c03                X509_STORE_get1_certs
                0x0000000040201dd5                X509_STORE_get1_crls
                0x0000000040201f98                X509_OBJECT_retrieve_match
                0x000000004020206b                X509_STORE_add_crl
                0x000000004020217f                X509_STORE_add_cert
                0x0000000040202293                X509_STORE_CTX_get1_issuer
                0x0000000040202459                X509_STORE_set_flags
                0x0000000040202468                X509_STORE_set_depth
                0x000000004020247c                X509_STORE_set_purpose
                0x000000004020248b                X509_STORE_set_trust
                0x000000004020249a                X509_STORE_set1_param
                0x00000000402024a9                X509_STORE_set_verify_cb
                0x00000000402024c0                X509_to_X509_REQ
                0x00000000402025cc                X509_REQ_get_pubkey
                0x00000000402025f4                X509_REQ_check_private_key
                0x0000000040202729                X509_REQ_extension_nid
                0x0000000040202768                X509_REQ_get_extension_nids
                0x0000000040202775                X509_REQ_set_extension_nids
                0x0000000040202782                X509_REQ_add_extensions_nid
                0x00000000402028a5                X509_REQ_add_extensions
                0x00000000402028b5                X509_REQ_get_attr_count
                0x00000000402028c7                X509_REQ_get_attr_by_NID
                0x00000000402028d9                X509_REQ_get_attr_by_OBJ
                0x00000000402028eb                X509_REQ_get_attr
                0x00000000402028fd                X509_REQ_get_extensions
                0x00000000402029ff                X509_REQ_delete_attr
                0x0000000040202a11                X509_REQ_add1_attr
                0x0000000040202a2c                X509_REQ_add1_attr_by_OBJ
                0x0000000040202a47                X509_REQ_add1_attr_by_NID
                0x0000000040202a62                X509_REQ_add1_attr_by_txt
                0x0000000040202c05                X509_TRUST_set_default
                0x0000000040202c19                X509_TRUST_get_count
                0x0000000040202c38                X509_TRUST_get0
                0x0000000040202c6c                X509_TRUST_get_by_id
                0x0000000040202cac                X509_check_trust
                0x0000000040202d0f                X509_TRUST_set
                0x0000000040202d69                X509_TRUST_add
                0x0000000040202f15                X509_TRUST_cleanup
                0x0000000040202f61                X509_TRUST_get_flags
                0x0000000040202f6a                X509_TRUST_get0_name
                0x0000000040202f74                X509_TRUST_get_trust
                0x0000000040202f80                X509v3_get_ext_count
                0x0000000040202f95                X509v3_get_ext_by_OBJ
                0x0000000040203003                X509v3_get_ext_by_NID
                0x0000000040203042                X509v3_get_ext_by_critical
                0x00000000402030b8                X509v3_get_ext
                0x0000000040203103                X509v3_delete_ext
                0x000000004020314e                X509v3_add_ext
                0x0000000040203253                X509_EXTENSION_set_object
                0x000000004020329c                X509_EXTENSION_set_critical
                0x00000000402032bb                X509_EXTENSION_set_data
                0x00000000402032e5                X509_EXTENSION_create_by_OBJ
                0x00000000402033bf                X509_EXTENSION_create_by_NID
                0x000000004020344b                X509_EXTENSION_get_object
                0x0000000040203460                X509_EXTENSION_get_data
                0x0000000040203476                X509_EXTENSION_get_critical
                0x0000000040203490                X509_NAME_entry_count
                0x00000000402034a8                X509_NAME_get_index_by_OBJ
                0x000000004020351b                X509_NAME_get_index_by_NID
                0x000000004020355a                X509_NAME_get_entry
                0x00000000402035a8                X509_NAME_delete_entry
                0x0000000040203674                X509_NAME_add_entry
                0x00000000402037e8                X509_NAME_ENTRY_set_object
                0x0000000040203854                X509_NAME_ENTRY_set_data
                0x0000000040203939                X509_NAME_ENTRY_create_by_OBJ
                0x00000000402039ec                X509_NAME_ENTRY_create_by_NID
                0x0000000040203a82                X509_NAME_add_entry_by_NID
                0x0000000040203ae9                X509_NAME_ENTRY_create_by_txt
                0x0000000040203ba1                X509_NAME_add_entry_by_txt
                0x0000000040203c08                X509_NAME_add_entry_by_OBJ
                0x0000000040203c6f                X509_NAME_ENTRY_get_object
                0x0000000040203c84                X509_NAME_ENTRY_get_data
                0x0000000040203c9a                X509_NAME_get_text_by_OBJ
                0x0000000040203d1c                X509_NAME_get_text_by_NID
                0x0000000040203d6c                X509_REQ_set_version
                0x0000000040203d88                X509_REQ_set_subject_name
                0x0000000040203da9                X509_REQ_set_pubkey
                0x0000000040203dcc                d2i_X509_VAL
                0x0000000040203ddc                i2d_X509_VAL
                0x0000000040203dec                X509_VAL_new
                0x0000000040203dfc                X509_VAL_free
                0x0000000040203e10                CRYPTO_cbc128_encrypt
                0x0000000040203f5b                CRYPTO_cbc128_decrypt
                0x00000000402042a4                CRYPTO_cfb128_encrypt
                0x0000000040204555                CRYPTO_cfb128_1_encrypt
                0x000000004020461f                CRYPTO_cfb128_8_encrypt
                0x000000004020468c                CRYPTO_ofb128_encrypt
                0x00000000402047b8                i2d_ASN1_BOOLEAN
                0x0000000040204832                d2i_ASN1_BOOLEAN
                0x0000000040204b70                ASN1_mbstring_ncopy
                0x0000000040205075                ASN1_mbstring_copy
                0x00000000402050a0                ASN1_PRINTABLE_type
                0x0000000040205161                ASN1_UNIVERSALSTRING_to_string
                0x000000004020524f                ASN1_STRING_set_default_mask
                0x000000004020525c                ASN1_STRING_get_default_mask
                0x0000000040205269                ASN1_STRING_set_default_mask_asc
                0x000000004020532c                ASN1_STRING_TABLE_get
                0x0000000040205392                ASN1_STRING_set_by_NID
                0x0000000040205451                ASN1_STRING_TABLE_add
                0x0000000040205586                ASN1_STRING_TABLE_cleanup
                0x00000000402055b0                ASN1_seq_unpack
                0x0000000040205615                ASN1_seq_pack
                0x0000000040205713                ASN1_unpack_string
                0x0000000040205766                ASN1_pack_string
                0x0000000040205868                ASN1_item_pack
                0x0000000040205961                ASN1_item_unpack
                0x00000000402059b8                BN_mod_exp2_mont
                0x0000000040206244                BN_kronecker
                0x000000004020656a                BN_get0_nist_prime_192
                0x0000000040206575                BN_get0_nist_prime_224
                0x0000000040206580                BN_get0_nist_prime_256
                0x000000004020658b                BN_get0_nist_prime_384
                0x0000000040206596                BN_get0_nist_prime_521
                0x00000000402065a1                BN_nist_mod_192
                0x000000004020680f                BN_nist_mod_224
                0x0000000040206b55                BN_nist_mod_256
                0x0000000040206fed                BN_nist_mod_384
                0x000000004020758d                BN_nist_mod_521
                0x0000000040207770                BN_mod_sqrt
                0x000000004020811b                CONF_modules_load
                0x000000004020859c                CONF_modules_finish
                0x0000000040208616                CONF_modules_unload
                0x00000000402086cc                CONF_module_add
                0x00000000402086ee                CONF_modules_free
                0x0000000040208703                CONF_imodule_get_name
                0x000000004020870d                CONF_imodule_get_value
                0x0000000040208717                CONF_imodule_get_usr_data
                0x0000000040208721                CONF_imodule_set_usr_data
                0x000000004020872b                CONF_imodule_get_module
                0x0000000040208734                CONF_imodule_get_flags
                0x000000004020873e                CONF_imodule_set_flags
                0x0000000040208748                CONF_module_get_usr_data
                0x0000000040208752                CONF_module_set_usr_data
                0x000000004020875c                CONF_get1_default_config_file
                0x00000000402087d7                CONF_modules_load_file
                0x00000000402088b1                CONF_parse_list
                0x00000000402089c0                DSO_set_default_method
                0x00000000402089cd                DSO_get_default_method
                0x00000000402089da                DSO_get_method
                0x00000000402089e3                DSO_set_method
                0x00000000402089ef                DSO_new_method
                0x0000000040208ae2                DSO_new
                0x0000000040208af2                DSO_free
                0x0000000040208c08                DSO_flags
                0x0000000040208c1b                DSO_up_ref
                0x0000000040208c6d                DSO_bind_var
                0x0000000040208d0b                DSO_bind_func
                0x0000000040208da9                DSO_ctrl
                0x0000000040208e41                DSO_set_name_converter
                0x0000000040208e85                DSO_get_filename
                0x0000000040208eb8                DSO_set_filename
                0x0000000040208fb5                DSO_load
                0x0000000040209164                DSO_merge
                0x00000000402091c7                DSO_convert_filename
                0x00000000402092d7                DSO_get_loaded_filename
                0x000000004020930a                DSO_pathbyaddr
                0x000000004020937e                DSO_global_lookup
                0x00000000402093d8                DSO_METHOD_openssl
                0x00000000402093f0                ec_GF2m_simple_is_at_infinity
                0x0000000040209400                ec_GF2m_simple_points_make_affine
                0x0000000040209469                ec_GF2m_simple_field_div
                0x0000000040209484                ec_GF2m_simple_field_sqr
                0x000000004020949f                ec_GF2m_simple_field_mul
                0x00000000402094bd                ec_GF2m_simple_point_copy
                0x0000000040209522                ec_GF2m_simple_group_get_curve
                0x00000000402095aa                ec_GF2m_simple_point_set_to_infinity
                0x00000000402095ca                ec_GF2m_simple_make_affine
                0x00000000402096de                ec_GF2m_simple_cmp
                0x000000004020987b                ec_GF2m_simple_is_on_curve
                0x0000000040209a19                ec_GF2m_simple_invert
                0x0000000040209a83                ec_GF2m_simple_add
                0x0000000040209e9a                ec_GF2m_simple_dbl
                0x0000000040209eab                ec_GF2m_simple_oct2point
                0x000000004020a26b                ec_GF2m_simple_group_get_degree
                0x000000004020a27d                ec_GF2m_simple_point2oct
                0x000000004020a62e                ec_GF2m_simple_group_check_discriminant
                0x000000004020a705                ec_GF2m_simple_set_compressed_coordinates
                0x000000004020a999                ec_GF2m_simple_point_get_affine_coordinates
                0x000000004020aa8d                ec_GF2m_simple_point_set_affine_coordinates
                0x000000004020ab6d                ec_GF2m_simple_point_clear_finish
                0x000000004020aba2                ec_GF2m_simple_group_clear_finish
                0x000000004020ac12                ec_GF2m_simple_point_finish
                0x000000004020ac40                ec_GF2m_simple_group_finish
                0x000000004020ac74                ec_GF2m_simple_point_init
                0x000000004020aca7                ec_GF2m_simple_group_init
                0x000000004020ace0                ec_GF2m_simple_group_set_curve
                0x000000004020ae8e                ec_GF2m_simple_group_copy
                0x000000004020b02d                EC_GF2m_simple_method
                0x000000004020b038                d2i_ECDSA_SIG
                0x000000004020b048                i2d_ECDSA_SIG
                0x000000004020b058                ECDSA_SIG_new
                0x000000004020b068                ECDSA_SIG_free
                0x000000004020b08e                ERR_print_errors_cb
                0x000000004020b17e                ERR_print_errors
                0x000000004020b194                PKCS12_item_pack_safebag
                0x000000004020b290                PKCS12_MAKE_KEYBAG
                0x000000004020b2ef                PKCS12_MAKE_SHKEYBAG
                0x000000004020b3e0                PKCS12_pack_p7data
                0x000000004020b4a4                PKCS12_unpack_p7data
                0x000000004020b4f9                PKCS12_pack_p7encdata
                0x000000004020b69a                PKCS12_unpack_p7encdata
                0x000000004020b704                PKCS12_decrypt_skey
                0x000000004020b713                PKCS12_pack_authsafes
                0x000000004020b73a                PKCS12_unpack_authsafes
                0x000000004020b798                d2i_PKCS12
                0x000000004020b7a8                i2d_PKCS12
                0x000000004020b7b8                PKCS12_new
                0x000000004020b7c8                PKCS12_free
                0x000000004020b7d8                d2i_PKCS12_MAC_DATA
                0x000000004020b7e8                i2d_PKCS12_MAC_DATA
                0x000000004020b7f8                PKCS12_MAC_DATA_new
                0x000000004020b808                PKCS12_MAC_DATA_free
                0x000000004020b818                d2i_PKCS12_BAGS
                0x000000004020b828                i2d_PKCS12_BAGS
                0x000000004020b838                PKCS12_BAGS_new
                0x000000004020b848                PKCS12_BAGS_free
                0x000000004020b858                d2i_PKCS12_SAFEBAG
                0x000000004020b868                i2d_PKCS12_SAFEBAG
                0x000000004020b878                PKCS12_SAFEBAG_new
                0x000000004020b888                PKCS12_SAFEBAG_free
                0x000000004020b898                PKCS12_pbe_crypt
                0x000000004020ba18                PKCS12_item_decrypt_d2i
                0x000000004020bae4                PKCS12_item_i2d_encrypt
                0x000000004020bc20                PKCS8_encrypt
                0x000000004020bd58                X509_policy_tree_level_count
                0x000000004020bd6b                X509_policy_tree_get0_level
                0x000000004020bd9a                X509_policy_tree_get0_policies
                0x000000004020bdb0                X509_policy_tree_get0_user_policies
                0x000000004020bdd2                X509_policy_level_node_count
                0x000000004020be09                X509_policy_level_get0_node
                0x000000004020be34                X509_policy_node_get0_policy
                0x000000004020be4d                X509_policy_node_get0_qualifiers
                0x000000004020be66                X509_policy_node_get0_parent
                0x000000004020be9b                policy_node_cmp_new
                0x000000004020beab                tree_find_sk
                0x000000004020bee7                level_find_node
                0x000000004020bf5b                policy_node_free
                0x000000004020bf66                level_add_node
                0x000000004020c062                policy_node_match
                0x000000004020c269                i2v_GENERAL_NAME
                0x000000004020c4f0                i2v_GENERAL_NAMES
                0x000000004020c554                GENERAL_NAME_print
                0x000000004020c6f8                a2i_GENERAL_NAME
                0x000000004020cabc                v2i_GENERAL_NAME_ex
                0x000000004020cc29                v2i_GENERAL_NAME
                0x000000004020cf74                v2i_GENERAL_NAMES
                0x000000004020d06d                d2i_BASIC_CONSTRAINTS
                0x000000004020d07d                i2d_BASIC_CONSTRAINTS
                0x000000004020d08d                BASIC_CONSTRAINTS_new
                0x000000004020d09d                BASIC_CONSTRAINTS_free
                0x000000004020d835                X509V3_EXT_nconf
                0x000000004020d90c                X509V3_EXT_nconf_nid
                0x000000004020d99c                X509V3_EXT_i2d
                0x000000004020da06                X509V3_EXT_add_nconf_sk
                0x000000004020daae                X509V3_EXT_add_nconf
                0x000000004020dacd                X509V3_EXT_CRL_add_nconf
                0x000000004020daec                X509V3_EXT_REQ_add_nconf
                0x000000004020db4b                X509V3_get_string
                0x000000004020db96                X509V3_get_section
                0x000000004020dbe2                X509V3_string_free
                0x000000004020dc00                X509V3_section_free
                0x000000004020dc1e                X509V3_set_nconf
                0x000000004020dc30                X509V3_set_ctx
                0x000000004020dc49                X509V3_EXT_conf
                0x000000004020dc92                X509V3_EXT_conf_nid
                0x000000004020dcdb                X509V3_set_conf_lhash
                0x000000004020dced                X509V3_EXT_add_conf
                0x000000004020dd36                X509V3_EXT_CRL_add_conf
                0x000000004020dd7f                X509V3_EXT_REQ_add_conf
                0x000000004020df1f                ACCESS_DESCRIPTION_free
                0x000000004020df2f                d2i_ACCESS_DESCRIPTION
                0x000000004020df3f                i2d_ACCESS_DESCRIPTION
                0x000000004020df4f                ACCESS_DESCRIPTION_new
                0x000000004020e179                d2i_AUTHORITY_INFO_ACCESS
                0x000000004020e189                i2d_AUTHORITY_INFO_ACCESS
                0x000000004020e199                AUTHORITY_INFO_ACCESS_new
                0x000000004020e1a9                AUTHORITY_INFO_ACCESS_free
                0x000000004020e1b9                i2a_ACCESS_DESCRIPTION
                0x000000004020e1fc                X509V3_EXT_add
                0x000000004020e290                X509V3_EXT_get_nid
                0x000000004020e308                X509V3_EXT_get
                0x000000004020e326                X509V3_EXT_add_list
                0x000000004020e364                X509V3_EXT_add_alias
                0x000000004020e45f                X509V3_EXT_cleanup
                0x000000004020e481                X509V3_add_standard_extensions
                0x000000004020e48c                X509V3_EXT_d2i
                0x000000004020e4e7                X509V3_get_d2i
                0x000000004020e60f                X509V3_add1_i2d
                0x000000004020f5d0                d2i_PROXY_POLICY
                0x000000004020f5e0                i2d_PROXY_POLICY
                0x000000004020f5f0                PROXY_POLICY_new
                0x000000004020f600                PROXY_POLICY_free
                0x000000004020f610                d2i_PROXY_CERT_INFO_EXTENSION
                0x000000004020f620                i2d_PROXY_CERT_INFO_EXTENSION
                0x000000004020f630                PROXY_CERT_INFO_EXTENSION_new
                0x000000004020f640                PROXY_CERT_INFO_EXTENSION_free
                0x000000004020f6e1                d2i_PKEY_USAGE_PERIOD
                0x000000004020f6f1                i2d_PKEY_USAGE_PERIOD
                0x000000004020f701                PKEY_USAGE_PERIOD_new
                0x000000004020f711                PKEY_USAGE_PERIOD_free
                0x000000004020f730                i2s_ASN1_OCTET_STRING
                0x000000004020f745                s2i_ASN1_OCTET_STRING
                0x000000004020f9f7                d2i_SXNETID
                0x000000004020fa07                i2d_SXNETID
                0x000000004020fa17                SXNETID_new
                0x000000004020fa27                SXNETID_free
                0x000000004020fa37                d2i_SXNET
                0x000000004020fa47                i2d_SXNET
                0x000000004020fa57                SXNET_new
                0x000000004020fa67                SXNET_free
                0x000000004020fa77                SXNET_get_id_INTEGER
                0x000000004020fad6                SXNET_get_id_ulong
                0x000000004020fb67                SXNET_get_id_asc
                0x000000004020fbd6                SXNET_add_id_INTEGER
                0x000000004020fd96                SXNET_add_id_ulong
                0x000000004020fe34                SXNET_add_id_asc
                0x000000004020ff08                X509_get_default_private_dir
                0x000000004020ff13                X509_get_default_cert_area
                0x000000004020ff1e                X509_get_default_cert_dir
                0x000000004020ff29                X509_get_default_cert_file
                0x000000004020ff34                X509_get_default_cert_dir_env
                0x000000004020ff3f                X509_get_default_cert_file_env
                0x000000004020ff91                i2d_ASN1_SET
                0x00000000402101fa                d2i_ASN1_SET
                0x0000000040210abf                ASN1_generate_v3
                0x00000000402113f1                ASN1_generate_nconf
                0x00000000402115fc                BN_GF2m_add
                0x00000000402116da                BN_GF2m_mod_arr
                0x0000000040211976                BN_GF2m_mod_sqr_arr
                0x0000000040211b1a                BN_GF2m_mod_mul_arr
                0x0000000040211d80                BN_GF2m_mod_exp_arr
                0x0000000040211eb7                BN_GF2m_mod_sqrt_arr
                0x0000000040211f5f                BN_GF2m_mod_solve_quad_arr
                0x0000000040212329                BN_GF2m_poly2arr
                0x00000000402123b3                BN_GF2m_mod_solve_quad
                0x0000000040212480                BN_GF2m_mod_sqrt
                0x000000004021254d                BN_GF2m_mod_exp
                0x0000000040212622                BN_GF2m_mod_sqr
                0x00000000402126ef                BN_GF2m_mod_mul
                0x00000000402127c4                BN_GF2m_mod
                0x0000000040212889                BN_GF2m_mod_inv
                0x0000000040212a69                BN_GF2m_mod_div
                0x0000000040212b06                BN_GF2m_arr2poly
                0x0000000040212b6b                BN_GF2m_mod_div_arr
                0x0000000040212bff                BN_GF2m_mod_inv_arr
                0x0000000040212c90                CONF_set_nconf
                0x0000000040212cd7                CONF_set_default_method
                0x0000000040212ce9                CONF_load
                0x0000000040212d13                NCONF_new
                0x0000000040212d60                NCONF_free
                0x0000000040212d71                NCONF_free_data
                0x0000000040212d82                CONF_free
                0x0000000040212da1                NCONF_load
                0x0000000040212dd6                NCONF_load_bio
                0x0000000040212e0b                CONF_load_bio
                0x0000000040212e55                NCONF_get_section
                0x0000000040212eb2                CONF_get_section
                0x0000000040212ee7                NCONF_get_string
                0x0000000040212f8e                CONF_get_string
                0x0000000040212fd5                NCONF_get_number_e
                0x0000000040213070                CONF_get_number
                0x00000000402130ce                NCONF_dump_bio
                0x0000000040213103                CONF_dump_bio
                0x0000000040213130                DSO_METHOD_null
                0x00000000402139fa                ec_GF2m_simple_mul
                0x0000000040213c55                ec_GF2m_precompute_mult
                0x0000000040213c60                ec_GF2m_have_precompute_mult
                0x0000000040213c6c                i2a_ASN1_INTEGER
                0x0000000040213dad                a2i_ASN1_INTEGER
                0x00000000402140b0                i2a_ASN1_STRING
                0x00000000402141c1                a2i_ASN1_STRING
                0x0000000040214478                d2i_OCSP_SIGNATURE
                0x0000000040214488                i2d_OCSP_SIGNATURE
                0x0000000040214498                OCSP_SIGNATURE_new
                0x00000000402144a8                OCSP_SIGNATURE_free
                0x00000000402144b8                d2i_OCSP_CERTID
                0x00000000402144c8                i2d_OCSP_CERTID
                0x00000000402144d8                OCSP_CERTID_new
                0x00000000402144e8                OCSP_CERTID_free
                0x00000000402144f8                d2i_OCSP_ONEREQ
                0x0000000040214508                i2d_OCSP_ONEREQ
                0x0000000040214518                OCSP_ONEREQ_new
                0x0000000040214528                OCSP_ONEREQ_free
                0x0000000040214538                d2i_OCSP_REQINFO
                0x0000000040214548                i2d_OCSP_REQINFO
                0x0000000040214558                OCSP_REQINFO_new
                0x0000000040214568                OCSP_REQINFO_free
                0x0000000040214578                d2i_OCSP_REQUEST
                0x0000000040214588                i2d_OCSP_REQUEST
                0x0000000040214598                OCSP_REQUEST_new
                0x00000000402145a8                OCSP_REQUEST_free
                0x00000000402145b8                d2i_OCSP_RESPBYTES
                0x00000000402145c8                i2d_OCSP_RESPBYTES
                0x00000000402145d8                OCSP_RESPBYTES_new
                0x00000000402145e8                OCSP_RESPBYTES_free
                0x00000000402145f8                d2i_OCSP_RESPONSE
                0x0000000040214608                i2d_OCSP_RESPONSE
                0x0000000040214618                OCSP_RESPONSE_new
                0x0000000040214628                OCSP_RESPONSE_free
                0x0000000040214638                d2i_OCSP_RESPID
                0x0000000040214648                i2d_OCSP_RESPID
                0x0000000040214658                OCSP_RESPID_new
                0x0000000040214668                OCSP_RESPID_free
                0x0000000040214678                d2i_OCSP_REVOKEDINFO
                0x0000000040214688                i2d_OCSP_REVOKEDINFO
                0x0000000040214698                OCSP_REVOKEDINFO_new
                0x00000000402146a8                OCSP_REVOKEDINFO_free
                0x00000000402146b8                d2i_OCSP_CERTSTATUS
                0x00000000402146c8                i2d_OCSP_CERTSTATUS
                0x00000000402146d8                OCSP_CERTSTATUS_new
                0x00000000402146e8                OCSP_CERTSTATUS_free
                0x00000000402146f8                d2i_OCSP_SINGLERESP
                0x0000000040214708                i2d_OCSP_SINGLERESP
                0x0000000040214718                OCSP_SINGLERESP_new
                0x0000000040214728                OCSP_SINGLERESP_free
                0x0000000040214738                d2i_OCSP_RESPDATA
                0x0000000040214748                i2d_OCSP_RESPDATA
                0x0000000040214758                OCSP_RESPDATA_new
                0x0000000040214768                OCSP_RESPDATA_free
                0x0000000040214778                d2i_OCSP_BASICRESP
                0x0000000040214788                i2d_OCSP_BASICRESP
                0x0000000040214798                OCSP_BASICRESP_new
                0x00000000402147a8                OCSP_BASICRESP_free
                0x00000000402147b8                d2i_OCSP_CRLID
                0x00000000402147c8                i2d_OCSP_CRLID
                0x00000000402147d8                OCSP_CRLID_new
                0x00000000402147e8                OCSP_CRLID_free
                0x00000000402147f8                d2i_OCSP_SERVICELOC
                0x0000000040214808                i2d_OCSP_SERVICELOC
                0x0000000040214818                OCSP_SERVICELOC_new
                0x0000000040214828                OCSP_SERVICELOC_free
                0x0000000040214bec                v2i_ASN1_BIT_STRING
                0x0000000040214d6f                i2v_ASN1_BIT_STRING
                0x0000000040214dc4                i2s_ASN1_ENUMERATED_TABLE
                0x0000000040214f90                d2i_EXTENDED_KEY_USAGE
                0x0000000040214fa0                i2d_EXTENDED_KEY_USAGE
                0x0000000040214fb0                EXTENDED_KEY_USAGE_new
                0x0000000040214fc0                EXTENDED_KEY_USAGE_free
                0x0000000040215238                _CONF_get_section
                0x000000004021526c                _CONF_get_section_values
                0x0000000040215287                _CONF_add_string
                0x0000000040215312                _CONF_get_string
                0x00000000402153b0                _CONF_new_data
                0x00000000402153f2                _CONF_free_data
                0x0000000040215443                _CONF_new_section
                0x00000000402163d1                NCONF_default
                0x00000000402163dc                NCONF_WIN32
                0x00000000402163e7                codeend = .

.iplt           0x00000000402163f0        0x0 load address 0x00000000002163f0
 .iplt          0x0000000000000000        0x0 output.o

.rodata         0x0000000040216400    0x34fcc load address 0x0000000000216400
 .rodata        0x0000000040216400    0x34fcc output.o
                0x00000000402245a0                BN_version
                0x00000000402249c0                DES_SPtrans
                0x00000000402259c0                DH_version
                0x0000000040226ea0                OSSL_DES_version
                0x0000000040226ee0                OSSL_libdes_version
                0x0000000040226fc0                EVP_version
                0x0000000040227080                IDEA_version
                0x00000000402270c0                lh_version
                0x0000000040227700                MD4_version
                0x0000000040227740                MD5_version
                0x00000000402342c0                PEM_version
                0x0000000040234320                PKCS7_ATTR_VERIFY_it
                0x0000000040234360                PKCS7_ATTR_SIGN_it
                0x00000000402343a0                PKCS7_DIGEST_it
                0x00000000402343e0                PKCS7_ENCRYPT_it
                0x0000000040234420                PKCS7_SIGN_ENVELOPE_it
                0x0000000040234460                PKCS7_ENC_CONTENT_it
                0x00000000402344a0                PKCS7_RECIP_INFO_it
                0x00000000402344e0                PKCS7_ENVELOPE_it
                0x0000000040234520                PKCS7_ISSUER_AND_SERIAL_it
                0x0000000040234560                PKCS7_SIGNER_INFO_it
                0x00000000402345a0                PKCS7_SIGNED_it
                0x00000000402345e0                PKCS7_it
                0x00000000402350a0                RC2_version
                0x00000000402351e0                RC4_version
                0x0000000040235220                RMD160_version
                0x0000000040235260                RSAPublicKey_it
                0x00000000402352a0                RSAPrivateKey_it
                0x0000000040235540                RSA_version
                0x0000000040236740                SHA1_version
                0x0000000040236780                SHA256_version
                0x00000000402368c0                SHA512_version
                0x0000000040236b80                SHA_version
                0x0000000040236bc0                STACK_version
                0x0000000040236e20                ASN1_SET_ANY_it
                0x0000000040236e60                ASN1_SEQUENCE_ANY_it
                0x0000000040236ea0                ASN1_OCTET_STRING_NDEF_it
                0x0000000040236ee0                ASN1_FBOOLEAN_it
                0x0000000040236f20                ASN1_TBOOLEAN_it
                0x0000000040236f60                ASN1_BOOLEAN_it
                0x0000000040236fa0                DIRECTORYSTRING_it
                0x0000000040236fe0                DISPLAYTEXT_it
                0x0000000040237020                ASN1_PRINTABLE_it
                0x0000000040237060                ASN1_SEQUENCE_it
                0x00000000402370a0                ASN1_ANY_it
                0x00000000402370e0                ASN1_BMPSTRING_it
                0x0000000040237120                ASN1_UNIVERSALSTRING_it
                0x0000000040237160                ASN1_VISIBLESTRING_it
                0x00000000402371a0                ASN1_GENERALIZEDTIME_it
                0x00000000402371e0                ASN1_UTCTIME_it
                0x0000000040237220                ASN1_GENERALSTRING_it
                0x0000000040237260                ASN1_IA5STRING_it
                0x00000000402372a0                ASN1_T61STRING_it
                0x00000000402372e0                ASN1_PRINTABLESTRING_it
                0x0000000040237320                ASN1_UTF8STRING_it
                0x0000000040237360                ASN1_OBJECT_it
                0x00000000402373a0                ASN1_NULL_it
                0x00000000402373e0                ASN1_OCTET_STRING_it
                0x0000000040237420                ASN1_BIT_STRING_it
                0x0000000040237460                ASN1_ENUMERATED_it
                0x00000000402374a0                ASN1_INTEGER_it
                0x0000000040237580                X509_version
                0x00000000402376e0                X509_ALGORS_it
                0x0000000040237720                X509_ALGOR_it
                0x0000000040237800                X509_ATTRIBUTE_it
                0x0000000040237840                X509_ATTRIBUTE_SET_it
                0x0000000040237940                CBIGNUM_it
                0x0000000040237980                BIGNUM_it
                0x00000000402379c0                X509_CRL_it
                0x0000000040237a00                X509_CRL_INFO_it
                0x0000000040237a40                X509_REVOKED_it
                0x0000000040237d20                X509_EXTENSIONS_it
                0x0000000040237d60                X509_EXTENSION_it
                0x0000000040237e60                ZLONG_it
                0x0000000040237ea0                LONG_it
                0x0000000040237ee0                X509_NAME_it
                0x0000000040237f20                x509_name_ff
                0x0000000040237f60                X509_NAME_INTERNAL_it
                0x0000000040237fa0                X509_NAME_ENTRIES_it
                0x0000000040237fe0                X509_NAME_ENTRY_it
                0x0000000040238100                X509_PUBKEY_it
                0x00000000402381e0                X509_REQ_it
                0x0000000040238220                X509_REQ_INFO_it
                0x0000000040238400                X509_SIG_it
                0x00000000402384a0                NETSCAPE_SPKI_it
                0x00000000402384e0                NETSCAPE_SPKAC_it
                0x0000000040238600                X509_it
                0x0000000040238640                X509_CINF_it
                0x0000000040238920                X509_CERT_PAIR_it
                0x0000000040238960                X509_CERT_AUX_it
                0x0000000040238f60                rsa_pkey_meth
                0x0000000040239040                dh_pkey_meth
                0x0000000040239120                dsa_pkey_meth
                0x0000000040239200                ec_pkey_meth
                0x00000000402392e0                hmac_pkey_meth
                0x0000000040239400                rsa_asn1_meths
                0x0000000040239580                dh_asn1_meth
                0x0000000040239640                dsa_asn1_meths
                0x00000000402399e0                eckey_asn1_meth
                0x0000000040239aa0                hmac_asn1_meth
                0x000000004023abe0                CMS_Receipt_it
                0x000000004023ac20                CMS_ReceiptRequest_it
                0x000000004023ac60                CMS_ReceiptsFrom_it
                0x000000004023aca0                CMS_Attributes_Verify_it
                0x000000004023ace0                CMS_Attributes_Sign_it
                0x000000004023ad20                CMS_ContentInfo_it
                0x000000004023ad60                CMS_CompressedData_it
                0x000000004023ada0                CMS_AuthenticatedData_it
                0x000000004023ade0                CMS_EncryptedData_it
                0x000000004023ae20                CMS_DigestedData_it
                0x000000004023ae60                CMS_EnvelopedData_it
                0x000000004023aea0                CMS_RecipientInfo_it
                0x000000004023aee0                CMS_OtherRecipientInfo_it
                0x000000004023af20                CMS_PasswordRecipientInfo_it
                0x000000004023af60                CMS_KEKRecipientInfo_it
                0x000000004023afa0                CMS_KEKIdentifier_it
                0x000000004023afe0                CMS_KeyAgreeRecipientInfo_it
                0x000000004023b020                CMS_OriginatorIdentifierOrKey_it
                0x000000004023b060                CMS_OriginatorPublicKey_it
                0x000000004023b0a0                CMS_RecipientEncryptedKey_it
                0x000000004023b0e0                CMS_KeyAgreeRecipientIdentifier_it
                0x000000004023b120                CMS_RecipientKeyIdentifier_it
                0x000000004023b160                CMS_OtherKeyAttribute_it
                0x000000004023b1a0                CMS_KeyTransRecipientInfo_it
                0x000000004023b1e0                CMS_EncryptedContentInfo_it
                0x000000004023b220                CMS_OriginatorInfo_it
                0x000000004023b260                CMS_SignedData_it
                0x000000004023b2a0                CMS_RevocationInfoChoice_it
                0x000000004023b2e0                CMS_OtherRevocationInfoFormat_it
                0x000000004023b320                CMS_SignerInfo_it
                0x000000004023b360                CMS_EncapsulatedContentInfo_it
                0x000000004023b3a0                CMS_SignerIdentifier_it
                0x000000004023b3e0                CMS_CertificateChoices_it
                0x000000004023b420                CMS_OtherCertificateFormat_it
                0x000000004023b460                CMS_IssuerAndSerialNumber_it
                0x000000004023cca0                ASN1_TIME_it
                0x000000004023cd20                ASN1_version
                0x000000004023ce80                BF_version
                0x000000004023f020                CAST_version
                0x000000004023f0e0                CAST_S_table7
                0x000000004023f4e0                CAST_S_table6
                0x000000004023f8e0                CAST_S_table5
                0x000000004023fce0                CAST_S_table4
                0x00000000402400e0                CAST_S_table3
                0x00000000402404e0                CAST_S_table2
                0x00000000402408e0                CAST_S_table1
                0x0000000040240ce0                CAST_S_table0
                0x0000000040241320                DHparams_it
                0x0000000040241420                DSAPublicKey_it
                0x0000000040241460                dsa_pub_internal_it
                0x00000000402414a0                DSAparams_it
                0x00000000402414e0                DSAPrivateKey_it
                0x0000000040241520                DSA_SIG_it
                0x0000000040241940                DSA_version
                0x0000000040241980                EC_PRIVATEKEY_it
                0x00000000402419c0                ECPKPARAMETERS_it
                0x0000000040241a00                ECPARAMETERS_it
                0x0000000040241a40                X9_62_CURVE_it
                0x0000000040241a80                X9_62_FIELDID_it
                0x0000000040241ac0                X9_62_CHARACTERISTIC_TWO_it
                0x0000000040241b00                X9_62_PENTANOMIAL_it
                0x0000000040245ac0                ECDH_version
                0x0000000040245ec0                ECDSA_version
                0x00000000402461c0                RAND_version
                0x0000000040246200                NETSCAPE_CERT_SEQUENCE_it
                0x00000000402462e0                PBEPARAM_it
                0x0000000040246380                PBKDF2PARAM_it
                0x00000000402463c0                PBE2PARAM_it
                0x0000000040246500                PKCS8_PRIV_KEY_INFO_it
                0x00000000402466c0                AUTHORITY_KEYID_it
                0x0000000040246780                NOTICEREF_it
                0x00000000402467c0                USERNOTICE_it
                0x0000000040246800                POLICYQUALINFO_it
                0x0000000040246840                POLICYINFO_it
                0x0000000040246880                CERTIFICATEPOLICIES_it
                0x00000000402468c0                v3_cpols
                0x0000000040246be0                v3_idp
                0x0000000040246c60                ISSUING_DIST_POINT_it
                0x0000000040246ca0                CRL_DIST_POINTS_it
                0x0000000040246ce0                DIST_POINT_it
                0x0000000040246d20                DIST_POINT_NAME_it
                0x0000000040246d60                v3_freshest_crl
                0x0000000040246de0                v3_crld
                0x00000000402472a0                GENERAL_NAMES_it
                0x00000000402472e0                GENERAL_NAME_it
                0x0000000040247320                EDIPARTYNAME_it
                0x0000000040247360                OTHERNAME_it
                0x0000000040247620                NAME_CONSTRAINTS_it
                0x0000000040247660                GENERAL_SUBTREE_it
                0x00000000402476a0                v3_name_constraints
                0x0000000040247800                POLICY_CONSTRAINTS_it
                0x0000000040247840                v3_policy_constraints
                0x0000000040247920                POLICY_MAPPINGS_it
                0x0000000040247960                POLICY_MAPPING_it
                0x00000000402479a0                v3_policy_mappings
                0x0000000040247b20                X509_VAL_it
                0x00000000402485c0                ECDSA_SIG_it
                0x0000000040248660                PKCS12_AUTHSAFES_it
                0x00000000402486a0                PKCS12_SAFEBAGS_it
                0x00000000402486e0                PKCS12_SAFEBAG_it
                0x0000000040248720                PKCS12_BAGS_it
                0x0000000040248760                PKCS12_MAC_DATA_it
                0x00000000402487a0                PKCS12_it
                0x0000000040248de0                v3_alt
                0x0000000040248f20                BASIC_CONSTRAINTS_it
                0x0000000040248f60                v3_bcons
                0x0000000040249040                AUTHORITY_INFO_ACCESS_it
                0x0000000040249080                ACCESS_DESCRIPTION_it
                0x00000000402490c0                v3_sinfo
                0x0000000040249140                v3_info
                0x0000000040249260                v3_ocsp_serviceloc
                0x00000000402492e0                v3_ocsp_nocheck
                0x0000000040249360                v3_ocsp_nonce
                0x00000000402493e0                v3_crl_hold
                0x0000000040249460                v3_crl_invdate
                0x00000000402494e0                v3_ocsp_acutoff
                0x0000000040249560                v3_ocsp_crlid
                0x00000000402495e0                v3_pci
                0x0000000040249660                PROXY_CERT_INFO_EXTENSION_it
                0x00000000402496a0                PROXY_POLICY_it
                0x00000000402497a0                PKEY_USAGE_PERIOD_it
                0x00000000402497e0                v3_pkey_usage_period
                0x00000000402498c0                v3_skey_id
                0x0000000040249940                SXNET_it
                0x0000000040249980                SXNETID_it
                0x00000000402499c0                v3_sxnet
                0x0000000040249fa0                CONF_version
                0x0000000040249fe0                OCSP_SERVICELOC_it
                0x000000004024a020                OCSP_CRLID_it
                0x000000004024a060                OCSP_BASICRESP_it
                0x000000004024a0a0                OCSP_RESPDATA_it
                0x000000004024a0e0                OCSP_SINGLERESP_it
                0x000000004024a120                OCSP_CERTSTATUS_it
                0x000000004024a160                OCSP_REVOKEDINFO_it
                0x000000004024a1a0                OCSP_RESPID_it
                0x000000004024a1e0                OCSP_RESPONSE_it
                0x000000004024a220                OCSP_RESPBYTES_it
                0x000000004024a260                OCSP_REQUEST_it
                0x000000004024a2a0                OCSP_REQINFO_it
                0x000000004024a2e0                OCSP_ONEREQ_it
                0x000000004024a320                OCSP_CERTID_it
                0x000000004024a360                OCSP_SIGNATURE_it
                0x000000004024ab60                v3_akey_id
                0x000000004024abe0                v3_key_usage
                0x000000004024ac60                v3_nscert
                0x000000004024ace0                v3_crl_reason
                0x000000004024ad60                EXTENDED_KEY_USAGE_it
                0x000000004024ada0                v3_ocsp_accresp
                0x000000004024ae20                v3_ext_ku
                0x000000004024aee0                v3_ns_ia5_list
                0x000000004024b220                v3_inhibit_anyp
                0x000000004024b2a0                v3_delta_crl
                0x000000004024b320                v3_crl_num
                0x000000004024b3a0                CONF_def_version

.rodata.str1.8  0x000000004024b3d0     0x98d8 load address 0x000000000024b3d0
 .rodata.str1.8
                0x000000004024b3d0     0x98d8 output.o
                                       0x9bfd (size before relaxing)

.rodata.str1.1  0x0000000040254ca8    0x12c58 load address 0x0000000000254ca8
 .rodata.str1.1
                0x0000000040254ca8    0x12c58 output.o
                                      0x15082 (size before relaxing)

.eh_frame       0x0000000040267900    0x37180 load address 0x0000000000267900
 .eh_frame      0x0000000040267900    0x37180 output.o

.eh_frame_hdr   0x000000004029ea80        0x8 load address 0x000000000029ea80
 .eh_frame_hdr  0x000000004029ea80        0x8 output.o

.note.gnu.build-id
                0x000000004029ea88      0x288 load address 0x000000000029ea88
 .note.gnu.build-id
                0x000000004029ea88      0x288 output.o

.rela.dyn       0x000000004029ed10        0x0 load address 0x000000000029ed10
 .rela.iplt     0x0000000000000000        0x0 output.o
 .rela.text     0x0000000000000000        0x0 output.o

.data           0x000000004029f000  0x9837000 load address 0x000000000029f000
                0x000000004029f000                data = .
 *(.data)
 .data          0x000000004029f000   0x9eaa3c output.o
                0x000000004029f020                config
                0x00000000402af190                use_pae
                0x00000000402af3b0                savemsr_index
                0x00000000402b0000                vmm_pml4
                0x00000000402b1000                vmm_pdp
                0x00000000402b2000                vmm_pd
                0x00000000402b3000                vmm_pd1
                0x00000000402b4000                vmm_pd2
                0x00000000402b5000                guest_int0x15_hook
                0x00000000402b501d                guest_int0x15_e801_fake_ax
                0x00000000402b5020                guest_int0x15_e801_fake_bx
                0x00000000402b5031                guest_int0x15_orig
                0x00000000402b5046                guest_int0x15_e820_data_minus0x18
                0x00000000402b504e                guest_int0x15_e820_end
                0x00000000402b5074                guest_int0x15_hook_end
                0x00000000402b6078                wakeup_entry_start
                0x00000000402b6081                wakeup_entry_addr
                0x00000000402b60a7                wakeup_entry_cr4
                0x00000000402b60b0                wakeup_entry_cr3
                0x00000000402b60b9                wakeup_entry_cr0
                0x00000000402b60c8                wakeup_entry_gdtr
                0x00000000402b60d2                wakeup_entry_end
                0x00000000402b60d4                ept_spinlock
                0x00000000402b6160                ata_bm_handler_table
                0x00000000402b61c0                ata_ctlblk_handler_table
                0x00000000402b61e0                ata_cmdblk_handler_table
                0x00000000402b6c70                usb_log_level
                0x00000000402b7600                hSessionCnt
                0x00000000402b7608                hObjectCnt
                0x00000000402b7e00                g_rgSCardT1Pci
                0x00000000402b7e10                g_rgSCardT0Pci
                0x00000000402b7e20                FI
                0x00000000402b7e60                DI
                0x00000000402bc480                default_pctx
                0x00000000402bf720                rand_ssleay_meth
                0x0000000040c89a40                . = ALIGN (0x8)
 *fill*         0x0000000040c89a3c        0x4 
                0x0000000040c89a40                __initfunc_start = .
 *(.initfunc)
 .initfunc      0x0000000040c89a40      0x640 output.o
                0x0000000040c89a40                __initfunc_acpi_init_paral
                0x0000000040c89a50                __initfunc_acpi_init_global
                0x0000000040c89a60                __initfunc_beep_init_msg
                0x0000000040c89a70                __initfunc_cache_init_pass
                0x0000000040c89a80                __initfunc_cache_init_vcpu
                0x0000000040c89a90                __initfunc_cache_init_pcpu
                0x0000000040c89aa0                __initfunc_callrealmode_panic
                0x0000000040c89ab0                __initfunc_callrealmode_init_global
                0x0000000040c89ac0                __initfunc_cpu_mmu_spt_init_pcpu
                0x0000000040c89ad0                __initfunc_cpu_mmu_spt_init_global
                0x0000000040c89ae0                __initfunc_cpuid_init
                0x0000000040c89af0                __initfunc_cpuid_pass_init
                0x0000000040c89b00                __initfunc_exint_pass_init
                0x0000000040c89b10                __initfunc_gmm_pass_init
                0x0000000040c89b20                __initfunc_install_int0x15_hook
                0x0000000040c89b30                __initfunc_idman_init
                0x0000000040c89b40                __initfunc_idman_init_global
                0x0000000040c89b50                __initfunc_int_wakeup
                0x0000000040c89b60                __initfunc_int_init_global
                0x0000000040c89b70                __initfunc_io_io_init
                0x0000000040c89b80                __initfunc_setiohooks
                0x0000000040c89b90                __initfunc_io_iopass_init
                0x0000000040c89ba0                __initfunc_keyboard_init_msg
                0x0000000040c89bb0                __initfunc_localapic_init
                0x0000000040c89bc0                __initfunc_get_shiftflags
                0x0000000040c89bd0                __initfunc_copy_minios
                0x0000000040c89be0                __initfunc_print_boot_msg
                0x0000000040c89bf0                __initfunc_debug_on_shift_key
                0x0000000040c89c00                __initfunc_create_pass_vm
                0x0000000040c89c10                __initfunc_virtualization_init_pcpu
                0x0000000040c89c20                __initfunc_unmap_user_area
                0x0000000040c89c30                __initfunc_mm_init_global
                0x0000000040c89c40                __initfunc_mmio_debug
                0x0000000040c89c50                __initfunc_mmio_init
                0x0000000040c89c60                __initfunc_msg_init_global
                0x0000000040c89c70                __initfunc_msr_init
                0x0000000040c89c80                __initfunc_msr_pass_init
                0x0000000040c89c90                __initfunc_nmi_pass_init_pcpu
                0x0000000040c89ca0                __initfunc_nmi_pass_init
                0x0000000040c89cb0                __initfunc_panic_init_pcpu
                0x0000000040c89cc0                __initfunc_panic_init_msg
                0x0000000040c89cd0                __initfunc_panic_init_global3
                0x0000000040c89ce0                __initfunc_panic_init_global
                0x0000000040c89cf0                __initfunc_printf_init_global
                0x0000000040c89d00                __initfunc_process_wakeup
                0x0000000040c89d10                __initfunc_process_init_ap
                0x0000000040c89d20                __initfunc_process_init_global
                0x0000000040c89d30                __initfunc_random_init_config0
                0x0000000040c89d40                __initfunc_random_init_global
                0x0000000040c89d50                __initfunc_reboot_init_msg
                0x0000000040c89d60                __initfunc_segment_init_global
                0x0000000040c89d70                __initfunc_serial_init_msg
                0x0000000040c89d80                __initfunc_sleep_init_msg
                0x0000000040c89d90                __initfunc_sleep_init_global
                0x0000000040c89da0                __initfunc_svm_panic
                0x0000000040c89db0                __initfunc_sx_init_pass_init
                0x0000000040c89dc0                __initfunc_thread_init_pcpu
                0x0000000040c89dd0                __initfunc_thread_init_global
                0x0000000040c89de0                __initfunc_time_init_msg
                0x0000000040c89df0                __initfunc_time_init_pcpu
                0x0000000040c89e00                __initfunc_time_init_global_status
                0x0000000040c89e10                __initfunc_time_init_global
                0x0000000040c89e20                __initfunc_timer_init_global
                0x0000000040c89e30                __initfunc_tty_init_msg
                0x0000000040c89e40                __initfunc_tty_init_global2
                0x0000000040c89e50                __initfunc_tty_init_global
                0x0000000040c89e60                __initfunc_vcpu_init_global
                0x0000000040c89e70                __initfunc_vga_init
                0x0000000040c89e80                __initfunc_vmmcall_init
                0x0000000040c89e90                __initfunc_vmmcall_boot_init
                0x0000000040c89ea0                __initfunc_vmmcall_dbgsh_init_pcpu
                0x0000000040c89eb0                __initfunc_vmmcall_dbgsh_init_global
                0x0000000040c89ec0                __initfunc_vmmcall_dbgsh_init
                0x0000000040c89ed0                __initfunc_vmmcall_iccard_init
                0x0000000040c89ee0                __initfunc_vmmcall_log_init
                0x0000000040c89ef0                __initfunc_vmmcall_status_init
                0x0000000040c89f00                __initfunc_vmmcall_status_init_global
                0x0000000040c89f10                __initfunc_vramwrite_init_bsp
                0x0000000040c89f20                __initfunc_vramwrite_init_msg
                0x0000000040c89f30                __initfunc_vt_register_status_callback
                0x0000000040c89f40                __initfunc_vt_panic
                0x0000000040c89f50                __initfunc_xsetbv_init
                0x0000000040c89f60                __initfunc_xsetbv_pass_init
                0x0000000040c89f70                __initfunc_core_init
                0x0000000040c89f80                __initfunc_ieee1394_init_boot
                0x0000000040c89f90                __initfunc_ieee1394_init
                0x0000000040c89fa0                __initfunc_iommu_setup
                0x0000000040c89fb0                __initfunc_pci_init
                0x0000000040c89fc0                __initfunc_debug_ata_init
                0x0000000040c89fd0                __initfunc_ata_init
                0x0000000040c89fe0                __initfunc_uhci_init
                0x0000000040c89ff0                __initfunc_ehci_init
                0x0000000040c8a000                __initfunc_pro100_init
                0x0000000040c8a010                __initfunc_suspend_pro1000
                0x0000000040c8a020                __initfunc_resume_pro1000
                0x0000000040c8a030                __initfunc_vpn_pro1000_init
                0x0000000040c8a040                __initfunc_storage_kernel_init
                0x0000000040c8a050                __initfunc_storage_io_initfunc
                0x0000000040c8a060                __initfunc_vpn_kernel_init
                0x0000000040c8a070                __initfunc_idman_kernel_init
                0x0000000040c8a080                __initfunc_end = .
                0x0000000040c8a080                __process_builtin = .
 *(.processes)
 .processes     0x0000000040c8a080      0x1a0 output.o
                0x0000000040c8a220                __process_builtin_end = .
                0x0000000040c8a220                bss = .
 *(.bss)
 .bss           0x0000000040c8a220  0x8e4a800 output.o
                0x0000000040c8da40                vmmsize
                0x0000000040c8da48                memorysize
                0x00000000411914e0                pcpu_default
                0x00000000411aed04                ps2_locked
                0x00000000411af1a8                protecting
                0x00000000411af1b0                syscallHandlerAddress
                0x00000000411af1c0                currentProtectedApplication
                0x00000000411af1c8                target
                0x00000000411af1d0                numberOfVMs
                0x00000000411af1d8                numberOfProtectedApplications
                0x00000000411af1e0                currentRunningApplication
                0x00000000499af940                syscall_metatata_table
                0x00000000499af960                handler_descriptor
                0x00000000499afb68                drhd_list_head
                0x00000000499b13a0                pci_driver_list_head
                0x00000000499b13a8                pci_device_list_head
                0x00000000499b1550                uhci_monitor_boost_hc
                0x00000000499b1568                usb_hc_list_head
                0x00000000499b1570                usb_busses_head
                0x00000000499b8e68                rt
                0x0000000049ad2890                hContext
                0x0000000049ad2898                sessionTable
                0x0000000049ad28a0                slotTable
                0x0000000049ad28a8                slotFlag
                0x0000000049ad28a9                libInitFlag
                0x0000000049ad3500                OPENSSL_NONPIC_relocated
                0x0000000049ad3508                OPENSSL_ia32cap_P
                0x0000000049ad4148                cleanse_ctr
                0x0000000049ad41a8                obj_cleanup_defer
                0x0000000049ad41c8                _shadow_DES_check_key
                0x0000000049ad42c8                app_pkey_methods
                0x0000000049ad4320                chelp_inited
 *(COMMON)
 COMMON         0x0000000049ad4a20     0x12c4 output.o
                0x0000000049ad4a20                clflush_size
                0x0000000049ad4a40                sReaderContext
                0x0000000049ad4aa0                sigx_app
                0x0000000049ad4aa8                num_dom
                0x0000000049ad4ac0                mszReaders
                0x0000000049ad4ec0                zero_page_pool
                0x0000000049ad52c0                prohibit_iccard_init
                0x0000000049ad52c8                curthread
                0x0000000049ad52d0                sig_app
                0x0000000049ad52e0                readerState
                0x0000000049ad5360                dom_io
                0x0000000049ad5b60                acpi_dsdt_system_state
                0x0000000049ad5b80                ehci_host
                0x0000000049ad5b88                num_of_processors
                0x0000000049ad5b8c                e801_fake_bx
                0x0000000049ad5b8e                iommu_detected
                0x0000000049ad5b90                dwReaders
                0x0000000049ad5ba0                readerTracker
                0x0000000049ad5ce0                handler_descriptor_lock
                0x0000000049ad5ce2                e801_fake_ax
                0x0000000049ad6000                . = ALIGN (0x1000)
 *fill*         0x0000000049ad5ce4      0x31c 

.igot.plt       0x0000000049ad6000        0x0 load address 0x0000000009ad6000
 .igot.plt      0x0000000000000000        0x0 output.o
                0x0000000049ad6000                . = ALIGN (0x1000)
                0x0000000049ad6000                PAGE_POOL_START = .
                0x0000000049ed6000                . = (PAGE_POOL_START + 0x400000)
                0x0000000049ed6000                end = .

/DISCARD/
 *(.gomi)
LOAD output.o
OUTPUT(bitvisor.elf elf64-x86-64)

.comment        0x0000000000000000       0x55
 .comment       0x0000000000000000       0x55 output.o
                                       0x5e74 (size before relaxing)

.note.GNU-stack
                0x0000000000000000        0x0
 .note.GNU-stack
                0x0000000000000000        0x0 output.o

.debug_aranges  0x0000000000000000     0x6a80
 .debug_aranges
                0x0000000000000000     0x6a80 output.o

.debug_info     0x0000000000000000   0x2c7029
 .debug_info    0x0000000000000000   0x2c7029 output.o

.debug_abbrev   0x0000000000000000    0x49aba
 .debug_abbrev  0x0000000000000000    0x49aba output.o

.debug_line     0x0000000000000000    0x4e820
 .debug_line    0x0000000000000000    0x4e820 output.o

.debug_str      0x0000000000000000    0x370a6
 .debug_str     0x0000000000000000    0x370a6 output.o
                                     0x131983 (size before relaxing)

.debug_loc      0x0000000000000000   0x244c3a
 .debug_loc     0x0000000000000000   0x244c3a output.o

.debug_ranges   0x0000000000000000     0x6360
 .debug_ranges  0x0000000000000000     0x6360 output.o

Cross Reference Table

Symbol                                            File
ACCESS_DESCRIPTION_free                           output.o
ACCESS_DESCRIPTION_it                             output.o
ACCESS_DESCRIPTION_new                            output.o
AES_cbc_encrypt                                   output.o
AES_cfb128_encrypt                                output.o
AES_cfb1_encrypt                                  output.o
AES_cfb8_encrypt                                  output.o
AES_decrypt                                       output.o
AES_ecb_encrypt                                   output.o
AES_encrypt                                       output.o
AES_ofb128_encrypt                                output.o
AES_set_decrypt_key                               output.o
AES_set_encrypt_key                               output.o
AES_unwrap_key                                    output.o
AES_wrap_key                                      output.o
ASN1_ANY_it                                       output.o
ASN1_BIT_STRING_check                             output.o
ASN1_BIT_STRING_free                              output.o
ASN1_BIT_STRING_get_bit                           output.o
ASN1_BIT_STRING_it                                output.o
ASN1_BIT_STRING_new                               output.o
ASN1_BIT_STRING_set                               output.o
ASN1_BIT_STRING_set_bit                           output.o
ASN1_BMPSTRING_free                               output.o
ASN1_BMPSTRING_it                                 output.o
ASN1_BMPSTRING_new                                output.o
ASN1_BOOLEAN_it                                   output.o
ASN1_ENUMERATED_free                              output.o
ASN1_ENUMERATED_get                               output.o
ASN1_ENUMERATED_it                                output.o
ASN1_ENUMERATED_new                               output.o
ASN1_ENUMERATED_set                               output.o
ASN1_ENUMERATED_to_BN                             output.o
ASN1_FBOOLEAN_it                                  output.o
ASN1_GENERALIZEDTIME_adj                          output.o
ASN1_GENERALIZEDTIME_check                        output.o
ASN1_GENERALIZEDTIME_free                         output.o
ASN1_GENERALIZEDTIME_it                           output.o
ASN1_GENERALIZEDTIME_new                          output.o
ASN1_GENERALIZEDTIME_print                        output.o
ASN1_GENERALIZEDTIME_set                          output.o
ASN1_GENERALIZEDTIME_set_string                   output.o
ASN1_GENERALSTRING_free                           output.o
ASN1_GENERALSTRING_it                             output.o
ASN1_GENERALSTRING_new                            output.o
ASN1_IA5STRING_free                               output.o
ASN1_IA5STRING_it                                 output.o
ASN1_IA5STRING_new                                output.o
ASN1_INTEGER_cmp                                  output.o
ASN1_INTEGER_dup                                  output.o
ASN1_INTEGER_free                                 output.o
ASN1_INTEGER_get                                  output.o
ASN1_INTEGER_it                                   output.o
ASN1_INTEGER_new                                  output.o
ASN1_INTEGER_set                                  output.o
ASN1_INTEGER_to_BN                                output.o
ASN1_NULL_free                                    output.o
ASN1_NULL_it                                      output.o
ASN1_NULL_new                                     output.o
ASN1_OBJECT_create                                output.o
ASN1_OBJECT_free                                  output.o
ASN1_OBJECT_it                                    output.o
ASN1_OBJECT_new                                   output.o
ASN1_OCTET_STRING_NDEF_it                         output.o
ASN1_OCTET_STRING_cmp                             output.o
ASN1_OCTET_STRING_dup                             output.o
ASN1_OCTET_STRING_free                            output.o
ASN1_OCTET_STRING_it                              output.o
ASN1_OCTET_STRING_new                             output.o
ASN1_OCTET_STRING_set                             output.o
ASN1_PCTX_free                                    output.o
ASN1_PCTX_get_cert_flags                          output.o
ASN1_PCTX_get_flags                               output.o
ASN1_PCTX_get_nm_flags                            output.o
ASN1_PCTX_get_oid_flags                           output.o
ASN1_PCTX_get_str_flags                           output.o
ASN1_PCTX_new                                     output.o
ASN1_PCTX_set_cert_flags                          output.o
ASN1_PCTX_set_flags                               output.o
ASN1_PCTX_set_nm_flags                            output.o
ASN1_PCTX_set_oid_flags                           output.o
ASN1_PCTX_set_str_flags                           output.o
ASN1_PRINTABLESTRING_free                         output.o
ASN1_PRINTABLESTRING_it                           output.o
ASN1_PRINTABLESTRING_new                          output.o
ASN1_PRINTABLE_free                               output.o
ASN1_PRINTABLE_it                                 output.o
ASN1_PRINTABLE_new                                output.o
ASN1_PRINTABLE_type                               output.o
ASN1_SEQUENCE_ANY_it                              output.o
ASN1_SEQUENCE_it                                  output.o
ASN1_SET_ANY_it                                   output.o
ASN1_STRING_TABLE_add                             output.o
ASN1_STRING_TABLE_cleanup                         output.o
ASN1_STRING_TABLE_get                             output.o
ASN1_STRING_cmp                                   output.o
ASN1_STRING_copy                                  output.o
ASN1_STRING_data                                  output.o
ASN1_STRING_dup                                   output.o
ASN1_STRING_free                                  output.o
ASN1_STRING_get_default_mask                      output.o
ASN1_STRING_length                                output.o
ASN1_STRING_length_set                            output.o
ASN1_STRING_new                                   output.o
ASN1_STRING_print                                 output.o
ASN1_STRING_print_ex                              output.o
ASN1_STRING_set                                   output.o
ASN1_STRING_set0                                  output.o
ASN1_STRING_set_by_NID                            output.o
ASN1_STRING_set_default_mask                      output.o
ASN1_STRING_set_default_mask_asc                  output.o
ASN1_STRING_to_UTF8                               output.o
ASN1_STRING_type                                  output.o
ASN1_STRING_type_new                              output.o
ASN1_T61STRING_free                               output.o
ASN1_T61STRING_it                                 output.o
ASN1_T61STRING_new                                output.o
ASN1_TBOOLEAN_it                                  output.o
ASN1_TIME_adj                                     output.o
ASN1_TIME_check                                   output.o
ASN1_TIME_free                                    output.o
ASN1_TIME_it                                      output.o
ASN1_TIME_new                                     output.o
ASN1_TIME_print                                   output.o
ASN1_TIME_set                                     output.o
ASN1_TIME_set_string                              output.o
ASN1_TIME_to_generalizedtime                      output.o
ASN1_TYPE_cmp                                     output.o
ASN1_TYPE_free                                    output.o
ASN1_TYPE_get                                     output.o
ASN1_TYPE_get_int_octetstring                     output.o
ASN1_TYPE_get_octetstring                         output.o
ASN1_TYPE_new                                     output.o
ASN1_TYPE_set                                     output.o
ASN1_TYPE_set1                                    output.o
ASN1_TYPE_set_int_octetstring                     output.o
ASN1_TYPE_set_octetstring                         output.o
ASN1_UNIVERSALSTRING_free                         output.o
ASN1_UNIVERSALSTRING_it                           output.o
ASN1_UNIVERSALSTRING_new                          output.o
ASN1_UNIVERSALSTRING_to_string                    output.o
ASN1_UTCTIME_adj                                  output.o
ASN1_UTCTIME_check                                output.o
ASN1_UTCTIME_cmp_time_t                           output.o
ASN1_UTCTIME_free                                 output.o
ASN1_UTCTIME_it                                   output.o
ASN1_UTCTIME_new                                  output.o
ASN1_UTCTIME_print                                output.o
ASN1_UTCTIME_set                                  output.o
ASN1_UTCTIME_set_string                           output.o
ASN1_UTF8STRING_free                              output.o
ASN1_UTF8STRING_it                                output.o
ASN1_UTF8STRING_new                               output.o
ASN1_VISIBLESTRING_free                           output.o
ASN1_VISIBLESTRING_it                             output.o
ASN1_VISIBLESTRING_new                            output.o
ASN1_bn_print                                     output.o
ASN1_check_infinite_end                           output.o
ASN1_const_check_infinite_end                     output.o
ASN1_d2i_bio                                      output.o
ASN1_digest                                       output.o
ASN1_dup                                          output.o
ASN1_generate_nconf                               output.o
ASN1_generate_v3                                  output.o
ASN1_get_object                                   output.o
ASN1_i2d_bio                                      output.o
ASN1_item_d2i                                     output.o
ASN1_item_d2i_bio                                 output.o
ASN1_item_digest                                  output.o
ASN1_item_dup                                     output.o
ASN1_item_ex_d2i                                  output.o
ASN1_item_ex_free                                 output.o
ASN1_item_ex_i2d                                  output.o
ASN1_item_ex_new                                  output.o
ASN1_item_free                                    output.o
ASN1_item_i2d                                     output.o
ASN1_item_i2d_bio                                 output.o
ASN1_item_ndef_i2d                                output.o
ASN1_item_new                                     output.o
ASN1_item_pack                                    output.o
ASN1_item_print                                   output.o
ASN1_item_sign                                    output.o
ASN1_item_unpack                                  output.o
ASN1_item_verify                                  output.o
ASN1_mbstring_copy                                output.o
ASN1_mbstring_ncopy                               output.o
ASN1_object_size                                  output.o
ASN1_pack_string                                  output.o
ASN1_parse                                        output.o
ASN1_parse_dump                                   output.o
ASN1_primitive_free                               output.o
ASN1_primitive_new                                output.o
ASN1_put_eoc                                      output.o
ASN1_put_object                                   output.o
ASN1_seq_pack                                     output.o
ASN1_seq_unpack                                   output.o
ASN1_sign                                         output.o
ASN1_tag2bit                                      output.o
ASN1_tag2str                                      output.o
ASN1_template_d2i                                 output.o
ASN1_template_free                                output.o
ASN1_template_i2d                                 output.o
ASN1_template_new                                 output.o
ASN1_unpack_string                                output.o
ASN1_verify                                       output.o
ASN1_version                                      output.o
AUTHORITY_INFO_ACCESS_free                        output.o
AUTHORITY_INFO_ACCESS_it                          output.o
AUTHORITY_INFO_ACCESS_new                         output.o
AUTHORITY_KEYID_free                              output.o
AUTHORITY_KEYID_it                                output.o
AUTHORITY_KEYID_new                               output.o
AddCertDataByBuf                                  output.o
AddElem                                           output.o
AddIdPassDataByBuf                                output.o
AddObjTblByTlv                                    output.o
BASIC_CONSTRAINTS_free                            output.o
BASIC_CONSTRAINTS_it                              output.o
BASIC_CONSTRAINTS_new                             output.o
BF_cbc_encrypt                                    output.o
BF_cfb64_encrypt                                  output.o
BF_decrypt                                        output.o
BF_ecb_encrypt                                    output.o
BF_encrypt                                        output.o
BF_ofb64_encrypt                                  output.o
BF_options                                        output.o
BF_set_key                                        output.o
BF_version                                        output.o
BIGNUM_it                                         output.o
BIO_asn1_get_prefix                               output.o
BIO_asn1_get_suffix                               output.o
BIO_asn1_set_prefix                               output.o
BIO_asn1_set_suffix                               output.o
BIO_callback_ctrl                                 output.o
BIO_clear_flags                                   output.o
BIO_copy_next_retry                               output.o
BIO_ctrl                                          output.o
BIO_ctrl_pending                                  output.o
BIO_ctrl_wpending                                 output.o
BIO_dump                                          output.o
BIO_dump_cb                                       output.o
BIO_dump_indent                                   output.o
BIO_dump_indent_cb                                output.o
BIO_dup_chain                                     output.o
BIO_f_asn1                                        output.o
BIO_f_base64                                      output.o
BIO_f_buffer                                      output.o
BIO_f_cipher                                      output.o
BIO_f_md                                          output.o
BIO_find_type                                     output.o
BIO_free                                          output.o
BIO_free_all                                      output.o
BIO_get_callback                                  output.o
BIO_get_callback_arg                              output.o
BIO_get_ex_data                                   output.o
BIO_get_ex_new_index                              output.o
BIO_get_retry_BIO                                 output.o
BIO_get_retry_reason                              output.o
BIO_gets                                          output.o
BIO_indent                                        output.o
BIO_int_ctrl                                      output.o
BIO_method_name                                   output.o
BIO_method_type                                   output.o
BIO_new                                           output.o
BIO_new_CMS                                       output.o
BIO_new_NDEF                                      output.o
BIO_new_mem_buf                                   output.o
BIO_next                                          output.o
BIO_number_read                                   output.o
BIO_number_written                                output.o
BIO_pop                                           output.o
BIO_printf                                        output.o
BIO_ptr_ctrl                                      output.o
BIO_push                                          output.o
BIO_puts                                          output.o
BIO_read                                          output.o
BIO_s_mem                                         output.o
BIO_s_null                                        output.o
BIO_set                                           output.o
BIO_set_callback                                  output.o
BIO_set_callback_arg                              output.o
BIO_set_cipher                                    output.o
BIO_set_ex_data                                   output.o
BIO_set_flags                                     output.o
BIO_snprintf                                      output.o
BIO_test_flags                                    output.o
BIO_vfree                                         output.o
BIO_write                                         output.o
BN_BLINDING_convert                               output.o
BN_BLINDING_convert_ex                            output.o
BN_BLINDING_create_param                          output.o
BN_BLINDING_free                                  output.o
BN_BLINDING_get_flags                             output.o
BN_BLINDING_get_thread_id                         output.o
BN_BLINDING_invert                                output.o
BN_BLINDING_invert_ex                             output.o
BN_BLINDING_new                                   output.o
BN_BLINDING_set_flags                             output.o
BN_BLINDING_set_thread_id                         output.o
BN_BLINDING_thread_id                             output.o
BN_BLINDING_update                                output.o
BN_CTX_end                                        output.o
BN_CTX_free                                       output.o
BN_CTX_get                                        output.o
BN_CTX_init                                       output.o
BN_CTX_new                                        output.o
BN_CTX_start                                      output.o
BN_GENCB_call                                     output.o
BN_GF2m_add                                       output.o
BN_GF2m_arr2poly                                  output.o
BN_GF2m_mod                                       output.o
BN_GF2m_mod_arr                                   output.o
BN_GF2m_mod_div                                   output.o
BN_GF2m_mod_div_arr                               output.o
BN_GF2m_mod_exp                                   output.o
BN_GF2m_mod_exp_arr                               output.o
BN_GF2m_mod_inv                                   output.o
BN_GF2m_mod_inv_arr                               output.o
BN_GF2m_mod_mul                                   output.o
BN_GF2m_mod_mul_arr                               output.o
BN_GF2m_mod_solve_quad                            output.o
BN_GF2m_mod_solve_quad_arr                        output.o
BN_GF2m_mod_sqr                                   output.o
BN_GF2m_mod_sqr_arr                               output.o
BN_GF2m_mod_sqrt                                  output.o
BN_GF2m_mod_sqrt_arr                              output.o
BN_GF2m_poly2arr                                  output.o
BN_MONT_CTX_copy                                  output.o
BN_MONT_CTX_free                                  output.o
BN_MONT_CTX_init                                  output.o
BN_MONT_CTX_new                                   output.o
BN_MONT_CTX_set                                   output.o
BN_MONT_CTX_set_locked                            output.o
BN_RECP_CTX_free                                  output.o
BN_RECP_CTX_init                                  output.o
BN_RECP_CTX_new                                   output.o
BN_RECP_CTX_set                                   output.o
BN_add                                            output.o
BN_add_word                                       output.o
BN_asc2bn                                         output.o
BN_bin2bn                                         output.o
BN_bn2bin                                         output.o
BN_bn2dec                                         output.o
BN_bn2hex                                         output.o
BN_bntest_rand                                    output.o
BN_clear                                          output.o
BN_clear_bit                                      output.o
BN_clear_free                                     output.o
BN_cmp                                            output.o
BN_copy                                           output.o
BN_dec2bn                                         output.o
BN_div                                            output.o
BN_div_recp                                       output.o
BN_div_word                                       output.o
BN_dup                                            output.o
BN_exp                                            output.o
BN_free                                           output.o
BN_from_montgomery                                output.o
BN_gcd                                            output.o
BN_generate_prime_ex                              output.o
BN_get0_nist_prime_192                            output.o
BN_get0_nist_prime_224                            output.o
BN_get0_nist_prime_256                            output.o
BN_get0_nist_prime_384                            output.o
BN_get0_nist_prime_521                            output.o
BN_get_params                                     output.o
BN_get_word                                       output.o
BN_hex2bn                                         output.o
BN_init                                           output.o
BN_is_bit_set                                     output.o
BN_is_prime_ex                                    output.o
BN_is_prime_fasttest_ex                           output.o
BN_kronecker                                      output.o
BN_lshift                                         output.o
BN_lshift1                                        output.o
BN_mask_bits                                      output.o
BN_mod_add                                        output.o
BN_mod_add_quick                                  output.o
BN_mod_exp                                        output.o
BN_mod_exp2_mont                                  output.o
BN_mod_exp_mont                                   output.o
BN_mod_exp_mont_consttime                         output.o
BN_mod_exp_mont_word                              output.o
BN_mod_exp_recp                                   output.o
BN_mod_exp_simple                                 output.o
BN_mod_inverse                                    output.o
BN_mod_lshift                                     output.o
BN_mod_lshift1                                    output.o
BN_mod_lshift1_quick                              output.o
BN_mod_lshift_quick                               output.o
BN_mod_mul                                        output.o
BN_mod_mul_montgomery                             output.o
BN_mod_mul_reciprocal                             output.o
BN_mod_sqr                                        output.o
BN_mod_sqrt                                       output.o
BN_mod_sub                                        output.o
BN_mod_sub_quick                                  output.o
BN_mod_word                                       output.o
BN_mul                                            output.o
BN_mul_word                                       output.o
BN_new                                            output.o
BN_nist_mod_192                                   output.o
BN_nist_mod_224                                   output.o
BN_nist_mod_256                                   output.o
BN_nist_mod_384                                   output.o
BN_nist_mod_521                                   output.o
BN_nnmod                                          output.o
BN_num_bits                                       output.o
BN_num_bits_word                                  output.o
BN_options                                        output.o
BN_print                                          output.o
BN_pseudo_rand                                    output.o
BN_pseudo_rand_range                              output.o
BN_rand                                           output.o
BN_rand_range                                     output.o
BN_reciprocal                                     output.o
BN_rshift                                         output.o
BN_rshift1                                        output.o
BN_set_bit                                        output.o
BN_set_negative                                   output.o
BN_set_params                                     output.o
BN_set_word                                       output.o
BN_sqr                                            output.o
BN_sub                                            output.o
BN_sub_word                                       output.o
BN_swap                                           output.o
BN_to_ASN1_ENUMERATED                             output.o
BN_to_ASN1_INTEGER                                output.o
BN_uadd                                           output.o
BN_ucmp                                           output.o
BN_usub                                           output.o
BN_value_one                                      output.o
BN_version                                        output.o
BUF_MEM_free                                      output.o
BUF_MEM_grow                                      output.o
BUF_MEM_grow_clean                                output.o
BUF_MEM_new                                       output.o
BUF_memdup                                        output.o
BUF_reverse                                       output.o
BUF_strdup                                        output.o
BUF_strlcat                                       output.o
BUF_strlcpy                                       output.o
BUF_strndup                                       output.o
BlockSendCardT1                                   output.o
CAST_S_table0                                     output.o
CAST_S_table1                                     output.o
CAST_S_table2                                     output.o
CAST_S_table3                                     output.o
CAST_S_table4                                     output.o
CAST_S_table5                                     output.o
CAST_S_table6                                     output.o
CAST_S_table7                                     output.o
CAST_cbc_encrypt                                  output.o
CAST_cfb64_encrypt                                output.o
CAST_decrypt                                      output.o
CAST_ecb_encrypt                                  output.o
CAST_encrypt                                      output.o
CAST_ofb64_encrypt                                output.o
CAST_set_key                                      output.o
CAST_version                                      output.o
CBIGNUM_it                                        output.o
CERTIFICATEPOLICIES_free                          output.o
CERTIFICATEPOLICIES_it                            output.o
CERTIFICATEPOLICIES_new                           output.o
CMS_Attributes_Sign_it                            output.o
CMS_Attributes_Verify_it                          output.o
CMS_AuthenticatedData_it                          output.o
CMS_CertificateChoices_it                         output.o
CMS_CompressedData_it                             output.o
CMS_ContentInfo_free                              output.o
CMS_ContentInfo_it                                output.o
CMS_ContentInfo_new                               output.o
CMS_ContentInfo_print_ctx                         output.o
CMS_DigestedData_it                               output.o
CMS_EncapsulatedContentInfo_it                    output.o
CMS_EncryptedContentInfo_it                       output.o
CMS_EncryptedData_it                              output.o
CMS_EncryptedData_set1_key                        output.o
CMS_EnvelopedData_create                          output.o
CMS_EnvelopedData_it                              output.o
CMS_IssuerAndSerialNumber_it                      output.o
CMS_KEKIdentifier_it                              output.o
CMS_KEKRecipientInfo_it                           output.o
CMS_KeyAgreeRecipientIdentifier_it                output.o
CMS_KeyAgreeRecipientInfo_it                      output.o
CMS_KeyTransRecipientInfo_it                      output.o
CMS_OriginatorIdentifierOrKey_it                  output.o
CMS_OriginatorInfo_it                             output.o
CMS_OriginatorPublicKey_it                        output.o
CMS_OtherCertificateFormat_it                     output.o
CMS_OtherKeyAttribute_it                          output.o
CMS_OtherRecipientInfo_it                         output.o
CMS_OtherRevocationInfoFormat_it                  output.o
CMS_PasswordRecipientInfo_it                      output.o
CMS_ReceiptRequest_it                             output.o
CMS_Receipt_it                                    output.o
CMS_ReceiptsFrom_it                               output.o
CMS_RecipientEncryptedKey_it                      output.o
CMS_RecipientInfo_decrypt                         output.o
CMS_RecipientInfo_it                              output.o
CMS_RecipientInfo_kekri_get0_id                   output.o
CMS_RecipientInfo_kekri_id_cmp                    output.o
CMS_RecipientInfo_ktri_cert_cmp                   output.o
CMS_RecipientInfo_ktri_get0_algs                  output.o
CMS_RecipientInfo_ktri_get0_signer_id             output.o
CMS_RecipientInfo_set0_key                        output.o
CMS_RecipientInfo_set0_pkey                       output.o
CMS_RecipientInfo_type                            output.o
CMS_RecipientKeyIdentifier_it                     output.o
CMS_RevocationInfoChoice_it                       output.o
CMS_SignedData_init                               output.o
CMS_SignedData_it                                 output.o
CMS_SignerIdentifier_it                           output.o
CMS_SignerInfo_cert_cmp                           output.o
CMS_SignerInfo_get0_algs                          output.o
CMS_SignerInfo_get0_signer_id                     output.o
CMS_SignerInfo_it                                 output.o
CMS_SignerInfo_set1_signer_cert                   output.o
CMS_SignerInfo_sign                               output.o
CMS_SignerInfo_verify                             output.o
CMS_SignerInfo_verify_content                     output.o
CMS_add0_CertificateChoices                       output.o
CMS_add0_RevocationInfoChoice                     output.o
CMS_add0_cert                                     output.o
CMS_add0_crl                                      output.o
CMS_add0_recipient_key                            output.o
CMS_add1_cert                                     output.o
CMS_add1_crl                                      output.o
CMS_add1_recipient_cert                           output.o
CMS_add1_signer                                   output.o
CMS_add_simple_smimecap                           output.o
CMS_add_smimecap                                  output.o
CMS_add_standard_smimecap                         output.o
CMS_dataFinal                                     output.o
CMS_dataInit                                      output.o
CMS_get0_RecipientInfos                           output.o
CMS_get0_SignerInfos                              output.o
CMS_get0_content                                  output.o
CMS_get0_eContentType                             output.o
CMS_get0_signers                                  output.o
CMS_get0_type                                     output.o
CMS_get1_certs                                    output.o
CMS_get1_crls                                     output.o
CMS_is_detached                                   output.o
CMS_set1_eContentType                             output.o
CMS_set1_signers_certs                            output.o
CMS_set_detached                                  output.o
CMS_signed_add1_attr                              output.o
CMS_signed_add1_attr_by_NID                       output.o
CMS_signed_add1_attr_by_OBJ                       output.o
CMS_signed_add1_attr_by_txt                       output.o
CMS_signed_delete_attr                            output.o
CMS_signed_get0_data_by_OBJ                       output.o
CMS_signed_get_attr                               output.o
CMS_signed_get_attr_by_NID                        output.o
CMS_signed_get_attr_by_OBJ                        output.o
CMS_signed_get_attr_count                         output.o
CMS_stream                                        output.o
CMS_unsigned_add1_attr                            output.o
CMS_unsigned_add1_attr_by_NID                     output.o
CMS_unsigned_add1_attr_by_OBJ                     output.o
CMS_unsigned_add1_attr_by_txt                     output.o
CMS_unsigned_delete_attr                          output.o
CMS_unsigned_get0_data_by_OBJ                     output.o
CMS_unsigned_get_attr                             output.o
CMS_unsigned_get_attr_by_NID                      output.o
CMS_unsigned_get_attr_by_OBJ                      output.o
CMS_unsigned_get_attr_count                       output.o
CONF_def_version                                  output.o
CONF_dump_bio                                     output.o
CONF_free                                         output.o
CONF_get1_default_config_file                     output.o
CONF_get_number                                   output.o
CONF_get_section                                  output.o
CONF_get_string                                   output.o
CONF_imodule_get_flags                            output.o
CONF_imodule_get_module                           output.o
CONF_imodule_get_name                             output.o
CONF_imodule_get_usr_data                         output.o
CONF_imodule_get_value                            output.o
CONF_imodule_set_flags                            output.o
CONF_imodule_set_usr_data                         output.o
CONF_load                                         output.o
CONF_load_bio                                     output.o
CONF_module_add                                   output.o
CONF_module_get_usr_data                          output.o
CONF_module_set_usr_data                          output.o
CONF_modules_finish                               output.o
CONF_modules_free                                 output.o
CONF_modules_load                                 output.o
CONF_modules_load_file                            output.o
CONF_modules_unload                               output.o
CONF_parse_list                                   output.o
CONF_set_default_method                           output.o
CONF_set_nconf                                    output.o
CONF_version                                      output.o
CRL_DIST_POINTS_free                              output.o
CRL_DIST_POINTS_it                                output.o
CRL_DIST_POINTS_new                               output.o
CRYPTO_THREADID_cmp                               output.o
CRYPTO_THREADID_cpy                               output.o
CRYPTO_THREADID_current                           output.o
CRYPTO_THREADID_get_callback                      output.o
CRYPTO_THREADID_hash                              output.o
CRYPTO_THREADID_set_callback                      output.o
CRYPTO_THREADID_set_numeric                       output.o
CRYPTO_THREADID_set_pointer                       output.o
CRYPTO_add_lock                                   output.o
CRYPTO_cbc128_decrypt                             output.o
CRYPTO_cbc128_encrypt                             output.o
CRYPTO_cfb128_1_encrypt                           output.o
CRYPTO_cfb128_8_encrypt                           output.o
CRYPTO_cfb128_encrypt                             output.o
CRYPTO_cleanup_all_ex_data                        output.o
CRYPTO_dbg_free                                   output.o
CRYPTO_dbg_get_options                            output.o
CRYPTO_dbg_malloc                                 output.o
CRYPTO_dbg_realloc                                output.o
CRYPTO_dbg_set_options                            output.o
CRYPTO_destroy_dynlockid                          output.o
CRYPTO_dup_ex_data                                output.o
CRYPTO_ex_data_new_class                          output.o
CRYPTO_free                                       output.o
CRYPTO_free_ex_data                               output.o
CRYPTO_free_locked                                output.o
CRYPTO_get_add_lock_callback                      output.o
CRYPTO_get_dynlock_create_callback                output.o
CRYPTO_get_dynlock_destroy_callback               output.o
CRYPTO_get_dynlock_lock_callback                  output.o
CRYPTO_get_dynlock_value                          output.o
CRYPTO_get_ex_data                                output.o
CRYPTO_get_ex_data_implementation                 output.o
CRYPTO_get_ex_new_index                           output.o
CRYPTO_get_id_callback                            output.o
CRYPTO_get_lock_name                              output.o
CRYPTO_get_locked_mem_ex_functions                output.o
CRYPTO_get_locked_mem_functions                   output.o
CRYPTO_get_locking_callback                       output.o
CRYPTO_get_mem_debug_functions                    output.o
CRYPTO_get_mem_debug_options                      output.o
CRYPTO_get_mem_ex_functions                       output.o
CRYPTO_get_mem_functions                          output.o
CRYPTO_get_new_dynlockid                          output.o
CRYPTO_get_new_lockid                             output.o
CRYPTO_is_mem_check_on                            output.o
CRYPTO_lock                                       output.o
CRYPTO_malloc                                     output.o
CRYPTO_malloc_locked                              output.o
CRYPTO_mem_ctrl                                   output.o
CRYPTO_mem_leaks                                  output.o
CRYPTO_mem_leaks_cb                               output.o
CRYPTO_new_ex_data                                output.o
CRYPTO_num_locks                                  output.o
CRYPTO_ofb128_encrypt                             output.o
CRYPTO_pop_info                                   output.o
CRYPTO_push_info_                                 output.o
CRYPTO_realloc                                    output.o
CRYPTO_realloc_clean                              output.o
CRYPTO_remalloc                                   output.o
CRYPTO_remove_all_info                            output.o
CRYPTO_set_add_lock_callback                      output.o
CRYPTO_set_dynlock_create_callback                output.o
CRYPTO_set_dynlock_destroy_callback               output.o
CRYPTO_set_dynlock_lock_callback                  output.o
CRYPTO_set_ex_data                                output.o
CRYPTO_set_ex_data_implementation                 output.o
CRYPTO_set_id_callback                            output.o
CRYPTO_set_locked_mem_ex_functions                output.o
CRYPTO_set_locked_mem_functions                   output.o
CRYPTO_set_locking_callback                       output.o
CRYPTO_set_mem_debug_functions                    output.o
CRYPTO_set_mem_debug_options                      output.o
CRYPTO_set_mem_ex_functions                       output.o
CRYPTO_set_mem_functions                          output.o
CRYPTO_strdup                                     output.o
CRYPTO_thread_id                                  output.o
C_CloseAllSessions                                output.o
C_CloseSession                                    output.o
C_CreateObject                                    output.o
C_DestroyObject                                   output.o
C_DigestFinal                                     output.o
C_DigestInit                                      output.o
C_DigestUpdate                                    output.o
C_Finalize                                        output.o
C_FindObjects                                     output.o
C_FindObjectsFinal                                output.o
C_FindObjectsInit                                 output.o
C_GetAttributeValue                               output.o
C_GetCardStatus                                   output.o
C_GetFunctionList                                 output.o
C_GetInfo                                         output.o
C_GetMechanismInfo                                output.o
C_GetMechanismList                                output.o
C_GetSessionInfo                                  output.o
C_GetSlotInfo                                     output.o
C_GetSlotList                                     output.o
C_GetTokenInfo                                    output.o
C_Initialize                                      output.o
C_Login                                           output.o
C_Logout                                          output.o
C_OpenSession                                     output.o
C_SetAttributeValue                               output.o
C_Sign                                            output.o
C_SignInit                                        output.o
C_Verify                                          output.o
C_VerifyInit                                      output.o
CardConnect                                       output.o
CardDisconnect                                    output.o
CardEstablishContext                              output.o
CardListReaders                                   output.o
CardMechanical                                    output.o
CardReleaseContext                                output.o
CardStateConfirm                                  output.o
CardStatus                                        output.o
CardTransmit                                      output.o
CloseUSB                                          output.o
DES_SPtrans                                       output.o
DES_cfb64_encrypt                                 output.o
DES_cfb_encrypt                                   output.o
DES_check_key_parity                              output.o
DES_decrypt3                                      output.o
DES_ecb3_encrypt                                  output.o
DES_ecb_encrypt                                   output.o
DES_ede3_cbc_encrypt                              output.o
DES_ede3_cfb64_encrypt                            output.o
DES_ede3_cfb_encrypt                              output.o
DES_ede3_ofb64_encrypt                            output.o
DES_encrypt1                                      output.o
DES_encrypt2                                      output.o
DES_encrypt3                                      output.o
DES_is_weak_key                                   output.o
DES_key_sched                                     output.o
DES_ncbc_encrypt                                  output.o
DES_ofb64_encrypt                                 output.o
DES_options                                       output.o
DES_random_key                                    output.o
DES_set_key                                       output.o
DES_set_key_checked                               output.o
DES_set_key_unchecked                             output.o
DES_set_odd_parity                                output.o
DES_xcbc_encrypt                                  output.o
DH_OpenSSL                                        output.o
DH_check                                          output.o
DH_check_pub_key                                  output.o
DH_compute_key                                    output.o
DH_free                                           output.o
DH_generate_key                                   output.o
DH_generate_parameters_ex                         output.o
DH_get_default_method                             output.o
DH_get_ex_data                                    output.o
DH_get_ex_new_index                               output.o
DH_new                                            output.o
DH_new_method                                     output.o
DH_set_default_method                             output.o
DH_set_ex_data                                    output.o
DH_set_method                                     output.o
DH_size                                           output.o
DH_up_ref                                         output.o
DH_version                                        output.o
DHparams_dup                                      output.o
DHparams_it                                       output.o
DHparams_print                                    output.o
DI                                                output.o
DIRECTORYSTRING_free                              output.o
DIRECTORYSTRING_it                                output.o
DIRECTORYSTRING_new                               output.o
DISPLAYTEXT_free                                  output.o
DISPLAYTEXT_it                                    output.o
DISPLAYTEXT_new                                   output.o
DIST_POINT_NAME_free                              output.o
DIST_POINT_NAME_it                                output.o
DIST_POINT_NAME_new                               output.o
DIST_POINT_free                                   output.o
DIST_POINT_it                                     output.o
DIST_POINT_new                                    output.o
DIST_POINT_set_dpname                             output.o
DSAPrivateKey_it                                  output.o
DSAPublicKey_it                                   output.o
DSA_OpenSSL                                       output.o
DSA_SIG_free                                      output.o
DSA_SIG_it                                        output.o
DSA_SIG_new                                       output.o
DSA_do_sign                                       output.o
DSA_do_verify                                     output.o
DSA_dup_DH                                        output.o
DSA_free                                          output.o
DSA_generate_key                                  output.o
DSA_generate_parameters_ex                        output.o
DSA_get_default_method                            output.o
DSA_get_ex_data                                   output.o
DSA_get_ex_new_index                              output.o
DSA_new                                           output.o
DSA_new_method                                    output.o
DSA_set_default_method                            output.o
DSA_set_ex_data                                   output.o
DSA_set_method                                    output.o
DSA_sign                                          output.o
DSA_sign_setup                                    output.o
DSA_size                                          output.o
DSA_up_ref                                        output.o
DSA_verify                                        output.o
DSA_version                                       output.o
DSAparams_dup                                     output.o
DSAparams_it                                      output.o
DSO_METHOD_null                                   output.o
DSO_METHOD_openssl                                output.o
DSO_bind_func                                     output.o
DSO_bind_var                                      output.o
DSO_convert_filename                              output.o
DSO_ctrl                                          output.o
DSO_flags                                         output.o
DSO_free                                          output.o
DSO_get_default_method                            output.o
DSO_get_filename                                  output.o
DSO_get_loaded_filename                           output.o
DSO_get_method                                    output.o
DSO_global_lookup                                 output.o
DSO_load                                          output.o
DSO_merge                                         output.o
DSO_new                                           output.o
DSO_new_method                                    output.o
DSO_pathbyaddr                                    output.o
DSO_set_default_method                            output.o
DSO_set_filename                                  output.o
DSO_set_method                                    output.o
DSO_set_name_converter                            output.o
DSO_up_ref                                        output.o
DelElem                                           output.o
DestroyAttribute                                  output.o
DestroyElem                                       output.o
DestroyList                                       output.o
DestroySessionData                                output.o
DestroySlotData                                   output.o
DestroyTlvData                                    output.o
DestroyTokenData                                  output.o
ECDH_OpenSSL                                      output.o
ECDH_compute_key                                  output.o
ECDH_get_default_method                           output.o
ECDH_get_ex_data                                  output.o
ECDH_get_ex_new_index                             output.o
ECDH_set_default_method                           output.o
ECDH_set_ex_data                                  output.o
ECDH_set_method                                   output.o
ECDH_version                                      output.o
ECDSA_OpenSSL                                     output.o
ECDSA_SIG_free                                    output.o
ECDSA_SIG_it                                      output.o
ECDSA_SIG_new                                     output.o
ECDSA_do_sign                                     output.o
ECDSA_do_sign_ex                                  output.o
ECDSA_do_verify                                   output.o
ECDSA_get_default_method                          output.o
ECDSA_get_ex_data                                 output.o
ECDSA_get_ex_new_index                            output.o
ECDSA_set_default_method                          output.o
ECDSA_set_ex_data                                 output.o
ECDSA_set_method                                  output.o
ECDSA_sign                                        output.o
ECDSA_sign_ex                                     output.o
ECDSA_sign_setup                                  output.o
ECDSA_size                                        output.o
ECDSA_verify                                      output.o
ECDSA_version                                     output.o
ECPARAMETERS_free                                 output.o
ECPARAMETERS_it                                   output.o
ECPARAMETERS_new                                  output.o
ECPKPARAMETERS_free                               output.o
ECPKPARAMETERS_it                                 output.o
ECPKPARAMETERS_new                                output.o
ECPKParameters_print                              output.o
ECParameters_print                                output.o
EC_EX_DATA_clear_free_all_data                    output.o
EC_EX_DATA_clear_free_data                        output.o
EC_EX_DATA_free_all_data                          output.o
EC_EX_DATA_free_data                              output.o
EC_EX_DATA_get_data                               output.o
EC_EX_DATA_set_data                               output.o
EC_GF2m_simple_method                             output.o
EC_GFp_mont_method                                output.o
EC_GFp_nist_method                                output.o
EC_GFp_simple_method                              output.o
EC_GROUP_check_discriminant                       output.o
EC_GROUP_clear_free                               output.o
EC_GROUP_cmp                                      output.o
EC_GROUP_copy                                     output.o
EC_GROUP_dup                                      output.o
EC_GROUP_free                                     output.o
EC_GROUP_get0_generator                           output.o
EC_GROUP_get0_seed                                output.o
EC_GROUP_get_asn1_flag                            output.o
EC_GROUP_get_basis_type                           output.o
EC_GROUP_get_cofactor                             output.o
EC_GROUP_get_curve_GF2m                           output.o
EC_GROUP_get_curve_GFp                            output.o
EC_GROUP_get_curve_name                           output.o
EC_GROUP_get_degree                               output.o
EC_GROUP_get_order                                output.o
EC_GROUP_get_pentanomial_basis                    output.o
EC_GROUP_get_point_conversion_form                output.o
EC_GROUP_get_seed_len                             output.o
EC_GROUP_get_trinomial_basis                      output.o
EC_GROUP_have_precompute_mult                     output.o
EC_GROUP_method_of                                output.o
EC_GROUP_new                                      output.o
EC_GROUP_new_by_curve_name                        output.o
EC_GROUP_new_curve_GF2m                           output.o
EC_GROUP_new_curve_GFp                            output.o
EC_GROUP_precompute_mult                          output.o
EC_GROUP_set_asn1_flag                            output.o
EC_GROUP_set_curve_GF2m                           output.o
EC_GROUP_set_curve_GFp                            output.o
EC_GROUP_set_curve_name                           output.o
EC_GROUP_set_generator                            output.o
EC_GROUP_set_point_conversion_form                output.o
EC_GROUP_set_seed                                 output.o
EC_KEY_check_key                                  output.o
EC_KEY_copy                                       output.o
EC_KEY_dup                                        output.o
EC_KEY_free                                       output.o
EC_KEY_generate_key                               output.o
EC_KEY_get0_group                                 output.o
EC_KEY_get0_private_key                           output.o
EC_KEY_get0_public_key                            output.o
EC_KEY_get_conv_form                              output.o
EC_KEY_get_enc_flags                              output.o
EC_KEY_get_key_method_data                        output.o
EC_KEY_insert_key_method_data                     output.o
EC_KEY_new                                        output.o
EC_KEY_new_by_curve_name                          output.o
EC_KEY_precompute_mult                            output.o
EC_KEY_print                                      output.o
EC_KEY_set_asn1_flag                              output.o
EC_KEY_set_conv_form                              output.o
EC_KEY_set_enc_flags                              output.o
EC_KEY_set_group                                  output.o
EC_KEY_set_private_key                            output.o
EC_KEY_set_public_key                             output.o
EC_KEY_up_ref                                     output.o
EC_METHOD_get_field_type                          output.o
EC_POINT_add                                      output.o
EC_POINT_bn2point                                 output.o
EC_POINT_clear_free                               output.o
EC_POINT_cmp                                      output.o
EC_POINT_copy                                     output.o
EC_POINT_dbl                                      output.o
EC_POINT_dup                                      output.o
EC_POINT_free                                     output.o
EC_POINT_get_Jprojective_coordinates_GFp          output.o
EC_POINT_get_affine_coordinates_GF2m              output.o
EC_POINT_get_affine_coordinates_GFp               output.o
EC_POINT_hex2point                                output.o
EC_POINT_invert                                   output.o
EC_POINT_is_at_infinity                           output.o
EC_POINT_is_on_curve                              output.o
EC_POINT_make_affine                              output.o
EC_POINT_method_of                                output.o
EC_POINT_mul                                      output.o
EC_POINT_new                                      output.o
EC_POINT_oct2point                                output.o
EC_POINT_point2bn                                 output.o
EC_POINT_point2hex                                output.o
EC_POINT_point2oct                                output.o
EC_POINT_set_Jprojective_coordinates_GFp          output.o
EC_POINT_set_affine_coordinates_GF2m              output.o
EC_POINT_set_affine_coordinates_GFp               output.o
EC_POINT_set_compressed_coordinates_GF2m          output.o
EC_POINT_set_compressed_coordinates_GFp           output.o
EC_POINT_set_to_infinity                          output.o
EC_POINTs_make_affine                             output.o
EC_POINTs_mul                                     output.o
EC_PRIVATEKEY_free                                output.o
EC_PRIVATEKEY_it                                  output.o
EC_PRIVATEKEY_new                                 output.o
EC_get_builtin_curves                             output.o
EDIPARTYNAME_free                                 output.o
EDIPARTYNAME_it                                   output.o
EDIPARTYNAME_new                                  output.o
EHDestroyEventHandler                             output.o
EHInitEventHandler                                output.o
EHStatusHandler                                   output.o
ERR_add_error_data                                output.o
ERR_clear_error                                   output.o
ERR_error_string                                  output.o
ERR_error_string_n                                output.o
ERR_free_strings                                  output.o
ERR_func_error_string                             output.o
ERR_get_err_state_table                           output.o
ERR_get_error                                     output.o
ERR_get_error_line                                output.o
ERR_get_error_line_data                           output.o
ERR_get_implementation                            output.o
ERR_get_next_error_library                        output.o
ERR_get_state                                     output.o
ERR_get_string_table                              output.o
ERR_lib_error_string                              output.o
ERR_load_ASN1_strings                             output.o
ERR_load_BIO_strings                              output.o
ERR_load_BN_strings                               output.o
ERR_load_BUF_strings                              output.o
ERR_load_CMS_strings                              output.o
ERR_load_COMP_strings                             output.o
ERR_load_CONF_strings                             output.o
ERR_load_CRYPTO_strings                           output.o
ERR_load_DH_strings                               output.o
ERR_load_DSA_strings                              output.o
ERR_load_DSO_strings                              output.o
ERR_load_ECDH_strings                             output.o
ERR_load_ECDSA_strings                            output.o
ERR_load_EC_strings                               output.o
ERR_load_ERR_strings                              output.o
ERR_load_EVP_strings                              output.o
ERR_load_OBJ_strings                              output.o
ERR_load_OCSP_strings                             output.o
ERR_load_PEM_strings                              output.o
ERR_load_PKCS12_strings                           output.o
ERR_load_PKCS7_strings                            output.o
ERR_load_RAND_strings                             output.o
ERR_load_RSA_strings                              output.o
ERR_load_TS_strings                               output.o
ERR_load_UI_strings                               output.o
ERR_load_X509V3_strings                           output.o
ERR_load_X509_strings                             output.o
ERR_load_crypto_strings                           output.o
ERR_load_strings                                  output.o
ERR_peek_error                                    output.o
ERR_peek_error_line                               output.o
ERR_peek_error_line_data                          output.o
ERR_peek_last_error                               output.o
ERR_peek_last_error_line                          output.o
ERR_peek_last_error_line_data                     output.o
ERR_pop_to_mark                                   output.o
ERR_print_errors                                  output.o
ERR_print_errors_cb                               output.o
ERR_put_error                                     output.o
ERR_reason_error_string                           output.o
ERR_release_err_state_table                       output.o
ERR_remove_state                                  output.o
ERR_remove_thread_state                           output.o
ERR_set_error_data                                output.o
ERR_set_implementation                            output.o
ERR_set_mark                                      output.o
ERR_unload_strings                                output.o
EVP_BytesToKey                                    output.o
EVP_CIPHER_CTX_block_size                         output.o
EVP_CIPHER_CTX_cipher                             output.o
EVP_CIPHER_CTX_cleanup                            output.o
EVP_CIPHER_CTX_clear_flags                        output.o
EVP_CIPHER_CTX_copy                               output.o
EVP_CIPHER_CTX_ctrl                               output.o
EVP_CIPHER_CTX_flags                              output.o
EVP_CIPHER_CTX_free                               output.o
EVP_CIPHER_CTX_get_app_data                       output.o
EVP_CIPHER_CTX_init                               output.o
EVP_CIPHER_CTX_iv_length                          output.o
EVP_CIPHER_CTX_key_length                         output.o
EVP_CIPHER_CTX_new                                output.o
EVP_CIPHER_CTX_nid                                output.o
EVP_CIPHER_CTX_rand_key                           output.o
EVP_CIPHER_CTX_set_app_data                       output.o
EVP_CIPHER_CTX_set_flags                          output.o
EVP_CIPHER_CTX_set_key_length                     output.o
EVP_CIPHER_CTX_set_padding                        output.o
EVP_CIPHER_CTX_test_flags                         output.o
EVP_CIPHER_asn1_to_param                          output.o
EVP_CIPHER_block_size                             output.o
EVP_CIPHER_do_all                                 output.o
EVP_CIPHER_do_all_sorted                          output.o
EVP_CIPHER_flags                                  output.o
EVP_CIPHER_get_asn1_iv                            output.o
EVP_CIPHER_iv_length                              output.o
EVP_CIPHER_key_length                             output.o
EVP_CIPHER_nid                                    output.o
EVP_CIPHER_param_to_asn1                          output.o
EVP_CIPHER_set_asn1_iv                            output.o
EVP_CIPHER_type                                   output.o
EVP_Cipher                                        output.o
EVP_CipherFinal                                   output.o
EVP_CipherFinal_ex                                output.o
EVP_CipherInit                                    output.o
EVP_CipherInit_ex                                 output.o
EVP_CipherUpdate                                  output.o
EVP_DecodeBlock                                   output.o
EVP_DecodeFinal                                   output.o
EVP_DecodeInit                                    output.o
EVP_DecodeUpdate                                  output.o
EVP_DecryptFinal                                  output.o
EVP_DecryptFinal_ex                               output.o
EVP_DecryptInit                                   output.o
EVP_DecryptInit_ex                                output.o
EVP_DecryptUpdate                                 output.o
EVP_Digest                                        output.o
EVP_DigestFinal                                   output.o
EVP_DigestFinal_ex                                output.o
EVP_DigestInit                                    output.o
EVP_DigestInit_ex                                 output.o
EVP_DigestSignFinal                               output.o
EVP_DigestSignInit                                output.o
EVP_DigestUpdate                                  output.o
EVP_DigestVerifyFinal                             output.o
EVP_DigestVerifyInit                              output.o
EVP_EncodeBlock                                   output.o
EVP_EncodeFinal                                   output.o
EVP_EncodeInit                                    output.o
EVP_EncodeUpdate                                  output.o
EVP_EncryptFinal                                  output.o
EVP_EncryptFinal_ex                               output.o
EVP_EncryptInit                                   output.o
EVP_EncryptInit_ex                                output.o
EVP_EncryptUpdate                                 output.o
EVP_MD_CTX_cleanup                                output.o
EVP_MD_CTX_clear_flags                            output.o
EVP_MD_CTX_copy                                   output.o
EVP_MD_CTX_copy_ex                                output.o
EVP_MD_CTX_create                                 output.o
EVP_MD_CTX_destroy                                output.o
EVP_MD_CTX_init                                   output.o
EVP_MD_CTX_md                                     output.o
EVP_MD_CTX_set_flags                              output.o
EVP_MD_CTX_test_flags                             output.o
EVP_MD_block_size                                 output.o
EVP_MD_do_all                                     output.o
EVP_MD_do_all_sorted                              output.o
EVP_MD_flags                                      output.o
EVP_MD_pkey_type                                  output.o
EVP_MD_size                                       output.o
EVP_MD_type                                       output.o
EVP_PBE_CipherInit                                output.o
EVP_PBE_alg_add                                   output.o
EVP_PBE_alg_add_type                              output.o
EVP_PBE_cleanup                                   output.o
EVP_PBE_find                                      output.o
EVP_PKCS82PKEY                                    output.o
EVP_PKEY2PKCS8                                    output.o
EVP_PKEY2PKCS8_broken                             output.o
EVP_PKEY_CTX_ctrl                                 output.o
EVP_PKEY_CTX_ctrl_str                             output.o
EVP_PKEY_CTX_dup                                  output.o
EVP_PKEY_CTX_free                                 output.o
EVP_PKEY_CTX_get0_peerkey                         output.o
EVP_PKEY_CTX_get0_pkey                            output.o
EVP_PKEY_CTX_get_app_data                         output.o
EVP_PKEY_CTX_get_cb                               output.o
EVP_PKEY_CTX_get_data                             output.o
EVP_PKEY_CTX_get_keygen_info                      output.o
EVP_PKEY_CTX_get_operation                        output.o
EVP_PKEY_CTX_new                                  output.o
EVP_PKEY_CTX_new_id                               output.o
EVP_PKEY_CTX_set0_keygen_info                     output.o
EVP_PKEY_CTX_set_app_data                         output.o
EVP_PKEY_CTX_set_cb                               output.o
EVP_PKEY_CTX_set_data                             output.o
EVP_PKEY_add1_attr                                output.o
EVP_PKEY_add1_attr_by_NID                         output.o
EVP_PKEY_add1_attr_by_OBJ                         output.o
EVP_PKEY_add1_attr_by_txt                         output.o
EVP_PKEY_asn1_add0                                output.o
EVP_PKEY_asn1_add_alias                           output.o
EVP_PKEY_asn1_copy                                output.o
EVP_PKEY_asn1_find                                output.o
EVP_PKEY_asn1_find_str                            output.o
EVP_PKEY_asn1_free                                output.o
EVP_PKEY_asn1_get0                                output.o
EVP_PKEY_asn1_get0_info                           output.o
EVP_PKEY_asn1_get_count                           output.o
EVP_PKEY_asn1_new                                 output.o
EVP_PKEY_asn1_set_ctrl                            output.o
EVP_PKEY_asn1_set_free                            output.o
EVP_PKEY_asn1_set_param                           output.o
EVP_PKEY_asn1_set_private                         output.o
EVP_PKEY_asn1_set_public                          output.o
EVP_PKEY_assign                                   output.o
EVP_PKEY_base_id                                  output.o
EVP_PKEY_bits                                     output.o
EVP_PKEY_cmp                                      output.o
EVP_PKEY_cmp_parameters                           output.o
EVP_PKEY_copy_parameters                          output.o
EVP_PKEY_decrypt                                  output.o
EVP_PKEY_decrypt_init                             output.o
EVP_PKEY_delete_attr                              output.o
EVP_PKEY_derive                                   output.o
EVP_PKEY_derive_init                              output.o
EVP_PKEY_derive_set_peer                          output.o
EVP_PKEY_encrypt                                  output.o
EVP_PKEY_encrypt_init                             output.o
EVP_PKEY_free                                     output.o
EVP_PKEY_get0                                     output.o
EVP_PKEY_get0_asn1                                output.o
EVP_PKEY_get1_DH                                  output.o
EVP_PKEY_get1_DSA                                 output.o
EVP_PKEY_get1_EC_KEY                              output.o
EVP_PKEY_get1_RSA                                 output.o
EVP_PKEY_get_attr                                 output.o
EVP_PKEY_get_attr_by_NID                          output.o
EVP_PKEY_get_attr_by_OBJ                          output.o
EVP_PKEY_get_attr_count                           output.o
EVP_PKEY_get_default_digest_nid                   output.o
EVP_PKEY_id                                       output.o
EVP_PKEY_keygen                                   output.o
EVP_PKEY_keygen_init                              output.o
EVP_PKEY_meth_add0                                output.o
EVP_PKEY_meth_find                                output.o
EVP_PKEY_meth_free                                output.o
EVP_PKEY_meth_new                                 output.o
EVP_PKEY_meth_set_cleanup                         output.o
EVP_PKEY_meth_set_copy                            output.o
EVP_PKEY_meth_set_ctrl                            output.o
EVP_PKEY_meth_set_decrypt                         output.o
EVP_PKEY_meth_set_derive                          output.o
EVP_PKEY_meth_set_encrypt                         output.o
EVP_PKEY_meth_set_init                            output.o
EVP_PKEY_meth_set_keygen                          output.o
EVP_PKEY_meth_set_paramgen                        output.o
EVP_PKEY_meth_set_sign                            output.o
EVP_PKEY_meth_set_signctx                         output.o
EVP_PKEY_meth_set_verify                          output.o
EVP_PKEY_meth_set_verify_recover                  output.o
EVP_PKEY_meth_set_verifyctx                       output.o
EVP_PKEY_missing_parameters                       output.o
EVP_PKEY_new                                      output.o
EVP_PKEY_new_mac_key                              output.o
EVP_PKEY_paramgen                                 output.o
EVP_PKEY_paramgen_init                            output.o
EVP_PKEY_print_params                             output.o
EVP_PKEY_print_private                            output.o
EVP_PKEY_print_public                             output.o
EVP_PKEY_save_parameters                          output.o
EVP_PKEY_set1_DH                                  output.o
EVP_PKEY_set1_DSA                                 output.o
EVP_PKEY_set1_EC_KEY                              output.o
EVP_PKEY_set1_RSA                                 output.o
EVP_PKEY_set_type                                 output.o
EVP_PKEY_set_type_str                             output.o
EVP_PKEY_sign                                     output.o
EVP_PKEY_sign_init                                output.o
EVP_PKEY_size                                     output.o
EVP_PKEY_type                                     output.o
EVP_PKEY_verify                                   output.o
EVP_PKEY_verify_init                              output.o
EVP_PKEY_verify_recover                           output.o
EVP_PKEY_verify_recover_init                      output.o
EVP_SignFinal                                     output.o
EVP_VerifyFinal                                   output.o
EVP_add_cipher                                    output.o
EVP_add_digest                                    output.o
EVP_aes_128_cbc                                   output.o
EVP_aes_128_cfb1                                  output.o
EVP_aes_128_cfb128                                output.o
EVP_aes_128_cfb8                                  output.o
EVP_aes_128_ecb                                   output.o
EVP_aes_128_ofb                                   output.o
EVP_aes_192_cbc                                   output.o
EVP_aes_192_cfb1                                  output.o
EVP_aes_192_cfb128                                output.o
EVP_aes_192_cfb8                                  output.o
EVP_aes_192_ecb                                   output.o
EVP_aes_192_ofb                                   output.o
EVP_aes_256_cbc                                   output.o
EVP_aes_256_cfb1                                  output.o
EVP_aes_256_cfb128                                output.o
EVP_aes_256_cfb8                                  output.o
EVP_aes_256_ecb                                   output.o
EVP_aes_256_ofb                                   output.o
EVP_bf_cbc                                        output.o
EVP_bf_cfb64                                      output.o
EVP_bf_ecb                                        output.o
EVP_bf_ofb                                        output.o
EVP_cast5_cbc                                     output.o
EVP_cast5_cfb64                                   output.o
EVP_cast5_ecb                                     output.o
EVP_cast5_ofb                                     output.o
EVP_cleanup                                       output.o
EVP_des_cbc                                       output.o
EVP_des_cfb1                                      output.o
EVP_des_cfb64                                     output.o
EVP_des_cfb8                                      output.o
EVP_des_ecb                                       output.o
EVP_des_ede                                       output.o
EVP_des_ede3                                      output.o
EVP_des_ede3_cbc                                  output.o
EVP_des_ede3_cfb1                                 output.o
EVP_des_ede3_cfb64                                output.o
EVP_des_ede3_cfb8                                 output.o
EVP_des_ede3_ecb                                  output.o
EVP_des_ede3_ofb                                  output.o
EVP_des_ede_cbc                                   output.o
EVP_des_ede_cfb64                                 output.o
EVP_des_ede_ecb                                   output.o
EVP_des_ede_ofb                                   output.o
EVP_des_ofb                                       output.o
EVP_desx_cbc                                      output.o
EVP_dss                                           output.o
EVP_dss1                                          output.o
EVP_ecdsa                                         output.o
EVP_get_cipherbyname                              output.o
EVP_get_digestbyname                              output.o
EVP_get_pw_prompt                                 output.o
EVP_idea_cbc                                      output.o
EVP_idea_cfb64                                    output.o
EVP_idea_ecb                                      output.o
EVP_idea_ofb                                      output.o
EVP_md4                                           output.o
EVP_md5                                           output.o
EVP_rc2_40_cbc                                    output.o
EVP_rc2_64_cbc                                    output.o
EVP_rc2_cbc                                       output.o
EVP_rc2_cfb64                                     output.o
EVP_rc2_ecb                                       output.o
EVP_rc2_ofb                                       output.o
EVP_rc4                                           output.o
EVP_rc4_40                                        output.o
EVP_read_pw_string                                output.o
EVP_read_pw_string_min                            output.o
EVP_ripemd160                                     output.o
EVP_set_pw_prompt                                 output.o
EVP_sha                                           output.o
EVP_sha1                                          output.o
EVP_sha224                                        output.o
EVP_sha256                                        output.o
EVP_sha384                                        output.o
EVP_sha512                                        output.o
EVP_version                                       output.o
EVP_whirlpool                                     output.o
EXTENDED_KEY_USAGE_free                           output.o
EXTENDED_KEY_USAGE_it                             output.o
EXTENDED_KEY_USAGE_new                            output.o
ExchangePPSData                                   output.o
FI                                                output.o
FindBaudRateTable                                 output.o
GENERAL_NAMES_free                                output.o
GENERAL_NAMES_it                                  output.o
GENERAL_NAMES_new                                 output.o
GENERAL_NAME_cmp                                  output.o
GENERAL_NAME_dup                                  output.o
GENERAL_NAME_free                                 output.o
GENERAL_NAME_get0_otherName                       output.o
GENERAL_NAME_get0_value                           output.o
GENERAL_NAME_it                                   output.o
GENERAL_NAME_new                                  output.o
GENERAL_NAME_print                                output.o
GENERAL_NAME_set0_othername                       output.o
GENERAL_NAME_set0_value                           output.o
GENERAL_SUBTREE_free                              output.o
GENERAL_SUBTREE_it                                output.o
GENERAL_SUBTREE_new                               output.o
GetAttrValType                                    output.o
GetBWICWIData                                     output.o
GetCardStatus                                     output.o
GetDirDataByTlv                                   output.o
GetElem                                           output.o
GetICCardData                                     output.o
GetIFSCData                                       output.o
GetLength                                         output.o
GetOdfDataByTlv                                   output.o
GetTlvByBuf                                       output.o
GetTokenDataByTlv                                 output.o
GetUlByByte                                       output.o
GetUlByTxt                                        output.o
GetValueData                                      output.o
GetVerByTex                                       output.o
HMAC                                              output.o
HMAC_CTX_cleanup                                  output.o
HMAC_CTX_copy                                     output.o
HMAC_CTX_init                                     output.o
HMAC_CTX_set_flags                                output.o
HMAC_Final                                        output.o
HMAC_Init                                         output.o
HMAC_Init_ex                                      output.o
HMAC_Update                                       output.o
HPSearchHotPluggables                             output.o
IDEA_version                                      output.o
IDMan_CheckCardStatus                             output.o
IDMan_CmCheckCRL                                  output.o
IDMan_CmChgRSA                                    output.o
IDMan_CmGetCertificateSign                        output.o
IDMan_CmGetDN                                     output.o
IDMan_CmGetPublicKey                              output.o
IDMan_CmMakeRand                                  output.o
IDMan_CmMkHash                                    output.o
IDMan_CmPadding                                   output.o
IDMan_CmPadding2                                  output.o
IDMan_EncryptByIndex                              output.o
IDMan_IPCheckCrlPkcX                              output.o
IDMan_IPCheckPKC                                  output.o
IDMan_IPCheckSignature                            output.o
IDMan_IPCrSignature                               output.o
IDMan_IPFinalize                                  output.o
IDMan_IPFinalizeReader                            output.o
IDMan_IPIdPassListMalloc                          output.o
IDMan_IPInitialize                                output.o
IDMan_IPInitializeReader                          output.o
IDMan_IPMkPublicKeyObj                            output.o
IDMan_IPMkRandHash                                output.o
IDMan_IPRetJudgment                               output.o
IDMan_IPSignatureVerify                           output.o
IDMan_IPgCIndexParamChk                           output.o
IDMan_IPgCParamChk                                output.o
IDMan_IPgIdxSParamChk                             output.o
IDMan_IPgSParamChk                                output.o
IDMan_IPgetCertIdxPKCS                            output.o
IDMan_IPgetCertPKCS                               output.o
IDMan_IPgetCertPkeyIdxPKCSx                       output.o
IDMan_IPgetCertPkeyPKCSx                          output.o
IDMan_IPgetCertPkeyPKCSy                          output.o
IDMan_IPgetHash                                   output.o
IDMan_IPgetMakeRandData                           output.o
IDMan_IPgetPrivateKey                             output.o
IDMan_IPgetPrivateKeyPKCSx                        output.o
IDMan_IPuAPKCS11IdxParamChk                       output.o
IDMan_IPuAPKCS11ParamChk                          output.o
IDMan_IPvSIdxParamChk                             output.o
IDMan_IPvSParamChk                                output.o
IDMan_PaddingParamChk                             output.o
IDMan_SCardConnect                                output.o
IDMan_SCardDisconnect                             output.o
IDMan_SCardEstablishContext                       output.o
IDMan_SCardListReaders                            output.o
IDMan_SCardReleaseContext                         output.o
IDMan_SCardSetBinay                               output.o
IDMan_SCardSizeLongToChar                         output.o
IDMan_SCardStatus                                 output.o
IDMan_SCardTransmit                               output.o
IDMan_StAtoi                                      output.o
IDMan_StAtol                                      output.o
IDMan_StFree                                      output.o
IDMan_StMalloc                                    output.o
IDMan_StMemcmp                                    output.o
IDMan_StMemcpy                                    output.o
IDMan_StMemset                                    output.o
IDMan_StReadSetData                               output.o
IDMan_StStrcat                                    output.o
IDMan_StStrchr                                    output.o
IDMan_StStrcmp                                    output.o
IDMan_StStrcpy                                    output.o
IDMan_StStrlen                                    output.o
IDMan_generateSignature                           output.o
IDMan_generateSignatureByIndex                    output.o
IDMan_getCertificate                              output.o
IDMan_getCertificateByIndex                       output.o
IDMan_getMemoryFree                               output.o
IDMan_getStaticPassword                           output.o
IDMan_userAuthPKCS11                              output.o
IDMan_userAuthPKCS11ByIndex                       output.o
IDMan_verifySignature                             output.o
IDMan_verifySignatureByIndex                      output.o
IFDHCloseChannel                                  output.o
IFDHControl                                       output.o
IFDHCreateChannel                                 output.o
IFDHGetCapabilities                               output.o
IFDHICCPresence                                   output.o
IFDHPowerICC                                      output.o
IFDHSetProtocolParameters                         output.o
IFDHTransmitToICC                                 output.o
ISSUING_DIST_POINT_free                           output.o
ISSUING_DIST_POINT_it                             output.o
ISSUING_DIST_POINT_new                            output.o
InitCryptoLibrary                                 output.o
InitLeaderCardProtocol                            output.o
InternalAuth                                      output.o
LONG_it                                           output.o
MD4_Final                                         output.o
MD4_Init                                          output.o
MD4_Transform                                     output.o
MD4_Update                                        output.o
MD4_version                                       output.o
MD5                                               output.o
MD5_Final                                         output.o
MD5_Init                                          output.o
MD5_Transform                                     output.o
MD5_Update                                        output.o
MD5_version                                       output.o
NAME_CONSTRAINTS_check                            output.o
NAME_CONSTRAINTS_free                             output.o
NAME_CONSTRAINTS_it                               output.o
NAME_CONSTRAINTS_new                              output.o
NCONF_WIN32                                       output.o
NCONF_default                                     output.o
NCONF_dump_bio                                    output.o
NCONF_free                                        output.o
NCONF_free_data                                   output.o
NCONF_get_number_e                                output.o
NCONF_get_section                                 output.o
NCONF_get_string                                  output.o
NCONF_load                                        output.o
NCONF_load_bio                                    output.o
NCONF_new                                         output.o
NETSCAPE_CERT_SEQUENCE_free                       output.o
NETSCAPE_CERT_SEQUENCE_it                         output.o
NETSCAPE_CERT_SEQUENCE_new                        output.o
NETSCAPE_SPKAC_free                               output.o
NETSCAPE_SPKAC_it                                 output.o
NETSCAPE_SPKAC_new                                output.o
NETSCAPE_SPKI_free                                output.o
NETSCAPE_SPKI_it                                  output.o
NETSCAPE_SPKI_new                                 output.o
NETSCAPE_SPKI_sign                                output.o
NETSCAPE_SPKI_verify                              output.o
NOTICEREF_free                                    output.o
NOTICEREF_it                                      output.o
NOTICEREF_new                                     output.o
OBJ_NAME_add                                      output.o
OBJ_NAME_cleanup                                  output.o
OBJ_NAME_do_all                                   output.o
OBJ_NAME_do_all_sorted                            output.o
OBJ_NAME_get                                      output.o
OBJ_NAME_init                                     output.o
OBJ_NAME_new_index                                output.o
OBJ_NAME_remove                                   output.o
OBJ_add_object                                    output.o
OBJ_add_sigid                                     output.o
OBJ_bsearch_                                      output.o
OBJ_bsearch_ex_                                   output.o
OBJ_cleanup                                       output.o
OBJ_cmp                                           output.o
OBJ_create                                        output.o
OBJ_create_objects                                output.o
OBJ_dup                                           output.o
OBJ_find_sigid_algs                               output.o
OBJ_find_sigid_by_algs                            output.o
OBJ_ln2nid                                        output.o
OBJ_new_nid                                       output.o
OBJ_nid2ln                                        output.o
OBJ_nid2obj                                       output.o
OBJ_nid2sn                                        output.o
OBJ_obj2nid                                       output.o
OBJ_obj2txt                                       output.o
OBJ_sigid_free                                    output.o
OBJ_sn2nid                                        output.o
OBJ_txt2nid                                       output.o
OBJ_txt2obj                                       output.o
OCSP_BASICRESP_free                               output.o
OCSP_BASICRESP_it                                 output.o
OCSP_BASICRESP_new                                output.o
OCSP_CERTID_free                                  output.o
OCSP_CERTID_it                                    output.o
OCSP_CERTID_new                                   output.o
OCSP_CERTSTATUS_free                              output.o
OCSP_CERTSTATUS_it                                output.o
OCSP_CERTSTATUS_new                               output.o
OCSP_CRLID_free                                   output.o
OCSP_CRLID_it                                     output.o
OCSP_CRLID_new                                    output.o
OCSP_ONEREQ_free                                  output.o
OCSP_ONEREQ_it                                    output.o
OCSP_ONEREQ_new                                   output.o
OCSP_REQINFO_free                                 output.o
OCSP_REQINFO_it                                   output.o
OCSP_REQINFO_new                                  output.o
OCSP_REQUEST_free                                 output.o
OCSP_REQUEST_it                                   output.o
OCSP_REQUEST_new                                  output.o
OCSP_RESPBYTES_free                               output.o
OCSP_RESPBYTES_it                                 output.o
OCSP_RESPBYTES_new                                output.o
OCSP_RESPDATA_free                                output.o
OCSP_RESPDATA_it                                  output.o
OCSP_RESPDATA_new                                 output.o
OCSP_RESPID_free                                  output.o
OCSP_RESPID_it                                    output.o
OCSP_RESPID_new                                   output.o
OCSP_RESPONSE_free                                output.o
OCSP_RESPONSE_it                                  output.o
OCSP_RESPONSE_new                                 output.o
OCSP_REVOKEDINFO_free                             output.o
OCSP_REVOKEDINFO_it                               output.o
OCSP_REVOKEDINFO_new                              output.o
OCSP_SERVICELOC_free                              output.o
OCSP_SERVICELOC_it                                output.o
OCSP_SERVICELOC_new                               output.o
OCSP_SIGNATURE_free                               output.o
OCSP_SIGNATURE_it                                 output.o
OCSP_SIGNATURE_new                                output.o
OCSP_SINGLERESP_free                              output.o
OCSP_SINGLERESP_it                                output.o
OCSP_SINGLERESP_new                               output.o
OPENSSL_NONPIC_relocated                          output.o
OPENSSL_asc2uni                                   output.o
OPENSSL_cleanse                                   output.o
OPENSSL_cpuid_setup                               output.o
OPENSSL_gmtime                                    output.o
OPENSSL_gmtime_adj                                output.o
OPENSSL_ia32cap_P                                 output.o
OPENSSL_ia32cap_loc                               output.o
OPENSSL_isservice                                 output.o
OPENSSL_showfatal                                 output.o
OPENSSL_stderr                                    output.o
OPENSSL_uni2asc                                   output.o
OSSL_DES_version                                  output.o
OSSL_libdes_version                               output.o
OTHERNAME_cmp                                     output.o
OTHERNAME_free                                    output.o
OTHERNAME_it                                      output.o
OTHERNAME_new                                     output.o
OpenSSLDie                                        output.o
OpenSSL_add_all_ciphers                           output.o
OpenSSL_add_all_digests                           output.o
OpenUSB                                           output.o
PAGE_POOL_START                                   output.o
PBE2PARAM_free                                    output.o
PBE2PARAM_it                                      output.o
PBE2PARAM_new                                     output.o
PBEPARAM_free                                     output.o
PBEPARAM_it                                       output.o
PBEPARAM_new                                      output.o
PBKDF2PARAM_free                                  output.o
PBKDF2PARAM_it                                    output.o
PBKDF2PARAM_new                                   output.o
PEM_ASN1_read_bio                                 output.o
PEM_ASN1_write_bio                                output.o
PEM_bytes_read_bio                                output.o
PEM_def_callback                                  output.o
PEM_dek_info                                      output.o
PEM_do_header                                     output.o
PEM_get_EVP_CIPHER_INFO                           output.o
PEM_proc_type                                     output.o
PEM_read_bio                                      output.o
PEM_read_bio_CMS                                  output.o
PEM_read_bio_DHparams                             output.o
PEM_read_bio_DSAPrivateKey                        output.o
PEM_read_bio_DSA_PUBKEY                           output.o
PEM_read_bio_DSAparams                            output.o
PEM_read_bio_ECPKParameters                       output.o
PEM_read_bio_ECPrivateKey                         output.o
PEM_read_bio_EC_PUBKEY                            output.o
PEM_read_bio_NETSCAPE_CERT_SEQUENCE               output.o
PEM_read_bio_PKCS7                                output.o
PEM_read_bio_PKCS8                                output.o
PEM_read_bio_PKCS8_PRIV_KEY_INFO                  output.o
PEM_read_bio_PUBKEY                               output.o
PEM_read_bio_Parameters                           output.o
PEM_read_bio_PrivateKey                           output.o
PEM_read_bio_RSAPrivateKey                        output.o
PEM_read_bio_RSAPublicKey                         output.o
PEM_read_bio_RSA_PUBKEY                           output.o
PEM_read_bio_X509                                 output.o
PEM_read_bio_X509_CRL                             output.o
PEM_read_bio_X509_REQ                             output.o
PEM_version                                       output.o
PEM_write_bio                                     output.o
PEM_write_bio_ASN1_stream                         output.o
PEM_write_bio_CMS                                 output.o
PEM_write_bio_CMS_stream                          output.o
PEM_write_bio_DHparams                            output.o
PEM_write_bio_DSAPrivateKey                       output.o
PEM_write_bio_DSA_PUBKEY                          output.o
PEM_write_bio_DSAparams                           output.o
PEM_write_bio_ECPKParameters                      output.o
PEM_write_bio_ECPrivateKey                        output.o
PEM_write_bio_EC_PUBKEY                           output.o
PEM_write_bio_NETSCAPE_CERT_SEQUENCE              output.o
PEM_write_bio_PKCS7                               output.o
PEM_write_bio_PKCS8                               output.o
PEM_write_bio_PKCS8PrivateKey                     output.o
PEM_write_bio_PKCS8PrivateKey_nid                 output.o
PEM_write_bio_PKCS8_PRIV_KEY_INFO                 output.o
PEM_write_bio_PUBKEY                              output.o
PEM_write_bio_Parameters                          output.o
PEM_write_bio_PrivateKey                          output.o
PEM_write_bio_RSAPrivateKey                       output.o
PEM_write_bio_RSAPublicKey                        output.o
PEM_write_bio_RSA_PUBKEY                          output.o
PEM_write_bio_X509                                output.o
PEM_write_bio_X509_CRL                            output.o
PEM_write_bio_X509_REQ                            output.o
PEM_write_bio_X509_REQ_NEW                        output.o
PHGetProtocol                                     output.o
PHSetProtocol                                     output.o
PKCS12_AUTHSAFES_it                               output.o
PKCS12_BAGS_free                                  output.o
PKCS12_BAGS_it                                    output.o
PKCS12_BAGS_new                                   output.o
PKCS12_MAC_DATA_free                              output.o
PKCS12_MAC_DATA_it                                output.o
PKCS12_MAC_DATA_new                               output.o
PKCS12_MAKE_KEYBAG                                output.o
PKCS12_MAKE_SHKEYBAG                              output.o
PKCS12_PBE_add                                    output.o
PKCS12_PBE_keyivgen                               output.o
PKCS12_SAFEBAGS_it                                output.o
PKCS12_SAFEBAG_free                               output.o
PKCS12_SAFEBAG_it                                 output.o
PKCS12_SAFEBAG_new                                output.o
PKCS12_certbag2x509                               output.o
PKCS12_certbag2x509crl                            output.o
PKCS12_decrypt_skey                               output.o
PKCS12_free                                       output.o
PKCS12_it                                         output.o
PKCS12_item_decrypt_d2i                           output.o
PKCS12_item_i2d_encrypt                           output.o
PKCS12_item_pack_safebag                          output.o
PKCS12_key_gen_asc                                output.o
PKCS12_key_gen_uni                                output.o
PKCS12_new                                        output.o
PKCS12_pack_authsafes                             output.o
PKCS12_pack_p7data                                output.o
PKCS12_pack_p7encdata                             output.o
PKCS12_pbe_crypt                                  output.o
PKCS12_unpack_authsafes                           output.o
PKCS12_unpack_p7data                              output.o
PKCS12_unpack_p7encdata                           output.o
PKCS12_x5092certbag                               output.o
PKCS12_x509crl2certbag                            output.o
PKCS1_MGF1                                        output.o
PKCS5_PBE_add                                     output.o
PKCS5_PBE_keyivgen                                output.o
PKCS5_PBKDF2_HMAC                                 output.o
PKCS5_PBKDF2_HMAC_SHA1                            output.o
PKCS5_pbe2_set                                    output.o
PKCS5_pbe2_set_iv                                 output.o
PKCS5_pbe_set                                     output.o
PKCS5_pbe_set0_algor                              output.o
PKCS5_v2_PBE_keyivgen                             output.o
PKCS7_ATTR_SIGN_it                                output.o
PKCS7_ATTR_VERIFY_it                              output.o
PKCS7_DIGEST_free                                 output.o
PKCS7_DIGEST_it                                   output.o
PKCS7_DIGEST_new                                  output.o
PKCS7_ENCRYPT_free                                output.o
PKCS7_ENCRYPT_it                                  output.o
PKCS7_ENCRYPT_new                                 output.o
PKCS7_ENC_CONTENT_free                            output.o
PKCS7_ENC_CONTENT_it                              output.o
PKCS7_ENC_CONTENT_new                             output.o
PKCS7_ENVELOPE_free                               output.o
PKCS7_ENVELOPE_it                                 output.o
PKCS7_ENVELOPE_new                                output.o
PKCS7_ISSUER_AND_SERIAL_digest                    output.o
PKCS7_ISSUER_AND_SERIAL_free                      output.o
PKCS7_ISSUER_AND_SERIAL_it                        output.o
PKCS7_ISSUER_AND_SERIAL_new                       output.o
PKCS7_RECIP_INFO_free                             output.o
PKCS7_RECIP_INFO_get0_alg                         output.o
PKCS7_RECIP_INFO_it                               output.o
PKCS7_RECIP_INFO_new                              output.o
PKCS7_RECIP_INFO_set                              output.o
PKCS7_SIGNED_free                                 output.o
PKCS7_SIGNED_it                                   output.o
PKCS7_SIGNED_new                                  output.o
PKCS7_SIGNER_INFO_free                            output.o
PKCS7_SIGNER_INFO_get0_algs                       output.o
PKCS7_SIGNER_INFO_it                              output.o
PKCS7_SIGNER_INFO_new                             output.o
PKCS7_SIGNER_INFO_set                             output.o
PKCS7_SIGNER_INFO_sign                            output.o
PKCS7_SIGN_ENVELOPE_free                          output.o
PKCS7_SIGN_ENVELOPE_it                            output.o
PKCS7_SIGN_ENVELOPE_new                           output.o
PKCS7_add0_attrib_signing_time                    output.o
PKCS7_add1_attrib_digest                          output.o
PKCS7_add_attrib_content_type                     output.o
PKCS7_add_attrib_smimecap                         output.o
PKCS7_add_attribute                               output.o
PKCS7_add_certificate                             output.o
PKCS7_add_crl                                     output.o
PKCS7_add_recipient                               output.o
PKCS7_add_recipient_info                          output.o
PKCS7_add_signature                               output.o
PKCS7_add_signed_attribute                        output.o
PKCS7_add_signer                                  output.o
PKCS7_cert_from_signer_info                       output.o
PKCS7_content_new                                 output.o
PKCS7_ctrl                                        output.o
PKCS7_dataDecode                                  output.o
PKCS7_dataFinal                                   output.o
PKCS7_dataInit                                    output.o
PKCS7_dataVerify                                  output.o
PKCS7_digest_from_attributes                      output.o
PKCS7_dup                                         output.o
PKCS7_free                                        output.o
PKCS7_get_attribute                               output.o
PKCS7_get_issuer_and_serial                       output.o
PKCS7_get_signed_attribute                        output.o
PKCS7_get_signer_info                             output.o
PKCS7_get_smimecap                                output.o
PKCS7_it                                          output.o
PKCS7_new                                         output.o
PKCS7_print_ctx                                   output.o
PKCS7_set0_type_other                             output.o
PKCS7_set_attributes                              output.o
PKCS7_set_cipher                                  output.o
PKCS7_set_content                                 output.o
PKCS7_set_digest                                  output.o
PKCS7_set_signed_attributes                       output.o
PKCS7_set_type                                    output.o
PKCS7_signatureVerify                             output.o
PKCS7_simple_smimecap                             output.o
PKCS7_stream                                      output.o
PKCS8_PRIV_KEY_INFO_free                          output.o
PKCS8_PRIV_KEY_INFO_it                            output.o
PKCS8_PRIV_KEY_INFO_new                           output.o
PKCS8_decrypt                                     output.o
PKCS8_encrypt                                     output.o
PKCS8_pkey_get0                                   output.o
PKCS8_pkey_set0                                   output.o
PKCS8_set_broken                                  output.o
PKEY_USAGE_PERIOD_free                            output.o
PKEY_USAGE_PERIOD_it                              output.o
PKEY_USAGE_PERIOD_new                             output.o
POLICYINFO_free                                   output.o
POLICYINFO_it                                     output.o
POLICYINFO_new                                    output.o
POLICYQUALINFO_free                               output.o
POLICYQUALINFO_it                                 output.o
POLICYQUALINFO_new                                output.o
POLICY_CONSTRAINTS_free                           output.o
POLICY_CONSTRAINTS_it                             output.o
POLICY_CONSTRAINTS_new                            output.o
POLICY_MAPPINGS_it                                output.o
POLICY_MAPPING_free                               output.o
POLICY_MAPPING_it                                 output.o
POLICY_MAPPING_new                                output.o
PROXY_CERT_INFO_EXTENSION_free                    output.o
PROXY_CERT_INFO_EXTENSION_it                      output.o
PROXY_CERT_INFO_EXTENSION_new                     output.o
PROXY_POLICY_free                                 output.o
PROXY_POLICY_it                                   output.o
PROXY_POLICY_new                                  output.o
PowerOff                                          output.o
PowerOn                                           output.o
RAND_SSLeay                                       output.o
RAND_add                                          output.o
RAND_bytes                                        output.o
RAND_cleanup                                      output.o
RAND_get_rand_method                              output.o
RAND_poll                                         output.o
RAND_pseudo_bytes                                 output.o
RAND_seed                                         output.o
RAND_set_rand_method                              output.o
RAND_status                                       output.o
RAND_version                                      output.o
RC2_cbc_encrypt                                   output.o
RC2_cfb64_encrypt                                 output.o
RC2_decrypt                                       output.o
RC2_ecb_encrypt                                   output.o
RC2_encrypt                                       output.o
RC2_ofb64_encrypt                                 output.o
RC2_set_key                                       output.o
RC2_version                                       output.o
RC4                                               output.o
RC4_options                                       output.o
RC4_set_key                                       output.o
RC4_version                                       output.o
RFAddReader                                       output.o
RFCheckReaderEventState                           output.o
RFReaderInfoById                                  output.o
RFRemoveReader                                    output.o
RIPEMD160_Final                                   output.o
RIPEMD160_Init                                    output.o
RIPEMD160_Transform                               output.o
RIPEMD160_Update                                  output.o
RMD160_version                                    output.o
RSAPrivateKey_dup                                 output.o
RSAPrivateKey_it                                  output.o
RSAPublicKey_dup                                  output.o
RSAPublicKey_it                                   output.o
RSA_PKCS1_SSLeay                                  output.o
RSA_X931_hash_id                                  output.o
RSA_blinding_off                                  output.o
RSA_blinding_on                                   output.o
RSA_flags                                         output.o
RSA_free                                          output.o
RSA_generate_key                                  output.o
RSA_generate_key_ex                               output.o
RSA_get_default_method                            output.o
RSA_get_ex_data                                   output.o
RSA_get_ex_new_index                              output.o
RSA_get_method                                    output.o
RSA_memory_lock                                   output.o
RSA_new                                           output.o
RSA_new_method                                    output.o
RSA_padding_add_PKCS1_OAEP                        output.o
RSA_padding_add_PKCS1_PSS                         output.o
RSA_padding_add_PKCS1_type_1                      output.o
RSA_padding_add_PKCS1_type_2                      output.o
RSA_padding_add_SSLv23                            output.o
RSA_padding_add_X931                              output.o
RSA_padding_add_none                              output.o
RSA_padding_check_PKCS1_OAEP                      output.o
RSA_padding_check_PKCS1_type_1                    output.o
RSA_padding_check_PKCS1_type_2                    output.o
RSA_padding_check_SSLv23                          output.o
RSA_padding_check_X931                            output.o
RSA_padding_check_none                            output.o
RSA_private_decrypt                               output.o
RSA_private_encrypt                               output.o
RSA_public_decrypt                                output.o
RSA_public_encrypt                                output.o
RSA_set_default_method                            output.o
RSA_set_ex_data                                   output.o
RSA_set_method                                    output.o
RSA_setup_blinding                                output.o
RSA_sign                                          output.o
RSA_size                                          output.o
RSA_up_ref                                        output.o
RSA_verify                                        output.o
RSA_verify_PKCS1_PSS                              output.o
RSA_version                                       output.o
ReadBinary                                        output.o
ReadDataT0                                        output.o
ReadUSB                                           output.o
ReceiveReply                                      output.o
SCardBeginTransaction                             output.o
SCardConnect                                      output.o
SCardDisconnect                                   output.o
SCardEndTransaction                               output.o
SCardEstablishContext                             output.o
SCardListReaders                                  output.o
SCardReleaseContext                               output.o
SCardStatus                                       output.o
SCardTransmit                                     output.o
SHA1                                              output.o
SHA1_Final                                        output.o
SHA1_Init                                         output.o
SHA1_Transform                                    output.o
SHA1_Update                                       output.o
SHA1_version                                      output.o
SHA224                                            output.o
SHA224_Final                                      output.o
SHA224_Init                                       output.o
SHA224_Update                                     output.o
SHA256                                            output.o
SHA256_Final                                      output.o
SHA256_Init                                       output.o
SHA256_Transform                                  output.o
SHA256_Update                                     output.o
SHA256_version                                    output.o
SHA384                                            output.o
SHA384_Final                                      output.o
SHA384_Init                                       output.o
SHA384_Update                                     output.o
SHA512                                            output.o
SHA512_Final                                      output.o
SHA512_Init                                       output.o
SHA512_Transform                                  output.o
SHA512_Update                                     output.o
SHA512_version                                    output.o
SHA_Final                                         output.o
SHA_Init                                          output.o
SHA_Transform                                     output.o
SHA_Update                                        output.o
SHA_version                                       output.o
SMIME_crlf_copy                                   output.o
SMIME_read_ASN1                                   output.o
SMIME_read_CMS                                    output.o
SMIME_text                                        output.o
SMIME_write_ASN1                                  output.o
SMIME_write_CMS                                   output.o
STACK_version                                     output.o
SXNETID_free                                      output.o
SXNETID_it                                        output.o
SXNETID_new                                       output.o
SXNET_add_id_INTEGER                              output.o
SXNET_add_id_asc                                  output.o
SXNET_add_id_ulong                                output.o
SXNET_free                                        output.o
SXNET_get_id_INTEGER                              output.o
SXNET_get_id_asc                                  output.o
SXNET_get_id_ulong                                output.o
SXNET_it                                          output.o
SXNET_new                                         output.o
Se4AddArpEntryList                                output.o
Se4AdjustTcpMss                                   output.o
Se4And                                            output.o
Se4BitToHex                                       output.o
Se4BroadcastMacAddress                            output.o
Se4BuildIcmpEchoPacket                            output.o
Se4CheckUnicastAddress                            output.o
Se4Cmp                                            output.o
Se4CmpArpEntry                                    output.o
Se4CmpArpWaitEntry                                output.o
Se4CmpIpCombineList                               output.o
Se4CombineIp                                      output.o
Se4FlushArpEntryList                              output.o
Se4FlushIpCombineList                             output.o
Se4FlushIpWaitList                                output.o
Se4Free                                           output.o
Se4FreeArpEntryList                               output.o
Se4FreeArpWaitList                                output.o
Se4FreeIpCombine                                  output.o
Se4FreeIpCombineList                              output.o
Se4FreeIpFragmentList                             output.o
Se4FreeIpHeaderInfo                               output.o
Se4FreeIpWait                                     output.o
Se4FreeIpWaitList                                 output.o
Se4GenerateSubnetMask                             output.o
Se4GenerateSubnetMask32                           output.o
Se4GetBroadcastAddress                            output.o
Se4GetHostAddress                                 output.o
Se4GetNetworkAddress                              output.o
Se4IPToStr                                        output.o
Se4IPToStr32                                      output.o
Se4IPToUINT                                       output.o
Se4Init                                           output.o
Se4InitArpEntryList                               output.o
Se4InitArpWaitList                                output.o
Se4InitIpCombineList                              output.o
Se4InitIpFragmentList                             output.o
Se4InitIpWaitList                                 output.o
Se4InsertIpCombine                                output.o
Se4InsertIpWait                                   output.o
Se4IpCheckChecksum                                output.o
Se4IpChecksum                                     output.o
Se4IsBroadcastAddress                             output.o
Se4IsInSameNetwork                                output.o
Se4IsSubnetMask                                   output.o
Se4IsZeroIP                                       output.o
Se4MacIpRelationKnown                             output.o
Se4MainProc                                       output.o
Se4Not                                            output.o
Se4Or                                             output.o
Se4ParseIpPacket                                  output.o
Se4ParseIpPacketICMPv4                            output.o
Se4ParseIpPacketUDPv4                             output.o
Se4ProcessArpWaitList                             output.o
Se4RecvArp                                        output.o
Se4RecvArpRequest                                 output.o
Se4RecvArpResponse                                output.o
Se4RecvEthPacket                                  output.o
Se4RecvIp                                         output.o
Se4RecvIpComplete                                 output.o
Se4SearchArpEntryList                             output.o
Se4SearchArpWaitList                              output.o
Se4SearchIpCombineList                            output.o
Se4SendArpDoProcess                               output.o
Se4SendArpRequest                                 output.o
Se4SendArpResponse                                output.o
Se4SendEthPacket                                  output.o
Se4SendIcmp                                       output.o
Se4SendIcmpEchoRequest                            output.o
Se4SendIcmpEchoResponse                           output.o
Se4SendIp                                         output.o
Se4SendIpFragment                                 output.o
Se4SendIpFragmentNow                              output.o
Se4SendRawIp                                      output.o
Se4SendUdp                                        output.o
Se4SendWaitingIpWait                              output.o
Se4StrToIP                                        output.o
Se4StrToIP32                                      output.o
Se4Tick                                           output.o
Se4UINTToIP                                       output.o
Se4ZeroIP                                         output.o
Se6AddGuestNode                                   output.o
Se6AddNeighborEntryList                           output.o
Se6And                                            output.o
Se6BroadcastMacAddress                            output.o
Se6BuildIcmpEchoPacket                            output.o
Se6CalcChecksum                                   output.o
Se6CheckIPItemStr                                 output.o
Se6CheckSubnetLength                              output.o
Se6CheckUnicastAddress                            output.o
Se6Cmp                                            output.o
Se6CmpIpCombineList                               output.o
Se6CmpNdpWaitEntry                                output.o
Se6CmpNeighborEntry                               output.o
Se6CombineIp                                      output.o
Se6FlushIpCombineList                             output.o
Se6FlushIpWaitList                                output.o
Se6FlushNeighborEntryList                         output.o
Se6Free                                           output.o
Se6FreeIpCombine                                  output.o
Se6FreeIpCombineList                              output.o
Se6FreeIpFragmentList                             output.o
Se6FreeIpHeaderInfo                               output.o
Se6FreeIpWait                                     output.o
Se6FreeIpWaitList                                 output.o
Se6FreeNdpWaitList                                output.o
Se6FreeNeighborEntryList                          output.o
Se6GenerateEui64Address                           output.o
Se6GenerateEui64GlobalAddress                     output.o
Se6GenerateEui64LocalAddress                      output.o
Se6GenerateMulticastMacAddress                    output.o
Se6GenerateSubnetMask                             output.o
Se6GetAllNodeMulticastAddr                        output.o
Se6GetAllRouterMulticastAddr                      output.o
Se6GetHostAddress                                 output.o
Se6GetIPAddrType                                  output.o
Se6GetPrefixAddress                               output.o
Se6GetSoliciationMulticastAddr                    output.o
Se6IPItemStrToChars                               output.o
Se6IPToStr                                        output.o
Se6Init                                           output.o
Se6InitIpCombineList                              output.o
Se6InitIpFragmentList                             output.o
Se6InitIpWaitList                                 output.o
Se6InitNdpWaitList                                output.o
Se6InitNeighborEntryList                          output.o
Se6InsertIpCombine                                output.o
Se6InsertIpWait                                   output.o
Se6IpChecksum                                     output.o
Se6IsGuestNode                                    output.o
Se6IsInSameNetwork                                output.o
Se6IsNetworkPrefixAddress                         output.o
Se6IsSubnetMask                                   output.o
Se6IsZeroIP                                       output.o
Se6LocalSubnet                                    output.o
Se6MacIpRelationKnown                             output.o
Se6MainProc                                       output.o
Se6Not                                            output.o
Se6Or                                             output.o
Se6ParseIpPacket                                  output.o
Se6ParseIpPacketICMPv6                            output.o
Se6ParseIpPacketUDPv6                             output.o
Se6ProcessNdpWaitList                             output.o
Se6RecvEthPacket                                  output.o
Se6RecvIp                                         output.o
Se6RecvIpComplete                                 output.o
Se6SearchIpCombineList                            output.o
Se6SearchNdpWaitList                              output.o
Se6SearchNeighborEntryList                        output.o
Se6SendEthPacket                                  output.o
Se6SendIcmp                                       output.o
Se6SendIcmpEchoRequest                            output.o
Se6SendIcmpEchoResponse                           output.o
Se6SendIcmpNeighborAdvertisement                  output.o
Se6SendIcmpNeighborSoliciation                    output.o
Se6SendIcmpRouterAdvertisement                    output.o
Se6SendIp                                         output.o
Se6SendIpFragment                                 output.o
Se6SendIpFragmentNow                              output.o
Se6SendNeighborSoliciation                        output.o
Se6SendNeighborSoliciationDoProcess               output.o
Se6SendRawIp                                      output.o
Se6SendUdp                                        output.o
Se6SendWaitingIpWait                              output.o
Se6StrToIP                                        output.o
Se6SubnetMaskToInt                                output.o
Se6Tick                                           output.o
Se6ZeroIP                                         output.o
SeAdd                                             output.o
SeAddBufStr                                       output.o
SeAdjustBufSize                                   output.o
SeB64CharToCode                                   output.o
SeB64CodeToChar                                   output.o
SeB64Decode                                       output.o
SeB64Encode                                       output.o
SeBSearch                                         output.o
SeBigNumToBuf                                     output.o
SeBigNumToStr                                     output.o
SeBinToBigNum                                     output.o
SeBinToStr                                        output.o
SeBinToStrEx                                      output.o
SeBioToBuf                                        output.o
SeBioToCert                                       output.o
SeBioToKey                                        output.o
SeBufToBigNum                                     output.o
SeBufToBio                                        output.o
SeBufToCert                                       output.o
SeBufToKey                                        output.o
SeBuildAndAddIPv6PacketOptionHeader               output.o
SeBuildICMPv6OptionValue                          output.o
SeBuildICMPv6Options                              output.o
SeBuildIPv6Packet                                 output.o
SeBuildIPv6PacketWithFragment                     output.o
SeCalcReplaceStrEx                                output.o
SeCertToBio                                       output.o
SeCertToBuf                                       output.o
SeCheckCert                                       output.o
SeCheckCertAndKey                                 output.o
SeCheckSignature                                  output.o
SeClearBuf                                        output.o
SeClearFifo                                       output.o
SeClone                                           output.o
SeCloneBuf                                        output.o
SeCloneCert                                       output.o
SeCloneKey                                        output.o
SeCloneList                                       output.o
SeCmp                                             output.o
SeCmpBuf                                          output.o
SeCmpEx                                           output.o
SeCompareCert                                     output.o
SeCompareStr                                      output.o
SeCopy                                            output.o
SeCopyStr                                         output.o
SeCopyToArray                                     output.o
SeDebug                                           output.o
SeDebugBin                                        output.o
SeDefaultTokenSplitChars                          output.o
SeDelete                                          output.o
SeDeleteAll                                       output.o
SeDeleteLock                                      output.o
SeDes3Decrypt                                     output.o
SeDes3Encrypt                                     output.o
SeDes3FreeKey                                     output.o
SeDes3NewKey                                      output.o
SeDes3RandKey                                     output.o
SeDesFreeKey                                      output.o
SeDesFreeKeyValue                                 output.o
SeDesNewKey                                       output.o
SeDesNewKeyValue                                  output.o
SeDesRandKey                                      output.o
SeDesRandKeyValue                                 output.o
SeDhCompute                                       output.o
SeDhFree                                          output.o
SeDhNew                                           output.o
SeDhNewGroup2                                     output.o
SeDumpBuf                                         output.o
SeEndWith                                         output.o
SeEndian16                                        output.o
SeEndian32                                        output.o
SeEndian64                                        output.o
SeError                                           output.o
SeEthAddSenderMacList                             output.o
SeEthDeleteOldSenderMacList                       output.o
SeEthFree                                         output.o
SeEthGenRandMacAddress                            output.o
SeEthGetInfo                                      output.o
SeEthGetNextRecvPacket                            output.o
SeEthIsSenderMacAddressExistsInList               output.o
SeEthNew                                          output.o
SeEthNicCallback                                  output.o
SeEthParseEthernetPacket                          output.o
SeEthSend                                         output.o
SeEthSendAdd                                      output.o
SeEthSendAll                                      output.o
SeFastSwap                                        output.o
SeFatal                                           output.o
SeFifoSize                                        output.o
SeFormat                                          output.o
SeFormatArgs                                      output.o
SeFormatEx                                        output.o
SeFree                                            output.o
SeFreeBio                                         output.o
SeFreeBuf                                         output.o
SeFreeBufWithoutBuffer                            output.o
SeFreeCert                                        output.o
SeFreeConfigEntryList                             output.o
SeFreeCrypto                                      output.o
SeFreeFifo                                        output.o
SeFreeKernel                                      output.o
SeFreeKey                                         output.o
SeFreeList                                        output.o
SeFreePKey                                        output.o
SeFreePacket                                      output.o
SeFreePacketList                                  output.o
SeFreePacketListWithoutBuffer                     output.o
SeFreeQueue                                       output.o
SeFreeStack                                       output.o
SeFreeToken                                       output.o
SeFreeX509                                        output.o
SeGetCertIssuerName                               output.o
SeGetCertMd5                                      output.o
SeGetCertSha1                                     output.o
SeGetCertSubjectName                              output.o
SeGetConfigBin                                    output.o
SeGetConfigBool                                   output.o
SeGetConfigEntry                                  output.o
SeGetConfigInt                                    output.o
SeGetConfigInt64                                  output.o
SeGetConfigStr                                    output.o
SeGetCurrentCpuId                                 output.o
SeGetKeyAndValue                                  output.o
SeGetKeyFromCert                                  output.o
SeGetNext                                         output.o
SeGetNextHeaderFromQueue                          output.o
SeGetNextInt                                      output.o
SeHashForSignBySHA1                               output.o
SeHexTo4Bit                                       output.o
SeHexToInt                                        output.o
SeHexToInt64                                      output.o
SeIkeBuild                                        output.o
SeIkeBuildCertPayload                             output.o
SeIkeBuildCertRequestPayload                      output.o
SeIkeBuildDataPayload                             output.o
SeIkeBuildDeletePayload                           output.o
SeIkeBuildIdPayload                               output.o
SeIkeBuildNoticePayload                           output.o
SeIkeBuildPayload                                 output.o
SeIkeBuildPayloadList                             output.o
SeIkeBuildProposalPayload                         output.o
SeIkeBuildSaPayload                               output.o
SeIkeBuildTransformPayload                        output.o
SeIkeBuildTransformValue                          output.o
SeIkeBuildTransformValueList                      output.o
SeIkeDecrypt                                      output.o
SeIkeEncrypt                                      output.o
SeIkeEncryptWithPadding                           output.o
SeIkeFree                                         output.o
SeIkeFreeCertPayload                              output.o
SeIkeFreeCertRequestPayload                       output.o
SeIkeFreeDataPayload                              output.o
SeIkeFreeDeletePayload                            output.o
SeIkeFreeIdPayload                                output.o
SeIkeFreeNoticePayload                            output.o
SeIkeFreePayload                                  output.o
SeIkeFreePayloadList                              output.o
SeIkeFreeProposalPayload                          output.o
SeIkeFreeSaPayload                                output.o
SeIkeFreeTransformPayload                         output.o
SeIkeFreeTransformValueList                       output.o
SeIkeGetFirstPayloadType                          output.o
SeIkeGetIPv4Address                               output.o
SeIkeGetIPv6Address                               output.o
SeIkeGetPayload                                   output.o
SeIkeGetPayloadNum                                output.o
SeIkeInitIPv4Address                              output.o
SeIkeInitIPv6Address                              output.o
SeIkeIpAddressToStr                               output.o
SeIkeIsZeroIP                                     output.o
SeIkeNew                                          output.o
SeIkeNewCertPayload                               output.o
SeIkeNewCertRequestPayload                        output.o
SeIkeNewDataPayload                               output.o
SeIkeNewDeletePayload                             output.o
SeIkeNewIdPayload                                 output.o
SeIkeNewNoticePayload                             output.o
SeIkeNewPayload                                   output.o
SeIkeNewProposalPayload                           output.o
SeIkeNewSaPayload                                 output.o
SeIkeNewTransformPayload                          output.o
SeIkeNewTransformValue                            output.o
SeIkeParse                                        output.o
SeIkeParseCertPayload                             output.o
SeIkeParseCertRequestPayload                      output.o
SeIkeParseDataPayload                             output.o
SeIkeParseDeletePayload                           output.o
SeIkeParseEx                                      output.o
SeIkeParseHeader                                  output.o
SeIkeParseIdPayload                               output.o
SeIkeParseNoticePayload                           output.o
SeIkeParsePayload                                 output.o
SeIkeParsePayloadList                             output.o
SeIkeParsePayloadListEx                           output.o
SeIkeParseProposalPayload                         output.o
SeIkeParseSaPayload                               output.o
SeIkeParseTransformPayload                        output.o
SeIkeParseTransformValueList                      output.o
SeIkePhase1CryptIdToKeySize                       output.o
SeIkePhase2CryptIdToKeySize                       output.o
SeIkeStrToPassword                                output.o
SeIkeStrToPhase1CryptId                           output.o
SeIkeStrToPhase1HashId                            output.o
SeIkeStrToPhase2CryptId                           output.o
SeIkeStrToPhase2HashId                            output.o
SeInfo                                            output.o
SeInitCrypto                                      output.o
SeInitKernel                                      output.o
SeInsert                                          output.o
SeInsertQueue                                     output.o
SeInsertQueueInt                                  output.o
SeInsertStr                                       output.o
SeIntFree                                         output.o
SeIntInit                                         output.o
SeIsAllLowerStr                                   output.o
SeIsAllUpperStr                                   output.o
SeIsBase64                                        output.o
SeIsBigEndian                                     output.o
SeIsCertSignedByCert                              output.o
SeIsCharInStr                                     output.o
SeIsEmptyStr                                      output.o
SeIsInList                                        output.o
SeIsInListStr                                     output.o
SeIsLittleEndian                                  output.o
SeIsSplitChar                                     output.o
SeIsZero                                          output.o
SeKeyToBio                                        output.o
SeKeyToBuf                                        output.o
SeLoad                                            output.o
SeLoadCert                                        output.o
SeLoadConfigEntryList                             output.o
SeLoadConfigEntryListFromBuf                      output.o
SeLoadKey                                         output.o
SeLock                                            output.o
SeLog                                             output.o
SeLogArgs                                         output.o
SeMacSha1                                         output.o
SeMacSha196                                       output.o
SeMacToStr                                        output.o
SeMakeCharArray                                   output.o
SeMalloc                                          output.o
SeMd5                                             output.o
SeMemSize                                         output.o
SeMemToBuf                                        output.o
SeNewBio                                          output.o
SeNewBuf                                          output.o
SeNewFifo                                         output.o
SeNewList                                         output.o
SeNewLock                                         output.o
SeNewQueue                                        output.o
SeNewStack                                        output.o
SeNormalizeCrlf                                   output.o
SeNullTokenList                                   output.o
SePKeyPasswordCallbackFunction                    output.o
SeParseICMPv6Options                              output.o
SeParseIPv6ExtHeader                              output.o
SeParseIPv6Packet                                 output.o
SeParsePacket                                     output.o
SeParsePacketL2                                   output.o
SeParsePacketL3ARPv4                              output.o
SeParsePacketL3IPv4                               output.o
SeParsePacketL3IPv6                               output.o
SeParseToken                                      output.o
SeParseTokenWithNullStr                           output.o
SePeekFifo                                        output.o
SePeekNext                                        output.o
SePop                                             output.o
SePush                                            output.o
SeQSort                                           output.o
SeRand                                            output.o
SeRand1                                           output.o
SeRand16                                          output.o
SeRand32                                          output.o
SeRand64                                          output.o
SeRand8                                           output.o
SeRandBuf                                         output.o
SeReAlloc                                         output.o
SeReadBuf                                         output.o
SeReadBufFromBuf                                  output.o
SeReadBufInt                                      output.o
SeReadBufInt64                                    output.o
SeReadBufStr                                      output.o
SeReadDump                                        output.o
SeReadFifo                                        output.o
SeReadNextLine                                    output.o
SeReadRemainBuf                                   output.o
SeReplaceListPointer                              output.o
SeReplaceStr                                      output.o
SeReplaceStrEx                                    output.o
SeReplaceStri                                     output.o
SeRsaGen                                          output.o
SeRsaPrivateDecrypt                               output.o
SeRsaPrivateEncrypt                               output.o
SeRsaPublicDecrypt                                output.o
SeRsaPublicEncrypt                                output.o
SeRsaPublicSize                                   output.o
SeRsaPublicToBin                                  output.o
SeRsaPublicToBuf                                  output.o
SeRsaSign                                         output.o
SeRsaSignWithPadding                              output.o
SeRsaSignWithSha1                                 output.o
SeRsaVerifyWithPadding                            output.o
SeRsaVerifyWithSha1                               output.o
SeSave                                            output.o
SeSaveCert                                        output.o
SeSaveKey                                         output.o
SeSearch                                          output.o
SeSearchStr                                       output.o
SeSearchStrEx                                     output.o
SeSearchStri                                      output.o
SeSecAddTimer                                     output.o
SeSecCalcKEYMAT                                   output.o
SeSecCalcKEYMATFull                               output.o
SeSecCalcKa                                       output.o
SeSecCalcP1Iv                                     output.o
SeSecCalcP1KeySet                                 output.o
SeSecCalcP2Iv                                     output.o
SeSecCheckIPsecSaExpires                          output.o
SeSecCheckIkeSaExpires                            output.o
SeSecCmpIkeSa                                     output.o
SeSecDeleteExpiredIPsecSa                         output.o
SeSecDeleteExpiredIkeSa                           output.o
SeSecDoInterval                                   output.o
SeSecEspRecvCallback                              output.o
SeSecForceReconnect                               output.o
SeSecFree                                         output.o
SeSecFreeIPsecSa                                  output.o
SeSecFreeIkeSa                                    output.o
SeSecFreeMain                                     output.o
SeSecFreeP1KeySet                                 output.o
SeSecFreeSaList                                   output.o
SeSecGenIPsecSASpi                                output.o
SeSecGenIkeSaInitCookie                           output.o
SeSecGenIkeSaMessageId                            output.o
SeSecGetIPsecSa                                   output.o
SeSecInit                                         output.o
SeSecInitMain                                     output.o
SeSecInitSaList                                   output.o
SeSecLifeSeconds64bit                             output.o
SeSecNewIPsecSa                                   output.o
SeSecNewIkeSa                                     output.o
SeSecNewSpi                                       output.o
SeSecProcessIkeSaMsg                              output.o
SeSecProcessIkeSaMsgInfo                          output.o
SeSecProcessIkeSaMsgPhase1                        output.o
SeSecProcessIkeSaMsgPhase2                        output.o
SeSecProcessMain                                  output.o
SeSecSearchIPsecSaBySpi                           output.o
SeSecSearchIkeSa                                  output.o
SeSecSearchIkeSaBySpi                             output.o
SeSecSendEsp                                      output.o
SeSecSendIPsecSaDeleteMsg                         output.o
SeSecSendIkeSaDeleteMsg                           output.o
SeSecSendIkeSaMsgInfo                             output.o
SeSecSendIkeSaMsgInfoSimple                       output.o
SeSecSendIkeSaMsgPhase2                           output.o
SeSecSendIkeSaMsgPhase2FinalHash                  output.o
SeSecSendUdp                                      output.o
SeSecSendVirtualIp                                output.o
SeSecSetRecvEspCallback                           output.o
SeSecSetRecvUdpCallback                           output.o
SeSecSetRecvVirtualIpCallback                     output.o
SeSecSetTimerCallback                             output.o
SeSecStartVpnConnect                              output.o
SeSecStrToAuthMethod                              output.o
SeSecTick                                         output.o
SeSecTimerCallback                                output.o
SeSecUdpRecvCallback                              output.o
SeSecVirtualIpRecvCallback                        output.o
SeSeekBuf                                         output.o
SeSetCmp                                          output.o
SeSetSortFlag                                     output.o
SeSha1                                            output.o
SeSort                                            output.o
SeStartWith                                       output.o
SeStrCat                                          output.o
SeStrCheckLen                                     output.o
SeStrCheckSize                                    output.o
SeStrCmp                                          output.o
SeStrCmpi                                         output.o
SeStrCpy                                          output.o
SeStrLen                                          output.o
SeStrLower                                        output.o
SeStrSize                                         output.o
SeStrToBin                                        output.o
SeStrToBinEx                                      output.o
SeStrToMac                                        output.o
SeStrUpper                                        output.o
SeStrnCmp                                         output.o
SeStrnCmpi                                        output.o
SeSwap                                            output.o
SeSwap16                                          output.o
SeSwap32                                          output.o
SeSwap64                                          output.o
SeSysFreeData                                     output.o
SeSysFreeLock                                     output.o
SeSysFreeTimer                                    output.o
SeSysGetCurrentCpuId                              output.o
SeSysGetPhysicalNicInfo                           output.o
SeSysGetTickCount                                 output.o
SeSysGetVirtualNicInfo                            output.o
SeSysLoadData                                     output.o
SeSysLock                                         output.o
SeSysLog                                          output.o
SeSysMemoryAlloc                                  output.o
SeSysMemoryFree                                   output.o
SeSysMemoryReAlloc                                output.o
SeSysNewLock                                      output.o
SeSysNewTimer                                     output.o
SeSysRsaSign                                      output.o
SeSysSaveData                                     output.o
SeSysSendPhysicalNic                              output.o
SeSysSendVirtualNic                               output.o
SeSysSetPhysicalNicRecvCallback                   output.o
SeSysSetTimer                                     output.o
SeSysSetVirtualNicRecvCallback                    output.o
SeSysUnlock                                       output.o
SeTick                                            output.o
SeTick64                                          output.o
SeTick64Internal                                  output.o
SeTimerAdjust                                     output.o
SeTimerCallback                                   output.o
SeTimerEntryCompare                               output.o
SeTimerFree                                       output.o
SeTimerNew                                        output.o
SeTimerSet                                        output.o
SeToArray                                         output.o
SeToHex                                           output.o
SeToHex64                                         output.o
SeToInt                                           output.o
SeToInt64                                         output.o
SeToLower                                         output.o
SeToStr                                           output.o
SeToStr3                                          output.o
SeToStr64                                         output.o
SeToUpper                                         output.o
SeTrim                                            output.o
SeTrimCopy                                        output.o
SeTrimCrlf                                        output.o
SeTrimLeft                                        output.o
SeTrimRight                                       output.o
SeUniqueToken                                     output.o
SeUnlock                                          output.o
SeVpn4ClientAddTimer                              output.o
SeVpn4ClientGetTick                               output.o
SeVpn4ClientSendEsp                               output.o
SeVpn4ClientSendUdp                               output.o
SeVpn4ClientSendVirtualIp                         output.o
SeVpn4ClientSetRecvEspCallback                    output.o
SeVpn4ClientSetRecvUdpCallback                    output.o
SeVpn4ClientSetRecvVirtualIpCallback              output.o
SeVpn4ClientSetTimerCallback                      output.o
SeVpn4DhcpBuildDhcpOptionList                     output.o
SeVpn4DhcpFreeOptionList                          output.o
SeVpn4DhcpOptionsToBuf                            output.o
SeVpn4DhcpParseOptionList                         output.o
SeVpn4DhcpParseOptionListMain                     output.o
SeVpn4DhcpSearchOption                            output.o
SeVpn4DhcpSendResponse                            output.o
SeVpn4DhcpServer                                  output.o
SeVpn4DoInterval                                  output.o
SeVpn4Free                                        output.o
SeVpn4FreeIPsec                                   output.o
SeVpn4IPsecInputFromPhysical                      output.o
SeVpn4IPsecInputFromVirtual                       output.o
SeVpn4IPsecMainProc                               output.o
SeVpn4IPsecSendPing                               output.o
SeVpn4Init                                        output.o
SeVpn4InitIPsec                                   output.o
SeVpn4InitSecConfig                               output.o
SeVpn4MainProc                                    output.o
SeVpn4NewDhcpOption                               output.o
SeVpn4RecvPacketPhysical                          output.o
SeVpn4RecvPacketVirtual                           output.o
SeVpn4SetTimer                                    output.o
SeVpn4Tick                                        output.o
SeVpn6ClientAddTimer                              output.o
SeVpn6ClientGetTick                               output.o
SeVpn6ClientSendEsp                               output.o
SeVpn6ClientSendUdp                               output.o
SeVpn6ClientSendVirtualIp                         output.o
SeVpn6ClientSetRecvEspCallback                    output.o
SeVpn6ClientSetRecvUdpCallback                    output.o
SeVpn6ClientSetRecvVirtualIpCallback              output.o
SeVpn6ClientSetTimerCallback                      output.o
SeVpn6DoInterval                                  output.o
SeVpn6Free                                        output.o
SeVpn6FreeIPsec                                   output.o
SeVpn6IPsecInputFromPhysical                      output.o
SeVpn6IPsecInputFromVirtual                       output.o
SeVpn6IPsecMainProc                               output.o
SeVpn6IPsecSendPing                               output.o
SeVpn6Init                                        output.o
SeVpn6InitIPsec                                   output.o
SeVpn6InitSecConfig                               output.o
SeVpn6MainProc                                    output.o
SeVpn6RecvPacketPhysical                          output.o
SeVpn6RecvPacketVirtual                           output.o
SeVpn6SetTimer                                    output.o
SeVpn6Tick                                        output.o
SeVpn6UpdateGuestOsIpAddress                      output.o
SeVpnAddTimer                                     output.o
SeVpnDoInterval                                   output.o
SeVpnEthRecvCallback                              output.o
SeVpnFree                                         output.o
SeVpnFreeConfig                                   output.o
SeVpnFreeIpStack                                  output.o
SeVpnInit                                         output.o
SeVpnInitIpStack                                  output.o
SeVpnLoadConfig                                   output.o
SeVpnMainFree                                     output.o
SeVpnMainHandler                                  output.o
SeVpnMainInit                                     output.o
SeVpnMainProcRecvEtherPacket                      output.o
SeVpnMainProcess                                  output.o
SeVpnRecvEtherPacket                              output.o
SeVpnRecvIpV4PacketCallback                       output.o
SeVpnRecvIpV6PacketCallback                       output.o
SeVpnSendEtherPacket                              output.o
SeVpnStatusChanged                                output.o
SeVpnTick                                         output.o
SeVpnTimerCallback                                output.o
SeWarning                                         output.o
SeWriteBuf                                        output.o
SeWriteBufBuf                                     output.o
SeWriteBufInt                                     output.o
SeWriteBufInt64                                   output.o
SeWriteBufLine                                    output.o
SeWriteBufStr                                     output.o
SeWriteFifo                                       output.o
SeX509ToCert                                      output.o
SeZero                                            output.o
SeZeroMalloc                                      output.o
SelectFileDF                                      output.o
SelectFileEF                                      output.o
SetATR                                            output.o
SetElem                                           output.o
SetLength                                         output.o
StIsdigit                                         output.o
StIsspace                                         output.o
T0XfrBlockCHAR                                    output.o
T0XfrBlockTPDU                                    output.o
T1NegociateIFSD                                   output.o
T1XfrBlockExtendedAPDU                            output.o
T1XfrBlockTPDU                                    output.o
TransHex2Tex                                      output.o
TransTex2Hex                                      output.o
TransmitCommand                                   output.o
TransmitPPS                                       output.o
UI_OpenSSL                                        output.o
UI_add_error_string                               output.o
UI_add_info_string                                output.o
UI_add_input_boolean                              output.o
UI_add_input_string                               output.o
UI_add_user_data                                  output.o
UI_add_verify_string                              output.o
UI_construct_prompt                               output.o
UI_create_method                                  output.o
UI_ctrl                                           output.o
UI_destroy_method                                 output.o
UI_dup_error_string                               output.o
UI_dup_info_string                                output.o
UI_dup_input_boolean                              output.o
UI_dup_input_string                               output.o
UI_dup_verify_string                              output.o
UI_free                                           output.o
UI_get0_action_string                             output.o
UI_get0_output_string                             output.o
UI_get0_result                                    output.o
UI_get0_result_string                             output.o
UI_get0_test_string                               output.o
UI_get0_user_data                                 output.o
UI_get_default_method                             output.o
UI_get_ex_data                                    output.o
UI_get_ex_new_index                               output.o
UI_get_input_flags                                output.o
UI_get_method                                     output.o
UI_get_result_maxsize                             output.o
UI_get_result_minsize                             output.o
UI_get_string_type                                output.o
UI_method_get_closer                              output.o
UI_method_get_flusher                             output.o
UI_method_get_opener                              output.o
UI_method_get_prompt_constructor                  output.o
UI_method_get_reader                              output.o
UI_method_get_writer                              output.o
UI_method_set_closer                              output.o
UI_method_set_flusher                             output.o
UI_method_set_opener                              output.o
UI_method_set_prompt_constructor                  output.o
UI_method_set_reader                              output.o
UI_method_set_writer                              output.o
UI_new                                            output.o
UI_new_method                                     output.o
UI_process                                        output.o
UI_set_default_method                             output.o
UI_set_ex_data                                    output.o
UI_set_method                                     output.o
UI_set_result                                     output.o
USERNOTICE_free                                   output.o
USERNOTICE_it                                     output.o
USERNOTICE_new                                    output.o
UTF8_getc                                         output.o
UTF8_putc                                         output.o
UpdateBinary                                      output.o
VPN_IPsec_Client_Start                            output.o
VPN_IPsec_Client_Stop                             output.o
VPN_IPsec_Free                                    output.o
VPN_IPsec_Init                                    output.o
Verify                                            output.o
WHIRLPOOL                                         output.o
WHIRLPOOL_BitUpdate                               output.o
WHIRLPOOL_Final                                   output.o
WHIRLPOOL_Init                                    output.o
WHIRLPOOL_Update                                  output.o
WriteUSB                                          output.o
X509V3_EXT_CRL_add_conf                           output.o
X509V3_EXT_CRL_add_nconf                          output.o
X509V3_EXT_REQ_add_conf                           output.o
X509V3_EXT_REQ_add_nconf                          output.o
X509V3_EXT_add                                    output.o
X509V3_EXT_add_alias                              output.o
X509V3_EXT_add_conf                               output.o
X509V3_EXT_add_list                               output.o
X509V3_EXT_add_nconf                              output.o
X509V3_EXT_add_nconf_sk                           output.o
X509V3_EXT_cleanup                                output.o
X509V3_EXT_conf                                   output.o
X509V3_EXT_conf_nid                               output.o
X509V3_EXT_d2i                                    output.o
X509V3_EXT_get                                    output.o
X509V3_EXT_get_nid                                output.o
X509V3_EXT_i2d                                    output.o
X509V3_EXT_nconf                                  output.o
X509V3_EXT_nconf_nid                              output.o
X509V3_EXT_print                                  output.o
X509V3_EXT_val_prn                                output.o
X509V3_NAME_from_section                          output.o
X509V3_add1_i2d                                   output.o
X509V3_add_standard_extensions                    output.o
X509V3_add_value                                  output.o
X509V3_add_value_bool                             output.o
X509V3_add_value_bool_nf                          output.o
X509V3_add_value_int                              output.o
X509V3_add_value_uchar                            output.o
X509V3_conf_free                                  output.o
X509V3_extensions_print                           output.o
X509V3_get_d2i                                    output.o
X509V3_get_section                                output.o
X509V3_get_string                                 output.o
X509V3_get_value_bool                             output.o
X509V3_get_value_int                              output.o
X509V3_parse_list                                 output.o
X509V3_section_free                               output.o
X509V3_set_conf_lhash                             output.o
X509V3_set_ctx                                    output.o
X509V3_set_nconf                                  output.o
X509V3_string_free                                output.o
X509_ALGORS_it                                    output.o
X509_ALGOR_dup                                    output.o
X509_ALGOR_free                                   output.o
X509_ALGOR_get0                                   output.o
X509_ALGOR_it                                     output.o
X509_ALGOR_new                                    output.o
X509_ALGOR_set0                                   output.o
X509_ATTRIBUTE_SET_it                             output.o
X509_ATTRIBUTE_count                              output.o
X509_ATTRIBUTE_create                             output.o
X509_ATTRIBUTE_create_by_NID                      output.o
X509_ATTRIBUTE_create_by_OBJ                      output.o
X509_ATTRIBUTE_create_by_txt                      output.o
X509_ATTRIBUTE_dup                                output.o
X509_ATTRIBUTE_free                               output.o
X509_ATTRIBUTE_get0_data                          output.o
X509_ATTRIBUTE_get0_object                        output.o
X509_ATTRIBUTE_get0_type                          output.o
X509_ATTRIBUTE_it                                 output.o
X509_ATTRIBUTE_new                                output.o
X509_ATTRIBUTE_set1_data                          output.o
X509_ATTRIBUTE_set1_object                        output.o
X509_CERT_AUX_free                                output.o
X509_CERT_AUX_it                                  output.o
X509_CERT_AUX_new                                 output.o
X509_CERT_AUX_print                               output.o
X509_CERT_PAIR_free                               output.o
X509_CERT_PAIR_it                                 output.o
X509_CERT_PAIR_new                                output.o
X509_CINF_free                                    output.o
X509_CINF_it                                      output.o
X509_CINF_new                                     output.o
X509_CRL_INFO_free                                output.o
X509_CRL_INFO_it                                  output.o
X509_CRL_INFO_new                                 output.o
X509_CRL_METHOD_free                              output.o
X509_CRL_METHOD_new                               output.o
X509_CRL_add0_revoked                             output.o
X509_CRL_add1_ext_i2d                             output.o
X509_CRL_add_ext                                  output.o
X509_CRL_cmp                                      output.o
X509_CRL_delete_ext                               output.o
X509_CRL_digest                                   output.o
X509_CRL_dup                                      output.o
X509_CRL_free                                     output.o
X509_CRL_get0_by_cert                             output.o
X509_CRL_get0_by_serial                           output.o
X509_CRL_get_ext                                  output.o
X509_CRL_get_ext_by_NID                           output.o
X509_CRL_get_ext_by_OBJ                           output.o
X509_CRL_get_ext_by_critical                      output.o
X509_CRL_get_ext_count                            output.o
X509_CRL_get_ext_d2i                              output.o
X509_CRL_get_meth_data                            output.o
X509_CRL_it                                       output.o
X509_CRL_match                                    output.o
X509_CRL_new                                      output.o
X509_CRL_set_default_method                       output.o
X509_CRL_set_meth_data                            output.o
X509_CRL_sign                                     output.o
X509_CRL_verify                                   output.o
X509_EXTENSIONS_it                                output.o
X509_EXTENSION_create_by_NID                      output.o
X509_EXTENSION_create_by_OBJ                      output.o
X509_EXTENSION_dup                                output.o
X509_EXTENSION_free                               output.o
X509_EXTENSION_get_critical                       output.o
X509_EXTENSION_get_data                           output.o
X509_EXTENSION_get_object                         output.o
X509_EXTENSION_it                                 output.o
X509_EXTENSION_new                                output.o
X509_EXTENSION_set_critical                       output.o
X509_EXTENSION_set_data                           output.o
X509_EXTENSION_set_object                         output.o
X509_LOOKUP_by_alias                              output.o
X509_LOOKUP_by_fingerprint                        output.o
X509_LOOKUP_by_issuer_serial                      output.o
X509_LOOKUP_by_subject                            output.o
X509_LOOKUP_ctrl                                  output.o
X509_LOOKUP_free                                  output.o
X509_LOOKUP_init                                  output.o
X509_LOOKUP_new                                   output.o
X509_LOOKUP_shutdown                              output.o
X509_NAME_ENTRIES_it                              output.o
X509_NAME_ENTRY_create_by_NID                     output.o
X509_NAME_ENTRY_create_by_OBJ                     output.o
X509_NAME_ENTRY_create_by_txt                     output.o
X509_NAME_ENTRY_dup                               output.o
X509_NAME_ENTRY_free                              output.o
X509_NAME_ENTRY_get_data                          output.o
X509_NAME_ENTRY_get_object                        output.o
X509_NAME_ENTRY_it                                output.o
X509_NAME_ENTRY_new                               output.o
X509_NAME_ENTRY_set_data                          output.o
X509_NAME_ENTRY_set_object                        output.o
X509_NAME_INTERNAL_it                             output.o
X509_NAME_add_entry                               output.o
X509_NAME_add_entry_by_NID                        output.o
X509_NAME_add_entry_by_OBJ                        output.o
X509_NAME_add_entry_by_txt                        output.o
X509_NAME_cmp                                     output.o
X509_NAME_delete_entry                            output.o
X509_NAME_digest                                  output.o
X509_NAME_dup                                     output.o
X509_NAME_entry_count                             output.o
X509_NAME_free                                    output.o
X509_NAME_get_entry                               output.o
X509_NAME_get_index_by_NID                        output.o
X509_NAME_get_index_by_OBJ                        output.o
X509_NAME_get_text_by_NID                         output.o
X509_NAME_get_text_by_OBJ                         output.o
X509_NAME_hash                                    output.o
X509_NAME_hash_old                                output.o
X509_NAME_it                                      output.o
X509_NAME_new                                     output.o
X509_NAME_oneline                                 output.o
X509_NAME_print                                   output.o
X509_NAME_print_ex                                output.o
X509_NAME_set                                     output.o
X509_OBJECT_free_contents                         output.o
X509_OBJECT_idx_by_subject                        output.o
X509_OBJECT_retrieve_by_subject                   output.o
X509_OBJECT_retrieve_match                        output.o
X509_OBJECT_up_ref_count                          output.o
X509_POLICY_NODE_print                            output.o
X509_PUBKEY_free                                  output.o
X509_PUBKEY_get                                   output.o
X509_PUBKEY_get0_param                            output.o
X509_PUBKEY_it                                    output.o
X509_PUBKEY_new                                   output.o
X509_PUBKEY_set                                   output.o
X509_PUBKEY_set0_param                            output.o
X509_PURPOSE_add                                  output.o
X509_PURPOSE_cleanup                              output.o
X509_PURPOSE_get0                                 output.o
X509_PURPOSE_get0_name                            output.o
X509_PURPOSE_get0_sname                           output.o
X509_PURPOSE_get_by_id                            output.o
X509_PURPOSE_get_by_sname                         output.o
X509_PURPOSE_get_count                            output.o
X509_PURPOSE_get_id                               output.o
X509_PURPOSE_get_trust                            output.o
X509_PURPOSE_set                                  output.o
X509_REQ_INFO_free                                output.o
X509_REQ_INFO_it                                  output.o
X509_REQ_INFO_new                                 output.o
X509_REQ_add1_attr                                output.o
X509_REQ_add1_attr_by_NID                         output.o
X509_REQ_add1_attr_by_OBJ                         output.o
X509_REQ_add1_attr_by_txt                         output.o
X509_REQ_add_extensions                           output.o
X509_REQ_add_extensions_nid                       output.o
X509_REQ_check_private_key                        output.o
X509_REQ_delete_attr                              output.o
X509_REQ_digest                                   output.o
X509_REQ_dup                                      output.o
X509_REQ_extension_nid                            output.o
X509_REQ_free                                     output.o
X509_REQ_get1_email                               output.o
X509_REQ_get_attr                                 output.o
X509_REQ_get_attr_by_NID                          output.o
X509_REQ_get_attr_by_OBJ                          output.o
X509_REQ_get_attr_count                           output.o
X509_REQ_get_extension_nids                       output.o
X509_REQ_get_extensions                           output.o
X509_REQ_get_pubkey                               output.o
X509_REQ_it                                       output.o
X509_REQ_new                                      output.o
X509_REQ_set_extension_nids                       output.o
X509_REQ_set_pubkey                               output.o
X509_REQ_set_subject_name                         output.o
X509_REQ_set_version                              output.o
X509_REQ_sign                                     output.o
X509_REQ_verify                                   output.o
X509_REVOKED_add1_ext_i2d                         output.o
X509_REVOKED_add_ext                              output.o
X509_REVOKED_delete_ext                           output.o
X509_REVOKED_free                                 output.o
X509_REVOKED_get_ext                              output.o
X509_REVOKED_get_ext_by_NID                       output.o
X509_REVOKED_get_ext_by_OBJ                       output.o
X509_REVOKED_get_ext_by_critical                  output.o
X509_REVOKED_get_ext_count                        output.o
X509_REVOKED_get_ext_d2i                          output.o
X509_REVOKED_it                                   output.o
X509_REVOKED_new                                  output.o
X509_SIG_free                                     output.o
X509_SIG_it                                       output.o
X509_SIG_new                                      output.o
X509_STORE_CTX_cleanup                            output.o
X509_STORE_CTX_free                               output.o
X509_STORE_CTX_get0_current_crl                   output.o
X509_STORE_CTX_get0_current_issuer                output.o
X509_STORE_CTX_get0_param                         output.o
X509_STORE_CTX_get0_parent_ctx                    output.o
X509_STORE_CTX_get0_policy_tree                   output.o
X509_STORE_CTX_get1_chain                         output.o
X509_STORE_CTX_get1_issuer                        output.o
X509_STORE_CTX_get_chain                          output.o
X509_STORE_CTX_get_current_cert                   output.o
X509_STORE_CTX_get_error                          output.o
X509_STORE_CTX_get_error_depth                    output.o
X509_STORE_CTX_get_ex_data                        output.o
X509_STORE_CTX_get_ex_new_index                   output.o
X509_STORE_CTX_get_explicit_policy                output.o
X509_STORE_CTX_init                               output.o
X509_STORE_CTX_new                                output.o
X509_STORE_CTX_purpose_inherit                    output.o
X509_STORE_CTX_set0_crls                          output.o
X509_STORE_CTX_set0_param                         output.o
X509_STORE_CTX_set_cert                           output.o
X509_STORE_CTX_set_chain                          output.o
X509_STORE_CTX_set_default                        output.o
X509_STORE_CTX_set_depth                          output.o
X509_STORE_CTX_set_error                          output.o
X509_STORE_CTX_set_ex_data                        output.o
X509_STORE_CTX_set_flags                          output.o
X509_STORE_CTX_set_purpose                        output.o
X509_STORE_CTX_set_time                           output.o
X509_STORE_CTX_set_trust                          output.o
X509_STORE_CTX_set_verify_cb                      output.o
X509_STORE_CTX_trusted_stack                      output.o
X509_STORE_add_cert                               output.o
X509_STORE_add_crl                                output.o
X509_STORE_add_lookup                             output.o
X509_STORE_free                                   output.o
X509_STORE_get1_certs                             output.o
X509_STORE_get1_crls                              output.o
X509_STORE_get_by_subject                         output.o
X509_STORE_new                                    output.o
X509_STORE_set1_param                             output.o
X509_STORE_set_depth                              output.o
X509_STORE_set_flags                              output.o
X509_STORE_set_purpose                            output.o
X509_STORE_set_trust                              output.o
X509_STORE_set_verify_cb                          output.o
X509_TRUST_add                                    output.o
X509_TRUST_cleanup                                output.o
X509_TRUST_get0                                   output.o
X509_TRUST_get0_name                              output.o
X509_TRUST_get_by_id                              output.o
X509_TRUST_get_count                              output.o
X509_TRUST_get_flags                              output.o
X509_TRUST_get_trust                              output.o
X509_TRUST_set                                    output.o
X509_TRUST_set_default                            output.o
X509_VAL_free                                     output.o
X509_VAL_it                                       output.o
X509_VAL_new                                      output.o
X509_VERIFY_PARAM_add0_policy                     output.o
X509_VERIFY_PARAM_add0_table                      output.o
X509_VERIFY_PARAM_clear_flags                     output.o
X509_VERIFY_PARAM_free                            output.o
X509_VERIFY_PARAM_get_depth                       output.o
X509_VERIFY_PARAM_get_flags                       output.o
X509_VERIFY_PARAM_inherit                         output.o
X509_VERIFY_PARAM_lookup                          output.o
X509_VERIFY_PARAM_new                             output.o
X509_VERIFY_PARAM_set1                            output.o
X509_VERIFY_PARAM_set1_name                       output.o
X509_VERIFY_PARAM_set1_policies                   output.o
X509_VERIFY_PARAM_set_depth                       output.o
X509_VERIFY_PARAM_set_flags                       output.o
X509_VERIFY_PARAM_set_purpose                     output.o
X509_VERIFY_PARAM_set_time                        output.o
X509_VERIFY_PARAM_set_trust                       output.o
X509_VERIFY_PARAM_table_cleanup                   output.o
X509_add1_ext_i2d                                 output.o
X509_add1_reject_object                           output.o
X509_add1_trust_object                            output.o
X509_add_ext                                      output.o
X509_alias_get0                                   output.o
X509_alias_set1                                   output.o
X509_check_akid                                   output.o
X509_check_ca                                     output.o
X509_check_issued                                 output.o
X509_check_private_key                            output.o
X509_check_purpose                                output.o
X509_check_trust                                  output.o
X509_cmp                                          output.o
X509_cmp_current_time                             output.o
X509_cmp_time                                     output.o
X509_delete_ext                                   output.o
X509_digest                                       output.o
X509_dup                                          output.o
X509_email_free                                   output.o
X509_find_by_issuer_and_serial                    output.o
X509_find_by_subject                              output.o
X509_free                                         output.o
X509_get0_pubkey_bitstr                           output.o
X509_get1_email                                   output.o
X509_get1_ocsp                                    output.o
X509_get_default_cert_area                        output.o
X509_get_default_cert_dir                         output.o
X509_get_default_cert_dir_env                     output.o
X509_get_default_cert_file                        output.o
X509_get_default_cert_file_env                    output.o
X509_get_default_private_dir                      output.o
X509_get_ex_data                                  output.o
X509_get_ex_new_index                             output.o
X509_get_ext                                      output.o
X509_get_ext_by_NID                               output.o
X509_get_ext_by_OBJ                               output.o
X509_get_ext_by_critical                          output.o
X509_get_ext_count                                output.o
X509_get_ext_d2i                                  output.o
X509_get_issuer_name                              output.o
X509_get_pubkey                                   output.o
X509_get_pubkey_parameters                        output.o
X509_get_serialNumber                             output.o
X509_get_subject_name                             output.o
X509_gmtime_adj                                   output.o
X509_issuer_and_serial_cmp                        output.o
X509_issuer_and_serial_hash                       output.o
X509_issuer_name_cmp                              output.o
X509_issuer_name_hash                             output.o
X509_issuer_name_hash_old                         output.o
X509_it                                           output.o
X509_keyid_get0                                   output.o
X509_keyid_set1                                   output.o
X509_new                                          output.o
X509_ocspid_print                                 output.o
X509_policy_check                                 output.o
X509_policy_level_get0_node                       output.o
X509_policy_level_node_count                      output.o
X509_policy_node_get0_parent                      output.o
X509_policy_node_get0_policy                      output.o
X509_policy_node_get0_qualifiers                  output.o
X509_policy_tree_free                             output.o
X509_policy_tree_get0_level                       output.o
X509_policy_tree_get0_policies                    output.o
X509_policy_tree_get0_user_policies               output.o
X509_policy_tree_level_count                      output.o
X509_print                                        output.o
X509_print_ex                                     output.o
X509_pubkey_digest                                output.o
X509_reject_clear                                 output.o
X509_set_ex_data                                  output.o
X509_sign                                         output.o
X509_signature_print                              output.o
X509_subject_name_cmp                             output.o
X509_subject_name_hash                            output.o
X509_subject_name_hash_old                        output.o
X509_supported_extension                          output.o
X509_time_adj                                     output.o
X509_time_adj_ex                                  output.o
X509_to_X509_REQ                                  output.o
X509_trust_clear                                  output.o
X509_verify                                       output.o
X509_verify_cert                                  output.o
X509_version                                      output.o
X509at_add1_attr                                  output.o
X509at_add1_attr_by_NID                           output.o
X509at_add1_attr_by_OBJ                           output.o
X509at_add1_attr_by_txt                           output.o
X509at_delete_attr                                output.o
X509at_get0_data_by_OBJ                           output.o
X509at_get_attr                                   output.o
X509at_get_attr_by_NID                            output.o
X509at_get_attr_by_OBJ                            output.o
X509at_get_attr_count                             output.o
X509v3_add_ext                                    output.o
X509v3_delete_ext                                 output.o
X509v3_get_ext                                    output.o
X509v3_get_ext_by_NID                             output.o
X509v3_get_ext_by_OBJ                             output.o
X509v3_get_ext_by_critical                        output.o
X509v3_get_ext_count                              output.o
X9_62_CHARACTERISTIC_TWO_free                     output.o
X9_62_CHARACTERISTIC_TWO_it                       output.o
X9_62_CHARACTERISTIC_TWO_new                      output.o
X9_62_CURVE_it                                    output.o
X9_62_FIELDID_it                                  output.o
X9_62_PENTANOMIAL_free                            output.o
X9_62_PENTANOMIAL_it                              output.o
X9_62_PENTANOMIAL_new                             output.o
ZLONG_it                                          output.o
_CONF_add_string                                  output.o
_CONF_free_data                                   output.o
_CONF_get_section                                 output.o
_CONF_get_section_values                          output.o
_CONF_get_string                                  output.o
_CONF_new_data                                    output.o
_CONF_new_section                                 output.o
__initfunc_acpi_init_global                       output.o
__initfunc_acpi_init_paral                        output.o
__initfunc_ata_init                               output.o
__initfunc_beep_init_msg                          output.o
__initfunc_cache_init_pass                        output.o
__initfunc_cache_init_pcpu                        output.o
__initfunc_cache_init_vcpu                        output.o
__initfunc_callrealmode_init_global               output.o
__initfunc_callrealmode_panic                     output.o
__initfunc_copy_minios                            output.o
__initfunc_core_init                              output.o
__initfunc_cpu_mmu_spt_init_global                output.o
__initfunc_cpu_mmu_spt_init_pcpu                  output.o
__initfunc_cpuid_init                             output.o
__initfunc_cpuid_pass_init                        output.o
__initfunc_create_pass_vm                         output.o
__initfunc_debug_ata_init                         output.o
__initfunc_debug_on_shift_key                     output.o
__initfunc_ehci_init                              output.o
__initfunc_end                                    output.o
__initfunc_exint_pass_init                        output.o
__initfunc_get_shiftflags                         output.o
__initfunc_gmm_pass_init                          output.o
__initfunc_idman_init                             output.o
__initfunc_idman_init_global                      output.o
__initfunc_idman_kernel_init                      output.o
__initfunc_ieee1394_init                          output.o
__initfunc_ieee1394_init_boot                     output.o
__initfunc_install_int0x15_hook                   output.o
__initfunc_int_init_global                        output.o
__initfunc_int_wakeup                             output.o
__initfunc_io_io_init                             output.o
__initfunc_io_iopass_init                         output.o
__initfunc_iommu_setup                            output.o
__initfunc_keyboard_init_msg                      output.o
__initfunc_localapic_init                         output.o
__initfunc_mm_init_global                         output.o
__initfunc_mmio_debug                             output.o
__initfunc_mmio_init                              output.o
__initfunc_msg_init_global                        output.o
__initfunc_msr_init                               output.o
__initfunc_msr_pass_init                          output.o
__initfunc_nmi_pass_init                          output.o
__initfunc_nmi_pass_init_pcpu                     output.o
__initfunc_panic_init_global                      output.o
__initfunc_panic_init_global3                     output.o
__initfunc_panic_init_msg                         output.o
__initfunc_panic_init_pcpu                        output.o
__initfunc_pci_init                               output.o
__initfunc_print_boot_msg                         output.o
__initfunc_printf_init_global                     output.o
__initfunc_pro100_init                            output.o
__initfunc_process_init_ap                        output.o
__initfunc_process_init_global                    output.o
__initfunc_process_wakeup                         output.o
__initfunc_random_init_config0                    output.o
__initfunc_random_init_global                     output.o
__initfunc_reboot_init_msg                        output.o
__initfunc_resume_pro1000                         output.o
__initfunc_segment_init_global                    output.o
__initfunc_serial_init_msg                        output.o
__initfunc_setiohooks                             output.o
__initfunc_sleep_init_global                      output.o
__initfunc_sleep_init_msg                         output.o
__initfunc_start                                  output.o
__initfunc_storage_io_initfunc                    output.o
__initfunc_storage_kernel_init                    output.o
__initfunc_suspend_pro1000                        output.o
__initfunc_svm_panic                              output.o
__initfunc_sx_init_pass_init                      output.o
__initfunc_thread_init_global                     output.o
__initfunc_thread_init_pcpu                       output.o
__initfunc_time_init_global                       output.o
__initfunc_time_init_global_status                output.o
__initfunc_time_init_msg                          output.o
__initfunc_time_init_pcpu                         output.o
__initfunc_timer_init_global                      output.o
__initfunc_tty_init_global                        output.o
__initfunc_tty_init_global2                       output.o
__initfunc_tty_init_msg                           output.o
__initfunc_uhci_init                              output.o
__initfunc_unmap_user_area                        output.o
__initfunc_vcpu_init_global                       output.o
__initfunc_vga_init                               output.o
__initfunc_virtualization_init_pcpu               output.o
__initfunc_vmmcall_boot_init                      output.o
__initfunc_vmmcall_dbgsh_init                     output.o
__initfunc_vmmcall_dbgsh_init_global              output.o
__initfunc_vmmcall_dbgsh_init_pcpu                output.o
__initfunc_vmmcall_iccard_init                    output.o
__initfunc_vmmcall_init                           output.o
__initfunc_vmmcall_log_init                       output.o
__initfunc_vmmcall_status_init                    output.o
__initfunc_vmmcall_status_init_global             output.o
__initfunc_vpn_kernel_init                        output.o
__initfunc_vpn_pro1000_init                       output.o
__initfunc_vramwrite_init_bsp                     output.o
__initfunc_vramwrite_init_msg                     output.o
__initfunc_vt_panic                               output.o
__initfunc_vt_register_status_callback            output.o
__initfunc_xsetbv_init                            output.o
__initfunc_xsetbv_pass_init                       output.o
__process_builtin                                 output.o
__process_builtin_end                             output.o
_dprintf                                          output.o
_dprintft                                         output.o
_shadow_DES_check_key                             output.o
a2d_ASN1_OBJECT                                   output.o
a2i_ASN1_INTEGER                                  output.o
a2i_ASN1_STRING                                   output.o
a2i_GENERAL_NAME                                  output.o
a2i_IPADDRESS                                     output.o
a2i_IPADDRESS_NC                                  output.o
a2i_ipadd                                         output.o
acpi_dsdt_parse                                   output.o
acpi_dsdt_system_state                            output.o
acpi_iohook                                       output.o
acpi_poweroff                                     output.o
acpi_reset                                        output.o
acpi_smi_hook                                     output.o
add_remap                                         output.o
aes_xts_init                                      output.o
ahci_config_read                                  output.o
ahci_config_write                                 output.o
ahci_new                                          output.o
alloc                                             output.o
alloc2                                            output.o
alloc_handler_descriptor                          output.o
alloc_page                                        output.o
alloc_pages                                       output.o
alloc_realmodemem                                 output.o
allocateNewAppID                                  output.o
allocateNewApplicationIdentifiers                 output.o
allocateNewVMID                                   output.o
allocateNewZeroPage                               output.o
ap_start_addr                                     output.o
apic_available                                    output.o
apinit_lock                                       output.o
apinit_procs                                      output.o
apinitproc0                                       output.o
app_pkey_methods                                  output.o
asm_vmlaunch_regs_32                              output.o
asm_vmlaunch_regs_64                              output.o
asm_vmresume_regs_32                              output.o
asm_vmresume_regs_64                              output.o
asm_vmrun_regs_32                                 output.o
asm_vmrun_regs_64                                 output.o
asn1_Finish                                       output.o
asn1_GetSequence                                  output.o
asn1_add_error                                    output.o
asn1_const_Finish                                 output.o
asn1_do_adb                                       output.o
asn1_do_lock                                      output.o
asn1_enc_free                                     output.o
asn1_enc_init                                     output.o
asn1_enc_restore                                  output.o
asn1_enc_save                                     output.o
asn1_ex_c2i                                       output.o
asn1_ex_i2c                                       output.o
asn1_get_choice_selector                          output.o
asn1_get_field_ptr                                output.o
asn1_set_choice_selector                          output.o
asn1_template_print_ctx                           output.o
assertion_failed                                  output.o
ata_ahci_mode                                     output.o
ata_bm_handle_command                             output.o
ata_bm_handle_device_specific                     output.o
ata_bm_handle_prd_table                           output.o
ata_bm_handle_status                              output.o
ata_bm_handler                                    output.o
ata_bm_handler_table                              output.o
ata_channel_lock                                  output.o
ata_channel_unlock                                output.o
ata_cmdblk_handler                                output.o
ata_cmdblk_handler_table                          output.o
ata_config_read                                   output.o
ata_config_write                                  output.o
ata_ctlblk_handler                                output.o
ata_ctlblk_handler_table                          output.o
ata_get_cmd_type                                  output.o
ata_handle_queued_status                          output.o
ata_init_io_handler                               output.o
ata_init_vendor                                   output.o
ata_set_bm_handler                                output.o
ata_set_cmdblk_handler                            output.o
ata_set_ctlblk_handler                            output.o
atapi_handle_cmd_packet                           output.o
atapi_handle_config_data                          output.o
atapi_handle_interrupt_reason                     output.o
atapi_handle_packet_data                          output.o
atapi_handle_pio_identify_packet                  output.o
auto_reboot                                       output.o
backtrace                                         output.o
beep_off                                          output.o
beep_on                                           output.o
beep_set_freq                                     output.o
bn_add_part_words                                 output.o
bn_add_words                                      output.o
bn_cmp_part_words                                 output.o
bn_cmp_words                                      output.o
bn_div_words                                      output.o
bn_dup_expand                                     output.o
bn_expand2                                        output.o
bn_mul_add_words                                  output.o
bn_mul_comba4                                     output.o
bn_mul_comba8                                     output.o
bn_mul_high                                       output.o
bn_mul_low_normal                                 output.o
bn_mul_low_recursive                              output.o
bn_mul_normal                                     output.o
bn_mul_part_recursive                             output.o
bn_mul_recursive                                  output.o
bn_mul_words                                      output.o
bn_sqr_comba4                                     output.o
bn_sqr_comba8                                     output.o
bn_sqr_normal                                     output.o
bn_sqr_recursive                                  output.o
bn_sqr_words                                      output.o
bn_sub_part_words                                 output.o
bn_sub_words                                      output.o
bss                                               output.o
c2i_ASN1_BIT_STRING                               output.o
c2i_ASN1_INTEGER                                  output.o
c2i_ASN1_OBJECT                                   output.o
cache_get_attr                                    output.o
cache_get_gmsr_amd                                output.o
cache_get_gmtrr                                   output.o
cache_get_gmtrr_attr                              output.o
cache_get_gmtrr_type                              output.o
cache_get_gmtrrcap                                output.o
cache_get_gpat                                    output.o
cache_set_gmsr_amd                                output.o
cache_set_gmtrr                                   output.o
cache_set_gpat                                    output.o
call_cpuid                                        output.o
call_initfunc                                     output.o
call_io                                           output.o
call_read_msr                                     output.o
call_write_msr                                    output.o
call_xsetbv                                       output.o
callfunc_and_getint                               output.o
callrealmode_bootcd_getstatus                     output.o
callrealmode_disk_readlba                         output.o
callrealmode_disk_readmbr                         output.o
callrealmode_end                                  output.o
callrealmode_endofcodeaddr                        output.o
callrealmode_getfontinfo                          output.o
callrealmode_getshiftflags                        output.o
callrealmode_getsysmemmap                         output.o
callrealmode_printmsg                             output.o
callrealmode_reboot                               output.o
callrealmode_setcursorpos                         output.o
callrealmode_setvideomode                         output.o
callrealmode_start                                output.o
callrealmode_start2                               output.o
callrealmode_startkernel32                        output.o
callrealmode_tcgbios                              output.o
callrealmode_usevcpu                              output.o
cancel_sleep                                      output.o
changePageStatus                                  output.o
check_defer                                       output.o
chelp_abort                                       output.o
chelp_bsearch                                     output.o
chelp_div_64_32_32                                output.o
chelp_div_64_32_64                                output.o
chelp_free                                        output.o
chelp_inited                                      output.o
chelp_isalnum                                     output.o
chelp_isalpha                                     output.o
chelp_isdigit                                     output.o
chelp_islower                                     output.o
chelp_isspace                                     output.o
chelp_isupper                                     output.o
chelp_isxdigit                                    output.o
chelp_malloc                                      output.o
chelp_memchr                                      output.o
chelp_memcmp                                      output.o
chelp_memcpy                                      output.o
chelp_memmove                                     output.o
chelp_memset                                      output.o
chelp_mod_64_32_32                                output.o
chelp_mul_64_64_64                                output.o
chelp_print                                       output.o
chelp_printf                                      output.o
chelp_qsort                                       output.o
chelp_realloc                                     output.o
chelp_snprintf                                    output.o
chelp_sprintf                                     output.o
chelp_strcat                                      output.o
chelp_strchr                                      output.o
chelp_strcmp                                      output.o
chelp_strcpy                                      output.o
chelp_stricmp                                     output.o
chelp_strlen                                      output.o
chelp_strncasecmp                                 output.o
chelp_strncmp                                     output.o
chelp_strncpy                                     output.o
chelp_strrchr                                     output.o
chelp_strtol                                      output.o
chelp_strtoul                                     output.o
chelp_strtoul_ex                                  output.o
chelp_swap                                        output.o
chelp_tolower                                     output.o
chelp_toupper                                     output.o
cleanse_ctr                                       output.o
clear_guest_status                                output.o
clflush_size                                      output.o
closePage                                         output.o
cmpxchg_gphys_l                                   output.o
cmpxchg_gphys_q                                   output.o
cmpxchg_hphys_l                                   output.o
cmpxchg_hphys_q                                   output.o
cms_Data_create                                   output.o
cms_DigestAlgorithm_find_ctx                      output.o
cms_DigestAlgorithm_init_bio                      output.o
cms_DigestAlgorithm_set                           output.o
cms_DigestedData_create                           output.o
cms_DigestedData_do_final                         output.o
cms_DigestedData_init_bio                         output.o
cms_EncryptedContent_init                         output.o
cms_EncryptedContent_init_bio                     output.o
cms_EncryptedData_init_bio                        output.o
cms_EnvelopedData_init_bio                        output.o
cms_SignedData_final                              output.o
cms_SignedData_init_bio                           output.o
cms_SignerIdentifier_cert_cmp                     output.o
cms_SignerIdentifier_get0_signer_id               output.o
cms_content_bio                                   output.o
cms_set1_SignerIdentifier                         output.o
config                                            output.o
copy_bootsector                                   output.o
core_init                                         output.o
core_io_handle_default                            output.o
core_io_modify_handler                            output.o
core_io_register_handler                          output.o
core_io_unregister_handler                        output.o
core_mm_read_guest_phys                           output.o
core_mm_write_guest_phys                          output.o
cpu_emul_cli                                      output.o
cpu_emul_cpuid                                    output.o
cpu_emul_hlt                                      output.o
cpu_emul_rdmsr                                    output.o
cpu_emul_realmode_int                             output.o
cpu_emul_sti                                      output.o
cpu_emul_wrmsr                                    output.o
cpu_emul_xsetbv                                   output.o
cpu_interpreter                                   output.o
cpu_mmu_get_pte                                   output.o
cpu_mmu_spt_clear_all                             output.o
cpu_mmu_spt_extern_mapsearch                      output.o
cpu_mmu_spt_init                                  output.o
cpu_mmu_spt_invalidate                            output.o
cpu_mmu_spt_map_1mb                               output.o
cpu_mmu_spt_pagefault                             output.o
cpu_mmu_spt_tlbflush                              output.o
cpu_mmu_spt_updatecr3                             output.o
cpu_seg_read_b                                    output.o
cpu_seg_read_l                                    output.o
cpu_seg_read_q                                    output.o
cpu_seg_read_w                                    output.o
cpu_seg_write_b                                   output.o
cpu_seg_write_l                                   output.o
cpu_seg_write_q                                   output.o
cpu_seg_write_w                                   output.o
cpu_stack_get                                     output.o
cpu_stack_pop                                     output.o
cpu_stack_push                                    output.o
cpu_stack_set                                     output.o
cpuinit_end                                       output.o
cpuinit_start                                     output.o
create_dom                                        output.o
crypt_sys_rsa_sign                                output.o
crypto_find                                       output.o
crypto_init                                       output.o
crypto_none_init                                  output.o
crypto_register                                   output.o
currentProtectedApplication                       output.o
currentRunningApplication                         output.o
curthread                                         output.o
d2i_ACCESS_DESCRIPTION                            output.o
d2i_ASN1_BIT_STRING                               output.o
d2i_ASN1_BMPSTRING                                output.o
d2i_ASN1_BOOLEAN                                  output.o
d2i_ASN1_ENUMERATED                               output.o
d2i_ASN1_GENERALIZEDTIME                          output.o
d2i_ASN1_GENERALSTRING                            output.o
d2i_ASN1_IA5STRING                                output.o
d2i_ASN1_INTEGER                                  output.o
d2i_ASN1_NULL                                     output.o
d2i_ASN1_OBJECT                                   output.o
d2i_ASN1_OCTET_STRING                             output.o
d2i_ASN1_PRINTABLE                                output.o
d2i_ASN1_PRINTABLESTRING                          output.o
d2i_ASN1_SEQUENCE_ANY                             output.o
d2i_ASN1_SET                                      output.o
d2i_ASN1_SET_ANY                                  output.o
d2i_ASN1_T61STRING                                output.o
d2i_ASN1_TIME                                     output.o
d2i_ASN1_TYPE                                     output.o
d2i_ASN1_UINTEGER                                 output.o
d2i_ASN1_UNIVERSALSTRING                          output.o
d2i_ASN1_UTCTIME                                  output.o
d2i_ASN1_UTF8STRING                               output.o
d2i_ASN1_VISIBLESTRING                            output.o
d2i_ASN1_bytes                                    output.o
d2i_ASN1_type_bytes                               output.o
d2i_AUTHORITY_INFO_ACCESS                         output.o
d2i_AUTHORITY_KEYID                               output.o
d2i_AutoPrivateKey                                output.o
d2i_BASIC_CONSTRAINTS                             output.o
d2i_CERTIFICATEPOLICIES                           output.o
d2i_CMS_ContentInfo                               output.o
d2i_CMS_bio                                       output.o
d2i_CRL_DIST_POINTS                               output.o
d2i_DHparams                                      output.o
d2i_DIRECTORYSTRING                               output.o
d2i_DISPLAYTEXT                                   output.o
d2i_DIST_POINT                                    output.o
d2i_DIST_POINT_NAME                               output.o
d2i_DSAPrivateKey                                 output.o
d2i_DSAPrivateKey_bio                             output.o
d2i_DSAPublicKey                                  output.o
d2i_DSA_PUBKEY                                    output.o
d2i_DSA_PUBKEY_bio                                output.o
d2i_DSA_SIG                                       output.o
d2i_DSAparams                                     output.o
d2i_ECDSA_SIG                                     output.o
d2i_ECPKPARAMETERS                                output.o
d2i_ECPKParameters                                output.o
d2i_ECParameters                                  output.o
d2i_ECPrivateKey                                  output.o
d2i_ECPrivateKey_bio                              output.o
d2i_EC_PRIVATEKEY                                 output.o
d2i_EC_PUBKEY                                     output.o
d2i_EC_PUBKEY_bio                                 output.o
d2i_EDIPARTYNAME                                  output.o
d2i_EXTENDED_KEY_USAGE                            output.o
d2i_GENERAL_NAME                                  output.o
d2i_GENERAL_NAMES                                 output.o
d2i_ISSUING_DIST_POINT                            output.o
d2i_NETSCAPE_CERT_SEQUENCE                        output.o
d2i_NETSCAPE_SPKAC                                output.o
d2i_NETSCAPE_SPKI                                 output.o
d2i_NOTICEREF                                     output.o
d2i_OCSP_BASICRESP                                output.o
d2i_OCSP_CERTID                                   output.o
d2i_OCSP_CERTSTATUS                               output.o
d2i_OCSP_CRLID                                    output.o
d2i_OCSP_ONEREQ                                   output.o
d2i_OCSP_REQINFO                                  output.o
d2i_OCSP_REQUEST                                  output.o
d2i_OCSP_RESPBYTES                                output.o
d2i_OCSP_RESPDATA                                 output.o
d2i_OCSP_RESPID                                   output.o
d2i_OCSP_RESPONSE                                 output.o
d2i_OCSP_REVOKEDINFO                              output.o
d2i_OCSP_SERVICELOC                               output.o
d2i_OCSP_SIGNATURE                                output.o
d2i_OCSP_SINGLERESP                               output.o
d2i_OTHERNAME                                     output.o
d2i_PBE2PARAM                                     output.o
d2i_PBEPARAM                                      output.o
d2i_PBKDF2PARAM                                   output.o
d2i_PKCS12                                        output.o
d2i_PKCS12_BAGS                                   output.o
d2i_PKCS12_MAC_DATA                               output.o
d2i_PKCS12_SAFEBAG                                output.o
d2i_PKCS12_bio                                    output.o
d2i_PKCS7                                         output.o
d2i_PKCS7_DIGEST                                  output.o
d2i_PKCS7_ENCRYPT                                 output.o
d2i_PKCS7_ENC_CONTENT                             output.o
d2i_PKCS7_ENVELOPE                                output.o
d2i_PKCS7_ISSUER_AND_SERIAL                       output.o
d2i_PKCS7_RECIP_INFO                              output.o
d2i_PKCS7_SIGNED                                  output.o
d2i_PKCS7_SIGNER_INFO                             output.o
d2i_PKCS7_SIGN_ENVELOPE                           output.o
d2i_PKCS7_bio                                     output.o
d2i_PKCS8PrivateKey_bio                           output.o
d2i_PKCS8_PRIV_KEY_INFO                           output.o
d2i_PKCS8_PRIV_KEY_INFO_bio                       output.o
d2i_PKCS8_bio                                     output.o
d2i_PKEY_USAGE_PERIOD                             output.o
d2i_POLICYINFO                                    output.o
d2i_POLICYQUALINFO                                output.o
d2i_PROXY_CERT_INFO_EXTENSION                     output.o
d2i_PROXY_POLICY                                  output.o
d2i_PUBKEY                                        output.o
d2i_PUBKEY_bio                                    output.o
d2i_PrivateKey                                    output.o
d2i_PrivateKey_bio                                output.o
d2i_RSAPrivateKey                                 output.o
d2i_RSAPrivateKey_bio                             output.o
d2i_RSAPublicKey                                  output.o
d2i_RSAPublicKey_bio                              output.o
d2i_RSA_PUBKEY                                    output.o
d2i_RSA_PUBKEY_bio                                output.o
d2i_SXNET                                         output.o
d2i_SXNETID                                       output.o
d2i_USERNOTICE                                    output.o
d2i_X509                                          output.o
d2i_X509_ALGOR                                    output.o
d2i_X509_ALGORS                                   output.o
d2i_X509_ATTRIBUTE                                output.o
d2i_X509_AUX                                      output.o
d2i_X509_CERT_AUX                                 output.o
d2i_X509_CERT_PAIR                                output.o
d2i_X509_CINF                                     output.o
d2i_X509_CRL                                      output.o
d2i_X509_CRL_INFO                                 output.o
d2i_X509_CRL_bio                                  output.o
d2i_X509_EXTENSION                                output.o
d2i_X509_EXTENSIONS                               output.o
d2i_X509_NAME                                     output.o
d2i_X509_NAME_ENTRY                               output.o
d2i_X509_PUBKEY                                   output.o
d2i_X509_REQ                                      output.o
d2i_X509_REQ_INFO                                 output.o
d2i_X509_REQ_bio                                  output.o
d2i_X509_REVOKED                                  output.o
d2i_X509_SIG                                      output.o
d2i_X509_VAL                                      output.o
d2i_X509_bio                                      output.o
deactivate_and_delete_urb                         output.o
debug_addstr                                      output.o
debug_gdb                                         output.o
debug_iohook                                      output.o
debug_msgregister                                 output.o
debug_msgunregister                               output.o
decryptcfg                                        output.o
default_pctx                                      output.o
dh_asn1_meth                                      output.o
dh_pkey_meth                                      output.o
disable_apic                                      output.o
do_exint_pass                                     output.o
do_externalint_enable                             output.o
do_io_nothing                                     output.o
do_iopass_default                                 output.o
do_panic_reboot                                   output.o
dom_io                                            output.o
dprintf_port                                      output.o
drhd_list_head                                    output.o
dsa_asn1_meths                                    output.o
dsa_builtin_paramgen                              output.o
dsa_pkey_meth                                     output.o
dsa_pub_internal_it                               output.o
dump_frame                                        output.o
dump_qh                                           output.o
dump_td                                           output.o
dump_td_byvirt                                    output.o
dwReaders                                         output.o
e801_fake_ax                                      output.o
e801_fake_bx                                      output.o
ec_GF2m_have_precompute_mult                      output.o
ec_GF2m_precompute_mult                           output.o
ec_GF2m_simple_add                                output.o
ec_GF2m_simple_cmp                                output.o
ec_GF2m_simple_dbl                                output.o
ec_GF2m_simple_field_div                          output.o
ec_GF2m_simple_field_mul                          output.o
ec_GF2m_simple_field_sqr                          output.o
ec_GF2m_simple_group_check_discriminant           output.o
ec_GF2m_simple_group_clear_finish                 output.o
ec_GF2m_simple_group_copy                         output.o
ec_GF2m_simple_group_finish                       output.o
ec_GF2m_simple_group_get_curve                    output.o
ec_GF2m_simple_group_get_degree                   output.o
ec_GF2m_simple_group_init                         output.o
ec_GF2m_simple_group_set_curve                    output.o
ec_GF2m_simple_invert                             output.o
ec_GF2m_simple_is_at_infinity                     output.o
ec_GF2m_simple_is_on_curve                        output.o
ec_GF2m_simple_make_affine                        output.o
ec_GF2m_simple_mul                                output.o
ec_GF2m_simple_oct2point                          output.o
ec_GF2m_simple_point2oct                          output.o
ec_GF2m_simple_point_clear_finish                 output.o
ec_GF2m_simple_point_copy                         output.o
ec_GF2m_simple_point_finish                       output.o
ec_GF2m_simple_point_get_affine_coordinates       output.o
ec_GF2m_simple_point_init                         output.o
ec_GF2m_simple_point_set_affine_coordinates       output.o
ec_GF2m_simple_point_set_to_infinity              output.o
ec_GF2m_simple_points_make_affine                 output.o
ec_GF2m_simple_set_compressed_coordinates         output.o
ec_GFp_mont_field_decode                          output.o
ec_GFp_mont_field_encode                          output.o
ec_GFp_mont_field_mul                             output.o
ec_GFp_mont_field_set_to_one                      output.o
ec_GFp_mont_field_sqr                             output.o
ec_GFp_mont_group_clear_finish                    output.o
ec_GFp_mont_group_copy                            output.o
ec_GFp_mont_group_finish                          output.o
ec_GFp_mont_group_init                            output.o
ec_GFp_mont_group_set_curve                       output.o
ec_GFp_nist_field_mul                             output.o
ec_GFp_nist_field_sqr                             output.o
ec_GFp_nist_group_copy                            output.o
ec_GFp_nist_group_set_curve                       output.o
ec_GFp_simple_add                                 output.o
ec_GFp_simple_cmp                                 output.o
ec_GFp_simple_dbl                                 output.o
ec_GFp_simple_field_mul                           output.o
ec_GFp_simple_field_sqr                           output.o
ec_GFp_simple_get_Jprojective_coordinates_GFp     output.o
ec_GFp_simple_group_check_discriminant            output.o
ec_GFp_simple_group_clear_finish                  output.o
ec_GFp_simple_group_copy                          output.o
ec_GFp_simple_group_finish                        output.o
ec_GFp_simple_group_get_curve                     output.o
ec_GFp_simple_group_get_degree                    output.o
ec_GFp_simple_group_init                          output.o
ec_GFp_simple_group_set_curve                     output.o
ec_GFp_simple_invert                              output.o
ec_GFp_simple_is_at_infinity                      output.o
ec_GFp_simple_is_on_curve                         output.o
ec_GFp_simple_make_affine                         output.o
ec_GFp_simple_oct2point                           output.o
ec_GFp_simple_point2oct                           output.o
ec_GFp_simple_point_clear_finish                  output.o
ec_GFp_simple_point_copy                          output.o
ec_GFp_simple_point_finish                        output.o
ec_GFp_simple_point_get_affine_coordinates        output.o
ec_GFp_simple_point_init                          output.o
ec_GFp_simple_point_set_affine_coordinates        output.o
ec_GFp_simple_point_set_to_infinity               output.o
ec_GFp_simple_points_make_affine                  output.o
ec_GFp_simple_set_Jprojective_coordinates_GFp     output.o
ec_GFp_simple_set_compressed_coordinates          output.o
ec_pkey_meth                                      output.o
ec_wNAF_have_precompute_mult                      output.o
ec_wNAF_mul                                       output.o
ec_wNAF_precompute_mult                           output.o
ecdh_check                                        output.o
ecdsa_check                                       output.o
eckey_asn1_meth                                   output.o
ehci_check_advance                                output.o
ehci_check_urb_advance                            output.o
ehci_cleanup_urbs                                 output.o
ehci_conceal_portroute                            output.o
ehci_deactivate_urb                               output.o
ehci_dump_alist                                   output.o
ehci_dump_all                                     output.o
ehci_dump_async                                   output.o
ehci_dump_qtd                                     output.o
ehci_dump_qtdm                                    output.o
ehci_dump_urb                                     output.o
ehci_dump_urblist                                 output.o
ehci_end_monitor_async                            output.o
ehci_host                                         output.o
ehci_init                                         output.o
ehci_monitor_async_list                           output.o
ehci_shadow_async_list                            output.o
ehci_shadow_buffer                                output.o
ehci_submit_bulk                                  output.o
ehci_submit_control                               output.o
ehci_submit_interrupt                             output.o
end                                               output.o
entry                                             output.o
entry_pd                                          output.o
entry_pd0                                         output.o
entry_pdp                                         output.o
ept_spinlock                                      output.o
evp_pkey_set_cb_translate                         output.o
exitprocess                                       output.o
findProtectedApplicationFromRIP                   output.o
findUnmappedPage                                  output.o
free                                              output.o
free_config_descriptors                           output.o
free_device                                       output.o
free_page                                         output.o
free_page_phys                                    output.o
g_rgSCardT0Pci                                    output.o
g_rgSCardT1Pci                                    output.o
getCurrentProtectedApplication                    output.o
getGuestRSP                                       output.o
getMemoryOwnershipTableEntry                      output.o
getMemoryOwnershipTableIndex                      output.o
getSystemCallHandlerGPA                           output.o
getTSSGVA                                         output.o
get_acpi_time                                     output.o
get_acpi_time_raw                                 output.o
get_cpu_id                                        output.o
get_cpu_time                                      output.o
get_ept_base_HPA                                  output.o
get_guest_cr3_value                               output.o
get_guest_eptp_value                              output.o
get_gurb_by_address                               output.o
get_idman_session                                 output.o
get_page_table_base_GPA                           output.o
get_seg_access_rights                             output.o
get_seg_base                                      output.o
get_time                                          output.o
getfakesysmemmap                                  output.o
getsysmemmap                                      output.o
gmm_pass_gp2hp                                    output.o
gpaToHPA                                          output.o
gs_current                                        output.o
gs_currentcpu                                     output.o
gs_init_count                                     output.o
gs_inthandling                                    output.o
gs_nmi                                            output.o
gs_syscallstack                                   output.o
guest_int0x15_e801_fake_ax                        output.o
guest_int0x15_e801_fake_bx                        output.o
guest_int0x15_e820_data_minus0x18                 output.o
guest_int0x15_e820_end                            output.o
guest_int0x15_hook                                output.o
guest_int0x15_hook_end                            output.o
guest_int0x15_orig                                output.o
gvaToGPA                                          output.o
hContext                                          output.o
hObjectCnt                                        output.o
hSessionCnt                                       output.o
handleSystemCall                                  output.o
handle_connect_status                             output.o
handle_init_to_bsp                                output.o
handle_port_reset                                 output.o
handler_descriptor                                output.o
handler_descriptor_lock                           output.o
head                                              output.o
hex_to_string                                     output.o
hmac_asn1_meth                                    output.o
hmac_pkey_meth                                    output.o
hub_portdevice_register                           output.o
hypercall_handler                                 output.o
i2a_ACCESS_DESCRIPTION                            output.o
i2a_ASN1_INTEGER                                  output.o
i2a_ASN1_OBJECT                                   output.o
i2a_ASN1_STRING                                   output.o
i2c_ASN1_BIT_STRING                               output.o
i2c_ASN1_INTEGER                                  output.o
i2d_ACCESS_DESCRIPTION                            output.o
i2d_ASN1_BIT_STRING                               output.o
i2d_ASN1_BMPSTRING                                output.o
i2d_ASN1_BOOLEAN                                  output.o
i2d_ASN1_ENUMERATED                               output.o
i2d_ASN1_GENERALIZEDTIME                          output.o
i2d_ASN1_GENERALSTRING                            output.o
i2d_ASN1_IA5STRING                                output.o
i2d_ASN1_INTEGER                                  output.o
i2d_ASN1_NULL                                     output.o
i2d_ASN1_OBJECT                                   output.o
i2d_ASN1_OCTET_STRING                             output.o
i2d_ASN1_PRINTABLE                                output.o
i2d_ASN1_PRINTABLESTRING                          output.o
i2d_ASN1_SEQUENCE_ANY                             output.o
i2d_ASN1_SET                                      output.o
i2d_ASN1_SET_ANY                                  output.o
i2d_ASN1_T61STRING                                output.o
i2d_ASN1_TIME                                     output.o
i2d_ASN1_TYPE                                     output.o
i2d_ASN1_UNIVERSALSTRING                          output.o
i2d_ASN1_UTCTIME                                  output.o
i2d_ASN1_UTF8STRING                               output.o
i2d_ASN1_VISIBLESTRING                            output.o
i2d_ASN1_bio_stream                               output.o
i2d_ASN1_bytes                                    output.o
i2d_AUTHORITY_INFO_ACCESS                         output.o
i2d_AUTHORITY_KEYID                               output.o
i2d_BASIC_CONSTRAINTS                             output.o
i2d_CERTIFICATEPOLICIES                           output.o
i2d_CMS_ContentInfo                               output.o
i2d_CMS_bio                                       output.o
i2d_CMS_bio_stream                                output.o
i2d_CRL_DIST_POINTS                               output.o
i2d_DHparams                                      output.o
i2d_DIRECTORYSTRING                               output.o
i2d_DISPLAYTEXT                                   output.o
i2d_DIST_POINT                                    output.o
i2d_DIST_POINT_NAME                               output.o
i2d_DSAPrivateKey                                 output.o
i2d_DSAPrivateKey_bio                             output.o
i2d_DSAPublicKey                                  output.o
i2d_DSA_PUBKEY                                    output.o
i2d_DSA_PUBKEY_bio                                output.o
i2d_DSA_SIG                                       output.o
i2d_DSAparams                                     output.o
i2d_ECDSA_SIG                                     output.o
i2d_ECPKPARAMETERS                                output.o
i2d_ECPKParameters                                output.o
i2d_ECParameters                                  output.o
i2d_ECPrivateKey                                  output.o
i2d_ECPrivateKey_bio                              output.o
i2d_EC_PRIVATEKEY                                 output.o
i2d_EC_PUBKEY                                     output.o
i2d_EC_PUBKEY_bio                                 output.o
i2d_EDIPARTYNAME                                  output.o
i2d_EXTENDED_KEY_USAGE                            output.o
i2d_GENERAL_NAME                                  output.o
i2d_GENERAL_NAMES                                 output.o
i2d_ISSUING_DIST_POINT                            output.o
i2d_NETSCAPE_CERT_SEQUENCE                        output.o
i2d_NETSCAPE_SPKAC                                output.o
i2d_NETSCAPE_SPKI                                 output.o
i2d_NOTICEREF                                     output.o
i2d_OCSP_BASICRESP                                output.o
i2d_OCSP_CERTID                                   output.o
i2d_OCSP_CERTSTATUS                               output.o
i2d_OCSP_CRLID                                    output.o
i2d_OCSP_ONEREQ                                   output.o
i2d_OCSP_REQINFO                                  output.o
i2d_OCSP_REQUEST                                  output.o
i2d_OCSP_RESPBYTES                                output.o
i2d_OCSP_RESPDATA                                 output.o
i2d_OCSP_RESPID                                   output.o
i2d_OCSP_RESPONSE                                 output.o
i2d_OCSP_REVOKEDINFO                              output.o
i2d_OCSP_SERVICELOC                               output.o
i2d_OCSP_SIGNATURE                                output.o
i2d_OCSP_SINGLERESP                               output.o
i2d_OTHERNAME                                     output.o
i2d_PBE2PARAM                                     output.o
i2d_PBEPARAM                                      output.o
i2d_PBKDF2PARAM                                   output.o
i2d_PKCS12                                        output.o
i2d_PKCS12_BAGS                                   output.o
i2d_PKCS12_MAC_DATA                               output.o
i2d_PKCS12_SAFEBAG                                output.o
i2d_PKCS12_bio                                    output.o
i2d_PKCS7                                         output.o
i2d_PKCS7_DIGEST                                  output.o
i2d_PKCS7_ENCRYPT                                 output.o
i2d_PKCS7_ENC_CONTENT                             output.o
i2d_PKCS7_ENVELOPE                                output.o
i2d_PKCS7_ISSUER_AND_SERIAL                       output.o
i2d_PKCS7_NDEF                                    output.o
i2d_PKCS7_RECIP_INFO                              output.o
i2d_PKCS7_SIGNED                                  output.o
i2d_PKCS7_SIGNER_INFO                             output.o
i2d_PKCS7_SIGN_ENVELOPE                           output.o
i2d_PKCS7_bio                                     output.o
i2d_PKCS8PrivateKeyInfo_bio                       output.o
i2d_PKCS8PrivateKey_bio                           output.o
i2d_PKCS8PrivateKey_nid_bio                       output.o
i2d_PKCS8_PRIV_KEY_INFO                           output.o
i2d_PKCS8_PRIV_KEY_INFO_bio                       output.o
i2d_PKCS8_bio                                     output.o
i2d_PKEY_USAGE_PERIOD                             output.o
i2d_POLICYINFO                                    output.o
i2d_POLICYQUALINFO                                output.o
i2d_PROXY_CERT_INFO_EXTENSION                     output.o
i2d_PROXY_POLICY                                  output.o
i2d_PUBKEY                                        output.o
i2d_PUBKEY_bio                                    output.o
i2d_PrivateKey                                    output.o
i2d_PrivateKey_bio                                output.o
i2d_RSAPrivateKey                                 output.o
i2d_RSAPrivateKey_bio                             output.o
i2d_RSAPublicKey                                  output.o
i2d_RSAPublicKey_bio                              output.o
i2d_RSA_PUBKEY                                    output.o
i2d_RSA_PUBKEY_bio                                output.o
i2d_SXNET                                         output.o
i2d_SXNETID                                       output.o
i2d_USERNOTICE                                    output.o
i2d_X509                                          output.o
i2d_X509_ALGOR                                    output.o
i2d_X509_ALGORS                                   output.o
i2d_X509_ATTRIBUTE                                output.o
i2d_X509_AUX                                      output.o
i2d_X509_CERT_AUX                                 output.o
i2d_X509_CERT_PAIR                                output.o
i2d_X509_CINF                                     output.o
i2d_X509_CRL                                      output.o
i2d_X509_CRL_INFO                                 output.o
i2d_X509_CRL_bio                                  output.o
i2d_X509_EXTENSION                                output.o
i2d_X509_EXTENSIONS                               output.o
i2d_X509_NAME                                     output.o
i2d_X509_NAME_ENTRY                               output.o
i2d_X509_PUBKEY                                   output.o
i2d_X509_REQ                                      output.o
i2d_X509_REQ_INFO                                 output.o
i2d_X509_REQ_bio                                  output.o
i2d_X509_REVOKED                                  output.o
i2d_X509_SIG                                      output.o
i2d_X509_VAL                                      output.o
i2d_X509_bio                                      output.o
i2o_ECPublicKey                                   output.o
i2s_ASN1_ENUMERATED                               output.o
i2s_ASN1_ENUMERATED_TABLE                         output.o
i2s_ASN1_INTEGER                                  output.o
i2s_ASN1_OCTET_STRING                             output.o
i2t_ASN1_OBJECT                                   output.o
i2v_ASN1_BIT_STRING                               output.o
i2v_GENERAL_NAME                                  output.o
i2v_GENERAL_NAMES                                 output.o
idea_cbc_encrypt                                  output.o
idea_cfb64_encrypt                                output.o
idea_ecb_encrypt                                  output.o
idea_encrypt                                      output.o
idea_ofb64_encrypt                                output.o
idea_options                                      output.o
idea_set_decrypt_key                              output.o
idea_set_encrypt_key                              output.o
idman_reinit2                                     output.o
idman_reinit_session                              output.o
idman_user_init                                   output.o
ieee1394_init                                     output.o
initPagePool                                      output.o
init_hframelist                                   output.o
initfunc_init                                     output.o
initializeNewProtectedApplication                 output.o
int1a_TCG_CompactHashLogExtendEvent               output.o
int1a_TCG_HashAll                                 output.o
int1a_TCG_HashLogEvent                            output.o
int1a_TCG_HashLogExtendEvent                      output.o
int1a_TCG_PassThroughToTPM                        output.o
int1a_TCG_StatusCheck                             output.o
int1a_TCG_TSS                                     output.o
int_callfunc                                      output.o
int_exceptionHandler                              output.o
int_fatal                                         output.o
int_handler                                       output.o
int_init_ap                                       output.o
int_rsa_verify                                    output.o
iodom_init                                        output.o
iommu_detected                                    output.o
iommu_setup                                       output.o
ipchecksum                                        output.o
keyboard_flush                                    output.o
keyboard_reset                                    output.o
level_add_node                                    output.o
level_find_node                                   output.o
lh_delete                                         output.o
lh_doall                                          output.o
lh_doall_arg                                      output.o
lh_free                                           output.o
lh_insert                                         output.o
lh_new                                            output.o
lh_num_items                                      output.o
lh_retrieve                                       output.o
lh_strhash                                        output.o
lh_version                                        output.o
libInitFlag                                       output.o
load_bootsector                                   output.o
load_minios                                       output.o
load_new_vcpu                                     output.o
localapic_change_base_msr                         output.o
localapic_mmio_register                           output.o
localapic_wait_for_sipi                           output.o
mapHPAintoHVA                                     output.o
mapmem                                            output.o
mapmem_gphys                                      output.o
mapmem_hphys                                      output.o
matched_drhd_u                                    output.o
md4_block_data_order                              output.o
md5_block_data_order                              output.o
memcmp                                            output.o
memcpy                                            output.o
memorysize                                        output.o
mempool_allocmem                                  output.o
mempool_free                                      output.o
mempool_freemem                                   output.o
mempool_new                                       output.o
memset                                            output.o
message_exitcode                                  output.o
message_exitreason                                output.o
mm_flush_wb_cache                                 output.o
mm_force_unlock                                   output.o
mm_process_alloc                                  output.o
mm_process_free                                   output.o
mm_process_map_alloc                              output.o
mm_process_map_shared                             output.o
mm_process_map_shared_physpage                    output.o
mm_process_map_stack                              output.o
mm_process_switch                                 output.o
mm_process_unmap                                  output.o
mm_process_unmap_stack                            output.o
mm_process_unmapall                               output.o
mmio_access_memory                                output.o
mmio_access_page                                  output.o
mmio_lock                                         output.o
mmio_register                                     output.o
mmio_unlock                                       output.o
mmio_unregister                                   output.o
monitor_memset                                    output.o
monitor_vmcs_read                                 output.o
monitor_vmcs_write                                output.o
move_vmm_area32                                   output.o
move_vmm_area64                                   output.o
mpudiv_128_32                                     output.o
mpumul_64_64                                      output.o
msg_findname                                      output.o
msg_register                                      output.o
msg_unregister                                    output.o
msg_unregister2                                   output.o
msg_unregisterall                                 output.o
msg_usb_bulk_read                                 output.o
msg_usb_bulk_write                                output.o
msg_usb_claim_interface                           output.o
msg_usb_close                                     output.o
msg_usb_control_msg                               output.o
msg_usb_find_busses                               output.o
msg_usb_find_devices                              output.o
msg_usb_get_busses                                output.o
msg_usb_get_string_simple                         output.o
msg_usb_init                                      output.o
msg_usb_open                                      output.o
msg_usb_release_interface                         output.o
msg_usb_reset                                     output.o
msg_vpn_FreeTimer                                 output.o
msg_vpn_GetCurrentCpuId                           output.o
msg_vpn_GetPhysicalNicInfo                        output.o
msg_vpn_GetTickCount                              output.o
msg_vpn_GetVirtualNicInfo                         output.o
msg_vpn_NewTimer                                  output.o
msg_vpn_SendPhysicalNic                           output.o
msg_vpn_SendVirtualNic                            output.o
msg_vpn_SetPhysicalNicRecvCallback                output.o
msg_vpn_SetTimer                                  output.o
msg_vpn_SetVirtualNicRecvCallback                 output.o
msg_vpn_ic_rsa_sign                               output.o
msgclose                                          output.o
msgopen                                           output.o
msgpremapbuf                                      output.o
msgregister                                       output.o
msgsendbuf                                        output.o
msgsenddesc                                       output.o
msgsendint                                        output.o
msgsetfunc                                        output.o
msgunregister                                     output.o
mszReaders                                        output.o
name_cmp                                          output.o
newprocess                                        output.o
num_dom                                           output.o
num_of_available_pages                            output.o
num_of_processors                                 output.o
numberOfProtectedApplications                     output.o
numberOfVMs                                       output.o
o2i_ECPublicKey                                   output.o
obj_cleanup_defer                                 output.o
openPage                                          output.o
packet_handle_command                             output.o
packet_handle_config                              output.o
packet_handle_invalid                             output.o
packet_handle_nondata                             output.o
packet_handle_rw                                  output.o
packet_handle_through                             output.o
panic                                             output.o
panic_oom                                         output.o
panic_test                                        output.o
panic_wakeup_all                                  output.o
parse_dmar_bios_report                            output.o
pci_append_device                                 output.o
pci_conceal_config_data_handler                   output.o
pci_conceal_new_device                            output.o
pci_config_addr_handler                           output.o
pci_config_data_handler                           output.o
pci_device_list_head                              output.o
pci_driver_list_head                              output.o
pci_handle_default_config_write                   output.o
pci_possible_new_device                           output.o
pci_print_device                                  output.o
pci_read_config_data16                            output.o
pci_read_config_data32                            output.o
pci_read_config_data8                             output.o
pci_read_config_data_port                         output.o
pci_register_driver                               output.o
pci_restore_config_addr                           output.o
pci_save_config_addr                              output.o
pci_write_config_data16                           output.o
pci_write_config_data32                           output.o
pci_write_config_data8                            output.o
pci_write_config_data_port                        output.o
pcpu_default                                      output.o
pcpu_init                                         output.o
pcpu_list_add                                     output.o
pcpu_list_foreach                                 output.o
pem_check_suffix                                  output.o
phys_in_vmm                                       output.o
phys_to_virt                                      output.o
pmap_autoalloc                                    output.o
pmap_clear                                        output.o
pmap_close                                        output.o
pmap_dump                                         output.o
pmap_getreadlevel                                 output.o
pmap_open_guest                                   output.o
pmap_open_vmm                                     output.o
pmap_pointer                                      output.o
pmap_read                                         output.o
pmap_seek                                         output.o
pmap_setlevel                                     output.o
pmap_write                                        output.o
policy_cache_find_data                            output.o
policy_cache_free                                 output.o
policy_cache_set                                  output.o
policy_cache_set_mapping                          output.o
policy_data_free                                  output.o
policy_data_new                                   output.o
policy_node_cmp_new                               output.o
policy_node_free                                  output.o
policy_node_match                                 output.o
prepare_for_sleep                                 output.o
printexitcode                                     output.o
printexitreason                                   output.o
printf                                            output.o
pro100_alloc_page                                 output.o
pro100_alloc_recv_buffer                          output.o
pro100_beep                                       output.o
pro100_config_read                                output.o
pro100_config_write                               output.o
pro100_exec_cu_op                                 output.o
pro100_flush                                      output.o
pro100_free_page                                  output.o
pro100_generate_int                               output.o
pro100_get_ctx                                    output.o
pro100_get_cu_command_string                      output.o
pro100_get_int_bit_string                         output.o
pro100_get_op_size                                output.o
pro100_get_ru_command_string                      output.o
pro100_get_stat_ack_string                        output.o
pro100_hook_read                                  output.o
pro100_hook_write                                 output.o
pro100_init                                       output.o
pro100_init_cu_base_addr                          output.o
pro100_init_recv_buffer                           output.o
pro100_init_ru_base_addr                          output.o
pro100_init_vpn_client                            output.o
pro100_io_handler                                 output.o
pro100_mem_read                                   output.o
pro100_mem_write                                  output.o
pro100_mm_handler                                 output.o
pro100_new                                        output.o
pro100_poll_ru                                    output.o
pro100_proc_guest_op                              output.o
pro100_read                                       output.o
pro100_read_send_packet                           output.o
pro100_send_packet_to_line                        output.o
pro100_sleep                                      output.o
pro100_wait_cu_ru_accepable                       output.o
pro100_write                                      output.o
pro100_write_recv_packet                          output.o
process_kill                                      output.o
process_syscall                                   output.o
processuser_no_sysenter                           output.o
processuser_syscall                               output.o
processuser_sysenter                              output.o
prohibit_iccard_init                              output.o
protectCurrentApplication                         output.o
protecting                                        output.o
ps2_locked                                        output.o
putchar                                           output.o
putchar_set_func                                  output.o
rand_ssleay_meth                                  output.o
read_gphys_b                                      output.o
read_gphys_l                                      output.o
read_gphys_q                                      output.o
read_gphys_w                                      output.o
read_hphys_b                                      output.o
read_hphys_l                                      output.o
read_hphys_q                                      output.o
read_hphys_w                                      output.o
read_linearaddr_b                                 output.o
read_linearaddr_l                                 output.o
read_linearaddr_q                                 output.o
read_linearaddr_tss                               output.o
read_linearaddr_w                                 output.o
readerState                                       output.o
readerTracker                                     output.o
realloc                                           output.o
reboot_test                                       output.o
register_status_callback                          output.o
remapPage                                         output.o
restore_guest_status                              output.o
restore_register                                  output.o
resume_vm                                         output.o
ret_to_user32                                     output.o
ret_to_user64                                     output.o
ripemd160_block_data_order                        output.o
rsa_asn1_meths                                    output.o
rsa_pkey_meth                                     output.o
rt                                                output.o
s2i_ASN1_INTEGER                                  output.o
s2i_ASN1_OCTET_STRING                             output.o
sReaderContext                                    output.o
saveSystemCallHandlerAddress                      output.o
save_guest_status                                 output.o
savemsr_index                                     output.o
savemsr_load                                      output.o
savemsr_save                                      output.o
scan_gframelist                                   output.o
schedule                                          output.o
security_storage_check_lba                        output.o
segment_init_ap                                   output.o
segment_wakeup                                    output.o
serial_getDebugChar                               output.o
serial_init_iohook                                output.o
serial_putDebugChar                               output.o
serial_putchar                                    output.o
sessionTable                                      output.o
setCurrentProtectedApplication                    output.o
set_int_handler                                   output.o
set_iofunc                                        output.o
setkbdled                                         output.o
shadow_and_activate_urb                           output.o
sig_app                                           output.o
sigx_app                                          output.o
sk_delete                                         output.o
sk_delete_ptr                                     output.o
sk_dup                                            output.o
sk_find                                           output.o
sk_find_ex                                        output.o
sk_free                                           output.o
sk_insert                                         output.o
sk_is_sorted                                      output.o
sk_new                                            output.o
sk_new_null                                       output.o
sk_num                                            output.o
sk_pop                                            output.o
sk_pop_free                                       output.o
sk_push                                           output.o
sk_set                                            output.o
sk_set_cmp_func                                   output.o
sk_shift                                          output.o
sk_sort                                           output.o
sk_unshift                                        output.o
sk_value                                          output.o
sk_zero                                           output.o
sleep_set_timer_counter                           output.o
slotFlag                                          output.o
slotTable                                         output.o
snprintf                                          output.o
start_all_processors                              output.o
storage_free                                      output.o
storage_get_num_hc                                output.o
storage_handle_sectors                            output.o
storage_hc_close                                  output.o
storage_hc_dev_atacommand                         output.o
storage_hc_dev_close                              output.o
storage_hc_dev_open                               output.o
storage_hc_hook_register                          output.o
storage_hc_hook_unregister                        output.o
storage_hc_open                                   output.o
storage_hc_register                               output.o
storage_hc_scandev                                output.o
storage_hc_unregister                             output.o
storage_init                                      output.o
storage_io_aget_size                              output.o
storage_io_aread                                  output.o
storage_io_awrite                                 output.o
storage_io_deinit                                 output.o
storage_io_get_num_devices                        output.o
storage_io_init                                   output.o
storage_new                                       output.o
storage_premap_buf                                output.o
storage_premap_handle_sectors                     output.o
strcmp                                            output.o
string_to_hex                                     output.o
strlen                                            output.o
svm_available                                     output.o
svm_enable_resume                                 output.o
svm_extern_iopass                                 output.o
svm_init                                          output.o
svm_init_signal                                   output.o
svm_ioio                                          output.o
svm_msr_update_lma                                output.o
svm_np_clear_all                                  output.o
svm_np_extern_mapsearch                           output.o
svm_np_init                                       output.o
svm_np_map_1mb                                    output.o
svm_np_pagefault                                  output.o
svm_np_tlbflush                                   output.o
svm_np_updatecr3                                  output.o
svm_paging_apply_fixed_cr0                        output.o
svm_paging_apply_fixed_cr4                        output.o
svm_paging_clear_all                              output.o
svm_paging_extern_flush_tlb_entry                 output.o
svm_paging_flush_guest_tlb                        output.o
svm_paging_get_gpat                               output.o
svm_paging_init                                   output.o
svm_paging_invalidate                             output.o
svm_paging_map_1mb                                output.o
svm_paging_npf                                    output.o
svm_paging_pagefault                              output.o
svm_paging_pg_change                              output.o
svm_paging_set_gpat                               output.o
svm_paging_spt_setcr3                             output.o
svm_paging_start                                  output.o
svm_paging_tlbflush                               output.o
svm_paging_updatecr3                              output.o
svm_panic_dump                                    output.o
svm_read_control_reg                              output.o
svm_read_flags                                    output.o
svm_read_gdtr                                     output.o
svm_read_general_reg                              output.o
svm_read_idtr                                     output.o
svm_read_ip                                       output.o
svm_read_msr                                      output.o
svm_read_sreg_acr                                 output.o
svm_read_sreg_base                                output.o
svm_read_sreg_limit                               output.o
svm_read_sreg_sel                                 output.o
svm_reset                                         output.o
svm_resume                                        output.o
svm_start_vm                                      output.o
svm_vmexit                                        output.o
svm_vminit                                        output.o
svm_write_control_reg                             output.o
svm_write_flags                                   output.o
svm_write_gdtr                                    output.o
svm_write_general_reg                             output.o
svm_write_idtr                                    output.o
svm_write_ip                                      output.o
svm_write_msr                                     output.o
svm_write_realmode_seg                            output.o
svm_writing_sreg                                  output.o
sx_handler                                        output.o
sym_to_phys                                       output.o
sync_all_processors                               output.o
sys_exitprocess                                   output.o
sys_msgclose                                      output.o
sys_msgopen                                       output.o
sys_msgregister                                   output.o
sys_msgret                                        output.o
sys_msgsendbuf                                    output.o
sys_msgsenddesc                                   output.o
sys_msgsendint                                    output.o
sys_msgsetfunc                                    output.o
sys_msgunregister                                 output.o
sys_newprocess                                    output.o
syscallHandlerAddress                             output.o
syscall_entry_lret                                output.o
syscall_entry_sysexit                             output.o
syscall_entry_sysret64                            output.o
syscall_metatata_table                            output.o
target                                            output.o
tcg_measure                                       output.o
test_gpaToHPA                                     output.o
test_logicalCPUStatus                             output.o
test_start                                        output.o
test_traverseGuestPages                           output.o
thread_exit                                       output.o
thread_gettid                                     output.o
thread_new                                        output.o
thread_set_process_switch                         output.o
thread_start0                                     output.o
thread_start1                                     output.o
thread_switch                                     output.o
thread_wakeup                                     output.o
thread_will_stop                                  output.o
timer_free                                        output.o
timer_new                                         output.o
timer_set                                         output.o
traverseGuestPages                                output.o
traverseIA32ePDPT                                 output.o
traverseIA32ePDT                                  output.o
traverseIA32ePT                                   output.o
traverseIA32ePages                                output.o
tree_find_sk                                      output.o
tty_init_iohook                                   output.o
tty_putchar                                       output.o
tty_udp_register                                  output.o
ttylog_stop                                       output.o
uhci_activate_urb                                 output.o
uhci_check_advance                                output.o
uhci_check_urb_advance                            output.o
uhci_create_urb                                   output.o
uhci_current_frame_number                         output.o
uhci_deactivate_urb                               output.o
uhci_destroy_unlinked_urbs                        output.o
uhci_destroy_urb                                  output.o
uhci_dump_all                                     output.o
uhci_error_status_string                          output.o
uhci_framelist_monitor                            output.o
uhci_init                                         output.o
uhci_monitor_boost_hc                             output.o
uhci_reactivate_urb                               output.o
uhci_shadow_buffer                                output.o
uhci_submit_bulk                                  output.o
uhci_submit_control                               output.o
uhci_submit_interrupt                             output.o
unmapHPAintoHVA                                   output.o
unmapmem                                          output.o
update_mtrr_and_pat                               output.o
usb_bulk_read                                     output.o
usb_bulk_write                                    output.o
usb_busses_head                                   output.o
usb_claim_interface                               output.o
usb_clear_halt                                    output.o
usb_close                                         output.o
usb_control_msg                                   output.o
usb_find_busses                                   output.o
usb_find_devices                                  output.o
usb_get_bus                                       output.o
usb_get_busses                                    output.o
usb_get_descriptor                                output.o
usb_get_descriptor_by_endpoint                    output.o
usb_get_descriptor_early                          output.o
usb_get_string                                    output.o
usb_get_string_simple                             output.o
usb_hc_list_head                                  output.o
usb_hook_process                                  output.o
usb_hook_register                                 output.o
usb_hook_unregister                               output.o
usb_init                                          output.o
usb_init_device_monitor                           output.o
usb_interrupt_read                                output.o
usb_interrupt_write                               output.o
usb_log_level                                     output.o
usb_new_dev_handle                                output.o
usb_open                                          output.o
usb_register_host                                 output.o
usb_release_interface                             output.o
usb_reset                                         output.o
usb_resetep                                       output.o
usb_sc_lock                                       output.o
usb_sc_unlock                                     output.o
usb_set_altinterface                              output.o
usb_set_configuration                             output.o
usb_set_debug                                     output.o
usb_unregister_devices                            output.o
usbccid_init_handle                               output.o
usbhid_init_handle                                output.o
usbhub_init_handle                                output.o
usbmsc_init_handle                                output.o
use_pae                                           output.o
usleep                                            output.o
v2i_ASN1_BIT_STRING                               output.o
v2i_GENERAL_NAME                                  output.o
v2i_GENERAL_NAMES                                 output.o
v2i_GENERAL_NAME_ex                               output.o
v3_akey_id                                        output.o
v3_alt                                            output.o
v3_bcons                                          output.o
v3_cpols                                          output.o
v3_crl_hold                                       output.o
v3_crl_invdate                                    output.o
v3_crl_num                                        output.o
v3_crl_reason                                     output.o
v3_crld                                           output.o
v3_delta_crl                                      output.o
v3_ext_ku                                         output.o
v3_freshest_crl                                   output.o
v3_idp                                            output.o
v3_info                                           output.o
v3_inhibit_anyp                                   output.o
v3_key_usage                                      output.o
v3_name_constraints                               output.o
v3_ns_ia5_list                                    output.o
v3_nscert                                         output.o
v3_ocsp_accresp                                   output.o
v3_ocsp_acutoff                                   output.o
v3_ocsp_crlid                                     output.o
v3_ocsp_nocheck                                   output.o
v3_ocsp_nonce                                     output.o
v3_ocsp_serviceloc                                output.o
v3_pci                                            output.o
v3_pkey_usage_period                              output.o
v3_policy_constraints                             output.o
v3_policy_mappings                                output.o
v3_sinfo                                          output.o
v3_skey_id                                        output.o
v3_sxnet                                          output.o
vcpu_list_foreach                                 output.o
vga_fill_rect                                     output.o
vga_get_screen_size                               output.o
vga_is_ready                                      output.o
vga_register                                      output.o
vga_transfer_image                                output.o
virt_to_phys                                      output.o
vmctl_svm_init                                    output.o
vmctl_vt_init                                     output.o
vmm_base_cr3                                      output.o
vmm_main                                          output.o
vmm_pd                                            output.o
vmm_pd1                                           output.o
vmm_pd2                                           output.o
vmm_pdp                                           output.o
vmm_pml4                                          output.o
vmm_start_inf                                     output.o
vmm_term_inf                                      output.o
vmmcall                                           output.o
vmmcall_boot_continue                             output.o
vmmcall_boot_enable                               output.o
vmmcall_init                                      output.o
vmmcall_register                                  output.o
vmmsize                                           output.o
vpn_FreeTimer                                     output.o
vpn_GetCurrentCpuId                               output.o
vpn_GetPhysicalNicInfo                            output.o
vpn_GetTickCount                                  output.o
vpn_GetVirtualNicInfo                             output.o
vpn_NewTimer                                      output.o
vpn_SendPhysicalNic                               output.o
vpn_SendVirtualNic                                output.o
vpn_SetPhysicalNicRecvCallback                    output.o
vpn_SetTimer                                      output.o
vpn_SetVirtualNicRecvCallback                     output.o
vpn_ic_rsa_sign                                   output.o
vpn_new_nic                                       output.o
vpn_premap_PhysicalNicRecv                        output.o
vpn_premap_VirtualNicRecv                         output.o
vpn_premap_recvbuf                                output.o
vpn_start                                         output.o
vpn_user_init                                     output.o
vprintf                                           output.o
vramwrite_clearscreen                             output.o
vramwrite_exit_global                             output.o
vramwrite_get_cursor_pos                          output.o
vramwrite_init_global                             output.o
vramwrite_mark1                                   output.o
vramwrite_mark2                                   output.o
vramwrite_mark3                                   output.o
vramwrite_putchar                                 output.o
vramwrite_restore_cursor                          output.o
vramwrite_save_and_move_cursor                    output.o
vsnprintf                                         output.o
vt__vmx_init                                      output.o
vt__vmxon                                         output.o
vt_add_guest_msr                                  output.o
vt_available                                      output.o
vt_enable_resume                                  output.o
vt_ept_clear_all                                  output.o
vt_ept_extern_mapsearch                           output.o
vt_ept_init                                       output.o
vt_ept_map_1mb                                    output.o
vt_ept_tlbflush                                   output.o
vt_ept_updatecr3                                  output.o
vt_ept_violation                                  output.o
vt_extern_iopass                                  output.o
vt_generate_external_int                          output.o
vt_generate_pagefault                             output.o
vt_get_current_regs_in_vmcs                       output.o
vt_get_vmcs_regs_in_vmcs                          output.o
vt_init                                           output.o
vt_init_signal                                    output.o
vt_io                                             output.o
vt_iopass                                         output.o
vt_iopass_init                                    output.o
vt_msr_init                                       output.o
vt_msr_update_lma                                 output.o
vt_paging_apply_fixed_cr0                         output.o
vt_paging_apply_fixed_cr4                         output.o
vt_paging_clear_all                               output.o
vt_paging_extern_flush_tlb_entry                  output.o
vt_paging_flush_guest_tlb                         output.o
vt_paging_get_gpat                                output.o
vt_paging_init                                    output.o
vt_paging_invalidate                              output.o
vt_paging_map_1mb                                 output.o
vt_paging_npf                                     output.o
vt_paging_pagefault                               output.o
vt_paging_pg_change                               output.o
vt_paging_set_gpat                                output.o
vt_paging_spt_setcr3                              output.o
vt_paging_start                                   output.o
vt_paging_tlbflush                                output.o
vt_paging_updatecr3                               output.o
vt_panic_dump                                     output.o
vt_read_control_reg                               output.o
vt_read_flags                                     output.o
vt_read_gdtr                                      output.o
vt_read_general_reg                               output.o
vt_read_guest_msr                                 output.o
vt_read_idtr                                      output.o
vt_read_ip                                        output.o
vt_read_msr                                       output.o
vt_read_sreg_acr                                  output.o
vt_read_sreg_base                                 output.o
vt_read_sreg_limit                                output.o
vt_read_sreg_sel                                  output.o
vt_reset                                          output.o
vt_resume                                         output.o
vt_start_vm                                       output.o
vt_update_exception_bmp                           output.o
vt_vmexit                                         output.o
vt_vminit                                         output.o
vt_vmptrld                                        output.o
vt_write_control_reg                              output.o
vt_write_flags                                    output.o
vt_write_gdtr                                     output.o
vt_write_general_reg                              output.o
vt_write_guest_msr                                output.o
vt_write_idtr                                     output.o
vt_write_ip                                       output.o
vt_write_msr                                      output.o
vt_write_realmode_seg                             output.o
vt_writing_sreg                                   output.o
waitcycles                                        output.o
wakeup_cont                                       output.o
wakeup_entry_addr                                 output.o
wakeup_entry_cr0                                  output.o
wakeup_entry_cr3                                  output.o
wakeup_entry_cr4                                  output.o
wakeup_entry_end                                  output.o
wakeup_entry_gdtr                                 output.o
wakeup_entry_start                                output.o
wakeup_init                                       output.o
wakeup_main                                       output.o
whirlpool_block                                   output.o
write_gphys_b                                     output.o
write_gphys_l                                     output.o
write_gphys_q                                     output.o
write_gphys_w                                     output.o
write_hphys_b                                     output.o
write_hphys_l                                     output.o
write_hphys_q                                     output.o
write_hphys_w                                     output.o
write_linearaddr_b                                output.o
write_linearaddr_l                                output.o
write_linearaddr_ok_b                             output.o
write_linearaddr_ok_l                             output.o
write_linearaddr_ok_w                             output.o
write_linearaddr_q                                output.o
write_linearaddr_tss                              output.o
write_linearaddr_w                                output.o
x509_name_ff                                      output.o
zero_page_pool                                    output.o
