
Allocating common symbols
Common symbol       size              file

clflush_size        0x4               output.o
sReaderContext      0x60              output.o
sigx_app            0x8               output.o
num_dom             0x4               output.o
mszReaders          0x400             output.o
zero_page_pool      0x400             output.o
prohibit_iccard_init
                    0x4               output.o
curthread           0x8               output.o
sig_app             0x8               output.o
readerState         0x64              output.o
dom_io              0x800             output.o
acpi_dsdt_system_state
                    0x1e              output.o
ehci_host           0x8               output.o
num_of_processors   0x4               output.o
e801_fake_bx        0x2               output.o
iommu_detected      0x1               output.o
dwReaders           0x8               output.o
readerTracker       0x140             output.o
handler_descriptor_lock
                    0x1               output.o
e801_fake_ax        0x2               output.o

Discarded input sections

 .gomi          0x0000000000000000        0xe output.o

Memory Configuration

Name             Origin             Length             Attributes
*default*        0x0000000000000000 0xffffffffffffffff

Linker script and memory map

                0x0000000040100000                virt = 0x40100000
                0x0000000000100000                phys = 0x100000
                0x0000000040100000                . = virt
                0x0000000040100000                head = .
                0x00000000401000b0                . = (virt + SIZEOF_HEADERS)

.text           0x0000000040101000   0x115888 load address 0x0000000000101000
                0x0000000040101000                code = .
 *(.entry)
 .entry         0x0000000040101000     0x6000 output.o
                0x000000004010100c                entry
                0x000000004010109a                cpuinit_start
                0x00000000401012c8                vmm_base_cr3
                0x00000000401012e0                apinit_procs
                0x00000000401012e8                apinit_lock
                0x00000000401012f0                cpuinit_end
                0x0000000040103000                entry_pdp
                0x0000000040104000                entry_pd0
                0x0000000040105000                entry_pd
 *(.text)
 .text          0x0000000040107000   0x10f888 output.o
                0x0000000040107654                acpi_smi_hook
                0x00000000401076a1                acpi_iohook
                0x00000000401076f3                acpi_reset
                0x00000000401077f1                acpi_poweroff
                0x000000004010782a                get_acpi_time_raw
                0x000000004010c801                acpi_dsdt_parse
                0x000000004010ccf2                apinitproc0
                0x000000004010cd1b                apic_available
                0x000000004010cd49                ap_start_addr
                0x000000004010cfa3                panic_wakeup_all
                0x000000004010d033                disable_apic
                0x000000004010d0a7                sync_all_processors
                0x000000004010d137                start_all_processors
                0x000000004010d178                assertion_failed
                0x000000004010d1b5                beep_set_freq
                0x000000004010d1e3                beep_on
                0x000000004010d1f3                beep_off
                0x000000004010d842                update_mtrr_and_pat
                0x000000004010da91                cache_get_gpat
                0x000000004010dae4                cache_set_gpat
                0x000000004010db2d                cache_get_attr
                0x000000004010dbe2                cache_get_gmtrr_type
                0x000000004010dbed                cache_get_gmtrr_attr
                0x000000004010dc00                cache_get_gmtrrcap
                0x000000004010dc2e                cache_get_gmtrr
                0x000000004010dd8b                cache_set_gmtrr
                0x000000004010dde5                cache_get_gmsr_amd
                0x000000004010de35                cache_set_gmsr_amd
                0x000000004010e271                callrealmode_endofcodeaddr
                0x000000004010e282                callrealmode_usevcpu
                0x000000004010e28f                callrealmode_printmsg
                0x000000004010e2ac                callrealmode_getsysmemmap
                0x000000004010e309                callrealmode_getshiftflags
                0x000000004010e327                callrealmode_setvideomode
                0x000000004010e345                callrealmode_reboot
                0x000000004010e35f                callrealmode_tcgbios
                0x000000004010e3f3                callrealmode_disk_readmbr
                0x000000004010e432                callrealmode_disk_readlba
                0x000000004010e479                callrealmode_bootcd_getstatus
                0x000000004010e4ce                callrealmode_setcursorpos
                0x000000004010e4f3                callrealmode_startkernel32
                0x000000004010e513                callrealmode_getfontinfo
                0x000000004010e594                get_cpu_id
                0x000000004010e5b0                cpu_emul_cpuid
                0x000000004010e664                cpu_emul_rdmsr
                0x000000004010e6dd                cpu_emul_wrmsr
                0x000000004010e753                cpu_emul_hlt
                0x000000004010e76b                cpu_emul_cli
                0x000000004010e7a4                cpu_emul_sti
                0x000000004010e7eb                cpu_emul_realmode_int
                0x000000004010e967                cpu_emul_xsetbv
                0x00000000401111b0                cpu_interpreter
                0x00000000401134ec                cpu_mmu_get_pte
                0x0000000040113e95                write_linearaddr_ok_b
                0x0000000040113eb7                write_linearaddr_ok_w
                0x0000000040113ec2                write_linearaddr_ok_l
                0x0000000040113ecd                write_linearaddr_b
                0x0000000040113f45                write_linearaddr_w
                0x0000000040113fe8                write_linearaddr_l
                0x0000000040114089                write_linearaddr_q
                0x0000000040114128                read_linearaddr_b
                0x000000004011419f                read_linearaddr_w
                0x000000004011423b                read_linearaddr_l
                0x00000000401142d8                read_linearaddr_q
                0x0000000040114375                read_linearaddr_tss
                0x000000004011441a                write_linearaddr_tss
                0x00000000401184ad                cpu_mmu_spt_tlbflush
                0x00000000401184e8                cpu_mmu_spt_updatecr3
                0x0000000040118781                cpu_mmu_spt_invalidate
                0x0000000040118809                cpu_mmu_spt_pagefault
                0x00000000401189f9                cpu_mmu_spt_extern_mapsearch
                0x0000000040118b3a                cpu_mmu_spt_map_1mb
                0x0000000040118c96                cpu_mmu_spt_clear_all
                0x0000000040118df5                cpu_mmu_spt_init
                0x0000000040119464                cpu_seg_read_b
                0x00000000401194db                cpu_seg_read_w
                0x0000000040119552                cpu_seg_read_l
                0x00000000401195c9                cpu_seg_read_q
                0x0000000040119640                cpu_seg_write_b
                0x00000000401196b8                cpu_seg_write_w
                0x0000000040119730                cpu_seg_write_l
                0x00000000401197a7                cpu_seg_write_q
                0x0000000040119820                cpu_stack_get
                0x000000004011988a                cpu_stack_set
                0x000000004011991f                cpu_stack_push
                0x00000000401199d1                cpu_stack_pop
                0x0000000040119ac0                call_cpuid
                0x0000000040119e99                debug_addstr
                0x0000000040119e9f                debug_gdb
                0x0000000040119ea5                debug_iohook
                0x0000000040119eab                debug_msgregister
                0x0000000040119edb                debug_msgunregister
                0x0000000040119f79                do_exint_pass
                0x000000004011a010                read_gphys_b
                0x000000004011a08c                write_gphys_b
                0x000000004011a10f                read_gphys_w
                0x000000004011a1b5                write_gphys_w
                0x000000004011a266                read_gphys_l
                0x000000004011a30c                write_gphys_l
                0x000000004011a3c0                read_gphys_q
                0x000000004011a466                write_gphys_q
                0x000000004011a517                cmpxchg_gphys_l
                0x000000004011a5e3                cmpxchg_gphys_q
                0x000000004011aa11                gmm_pass_gp2hp
                0x000000004011ab82                idman_reinit_session
                0x000000004011abfd                idman_reinit2
                0x000000004011ac1e                get_idman_session
                0x000000004011ac60                call_initfunc
                0x000000004011acc4                initfunc_init
                0x000000004011c84e                int_fatal
                0x000000004011cbcf                callfunc_and_getint
                0x000000004011cbe3                do_externalint_enable
                0x000000004011cbf8                set_int_handler
                0x000000004011cc17                int_exceptionHandler
                0x000000004011cc22                int_init_ap
                0x000000004011cc76                do_io_nothing
                0x000000004011ccb2                set_iofunc
                0x000000004011cd53                call_io
                0x000000004011ce9c                do_iopass_default
                0x000000004011d033                keyboard_reset
                0x000000004011d078                setkbdled
                0x000000004011d0d9                keyboard_flush
                0x000000004011d100                load_bootsector
                0x000000004011d4c9                copy_bootsector
                0x000000004011d76a                localapic_wait_for_sipi
                0x000000004011d7f7                localapic_change_base_msr
                0x000000004011d843                localapic_mmio_register
                0x000000004011e21a                resume_vm
                0x000000004011e2d5                vmm_main
                0x000000004011e6c0                getsysmemmap
                0x000000004011e748                getfakesysmemmap
                0x000000004011e7cc                phys_to_virt
                0x000000004011e7e2                vmm_start_inf
                0x000000004011e7ee                vmm_term_inf
                0x000000004011e7ff                num_of_available_pages
                0x000000004011e86b                alloc_pages
                0x000000004011e8f4                alloc_page
                0x000000004011e904                alloc
                0x000000004011eb81                alloc2
                0x000000004011ebce                free
                0x000000004011eced                realloc
                0x000000004011ee3e                free_page
                0x000000004011ee51                free_page_phys
                0x000000004011ee6c                mempool_new
                0x000000004011eed7                mempool_free
                0x000000004011ef87                mempool_allocmem
                0x000000004011f16a                mempool_freemem
                0x000000004011f420                sym_to_phys
                0x000000004011f434                phys_in_vmm
                0x000000004011f450                mm_force_unlock
                0x000000004011f479                mm_process_alloc
                0x000000004011f649                mm_process_free
                0x000000004011f690                mm_process_switch
                0x000000004011f6ae                pmap_open_vmm
                0x000000004011f6d9                pmap_open_guest
                0x000000004011f71b                pmap_close
                0x000000004011f721                pmap_getreadlevel
                0x000000004011f72d                pmap_setlevel
                0x000000004011f739                pmap_seek
                0x000000004011f7a6                pmap_read
                0x000000004011f9d1                pmap_write
                0x000000004011fb68                mm_process_unmap_stack
                0x000000004011fd4f                mm_process_unmap
                0x000000004011fe31                mm_process_unmapall
                0x000000004011fed8                pmap_pointer
                0x000000004011ff39                pmap_clear
                0x0000000040120026                pmap_autoalloc
                0x000000004012075d                mm_process_map_stack
                0x0000000040120ac2                mm_process_map_shared_physpage
                0x0000000040120b36                mm_process_map_shared
                0x0000000040120d60                mm_process_map_alloc
                0x0000000040120e92                pmap_dump
                0x0000000040120faa                unmapmem
                0x000000004012108b                mapmem
                0x000000004012155e                cmpxchg_hphys_q
                0x00000000401215bc                cmpxchg_hphys_l
                0x000000004012161a                write_hphys_q
                0x000000004012164e                read_hphys_q
                0x0000000040121685                write_hphys_l
                0x00000000401216b7                read_hphys_l
                0x00000000401216ec                write_hphys_w
                0x000000004012171f                read_hphys_w
                0x0000000040121756                write_hphys_b
                0x0000000040121788                read_hphys_b
                0x00000000401217eb                mapmem_hphys
                0x0000000040121803                alloc_realmodemem
                0x00000000401218a6                mapmem_gphys
                0x00000000401218be                mm_flush_wb_cache
                0x0000000040121cdf                mmio_access_memory
                0x0000000040121e36                mmio_access_page
                0x0000000040121ef7                mmio_register
                0x00000000401220fa                mmio_unregister
                0x0000000040122181                mmio_lock
                0x000000004012219c                mmio_unlock
                0x000000004012222e                msg_findname
                0x00000000401222a8                msg_register
                0x000000004012238a                msg_unregister
                0x0000000040122405                msg_unregisterall
                0x0000000040122491                msg_unregister2
                0x000000004012255e                call_read_msr
                0x0000000040122572                call_write_msr
                0x0000000040122850                load_minios
                0x0000000040123070                backtrace
                0x00000000401234a8                panic
                0x00000000401239a0                auto_reboot
                0x00000000401239bd                panic_test
                0x00000000401239e0                pcpu_list_foreach
                0x0000000040123a1f                pcpu_list_add
                0x0000000040123a71                pcpu_init
                0x00000000401244c5                vprintf
                0x0000000040124500                printf
                0x000000004012453e                vsnprintf
                0x0000000040124582                snprintf
                0x00000000401247e9                sys_msgsetfunc
                0x000000004012488e                sys_msgclose
                0x00000000401248ab                sys_msgret
                0x00000000401248bd                sys_exitprocess
                0x0000000040124b6d                sys_msgsenddesc
                0x0000000040124c25                sys_msgunregister
                0x0000000040125341                sys_msgsendbuf
                0x00000000401254f3                sys_msgsendint
                0x0000000040125792                sys_newprocess
                0x0000000040125833                sys_msgopen
                0x0000000040125973                sys_msgregister
                0x00000000401259f1                process_kill
                0x0000000040125a48                msgsetfunc
                0x0000000040125a5d                msgregister
                0x0000000040125a73                msgopen
                0x0000000040125a86                msgclose
                0x0000000040125a98                msgsendint
                0x0000000040125aac                msgsenddesc
                0x0000000040125ac0                newprocess
                0x0000000040125ad3                msgsendbuf
                0x0000000040125aed                msgunregister
                0x0000000040125aff                exitprocess
                0x0000000040125b12                msgpremapbuf
                0x0000000040125c3c                process_syscall
                0x0000000040125ce8                putchar
                0x0000000040125d26                putchar_set_func
                0x0000000040126027                do_panic_reboot
                0x00000000401260b1                handle_init_to_bsp
                0x00000000401260d2                reboot_test
                0x0000000040126102                savemsr_save
                0x000000004012617e                savemsr_load
                0x00000000401267a6                get_seg_base
                0x0000000040126864                get_seg_access_rights
                0x0000000040126884                segment_wakeup
                0x00000000401268c6                segment_init_ap
                0x0000000040126b8b                serial_putDebugChar
                0x0000000040126b9d                serial_getDebugChar
                0x0000000040126bb2                serial_putchar
                0x0000000040126c06                serial_init_iohook
                0x0000000040126c74                waitcycles
                0x0000000040126c96                usleep
                0x0000000040126d6b                sleep_set_timer_counter
                0x0000000040126ed2                vmctl_svm_init
                0x0000000040126f7c                message_exitcode
                0x00000000401274ff                printexitcode
                0x00000000401276b8                svm_available
                0x0000000040127776                svm_reset
                0x000000004012787a                svm_vminit
                0x0000000040127ab5                svm_vmexit
                0x0000000040127abb                svm_init
                0x0000000040127c05                svm_enable_resume
                0x0000000040127d0a                svm_resume
                0x0000000040127e60                svm_ioio
                0x0000000040127f60                svm_extern_iopass
                0x00000000401280d3                svm_init_signal
                0x00000000401280f6                svm_start_vm
                0x0000000040128bb0                svm_msr_update_lma
                0x0000000040128c25                svm_read_msr
                0x0000000040128eca                svm_write_msr
                0x000000004012941a                svm_np_init
                0x0000000040129502                svm_np_pagefault
                0x0000000040129548                svm_np_tlbflush
                0x000000004012954e                svm_np_updatecr3
                0x0000000040129559                svm_np_clear_all
                0x00000000401295ec                svm_np_extern_mapsearch
                0x0000000040129677                svm_np_map_1mb
                0x00000000401296d0                svm_paging_extern_flush_tlb_entry
                0x00000000401296f7                svm_paging_map_1mb
                0x0000000040129721                svm_paging_flush_guest_tlb
                0x0000000040129760                svm_paging_init
                0x000000004012987e                svm_paging_pagefault
                0x00000000401298aa                svm_paging_tlbflush
                0x00000000401298d1                svm_paging_invalidate
                0x00000000401298fd                svm_paging_npf
                0x0000000040129929                svm_paging_updatecr3
                0x0000000040129951                svm_paging_spt_setcr3
                0x0000000040129986                svm_paging_clear_all
                0x00000000401299b1                svm_paging_get_gpat
                0x00000000401299bc                svm_paging_set_gpat
                0x0000000040129a09                svm_paging_apply_fixed_cr0
                0x0000000040129a2c                svm_paging_apply_fixed_cr4
                0x0000000040129a50                svm_paging_pg_change
                0x0000000040129a56                svm_paging_start
                0x0000000040129a68                svm_panic_dump
                0x0000000040129b40                svm_read_general_reg
                0x0000000040129ca9                svm_write_general_reg
                0x0000000040129ddf                svm_read_control_reg
                0x0000000040129e75                svm_write_control_reg
                0x0000000040129f61                svm_read_sreg_sel
                0x000000004012a02d                svm_read_sreg_acr
                0x000000004012a10c                svm_read_sreg_base
                0x000000004012a22e                svm_read_sreg_limit
                0x000000004012a345                svm_read_ip
                0x000000004012a364                svm_write_ip
                0x000000004012a38a                svm_read_flags
                0x000000004012a3a9                svm_write_flags
                0x000000004012a3c5                svm_read_gdtr
                0x000000004012a3fc                svm_write_gdtr
                0x000000004012a425                svm_read_idtr
                0x000000004012a45c                svm_write_idtr
                0x000000004012a485                svm_write_realmode_seg
                0x000000004012a5d5                svm_writing_sreg
                0x000000004012a6f7                int1a_TCG_StatusCheck
                0x000000004012a7bc                int1a_TCG_HashLogExtendEvent
                0x000000004012a84d                int1a_TCG_PassThroughToTPM
                0x000000004012a8de                int1a_TCG_HashLogEvent
                0x000000004012a95f                int1a_TCG_HashAll
                0x000000004012aa17                int1a_TCG_TSS
                0x000000004012aaa8                int1a_TCG_CompactHashLogExtendEvent
                0x000000004012ab09                tcg_measure
                0x000000004012ae4d                thread_gettid
                0x000000004012ae62                schedule
                0x000000004012b073                thread_new
                0x000000004012b196                thread_wakeup
                0x000000004012b273                thread_will_stop
                0x000000004012b2eb                thread_exit
                0x000000004012b38f                thread_start1
                0x000000004012b3bf                thread_set_process_switch
                0x000000004012b570                get_cpu_time
                0x000000004012b643                get_acpi_time
                0x000000004012b6f3                get_time
                0x000000004012b8d5                timer_new
                0x000000004012b956                timer_set
                0x000000004012ba4c                timer_free
                0x000000004012bc52                tty_putchar
                0x000000004012be06                ttylog_stop
                0x000000004012be16                tty_udp_register
                0x000000004012be68                tty_init_iohook
                0x000000004012be90                vcpu_list_foreach
                0x000000004012becf                load_new_vcpu
                0x000000004012bf89                vga_register
                0x000000004012c00b                vga_is_ready
                0x000000004012c06b                vga_transfer_image
                0x000000004012c0b8                vga_fill_rect
                0x000000004012c0f2                vga_get_screen_size
                0x000000004012c21c                vmmcall
                0x000000004012c275                vmmcall_register
                0x000000004012c2b3                vmmcall_init
                0x000000004012c674                vmmcall_boot_continue
                0x000000004012c6bf                vmmcall_boot_enable
                0x000000004012cf27                register_status_callback
                0x000000004012d03f                vramwrite_clearscreen
                0x000000004012d096                vramwrite_putchar
                0x000000004012d26e                vramwrite_mark1
                0x000000004012d2c0                vramwrite_mark2
                0x000000004012d320                vramwrite_mark3
                0x000000004012d380                vramwrite_save_and_move_cursor
                0x000000004012d3c5                vramwrite_restore_cursor
                0x000000004012d3d7                vramwrite_get_cursor_pos
                0x000000004012d437                vramwrite_init_global
                0x000000004012d444                vramwrite_exit_global
                0x000000004012d4ce                vt_generate_external_int
                0x000000004012d521                vt_generate_pagefault
                0x000000004012d5d7                vmctl_vt_init
                0x000000004012d67f                vt_vmptrld
                0x000000004012d96c                vt_ept_init
                0x000000004012da5c                vt_ept_violation
                0x000000004012dc37                vt_ept_tlbflush
                0x000000004012dc3d                vt_ept_updatecr3
                0x000000004012dd2f                vt_ept_clear_all
                0x000000004012ddc2                vt_ept_extern_mapsearch
                0x000000004012de4d                vt_ept_map_1mb
                0x000000004012dea0                message_exitreason
                0x000000004012e009                printexitreason
                0x000000004012e980                vt_available
                0x000000004012ea1a                vt__vmx_init
                0x000000004012ea62                vt__vmxon
                0x000000004012eb0f                vt_vminit
                0x000000004012eb6b                vt_vmexit
                0x000000004012eb85                vt_init
                0x000000004012eb95                vt_enable_resume
                0x000000004012ecce                vt_resume
                0x000000004012ee67                vt_io
                0x000000004012ef98                vt_iopass_init
                0x000000004012f12d                vt_iopass
                0x000000004012f17e                vt_extern_iopass
                0x000000004012fd93                vt_update_exception_bmp
                0x00000000401303b0                vt_init_signal
                0x00000000401303bb                vt_start_vm
                0x00000000401307a1                vt_add_guest_msr
                0x00000000401308e4                vt_read_guest_msr
                0x0000000040130915                vt_write_guest_msr
                0x0000000040130943                vt_msr_update_lma
                0x0000000040130a1b                vt_read_msr
                0x0000000040130cbf                vt_write_msr
                0x0000000040130f87                vt_msr_init
                0x0000000040131183                vt_paging_extern_flush_tlb_entry
                0x00000000401311f1                vt_paging_map_1mb
                0x0000000040131211                vt_paging_flush_guest_tlb
                0x0000000040131271                vt_paging_pagefault
                0x00000000401312b4                vt_paging_tlbflush
                0x00000000401312d7                vt_paging_invalidate
                0x000000004013130a                vt_paging_npf
                0x000000004013134d                vt_paging_updatecr3
                0x0000000040131381                vt_paging_spt_setcr3
                0x00000000401313ac                vt_paging_clear_all
                0x00000000401313df                vt_paging_get_gpat
                0x00000000401313ea                vt_paging_set_gpat
                0x000000004013144a                vt_paging_apply_fixed_cr0
                0x00000000401314b2                vt_paging_apply_fixed_cr4
                0x00000000401314fa                vt_paging_pg_change
                0x000000004013167d                vt_paging_init
                0x00000000401316f8                vt_paging_start
                0x0000000040131727                vt_panic_dump
                0x00000000401318d0                vt_read_general_reg
                0x0000000040131a1e                vt_write_general_reg
                0x0000000040131b3c                vt_read_control_reg
                0x0000000040131bac                vt_read_sreg_sel
                0x0000000040131cc6                vt_read_sreg_acr
                0x0000000040131d25                vt_read_sreg_base
                0x0000000040131ddd                vt_read_sreg_limit
                0x0000000040131e90                vt_read_ip
                0x0000000040131e9e                vt_write_ip
                0x0000000040131ebe                vt_read_flags
                0x0000000040131ee4                vt_write_flags
                0x0000000040131f0f                vt_read_gdtr
                0x0000000040131f24                vt_write_gdtr
                0x0000000040131f39                vt_read_idtr
                0x0000000040131f7d                vt_write_idtr
                0x0000000040131fb3                vt_write_control_reg
                0x000000004013248f                vt_get_current_regs_in_vmcs
                0x0000000040132737                vt_get_vmcs_regs_in_vmcs
                0x00000000401328b4                vt_write_realmode_seg
                0x00000000401329f7                vt_writing_sreg
                0x0000000040132a80                vt_reset
                0x0000000040132d5f                prepare_for_sleep
                0x0000000040132e36                cancel_sleep
                0x0000000040132e58                wakeup_main
                0x0000000040132ee0                wakeup_cont
                0x000000004013300a                wakeup_init
                0x0000000040133054                call_xsetbv
                0x00000000401330c0                mpumul_64_64
                0x00000000401330e0                mpudiv_128_32
                0x0000000040133100                ipchecksum
                0x0000000040133190                asm_vmlaunch_regs_32
                0x0000000040133210                asm_vmresume_regs_32
                0x0000000040133290                asm_vmrun_regs_32
                0x00000000401332f0                asm_vmlaunch_regs_64
                0x00000000401333d0                asm_vmresume_regs_64
                0x00000000401334b0                asm_vmrun_regs_64
                0x0000000040133554                callrealmode_start
                0x000000004013356a                callrealmode_start2
                0x00000000401339f6                callrealmode_end
                0x00000000401339f8                move_vmm_area32
                0x0000000040133a1d                move_vmm_area64
                0x0000000040133a48                int_handler
                0x0000000040133ac0                int_callfunc
                0x0000000040134000                syscall_entry_sysexit
                0x000000004013402c                syscall_entry_lret
                0x000000004013405c                ret_to_user32
                0x0000000040134068                syscall_entry_sysret64
                0x00000000401340b0                ret_to_user64
                0x0000000040135000                processuser_sysenter
                0x0000000040136000                processuser_no_sysenter
                0x0000000040137000                processuser_syscall
                0x0000000040138140                memset
                0x00000000401381c0                memcpy
                0x0000000040138200                strcmp
                0x0000000040138240                memcmp
                0x0000000040138280                strlen
                0x0000000040138298                sx_handler
                0x00000000401382f0                thread_switch
                0x0000000040138310                thread_start0
                0x000000004013834c                monitor_vmcs_read
                0x0000000040138355                get_guest_eptp_value
                0x0000000040138365                get_guest_cr3_value
                0x0000000040138375                monitor_vmcs_write
                0x0000000040138380                hypercall_handler
                0x00000000401383b8                get_page_table_base_GPA
                0x00000000401383ce                get_ept_base_HPA
                0x00000000401383e4                traverseGuestPages
                0x00000000401383ef                saveSystemCallHandlerAddress
                0x0000000040138430                getSystemCallHandlerGPA
                0x000000004013843d                save_guest_status
                0x00000000401387c1                clear_guest_status
                0x0000000040138aaf                restore_guest_status
                0x0000000040138dc9                getTSSGVA
                0x0000000040138dd9                getGuestRSP
                0x0000000040138e00                allocateNewVMID
                0x0000000040138e16                allocateNewAppID
                0x0000000040138e2e                allocateNewApplicationIdentifiers
                0x0000000040138e69                getMemoryOwnershipTableIndex
                0x0000000040138e76                remapPage
                0x0000000040138ec0                changePageStatus
                0x000000004013900d                openPage
                0x00000000401390aa                closePage
                0x00000000401391ee                getMemoryOwnershipTableEntry
                0x0000000040139226                initializeNewProtectedApplication
                0x0000000040139241                protectCurrentApplication
                0x00000000401392a2                getCurrentProtectedApplication
                0x000000004013930c                findProtectedApplicationFromRIP
                0x0000000040139364                setCurrentProtectedApplication
                0x0000000040139374                traverseIA32ePages
                0x000000004013964c                traverseIA32ePDPT
                0x0000000040139878                traverseIA32ePDT
                0x00000000401399ea                traverseIA32ePT
                0x0000000040139ab7                gvaToGPA
                0x0000000040139d54                mapHPAintoHVA
                0x0000000040139d64                unmapHPAintoHVA
                0x0000000040139d6f                gpaToHPA
                0x000000004013a1ea                monitor_memset
                0x000000004013a204                virt_to_phys
                0x000000004013a214                test_gpaToHPA
                0x000000004013a25e                test_start
                0x000000004013a2bc                test_traverseGuestPages
                0x000000004013a2f9                test_logicalCPUStatus
                0x000000004013a320                restore_register
                0x000000004013a3cc                handleSystemCall
                0x000000004013a3f4                initPagePool
                0x000000004013a42c                findUnmappedPage
                0x000000004013a45f                allocateNewZeroPage
                0x000000004013a4c0                core_init
                0x000000004013a57a                core_mm_read_guest_phys
                0x000000004013a58f                core_mm_write_guest_phys
                0x000000004013a5a4                alloc_handler_descriptor
                0x000000004013a5b4                core_io_modify_handler
                0x000000004013a672                core_io_unregister_handler
                0x000000004013a6f9                core_io_handle_default
                0x000000004013a981                panic_oom
                0x000000004013a994                core_io_register_handler
                0x000000004013aac8                matched_drhd_u
                0x000000004013ab1d                parse_dmar_bios_report
                0x000000004013ab68                ieee1394_init
                0x000000004013aba0                iommu_setup
                0x000000004013aba6                iodom_init
                0x000000004013ad67                add_remap
                0x000000004013adf4                create_dom
                0x000000004013b117                pci_conceal_new_device
                0x000000004013b4d5                pci_conceal_config_data_handler
                0x000000004013b4ec                pci_save_config_addr
                0x000000004013b4fe                pci_restore_config_addr
                0x000000004013b510                pci_append_device
                0x000000004013b542                pci_config_data_handler
                0x000000004013b86b                pci_config_addr_handler
                0x000000004013b8b3                pci_register_driver
                0x000000004013b952                pci_read_config_data8
                0x000000004013b998                pci_read_config_data16
                0x000000004013b9df                pci_read_config_data32
                0x000000004013ba25                pci_write_config_data8
                0x000000004013ba69                pci_write_config_data16
                0x000000004013baae                pci_write_config_data32
                0x000000004013baf2                pci_read_config_data_port
                0x000000004013bb24                pci_write_config_data_port
                0x000000004013bb5a                pci_handle_default_config_write
                0x000000004013bb9c                pci_print_device
                0x000000004013befc                pci_possible_new_device
                0x000000004013bf20                security_storage_check_lba
                0x000000004013f49a                ahci_new
                0x000000004013f730                ahci_config_read
                0x000000004013f78e                ahci_config_write
                0x000000004013f924                ata_bm_handle_prd_table
                0x000000004013fb6d                ata_bm_handle_status
                0x000000004013fc2d                ata_bm_handle_command
                0x000000004013fd70                ata_bm_handler
                0x000000004013fe88                ata_get_cmd_type
                0x0000000040140442                ata_handle_queued_status
                0x0000000040140c77                ata_channel_lock
                0x0000000040140cf3                ata_channel_unlock
                0x000000004014187b                ata_ctlblk_handler
                0x0000000040141983                ata_cmdblk_handler
                0x0000000040141aac                ata_ahci_mode
                0x0000000040141faf                ata_init_io_handler
                0x0000000040142052                ata_set_bm_handler
                0x00000000401420b7                ata_set_cmdblk_handler
                0x00000000401420fd                ata_set_ctlblk_handler
                0x0000000040142145                ata_config_read
                0x0000000040142207                ata_config_write
                0x00000000401423a0                ata_init_vendor
                0x00000000401423c7                ata_bm_handle_device_specific
                0x00000000401424c0                atapi_handle_config_data
                0x0000000040142707                atapi_handle_interrupt_reason
                0x0000000040142760                atapi_handle_pio_identify_packet
                0x00000000401428ef                atapi_handle_packet_data
                0x00000000401428fa                atapi_handle_cmd_packet
                0x0000000040142974                packet_handle_through
                0x00000000401429a9                packet_handle_nondata
                0x00000000401429c3                packet_handle_config
                0x0000000040142a0f                packet_handle_rw
                0x0000000040142a91                packet_handle_invalid
                0x0000000040142aab                packet_handle_command
                0x0000000040142ae0                uhci_init
                0x0000000040143387                uhci_current_frame_number
                0x00000000401433a0                dump_td_byvirt
                0x000000004014356d                dump_td
                0x000000004014364d                dump_qh
                0x0000000040143815                dump_frame
                0x000000004014391a                uhci_dump_all
                0x0000000040143adc                uhci_error_status_string
                0x0000000040143dbd                uhci_shadow_buffer
                0x0000000040144042                uhci_framelist_monitor
                0x0000000040145fb0                scan_gframelist
                0x0000000040146883                uhci_create_urb
                0x00000000401469dc                uhci_destroy_urb
                0x0000000040146b09                uhci_destroy_unlinked_urbs
                0x0000000040146bcb                uhci_deactivate_urb
                0x0000000040146f54                uhci_activate_urb
                0x00000000401474a8                uhci_reactivate_urb
                0x000000004014754e                uhci_submit_control
                0x0000000040147b52                uhci_submit_interrupt
                0x0000000040147bb6                uhci_submit_bulk
                0x0000000040147c1a                uhci_check_urb_advance
                0x0000000040147c5f                uhci_check_advance
                0x0000000040147e6a                init_hframelist
                0x00000000401480ec                ehci_init
                0x0000000040149979                ehci_conceal_portroute
                0x0000000040149f9d                ehci_dump_qtd
                0x000000004014a023                ehci_dump_qtdm
                0x000000004014a058                ehci_dump_alist
                0x000000004014a11b                ehci_dump_urblist
                0x000000004014a1b0                ehci_dump_urb
                0x000000004014a66d                ehci_dump_async
                0x000000004014aafc                ehci_dump_all
                0x000000004014c0da                ehci_shadow_buffer
                0x000000004014c394                get_gurb_by_address
                0x000000004014c428                shadow_and_activate_urb
                0x000000004014c6d8                ehci_deactivate_urb
                0x000000004014c870                deactivate_and_delete_urb
                0x000000004014cae7                ehci_check_urb_advance
                0x000000004014ccb7                ehci_check_advance
                0x000000004014ceeb                ehci_shadow_async_list
                0x000000004014d005                ehci_cleanup_urbs
                0x000000004014d15a                ehci_end_monitor_async
                0x000000004014d1c3                ehci_monitor_async_list
                0x000000004014d86c                ehci_submit_control
                0x000000004014dde5                ehci_submit_bulk
                0x000000004014ddf0                ehci_submit_interrupt
                0x000000004014f9ba                usbmsc_init_handle
                0x000000004014fd99                usbhub_init_handle
                0x000000004014fe12                hub_portdevice_register
                0x00000000401504d5                usbccid_init_handle
                0x0000000040150600                usb_set_debug
                0x000000004015060c                usb_init
                0x0000000040150612                usb_find_busses
                0x00000000401506f2                usb_get_busses
                0x00000000401506ff                usb_get_bus
                0x0000000040150727                usb_find_devices
                0x0000000040150770                usb_open
                0x00000000401507da                usb_close
                0x00000000401507ea                usb_resetep
                0x00000000401507f5                usb_clear_halt
                0x0000000040150800                usb_reset
                0x000000004015080b                usb_claim_interface
                0x0000000040150819                usb_release_interface
                0x000000004015082b                usb_set_configuration
                0x0000000040150ad6                usb_set_altinterface
                0x0000000040150d83                usb_control_msg
                0x00000000401510df                usb_get_string
                0x000000004015142c                usb_get_string_simple
                0x0000000040151621                usb_get_descriptor
                0x0000000040151971                usb_get_descriptor_early
                0x0000000040151ccc                usb_get_descriptor_by_endpoint
                0x000000004015201e                usb_bulk_write
                0x0000000040152274                usb_interrupt_write
                0x00000000401524ca                usb_bulk_read
                0x00000000401527a5                usb_interrupt_read
                0x0000000040152a80                usb_register_host
                0x0000000040152b92                usb_unregister_devices
                0x0000000040152bc4                usb_sc_lock
                0x0000000040152c3c                usb_sc_unlock
                0x0000000040152f63                free_config_descriptors
                0x000000004015396c                free_device
                0x0000000040153ada                handle_connect_status
                0x0000000040153bee                handle_port_reset
                0x0000000040153ccf                dprintf_port
                0x00000000401547a1                usb_init_device_monitor
                0x000000004015480b                usb_new_dev_handle
                0x00000000401548a4                usbhid_init_handle
                0x00000000401549e0                usb_hook_process
                0x0000000040154ccb                usb_hook_register
                0x0000000040154daf                usb_hook_unregister
                0x0000000040154e30                _dprintf
                0x0000000040154e7d                _dprintft
                0x0000000040154f38                pro100_io_handler
                0x0000000040154f43                pro100_init
                0x0000000040154f5c                pro100_config_write
                0x00000000401550a1                pro100_config_read
                0x00000000401551ea                pro100_init_vpn_client
                0x0000000040155229                pro100_sleep
                0x0000000040155267                pro100_beep
                0x000000004015529f                pro100_get_ctx
                0x0000000040155342                pro100_alloc_page
                0x000000004015537c                pro100_free_page
                0x00000000401553a1                pro100_get_op_size
                0x00000000401553e4                pro100_mem_read
                0x0000000040155413                pro100_read_send_packet
                0x0000000040155625                pro100_mem_write
                0x000000004015564e                pro100_write
                0x000000004015567d                pro100_read
                0x00000000401556ba                pro100_flush
                0x00000000401556d4                pro100_wait_cu_ru_accepable
                0x000000004015570f                pro100_init_ru_base_addr
                0x000000004015576f                pro100_init_cu_base_addr
                0x00000000401557cf                pro100_send_packet_to_line
                0x0000000040155923                pro100_exec_cu_op
                0x0000000040155a7c                pro100_generate_int
                0x0000000040155aab                pro100_proc_guest_op
                0x0000000040155ca6                pro100_write_recv_packet
                0x0000000040155e3a                pro100_get_int_bit_string
                0x0000000040155eb2                pro100_get_stat_ack_string
                0x0000000040155f1f                pro100_get_cu_command_string
                0x0000000040155fa1                pro100_get_ru_command_string
                0x0000000040155feb                pro100_init_recv_buffer
                0x0000000040156122                pro100_alloc_recv_buffer
                0x0000000040156191                pro100_new
                0x000000004015625e                pro100_poll_ru
                0x0000000040156357                pro100_hook_read
                0x0000000040156516                pro100_hook_write
                0x00000000401567ec                pro100_mm_handler
                0x0000000040158b73                storage_premap_buf
                0x0000000040158b7e                storage_premap_handle_sectors
                0x0000000040158ed2                storage_get_num_hc
                0x0000000040158f04                storage_hc_open
                0x0000000040158fe4                storage_hc_close
                0x000000004015902e                storage_hc_hook_register
                0x00000000401590b3                storage_hc_hook_unregister
                0x000000004015914d                storage_hc_register
                0x0000000040159318                storage_hc_unregister
                0x000000004015941d                storage_hc_scandev
                0x0000000040159461                storage_hc_dev_open
                0x000000004015959f                storage_hc_dev_atacommand
                0x0000000040159772                storage_hc_dev_close
                0x000000004015983a                storage_io_init
                0x000000004015984f                storage_io_deinit
                0x000000004015985a                storage_io_get_num_devices
                0x0000000040159918                storage_io_aget_size
                0x0000000040159a7f                storage_io_aread
                0x0000000040159c9b                storage_io_awrite
                0x000000004015a412                storage_handle_sectors
                0x000000004015a65b                storage_new
                0x000000004015a8a2                storage_free
                0x000000004015aaa1                storage_init
                0x000000004015acd5                aes_xts_init
                0x000000004015ad08                crypto_find
                0x000000004015ad5b                crypto_register
                0x000000004015adab                crypto_init
                0x000000004015ae02                crypto_none_init
                0x000000004015ae3a                vpn_GetCurrentCpuId
                0x000000004015ae45                vpn_GetTickCount
                0x000000004015ae75                vpn_NewTimer
                0x000000004015ae8f                vpn_SetTimer
                0x000000004015aea3                vpn_FreeTimer
                0x000000004015aeae                vpn_GetPhysicalNicInfo
                0x000000004015aebd                vpn_SendPhysicalNic
                0x000000004015aecc                vpn_SetPhysicalNicRecvCallback
                0x000000004015aedb                vpn_GetVirtualNicInfo
                0x000000004015aeeb                vpn_SendVirtualNic
                0x000000004015aefb                vpn_SetVirtualNicRecvCallback
                0x000000004015af0b                vpn_premap_PhysicalNicRecv
                0x000000004015af24                vpn_premap_VirtualNicRecv
                0x000000004015af3d                vpn_premap_recvbuf
                0x000000004015af48                vpn_ic_rsa_sign
                0x000000004015afef                vpn_new_nic
                0x000000004015b611                msg_vpn_GetCurrentCpuId
                0x000000004015b62b                msg_vpn_ic_rsa_sign
                0x000000004015b6d7                msg_vpn_GetTickCount
                0x000000004015b715                msg_vpn_GetPhysicalNicInfo
                0x000000004015b779                msg_vpn_SendPhysicalNic
                0x000000004015b833                msg_vpn_SetPhysicalNicRecvCallback
                0x000000004015b87f                msg_vpn_GetVirtualNicInfo
                0x000000004015b8e3                msg_vpn_SendVirtualNic
                0x000000004015b99d                msg_vpn_SetVirtualNicRecvCallback
                0x000000004015b9e9                msg_vpn_NewTimer
                0x000000004015ba59                msg_vpn_SetTimer
                0x000000004015bb2c                msg_vpn_FreeTimer
                0x000000004015bb92                vpn_start
                0x000000004015bf1c                vpn_user_init
                0x000000004015bf80                SeFreeConfigEntryList
                0x000000004015bfde                SeGetConfigEntry
                0x000000004015c04f                SeGetConfigStr
                0x000000004015c07c                SeGetConfigBool
                0x000000004015c128                SeGetConfigInt
                0x000000004015c14c                SeGetConfigInt64
                0x000000004015c170                SeGetConfigBin
                0x000000004015c194                SeIsSplitChar
                0x000000004015c207                SeGetKeyAndValue
                0x000000004015c397                SeLoadConfigEntryListFromBuf
                0x000000004015c50f                SeLoadConfigEntryList
                0x000000004015c560                SePKeyPasswordCallbackFunction
                0x000000004015c58d                SeDhFree
                0x000000004015c5c7                SeRsaVerifyWithPadding
                0x000000004015c6a1                SeRsaSignWithPadding
                0x000000004015c765                SeRsaPublicDecrypt
                0x000000004015c80e                SeRsaPrivateEncrypt
                0x000000004015c8b7                SeRsaPrivateDecrypt
                0x000000004015c958                SeRsaPublicEncrypt
                0x000000004015c9f9                SeGetCertSha1
                0x000000004015ca41                SeGetCertMd5
                0x000000004015ca89                SeBinToBigNum
                0x000000004015cad4                SeBufToBigNum
                0x000000004015caef                SeDhCompute
                0x000000004015cb7b                SeBigNumToBuf
                0x000000004015cc14                SeRsaPublicSize
                0x000000004015cc5f                SeRsaPublicToBin
                0x000000004015ccc3                SeRsaPublicToBuf
                0x000000004015cd07                SeDhNew
                0x000000004015cddd                SeDhNewGroup2
                0x000000004015cdf2                SeCheckSignature
                0x000000004015ce1c                SeGetKeyFromCert
                0x000000004015ce58                SeCompareCert
                0x000000004015ce82                SeCheckCertAndKey
                0x000000004015ceac                SeIsBase64
                0x000000004015cf6d                SeFreePKey
                0x000000004015cf7d                SeFreeKey
                0x000000004015cfa5                SeIsCertSignedByCert
                0x000000004015d015                SeCheckCert
                0x000000004015d07b                SeBioToKey
                0x000000004015d189                SeGetCertIssuerName
                0x000000004015d215                SeGetCertSubjectName
                0x000000004015d29f                SeFreeX509
                0x000000004015d2af                SeFreeCert
                0x000000004015d2dd                SeFreeBio
                0x000000004015d2ed                SeNewBio
                0x000000004015d300                SeCertToBio
                0x000000004015d361                SeKeyToBio
                0x000000004015d45d                SeRsaGen
                0x000000004015d5c8                SeBioToBuf
                0x000000004015d669                SeCertToBuf
                0x000000004015d6b4                SeSaveCert
                0x000000004015d715                SeKeyToBuf
                0x000000004015d760                SeSaveKey
                0x000000004015d7c4                SeX509ToCert
                0x000000004015d87c                SeBioToCert
                0x000000004015d8c7                SeBigNumToStr
                0x000000004015d933                SeBufToBio
                0x000000004015d98c                SeBufToKey
                0x000000004015d9f8                SeLoadKey
                0x000000004015daa3                SeCloneKey
                0x000000004015db0d                SeBufToCert
                0x000000004015db62                SeLoadCert
                0x000000004015dbaf                SeCloneCert
                0x000000004015dc00                SeSha1
                0x000000004015dc20                SeHashForSignBySHA1
                0x000000004015dcca                SeRsaSignWithSha1
                0x000000004015dd6d                SeRsaVerifyWithSha1
                0x000000004015de0f                SeMacSha1
                0x000000004015df66                SeMacSha196
                0x000000004015dfad                SeMd5
                0x000000004015dfcd                SeDes3Encrypt
                0x000000004015e065                SeDes3Decrypt
                0x000000004015e0ff                SeDesNewKeyValue
                0x000000004015e151                SeDes3NewKey
                0x000000004015e1d2                SeDesNewKey
                0x000000004015e1e3                SeDesRandKeyValue
                0x000000004015e1ff                SeDesRandKey
                0x000000004015e249                SeDes3RandKey
                0x000000004015e292                SeDesFreeKeyValue
                0x000000004015e2ba                SeDes3FreeKey
                0x000000004015e2f4                SeDesFreeKey
                0x000000004015e2ff                SeRand
                0x000000004015e313                SeRand64
                0x000000004015e32f                SeRand32
                0x000000004015e34a                SeRand16
                0x000000004015e366                SeRand8
                0x000000004015e382                SeRand1
                0x000000004015e395                SeInitCrypto
                0x000000004015e3d8                SeFreeCrypto
                0x000000004015e3f0                SeIkeStrToPassword
                0x000000004015e45d                SeIkePhase1CryptIdToKeySize
                0x000000004015e47c                SeIkePhase2CryptIdToKeySize
                0x000000004015e49b                SeIkeStrToPhase1CryptId
                0x000000004015e501                SeIkeStrToPhase1HashId
                0x000000004015e540                SeIkeStrToPhase2CryptId
                0x000000004015e5ab                SeIkeStrToPhase2HashId
                0x000000004015e5ea                SeIkeIsZeroIP
                0x000000004015e618                SeIkeInitIPv6Address
                0x000000004015e665                SeIkeInitIPv4Address
                0x000000004015e6a8                SeIkeGetIPv6Address
                0x000000004015e6e2                SeIkeGetIPv4Address
                0x000000004015e6fb                SeIkeIpAddressToStr
                0x000000004015e755                SeIkeBuildDataPayload
                0x000000004015e79e                SeIkeBuildTransformValue
                0x000000004015e858                SeIkeBuildTransformValueList
                0x000000004015e8c0                SeIkeBuildTransformPayload
                0x000000004015e93d                SeIkeBuildIdPayload
                0x000000004015e9b4                SeIkeBuildCertPayload
                0x000000004015ea17                SeIkeBuildCertRequestPayload
                0x000000004015ea7a                SeIkeBuildNoticePayload
                0x000000004015eb07                SeIkeBuildDeletePayload
                0x000000004015ebd7                SeIkeGetFirstPayloadType
                0x000000004015ebf6                SeIkeBuildPayloadList
                0x000000004015ed01                SeIkeBuildProposalPayload
                0x000000004015edac                SeIkeBuildSaPayload
                0x000000004015ee35                SeIkeBuildPayload
                0x000000004015ef0e                SeIkeGetPayload
                0x000000004015ef5c                SeIkeGetPayloadNum
                0x000000004015ef98                SeIkeNewPayload
                0x000000004015efb6                SeIkeNewDataPayload
                0x000000004015f006                SeIkeNewSaPayload
                0x000000004015f031                SeIkeNewProposalPayload
                0x000000004015f0bb                SeIkeNewTransformPayload
                0x000000004015f106                SeIkeNewIdPayload
                0x000000004015f186                SeIkeNewCertPayload
                0x000000004015f1ea                SeIkeNewCertRequestPayload
                0x000000004015f24e                SeIkeNewNoticePayload
                0x000000004015f2ea                SeIkeNewDeletePayload
                0x000000004015f326                SeIkeNewTransformValue
                0x000000004015f355                SeIkeFreeTransformValueList
                0x000000004015f391                SeIkeParseTransformValueList
                0x000000004015f4fd                SeIkeParseTransformPayload
                0x000000004015f569                SeIkeFreeTransformPayload
                0x000000004015f597                SeIkeParseIdPayload
                0x000000004015f614                SeIkeFreeIdPayload
                0x000000004015f642                SeIkeParseCertPayload
                0x000000004015f6ab                SeIkeFreeCertPayload
                0x000000004015f6d9                SeIkeParseCertRequestPayload
                0x000000004015f742                SeIkeFreeCertRequestPayload
                0x000000004015f770                SeIkeParseNoticePayload
                0x000000004015f834                SeIkeFreeNoticePayload
                0x000000004015f878                SeIkeFreeDeletePayload
                0x000000004015f8d7                SeIkeParseDeletePayload
                0x000000004015f9e5                SeIkeParseDataPayload
                0x000000004015fa1f                SeIkeFreeDataPayload
                0x000000004015fa32                SeIkeFreePayloadList
                0x000000004015fa6e                SeIkeParsePayloadListEx
                0x000000004015fbf1                SeIkeParsePayloadList
                0x000000004015fc04                SeIkeParseProposalPayload
                0x000000004015fcb4                SeIkeParseSaPayload
                0x000000004015fd81                SeIkeParsePayload
                0x000000004015fe81                SeIkeFreeProposalPayload
                0x000000004015fec5                SeIkeFreeSaPayload
                0x000000004015fef1                SeIkeFreePayload
                0x000000004015ff98                SeIkeEncrypt
                0x0000000040160053                SeIkeEncryptWithPadding
                0x0000000040160103                SeIkeBuild
                0x000000004016025c                SeIkeDecrypt
                0x0000000040160317                SeIkeFree
                0x0000000040160353                SeIkeParseEx
                0x000000004016053b                SeIkeParse
                0x000000004016054b                SeIkeParseHeader
                0x000000004016055b                SeIkeNew
                0x00000000401605e0                VPN_IPsec_Client_Start
                0x0000000040160606                VPN_IPsec_Client_Stop
                0x0000000040160616                SeIntInit
                0x0000000040160639                SeIntFree
                0x0000000040160653                VPN_IPsec_Init
                0x00000000401606af                VPN_IPsec_Free
                0x00000000401606e1                SeSysMemoryAlloc
                0x00000000401606fd                SeSysMemoryReAlloc
                0x0000000040160726                SeSysMemoryFree
                0x000000004016073e                SeSysGetCurrentCpuId
                0x0000000040160756                SeSysNewLock
                0x000000004016076e                SeSysLock
                0x0000000040160786                SeSysUnlock
                0x000000004016079e                SeSysFreeLock
                0x00000000401607b6                SeSysGetTickCount
                0x00000000401607ce                SeSysNewTimer
                0x00000000401607f2                SeSysSetTimer
                0x000000004016080a                SeSysFreeTimer
                0x0000000040160822                SeSysGetPhysicalNicInfo
                0x000000004016083f                SeSysSendPhysicalNic
                0x0000000040160865                SeSysSetPhysicalNicRecvCallback
                0x0000000040160887                SeSysGetVirtualNicInfo
                0x00000000401608a4                SeSysSendVirtualNic
                0x00000000401608cd                SeSysSetVirtualNicRecvCallback
                0x00000000401608f2                SeSysSaveData
                0x0000000040160919                SeSysLoadData
                0x0000000040160940                SeSysFreeData
                0x000000004016095b                SeSysRsaSign
                0x0000000040160993                SeSysLog
                0x00000000401609c1                SeRsaSign
                0x0000000040160a60                Se4ParseIpPacketUDPv4
                0x0000000040160b5b                Se4FreeIpHeaderInfo
                0x0000000040160b8f                Se4IpChecksum
                0x0000000040160c02                Se4IpCheckChecksum
                0x0000000040160c51                Se4ParseIpPacketICMPv4
                0x0000000040160d80                Se4BuildIcmpEchoPacket
                0x0000000040160e3c                Se4AdjustTcpMss
                0x0000000040160fe1                Se4Tick
                0x0000000040160ff9                Se4BroadcastMacAddress
                0x0000000040161004                Se4SendEthPacket
                0x00000000401610db                Se4SendIpFragmentNow
                0x0000000040161104                Se4InitArpEntryList
                0x0000000040161114                Se4FreeArpEntryList
                0x0000000040161150                Se4FlushArpEntryList
                0x00000000401611fd                Se4SearchArpEntryList
                0x0000000040161289                Se4AddArpEntryList
                0x0000000040161376                Se4SearchArpWaitList
                0x00000000401613be                Se4InitArpWaitList
                0x00000000401613ce                Se4FreeArpWaitList
                0x000000004016140a                Se4InsertIpWait
                0x000000004016148c                Se4InitIpWaitList
                0x000000004016149c                Se4FreeIpWait
                0x00000000401614c5                Se4FlushIpWaitList
                0x0000000040161587                Se4FreeIpWaitList
                0x00000000401615c3                Se4InitIpCombineList
                0x00000000401615d3                Se4SearchIpCombineList
                0x0000000040161649                Se4InitIpFragmentList
                0x0000000040161659                Se4InsertIpCombine
                0x0000000040161758                Se4FreeIpFragmentList
                0x0000000040161794                Se4FreeIpCombine
                0x00000000401617cc                Se4FlushIpCombineList
                0x00000000401618b5                Se4FreeIpCombineList
                0x0000000040161903                Se4Free
                0x0000000040161947                Se4And
                0x0000000040161976                Se4GetNetworkAddress
                0x0000000040161981                Se4Or
                0x00000000401619b0                Se4Not
                0x00000000401619da                Se4GetBroadcastAddress
                0x0000000040161a1f                Se4GetHostAddress
                0x0000000040161a39                Se4GenerateSubnetMask32
                0x0000000040161a5a                Se4IPToStr
                0x0000000040161a9d                Se4ZeroIP
                0x0000000040161ab8                Se4StrToIP
                0x0000000040161b59                Se4IPToUINT
                0x0000000040161b7b                Se4StrToIP32
                0x0000000040161b8d                Se4IsZeroIP
                0x0000000040161ba0                Se4Init
                0x0000000040161cb6                Se4Cmp
                0x0000000040161cef                Se4CheckUnicastAddress
                0x0000000040161d40                Se4IsInSameNetwork
                0x0000000040161d8f                Se4CmpIpCombineList
                0x0000000040161e2d                Se4SendWaitingIpWait
                0x0000000040161f0e                Se4MacIpRelationKnown
                0x0000000040161fba                Se4CmpArpWaitEntry
                0x0000000040161ff1                Se4CmpArpEntry
                0x0000000040162028                Se4ParseIpPacket
                0x000000004016217e                Se4IsBroadcastAddress
                0x0000000040162192                Se4SendArpResponse
                0x0000000040162279                Se4SendArpDoProcess
                0x000000004016237f                Se4ProcessArpWaitList
                0x0000000040162433                Se4MainProc
                0x0000000040162464                Se4SendArpRequest
                0x00000000401624d9                Se4UINTToIP
                0x00000000401624fb                Se4IPToStr32
                0x000000004016251f                Se4GenerateSubnetMask
                0x0000000040162531                Se4IsSubnetMask
                0x000000004016256e                Se4RecvArpResponse
                0x00000000401625b3                Se4RecvArpRequest
                0x00000000401626dd                Se4RecvArp
                0x000000004016279a                Se4SendRawIp
                0x00000000401628fd                Se4SendIpFragment
                0x0000000040162a30                Se4SendIp
                0x0000000040162b12                Se4SendUdp
                0x0000000040162c44                Se4SendIcmp
                0x0000000040162cfd                Se4SendIcmpEchoResponse
                0x0000000040162d92                Se4RecvIpComplete
                0x0000000040162e5f                Se4CombineIp
                0x000000004016305d                Se4SendIcmpEchoRequest
                0x00000000401630f2                Se4RecvIp
                0x000000004016338c                Se4RecvEthPacket
                0x0000000040163420                Se6FreeIpHeaderInfo
                0x0000000040163454                Se6IpChecksum
                0x00000000401634c7                Se6CalcChecksum
                0x0000000040163588                Se6ParseIpPacketICMPv6
                0x00000000401637c6                Se6ParseIpPacketUDPv6
                0x0000000040163915                Se6BuildIcmpEchoPacket
                0x00000000401639fe                Se6BroadcastMacAddress
                0x0000000040163a09                Se6SendEthPacket
                0x0000000040163ae0                Se6SendIpFragmentNow
                0x0000000040163b09                Se6InitNeighborEntryList
                0x0000000040163b19                Se6FreeNeighborEntryList
                0x0000000040163b55                Se6FlushNeighborEntryList
                0x0000000040163c02                Se6SearchNeighborEntryList
                0x0000000040163c59                Se6AddNeighborEntryList
                0x0000000040163d43                Se6SearchNdpWaitList
                0x0000000040163d92                Se6InitNdpWaitList
                0x0000000040163da2                Se6FreeNdpWaitList
                0x0000000040163dde                Se6InsertIpWait
                0x0000000040163e6d                Se6InitIpWaitList
                0x0000000040163e7d                Se6FreeIpWait
                0x0000000040163ea6                Se6FreeIpWaitList
                0x0000000040163ee2                Se6InitIpCombineList
                0x0000000040163ef2                Se6SearchIpCombineList
                0x0000000040163f96                Se6InitIpFragmentList
                0x0000000040163fa6                Se6FreeIpFragmentList
                0x0000000040163fe2                Se6FreeIpCombine
                0x000000004016401d                Se6FreeIpCombineList
                0x000000004016406b                Se6Free
                0x00000000401640bb                Se6Tick
                0x00000000401640d3                Se6InsertIpCombine
                0x000000004016420a                Se6FlushIpCombineList
                0x00000000401642f6                Se6FlushIpWaitList
                0x00000000401643be                Se6GenerateEui64Address
                0x000000004016441f                Se6GenerateMulticastMacAddress
                0x0000000040164455                Se6GetAllNodeMulticastAddr
                0x0000000040164481                Se6GetAllRouterMulticastAddr
                0x00000000401644ad                Se6And
                0x00000000401644eb                Se6GetPrefixAddress
                0x00000000401644fa                Se6Or
                0x0000000040164538                Se6Not
                0x000000004016456c                Se6GetHostAddress
                0x00000000401645a8                Se6GenerateSubnetMask
                0x000000004016460d                Se6GetSoliciationMulticastAddr
                0x00000000401646be                Se6LocalSubnet
                0x00000000401646d2                Se6Cmp
                0x00000000401646fe                Se6GetIPAddrType
                0x000000004016480c                Se6IsInSameNetwork
                0x00000000401648d3                Se6SendRawIp
                0x0000000040164a45                Se6SendIpFragment
                0x0000000040164a61                Se6SendIp
                0x0000000040164bde                Se6SendUdp
                0x0000000040164d0a                Se6SendIcmp
                0x0000000040164e06                Se6SendIcmpNeighborSoliciation
                0x0000000040164f7c                Se6SendNeighborSoliciationDoProcess
                0x0000000040165036                Se6SendNeighborSoliciation
                0x00000000401650be                Se6ProcessNdpWaitList
                0x0000000040165178                Se6SendIcmpNeighborAdvertisement
                0x00000000401652bc                Se6SendIcmpEchoResponse
                0x0000000040165381                Se6SendIcmpEchoRequest
                0x0000000040165446                Se6IsSubnetMask
                0x00000000401654a8                Se6SubnetMaskToInt
                0x0000000040165502                Se6SendIcmpRouterAdvertisement
                0x00000000401656da                Se6MainProc
                0x0000000040165734                Se6CmpIpCombineList
                0x00000000401657c5                Se6SendWaitingIpWait
                0x00000000401658bc                Se6MacIpRelationKnown
                0x00000000401659de                Se6CmpNdpWaitEntry
                0x0000000040165a1f                Se6CmpNeighborEntry
                0x0000000040165a60                Se6ParseIpPacket
                0x0000000040165c02                Se6IsZeroIP
                0x0000000040165c22                Se6CheckUnicastAddress
                0x0000000040165c56                Se6IsNetworkPrefixAddress
                0x0000000040165c98                Se6IsGuestNode
                0x0000000040165d3c                Se6AddGuestNode
                0x0000000040165e10                Se6RecvIpComplete
                0x00000000401660c7                Se6CombineIp
                0x00000000401662dd                Se6RecvIp
                0x000000004016651a                Se6RecvEthPacket
                0x000000004016658c                Se6IPToStr
                0x00000000401666ea                Se6IPItemStrToChars
                0x00000000401667ca                Se6CheckIPItemStr
                0x0000000040166833                Se6ZeroIP
                0x0000000040166853                Se6StrToIP
                0x0000000040166a1f                Se6GenerateEui64LocalAddress
                0x0000000040166a92                Se6Init
                0x0000000040166bf1                Se6GenerateEui64GlobalAddress
                0x0000000040166cf2                Se6CheckSubnetLength
                0x0000000040166d10                SeTimerEntryCompare
                0x0000000040166d50                SeEthGetInfo
                0x0000000040166d74                SeEthSendAdd
                0x0000000040166da7                SeEthParseEthernetPacket
                0x0000000040166ea8                SeEthGenRandMacAddress
                0x0000000040166efa                SeLoad
                0x0000000040166f5f                SeSave
                0x0000000040166f7b                SeTick
                0x0000000040166f8b                SeGetCurrentCpuId
                0x0000000040166f9b                SeNewLock
                0x0000000040166fd6                SeEthNew
                0x00000000401670ec                SeTimerNew
                0x0000000040167162                SeLock
                0x00000000401671ac                SeUnlock
                0x00000000401671d3                SeTick64Internal
                0x0000000040167229                SeTick64
                0x0000000040167248                SeInitKernel
                0x0000000040167282                SeEthGetNextRecvPacket
                0x00000000401672cb                SeEthDeleteOldSenderMacList
                0x000000004016739f                SeEthIsSenderMacAddressExistsInList
                0x0000000040167446                SeEthNicCallback
                0x0000000040167547                SeEthAddSenderMacList
                0x0000000040167641                SeEthSend
                0x00000000401676c7                SeEthSendAll
                0x0000000040167798                SeTimerAdjust
                0x000000004016781e                SeTimerSet
                0x00000000401678a4                SeTimerCallback
                0x00000000401679b4                SeDeleteLock
                0x00000000401679dc                SeEthFree
                0x0000000040167a85                SeTimerFree
                0x0000000040167adf                SeFreeKernel
                0x0000000040167af5                SeLogArgs
                0x0000000040167b33                SeWarning
                0x0000000040167b79                SeError
                0x0000000040167bbf                SeInfo
                0x0000000040167c05                SeFatal
                0x0000000040167c4b                SeDebug
                0x0000000040167c91                SeDebugBin
                0x0000000040167cff                SeLog
                0x0000000040167d40                SeB64CodeToChar
                0x0000000040167d86                SeB64CharToCode
                0x0000000040167dcd                SeIsZero
                0x0000000040167e16                SeReplaceListPointer
                0x0000000040167e72                SeIsInListStr
                0x0000000040167ee3                SeIsInList
                0x0000000040167f2e                SeCompareStr
                0x0000000040167f50                SeSetSortFlag
                0x0000000040167f5e                SeSetCmp
                0x0000000040167f7f                SeFastSwap
                0x0000000040167fb3                SeQSort
                0x00000000401682cb                SeSort
                0x0000000040168303                SeBSearch
                0x00000000401683d2                SeSearch
                0x000000004016843a                SeFifoSize
                0x000000004016844d                SeDumpBuf
                0x0000000040168475                SeSeekBuf
                0x00000000401684ab                SeClearBuf
                0x00000000401684c4                SeSwap16
                0x00000000401684df                SeSwap32
                0x0000000040168509                SeSwap64
                0x0000000040168560                SeMalloc
                0x00000000401685a2                SeNewBuf
                0x00000000401685e4                SeNewFifo
                0x0000000040168626                SeReAlloc
                0x0000000040168697                SeAdjustBufSize
                0x00000000401686cc                SeClearFifo
                0x0000000040168709                SeAdd
                0x0000000040168773                SeInsert
                0x00000000401688a1                SeInsertStr
                0x00000000401688f4                SeDelete
                0x00000000401689af                SeDeleteAll
                0x00000000401689e6                SePop
                0x0000000040168a4d                SePush
                0x0000000040168ab0                SeMemSize
                0x0000000040168ae2                SeFree
                0x0000000040168b11                SeFreeBuf
                0x0000000040168b39                SeFreeBufWithoutBuffer
                0x0000000040168b49                SeFreeFifo
                0x0000000040168b71                SeFreeList
                0x0000000040168b9a                SeFreeQueue
                0x0000000040168bc3                SeFreeStack
                0x0000000040168bec                SeIsLittleEndian
                0x0000000040168bff                SeEndian16
                0x0000000040168c23                SeEndian32
                0x0000000040168c46                SeEndian64
                0x0000000040168c6d                SeIsBigEndian
                0x0000000040168c85                SeCmp
                0x0000000040168cf4                SeCmpEx
                0x0000000040168d29                SeCmpBuf
                0x0000000040168d6a                SeCopy
                0x0000000040168d92                SeClone
                0x0000000040168ddf                SeSwap
                0x0000000040168e39                SeWriteBuf
                0x0000000040168eb0                SeMemToBuf
                0x0000000040168f16                SeRandBuf
                0x0000000040168f5c                SeCloneBuf
                0x0000000040168f77                SeWriteBufLine
                0x0000000040168fcf                SeWriteBufBuf
                0x0000000040168fea                SeWriteBufInt
                0x000000004016902a                SeWriteBufInt64
                0x000000004016906d                SeWriteBufStr
                0x00000000401690db                SeAddBufStr
                0x000000004016911a                SeReadDump
                0x000000004016917f                SePeekFifo
                0x00000000401691bd                SePeekNext
                0x00000000401691fb                SeReadFifo
                0x00000000401692e8                SeGetNext
                0x0000000040169332                SeGetNextInt
                0x0000000040169368                SeWriteFifo
                0x00000000401693fc                SeInsertQueue
                0x0000000040169432                SeInsertQueueInt
                0x0000000040169466                SeCopyToArray
                0x000000004016948a                SeToArray
                0x00000000401694cf                SeZero
                0x00000000401694f1                SeZeroMalloc
                0x0000000040169529                SeNewList
                0x000000004016957c                SeCloneList
                0x00000000401695ca                SeNewQueue
                0x00000000401695fe                SeNewStack
                0x0000000040169639                SeB64Decode
                0x0000000040169808                SeB64Encode
                0x00000000401699c1                SeReadBuf
                0x0000000040169a5b                SeReadBufFromBuf
                0x0000000040169af7                SeReadRemainBuf
                0x0000000040169b1f                SeReadBufInt
                0x0000000040169b54                SeReadBufInt64
                0x0000000040169b8c                SeReadBufStr
                0x0000000040169c40                SeBuildICMPv6OptionValue
                0x0000000040169ccf                SeBuildICMPv6Options
                0x0000000040169d7a                SeParseICMPv6Options
                0x0000000040169e53                SeFreePacketList
                0x0000000040169e8f                SeFreePacketListWithoutBuffer
                0x0000000040169ecb                SeGetNextHeaderFromQueue
                0x0000000040169ef7                SeBuildAndAddIPv6PacketOptionHeader
                0x0000000040169f94                SeBuildIPv6Packet
                0x000000004016a179                SeBuildIPv6PacketWithFragment
                0x000000004016a335                SeParseIPv6ExtHeader
                0x000000004016a422                SeParseIPv6Packet
                0x000000004016a49d                SeParsePacketL3IPv6
                0x000000004016a4de                SeParsePacketL3IPv4
                0x000000004016a597                SeParsePacketL3ARPv4
                0x000000004016a5c1                SeParsePacketL2
                0x000000004016a663                SeFreePacket
                0x000000004016a673                SeParsePacket
                0x000000004016a710                SeSecCmpIkeSa
                0x000000004016a7e8                SeSecCalcP2Iv
                0x000000004016a89c                SeSecCalcP1Iv
                0x000000004016a949                SeSecCalcKEYMATFull
                0x000000004016aa53                SeSecCalcKEYMAT
                0x000000004016ab1a                SeSecCalcKa
                0x000000004016abef                SeSecCalcP1KeySet
                0x000000004016ae06                SeSecForceReconnect
                0x000000004016ae3f                SeSecLifeSeconds64bit
                0x000000004016ae5f                SeSecGetIPsecSa
                0x000000004016aeab                SeSecNewIkeSa
                0x000000004016af5c                SeSecFreeP1KeySet
                0x000000004016afaa                SeSecGenIkeSaMessageId
                0x000000004016b019                SeSecGenIkeSaInitCookie
                0x000000004016b088                SeSecInitSaList
                0x000000004016b0c2                SeSecSearchIPsecSaBySpi
                0x000000004016b151                SeSecSearchIkeSaBySpi
                0x000000004016b21c                SeSecSearchIkeSa
                0x000000004016b2e8                SeSecNewSpi
                0x000000004016b2ff                SeSecGenIPsecSASpi
                0x000000004016b36e                SeSecStrToAuthMethod
                0x000000004016b3d9                SeSecTick
                0x000000004016b3f3                SeSecCheckIPsecSaExpires
                0x000000004016b4b6                SeSecCheckIkeSaExpires
                0x000000004016b575                SeSecSetTimerCallback
                0x000000004016b595                SeSecAddTimer
                0x000000004016b5b5                SeSecDoInterval
                0x000000004016b626                SeSecNewIPsecSa
                0x000000004016b793                SeSecSetRecvUdpCallback
                0x000000004016b7b3                SeSecSetRecvEspCallback
                0x000000004016b7d3                SeSecSetRecvVirtualIpCallback
                0x000000004016b7f3                SeSecSendUdp
                0x000000004016b83c                SeSecProcessIkeSaMsgPhase1
                0x000000004016c145                SeSecSendIkeSaMsgPhase2
                0x000000004016c667                SeSecSendIkeSaMsgPhase2FinalHash
                0x000000004016c807                SeSecProcessIkeSaMsgPhase2
                0x000000004016cc66                SeSecSendIkeSaMsgInfo
                0x000000004016cece                SeSecSendIkeSaMsgInfoSimple
                0x000000004016cf36                SeSecSendIPsecSaDeleteMsg
                0x000000004016cfba                SeSecFreeIPsecSa
                0x000000004016d03a                SeSecDeleteExpiredIPsecSa
                0x000000004016d0e0                SeSecProcessIkeSaMsgInfo
                0x000000004016d405                SeSecProcessIkeSaMsg
                0x000000004016d459                SeSecUdpRecvCallback
                0x000000004016d6c5                SeSecSendIkeSaDeleteMsg
                0x000000004016d762                SeSecFreeIkeSa
                0x000000004016d91b                SeSecFreeSaList
                0x000000004016d994                SeSecFreeMain
                0x000000004016d9a4                SeSecFree
                0x000000004016d9d3                SeSecDeleteExpiredIkeSa
                0x000000004016db36                SeSecStartVpnConnect
                0x000000004016e16a                SeSecProcessMain
                0x000000004016e25c                SeSecTimerCallback
                0x000000004016e26f                SeSecInitMain
                0x000000004016e294                SeSecInit
                0x000000004016e3c8                SeSecSendEsp
                0x000000004016e401                SeSecVirtualIpRecvCallback
                0x000000004016e60a                SeSecSendVirtualIp
                0x000000004016e632                SeSecEspRecvCallback
                0x000000004016e7e0                SeMakeCharArray
                0x000000004016e814                SeFreeToken
                0x000000004016e862                SeNullTokenList
                0x000000004016e896                SeDefaultTokenSplitChars
                0x000000004016e8a1                Se4BitToHex
                0x000000004016e8b6                SeHexTo4Bit
                0x000000004016e8f2                SeStrCmp
                0x000000004016e986                SeStrnCmp
                0x000000004016ea53                SeToUpper
                0x000000004016ea67                SeStrnCmpi
                0x000000004016eb32                SeStrCmpi
                0x000000004016ebe2                SeToLower
                0x000000004016ebf6                SeStrCheckLen
                0x000000004016ec32                SeStrCheckSize
                0x000000004016ec50                SeStrLen
                0x000000004016ec77                SeStrSize
                0x000000004016ec8f                SeStrCpy
                0x000000004016ed5a                SeStrCat
                0x000000004016edfc                SeStrUpper
                0x000000004016ee3c                SeStrLower
                0x000000004016ee7c                SeToInt64
                0x000000004016eed2                SeToInt
                0x000000004016ef20                SeToStr64
                0x000000004016efe7                SeToStr
                0x000000004016f0a1                SeToHex
                0x000000004016f155                SeToHex64
                0x000000004016f209                SeHexToInt
                0x000000004016f291                SeHexToInt64
                0x000000004016f31b                SeTrimLeft
                0x000000004016f3c8                SeTrimRight
                0x000000004016f4da                SeTrim
                0x000000004016f4ff                SeCopyStr
                0x000000004016f554                SeTrimCopy
                0x000000004016f581                SeUniqueToken
                0x000000004016f6db                SeSearchStrEx
                0x000000004016f82f                SeSearchStri
                0x000000004016f83f                SeSearchStr
                0x000000004016f84f                SeCalcReplaceStrEx
                0x000000004016f90a                SeReplaceStrEx
                0x000000004016fa5f                SeReplaceStr
                0x000000004016fa70                SeReplaceStri
                0x000000004016fa81                SeTrimCrlf
                0x000000004016fac8                SeStartWith
                0x000000004016fb6e                SeEndWith
                0x000000004016fbd7                SeIsEmptyStr
                0x000000004016fc21                SeNormalizeCrlf
                0x000000004016fcb4                SeIsCharInStr
                0x000000004016fd0c                SeParseToken
                0x000000004016fea7                SeParseTokenWithNullStr
                0x0000000040170004                SeToStr3
                0x0000000040170152                SeIsAllUpperStr
                0x00000000401701c4                SeIsAllLowerStr
                0x0000000040170236                SeFormatEx
                0x0000000040170749                SeFormatArgs
                0x00000000401707a9                SeFormat
                0x00000000401707df                SeBinToStr
                0x0000000040170886                SeBinToStrEx
                0x000000004017092f                SeMacToStr
                0x0000000040170980                SeStrToBin
                0x0000000040170a6f                SeStrToBinEx
                0x0000000040170ae2                SeStrToMac
                0x0000000040170af5                SeReadNextLine
                0x0000000040170bc0                SeVpnRecvIpV6PacketCallback
                0x0000000040170c10                SeVpnRecvIpV4PacketCallback
                0x0000000040170c60                SeVpnInitIpStack
                0x0000000040170fc2                SeVpnFreeIpStack
                0x0000000040171062                SeVpnMainInit
                0x000000004017117b                SeVpnMainFree
                0x000000004017119f                SeVpnRecvEtherPacket
                0x0000000040171206                SeVpnSendEtherPacket
                0x000000004017122b                SeVpnMainProcRecvEtherPacket
                0x00000000401712da                SeVpnStatusChanged
                0x00000000401712ec                SeVpnMainProcess
                0x00000000401713ea                SeVpnMainHandler
                0x0000000040171437                SeVpnEthRecvCallback
                0x000000004017144f                SeVpnTimerCallback
                0x0000000040171467                SeVpnTick
                0x000000004017147b                SeVpnAddTimer
                0x000000004017148f                SeVpnDoInterval
                0x00000000401714ff                SeVpnFreeConfig
                0x000000004017150f                SeVpnFree
                0x0000000040171560                SeVpnLoadConfig
                0x00000000401728be                SeVpnInit
                0x00000000401729e0                SeVpn4ClientSetTimerCallback
                0x00000000401729f3                SeVpn4ClientSetRecvUdpCallback
                0x0000000040172a06                SeVpn4ClientSetRecvEspCallback
                0x0000000040172a19                SeVpn4ClientSetRecvVirtualIpCallback
                0x0000000040172a2c                SeVpn4ClientSendVirtualIp
                0x0000000040172a6b                SeVpn4ClientSendEsp
                0x0000000040172aeb                SeVpn4ClientSendUdp
                0x0000000040172b76                SeVpn4IPsecSendPing
                0x0000000040172cbe                SeVpn4IPsecInputFromPhysical
                0x0000000040172d89                SeVpn4IPsecInputFromVirtual
                0x0000000040172dfd                SeVpn4FreeIPsec
                0x0000000040172e11                SeVpn4InitSecConfig
                0x0000000040172ff2                SeVpn4InitIPsec
                0x00000000401730c3                SeVpn4DoInterval
                0x00000000401730db                SeVpn4Tick
                0x00000000401730f3                SeVpn4ClientGetTick
                0x0000000040173108                SeVpn4IPsecMainProc
                0x0000000040173190                SeVpn4MainProc
                0x00000000401731ab                SeVpn4SetTimer
                0x00000000401731be                SeVpn4ClientAddTimer
                0x00000000401731d6                SeVpn4DhcpSendResponse
                0x00000000401732eb                SeVpn4DhcpOptionsToBuf
                0x00000000401733a9                SeVpn4NewDhcpOption
                0x0000000040173410                SeVpn4DhcpBuildDhcpOptionList
                0x00000000401735ee                SeVpn4DhcpSearchOption
                0x000000004017362a                SeVpn4DhcpFreeOptionList
                0x0000000040173680                SeVpn4DhcpParseOptionListMain
                0x000000004017376e                SeVpn4DhcpParseOptionList
                0x0000000040173861                SeVpn4DhcpServer
                0x0000000040173b2c                SeVpn4RecvPacketPhysical
                0x0000000040173c01                SeVpn4RecvPacketVirtual
                0x0000000040173d63                SeVpn4Init
                0x0000000040173dc8                SeVpn4Free
                0x0000000040173e00                SeVpn6ClientSetTimerCallback
                0x0000000040173e13                SeVpn6ClientSetRecvUdpCallback
                0x0000000040173e26                SeVpn6ClientSetRecvEspCallback
                0x0000000040173e39                SeVpn6ClientSetRecvVirtualIpCallback
                0x0000000040173e4c                SeVpn6ClientSendVirtualIp
                0x0000000040173e8b                SeVpn6ClientSendEsp
                0x0000000040173f2b                SeVpn6ClientSendUdp
                0x0000000040173fe0                SeVpn6IPsecSendPing
                0x00000000401741c6                SeVpn6UpdateGuestOsIpAddress
                0x000000004017429a                SeVpn6IPsecInputFromPhysical
                0x0000000040174365                SeVpn6IPsecInputFromVirtual
                0x0000000040174399                SeVpn6InitSecConfig
                0x000000004017458b                SeVpn6InitIPsec
                0x000000004017466c                SeVpn6FreeIPsec
                0x0000000040174680                SeVpn6DoInterval
                0x0000000040174698                SeVpn6Tick
                0x00000000401746b0                SeVpn6ClientGetTick
                0x00000000401746c5                SeVpn6IPsecMainProc
                0x0000000040174755                SeVpn6MainProc
                0x0000000040174770                SeVpn6SetTimer
                0x0000000040174783                SeVpn6ClientAddTimer
                0x000000004017479b                SeVpn6RecvPacketPhysical
                0x000000004017481d                SeVpn6RecvPacketVirtual
                0x0000000040174954                SeVpn6Init
                0x00000000401749ca                SeVpn6Free
                0x0000000040174a00                crypt_sys_rsa_sign
                0x0000000040174d95                msg_usb_bulk_read
                0x0000000040174df5                msg_usb_bulk_write
                0x0000000040174e55                msg_usb_claim_interface
                0x0000000040174e9b                msg_usb_close
                0x0000000040174ef5                msg_usb_control_msg
                0x0000000040174f6a                msg_usb_find_busses
                0x0000000040174fa8                msg_usb_find_devices
                0x0000000040174fe6                msg_usb_get_busses
                0x000000004017504d                msg_usb_get_string_simple
                0x00000000401750a9                msg_usb_init
                0x00000000401750be                msg_usb_open
                0x0000000040175137                msg_usb_release_interface
                0x000000004017517d                msg_usb_reset
                0x00000000401751c0                IDMan_StReadSetData
                0x00000000401758a5                idman_user_init
                0x0000000040175900                IDMan_IPIdPassListMalloc
                0x00000000401759eb                IDMan_IPRetJudgment
                0x0000000040175a67                IDMan_IPFinalizeReader
                0x0000000040175a89                IDMan_IPFinalize
                0x0000000040175adf                IDMan_IPInitialize
                0x0000000040175be8                IDMan_IPInitializeReader
                0x0000000040175c15                IDMan_getMemoryFree
                0x0000000040175c5d                IDMan_PaddingParamChk
                0x0000000040175d22                IDMan_CmPadding
                0x0000000040175ede                IDMan_CmPadding2
                0x000000004017605a                IDMan_IPgetCertPKCS
                0x0000000040176752                IDMan_IPgetCertIdxPKCS
                0x0000000040176c25                IDMan_IPCheckPKC
                0x0000000040176e4e                IDMan_CheckCardStatus
                0x0000000040176e80                IDMan_IPgSParamChk
                0x0000000040176fb0                IDMan_IPgIdxSParamChk
                0x0000000040176fe8                IDMan_IPgetPrivateKey
                0x00000000401771db                IDMan_IPgetHash
                0x00000000401772d2                IDMan_IPCrSignature
                0x000000004017743a                IDMan_generateSignature
                0x0000000040177574                IDMan_generateSignatureByIndex
                0x000000004017769b                IDMan_EncryptByIndex
                0x00000000401777c4                IDMan_IPgCParamChk
                0x00000000401778b6                IDMan_getCertificate
                0x0000000040177bd8                IDMan_IPgCIndexParamChk
                0x0000000040177c11                IDMan_getCertificateByIndex
                0x0000000040177fa8                IDMan_getStaticPassword
                0x00000000401782c0                IDMan_IPuAPKCS11ParamChk
                0x00000000401783c1                IDMan_IPuAPKCS11IdxParamChk
                0x00000000401783e8                IDMan_IPgetCertPkeyPKCSx
                0x00000000401788ab                IDMan_IPgetCertPkeyIdxPKCSx
                0x0000000040178cd4                IDMan_IPgetCertPkeyPKCSy
                0x0000000040178e22                IDMan_IPCheckCrlPkcX
                0x0000000040178f5f                IDMan_IPgetMakeRandData
                0x0000000040178fd7                IDMan_IPMkRandHash
                0x0000000040179094                IDMan_IPgetPrivateKeyPKCSx
                0x0000000040179267                IDMan_IPSignatureVerify
                0x00000000401793e0                IDMan_userAuthPKCS11
                0x0000000040179865                IDMan_userAuthPKCS11ByIndex
                0x0000000040179cf0                IDMan_IPvSParamChk
                0x0000000040179e6e                IDMan_IPvSIdxParamChk
                0x0000000040179ed1                IDMan_IPMkPublicKeyObj
                0x000000004017a015                IDMan_IPCheckSignature
                0x000000004017a1cf                IDMan_verifySignature
                0x000000004017a3ac                IDMan_verifySignatureByIndex
                0x000000004017a570                CardEstablishContext
                0x000000004017a588                CardReleaseContext
                0x000000004017a5b9                CardListReaders
                0x000000004017a5d1                CardConnect
                0x000000004017a60f                CardDisconnect
                0x000000004017a62c                CardStatus
                0x000000004017a67d                CardTransmit
                0x000000004017a6b9                SelectFileDF
                0x000000004017a7ac                SelectFileEF
                0x000000004017a897                Verify
                0x000000004017a9ab                InternalAuth
                0x000000004017aaef                ReadBinary
                0x000000004017b0df                UpdateBinary
                0x000000004017b209                GetICCardData
                0x000000004017b5f0                GetUlByTxt
                0x000000004017b62f                GetVerByTex
                0x000000004017b717                GetUlByByte
                0x000000004017b75c                TransHex2Tex
                0x000000004017b7ef                TransTex2Hex
                0x000000004017b8a6                GetLength
                0x000000004017b913                SetLength
                0x000000004017b978                GetTlvByBuf
                0x000000004017bcf5                GetDirDataByTlv
                0x000000004017be1a                GetOdfDataByTlv
                0x000000004017bf8d                GetTokenDataByTlv
                0x000000004017c3f3                AddObjTblByTlv
                0x000000004017ca97                AddCertDataByBuf
                0x000000004017cb9d                AddIdPassDataByBuf
                0x000000004017cf3d                GetValueData
                0x000000004017d2e0                AddElem
                0x000000004017d37e                SetElem
                0x000000004017d445                GetElem
                0x000000004017d481                GetAttrValType
                0x000000004017d5f5                DestroyAttribute
                0x000000004017d63f                DestroyTlvData
                0x000000004017d654                DestroyElem
                0x000000004017d6da                DestroyList
                0x000000004017d717                DestroySessionData
                0x000000004017d755                DestroyTokenData
                0x000000004017d7b5                DestroySlotData
                0x000000004017d7f1                DelElem
                0x000000004017d860                C_GetFunctionList
                0x000000004017d872                C_Initialize
                0x000000004017d9df                C_Finalize
                0x000000004017da7a                C_GetInfo
                0x000000004017db00                C_GetSlotList
                0x000000004017e3e4                C_GetSlotInfo
                0x000000004017e4cc                C_GetTokenInfo
                0x000000004017ed03                C_GetMechanismList
                0x000000004017edd4                C_GetMechanismInfo
                0x000000004017ee90                C_OpenSession
                0x000000004017f04b                C_CloseSession
                0x000000004017f124                C_CloseAllSessions
                0x000000004017f230                C_GetSessionInfo
                0x000000004017f2ac                C_Login
                0x000000004017f703                C_Logout
                0x000000004017f81a                C_FindObjectsInit
                0x000000004017fa91                C_FindObjects
                0x000000004017ffea                C_FindObjectsFinal
                0x0000000040180060                C_GetAttributeValue
                0x0000000040180381                C_SignInit
                0x0000000040180448                C_Sign
                0x00000000401807cf                C_DigestInit
                0x000000004018084a                C_DigestUpdate
                0x00000000401808d2                C_DigestFinal
                0x0000000040180a19                C_VerifyInit
                0x0000000040180ae0                C_Verify
                0x0000000040180c52                C_CreateObject
                0x0000000040180eff                C_DestroyObject
                0x0000000040180fbf                C_SetAttributeValue
                0x0000000040181bc9                C_GetCardStatus
                0x0000000040181c60                IDMan_StFree
                0x0000000040181c70                IDMan_StMemcpy
                0x0000000040181c94                IDMan_StMemset
                0x0000000040181cb2                IDMan_StMalloc
                0x0000000040181cf9                IDMan_StMemcmp
                0x0000000040181d52                IDMan_StStrlen
                0x0000000040181d6c                IDMan_StStrcat
                0x0000000040181da9                IDMan_StStrchr
                0x0000000040181de6                IDMan_StStrcpy
                0x0000000040181e0d                IDMan_StStrcmp
                0x0000000040181e58                StIsspace
                0x0000000040181ed5                StIsdigit
                0x0000000040181ee7                IDMan_StAtoi
                0x0000000040181f43                IDMan_StAtol
                0x0000000040181fab                IDMan_CmMkHash
                0x0000000040182166                IDMan_CmChgRSA
                0x000000004018232f                IDMan_CmGetDN
                0x00000000401825d6                IDMan_CmGetCertificateSign
                0x0000000040182800                IDMan_CmGetPublicKey
                0x00000000401829dc                IDMan_CmMakeRand
                0x0000000040182a7a                IDMan_CmCheckCRL
                0x0000000040182e00                IDMan_SCardEstablishContext
                0x0000000040182e1d                IDMan_SCardReleaseContext
                0x0000000040182e28                IDMan_SCardListReaders
                0x0000000040182e58                IDMan_SCardConnect
                0x0000000040182e88                IDMan_SCardDisconnect
                0x0000000040182e93                IDMan_SCardStatus
                0x0000000040182f15                IDMan_SCardSizeLongToChar
                0x0000000040182f56                IDMan_SCardSetBinay
                0x00000000401832f5                IDMan_SCardTransmit
                0x0000000040183360                EHDestroyEventHandler
                0x00000000401833cd                EHInitEventHandler
                0x0000000040183483                EHStatusHandler
                0x0000000040183620                HPSearchHotPluggables
                0x0000000040183970                PHGetProtocol
                0x0000000040183d4b                PHSetProtocol
                0x0000000040183db4                RFAddReader
                0x0000000040183ecf                RFRemoveReader
                0x0000000040183f89                RFReaderInfoById
                0x0000000040183fb9                RFCheckReaderEventState
                0x0000000040183ff0                SCardEstablishContext
                0x00000000401840e0                SCardListReaders
                0x000000004018418d                SCardConnect
                0x0000000040184411                SCardDisconnect
                0x00000000401845c2                SCardBeginTransaction
                0x0000000040184616                SCardEndTransaction
                0x00000000401847de                SCardStatus
                0x00000000401849e9                SCardReleaseContext
                0x0000000040184aaf                SCardTransmit
                0x0000000040184d00                SetATR
                0x0000000040184f6d                GetIFSCData
                0x0000000040184fc3                GetBWICWIData
                0x0000000040185061                IFDHCloseChannel
                0x00000000401850ed                IFDHGetCapabilities
                0x000000004018512c                IFDHSetProtocolParameters
                0x000000004018582b                IFDHPowerICC
                0x0000000040185a2a                IFDHTransmitToICC
                0x0000000040185cea                IFDHControl
                0x0000000040185e03                IFDHICCPresence
                0x0000000040185eb8                IFDHCreateChannel
                0x0000000040185f6c                FindBaudRateTable
                0x0000000040185fac                ExchangePPSData
                0x0000000040186696                InitLeaderCardProtocol
                0x00000000401867af                T1XfrBlockTPDU
                0x0000000040186e1c                T1NegociateIFSD
                0x0000000040186f64                CardStateConfirm
                0x0000000040186f99                GetCardStatus
                0x0000000040187090                PowerOn
                0x0000000040187250                PowerOff
                0x00000000401873b8                CardMechanical
                0x00000000401874d0                TransmitPPS
                0x000000004018766a                TransmitCommand
                0x0000000040187737                ReceiveReply
                0x00000000401878fc                BlockSendCardT1
                0x0000000040187b54                ReadDataT0
                0x0000000040187c19                T0XfrBlockCHAR
                0x000000004018819f                T0XfrBlockTPDU
                0x0000000040188221                T1XfrBlockExtendedAPDU
                0x000000004018859b                OpenUSB
                0x0000000040188935                WriteUSB
                0x0000000040188966                ReadUSB
                0x00000000401889c4                CloseUSB
                0x0000000040188a34                AES_set_encrypt_key
                0x0000000040188e40                AES_set_decrypt_key
                0x0000000040189066                AES_encrypt
                0x000000004018951f                AES_decrypt
                0x00000000401899c0                BIO_set
                0x0000000040189a95                BIO_new
                0x0000000040189b0e                BIO_free
                0x0000000040189bbd                BIO_vfree
                0x0000000040189bc8                BIO_clear_flags
                0x0000000040189bd3                BIO_test_flags
                0x0000000040189bde                BIO_set_flags
                0x0000000040189be7                BIO_get_callback
                0x0000000040189bf1                BIO_set_callback
                0x0000000040189bfb                BIO_set_callback_arg
                0x0000000040189c05                BIO_get_callback_arg
                0x0000000040189c0f                BIO_method_name
                0x0000000040189c1c                BIO_method_type
                0x0000000040189c27                BIO_read
                0x0000000040189d22                BIO_write
                0x0000000040189e26                BIO_puts
                0x0000000040189f18                BIO_gets
                0x000000004018a008                BIO_indent
                0x000000004018a04d                BIO_ctrl
                0x000000004018a123                BIO_ptr_ctrl
                0x000000004018a14e                BIO_int_ctrl
                0x000000004018a164                BIO_callback_ctrl
                0x000000004018a230                BIO_ctrl_pending
                0x000000004018a24a                BIO_ctrl_wpending
                0x000000004018a264                BIO_push
                0x000000004018a2b2                BIO_pop
                0x000000004018a317                BIO_get_retry_BIO
                0x000000004018a366                BIO_get_retry_reason
                0x000000004018a36f                BIO_find_type
                0x000000004018a3a4                BIO_next
                0x000000004018a3ba                BIO_free_all
                0x000000004018a3e8                BIO_dup_chain
                0x000000004018a4d7                BIO_copy_next_retry
                0x000000004018a504                BIO_get_ex_new_index
                0x000000004018a523                BIO_set_ex_data
                0x000000004018a532                BIO_get_ex_data
                0x000000004018a541                BIO_number_read
                0x000000004018a555                BIO_number_written
                0x000000004018a6bf                BN_set_params
                0x000000004018a752                BN_get_params
                0x000000004018a787                BN_value_one
                0x000000004018a792                BN_options
                0x000000004018a7d4                BN_num_bits_word
                0x000000004018a82f                BN_num_bits
                0x000000004018a859                BN_clear_free
                0x000000004018a8c0                BN_free
                0x000000004018a909                BN_init
                0x000000004018a91e                BN_new
                0x000000004018a991                bn_expand2
                0x000000004018a9e9                BN_copy
                0x000000004018aad7                BN_dup
                0x000000004018ab2b                bn_dup_expand
                0x000000004018abad                BN_swap
                0x000000004018ac10                BN_clear
                0x000000004018ac49                BN_get_word
                0x000000004018ac6b                BN_set_word
                0x000000004018acce                BN_bin2bn
                0x000000004018ae11                BN_bn2bin
                0x000000004018ae7f                BN_ucmp
                0x000000004018aecc                BN_cmp
                0x000000004018af80                BN_set_bit
                0x000000004018b045                BN_clear_bit
                0x000000004018b0c3                BN_is_bit_set
                0x000000004018b100                BN_mask_bits
                0x000000004018b19c                BN_set_negative
                0x000000004018b1bc                bn_cmp_words
                0x000000004018b21e                bn_cmp_part_words
                0x000000004018b2b0                BN_bn2hex
                0x000000004018b396                BN_bn2dec
                0x000000004018b5a5                BN_hex2bn
                0x000000004018b782                BN_dec2bn
                0x000000004018b933                BN_asc2bn
                0x000000004018b9a3                BN_print
                0x000000004018be87                BN_pseudo_rand
                0x000000004018bea1                BN_rand
                0x000000004018bebb                BN_bntest_rand
                0x000000004018bed5                BN_rand_range
                0x000000004018beeb                BN_pseudo_rand_range
                0x000000004018bf10                BN_mod_word
                0x000000004018bf65                BN_div_word
                0x000000004018c04b                BN_sub_word
                0x000000004018c14a                BN_add_word
                0x000000004018c21d                BN_mul_word
                0x000000004018c704                BIO_s_mem
                0x000000004018c70f                BIO_new_mem_buf
                0x000000004018c788                BUF_MEM_new
                0x000000004018c7ef                BUF_MEM_free
                0x000000004018c82f                BUF_MEM_grow
                0x000000004018c929                BUF_MEM_grow_clean
                0x000000004018ca3f                BUF_memdup
                0x000000004018cab4                BUF_strlcpy
                0x000000004018cb18                BUF_strndup
                0x000000004018cb97                BUF_strdup
                0x000000004018cbc3                BUF_strlcat
                0x000000004018cbfd                BUF_reverse
                0x000000004018cc54                OpenSSL_add_all_ciphers
                0x000000004018d100                OpenSSL_add_all_digests
                0x000000004018d270                CRYPTO_get_new_lockid
                0x000000004018d328                CRYPTO_num_locks
                0x000000004018d333                CRYPTO_get_dynlock_create_callback
                0x000000004018d340                CRYPTO_get_dynlock_lock_callback
                0x000000004018d34d                CRYPTO_get_dynlock_destroy_callback
                0x000000004018d35a                CRYPTO_set_dynlock_create_callback
                0x000000004018d367                CRYPTO_set_dynlock_lock_callback
                0x000000004018d374                CRYPTO_set_dynlock_destroy_callback
                0x000000004018d381                CRYPTO_get_locking_callback
                0x000000004018d38e                CRYPTO_get_add_lock_callback
                0x000000004018d39b                CRYPTO_set_locking_callback
                0x000000004018d3a8                CRYPTO_set_add_lock_callback
                0x000000004018d3b5                CRYPTO_THREADID_set_numeric
                0x000000004018d3e8                CRYPTO_THREADID_set_pointer
                0x000000004018d41e                CRYPTO_THREADID_set_callback
                0x000000004018d43c                CRYPTO_THREADID_get_callback
                0x000000004018d449                CRYPTO_THREADID_current
                0x000000004018d493                CRYPTO_THREADID_cmp
                0x000000004018d4a3                CRYPTO_THREADID_cpy
                0x000000004018d4b3                CRYPTO_THREADID_hash
                0x000000004018d4bd                CRYPTO_get_id_callback
                0x000000004018d4ca                CRYPTO_set_id_callback
                0x000000004018d4d7                CRYPTO_thread_id
                0x000000004018d4f0                CRYPTO_get_lock_name
                0x000000004018d543                OPENSSL_ia32cap_loc
                0x000000004018d54e                OPENSSL_cpuid_setup
                0x000000004018d554                OPENSSL_showfatal
                0x000000004018d59f                OPENSSL_isservice
                0x000000004018d5aa                OpenSSLDie
                0x000000004018d5cc                CRYPTO_lock
                0x000000004018d663                CRYPTO_add_lock
                0x000000004018d6e7                CRYPTO_get_dynlock_value
                0x000000004018d786                CRYPTO_destroy_dynlockid
                0x000000004018d87e                CRYPTO_get_new_dynlockid
                0x000000004018da9a                OPENSSL_stderr
                0x000000004018daa8                DES_encrypt1
                0x000000004018deb6                DES_encrypt2
                0x000000004018e1c1                DES_encrypt3
                0x000000004018e31e                DES_decrypt3
                0x000000004018e47e                DES_ncbc_encrypt
                0x000000004018eabb                DES_ede3_cbc_encrypt
                0x000000004018f516                DH_generate_key
                0x000000004018f526                DH_compute_key
                0x000000004018f536                DH_OpenSSL
                0x000000004018f544                DH_set_default_method
                0x000000004018f551                DH_get_default_method
                0x000000004018f574                DH_set_method
                0x000000004018f5c1                DH_new_method
                0x000000004018f6d7                DH_new
                0x000000004018f6e7                DH_free
                0x000000004018f7c7                DH_up_ref
                0x000000004018f7f4                DH_get_ex_new_index
                0x000000004018f813                DH_set_ex_data
                0x000000004018f822                DH_get_ex_data
                0x000000004018f831                DH_size
                0x000000004019053a                EVP_aes_128_cbc
                0x0000000040190545                EVP_aes_128_cfb128
                0x0000000040190550                EVP_aes_128_ofb
                0x000000004019055b                EVP_aes_128_ecb
                0x0000000040190566                EVP_aes_192_cbc
                0x0000000040190571                EVP_aes_192_cfb128
                0x000000004019057c                EVP_aes_192_ofb
                0x0000000040190587                EVP_aes_192_ecb
                0x0000000040190592                EVP_aes_256_cbc
                0x000000004019059d                EVP_aes_256_cfb128
                0x00000000401905a8                EVP_aes_256_ofb
                0x00000000401905b3                EVP_aes_256_ecb
                0x00000000401905be                EVP_aes_128_cfb1
                0x00000000401905c9                EVP_aes_192_cfb1
                0x00000000401905d4                EVP_aes_256_cfb1
                0x00000000401905df                EVP_aes_128_cfb8
                0x00000000401905ea                EVP_aes_192_cfb8
                0x00000000401905f5                EVP_aes_256_cfb8
                0x0000000040190916                EVP_bf_cbc
                0x0000000040190921                EVP_bf_cfb64
                0x000000004019092c                EVP_bf_ofb
                0x0000000040190937                EVP_bf_ecb
                0x0000000040190c5a                EVP_cast5_cbc
                0x0000000040190c65                EVP_cast5_cfb64
                0x0000000040190c70                EVP_cast5_ofb
                0x0000000040190c7b                EVP_cast5_ecb
                0x000000004019123b                EVP_des_cbc
                0x0000000040191246                EVP_des_cfb64
                0x0000000040191251                EVP_des_ofb
                0x000000004019125c                EVP_des_ecb
                0x0000000040191267                EVP_des_cfb1
                0x0000000040191272                EVP_des_cfb8
                0x00000000401918a6                EVP_des_ede_cbc
                0x00000000401918b1                EVP_des_ede_cfb64
                0x00000000401918bc                EVP_des_ede_ofb
                0x00000000401918c7                EVP_des_ede_ecb
                0x00000000401918d2                EVP_des_ede3_cbc
                0x00000000401918dd                EVP_des_ede3_cfb64
                0x00000000401918e8                EVP_des_ede3_ofb
                0x00000000401918f3                EVP_des_ede3_ecb
                0x00000000401918fe                EVP_des_ede3_cfb1
                0x0000000040191909                EVP_des_ede3_cfb8
                0x0000000040191914                EVP_des_ede
                0x000000004019191f                EVP_des_ede3
                0x0000000040191ca7                EVP_idea_cbc
                0x0000000040191cb2                EVP_idea_cfb64
                0x0000000040191cbd                EVP_idea_ofb
                0x0000000040191cc8                EVP_idea_ecb
                0x000000004019220f                EVP_rc2_cbc
                0x000000004019221a                EVP_rc2_cfb64
                0x0000000040192225                EVP_rc2_ofb
                0x0000000040192230                EVP_rc2_ecb
                0x000000004019223b                EVP_rc2_64_cbc
                0x0000000040192246                EVP_rc2_40_cbc
                0x00000000401922a9                EVP_rc4
                0x00000000401922b4                EVP_rc4_40
                0x000000004019242a                EVP_desx_cbc
                0x0000000040192438                DES_ecb3_encrypt
                0x0000000040192508                DES_options
                0x000000004019255c                DES_ecb_encrypt
                0x0000000040192d24                ERR_get_implementation
                0x0000000040192d36                ERR_set_implementation
                0x0000000040192d9f                ERR_load_ERR_strings
                0x0000000040192ed1                ERR_load_strings
                0x0000000040192f01                ERR_unload_strings
                0x0000000040192f53                ERR_free_strings
                0x0000000040192f68                ERR_get_string_table
                0x0000000040192f81                ERR_get_err_state_table
                0x0000000040192f9b                ERR_release_err_state_table
                0x0000000040192fc0                ERR_lib_error_string
                0x0000000040193000                ERR_func_error_string
                0x0000000040193040                ERR_reason_error_string
                0x00000000401930af                ERR_error_string_n
                0x0000000040193227                ERR_error_string
                0x0000000040193256                ERR_remove_thread_state
                0x000000004019329b                ERR_remove_state
                0x00000000401932ab                ERR_get_state
                0x00000000401935a3                ERR_peek_last_error_line_data
                0x00000000401935c4                ERR_peek_last_error_line
                0x00000000401935eb                ERR_peek_last_error
                0x0000000040193616                ERR_peek_error_line_data
                0x0000000040193637                ERR_peek_error_line
                0x000000004019365e                ERR_peek_error
                0x0000000040193689                ERR_get_error_line_data
                0x00000000401936aa                ERR_get_error_line
                0x00000000401936d1                ERR_get_error
                0x00000000401936fc                ERR_clear_error
                0x00000000401937b7                ERR_put_error
                0x00000000401938bf                ERR_get_next_error_library
                0x00000000401938d4                ERR_set_error_data
                0x0000000040193951                ERR_add_error_data
                0x0000000040193a8e                ERR_set_mark
                0x0000000040193ab9                ERR_pop_to_mark
                0x0000000040193b90                ERR_load_crypto_strings
                0x0000000040193c2c                ASN1_TYPE_set_octetstring
                0x0000000040193ca4                ASN1_TYPE_get_octetstring
                0x0000000040193d00                ASN1_TYPE_set_int_octetstring
                0x0000000040193e2d                ASN1_TYPE_get_int_octetstring
                0x0000000040194020                EVP_CIPHER_CTX_init
                0x0000000040194035                EVP_CIPHER_CTX_new
                0x000000004019406c                EVP_EncryptUpdate
                0x0000000040194218                EVP_EncryptFinal_ex
                0x00000000401942ec                EVP_EncryptFinal
                0x00000000401942f7                EVP_DecryptUpdate
                0x0000000040194426                EVP_CipherUpdate
                0x0000000040194441                EVP_DecryptFinal_ex
                0x00000000401945dc                EVP_DecryptFinal
                0x00000000401945e7                EVP_CipherFinal
                0x0000000040194607                EVP_CipherFinal_ex
                0x0000000040194627                EVP_CIPHER_CTX_cleanup
                0x0000000040194692                EVP_CIPHER_CTX_free
                0x00000000401946b7                EVP_CIPHER_CTX_set_padding
                0x00000000401946d8                EVP_CIPHER_CTX_ctrl
                0x0000000040194768                EVP_CIPHER_CTX_set_key_length
                0x00000000401947c9                EVP_CipherInit_ex
                0x0000000040194a1a                EVP_DecryptInit_ex
                0x0000000040194a2b                EVP_EncryptInit_ex
                0x0000000040194a3c                EVP_CipherInit
                0x0000000040194aa0                EVP_DecryptInit
                0x0000000040194ab1                EVP_EncryptInit
                0x0000000040194ac2                EVP_CIPHER_CTX_rand_key
                0x0000000040194af8                EVP_CIPHER_CTX_copy
                0x0000000040194bd8                ERR_load_EVP_strings
                0x0000000040194c10                EVP_CIPHER_param_to_asn1
                0x0000000040194c2b                EVP_CIPHER_asn1_to_param
                0x0000000040194c46                EVP_CIPHER_block_size
                0x0000000040194c4f                EVP_CIPHER_CTX_block_size
                0x0000000040194c5b                EVP_Cipher
                0x0000000040194c69                EVP_CIPHER_CTX_cipher
                0x0000000040194c72                EVP_CIPHER_flags
                0x0000000040194c7c                EVP_CIPHER_CTX_flags
                0x0000000040194c89                EVP_CIPHER_CTX_get_app_data
                0x0000000040194c93                EVP_CIPHER_CTX_set_app_data
                0x0000000040194c9d                EVP_CIPHER_iv_length
                0x0000000040194ca6                EVP_CIPHER_CTX_iv_length
                0x0000000040194cb2                EVP_CIPHER_set_asn1_iv
                0x0000000040194d14                EVP_CIPHER_get_asn1_iv
                0x0000000040194dac                EVP_CIPHER_key_length
                0x0000000040194db5                EVP_CIPHER_CTX_key_length
                0x0000000040194dbe                EVP_CIPHER_nid
                0x0000000040194dc6                EVP_CIPHER_type
                0x0000000040194f05                EVP_CIPHER_CTX_nid
                0x0000000040194f10                EVP_MD_block_size
                0x0000000040194f19                EVP_MD_type
                0x0000000040194f21                EVP_MD_pkey_type
                0x0000000040194f2a                EVP_MD_size
                0x0000000040194f5c                EVP_MD_flags
                0x0000000040194f66                EVP_MD_CTX_md
                0x0000000040194f7b                EVP_MD_CTX_set_flags
                0x0000000040194f88                EVP_MD_CTX_clear_flags
                0x0000000040194f97                EVP_MD_CTX_test_flags
                0x0000000040194fa2                EVP_CIPHER_CTX_set_flags
                0x0000000040194faf                EVP_CIPHER_CTX_clear_flags
                0x0000000040194fbe                EVP_CIPHER_CTX_test_flags
                0x00000000401953d9                CRYPTO_get_ex_data_implementation
                0x00000000401953f5                CRYPTO_set_ex_data_implementation
                0x000000004019545e                CRYPTO_ex_data_new_class
                0x000000004019547c                CRYPTO_cleanup_all_ex_data
                0x000000004019549b                CRYPTO_get_ex_new_index
                0x000000004019550a                CRYPTO_new_ex_data
                0x0000000040195557                CRYPTO_dup_ex_data
                0x00000000401955a4                CRYPTO_free_ex_data
                0x00000000401955f1                CRYPTO_set_ex_data
                0x00000000401956aa                CRYPTO_get_ex_data
                0x0000000040195ba4                idea_encrypt
                0x00000000401964e8                idea_cbc_encrypt
                0x0000000040196b10                idea_cfb64_encrypt
                0x0000000040196d30                idea_options
                0x0000000040196d3b                idea_ecb_encrypt
                0x0000000040196df4                idea_ofb64_encrypt
                0x000000004019702d                idea_set_encrypt_key
                0x00000000401971b6                idea_set_decrypt_key
                0x00000000401973ad                lh_strhash
                0x0000000040197420                lh_new
                0x0000000040197581                lh_free
                0x00000000401975ec                lh_insert
                0x0000000040197778                lh_delete
                0x00000000401978a4                lh_retrieve
                0x00000000401978e7                lh_doall
                0x0000000040197905                lh_doall_arg
                0x0000000040197920                lh_num_items
                0x0000000040197967                EVP_dss
                0x00000000401979a7                EVP_dss1
                0x00000000401979e7                EVP_ecdsa
                0x0000000040197a27                EVP_md4
                0x0000000040197a67                EVP_md5
                0x0000000040197aa7                EVP_ripemd160
                0x0000000040197ae7                EVP_sha
                0x0000000040197bab                EVP_sha1
                0x0000000040197bb6                EVP_sha224
                0x0000000040197bc1                EVP_sha256
                0x0000000040197bcc                EVP_sha384
                0x0000000040197bd7                EVP_sha512
                0x0000000040197be4                MD4_Init
                0x0000000040197c26                md4_block_data_order
                0x00000000401981e9                MD4_Final
                0x00000000401982b6                MD4_Transform
                0x00000000401982c6                MD4_Update
                0x0000000040198408                MD5_Init
                0x000000004019844a                md5_block_data_order
                0x0000000040198c8a                MD5_Final
                0x0000000040198d57                MD5_Transform
                0x0000000040198d67                MD5_Update
                0x0000000040198ea8                MD5
                0x0000000040198f44                CRYPTO_set_mem_functions
                0x0000000040198fb4                CRYPTO_set_mem_ex_functions
                0x0000000040199024                CRYPTO_set_locked_mem_functions
                0x0000000040199064                CRYPTO_set_locked_mem_ex_functions
                0x00000000401990a4                CRYPTO_set_mem_debug_functions
                0x00000000401990dd                CRYPTO_get_mem_functions
                0x0000000040199132                CRYPTO_get_mem_ex_functions
                0x0000000040199183                CRYPTO_get_locked_mem_functions
                0x00000000401991b8                CRYPTO_get_locked_mem_ex_functions
                0x00000000401991eb                CRYPTO_get_mem_debug_functions
                0x000000004019923c                CRYPTO_malloc_locked
                0x00000000401992f8                CRYPTO_free_locked
                0x000000004019933f                CRYPTO_malloc
                0x00000000401993fb                CRYPTO_strdup
                0x000000004019944a                CRYPTO_realloc
                0x0000000040199505                CRYPTO_realloc_clean
                0x00000000401995e0                CRYPTO_free
                0x0000000040199627                CRYPTO_remalloc
                0x0000000040199654                CRYPTO_set_mem_debug_options
                0x0000000040199668                CRYPTO_get_mem_debug_options
                0x0000000040199684                OPENSSL_cleanse
                0x0000000040199afc                CRYPTO_mem_ctrl
                0x0000000040199c86                CRYPTO_is_mem_check_on
                0x0000000040199d02                CRYPTO_dbg_set_options
                0x0000000040199d0f                CRYPTO_dbg_get_options
                0x0000000040199d1c                CRYPTO_push_info_
                0x0000000040199dfb                CRYPTO_pop_info
                0x0000000040199e3d                CRYPTO_remove_all_info
                0x0000000040199e80                CRYPTO_dbg_malloc
                0x000000004019a01f                CRYPTO_dbg_free
                0x000000004019a094                CRYPTO_dbg_realloc
                0x000000004019a134                CRYPTO_mem_leaks
                0x000000004019a253                CRYPTO_mem_leaks_cb
                0x000000004019a32e                EVP_add_cipher
                0x000000004019a37a                EVP_add_digest
                0x000000004019a41b                EVP_get_cipherbyname
                0x000000004019a42b                EVP_get_digestbyname
                0x000000004019a43b                EVP_cleanup
                0x000000004019a481                EVP_CIPHER_do_all
                0x000000004019a4a6                EVP_CIPHER_do_all_sorted
                0x000000004019a4cb                EVP_MD_do_all
                0x000000004019a4f0                EVP_MD_do_all_sorted
                0x000000004019a624                OBJ_NAME_init
                0x000000004019a671                OBJ_NAME_new_index
                0x000000004019a7d9                OBJ_NAME_get
                0x000000004019a87c                OBJ_NAME_add
                0x000000004019a963                OBJ_NAME_remove
                0x000000004019aa0e                OBJ_NAME_do_all
                0x000000004019aa38                OBJ_NAME_do_all_sorted
                0x000000004019aadb                OBJ_NAME_cleanup
                0x000000004019adaa                check_defer
                0x000000004019adcb                OBJ_cleanup
                0x000000004019ae3d                OBJ_new_nid
                0x000000004019ae51                OBJ_add_object
                0x000000004019b003                OBJ_nid2obj
                0x000000004019b0bf                OBJ_nid2sn
                0x000000004019b17e                OBJ_nid2ln
                0x000000004019b23e                OBJ_bsearch_ex_
                0x000000004019b337                OBJ_bsearch_
                0x000000004019b348                OBJ_sn2nid
                0x000000004019b3c4                OBJ_ln2nid
                0x000000004019b440                OBJ_txt2obj
                0x000000004019b548                OBJ_obj2nid
                0x000000004019b5d0                OBJ_txt2nid
                0x000000004019b60d                OBJ_obj2txt
                0x000000004019b960                OBJ_create
                0x000000004019ba65                OBJ_create_objects
                0x000000004019bbb8                ERR_load_OBJ_strings
                0x000000004019bbf0                OBJ_dup
                0x000000004019bdca                OBJ_cmp
                0x000000004019bde8                ERR_load_OCSP_strings
                0x000000004019be20                DES_ede3_ofb64_encrypt
                0x000000004019bff0                DES_ofb64_encrypt
                0x000000004019c311                EVP_PKEY_bits
                0x000000004019c335                EVP_PKEY_size
                0x000000004019c359                EVP_PKEY_save_parameters
                0x000000004019c38b                EVP_PKEY_missing_parameters
                0x000000004019c3aa                EVP_PKEY_copy_parameters
                0x000000004019c44a                EVP_PKEY_cmp_parameters
                0x000000004019c480                EVP_PKEY_cmp
                0x000000004019c4db                EVP_PKEY_new
                0x000000004019c566                EVP_PKEY_set_type
                0x000000004019c57b                EVP_PKEY_set_type_str
                0x000000004019c590                EVP_PKEY_assign
                0x000000004019c5cd                EVP_PKEY_get0
                0x000000004019c5d7                EVP_PKEY_set1_RSA
                0x000000004019c611                EVP_PKEY_get1_RSA
                0x000000004019c65c                EVP_PKEY_set1_DSA
                0x000000004019c696                EVP_PKEY_get1_DSA
                0x000000004019c6e1                EVP_PKEY_set1_EC_KEY
                0x000000004019c71b                EVP_PKEY_get1_EC_KEY
                0x000000004019c769                EVP_PKEY_set1_DH
                0x000000004019c7a3                EVP_PKEY_get1_DH
                0x000000004019c7ee                EVP_PKEY_type
                0x000000004019c811                EVP_PKEY_id
                0x000000004019c819                EVP_PKEY_base_id
                0x000000004019c826                EVP_PKEY_free
                0x000000004019c883                EVP_PKEY_print_public
                0x000000004019c8a9                EVP_PKEY_print_private
                0x000000004019c8d1                EVP_PKEY_print_params
                0x000000004019c8fa                EVP_PKEY_get_default_digest_nid
                0x000000004019c934                PEM_read_bio_X509_REQ
                0x000000004019c955                PEM_write_bio_X509_REQ
                0x000000004019c999                PEM_write_bio_X509_REQ_NEW
                0x000000004019c9dd                PEM_read_bio_X509_CRL
                0x000000004019c9fe                PEM_write_bio_X509_CRL
                0x000000004019ca42                PEM_read_bio_PKCS7
                0x000000004019ca63                PEM_write_bio_PKCS7
                0x000000004019caa7                PEM_read_bio_NETSCAPE_CERT_SEQUENCE
                0x000000004019cac8                PEM_write_bio_NETSCAPE_CERT_SEQUENCE
                0x000000004019cb0c                PEM_read_bio_RSAPrivateKey
                0x000000004019cb75                PEM_write_bio_RSAPrivateKey
                0x000000004019cbac                PEM_read_bio_RSAPublicKey
                0x000000004019cbcd                PEM_write_bio_RSAPublicKey
                0x000000004019cc11                PEM_read_bio_RSA_PUBKEY
                0x000000004019cc32                PEM_write_bio_RSA_PUBKEY
                0x000000004019cc76                PEM_read_bio_DSAPrivateKey
                0x000000004019ccdf                PEM_write_bio_DSAPrivateKey
                0x000000004019cd16                PEM_read_bio_DSA_PUBKEY
                0x000000004019cd37                PEM_write_bio_DSA_PUBKEY
                0x000000004019cd7b                PEM_read_bio_DSAparams
                0x000000004019cd9c                PEM_write_bio_DSAparams
                0x000000004019cde0                PEM_read_bio_ECPrivateKey
                0x000000004019ce49                PEM_read_bio_ECPKParameters
                0x000000004019ce6a                PEM_write_bio_ECPKParameters
                0x000000004019ceae                PEM_write_bio_ECPrivateKey
                0x000000004019cee5                PEM_read_bio_EC_PUBKEY
                0x000000004019cf06                PEM_write_bio_EC_PUBKEY
                0x000000004019cf4a                PEM_read_bio_DHparams
                0x000000004019cf6b                PEM_write_bio_DHparams
                0x000000004019cfaf                PEM_read_bio_PUBKEY
                0x000000004019cfd0                PEM_write_bio_PUBKEY
                0x000000004019d014                ERR_load_PEM_strings
                0x000000004019d050                PEM_def_callback
                0x000000004019d07a                PEM_proc_type
                0x000000004019d0e2                PEM_dek_info
                0x000000004019d1a1                PEM_do_header
                0x000000004019d37a                PEM_get_EVP_CIPHER_INFO
                0x000000004019d619                PEM_write_bio
                0x000000004019d8e8                PEM_ASN1_write_bio
                0x000000004019dd03                PEM_read_bio
                0x000000004019e3ec                pem_check_suffix
                0x000000004019e461                PEM_bytes_read_bio
                0x000000004019e7ac                PEM_ASN1_read_bio
                0x000000004019e858                PEM_read_bio_PrivateKey
                0x000000004019eab4                PEM_write_bio_PrivateKey
                0x000000004019eb80                PEM_read_bio_Parameters
                0x000000004019eca2                PEM_write_bio_Parameters
                0x000000004019ed24                PEM_read_bio_X509
                0x000000004019ed45                PEM_write_bio_X509
                0x000000004019ed8c                ERR_load_PKCS12_strings
                0x000000004019ee9a                d2i_PKCS7
                0x000000004019eeaa                i2d_PKCS7
                0x000000004019eeba                PKCS7_new
                0x000000004019eeca                PKCS7_free
                0x000000004019eeda                i2d_PKCS7_NDEF
                0x000000004019eeea                PKCS7_dup
                0x000000004019eefd                d2i_PKCS7_SIGNED
                0x000000004019ef0d                i2d_PKCS7_SIGNED
                0x000000004019ef1d                PKCS7_SIGNED_new
                0x000000004019ef2d                PKCS7_SIGNED_free
                0x000000004019ef3d                d2i_PKCS7_SIGNER_INFO
                0x000000004019ef4d                i2d_PKCS7_SIGNER_INFO
                0x000000004019ef5d                PKCS7_SIGNER_INFO_new
                0x000000004019ef6d                PKCS7_SIGNER_INFO_free
                0x000000004019ef7d                d2i_PKCS7_ISSUER_AND_SERIAL
                0x000000004019ef8d                i2d_PKCS7_ISSUER_AND_SERIAL
                0x000000004019ef9d                PKCS7_ISSUER_AND_SERIAL_new
                0x000000004019efad                PKCS7_ISSUER_AND_SERIAL_free
                0x000000004019efbd                d2i_PKCS7_ENVELOPE
                0x000000004019efcd                i2d_PKCS7_ENVELOPE
                0x000000004019efdd                PKCS7_ENVELOPE_new
                0x000000004019efed                PKCS7_ENVELOPE_free
                0x000000004019effd                d2i_PKCS7_RECIP_INFO
                0x000000004019f00d                i2d_PKCS7_RECIP_INFO
                0x000000004019f01d                PKCS7_RECIP_INFO_new
                0x000000004019f02d                PKCS7_RECIP_INFO_free
                0x000000004019f03d                d2i_PKCS7_ENC_CONTENT
                0x000000004019f04d                i2d_PKCS7_ENC_CONTENT
                0x000000004019f05d                PKCS7_ENC_CONTENT_new
                0x000000004019f06d                PKCS7_ENC_CONTENT_free
                0x000000004019f07d                d2i_PKCS7_SIGN_ENVELOPE
                0x000000004019f08d                i2d_PKCS7_SIGN_ENVELOPE
                0x000000004019f09d                PKCS7_SIGN_ENVELOPE_new
                0x000000004019f0ad                PKCS7_SIGN_ENVELOPE_free
                0x000000004019f0bd                d2i_PKCS7_ENCRYPT
                0x000000004019f0cd                i2d_PKCS7_ENCRYPT
                0x000000004019f0dd                PKCS7_ENCRYPT_new
                0x000000004019f0ed                PKCS7_ENCRYPT_free
                0x000000004019f0fd                d2i_PKCS7_DIGEST
                0x000000004019f10d                i2d_PKCS7_DIGEST
                0x000000004019f11d                PKCS7_DIGEST_new
                0x000000004019f12d                PKCS7_DIGEST_free
                0x000000004019f13d                PKCS7_print_ctx
                0x000000004019f6b9                PKCS7_dataInit
                0x000000004019fd8e                PKCS7_dataDecode
                0x00000000401a0435                PKCS7_SIGNER_INFO_sign
                0x00000000401a05fe                PKCS7_get_issuer_and_serial
                0x00000000401a066d                PKCS7_get_signed_attribute
                0x00000000401a067c                PKCS7_dataFinal
                0x00000000401a0c2e                PKCS7_get_attribute
                0x00000000401a0c3d                PKCS7_digest_from_attributes
                0x00000000401a0c5d                PKCS7_signatureVerify
                0x00000000401a0f64                PKCS7_dataVerify
                0x00000000401a10e2                PKCS7_set_signed_attributes
                0x00000000401a1175                PKCS7_set_attributes
                0x00000000401a1208                PKCS7_add_signed_attribute
                0x00000000401a1217                PKCS7_add_attribute
                0x00000000401a1230                PKCS7_ctrl
                0x00000000401a136c                PKCS7_set_content
                0x00000000401a13fd                PKCS7_set_type
                0x00000000401a160e                PKCS7_content_new
                0x00000000401a167a                PKCS7_set0_type_other
                0x00000000401a16ae                PKCS7_add_signer
                0x00000000401a180b                PKCS7_add_certificate
                0x00000000401a18ec                PKCS7_add_crl
                0x00000000401a19cc                PKCS7_SIGNER_INFO_set
                0x00000000401a1b3c                PKCS7_add_signature
                0x00000000401a1c10                PKCS7_set_digest
                0x00000000401a1cdc                PKCS7_get_signer_info
                0x00000000401a1d25                PKCS7_SIGNER_INFO_get0_algs
                0x00000000401a1d4f                PKCS7_RECIP_INFO_get0_alg
                0x00000000401a1d61                PKCS7_add_recipient_info
                0x00000000401a1dd0                PKCS7_RECIP_INFO_set
                0x00000000401a1f5b                PKCS7_add_recipient
                0x00000000401a1fc0                PKCS7_cert_from_signer_info
                0x00000000401a2012                PKCS7_set_cipher
                0x00000000401a20ac                PKCS7_stream
                0x00000000401a2178                ERR_load_PKCS7_strings
                0x00000000401a21b0                ERR_load_RAND_strings
                0x00000000401a21e8                DES_random_key
                0x00000000401a2230                RAND_set_rand_method
                0x00000000401a2242                RAND_get_rand_method
                0x00000000401a2265                RAND_cleanup
                0x00000000401a228a                RAND_seed
                0x00000000401a22c2                RAND_add
                0x00000000401a230b                RAND_bytes
                0x00000000401a2352                RAND_pseudo_bytes
                0x00000000401a2399                RAND_status
                0x00000000401a23bc                RC2_encrypt
                0x00000000401a251a                RC2_decrypt
                0x00000000401a2680                RC2_cbc_encrypt
                0x00000000401a2ca8                RC2_ecb_encrypt
                0x00000000401a2d70                RC2_set_key
                0x00000000401a2ea0                RC2_cfb64_encrypt
                0x00000000401a30b4                RC2_ofb64_encrypt
                0x00000000401a3268                RC4
                0x00000000401a3704                RC4_options
                0x00000000401a370f                RC4_set_key
                0x00000000401a3814                RIPEMD160_Init
                0x00000000401a385d                ripemd160_block_data_order
                0x00000000401a4eb2                RIPEMD160_Final
                0x00000000401a4f87                RIPEMD160_Transform
                0x00000000401a4f97                RIPEMD160_Update
                0x00000000401a5122                d2i_RSAPrivateKey
                0x00000000401a5132                i2d_RSAPrivateKey
                0x00000000401a5142                d2i_RSAPublicKey
                0x00000000401a5152                i2d_RSAPublicKey
                0x00000000401a5162                RSAPublicKey_dup
                0x00000000401a5175                RSAPrivateKey_dup
                0x00000000401a5190                RSA_generate_key
                0x00000000401a5250                ERR_load_RSA_strings
                0x00000000401a5290                RSA_generate_key_ex
                0x00000000401a5860                RSA_set_default_method
                0x00000000401a586d                RSA_get_default_method
                0x00000000401a5890                RSA_get_method
                0x00000000401a589a                RSA_set_method
                0x00000000401a58e1                RSA_new_method
                0x00000000401a5a2d                RSA_new
                0x00000000401a5a3d                RSA_free
                0x00000000401a5b4d                RSA_up_ref
                0x00000000401a5b7a                RSA_get_ex_new_index
                0x00000000401a5b99                RSA_set_ex_data
                0x00000000401a5ba8                RSA_get_ex_data
                0x00000000401a5bb7                RSA_size
                0x00000000401a5bd2                RSA_public_encrypt
                0x00000000401a5bdf                RSA_private_encrypt
                0x00000000401a5bec                RSA_private_decrypt
                0x00000000401a5bf9                RSA_public_decrypt
                0x00000000401a5c06                RSA_flags
                0x00000000401a5c1d                RSA_blinding_off
                0x00000000401a5c57                RSA_setup_blinding
                0x00000000401a5f00                RSA_blinding_on
                0x00000000401a5f5e                RSA_memory_lock
                0x00000000401a60b0                RSA_sign
                0x00000000401a6315                int_rsa_verify
                0x00000000401a66af                RSA_verify
                0x00000000401a66f0                DES_set_odd_parity
                0x00000000401a6713                DES_check_key_parity
                0x00000000401a6754                DES_is_weak_key
                0x00000000401a67a3                DES_set_key_unchecked
                0x00000000401a6a47                DES_set_key_checked
                0x00000000401a6a98                DES_set_key
                0x00000000401a6abc                DES_key_sched
                0x00000000401a6ac8                SHA1
                0x00000000401a7c7b                SHA1_Update
                0x00000000401a7dba                SHA1_Transform
                0x00000000401a7dca                SHA1_Final
                0x00000000401a7ead                SHA1_Init
                0x00000000401a9710                SHA224_Init
                0x00000000401a9775                SHA256_Init
                0x00000000401a97da                SHA256_Update
                0x00000000401a9919                SHA224_Update
                0x00000000401a9924                SHA256_Transform
                0x00000000401a9934                SHA256_Final
                0x00000000401a9a5e                SHA224_Final
                0x00000000401a9a69                SHA256
                0x00000000401a9ae4                SHA224
                0x00000000401ab355                SHA384_Init
                0x00000000401ab3f3                SHA512_Init
                0x00000000401ab491                SHA512_Final
                0x00000000401ab6f6                SHA384_Final
                0x00000000401ab701                SHA512_Update
                0x00000000401ab811                SHA384_Update
                0x00000000401ab81c                SHA512_Transform
                0x00000000401ab82c                SHA384
                0x00000000401ab8a7                SHA512
                0x00000000401ac8f7                SHA_Update
                0x00000000401aca36                SHA_Transform
                0x00000000401aca46                SHA_Final
                0x00000000401acb29                SHA_Init
                0x00000000401acb80                sk_set_cmp_func
                0x00000000401acb9a                sk_new
                0x00000000401acc37                sk_new_null
                0x00000000401acc47                sk_insert
                0x00000000401acd02                sk_delete
                0x00000000401acd5e                sk_delete_ptr
                0x00000000401acda4                sk_push
                0x00000000401acdb1                sk_unshift
                0x00000000401acdc1                sk_shift
                0x00000000401acde7                sk_pop
                0x00000000401ace0c                sk_zero
                0x00000000401ace41                sk_free
                0x00000000401ace6f                sk_pop_free
                0x00000000401acec1                sk_dup
                0x00000000401acf47                sk_num
                0x00000000401acf5b                sk_value
                0x00000000401acf8a                sk_set
                0x00000000401acfbe                sk_sort
                0x00000000401ad09c                sk_find_ex
                0x00000000401ad0ac                sk_find
                0x00000000401ad0bc                sk_is_sorted
                0x00000000401ad562                ASN1_tag2bit
                0x00000000401ad57d                asn1_ex_c2i
                0x00000000401addcd                ASN1_item_ex_d2i
                0x00000000401aecaa                ASN1_template_d2i
                0x00000000401aecc7                ASN1_item_d2i
                0x00000000401aed71                asn1_ex_i2c
                0x00000000401af03a                ASN1_item_ex_i2d
                0x00000000401af899                ASN1_template_i2d
                0x00000000401af975                ASN1_item_i2d
                0x00000000401af985                ASN1_item_ndef_i2d
                0x00000000401af9a0                ASN1_primitive_free
                0x00000000401afcc6                ASN1_template_free
                0x00000000401afd4a                ASN1_item_ex_free
                0x00000000401afd5a                ASN1_item_free
                0x00000000401afe42                ASN1_primitive_new
                0x00000000401b026c                ASN1_template_new
                0x00000000401b02f9                ASN1_item_ex_new
                0x00000000401b0309                ASN1_item_new
                0x00000000401b0338                d2i_ASN1_INTEGER
                0x00000000401b0348                i2d_ASN1_INTEGER
                0x00000000401b0358                ASN1_INTEGER_new
                0x00000000401b0368                ASN1_INTEGER_free
                0x00000000401b0378                d2i_ASN1_ENUMERATED
                0x00000000401b0388                i2d_ASN1_ENUMERATED
                0x00000000401b0398                ASN1_ENUMERATED_new
                0x00000000401b03a8                ASN1_ENUMERATED_free
                0x00000000401b03b8                d2i_ASN1_BIT_STRING
                0x00000000401b03c8                i2d_ASN1_BIT_STRING
                0x00000000401b03d8                ASN1_BIT_STRING_new
                0x00000000401b03e8                ASN1_BIT_STRING_free
                0x00000000401b03f8                d2i_ASN1_OCTET_STRING
                0x00000000401b0408                i2d_ASN1_OCTET_STRING
                0x00000000401b0418                ASN1_OCTET_STRING_new
                0x00000000401b0428                ASN1_OCTET_STRING_free
                0x00000000401b0438                d2i_ASN1_NULL
                0x00000000401b0448                i2d_ASN1_NULL
                0x00000000401b0458                ASN1_NULL_new
                0x00000000401b0468                ASN1_NULL_free
                0x00000000401b0478                d2i_ASN1_UTF8STRING
                0x00000000401b0488                i2d_ASN1_UTF8STRING
                0x00000000401b0498                ASN1_UTF8STRING_new
                0x00000000401b04a8                ASN1_UTF8STRING_free
                0x00000000401b04b8                d2i_ASN1_PRINTABLESTRING
                0x00000000401b04c8                i2d_ASN1_PRINTABLESTRING
                0x00000000401b04d8                ASN1_PRINTABLESTRING_new
                0x00000000401b04e8                ASN1_PRINTABLESTRING_free
                0x00000000401b04f8                d2i_ASN1_T61STRING
                0x00000000401b0508                i2d_ASN1_T61STRING
                0x00000000401b0518                ASN1_T61STRING_new
                0x00000000401b0528                ASN1_T61STRING_free
                0x00000000401b0538                d2i_ASN1_IA5STRING
                0x00000000401b0548                i2d_ASN1_IA5STRING
                0x00000000401b0558                ASN1_IA5STRING_new
                0x00000000401b0568                ASN1_IA5STRING_free
                0x00000000401b0578                d2i_ASN1_GENERALSTRING
                0x00000000401b0588                i2d_ASN1_GENERALSTRING
                0x00000000401b0598                ASN1_GENERALSTRING_new
                0x00000000401b05a8                ASN1_GENERALSTRING_free
                0x00000000401b05b8                d2i_ASN1_UTCTIME
                0x00000000401b05c8                i2d_ASN1_UTCTIME
                0x00000000401b05d8                ASN1_UTCTIME_new
                0x00000000401b05e8                ASN1_UTCTIME_free
                0x00000000401b05f8                d2i_ASN1_GENERALIZEDTIME
                0x00000000401b0608                i2d_ASN1_GENERALIZEDTIME
                0x00000000401b0618                ASN1_GENERALIZEDTIME_new
                0x00000000401b0628                ASN1_GENERALIZEDTIME_free
                0x00000000401b0638                d2i_ASN1_VISIBLESTRING
                0x00000000401b0648                i2d_ASN1_VISIBLESTRING
                0x00000000401b0658                ASN1_VISIBLESTRING_new
                0x00000000401b0668                ASN1_VISIBLESTRING_free
                0x00000000401b0678                d2i_ASN1_UNIVERSALSTRING
                0x00000000401b0688                i2d_ASN1_UNIVERSALSTRING
                0x00000000401b0698                ASN1_UNIVERSALSTRING_new
                0x00000000401b06a8                ASN1_UNIVERSALSTRING_free
                0x00000000401b06b8                d2i_ASN1_BMPSTRING
                0x00000000401b06c8                i2d_ASN1_BMPSTRING
                0x00000000401b06d8                ASN1_BMPSTRING_new
                0x00000000401b06e8                ASN1_BMPSTRING_free
                0x00000000401b06f8                d2i_ASN1_TYPE
                0x00000000401b0708                i2d_ASN1_TYPE
                0x00000000401b0718                ASN1_TYPE_new
                0x00000000401b0728                ASN1_TYPE_free
                0x00000000401b0738                d2i_ASN1_PRINTABLE
                0x00000000401b0748                i2d_ASN1_PRINTABLE
                0x00000000401b0758                ASN1_PRINTABLE_new
                0x00000000401b0768                ASN1_PRINTABLE_free
                0x00000000401b0778                d2i_DISPLAYTEXT
                0x00000000401b0788                i2d_DISPLAYTEXT
                0x00000000401b0798                DISPLAYTEXT_new
                0x00000000401b07a8                DISPLAYTEXT_free
                0x00000000401b07b8                d2i_DIRECTORYSTRING
                0x00000000401b07c8                i2d_DIRECTORYSTRING
                0x00000000401b07d8                DIRECTORYSTRING_new
                0x00000000401b07e8                DIRECTORYSTRING_free
                0x00000000401b07f8                d2i_ASN1_SEQUENCE_ANY
                0x00000000401b0808                i2d_ASN1_SEQUENCE_ANY
                0x00000000401b0818                d2i_ASN1_SET_ANY
                0x00000000401b0828                i2d_ASN1_SET_ANY
                0x00000000401b0883                asn1_get_choice_selector
                0x00000000401b0893                asn1_set_choice_selector
                0x00000000401b08a7                asn1_do_lock
                0x00000000401b0901                asn1_enc_init
                0x00000000401b0927                asn1_enc_free
                0x00000000401b0967                asn1_enc_save
                0x00000000401b09f1                asn1_enc_restore
                0x00000000401b0a6b                asn1_get_field_ptr
                0x00000000401b0a83                asn1_do_adb
                0x00000000401b0b40                ERR_load_UI_strings
                0x00000000401b0b78                ERR_load_X509V3_strings
                0x00000000401b0bb0                X509_issuer_and_serial_hash
                0x00000000401b0c7f                X509_CRL_match
                0x00000000401b0c97                X509_get_issuer_name
                0x00000000401b0ca4                X509_get_subject_name
                0x00000000401b0cb1                X509_get_serialNumber
                0x00000000401b0cbe                X509_cmp
                0x00000000401b0d18                X509_NAME_cmp
                0x00000000401b0d91                X509_CRL_cmp
                0x00000000401b0daa                X509_subject_name_cmp
                0x00000000401b0dc3                X509_issuer_name_cmp
                0x00000000401b0ddc                X509_issuer_and_serial_cmp
                0x00000000401b0e1c                X509_NAME_hash
                0x00000000401b0e82                X509_subject_name_hash
                0x00000000401b0e94                X509_issuer_name_hash
                0x00000000401b0ea6                X509_NAME_hash_old
                0x00000000401b0f0f                X509_subject_name_hash_old
                0x00000000401b0f21                X509_issuer_name_hash_old
                0x00000000401b0f33                X509_find_by_issuer_and_serial
                0x00000000401b0fb6                X509_find_by_subject
                0x00000000401b1013                X509_get_pubkey
                0x00000000401b103b                X509_get0_pubkey_bitstr
                0x00000000401b1058                X509_check_private_key
                0x00000000401b1114                ERR_load_X509_strings
                0x00000000401b114c                X509_NAME_oneline
                0x00000000401b198a                X509_time_adj_ex
                0x00000000401b19d7                X509_time_adj
                0x00000000401b19ed                X509_gmtime_adj
                0x00000000401b19fd                X509_cmp_time
                0x00000000401b2ac2                X509_cmp_current_time
                0x00000000401b2ad2                X509_get_pubkey_parameters
                0x00000000401b2bfe                X509_verify_cert
                0x00000000401b3591                X509_STORE_CTX_get_ex_new_index
                0x00000000401b35b0                X509_STORE_CTX_set_ex_data
                0x00000000401b35c2                X509_STORE_CTX_get_ex_data
                0x00000000401b35d4                X509_STORE_CTX_get_error
                0x00000000401b35e0                X509_STORE_CTX_set_error
                0x00000000401b35ec                X509_STORE_CTX_get_error_depth
                0x00000000401b35f8                X509_STORE_CTX_get_current_cert
                0x00000000401b3605                X509_STORE_CTX_get_chain
                0x00000000401b3612                X509_STORE_CTX_get1_chain
                0x00000000401b367e                X509_STORE_CTX_get0_current_issuer
                0x00000000401b368b                X509_STORE_CTX_get0_current_crl
                0x00000000401b3698                X509_STORE_CTX_get0_parent_ctx
                0x00000000401b36a5                X509_STORE_CTX_set_cert
                0x00000000401b36af                X509_STORE_CTX_set_chain
                0x00000000401b36b9                X509_STORE_CTX_set0_crls
                0x00000000401b36c3                X509_STORE_CTX_purpose_inherit
                0x00000000401b37f0                X509_STORE_CTX_set_trust
                0x00000000401b3807                X509_STORE_CTX_set_purpose
                0x00000000401b381e                X509_STORE_CTX_new
                0x00000000401b3880                X509_STORE_CTX_init
                0x00000000401b3bdf                X509_STORE_CTX_trusted_stack
                0x00000000401b3bf1                X509_STORE_CTX_cleanup
                0x00000000401b3c94                X509_STORE_CTX_free
                0x00000000401b3cb4                X509_STORE_CTX_set_depth
                0x00000000401b3cc3                X509_STORE_CTX_set_flags
                0x00000000401b3cd2                X509_STORE_CTX_set_time
                0x00000000401b3ce3                X509_STORE_CTX_set_verify_cb
                0x00000000401b3ced                X509_STORE_CTX_get0_policy_tree
                0x00000000401b3cfa                X509_STORE_CTX_get_explicit_policy
                0x00000000401b3d06                X509_STORE_CTX_set_default
                0x00000000401b3d37                X509_STORE_CTX_get0_param
                0x00000000401b3d41                X509_STORE_CTX_set0_param
                0x00000000401b4137                X509_VERIFY_PARAM_free
                0x00000000401b4157                X509_VERIFY_PARAM_new
                0x00000000401b419b                X509_VERIFY_PARAM_set1_name
                0x00000000401b41dc                X509_VERIFY_PARAM_set_flags
                0x00000000401b4200                X509_VERIFY_PARAM_clear_flags
                0x00000000401b4212                X509_VERIFY_PARAM_get_flags
                0x00000000401b421c                X509_VERIFY_PARAM_set_purpose
                0x00000000401b422b                X509_VERIFY_PARAM_set_trust
                0x00000000401b423a                X509_VERIFY_PARAM_set_depth
                0x00000000401b4243                X509_VERIFY_PARAM_set_time
                0x00000000401b4251                X509_VERIFY_PARAM_add0_policy
                0x00000000401b42a2                X509_VERIFY_PARAM_set1_policies
                0x00000000401b4369                X509_VERIFY_PARAM_inherit
                0x00000000401b447f                X509_VERIFY_PARAM_set1
                0x00000000401b44b4                X509_VERIFY_PARAM_get_depth
                0x00000000401b44bd                X509_VERIFY_PARAM_add0_table
                0x00000000401b4544                X509_VERIFY_PARAM_lookup
                0x00000000401b459a                X509_VERIFY_PARAM_table_cleanup
                0x00000000401b45c4                d2i_X509_ALGOR
                0x00000000401b45d4                i2d_X509_ALGOR
                0x00000000401b45e4                X509_ALGOR_new
                0x00000000401b45f4                X509_ALGOR_free
                0x00000000401b4604                d2i_X509_ALGORS
                0x00000000401b4614                i2d_X509_ALGORS
                0x00000000401b4624                X509_ALGOR_dup
                0x00000000401b4637                X509_ALGOR_set0
                0x00000000401b46e9                X509_ALGOR_get0
                0x00000000401b4724                X509_verify
                0x00000000401b4745                X509_REQ_verify
                0x00000000401b4766                NETSCAPE_SPKI_verify
                0x00000000401b4787                X509_sign
                0x00000000401b47c1                X509_REQ_sign
                0x00000000401b47ef                X509_CRL_sign
                0x00000000401b4829                NETSCAPE_SPKI_sign
                0x00000000401b4857                d2i_X509_bio
                0x00000000401b486d                i2d_X509_bio
                0x00000000401b4883                d2i_X509_CRL_bio
                0x00000000401b4899                i2d_X509_CRL_bio
                0x00000000401b48af                d2i_PKCS7_bio
                0x00000000401b48c5                i2d_PKCS7_bio
                0x00000000401b48db                d2i_X509_REQ_bio
                0x00000000401b48f1                i2d_X509_REQ_bio
                0x00000000401b4907                d2i_RSAPrivateKey_bio
                0x00000000401b491d                i2d_RSAPrivateKey_bio
                0x00000000401b4933                d2i_RSAPublicKey_bio
                0x00000000401b4949                d2i_RSA_PUBKEY_bio
                0x00000000401b4964                i2d_RSAPublicKey_bio
                0x00000000401b497a                i2d_RSA_PUBKEY_bio
                0x00000000401b4990                d2i_DSAPrivateKey_bio
                0x00000000401b49ab                i2d_DSAPrivateKey_bio
                0x00000000401b49c1                d2i_DSA_PUBKEY_bio
                0x00000000401b49dc                i2d_DSA_PUBKEY_bio
                0x00000000401b49f2                d2i_EC_PUBKEY_bio
                0x00000000401b4a0d                i2d_EC_PUBKEY_bio
                0x00000000401b4a23                d2i_ECPrivateKey_bio
                0x00000000401b4a3e                i2d_ECPrivateKey_bio
                0x00000000401b4a54                X509_pubkey_digest
                0x00000000401b4aac                X509_digest
                0x00000000401b4ac5                X509_CRL_digest
                0x00000000401b4ade                X509_REQ_digest
                0x00000000401b4af7                X509_NAME_digest
                0x00000000401b4b10                PKCS7_ISSUER_AND_SERIAL_digest
                0x00000000401b4b29                d2i_PKCS8_bio
                0x00000000401b4b44                i2d_PKCS8_bio
                0x00000000401b4b5a                d2i_PKCS8_PRIV_KEY_INFO_bio
                0x00000000401b4b75                i2d_PKCS8_PRIV_KEY_INFO_bio
                0x00000000401b4b8b                i2d_PKCS8PrivateKeyInfo_bio
                0x00000000401b4bdf                i2d_PrivateKey_bio
                0x00000000401b4bf5                d2i_PrivateKey_bio
                0x00000000401b4c10                i2d_PUBKEY_bio
                0x00000000401b4c26                d2i_PUBKEY_bio
                0x00000000401b4c44                d2i_X509_ATTRIBUTE
                0x00000000401b4c54                i2d_X509_ATTRIBUTE
                0x00000000401b4c64                X509_ATTRIBUTE_new
                0x00000000401b4c74                X509_ATTRIBUTE_free
                0x00000000401b4c84                X509_ATTRIBUTE_dup
                0x00000000401b4c97                X509_ATTRIBUTE_create
                0x00000000401b54ce                d2i_X509_REVOKED
                0x00000000401b54de                i2d_X509_REVOKED
                0x00000000401b54ee                X509_REVOKED_new
                0x00000000401b54fe                X509_REVOKED_free
                0x00000000401b550e                d2i_X509_CRL_INFO
                0x00000000401b551e                i2d_X509_CRL_INFO
                0x00000000401b552e                X509_CRL_INFO_new
                0x00000000401b553e                X509_CRL_INFO_free
                0x00000000401b554e                d2i_X509_CRL
                0x00000000401b555e                i2d_X509_CRL
                0x00000000401b556e                X509_CRL_new
                0x00000000401b557e                X509_CRL_free
                0x00000000401b558e                X509_CRL_dup
                0x00000000401b55a1                X509_CRL_add0_revoked
                0x00000000401b5622                X509_CRL_verify
                0x00000000401b563c                X509_CRL_get0_by_serial
                0x00000000401b565c                X509_CRL_get0_by_cert
                0x00000000401b56cb                X509_CRL_set_default_method
                0x00000000401b56e4                X509_CRL_METHOD_new
                0x00000000401b5749                X509_CRL_METHOD_free
                0x00000000401b5759                X509_CRL_set_meth_data
                0x00000000401b5763                X509_CRL_get_meth_data
                0x00000000401b5770                d2i_X509_EXTENSION
                0x00000000401b5780                i2d_X509_EXTENSION
                0x00000000401b5790                X509_EXTENSION_new
                0x00000000401b57a0                X509_EXTENSION_free
                0x00000000401b57b0                d2i_X509_EXTENSIONS
                0x00000000401b57c0                i2d_X509_EXTENSIONS
                0x00000000401b57d0                X509_EXTENSION_dup
                0x00000000401b5b6d                X509_NAME_ENTRY_free
                0x00000000401b5b7d                d2i_X509_NAME_ENTRY
                0x00000000401b5b8d                i2d_X509_NAME_ENTRY
                0x00000000401b5b9d                X509_NAME_ENTRY_new
                0x00000000401b60cc                X509_NAME_ENTRY_dup
                0x00000000401b60df                d2i_X509_NAME
                0x00000000401b60ef                i2d_X509_NAME
                0x00000000401b60ff                X509_NAME_new
                0x00000000401b610f                X509_NAME_free
                0x00000000401b62c1                X509_NAME_dup
                0x00000000401b62d4                X509_NAME_set
                0x00000000401b634c                d2i_X509_PUBKEY
                0x00000000401b635c                i2d_X509_PUBKEY
                0x00000000401b636c                X509_PUBKEY_new
                0x00000000401b637c                X509_PUBKEY_free
                0x00000000401b638c                X509_PUBKEY_set
                0x00000000401b647d                X509_PUBKEY_get
                0x00000000401b65dc                d2i_PUBKEY
                0x00000000401b6645                i2d_PUBKEY
                0x00000000401b669d                d2i_RSA_PUBKEY
                0x00000000401b6722                i2d_RSA_PUBKEY
                0x00000000401b67af                d2i_DSA_PUBKEY
                0x00000000401b6834                i2d_DSA_PUBKEY
                0x00000000401b68c1                d2i_EC_PUBKEY
                0x00000000401b6946                i2d_EC_PUBKEY
                0x00000000401b69d3                X509_PUBKEY_set0_param
                0x00000000401b6a50                X509_PUBKEY_get0_param
                0x00000000401b6abb                d2i_X509_REQ_INFO
                0x00000000401b6acb                i2d_X509_REQ_INFO
                0x00000000401b6adb                X509_REQ_INFO_new
                0x00000000401b6aeb                X509_REQ_INFO_free
                0x00000000401b6afb                d2i_X509_REQ
                0x00000000401b6b0b                i2d_X509_REQ
                0x00000000401b6b1b                X509_REQ_new
                0x00000000401b6b2b                X509_REQ_free
                0x00000000401b6b3b                X509_REQ_dup
                0x00000000401b6b50                d2i_X509_SIG
                0x00000000401b6b60                i2d_X509_SIG
                0x00000000401b6b70                X509_SIG_new
                0x00000000401b6b80                X509_SIG_free
                0x00000000401b6b90                d2i_NETSCAPE_SPKAC
                0x00000000401b6ba0                i2d_NETSCAPE_SPKAC
                0x00000000401b6bb0                NETSCAPE_SPKAC_new
                0x00000000401b6bc0                NETSCAPE_SPKAC_free
                0x00000000401b6bd0                d2i_NETSCAPE_SPKI
                0x00000000401b6be0                i2d_NETSCAPE_SPKI
                0x00000000401b6bf0                NETSCAPE_SPKI_new
                0x00000000401b6c00                NETSCAPE_SPKI_free
                0x00000000401b6d2c                d2i_X509_CINF
                0x00000000401b6d3c                i2d_X509_CINF
                0x00000000401b6d4c                X509_CINF_new
                0x00000000401b6d5c                X509_CINF_free
                0x00000000401b6d6c                d2i_X509
                0x00000000401b6d7c                i2d_X509
                0x00000000401b6d8c                X509_new
                0x00000000401b6d9c                X509_free
                0x00000000401b6dac                X509_dup
                0x00000000401b6dbf                X509_get_ex_new_index
                0x00000000401b6dde                X509_set_ex_data
                0x00000000401b6ded                X509_get_ex_data
                0x00000000401b6dfc                d2i_X509_AUX
                0x00000000401b6e6c                i2d_X509_AUX
                0x00000000401b6eb8                d2i_X509_CERT_AUX
                0x00000000401b6ec8                i2d_X509_CERT_AUX
                0x00000000401b6ed8                X509_CERT_AUX_new
                0x00000000401b6f30                X509_CERT_AUX_free
                0x00000000401b6f40                X509_alias_set1
                0x00000000401b6fe8                X509_keyid_set1
                0x00000000401b7090                X509_alias_get0
                0x00000000401b70d1                X509_keyid_get0
                0x00000000401b7112                X509_add1_trust_object
                0x00000000401b717f                X509_add1_reject_object
                0x00000000401b71e1                X509_trust_clear
                0x00000000401b7220                X509_reject_clear
                0x00000000401b7261                d2i_X509_CERT_PAIR
                0x00000000401b7271                i2d_X509_CERT_PAIR
                0x00000000401b7281                X509_CERT_PAIR_new
                0x00000000401b7291                X509_CERT_PAIR_free
                0x00000000401b72a4                DES_xcbc_encrypt
                0x00000000401b7a1c                ERR_load_TS_strings
                0x00000000401b7a54                ERR_load_CMS_strings
                0x00000000401b7ad6                OBJ_find_sigid_algs
                0x00000000401b7b5e                OBJ_find_sigid_by_algs
                0x00000000401b7be6                OBJ_add_sigid
                0x00000000401b7cf4                OBJ_sigid_free
                0x00000000401b7d6b                EVP_whirlpool
                0x00000000401b7d9b                EVP_PKEY_meth_find
                0x00000000401b7e14                EVP_PKEY_meth_new
                0x00000000401b7f32                EVP_PKEY_meth_free
                0x00000000401b7f48                EVP_PKEY_meth_add0
                0x00000000401b7fab                EVP_PKEY_CTX_free
                0x00000000401b7ffa                EVP_PKEY_CTX_dup
                0x00000000401b8230                EVP_PKEY_CTX_new_id
                0x00000000401b8242                EVP_PKEY_CTX_new
                0x00000000401b8252                EVP_PKEY_CTX_ctrl
                0x00000000401b834a                EVP_PKEY_CTX_ctrl_str
                0x00000000401b842f                EVP_PKEY_CTX_get_operation
                0x00000000401b8438                EVP_PKEY_CTX_set0_keygen_info
                0x00000000401b8445                EVP_PKEY_CTX_set_data
                0x00000000401b844f                EVP_PKEY_CTX_get_data
                0x00000000401b8459                EVP_PKEY_CTX_get0_pkey
                0x00000000401b8463                EVP_PKEY_CTX_get0_peerkey
                0x00000000401b846d                EVP_PKEY_CTX_set_app_data
                0x00000000401b8477                EVP_PKEY_CTX_get_app_data
                0x00000000401b8481                EVP_PKEY_meth_set_init
                0x00000000401b848b                EVP_PKEY_meth_set_copy
                0x00000000401b8495                EVP_PKEY_meth_set_cleanup
                0x00000000401b849f                EVP_PKEY_meth_set_paramgen
                0x00000000401b84ad                EVP_PKEY_meth_set_keygen
                0x00000000401b84bb                EVP_PKEY_meth_set_sign
                0x00000000401b84c9                EVP_PKEY_meth_set_verify
                0x00000000401b84d7                EVP_PKEY_meth_set_verify_recover
                0x00000000401b84e5                EVP_PKEY_meth_set_signctx
                0x00000000401b84f3                EVP_PKEY_meth_set_verifyctx
                0x00000000401b8507                EVP_PKEY_meth_set_encrypt
                0x00000000401b851b                EVP_PKEY_meth_set_decrypt
                0x00000000401b852f                EVP_PKEY_meth_set_derive
                0x00000000401b8543                EVP_PKEY_meth_set_ctrl
                0x00000000401b8573                EVP_PKEY_asn1_get_count
                0x00000000401b8592                EVP_PKEY_asn1_get0
                0x00000000401b85c2                EVP_PKEY_asn1_find
                0x00000000401b8665                EVP_PKEY_asn1_find_str
                0x00000000401b86ec                EVP_PKEY_asn1_add0
                0x00000000401b874f                EVP_PKEY_asn1_get0_info
                0x00000000401b87a1                EVP_PKEY_get0_asn1
                0x00000000401b87ab                EVP_PKEY_asn1_copy
                0x00000000401b8873                EVP_PKEY_asn1_free
                0x00000000401b88b5                EVP_PKEY_asn1_new
                0x00000000401b8a2a                EVP_PKEY_asn1_add_alias
                0x00000000401b8a67                EVP_PKEY_asn1_set_public
                0x00000000401b8a89                EVP_PKEY_asn1_set_private
                0x00000000401b8a9b                EVP_PKEY_asn1_set_param
                0x00000000401b8ac6                EVP_PKEY_asn1_set_free
                0x00000000401b8ad3                EVP_PKEY_asn1_set_ctrl
                0x00000000401b8ae0                EVP_PKEY_sign_init
                0x00000000401b8b4f                EVP_PKEY_sign
                0x00000000401b8c5b                EVP_PKEY_verify_init
                0x00000000401b8cca                EVP_PKEY_verify
                0x00000000401b8d3a                EVP_PKEY_verify_recover_init
                0x00000000401b8da9                EVP_PKEY_verify_recover
                0x00000000401b8eb5                EVP_PKEY_encrypt_init
                0x00000000401b8f2a                EVP_PKEY_encrypt
                0x00000000401b903f                EVP_PKEY_decrypt_init
                0x00000000401b90b4                EVP_PKEY_decrypt
                0x00000000401b91c9                EVP_PKEY_derive_init
                0x00000000401b923e                EVP_PKEY_derive_set_peer
                0x00000000401b9420                EVP_PKEY_derive
                0x00000000401b9636                ASN1_PCTX_new
                0x00000000401b96ad                ASN1_PCTX_free
                0x00000000401b96b8                ASN1_PCTX_get_flags
                0x00000000401b96c1                ASN1_PCTX_set_flags
                0x00000000401b96ca                ASN1_PCTX_get_nm_flags
                0x00000000401b96d4                ASN1_PCTX_set_nm_flags
                0x00000000401b96de                ASN1_PCTX_get_cert_flags
                0x00000000401b96e8                ASN1_PCTX_set_cert_flags
                0x00000000401b96f2                ASN1_PCTX_get_oid_flags
                0x00000000401b96fc                ASN1_PCTX_set_oid_flags
                0x00000000401b9706                ASN1_PCTX_get_str_flags
                0x00000000401b9710                ASN1_PCTX_set_str_flags
                0x00000000401b971a                asn1_template_print_ctx
                0x00000000401ba055                ASN1_item_print
                0x00000000401ba22f                EVP_DigestSignInit
                0x00000000401ba240                EVP_DigestVerifyInit
                0x00000000401ba251                EVP_DigestSignFinal
                0x00000000401ba390                EVP_DigestVerifyFinal
                0x00000000401ba470                WHIRLPOOL_Init
                0x00000000401ba48a                WHIRLPOOL_BitUpdate
                0x00000000401ba793                WHIRLPOOL_Update
                0x00000000401ba84f                WHIRLPOOL_Final
                0x00000000401ba956                WHIRLPOOL
                0x00000000401bdd69                DHparams_print
                0x00000000401bfd4c                whirlpool_block
                0x00000000401c08d9                EVP_PKEY_paramgen_init
                0x00000000401c0948                EVP_PKEY_paramgen
                0x00000000401c0a01                EVP_PKEY_keygen_init
                0x00000000401c0a70                EVP_PKEY_keygen
                0x00000000401c0b29                EVP_PKEY_CTX_set_cb
                0x00000000401c0b33                EVP_PKEY_CTX_get_cb
                0x00000000401c0b3d                evp_pkey_set_cb_translate
                0x00000000401c0b55                EVP_PKEY_CTX_get_keygen_info
                0x00000000401c0b7d                EVP_PKEY_new_mac_key
                0x00000000401c0d0c                CMS_SignedData_init
                0x00000000401c0d20                cms_set1_SignerIdentifier
                0x00000000401c0e40                cms_SignerIdentifier_get0_signer_id
                0x00000000401c0e97                cms_SignerIdentifier_cert_cmp
                0x00000000401c0f14                CMS_get0_SignerInfos
                0x00000000401c0f2f                CMS_get0_signers
                0x00000000401c0fb4                CMS_SignerInfo_set1_signer_cert
                0x00000000401c1015                CMS_SignerInfo_get0_signer_id
                0x00000000401c1024                CMS_SignerInfo_cert_cmp
                0x00000000401c1033                CMS_set1_signers_certs
                0x00000000401c1165                CMS_SignerInfo_get0_algs
                0x00000000401c119b                CMS_SignerInfo_sign
                0x00000000401c13ef                cms_SignedData_final
                0x00000000401c1610                CMS_SignerInfo_verify
                0x00000000401c173d                cms_SignedData_init_bio
                0x00000000401c190a                CMS_SignerInfo_verify_content
                0x00000000401c1abe                CMS_add_smimecap
                0x00000000401c1b1e                CMS_add_simple_smimecap
                0x00000000401c1c66                CMS_add_standard_smimecap
                0x00000000401c1da3                CMS_add1_signer
                0x00000000401c2304                CMS_get0_RecipientInfos
                0x00000000401c231f                CMS_RecipientInfo_type
                0x00000000401c2327                CMS_EnvelopedData_create
                0x00000000401c2432                CMS_add1_recipient_cert
                0x00000000401c2616                CMS_RecipientInfo_ktri_get0_algs
                0x00000000401c2679                CMS_RecipientInfo_ktri_get0_signer_id
                0x00000000401c26b7                CMS_RecipientInfo_ktri_cert_cmp
                0x00000000401c26f5                CMS_RecipientInfo_set0_pkey
                0x00000000401c2733                CMS_RecipientInfo_kekri_id_cmp
                0x00000000401c2792                CMS_add0_recipient_key
                0x00000000401c29e1                CMS_RecipientInfo_kekri_get0_id
                0x00000000401c2a87                CMS_RecipientInfo_set0_key
                0x00000000401c2ac9                CMS_RecipientInfo_decrypt
                0x00000000401c2e9f                cms_EnvelopedData_init_bio
                0x00000000401c331c                EC_KEY_print
                0x00000000401c3397                ECParameters_print
                0x00000000401c3409                ECPKParameters_print
                0x00000000401c402c                CMS_signed_get_attr_count
                0x00000000401c403b                CMS_signed_get_attr_by_NID
                0x00000000401c404a                CMS_signed_get_attr_by_OBJ
                0x00000000401c4059                CMS_signed_get_attr
                0x00000000401c4068                CMS_signed_delete_attr
                0x00000000401c4077                CMS_signed_add1_attr
                0x00000000401c408f                CMS_signed_add1_attr_by_OBJ
                0x00000000401c40a7                CMS_signed_add1_attr_by_NID
                0x00000000401c40bf                CMS_signed_add1_attr_by_txt
                0x00000000401c40d7                CMS_signed_get0_data_by_OBJ
                0x00000000401c40e6                CMS_unsigned_get_attr_count
                0x00000000401c40f5                CMS_unsigned_get_attr_by_NID
                0x00000000401c4104                CMS_unsigned_get_attr_by_OBJ
                0x00000000401c4113                CMS_unsigned_get_attr
                0x00000000401c4122                CMS_unsigned_delete_attr
                0x00000000401c4131                CMS_unsigned_add1_attr
                0x00000000401c4149                CMS_unsigned_add1_attr_by_OBJ
                0x00000000401c4161                CMS_unsigned_add1_attr_by_NID
                0x00000000401c4179                CMS_unsigned_add1_attr_by_txt
                0x00000000401c4191                CMS_unsigned_get0_data_by_OBJ
                0x00000000401c430e                d2i_CMS_ContentInfo
                0x00000000401c431e                i2d_CMS_ContentInfo
                0x00000000401c432e                CMS_ContentInfo_new
                0x00000000401c433e                CMS_ContentInfo_free
                0x00000000401c434e                CMS_ContentInfo_print_ctx
                0x00000000401c4361                CMS_get0_type
                0x00000000401c436a                CMS_get0_content
                0x00000000401c4445                CMS_dataFinal
                0x00000000401c45b9                cms_content_bio
                0x00000000401c4609                CMS_dataInit
                0x00000000401c470a                CMS_get0_eContentType
                0x00000000401c4724                CMS_set1_eContentType
                0x00000000401c477f                CMS_is_detached
                0x00000000401c47a0                CMS_set_detached
                0x00000000401c4836                cms_Data_create
                0x00000000401c4870                cms_DigestAlgorithm_set
                0x00000000401c48c1                cms_DigestAlgorithm_init_bio
                0x00000000401c4994                cms_DigestAlgorithm_find_ctx
                0x00000000401c4a74                CMS_add0_CertificateChoices
                0x00000000401c4ae5                CMS_add0_cert
                0x00000000401c4b8e                CMS_add1_cert
                0x00000000401c4bd7                CMS_add0_RevocationInfoChoice
                0x00000000401c4c48                CMS_add0_crl
                0x00000000401c4c79                CMS_add1_crl
                0x00000000401c4cc2                CMS_get1_certs
                0x00000000401c4d7f                CMS_get1_crls
                0x00000000401c4f70                cms_EncryptedContent_init_bio
                0x00000000401c5356                cms_EncryptedContent_init
                0x00000000401c53e2                CMS_EncryptedData_set1_key
                0x00000000401c54ec                cms_EncryptedData_init_bio
                0x00000000401c5518                AES_wrap_key
                0x00000000401c564f                AES_unwrap_key
                0x00000000401c57b0                cms_DigestedData_create
                0x00000000401c5847                cms_DigestedData_init_bio
                0x00000000401c585a                cms_DigestedData_do_final
                0x00000000401c5978                CMS_stream
                0x00000000401c59f4                d2i_CMS_bio
                0x00000000401c5a0a                i2d_CMS_bio
                0x00000000401c5a20                PEM_read_bio_CMS
                0x00000000401c5a41                PEM_write_bio_CMS
                0x00000000401c5a85                BIO_new_CMS
                0x00000000401c5a95                i2d_CMS_bio_stream
                0x00000000401c5aa6                PEM_write_bio_CMS_stream
                0x00000000401c5abd                SMIME_write_CMS
                0x00000000401c5b4d                SMIME_read_CMS
                0x00000000401c648b                SMIME_read_ASN1
                0x00000000401c68b0                SMIME_crlf_copy
                0x00000000401c69db                i2d_ASN1_bio_stream
                0x00000000401c6b73                SMIME_write_ASN1
                0x00000000401c7200                PEM_write_bio_ASN1_stream
                0x00000000401c7287                SMIME_text
                0x00000000401c75d5                BIO_new_NDEF
                0x00000000401c7df1                BIO_f_asn1
                0x00000000401c7dfc                BIO_asn1_set_prefix
                0x00000000401c7e12                BIO_asn1_get_prefix
                0x00000000401c7e28                BIO_asn1_set_suffix
                0x00000000401c7e3e                BIO_asn1_get_suffix
                0x00000000401c7e60                chelp_snprintf
                0x00000000401c7e9d                chelp_sprintf
                0x00000000401c7ee4                chelp_print
                0x00000000401c7efc                chelp_printf
                0x00000000401c7f64                chelp_mod_64_32_32
                0x00000000401c7f79                chelp_div_64_32_64
                0x00000000401c7f8c                chelp_div_64_32_32
                0x00000000401c7f97                chelp_mul_64_64_64
                0x00000000401c7fa4                BIO_printf
                0x00000000401c7fe1                BIO_snprintf
                0x00000000401c8017                chelp_abort
                0x00000000401c802a                RAND_poll
                0x00000000401c8049                InitCryptoLibrary
                0x00000000401c80c0                chelp_malloc
                0x00000000401c80d7                chelp_realloc
                0x00000000401c80fa                chelp_free
                0x00000000401c810a                chelp_swap
                0x00000000401c813e                chelp_qsort
                0x00000000401c8452                chelp_bsearch
                0x00000000401c8521                chelp_memchr
                0x00000000401c855a                chelp_memmove
                0x00000000401c85d9                chelp_memcmp
                0x00000000401c8648                chelp_memcpy
                0x00000000401c8674                chelp_memset
                0x00000000401c86a0                chelp_isupper
                0x00000000401c86b3                chelp_islower
                0x00000000401c86c6                chelp_toupper
                0x00000000401c86d2                chelp_tolower
                0x00000000401c86de                chelp_isspace
                0x00000000401c86fa                chelp_isdigit
                0x00000000401c870d                chelp_isxdigit
                0x00000000401c8735                chelp_isalpha
                0x00000000401c8752                chelp_isalnum
                0x00000000401c877b                chelp_strtoul_ex
                0x00000000401c894c                chelp_strtoul
                0x00000000401c895c                chelp_strtol
                0x00000000401c896c                chelp_strcpy
                0x00000000401c899a                chelp_strncpy
                0x00000000401c8a07                chelp_strcat
                0x00000000401c8a48                chelp_strcmp
                0x00000000401c8aa8                chelp_strncmp
                0x00000000401c8c2a                chelp_stricmp
                0x00000000401c8c69                chelp_strchr
                0x00000000401c8ca1                chelp_strrchr
                0x00000000401c8cd5                chelp_strlen
                0x00000000401c8cfc                chelp_strncasecmp
                0x00000000401c8d50                decryptcfg
                0x00000000401c8dd8                ASN1_BIT_STRING_set
                0x00000000401c8de3                i2c_ASN1_BIT_STRING
                0x00000000401c8ef0                c2i_ASN1_BIT_STRING
                0x00000000401c9069                ASN1_BIT_STRING_set_bit
                0x00000000401c91c8                ASN1_BIT_STRING_get_bit
                0x00000000401c9210                ASN1_BIT_STRING_check
                0x00000000401c9270                d2i_ASN1_type_bytes
                0x00000000401c9415                i2d_ASN1_bytes
                0x00000000401c94cc                d2i_ASN1_bytes
                0x00000000401c9b1b                ASN1_d2i_bio
                0x00000000401c9b8d                ASN1_item_d2i_bio
                0x00000000401c9c04                ASN1_digest
                0x00000000401c9ccb                ASN1_item_digest
                0x00000000401c9d48                ASN1_dup
                0x00000000401c9e03                ASN1_item_dup
                0x00000000401c9e8c                ASN1_ENUMERATED_set
                0x00000000401c9fa1                ASN1_ENUMERATED_get
                0x00000000401ca019                BN_to_ASN1_ENUMERATED
                0x00000000401ca120                ASN1_ENUMERATED_to_BN
                0x00000000401ca190                ASN1_GENERALIZEDTIME_check
                0x00000000401ca402                ASN1_GENERALIZEDTIME_set_string
                0x00000000401ca47f                ASN1_GENERALIZEDTIME_adj
                0x00000000401ca5db                ASN1_GENERALIZEDTIME_set
                0x00000000401ca5f0                ASN1_i2d_bio
                0x00000000401ca6ae                ASN1_item_i2d_bio
                0x00000000401ca750                ASN1_INTEGER_dup
                0x00000000401ca75b                ASN1_INTEGER_cmp
                0x00000000401ca79b                i2c_ASN1_INTEGER
                0x00000000401ca913                c2i_ASN1_INTEGER
                0x00000000401cab0f                d2i_ASN1_UINTEGER
                0x00000000401cac7e                ASN1_INTEGER_set
                0x00000000401cad93                ASN1_INTEGER_get
                0x00000000401cae0d                BN_to_ASN1_INTEGER
                0x00000000401caf25                ASN1_INTEGER_to_BN
                0x00000000401cafa0                i2d_ASN1_OBJECT
                0x00000000401cb037                a2d_ASN1_OBJECT
                0x00000000401cb53e                i2t_ASN1_OBJECT
                0x00000000401cb54e                i2a_ASN1_OBJECT
                0x00000000401cb634                ASN1_OBJECT_new
                0x00000000401cb6b0                ASN1_OBJECT_free
                0x00000000401cb729                c2i_ASN1_OBJECT
                0x00000000401cb8d4                d2i_ASN1_OBJECT
                0x00000000401cb960                ASN1_OBJECT_create
                0x00000000401cb98c                ASN1_OCTET_STRING_dup
                0x00000000401cb997                ASN1_OCTET_STRING_cmp
                0x00000000401cb9a2                ASN1_OCTET_STRING_set
                0x00000000401cb9b0                ASN1_sign
                0x00000000401cbc4e                ASN1_item_sign
                0x00000000401cc662                X509_NAME_print_ex
                0x00000000401ccb42                ASN1_STRING_print_ex
                0x00000000401ccb58                ASN1_STRING_to_UTF8
                0x00000000401ccbcc                d2i_ASN1_TIME
                0x00000000401ccbdc                i2d_ASN1_TIME
                0x00000000401ccbec                ASN1_TIME_new
                0x00000000401ccbfc                ASN1_TIME_free
                0x00000000401ccc0c                ASN1_TIME_adj
                0x00000000401ccccf                ASN1_TIME_set
                0x00000000401ccce4                ASN1_TIME_check
                0x00000000401ccd08                ASN1_TIME_to_generalizedtime
                0x00000000401ccdfb                ASN1_TIME_set_string
                0x00000000401cce7c                ASN1_TYPE_get
                0x00000000401cce95                ASN1_TYPE_set
                0x00000000401ccef6                ASN1_TYPE_set1
                0x00000000401ccf82                ASN1_TYPE_cmp
                0x00000000401ccfd0                ASN1_UTCTIME_check
                0x00000000401cd1f4                ASN1_UTCTIME_set_string
                0x00000000401cd271                ASN1_UTCTIME_adj
                0x00000000401cd3f9                ASN1_UTCTIME_set
                0x00000000401cd40e                ASN1_UTCTIME_cmp_time_t
                0x00000000401cd580                UTF8_getc
                0x00000000401cd90f                UTF8_putc
                0x00000000401cdb38                ASN1_verify
                0x00000000401cdca7                ASN1_item_verify
                0x00000000401cdea0                AES_cbc_encrypt
                0x00000000401cdec4                AES_cfb128_encrypt
                0x00000000401cdee2                AES_cfb1_encrypt
                0x00000000401cdf00                AES_cfb8_encrypt
                0x00000000401cdf20                AES_ecb_encrypt
                0x00000000401cdf38                AES_ofb128_encrypt
                0x00000000401cdf50                ERR_load_ASN1_strings
                0x00000000401cdfbf                ASN1_check_infinite_end
                0x00000000401cdfca                ASN1_const_check_infinite_end
                0x00000000401ce02e                ASN1_get_object
                0x00000000401ce1f0                ASN1_put_object
                0x00000000401ce2f2                ASN1_put_eoc
                0x00000000401ce30e                ASN1_object_size
                0x00000000401ce34a                asn1_Finish
                0x00000000401ce355                asn1_const_Finish
                0x00000000401ce360                asn1_GetSequence
                0x00000000401ce40e                ASN1_STRING_set
                0x00000000401ce510                ASN1_STRING_copy
                0x00000000401ce561                ASN1_STRING_set0
                0x00000000401ce5a1                ASN1_STRING_type_new
                0x00000000401ce618                ASN1_STRING_new
                0x00000000401ce628                ASN1_STRING_free
                0x00000000401ce65c                ASN1_STRING_dup
                0x00000000401ce6af                ASN1_STRING_cmp
                0x00000000401ce6f0                asn1_add_error
                0x00000000401ce758                ASN1_STRING_length
                0x00000000401ce760                ASN1_STRING_length_set
                0x00000000401ce768                ASN1_STRING_type
                0x00000000401ce771                ASN1_STRING_data
                0x00000000401ce780                ASN1_tag2str
                0x00000000401cf35f                ASN1_parse_dump
                0x00000000401cf388                ASN1_parse
                0x00000000401cf3ca                BIO_dump_indent_cb
                0x00000000401cf7de                BIO_dump_cb
                0x00000000401cf7ef                BIO_dump
                0x00000000401cf807                BIO_dump_indent
                0x00000000401d01dc                BIO_f_buffer
                0x00000000401d01f0                BF_cfb64_encrypt
                0x00000000401d03d8                BF_options
                0x00000000401d03e3                BF_ecb_encrypt
                0x00000000401d0494                BF_encrypt
                0x00000000401d0855                BF_decrypt
                0x00000000401d0c16                BF_cbc_encrypt
                0x00000000401d11a8                BF_ofb64_encrypt
                0x00000000401d1338                BF_set_key
                0x00000000401d2161                BIO_f_base64
                0x00000000401d2860                BIO_f_cipher
                0x00000000401d286b                BIO_set_cipher
                0x00000000401d2920                ERR_load_BIO_strings
                0x00000000401d2cda                BIO_f_md
                0x00000000401d2cf0                BN_uadd
                0x00000000401d2e34                BN_usub
                0x00000000401d302e                BN_add
                0x00000000401d30d9                BN_sub
                0x00000000401d31ec                bn_mul_add_words
                0x00000000401d3454                bn_mul_words
                0x00000000401d36a0                bn_sqr_words
                0x00000000401d37f3                bn_div_words
                0x00000000401d3943                bn_add_words
                0x00000000401d3a2f                bn_sub_words
                0x00000000401d3b39                bn_mul_comba8
                0x00000000401d53de                bn_mul_comba4
                0x00000000401d59fd                bn_sqr_comba8
                0x00000000401d6a47                bn_sqr_comba4
                0x00000000401d6e40                BN_BLINDING_free
                0x00000000401d6e97                BN_BLINDING_new
                0x00000000401d6f82                BN_BLINDING_invert_ex
                0x00000000401d6fe5                BN_BLINDING_invert
                0x00000000401d6ffb                BN_BLINDING_get_thread_id
                0x00000000401d7005                BN_BLINDING_set_thread_id
                0x00000000401d700f                BN_BLINDING_thread_id
                0x00000000401d7019                BN_BLINDING_get_flags
                0x00000000401d7023                BN_BLINDING_set_flags
                0x00000000401d702d                BN_BLINDING_create_param
                0x00000000401d71c1                BN_BLINDING_update
                0x00000000401d72b3                BN_BLINDING_convert_ex
                0x00000000401d738e                BN_BLINDING_convert
                0x00000000401d73a4                BN_CTX_init
                0x00000000401d741f                BN_CTX_new
                0x00000000401d74bf                BN_CTX_free
                0x00000000401d753f                BN_CTX_start
                0x00000000401d7625                BN_CTX_end
                0x00000000401d769a                BN_CTX_get
                0x00000000401d7800                BN_div
                0x00000000401d8324                ERR_load_BN_strings
                0x00000000401d843d                BN_exp
                0x00000000401d85dd                BN_mod_exp_recp
                0x00000000401d8a69                BN_mod_exp_mont_consttime
                0x00000000401d909c                BN_mod_exp_mont
                0x00000000401d967b                BN_mod_exp_mont_word
                0x00000000401d9abd                BN_mod_exp
                0x00000000401d9b09                BN_mod_exp_simple
                0x00000000401d9f80                BN_gcd
                0x00000000401da196                BN_mod_inverse
                0x00000000401dac10                BN_nnmod
                0x00000000401dac6c                BN_mod_add
                0x00000000401dacba                BN_mod_add_quick
                0x00000000401dad0e                BN_mod_sub
                0x00000000401dad5c                BN_mod_sub_quick
                0x00000000401dada4                BN_mod_mul
                0x00000000401dae5c                BN_mod_sqr
                0x00000000401daeb2                BN_mod_lshift1
                0x00000000401daf00                BN_mod_lshift1_quick
                0x00000000401daf54                BN_mod_lshift_quick
                0x00000000401db04f                BN_mod_lshift
                0x00000000401db45c                BN_mod_mul_montgomery
                0x00000000401db511                BN_from_montgomery
                0x00000000401db59b                BN_MONT_CTX_init
                0x00000000401db5e4                BN_MONT_CTX_new
                0x00000000401db622                BN_MONT_CTX_free
                0x00000000401db663                BN_MONT_CTX_set
                0x00000000401db85d                BN_MONT_CTX_copy
                0x00000000401db8dd                BN_MONT_CTX_set_locked
                0x00000000401db9e0                bn_sub_part_words
                0x00000000401dbc73                bn_add_part_words
                0x00000000401dc031                bn_mul_normal
                0x00000000401dc199                bn_mul_recursive
                0x00000000401dc62b                bn_mul_high
                0x00000000401dcaa7                bn_mul_part_recursive
                0x00000000401dcf7b                BN_mul
                0x00000000401dd2cb                bn_mul_low_normal
                0x00000000401dd3ad                bn_mul_low_recursive
                0x00000000401dd5e7                BN_GENCB_call
                0x00000000401dd635                BN_is_prime_fasttest_ex
                0x00000000401ddb04                BN_is_prime_ex
                0x00000000401ddb17                BN_generate_prime_ex
                0x00000000401de068                BN_RECP_CTX_init
                0x00000000401de097                BN_RECP_CTX_new
                0x00000000401de0d5                BN_RECP_CTX_free
                0x00000000401de109                BN_RECP_CTX_set
                0x00000000401de15f                BN_reciprocal
                0x00000000401de1f8                BN_div_recp
                0x00000000401de4a3                BN_mod_mul_reciprocal
                0x00000000401de56c                BN_lshift1
                0x00000000401de62b                BN_rshift1
                0x00000000401de703                BN_lshift
                0x00000000401de863                BN_rshift
                0x00000000401dea10                bn_sqr_normal
                0x00000000401deaec                bn_sqr_recursive
                0x00000000401decaa                BN_sqr
                0x00000000401def94                BIO_s_null
                0x00000000401defa0                ERR_load_BUF_strings
                0x00000000401defe0                CAST_cfb64_encrypt
                0x00000000401df1c8                CAST_ecb_encrypt
                0x00000000401df278                CAST_encrypt
                0x00000000401df6d4                CAST_decrypt
                0x00000000401dfb56                CAST_cbc_encrypt
                0x00000000401e00e8                CAST_ofb64_encrypt
                0x00000000401e0278                CAST_set_key
                0x00000000401e0d10                DES_ede3_cfb64_encrypt
                0x00000000401e0f3b                DES_ede3_cfb_encrypt
                0x00000000401e1740                DES_cfb64_encrypt
                0x00000000401e1960                DES_cfb_encrypt
                0x00000000401e1f8c                ERR_load_COMP_strings
                0x00000000401e1fc4                ERR_load_CONF_strings
                0x00000000401e1ffc                ERR_load_CRYPTO_strings
                0x00000000401e2040                d2i_PrivateKey
                0x00000000401e21a1                d2i_AutoPrivateKey
                0x00000000401e230e                d2i_DHparams
                0x00000000401e231e                i2d_DHparams
                0x00000000401e232e                DHparams_dup
                0x00000000401e2350                DH_check
                0x00000000401e2489                DH_check_pub_key
                0x00000000401e2534                ERR_load_DH_strings
                0x00000000401e2570                DH_generate_parameters_ex
                0x00000000401e2778                EVP_MD_CTX_init
                0x00000000401e278d                EVP_MD_CTX_create
                0x00000000401e27c4                EVP_DigestInit_ex
                0x00000000401e28a3                EVP_DigestInit
                0x00000000401e28d8                EVP_DigestUpdate
                0x00000000401e28e4                EVP_DigestFinal_ex
                0x00000000401e297f                EVP_MD_CTX_cleanup
                0x00000000401e2a1c                EVP_MD_CTX_destroy
                0x00000000401e2a3c                EVP_Digest
                0x00000000401e2ae6                EVP_MD_CTX_copy_ex
                0x00000000401e2c23                EVP_MD_CTX_copy
                0x00000000401e2c53                EVP_DigestFinal
                0x00000000401e2d3e                d2i_DSA_SIG
                0x00000000401e2d4e                i2d_DSA_SIG
                0x00000000401e2d5e                DSA_SIG_new
                0x00000000401e2d6e                DSA_SIG_free
                0x00000000401e2d7e                d2i_DSAPrivateKey
                0x00000000401e2d8e                i2d_DSAPrivateKey
                0x00000000401e2d9e                d2i_DSAparams
                0x00000000401e2dae                i2d_DSAparams
                0x00000000401e2dbe                d2i_DSAPublicKey
                0x00000000401e2dce                i2d_DSAPublicKey
                0x00000000401e2dde                DSAparams_dup
                0x00000000401e2df4                ERR_load_DSA_strings
                0x00000000401e2e30                dsa_builtin_paramgen
                0x00000000401e3725                DSA_generate_parameters_ex
                0x00000000401e37d0                DSA_generate_key
                0x00000000401e3938                DSA_set_default_method
                0x00000000401e3945                DSA_get_default_method
                0x00000000401e3968                DSA_set_method
                0x00000000401e39af                DSA_new_method
                0x00000000401e3ab0                DSA_new
                0x00000000401e3ac0                DSA_free
                0x00000000401e3b8f                DSA_up_ref
                0x00000000401e3bbc                DSA_size
                0x00000000401e3c11                DSA_get_ex_new_index
                0x00000000401e3c30                DSA_set_ex_data
                0x00000000401e3c3f                DSA_get_ex_data
                0x00000000401e3c4e                DSA_dup_DH
                0x00000000401e45ec                DSA_OpenSSL
                0x00000000401e45f8                DSA_do_sign
                0x00000000401e4605                DSA_sign
                0x00000000401e4689                DSA_sign_setup
                0x00000000401e4698                DSA_do_verify
                0x00000000401e46a5                DSA_verify
                0x00000000401e4730                ERR_load_DSO_strings
                0x00000000401e5081                EC_GROUP_get_basis_type
                0x00000000401e50e6                EC_GROUP_get_trinomial_basis
                0x00000000401e516f                EC_GROUP_get_pentanomial_basis
                0x00000000401e5246                X9_62_PENTANOMIAL_new
                0x00000000401e5256                X9_62_PENTANOMIAL_free
                0x00000000401e5266                X9_62_CHARACTERISTIC_TWO_new
                0x00000000401e5276                X9_62_CHARACTERISTIC_TWO_free
                0x00000000401e5286                ECPARAMETERS_new
                0x00000000401e5296                ECPARAMETERS_free
                0x00000000401e52a6                d2i_ECPKPARAMETERS
                0x00000000401e52b6                i2d_ECPKPARAMETERS
                0x00000000401e52c6                ECPKPARAMETERS_new
                0x00000000401e52d6                ECPKPARAMETERS_free
                0x00000000401e5ede                d2i_EC_PRIVATEKEY
                0x00000000401e5eee                i2d_EC_PRIVATEKEY
                0x00000000401e5efe                EC_PRIVATEKEY_new
                0x00000000401e5f0e                EC_PRIVATEKEY_free
                0x00000000401e5f1e                d2i_ECPKParameters
                0x00000000401e5fdb                i2d_ECPKParameters
                0x00000000401e6069                d2i_ECPrivateKey
                0x00000000401e62e6                i2d_ECPrivateKey
                0x00000000401e6676                i2d_ECParameters
                0x00000000401e66ae                d2i_ECParameters
                0x00000000401e6794                o2i_ECPublicKey
                0x00000000401e688e                i2o_ECPublicKey
                0x00000000401e69d8                EC_GROUP_new_by_curve_name
                0x00000000401e6eec                EC_get_builtin_curves
                0x00000000401e6f40                EC_GROUP_new_curve_GFp
                0x00000000401e7028                EC_GROUP_new_curve_GF2m
                0x00000000401e70a4                ERR_load_EC_strings
                0x00000000401e70e0                EC_KEY_new
                0x00000000401e716b                EC_KEY_free
                0x00000000401e71ed                EC_KEY_new_by_curve_name
                0x00000000401e7238                EC_KEY_copy
                0x00000000401e73f3                EC_KEY_dup
                0x00000000401e743d                EC_KEY_up_ref
                0x00000000401e746a                EC_KEY_generate_key
                0x00000000401e7649                EC_KEY_check_key
                0x00000000401e78f9                EC_KEY_get0_group
                0x00000000401e7903                EC_KEY_set_group
                0x00000000401e7946                EC_KEY_get0_private_key
                0x00000000401e7950                EC_KEY_set_private_key
                0x00000000401e7993                EC_KEY_get0_public_key
                0x00000000401e799d                EC_KEY_set_public_key
                0x00000000401e79e4                EC_KEY_get_enc_flags
                0x00000000401e79ed                EC_KEY_set_enc_flags
                0x00000000401e79f6                EC_KEY_get_conv_form
                0x00000000401e79ff                EC_KEY_set_conv_form
                0x00000000401e7a16                EC_KEY_get_key_method_data
                0x00000000401e7a25                EC_KEY_insert_key_method_data
                0x00000000401e7ac4                EC_KEY_set_asn1_flag
                0x00000000401e7ad8                EC_KEY_precompute_mult
                0x00000000401e7b00                EC_GROUP_new
                0x00000000401e7c10                EC_GROUP_method_of
                0x00000000401e7c19                EC_METHOD_get_field_type
                0x00000000401e7c21                EC_GROUP_get0_generator
                0x00000000401e7c2b                EC_GROUP_get_order
                0x00000000401e7c60                EC_GROUP_get_cofactor
                0x00000000401e7c95                EC_GROUP_set_curve_name
                0x00000000401e7c9e                EC_GROUP_get_curve_name
                0x00000000401e7ca7                EC_GROUP_set_asn1_flag
                0x00000000401e7cb0                EC_GROUP_get_asn1_flag
                0x00000000401e7cb9                EC_GROUP_set_point_conversion_form
                0x00000000401e7cc2                EC_GROUP_get_point_conversion_form
                0x00000000401e7ccb                EC_GROUP_set_seed
                0x00000000401e7d5e                EC_GROUP_get0_seed
                0x00000000401e7d68                EC_GROUP_get_seed_len
                0x00000000401e7d72                EC_GROUP_set_curve_GFp
                0x00000000401e7db1                EC_GROUP_get_curve_GFp
                0x00000000401e7deb                EC_GROUP_set_curve_GF2m
                0x00000000401e7e25                EC_GROUP_get_curve_GF2m
                0x00000000401e7e61                EC_GROUP_get_degree
                0x00000000401e7e9b                EC_GROUP_check_discriminant
                0x00000000401e7ed5                EC_EX_DATA_set_data
                0x00000000401e7fa5                EC_EX_DATA_get_data
                0x00000000401e7fda                EC_EX_DATA_free_data
                0x00000000401e8029                EC_EX_DATA_clear_free_data
                0x00000000401e8078                EC_EX_DATA_free_all_data
                0x00000000401e80c4                EC_EX_DATA_clear_free_all_data
                0x00000000401e8110                EC_POINT_new
                0x00000000401e81de                EC_POINT_free
                0x00000000401e820c                EC_GROUP_free
                0x00000000401e8271                EC_POINT_clear_free
                0x00000000401e82b9                EC_GROUP_clear_free
                0x00000000401e8345                EC_POINT_copy
                0x00000000401e83b1                EC_GROUP_set_generator
                0x00000000401e84a0                EC_GROUP_copy
                0x00000000401e86ca                EC_GROUP_dup
                0x00000000401e8720                EC_POINT_dup
                0x00000000401e8776                EC_POINT_method_of
                0x00000000401e877f                EC_POINT_set_to_infinity
                0x00000000401e87e4                EC_POINT_set_Jprojective_coordinates_GFp
                0x00000000401e8849                EC_POINT_get_Jprojective_coordinates_GFp
                0x00000000401e88b1                EC_POINT_set_affine_coordinates_GFp
                0x00000000401e8919                EC_POINT_set_affine_coordinates_GF2m
                0x00000000401e8981                EC_POINT_get_affine_coordinates_GFp
                0x00000000401e89e9                EC_POINT_get_affine_coordinates_GF2m
                0x00000000401e8a51                EC_POINT_set_compressed_coordinates_GFp
                0x00000000401e8ab9                EC_POINT_set_compressed_coordinates_GF2m
                0x00000000401e8b21                EC_POINT_point2oct
                0x00000000401e8b89                EC_POINT_oct2point
                0x00000000401e8bf1                EC_POINT_add
                0x00000000401e8c63                EC_POINT_dbl
                0x00000000401e8cd1                EC_POINT_invert
                0x00000000401e8d3b                EC_POINT_is_at_infinity
                0x00000000401e8da3                EC_POINT_is_on_curve
                0x00000000401e8e0b                EC_POINT_cmp
                0x00000000401e8e78                EC_GROUP_cmp
                0x00000000401e90fd                EC_POINT_make_affine
                0x00000000401e9165                EC_POINTs_make_affine
                0x00000000401e91f1                EC_POINTs_mul
                0x00000000401e9221                EC_POINT_mul
                0x00000000401e9259                EC_GROUP_precompute_mult
                0x00000000401e9286                EC_GROUP_have_precompute_mult
                0x00000000401e96be                ec_wNAF_mul
                0x00000000401ea59f                ec_wNAF_precompute_mult
                0x00000000401eabf0                ec_wNAF_have_precompute_mult
                0x00000000401eac20                EC_POINT_point2bn
                0x00000000401eace6                EC_POINT_bn2point
                0x00000000401eaddf                EC_POINT_point2hex
                0x00000000401eaee8                EC_POINT_hex2point
                0x00000000401eaf58                ERR_load_ECDH_strings
                0x00000000401eaf90                ECDH_compute_key
                0x00000000401eb035                ECDH_set_default_method
                0x00000000401eb042                ECDH_get_default_method
                0x00000000401eb0f9                ecdh_check
                0x00000000401eb159                ECDH_set_method
                0x00000000401eb183                ECDH_get_ex_new_index
                0x00000000401eb1a2                ECDH_set_ex_data
                0x00000000401eb1e3                ECDH_get_ex_data
                0x00000000401eb5d1                ECDH_OpenSSL
                0x00000000401eb5dc                ec_GFp_mont_field_set_to_one
                0x00000000401eb626                ec_GFp_mont_field_decode
                0x00000000401eb669                ec_GFp_mont_field_encode
                0x00000000401eb6b6                ec_GFp_mont_field_sqr
                0x00000000401eb6ff                ec_GFp_mont_field_mul
                0x00000000401eb748                ec_GFp_mont_group_set_curve
                0x00000000401eb8f0                ec_GFp_mont_group_copy
                0x00000000401eb9d8                ec_GFp_mont_group_clear_finish
                0x00000000401eba2b                ec_GFp_mont_group_finish
                0x00000000401eba7e                ec_GFp_mont_group_init
                0x00000000401ebaac                EC_GFp_mont_method
                0x00000000401ebac0                ec_GFp_nist_field_sqr
                0x00000000401ebb9b                ec_GFp_nist_field_mul
                0x00000000401ebc84                ec_GFp_nist_group_set_curve
                0x00000000401ebe0e                ec_GFp_nist_group_copy
                0x00000000401ebe27                EC_GFp_nist_method
                0x00000000401ebe40                ec_GFp_simple_is_at_infinity
                0x00000000401ebe50                ec_GFp_simple_field_sqr
                0x00000000401ebe68                ec_GFp_simple_field_mul
                0x00000000401ebe83                ec_GFp_simple_point_copy
                0x00000000401ebee8                ec_GFp_simple_group_copy
                0x00000000401ebf5f                ec_GFp_simple_point_set_to_infinity
                0x00000000401ebf7f                ec_GFp_simple_get_Jprojective_coordinates_GFp
                0x00000000401ec106                ec_GFp_simple_group_get_curve
                0x00000000401ec275                ec_GFp_simple_point_clear_finish
                0x00000000401ec2aa                ec_GFp_simple_group_clear_finish
                0x00000000401ec2de                ec_GFp_simple_points_make_affine
                0x00000000401ec84e                ec_GFp_simple_point_get_affine_coordinates
                0x00000000401ecb8d                ec_GFp_simple_make_affine
                0x00000000401ecca4                ec_GFp_simple_cmp
                0x00000000401ecf57                ec_GFp_simple_is_on_curve
                0x00000000401ed25f                ec_GFp_simple_invert
                0x00000000401ed2a8                ec_GFp_simple_dbl
                0x00000000401ed754                ec_GFp_simple_add
                0x00000000401edd5b                ec_GFp_simple_group_get_degree
                0x00000000401edd6a                ec_GFp_simple_oct2point
                0x00000000401ee0f7                ec_GFp_simple_point2oct
                0x00000000401ee476                ec_GFp_simple_set_Jprojective_coordinates_GFp
                0x00000000401ee65c                ec_GFp_simple_set_compressed_coordinates
                0x00000000401eeae8                ec_GFp_simple_point_set_affine_coordinates
                0x00000000401eeb75                ec_GFp_simple_point_finish
                0x00000000401eeba3                ec_GFp_simple_group_finish
                0x00000000401eebd7                ec_GFp_simple_point_init
                0x00000000401eec11                ec_GFp_simple_group_init
                0x00000000401eec54                ec_GFp_simple_group_check_discriminant
                0x00000000401eee85                ec_GFp_simple_group_set_curve
                0x00000000401ef07d                EC_GFp_simple_method
                0x00000000401ef088                ERR_load_ECDSA_strings
                0x00000000401ef0f9                ECDSA_set_default_method
                0x00000000401ef106                ECDSA_get_default_method
                0x00000000401ef1bd                ecdsa_check
                0x00000000401ef21d                ECDSA_set_method
                0x00000000401ef247                ECDSA_size
                0x00000000401ef309                ECDSA_get_ex_new_index
                0x00000000401ef328                ECDSA_set_ex_data
                0x00000000401ef369                ECDSA_get_ex_data
                0x00000000401f009b                ECDSA_OpenSSL
                0x00000000401f00a8                ECDSA_do_sign_ex
                0x00000000401f0114                ECDSA_do_sign
                0x00000000401f012c                ECDSA_sign_ex
                0x00000000401f01b8                ECDSA_sign
                0x00000000401f01da                ECDSA_sign_setup
                0x00000000401f0238                ECDSA_do_verify
                0x00000000401f0296                ECDSA_verify
                0x00000000401f0320                EVP_EncodeInit
                0x00000000401f033a                EVP_EncodeBlock
                0x00000000401f0475                EVP_EncodeFinal
                0x00000000401f04d2                EVP_EncodeUpdate
                0x00000000401f0602                EVP_DecodeInit
                0x00000000401f0623                EVP_DecodeBlock
                0x00000000401f0785                EVP_DecodeUpdate
                0x00000000401f0a5f                EVP_DecodeFinal
                0x00000000401f0ac0                EVP_set_pw_prompt
                0x00000000401f0aed                EVP_get_pw_prompt
                0x00000000401f0b08                EVP_read_pw_string_min
                0x00000000401f0be2                EVP_read_pw_string
                0x00000000401f0bfa                EVP_BytesToKey
                0x00000000401f0ec5                EVP_PBE_alg_add_type
                0x00000000401f0f85                EVP_PBE_alg_add
                0x00000000401f0ff5                EVP_PBE_find
                0x00000000401f10bc                EVP_PBE_CipherInit
                0x00000000401f1296                EVP_PBE_cleanup
                0x00000000401f12c0                EVP_PKCS82PKEY
                0x00000000401f13fb                EVP_PKEY2PKCS8_broken
                0x00000000401f1503                EVP_PKEY2PKCS8
                0x00000000401f1513                PKCS8_set_broken
                0x00000000401f1565                EVP_PKEY_get_attr_count
                0x00000000401f1574                EVP_PKEY_get_attr_by_NID
                0x00000000401f1583                EVP_PKEY_get_attr_by_OBJ
                0x00000000401f1592                EVP_PKEY_get_attr
                0x00000000401f15a1                EVP_PKEY_delete_attr
                0x00000000401f15b0                EVP_PKEY_add1_attr
                0x00000000401f15c8                EVP_PKEY_add1_attr_by_OBJ
                0x00000000401f15e0                EVP_PKEY_add1_attr_by_NID
                0x00000000401f15f8                EVP_PKEY_add1_attr_by_txt
                0x00000000401f1610                HMAC_Init_ex
                0x00000000401f1844                HMAC_Update
                0x00000000401f1853                HMAC_Final
                0x00000000401f18e8                HMAC_CTX_init
                0x00000000401f1916                HMAC_Init
                0x00000000401f1972                HMAC_CTX_copy
                0x00000000401f1a08                HMAC_CTX_cleanup
                0x00000000401f1a48                HMAC
                0x00000000401f1b19                HMAC_CTX_set_flags
                0x00000000401f1b60                i2d_PrivateKey
                0x00000000401f2550                RAND_SSLeay
                0x00000000401f2584                d2i_NETSCAPE_CERT_SEQUENCE
                0x00000000401f2594                i2d_NETSCAPE_CERT_SEQUENCE
                0x00000000401f25a4                NETSCAPE_CERT_SEQUENCE_new
                0x00000000401f25b4                NETSCAPE_CERT_SEQUENCE_free
                0x00000000401f25c4                OPENSSL_gmtime
                0x00000000401f25cf                OPENSSL_gmtime_adj
                0x00000000401f2878                PKCS12_PBE_add
                0x00000000401f287e                PKCS12_PBE_keyivgen
                0x00000000401f2a8c                PKCS12_key_gen_uni
                0x00000000401f2fa9                PKCS12_key_gen_asc
                0x00000000401f3088                PKCS8_decrypt
                0x00000000401f30ac                OPENSSL_asc2uni
                0x00000000401f313b                OPENSSL_uni2asc
                0x00000000401f31bc                i2d_PKCS12_bio
                0x00000000401f31d2                d2i_PKCS12_bio
                0x00000000401f31e8                PKCS12_x5092certbag
                0x00000000401f3202                PKCS12_x509crl2certbag
                0x00000000401f321c                PKCS12_certbag2x509
                0x00000000401f3273                PKCS12_certbag2x509crl
                0x00000000401f32cc                PKCS5_PBE_add
                0x00000000401f32d2                PKCS5_PBE_keyivgen
                0x00000000401f35b4                PKCS5_PBKDF2_HMAC
                0x00000000401f37d4                PKCS5_PBKDF2_HMAC_SHA1
                0x00000000401f3842                PKCS5_v2_PBE_keyivgen
                0x00000000401f3c44                d2i_PBEPARAM
                0x00000000401f3c54                i2d_PBEPARAM
                0x00000000401f3c64                PBEPARAM_new
                0x00000000401f3c74                PBEPARAM_free
                0x00000000401f3c84                PKCS5_pbe_set0_algor
                0x00000000401f3e3f                PKCS5_pbe_set
                0x00000000401f3ed4                d2i_PBE2PARAM
                0x00000000401f3ee4                i2d_PBE2PARAM
                0x00000000401f3ef4                PBE2PARAM_new
                0x00000000401f3f04                PBE2PARAM_free
                0x00000000401f3f14                d2i_PBKDF2PARAM
                0x00000000401f3f24                i2d_PBKDF2PARAM
                0x00000000401f3f34                PBKDF2PARAM_new
                0x00000000401f3f44                PBKDF2PARAM_free
                0x00000000401f3f54                PKCS5_pbe2_set_iv
                0x00000000401f446d                PKCS5_pbe2_set
                0x00000000401f44b0                d2i_PKCS8_PRIV_KEY_INFO
                0x00000000401f44c0                i2d_PKCS8_PRIV_KEY_INFO
                0x00000000401f44d0                PKCS8_PRIV_KEY_INFO_new
                0x00000000401f44e0                PKCS8_PRIV_KEY_INFO_free
                0x00000000401f44f0                PKCS8_pkey_set0
                0x00000000401f45bb                PKCS8_pkey_get0
                0x00000000401f4650                EVP_SignFinal
                0x00000000401f4830                EVP_VerifyFinal
                0x00000000401f4a21                policy_cache_free
                0x00000000401f4a61                policy_cache_set
                0x00000000401f4db5                policy_cache_find_data
                0x00000000401f4df0                policy_data_free
                0x00000000401f4e35                policy_data_new
                0x00000000401f4f34                policy_cache_set_mapping
                0x00000000401f519e                X509_policy_tree_free
                0x00000000401f524a                X509_policy_check
                0x00000000401f5cb8                d2i_PKCS8PrivateKey_bio
                0x00000000401f5dcc                PEM_read_bio_PKCS8
                0x00000000401f5ded                PEM_write_bio_PKCS8
                0x00000000401f5e31                PEM_read_bio_PKCS8_PRIV_KEY_INFO
                0x00000000401f5e52                PEM_write_bio_PKCS8_PRIV_KEY_INFO
                0x00000000401f6098                i2d_PKCS8PrivateKey_nid_bio
                0x00000000401f60c9                i2d_PKCS8PrivateKey_bio
                0x00000000401f60fa                PEM_write_bio_PKCS8PrivateKey
                0x00000000401f612b                PEM_write_bio_PKCS8PrivateKey_nid
                0x00000000401f615c                PKCS7_add_attrib_smimecap
                0x00000000401f61df                PKCS7_get_smimecap
                0x00000000401f622e                PKCS7_simple_smimecap
                0x00000000401f6374                PKCS7_add_attrib_content_type
                0x00000000401f63d3                PKCS7_add0_attrib_signing_time
                0x00000000401f6436                PKCS7_add1_attrib_digest
                0x00000000401f7db2                RSA_PKCS1_SSLeay
                0x00000000401f7dc0                RSA_padding_add_none
                0x00000000401f7e2c                RSA_padding_check_none
                0x00000000401f7eb4                PKCS1_MGF1
                0x00000000401f80a9                RSA_padding_check_PKCS1_OAEP
                0x00000000401f832d                RSA_padding_add_PKCS1_OAEP
                0x00000000401f8530                RSA_padding_add_PKCS1_type_1
                0x00000000401f85cb                RSA_padding_check_PKCS1_type_1
                0x00000000401f8714                RSA_padding_add_PKCS1_type_2
                0x00000000401f87d5                RSA_padding_check_PKCS1_type_2
                0x00000000401f88f0                RSA_verify_PKCS1_PSS
                0x00000000401f8ca3                RSA_padding_add_PKCS1_PSS
                0x00000000401f8f7c                RSA_padding_add_SSLv23
                0x00000000401f9050                RSA_padding_check_SSLv23
                0x00000000401f91b0                RSA_padding_add_X931
                0x00000000401f9266                RSA_padding_check_X931
                0x00000000401f9382                RSA_X931_hash_id
                0x00000000401f93c4                ASN1_bn_print
                0x00000000401f95c0                X509_ocspid_print
                0x00000000401f9748                X509_signature_print
                0x00000000401f984a                ASN1_STRING_print
                0x00000000401f9903                ASN1_GENERALIZEDTIME_print
                0x00000000401f9bb8                ASN1_UTCTIME_print
                0x00000000401f9d24                ASN1_TIME_print
                0x00000000401f9d5d                X509_print_ex
                0x00000000401fa2a1                X509_print
                0x00000000401fa2b6                X509_NAME_print
                0x00000000401fa3ac                X509_CERT_AUX_print
                0x00000000401fa94c                UI_free
                0x00000000401fa98b                UI_add_input_string
                0x00000000401fa9bc                UI_dup_input_string
                0x00000000401faa64                UI_add_verify_string
                0x00000000401faa95                UI_dup_verify_string
                0x00000000401fab3d                UI_add_input_boolean
                0x00000000401fab67                UI_dup_input_boolean
                0x00000000401fad0f                UI_add_info_string
                0x00000000401fad4c                UI_dup_info_string
                0x00000000401fadd3                UI_add_error_string
                0x00000000401fae10                UI_dup_error_string
                0x00000000401fae97                UI_construct_prompt
                0x00000000401fafc7                UI_add_user_data
                0x00000000401fafd5                UI_get0_user_data
                0x00000000401fafdf                UI_process
                0x00000000401fb114                UI_ctrl
                0x00000000401fb1a1                UI_get_ex_new_index
                0x00000000401fb1c0                UI_set_ex_data
                0x00000000401fb1cf                UI_get_ex_data
                0x00000000401fb1de                UI_set_default_method
                0x00000000401fb1eb                UI_get_default_method
                0x00000000401fb20e                UI_new_method
                0x00000000401fb29d                UI_new
                0x00000000401fb2ad                UI_get_method
                0x00000000401fb2b6                UI_set_method
                0x00000000401fb2c2                UI_create_method
                0x00000000401fb31b                UI_destroy_method
                0x00000000401fb345                UI_method_set_opener
                0x00000000401fb360                UI_method_set_writer
                0x00000000401fb37b                UI_method_set_flusher
                0x00000000401fb396                UI_method_set_reader
                0x00000000401fb3b1                UI_method_set_closer
                0x00000000401fb3cc                UI_method_set_prompt_constructor
                0x00000000401fb3e7                UI_method_get_opener
                0x00000000401fb3fd                UI_method_get_writer
                0x00000000401fb413                UI_method_get_flusher
                0x00000000401fb429                UI_method_get_reader
                0x00000000401fb43f                UI_method_get_closer
                0x00000000401fb455                UI_method_get_prompt_constructor
                0x00000000401fb46b                UI_get_string_type
                0x00000000401fb47d                UI_get_input_flags
                0x00000000401fb490                UI_get0_output_string
                0x00000000401fb4a6                UI_get0_action_string
                0x00000000401fb4cf                UI_get0_result_string
                0x00000000401fb4f4                UI_get0_result
                0x00000000401fb586                UI_get0_test_string
                0x00000000401fb5a6                UI_get_result_minsize
                0x00000000401fb5ca                UI_get_result_maxsize
                0x00000000401fb5ee                UI_set_result
                0x00000000401fbae4                UI_OpenSSL
                0x00000000401fbaf0                d2i_AUTHORITY_KEYID
                0x00000000401fbb00                i2d_AUTHORITY_KEYID
                0x00000000401fbb10                AUTHORITY_KEYID_new
                0x00000000401fbb20                AUTHORITY_KEYID_free
                0x00000000401fbdc3                POLICYINFO_free
                0x00000000401fbdd3                d2i_CERTIFICATEPOLICIES
                0x00000000401fbde3                i2d_CERTIFICATEPOLICIES
                0x00000000401fbdf3                CERTIFICATEPOLICIES_new
                0x00000000401fbe03                CERTIFICATEPOLICIES_free
                0x00000000401fbe13                d2i_POLICYINFO
                0x00000000401fbe23                i2d_POLICYINFO
                0x00000000401fbe33                POLICYINFO_new
                0x00000000401fbe43                d2i_POLICYQUALINFO
                0x00000000401fbe53                i2d_POLICYQUALINFO
                0x00000000401fbe63                POLICYQUALINFO_new
                0x00000000401fbe73                POLICYQUALINFO_free
                0x00000000401fbe83                d2i_USERNOTICE
                0x00000000401fbe93                i2d_USERNOTICE
                0x00000000401fbea3                USERNOTICE_new
                0x00000000401fbeb3                USERNOTICE_free
                0x00000000401fbec3                d2i_NOTICEREF
                0x00000000401fbed3                i2d_NOTICEREF
                0x00000000401fbee3                NOTICEREF_new
                0x00000000401fc828                NOTICEREF_free
                0x00000000401fc838                X509_POLICY_NODE_print
                0x00000000401fce70                DIST_POINT_free
                0x00000000401fce80                d2i_DIST_POINT_NAME
                0x00000000401fce90                i2d_DIST_POINT_NAME
                0x00000000401fcea0                DIST_POINT_NAME_new
                0x00000000401fd0ba                DIST_POINT_NAME_free
                0x00000000401fd0ca                d2i_DIST_POINT
                0x00000000401fd0da                i2d_DIST_POINT
                0x00000000401fd0ea                DIST_POINT_new
                0x00000000401fd38d                d2i_CRL_DIST_POINTS
                0x00000000401fd39d                i2d_CRL_DIST_POINTS
                0x00000000401fd3ad                CRL_DIST_POINTS_new
                0x00000000401fd3bd                CRL_DIST_POINTS_free
                0x00000000401fd3cd                d2i_ISSUING_DIST_POINT
                0x00000000401fd3dd                i2d_ISSUING_DIST_POINT
                0x00000000401fd3ed                ISSUING_DIST_POINT_new
                0x00000000401fd3fd                ISSUING_DIST_POINT_free
                0x00000000401fd60a                DIST_POINT_set_dpname
                0x00000000401fd6f8                i2d_GENERAL_NAME
                0x00000000401fd708                d2i_GENERAL_NAME
                0x00000000401fd718                d2i_OTHERNAME
                0x00000000401fd728                i2d_OTHERNAME
                0x00000000401fd738                OTHERNAME_new
                0x00000000401fd748                OTHERNAME_free
                0x00000000401fd758                d2i_EDIPARTYNAME
                0x00000000401fd768                i2d_EDIPARTYNAME
                0x00000000401fd778                EDIPARTYNAME_new
                0x00000000401fd788                EDIPARTYNAME_free
                0x00000000401fd798                GENERAL_NAME_new
                0x00000000401fd7a8                GENERAL_NAME_free
                0x00000000401fd7b8                d2i_GENERAL_NAMES
                0x00000000401fd7c8                i2d_GENERAL_NAMES
                0x00000000401fd7d8                GENERAL_NAMES_new
                0x00000000401fd7e8                GENERAL_NAMES_free
                0x00000000401fd7f8                GENERAL_NAME_dup
                0x00000000401fd810                OTHERNAME_cmp
                0x00000000401fd85e                GENERAL_NAME_cmp
                0x00000000401fd8e6                GENERAL_NAME_set0_value
                0x00000000401fd91e                GENERAL_NAME_get0_value
                0x00000000401fd962                GENERAL_NAME_set0_othername
                0x00000000401fd9b8                GENERAL_NAME_get0_otherName
                0x00000000401fe01e                GENERAL_SUBTREE_new
                0x00000000401fe02e                GENERAL_SUBTREE_free
                0x00000000401fe03e                NAME_CONSTRAINTS_new
                0x00000000401fe04e                NAME_CONSTRAINTS_free
                0x00000000401fe1ec                NAME_CONSTRAINTS_check
                0x00000000401fe31e                POLICY_CONSTRAINTS_new
                0x00000000401fe32e                POLICY_CONSTRAINTS_free
                0x00000000401fe533                POLICY_MAPPING_free
                0x00000000401fe543                POLICY_MAPPING_new
                0x00000000401fe7e7                X509V3_EXT_val_prn
                0x00000000401fe90e                X509V3_EXT_print
                0x00000000401feaea                X509V3_extensions_print
                0x00000000401feff1                X509_PURPOSE_get_count
                0x00000000401ff010                X509_PURPOSE_get0
                0x00000000401ff046                X509_PURPOSE_get_by_sname
                0x00000000401ff086                X509_PURPOSE_get_by_id
                0x00000000401ff0c6                X509_PURPOSE_set
                0x00000000401ff120                X509_PURPOSE_add
                0x00000000401ff2e9                X509_PURPOSE_cleanup
                0x00000000401ff338                X509_PURPOSE_get_id
                0x00000000401ff340                X509_PURPOSE_get0_name
                0x00000000401ff34a                X509_PURPOSE_get0_sname
                0x00000000401ff354                X509_PURPOSE_get_trust
                0x00000000401ff35d                X509_supported_extension
                0x00000000401ff8ce                X509_check_purpose
                0x00000000401ff968                X509_check_ca
                0x00000000401ff9c3                X509_check_akid
                0x00000000401ffaa0                X509_check_issued
                0x00000000401ffc80                X509V3_conf_free
                0x00000000401ffd79                X509V3_add_value
                0x00000000401ffeaa                X509V3_add_value_uchar
                0x00000000401ffeb5                X509V3_add_value_bool
                0x00000000401ffed5                X509V3_add_value_bool_nf
                0x00000000401ffeee                i2s_ASN1_ENUMERATED
                0x00000000401fff68                i2s_ASN1_INTEGER
                0x00000000401fffe2                s2i_ASN1_INTEGER
                0x000000004020011f                X509V3_add_value_int
                0x0000000040200187                X509V3_get_value_bool
                0x00000000402002fe                X509V3_get_value_int
                0x000000004020036f                X509V3_parse_list
                0x00000000402005a2                hex_to_string
                0x0000000040200669                string_to_hex
                0x0000000040200826                name_cmp
                0x0000000040200885                X509_email_free
                0x00000000402009f1                X509_REQ_get1_email
                0x0000000040200a67                X509_get1_email
                0x0000000040200ac1                X509_get1_ocsp
                0x0000000040200b60                a2i_ipadd
                0x0000000040200cd1                a2i_IPADDRESS_NC
                0x0000000040200dc1                a2i_IPADDRESS
                0x0000000040200e1d                X509V3_NAME_from_section
                0x0000000040200f10                X509at_get_attr_count
                0x0000000040200f1b                X509at_get_attr_by_OBJ
                0x0000000040200f89                X509at_get_attr_by_NID
                0x0000000040200fc8                X509at_get_attr
                0x0000000040201013                X509at_delete_attr
                0x000000004020105e                X509at_add1_attr
                0x0000000040201139                X509_ATTRIBUTE_set1_object
                0x0000000040201182                X509_ATTRIBUTE_set1_data
                0x000000004020130a                X509_ATTRIBUTE_create_by_OBJ
                0x00000000402013de                X509_ATTRIBUTE_create_by_txt
                0x0000000040201496                X509at_add1_attr_by_txt
                0x00000000402014ec                X509_ATTRIBUTE_create_by_NID
                0x0000000040201586                X509at_add1_attr_by_NID
                0x00000000402015dc                X509at_add1_attr_by_OBJ
                0x0000000040201632                X509_ATTRIBUTE_count
                0x0000000040201654                X509_ATTRIBUTE_get0_object
                0x0000000040201669                X509_ATTRIBUTE_get0_type
                0x00000000402016c0                X509_ATTRIBUTE_get0_data
                0x0000000040201726                X509at_get0_data_by_OBJ
                0x00000000402017d4                X509_CRL_get_ext_count
                0x00000000402017e6                X509_CRL_get_ext_by_NID
                0x00000000402017f8                X509_CRL_get_ext_by_OBJ
                0x000000004020180a                X509_CRL_get_ext_by_critical
                0x000000004020181c                X509_CRL_get_ext
                0x000000004020182e                X509_CRL_delete_ext
                0x0000000040201840                X509_CRL_get_ext_d2i
                0x0000000040201852                X509_CRL_add1_ext_i2d
                0x0000000040201864                X509_CRL_add_ext
                0x000000004020187f                X509_get_ext_count
                0x0000000040201891                X509_get_ext_by_NID
                0x00000000402018a3                X509_get_ext_by_OBJ
                0x00000000402018b5                X509_get_ext_by_critical
                0x00000000402018c7                X509_get_ext
                0x00000000402018d9                X509_delete_ext
                0x00000000402018eb                X509_add_ext
                0x0000000040201906                X509_get_ext_d2i
                0x0000000040201918                X509_add1_ext_i2d
                0x000000004020192a                X509_REVOKED_get_ext_count
                0x0000000040201939                X509_REVOKED_get_ext_by_NID
                0x0000000040201948                X509_REVOKED_get_ext_by_OBJ
                0x0000000040201957                X509_REVOKED_get_ext_by_critical
                0x0000000040201966                X509_REVOKED_get_ext
                0x0000000040201975                X509_REVOKED_delete_ext
                0x0000000040201984                X509_REVOKED_add_ext
                0x000000004020199c                X509_REVOKED_get_ext_d2i
                0x00000000402019ab                X509_REVOKED_add1_ext_i2d
                0x0000000040201b2e                X509_LOOKUP_new
                0x0000000040201b9d                X509_LOOKUP_free
                0x0000000040201bd1                X509_LOOKUP_init
                0x0000000040201bf2                X509_LOOKUP_shutdown
                0x0000000040201c13                X509_LOOKUP_ctrl
                0x0000000040201c3a                X509_LOOKUP_by_subject
                0x0000000040201c61                X509_LOOKUP_by_issuer_serial
                0x0000000040201c81                X509_LOOKUP_by_fingerprint
                0x0000000040201ca1                X509_LOOKUP_by_alias
                0x0000000040201cc1                X509_STORE_new
                0x0000000040201db9                X509_STORE_free
                0x0000000040201e49                X509_STORE_add_lookup
                0x0000000040201ed1                X509_OBJECT_up_ref_count
                0x0000000040201f2b                X509_OBJECT_free_contents
                0x0000000040201f53                X509_OBJECT_idx_by_subject
                0x0000000040201f63                X509_OBJECT_retrieve_by_subject
                0x0000000040201f8f                X509_STORE_get_by_subject
                0x00000000402020a3                X509_STORE_get1_certs
                0x0000000040202275                X509_STORE_get1_crls
                0x0000000040202438                X509_OBJECT_retrieve_match
                0x000000004020250b                X509_STORE_add_crl
                0x000000004020261f                X509_STORE_add_cert
                0x0000000040202733                X509_STORE_CTX_get1_issuer
                0x00000000402028f9                X509_STORE_set_flags
                0x0000000040202908                X509_STORE_set_depth
                0x000000004020291c                X509_STORE_set_purpose
                0x000000004020292b                X509_STORE_set_trust
                0x000000004020293a                X509_STORE_set1_param
                0x0000000040202949                X509_STORE_set_verify_cb
                0x0000000040202960                X509_to_X509_REQ
                0x0000000040202a6c                X509_REQ_get_pubkey
                0x0000000040202a94                X509_REQ_check_private_key
                0x0000000040202bc9                X509_REQ_extension_nid
                0x0000000040202c08                X509_REQ_get_extension_nids
                0x0000000040202c15                X509_REQ_set_extension_nids
                0x0000000040202c22                X509_REQ_add_extensions_nid
                0x0000000040202d45                X509_REQ_add_extensions
                0x0000000040202d55                X509_REQ_get_attr_count
                0x0000000040202d67                X509_REQ_get_attr_by_NID
                0x0000000040202d79                X509_REQ_get_attr_by_OBJ
                0x0000000040202d8b                X509_REQ_get_attr
                0x0000000040202d9d                X509_REQ_get_extensions
                0x0000000040202e9f                X509_REQ_delete_attr
                0x0000000040202eb1                X509_REQ_add1_attr
                0x0000000040202ecc                X509_REQ_add1_attr_by_OBJ
                0x0000000040202ee7                X509_REQ_add1_attr_by_NID
                0x0000000040202f02                X509_REQ_add1_attr_by_txt
                0x00000000402030a5                X509_TRUST_set_default
                0x00000000402030b9                X509_TRUST_get_count
                0x00000000402030d8                X509_TRUST_get0
                0x000000004020310c                X509_TRUST_get_by_id
                0x000000004020314c                X509_check_trust
                0x00000000402031af                X509_TRUST_set
                0x0000000040203209                X509_TRUST_add
                0x00000000402033b5                X509_TRUST_cleanup
                0x0000000040203401                X509_TRUST_get_flags
                0x000000004020340a                X509_TRUST_get0_name
                0x0000000040203414                X509_TRUST_get_trust
                0x0000000040203420                X509v3_get_ext_count
                0x0000000040203435                X509v3_get_ext_by_OBJ
                0x00000000402034a3                X509v3_get_ext_by_NID
                0x00000000402034e2                X509v3_get_ext_by_critical
                0x0000000040203558                X509v3_get_ext
                0x00000000402035a3                X509v3_delete_ext
                0x00000000402035ee                X509v3_add_ext
                0x00000000402036f3                X509_EXTENSION_set_object
                0x000000004020373c                X509_EXTENSION_set_critical
                0x000000004020375b                X509_EXTENSION_set_data
                0x0000000040203785                X509_EXTENSION_create_by_OBJ
                0x000000004020385f                X509_EXTENSION_create_by_NID
                0x00000000402038eb                X509_EXTENSION_get_object
                0x0000000040203900                X509_EXTENSION_get_data
                0x0000000040203916                X509_EXTENSION_get_critical
                0x0000000040203930                X509_NAME_entry_count
                0x0000000040203948                X509_NAME_get_index_by_OBJ
                0x00000000402039bb                X509_NAME_get_index_by_NID
                0x00000000402039fa                X509_NAME_get_entry
                0x0000000040203a48                X509_NAME_delete_entry
                0x0000000040203b14                X509_NAME_add_entry
                0x0000000040203c88                X509_NAME_ENTRY_set_object
                0x0000000040203cf4                X509_NAME_ENTRY_set_data
                0x0000000040203dd9                X509_NAME_ENTRY_create_by_OBJ
                0x0000000040203e8c                X509_NAME_ENTRY_create_by_NID
                0x0000000040203f22                X509_NAME_add_entry_by_NID
                0x0000000040203f89                X509_NAME_ENTRY_create_by_txt
                0x0000000040204041                X509_NAME_add_entry_by_txt
                0x00000000402040a8                X509_NAME_add_entry_by_OBJ
                0x000000004020410f                X509_NAME_ENTRY_get_object
                0x0000000040204124                X509_NAME_ENTRY_get_data
                0x000000004020413a                X509_NAME_get_text_by_OBJ
                0x00000000402041bc                X509_NAME_get_text_by_NID
                0x000000004020420c                X509_REQ_set_version
                0x0000000040204228                X509_REQ_set_subject_name
                0x0000000040204249                X509_REQ_set_pubkey
                0x000000004020426c                d2i_X509_VAL
                0x000000004020427c                i2d_X509_VAL
                0x000000004020428c                X509_VAL_new
                0x000000004020429c                X509_VAL_free
                0x00000000402042b0                CRYPTO_cbc128_encrypt
                0x00000000402043fb                CRYPTO_cbc128_decrypt
                0x0000000040204744                CRYPTO_cfb128_encrypt
                0x00000000402049f5                CRYPTO_cfb128_1_encrypt
                0x0000000040204abf                CRYPTO_cfb128_8_encrypt
                0x0000000040204b2c                CRYPTO_ofb128_encrypt
                0x0000000040204c58                i2d_ASN1_BOOLEAN
                0x0000000040204cd2                d2i_ASN1_BOOLEAN
                0x0000000040205010                ASN1_mbstring_ncopy
                0x0000000040205515                ASN1_mbstring_copy
                0x0000000040205540                ASN1_PRINTABLE_type
                0x0000000040205601                ASN1_UNIVERSALSTRING_to_string
                0x00000000402056ef                ASN1_STRING_set_default_mask
                0x00000000402056fc                ASN1_STRING_get_default_mask
                0x0000000040205709                ASN1_STRING_set_default_mask_asc
                0x00000000402057cc                ASN1_STRING_TABLE_get
                0x0000000040205832                ASN1_STRING_set_by_NID
                0x00000000402058f1                ASN1_STRING_TABLE_add
                0x0000000040205a26                ASN1_STRING_TABLE_cleanup
                0x0000000040205a50                ASN1_seq_unpack
                0x0000000040205ab5                ASN1_seq_pack
                0x0000000040205bb3                ASN1_unpack_string
                0x0000000040205c06                ASN1_pack_string
                0x0000000040205d08                ASN1_item_pack
                0x0000000040205e01                ASN1_item_unpack
                0x0000000040205e58                BN_mod_exp2_mont
                0x00000000402066e4                BN_kronecker
                0x0000000040206a0a                BN_get0_nist_prime_192
                0x0000000040206a15                BN_get0_nist_prime_224
                0x0000000040206a20                BN_get0_nist_prime_256
                0x0000000040206a2b                BN_get0_nist_prime_384
                0x0000000040206a36                BN_get0_nist_prime_521
                0x0000000040206a41                BN_nist_mod_192
                0x0000000040206caf                BN_nist_mod_224
                0x0000000040206ff5                BN_nist_mod_256
                0x000000004020748d                BN_nist_mod_384
                0x0000000040207a2d                BN_nist_mod_521
                0x0000000040207c10                BN_mod_sqrt
                0x00000000402085bb                CONF_modules_load
                0x0000000040208a3c                CONF_modules_finish
                0x0000000040208ab6                CONF_modules_unload
                0x0000000040208b6c                CONF_module_add
                0x0000000040208b8e                CONF_modules_free
                0x0000000040208ba3                CONF_imodule_get_name
                0x0000000040208bad                CONF_imodule_get_value
                0x0000000040208bb7                CONF_imodule_get_usr_data
                0x0000000040208bc1                CONF_imodule_set_usr_data
                0x0000000040208bcb                CONF_imodule_get_module
                0x0000000040208bd4                CONF_imodule_get_flags
                0x0000000040208bde                CONF_imodule_set_flags
                0x0000000040208be8                CONF_module_get_usr_data
                0x0000000040208bf2                CONF_module_set_usr_data
                0x0000000040208bfc                CONF_get1_default_config_file
                0x0000000040208c77                CONF_modules_load_file
                0x0000000040208d51                CONF_parse_list
                0x0000000040208e60                DSO_set_default_method
                0x0000000040208e6d                DSO_get_default_method
                0x0000000040208e7a                DSO_get_method
                0x0000000040208e83                DSO_set_method
                0x0000000040208e8f                DSO_new_method
                0x0000000040208f82                DSO_new
                0x0000000040208f92                DSO_free
                0x00000000402090a8                DSO_flags
                0x00000000402090bb                DSO_up_ref
                0x000000004020910d                DSO_bind_var
                0x00000000402091ab                DSO_bind_func
                0x0000000040209249                DSO_ctrl
                0x00000000402092e1                DSO_set_name_converter
                0x0000000040209325                DSO_get_filename
                0x0000000040209358                DSO_set_filename
                0x0000000040209455                DSO_load
                0x0000000040209604                DSO_merge
                0x0000000040209667                DSO_convert_filename
                0x0000000040209777                DSO_get_loaded_filename
                0x00000000402097aa                DSO_pathbyaddr
                0x000000004020981e                DSO_global_lookup
                0x0000000040209878                DSO_METHOD_openssl
                0x0000000040209890                ec_GF2m_simple_is_at_infinity
                0x00000000402098a0                ec_GF2m_simple_points_make_affine
                0x0000000040209909                ec_GF2m_simple_field_div
                0x0000000040209924                ec_GF2m_simple_field_sqr
                0x000000004020993f                ec_GF2m_simple_field_mul
                0x000000004020995d                ec_GF2m_simple_point_copy
                0x00000000402099c2                ec_GF2m_simple_group_get_curve
                0x0000000040209a4a                ec_GF2m_simple_point_set_to_infinity
                0x0000000040209a6a                ec_GF2m_simple_make_affine
                0x0000000040209b7e                ec_GF2m_simple_cmp
                0x0000000040209d1b                ec_GF2m_simple_is_on_curve
                0x0000000040209eb9                ec_GF2m_simple_invert
                0x0000000040209f23                ec_GF2m_simple_add
                0x000000004020a33a                ec_GF2m_simple_dbl
                0x000000004020a34b                ec_GF2m_simple_oct2point
                0x000000004020a70b                ec_GF2m_simple_group_get_degree
                0x000000004020a71d                ec_GF2m_simple_point2oct
                0x000000004020aace                ec_GF2m_simple_group_check_discriminant
                0x000000004020aba5                ec_GF2m_simple_set_compressed_coordinates
                0x000000004020ae39                ec_GF2m_simple_point_get_affine_coordinates
                0x000000004020af2d                ec_GF2m_simple_point_set_affine_coordinates
                0x000000004020b00d                ec_GF2m_simple_point_clear_finish
                0x000000004020b042                ec_GF2m_simple_group_clear_finish
                0x000000004020b0b2                ec_GF2m_simple_point_finish
                0x000000004020b0e0                ec_GF2m_simple_group_finish
                0x000000004020b114                ec_GF2m_simple_point_init
                0x000000004020b147                ec_GF2m_simple_group_init
                0x000000004020b180                ec_GF2m_simple_group_set_curve
                0x000000004020b32e                ec_GF2m_simple_group_copy
                0x000000004020b4cd                EC_GF2m_simple_method
                0x000000004020b4d8                d2i_ECDSA_SIG
                0x000000004020b4e8                i2d_ECDSA_SIG
                0x000000004020b4f8                ECDSA_SIG_new
                0x000000004020b508                ECDSA_SIG_free
                0x000000004020b52e                ERR_print_errors_cb
                0x000000004020b61e                ERR_print_errors
                0x000000004020b634                PKCS12_item_pack_safebag
                0x000000004020b730                PKCS12_MAKE_KEYBAG
                0x000000004020b78f                PKCS12_MAKE_SHKEYBAG
                0x000000004020b880                PKCS12_pack_p7data
                0x000000004020b944                PKCS12_unpack_p7data
                0x000000004020b999                PKCS12_pack_p7encdata
                0x000000004020bb3a                PKCS12_unpack_p7encdata
                0x000000004020bba4                PKCS12_decrypt_skey
                0x000000004020bbb3                PKCS12_pack_authsafes
                0x000000004020bbda                PKCS12_unpack_authsafes
                0x000000004020bc38                d2i_PKCS12
                0x000000004020bc48                i2d_PKCS12
                0x000000004020bc58                PKCS12_new
                0x000000004020bc68                PKCS12_free
                0x000000004020bc78                d2i_PKCS12_MAC_DATA
                0x000000004020bc88                i2d_PKCS12_MAC_DATA
                0x000000004020bc98                PKCS12_MAC_DATA_new
                0x000000004020bca8                PKCS12_MAC_DATA_free
                0x000000004020bcb8                d2i_PKCS12_BAGS
                0x000000004020bcc8                i2d_PKCS12_BAGS
                0x000000004020bcd8                PKCS12_BAGS_new
                0x000000004020bce8                PKCS12_BAGS_free
                0x000000004020bcf8                d2i_PKCS12_SAFEBAG
                0x000000004020bd08                i2d_PKCS12_SAFEBAG
                0x000000004020bd18                PKCS12_SAFEBAG_new
                0x000000004020bd28                PKCS12_SAFEBAG_free
                0x000000004020bd38                PKCS12_pbe_crypt
                0x000000004020beb8                PKCS12_item_decrypt_d2i
                0x000000004020bf84                PKCS12_item_i2d_encrypt
                0x000000004020c0c0                PKCS8_encrypt
                0x000000004020c1f8                X509_policy_tree_level_count
                0x000000004020c20b                X509_policy_tree_get0_level
                0x000000004020c23a                X509_policy_tree_get0_policies
                0x000000004020c250                X509_policy_tree_get0_user_policies
                0x000000004020c272                X509_policy_level_node_count
                0x000000004020c2a9                X509_policy_level_get0_node
                0x000000004020c2d4                X509_policy_node_get0_policy
                0x000000004020c2ed                X509_policy_node_get0_qualifiers
                0x000000004020c306                X509_policy_node_get0_parent
                0x000000004020c33b                policy_node_cmp_new
                0x000000004020c34b                tree_find_sk
                0x000000004020c387                level_find_node
                0x000000004020c3fb                policy_node_free
                0x000000004020c406                level_add_node
                0x000000004020c502                policy_node_match
                0x000000004020c709                i2v_GENERAL_NAME
                0x000000004020c990                i2v_GENERAL_NAMES
                0x000000004020c9f4                GENERAL_NAME_print
                0x000000004020cb98                a2i_GENERAL_NAME
                0x000000004020cf5c                v2i_GENERAL_NAME_ex
                0x000000004020d0c9                v2i_GENERAL_NAME
                0x000000004020d414                v2i_GENERAL_NAMES
                0x000000004020d50d                d2i_BASIC_CONSTRAINTS
                0x000000004020d51d                i2d_BASIC_CONSTRAINTS
                0x000000004020d52d                BASIC_CONSTRAINTS_new
                0x000000004020d53d                BASIC_CONSTRAINTS_free
                0x000000004020dcd5                X509V3_EXT_nconf
                0x000000004020ddac                X509V3_EXT_nconf_nid
                0x000000004020de3c                X509V3_EXT_i2d
                0x000000004020dea6                X509V3_EXT_add_nconf_sk
                0x000000004020df4e                X509V3_EXT_add_nconf
                0x000000004020df6d                X509V3_EXT_CRL_add_nconf
                0x000000004020df8c                X509V3_EXT_REQ_add_nconf
                0x000000004020dfeb                X509V3_get_string
                0x000000004020e036                X509V3_get_section
                0x000000004020e082                X509V3_string_free
                0x000000004020e0a0                X509V3_section_free
                0x000000004020e0be                X509V3_set_nconf
                0x000000004020e0d0                X509V3_set_ctx
                0x000000004020e0e9                X509V3_EXT_conf
                0x000000004020e132                X509V3_EXT_conf_nid
                0x000000004020e17b                X509V3_set_conf_lhash
                0x000000004020e18d                X509V3_EXT_add_conf
                0x000000004020e1d6                X509V3_EXT_CRL_add_conf
                0x000000004020e21f                X509V3_EXT_REQ_add_conf
                0x000000004020e3bf                ACCESS_DESCRIPTION_free
                0x000000004020e3cf                d2i_ACCESS_DESCRIPTION
                0x000000004020e3df                i2d_ACCESS_DESCRIPTION
                0x000000004020e3ef                ACCESS_DESCRIPTION_new
                0x000000004020e619                d2i_AUTHORITY_INFO_ACCESS
                0x000000004020e629                i2d_AUTHORITY_INFO_ACCESS
                0x000000004020e639                AUTHORITY_INFO_ACCESS_new
                0x000000004020e649                AUTHORITY_INFO_ACCESS_free
                0x000000004020e659                i2a_ACCESS_DESCRIPTION
                0x000000004020e69c                X509V3_EXT_add
                0x000000004020e730                X509V3_EXT_get_nid
                0x000000004020e7a8                X509V3_EXT_get
                0x000000004020e7c6                X509V3_EXT_add_list
                0x000000004020e804                X509V3_EXT_add_alias
                0x000000004020e8ff                X509V3_EXT_cleanup
                0x000000004020e921                X509V3_add_standard_extensions
                0x000000004020e92c                X509V3_EXT_d2i
                0x000000004020e987                X509V3_get_d2i
                0x000000004020eaaf                X509V3_add1_i2d
                0x000000004020fa70                d2i_PROXY_POLICY
                0x000000004020fa80                i2d_PROXY_POLICY
                0x000000004020fa90                PROXY_POLICY_new
                0x000000004020faa0                PROXY_POLICY_free
                0x000000004020fab0                d2i_PROXY_CERT_INFO_EXTENSION
                0x000000004020fac0                i2d_PROXY_CERT_INFO_EXTENSION
                0x000000004020fad0                PROXY_CERT_INFO_EXTENSION_new
                0x000000004020fae0                PROXY_CERT_INFO_EXTENSION_free
                0x000000004020fb81                d2i_PKEY_USAGE_PERIOD
                0x000000004020fb91                i2d_PKEY_USAGE_PERIOD
                0x000000004020fba1                PKEY_USAGE_PERIOD_new
                0x000000004020fbb1                PKEY_USAGE_PERIOD_free
                0x000000004020fbd0                i2s_ASN1_OCTET_STRING
                0x000000004020fbe5                s2i_ASN1_OCTET_STRING
                0x000000004020fe97                d2i_SXNETID
                0x000000004020fea7                i2d_SXNETID
                0x000000004020feb7                SXNETID_new
                0x000000004020fec7                SXNETID_free
                0x000000004020fed7                d2i_SXNET
                0x000000004020fee7                i2d_SXNET
                0x000000004020fef7                SXNET_new
                0x000000004020ff07                SXNET_free
                0x000000004020ff17                SXNET_get_id_INTEGER
                0x000000004020ff76                SXNET_get_id_ulong
                0x0000000040210007                SXNET_get_id_asc
                0x0000000040210076                SXNET_add_id_INTEGER
                0x0000000040210236                SXNET_add_id_ulong
                0x00000000402102d4                SXNET_add_id_asc
                0x00000000402103a8                X509_get_default_private_dir
                0x00000000402103b3                X509_get_default_cert_area
                0x00000000402103be                X509_get_default_cert_dir
                0x00000000402103c9                X509_get_default_cert_file
                0x00000000402103d4                X509_get_default_cert_dir_env
                0x00000000402103df                X509_get_default_cert_file_env
                0x0000000040210431                i2d_ASN1_SET
                0x000000004021069a                d2i_ASN1_SET
                0x0000000040210f5f                ASN1_generate_v3
                0x0000000040211891                ASN1_generate_nconf
                0x0000000040211a9c                BN_GF2m_add
                0x0000000040211b7a                BN_GF2m_mod_arr
                0x0000000040211e16                BN_GF2m_mod_sqr_arr
                0x0000000040211fba                BN_GF2m_mod_mul_arr
                0x0000000040212220                BN_GF2m_mod_exp_arr
                0x0000000040212357                BN_GF2m_mod_sqrt_arr
                0x00000000402123ff                BN_GF2m_mod_solve_quad_arr
                0x00000000402127c9                BN_GF2m_poly2arr
                0x0000000040212853                BN_GF2m_mod_solve_quad
                0x0000000040212920                BN_GF2m_mod_sqrt
                0x00000000402129ed                BN_GF2m_mod_exp
                0x0000000040212ac2                BN_GF2m_mod_sqr
                0x0000000040212b8f                BN_GF2m_mod_mul
                0x0000000040212c64                BN_GF2m_mod
                0x0000000040212d29                BN_GF2m_mod_inv
                0x0000000040212f09                BN_GF2m_mod_div
                0x0000000040212fa6                BN_GF2m_arr2poly
                0x000000004021300b                BN_GF2m_mod_div_arr
                0x000000004021309f                BN_GF2m_mod_inv_arr
                0x0000000040213130                CONF_set_nconf
                0x0000000040213177                CONF_set_default_method
                0x0000000040213189                CONF_load
                0x00000000402131b3                NCONF_new
                0x0000000040213200                NCONF_free
                0x0000000040213211                NCONF_free_data
                0x0000000040213222                CONF_free
                0x0000000040213241                NCONF_load
                0x0000000040213276                NCONF_load_bio
                0x00000000402132ab                CONF_load_bio
                0x00000000402132f5                NCONF_get_section
                0x0000000040213352                CONF_get_section
                0x0000000040213387                NCONF_get_string
                0x000000004021342e                CONF_get_string
                0x0000000040213475                NCONF_get_number_e
                0x0000000040213510                CONF_get_number
                0x000000004021356e                NCONF_dump_bio
                0x00000000402135a3                CONF_dump_bio
                0x00000000402135d0                DSO_METHOD_null
                0x0000000040213e9a                ec_GF2m_simple_mul
                0x00000000402140f5                ec_GF2m_precompute_mult
                0x0000000040214100                ec_GF2m_have_precompute_mult
                0x000000004021410c                i2a_ASN1_INTEGER
                0x000000004021424d                a2i_ASN1_INTEGER
                0x0000000040214550                i2a_ASN1_STRING
                0x0000000040214661                a2i_ASN1_STRING
                0x0000000040214918                d2i_OCSP_SIGNATURE
                0x0000000040214928                i2d_OCSP_SIGNATURE
                0x0000000040214938                OCSP_SIGNATURE_new
                0x0000000040214948                OCSP_SIGNATURE_free
                0x0000000040214958                d2i_OCSP_CERTID
                0x0000000040214968                i2d_OCSP_CERTID
                0x0000000040214978                OCSP_CERTID_new
                0x0000000040214988                OCSP_CERTID_free
                0x0000000040214998                d2i_OCSP_ONEREQ
                0x00000000402149a8                i2d_OCSP_ONEREQ
                0x00000000402149b8                OCSP_ONEREQ_new
                0x00000000402149c8                OCSP_ONEREQ_free
                0x00000000402149d8                d2i_OCSP_REQINFO
                0x00000000402149e8                i2d_OCSP_REQINFO
                0x00000000402149f8                OCSP_REQINFO_new
                0x0000000040214a08                OCSP_REQINFO_free
                0x0000000040214a18                d2i_OCSP_REQUEST
                0x0000000040214a28                i2d_OCSP_REQUEST
                0x0000000040214a38                OCSP_REQUEST_new
                0x0000000040214a48                OCSP_REQUEST_free
                0x0000000040214a58                d2i_OCSP_RESPBYTES
                0x0000000040214a68                i2d_OCSP_RESPBYTES
                0x0000000040214a78                OCSP_RESPBYTES_new
                0x0000000040214a88                OCSP_RESPBYTES_free
                0x0000000040214a98                d2i_OCSP_RESPONSE
                0x0000000040214aa8                i2d_OCSP_RESPONSE
                0x0000000040214ab8                OCSP_RESPONSE_new
                0x0000000040214ac8                OCSP_RESPONSE_free
                0x0000000040214ad8                d2i_OCSP_RESPID
                0x0000000040214ae8                i2d_OCSP_RESPID
                0x0000000040214af8                OCSP_RESPID_new
                0x0000000040214b08                OCSP_RESPID_free
                0x0000000040214b18                d2i_OCSP_REVOKEDINFO
                0x0000000040214b28                i2d_OCSP_REVOKEDINFO
                0x0000000040214b38                OCSP_REVOKEDINFO_new
                0x0000000040214b48                OCSP_REVOKEDINFO_free
                0x0000000040214b58                d2i_OCSP_CERTSTATUS
                0x0000000040214b68                i2d_OCSP_CERTSTATUS
                0x0000000040214b78                OCSP_CERTSTATUS_new
                0x0000000040214b88                OCSP_CERTSTATUS_free
                0x0000000040214b98                d2i_OCSP_SINGLERESP
                0x0000000040214ba8                i2d_OCSP_SINGLERESP
                0x0000000040214bb8                OCSP_SINGLERESP_new
                0x0000000040214bc8                OCSP_SINGLERESP_free
                0x0000000040214bd8                d2i_OCSP_RESPDATA
                0x0000000040214be8                i2d_OCSP_RESPDATA
                0x0000000040214bf8                OCSP_RESPDATA_new
                0x0000000040214c08                OCSP_RESPDATA_free
                0x0000000040214c18                d2i_OCSP_BASICRESP
                0x0000000040214c28                i2d_OCSP_BASICRESP
                0x0000000040214c38                OCSP_BASICRESP_new
                0x0000000040214c48                OCSP_BASICRESP_free
                0x0000000040214c58                d2i_OCSP_CRLID
                0x0000000040214c68                i2d_OCSP_CRLID
                0x0000000040214c78                OCSP_CRLID_new
                0x0000000040214c88                OCSP_CRLID_free
                0x0000000040214c98                d2i_OCSP_SERVICELOC
                0x0000000040214ca8                i2d_OCSP_SERVICELOC
                0x0000000040214cb8                OCSP_SERVICELOC_new
                0x0000000040214cc8                OCSP_SERVICELOC_free
                0x000000004021508c                v2i_ASN1_BIT_STRING
                0x000000004021520f                i2v_ASN1_BIT_STRING
                0x0000000040215264                i2s_ASN1_ENUMERATED_TABLE
                0x0000000040215430                d2i_EXTENDED_KEY_USAGE
                0x0000000040215440                i2d_EXTENDED_KEY_USAGE
                0x0000000040215450                EXTENDED_KEY_USAGE_new
                0x0000000040215460                EXTENDED_KEY_USAGE_free
                0x00000000402156d8                _CONF_get_section
                0x000000004021570c                _CONF_get_section_values
                0x0000000040215727                _CONF_add_string
                0x00000000402157b2                _CONF_get_string
                0x0000000040215850                _CONF_new_data
                0x0000000040215892                _CONF_free_data
                0x00000000402158e3                _CONF_new_section
                0x0000000040216871                NCONF_default
                0x000000004021687c                NCONF_WIN32
                0x0000000040216888                codeend = .

.iplt           0x0000000040216890        0x0 load address 0x0000000000216890
 .iplt          0x0000000000000000        0x0 output.o

.rodata         0x00000000402168a0    0x34fcc load address 0x00000000002168a0
 .rodata        0x00000000402168a0    0x34fcc output.o
                0x0000000040224a40                BN_version
                0x0000000040224e60                DES_SPtrans
                0x0000000040225e60                DH_version
                0x0000000040227340                OSSL_DES_version
                0x0000000040227380                OSSL_libdes_version
                0x0000000040227460                EVP_version
                0x0000000040227520                IDEA_version
                0x0000000040227560                lh_version
                0x0000000040227ba0                MD4_version
                0x0000000040227be0                MD5_version
                0x0000000040234760                PEM_version
                0x00000000402347c0                PKCS7_ATTR_VERIFY_it
                0x0000000040234800                PKCS7_ATTR_SIGN_it
                0x0000000040234840                PKCS7_DIGEST_it
                0x0000000040234880                PKCS7_ENCRYPT_it
                0x00000000402348c0                PKCS7_SIGN_ENVELOPE_it
                0x0000000040234900                PKCS7_ENC_CONTENT_it
                0x0000000040234940                PKCS7_RECIP_INFO_it
                0x0000000040234980                PKCS7_ENVELOPE_it
                0x00000000402349c0                PKCS7_ISSUER_AND_SERIAL_it
                0x0000000040234a00                PKCS7_SIGNER_INFO_it
                0x0000000040234a40                PKCS7_SIGNED_it
                0x0000000040234a80                PKCS7_it
                0x0000000040235540                RC2_version
                0x0000000040235680                RC4_version
                0x00000000402356c0                RMD160_version
                0x0000000040235700                RSAPublicKey_it
                0x0000000040235740                RSAPrivateKey_it
                0x00000000402359e0                RSA_version
                0x0000000040236be0                SHA1_version
                0x0000000040236c20                SHA256_version
                0x0000000040236d60                SHA512_version
                0x0000000040237020                SHA_version
                0x0000000040237060                STACK_version
                0x00000000402372c0                ASN1_SET_ANY_it
                0x0000000040237300                ASN1_SEQUENCE_ANY_it
                0x0000000040237340                ASN1_OCTET_STRING_NDEF_it
                0x0000000040237380                ASN1_FBOOLEAN_it
                0x00000000402373c0                ASN1_TBOOLEAN_it
                0x0000000040237400                ASN1_BOOLEAN_it
                0x0000000040237440                DIRECTORYSTRING_it
                0x0000000040237480                DISPLAYTEXT_it
                0x00000000402374c0                ASN1_PRINTABLE_it
                0x0000000040237500                ASN1_SEQUENCE_it
                0x0000000040237540                ASN1_ANY_it
                0x0000000040237580                ASN1_BMPSTRING_it
                0x00000000402375c0                ASN1_UNIVERSALSTRING_it
                0x0000000040237600                ASN1_VISIBLESTRING_it
                0x0000000040237640                ASN1_GENERALIZEDTIME_it
                0x0000000040237680                ASN1_UTCTIME_it
                0x00000000402376c0                ASN1_GENERALSTRING_it
                0x0000000040237700                ASN1_IA5STRING_it
                0x0000000040237740                ASN1_T61STRING_it
                0x0000000040237780                ASN1_PRINTABLESTRING_it
                0x00000000402377c0                ASN1_UTF8STRING_it
                0x0000000040237800                ASN1_OBJECT_it
                0x0000000040237840                ASN1_NULL_it
                0x0000000040237880                ASN1_OCTET_STRING_it
                0x00000000402378c0                ASN1_BIT_STRING_it
                0x0000000040237900                ASN1_ENUMERATED_it
                0x0000000040237940                ASN1_INTEGER_it
                0x0000000040237a20                X509_version
                0x0000000040237b80                X509_ALGORS_it
                0x0000000040237bc0                X509_ALGOR_it
                0x0000000040237ca0                X509_ATTRIBUTE_it
                0x0000000040237ce0                X509_ATTRIBUTE_SET_it
                0x0000000040237de0                CBIGNUM_it
                0x0000000040237e20                BIGNUM_it
                0x0000000040237e60                X509_CRL_it
                0x0000000040237ea0                X509_CRL_INFO_it
                0x0000000040237ee0                X509_REVOKED_it
                0x00000000402381c0                X509_EXTENSIONS_it
                0x0000000040238200                X509_EXTENSION_it
                0x0000000040238300                ZLONG_it
                0x0000000040238340                LONG_it
                0x0000000040238380                X509_NAME_it
                0x00000000402383c0                x509_name_ff
                0x0000000040238400                X509_NAME_INTERNAL_it
                0x0000000040238440                X509_NAME_ENTRIES_it
                0x0000000040238480                X509_NAME_ENTRY_it
                0x00000000402385a0                X509_PUBKEY_it
                0x0000000040238680                X509_REQ_it
                0x00000000402386c0                X509_REQ_INFO_it
                0x00000000402388a0                X509_SIG_it
                0x0000000040238940                NETSCAPE_SPKI_it
                0x0000000040238980                NETSCAPE_SPKAC_it
                0x0000000040238aa0                X509_it
                0x0000000040238ae0                X509_CINF_it
                0x0000000040238dc0                X509_CERT_PAIR_it
                0x0000000040238e00                X509_CERT_AUX_it
                0x0000000040239400                rsa_pkey_meth
                0x00000000402394e0                dh_pkey_meth
                0x00000000402395c0                dsa_pkey_meth
                0x00000000402396a0                ec_pkey_meth
                0x0000000040239780                hmac_pkey_meth
                0x00000000402398a0                rsa_asn1_meths
                0x0000000040239a20                dh_asn1_meth
                0x0000000040239ae0                dsa_asn1_meths
                0x0000000040239e80                eckey_asn1_meth
                0x0000000040239f40                hmac_asn1_meth
                0x000000004023b080                CMS_Receipt_it
                0x000000004023b0c0                CMS_ReceiptRequest_it
                0x000000004023b100                CMS_ReceiptsFrom_it
                0x000000004023b140                CMS_Attributes_Verify_it
                0x000000004023b180                CMS_Attributes_Sign_it
                0x000000004023b1c0                CMS_ContentInfo_it
                0x000000004023b200                CMS_CompressedData_it
                0x000000004023b240                CMS_AuthenticatedData_it
                0x000000004023b280                CMS_EncryptedData_it
                0x000000004023b2c0                CMS_DigestedData_it
                0x000000004023b300                CMS_EnvelopedData_it
                0x000000004023b340                CMS_RecipientInfo_it
                0x000000004023b380                CMS_OtherRecipientInfo_it
                0x000000004023b3c0                CMS_PasswordRecipientInfo_it
                0x000000004023b400                CMS_KEKRecipientInfo_it
                0x000000004023b440                CMS_KEKIdentifier_it
                0x000000004023b480                CMS_KeyAgreeRecipientInfo_it
                0x000000004023b4c0                CMS_OriginatorIdentifierOrKey_it
                0x000000004023b500                CMS_OriginatorPublicKey_it
                0x000000004023b540                CMS_RecipientEncryptedKey_it
                0x000000004023b580                CMS_KeyAgreeRecipientIdentifier_it
                0x000000004023b5c0                CMS_RecipientKeyIdentifier_it
                0x000000004023b600                CMS_OtherKeyAttribute_it
                0x000000004023b640                CMS_KeyTransRecipientInfo_it
                0x000000004023b680                CMS_EncryptedContentInfo_it
                0x000000004023b6c0                CMS_OriginatorInfo_it
                0x000000004023b700                CMS_SignedData_it
                0x000000004023b740                CMS_RevocationInfoChoice_it
                0x000000004023b780                CMS_OtherRevocationInfoFormat_it
                0x000000004023b7c0                CMS_SignerInfo_it
                0x000000004023b800                CMS_EncapsulatedContentInfo_it
                0x000000004023b840                CMS_SignerIdentifier_it
                0x000000004023b880                CMS_CertificateChoices_it
                0x000000004023b8c0                CMS_OtherCertificateFormat_it
                0x000000004023b900                CMS_IssuerAndSerialNumber_it
                0x000000004023d140                ASN1_TIME_it
                0x000000004023d1c0                ASN1_version
                0x000000004023d320                BF_version
                0x000000004023f4c0                CAST_version
                0x000000004023f580                CAST_S_table7
                0x000000004023f980                CAST_S_table6
                0x000000004023fd80                CAST_S_table5
                0x0000000040240180                CAST_S_table4
                0x0000000040240580                CAST_S_table3
                0x0000000040240980                CAST_S_table2
                0x0000000040240d80                CAST_S_table1
                0x0000000040241180                CAST_S_table0
                0x00000000402417c0                DHparams_it
                0x00000000402418c0                DSAPublicKey_it
                0x0000000040241900                dsa_pub_internal_it
                0x0000000040241940                DSAparams_it
                0x0000000040241980                DSAPrivateKey_it
                0x00000000402419c0                DSA_SIG_it
                0x0000000040241de0                DSA_version
                0x0000000040241e20                EC_PRIVATEKEY_it
                0x0000000040241e60                ECPKPARAMETERS_it
                0x0000000040241ea0                ECPARAMETERS_it
                0x0000000040241ee0                X9_62_CURVE_it
                0x0000000040241f20                X9_62_FIELDID_it
                0x0000000040241f60                X9_62_CHARACTERISTIC_TWO_it
                0x0000000040241fa0                X9_62_PENTANOMIAL_it
                0x0000000040245f60                ECDH_version
                0x0000000040246360                ECDSA_version
                0x0000000040246660                RAND_version
                0x00000000402466a0                NETSCAPE_CERT_SEQUENCE_it
                0x0000000040246780                PBEPARAM_it
                0x0000000040246820                PBKDF2PARAM_it
                0x0000000040246860                PBE2PARAM_it
                0x00000000402469a0                PKCS8_PRIV_KEY_INFO_it
                0x0000000040246b60                AUTHORITY_KEYID_it
                0x0000000040246c20                NOTICEREF_it
                0x0000000040246c60                USERNOTICE_it
                0x0000000040246ca0                POLICYQUALINFO_it
                0x0000000040246ce0                POLICYINFO_it
                0x0000000040246d20                CERTIFICATEPOLICIES_it
                0x0000000040246d60                v3_cpols
                0x0000000040247080                v3_idp
                0x0000000040247100                ISSUING_DIST_POINT_it
                0x0000000040247140                CRL_DIST_POINTS_it
                0x0000000040247180                DIST_POINT_it
                0x00000000402471c0                DIST_POINT_NAME_it
                0x0000000040247200                v3_freshest_crl
                0x0000000040247280                v3_crld
                0x0000000040247740                GENERAL_NAMES_it
                0x0000000040247780                GENERAL_NAME_it
                0x00000000402477c0                EDIPARTYNAME_it
                0x0000000040247800                OTHERNAME_it
                0x0000000040247ac0                NAME_CONSTRAINTS_it
                0x0000000040247b00                GENERAL_SUBTREE_it
                0x0000000040247b40                v3_name_constraints
                0x0000000040247ca0                POLICY_CONSTRAINTS_it
                0x0000000040247ce0                v3_policy_constraints
                0x0000000040247dc0                POLICY_MAPPINGS_it
                0x0000000040247e00                POLICY_MAPPING_it
                0x0000000040247e40                v3_policy_mappings
                0x0000000040247fc0                X509_VAL_it
                0x0000000040248a60                ECDSA_SIG_it
                0x0000000040248b00                PKCS12_AUTHSAFES_it
                0x0000000040248b40                PKCS12_SAFEBAGS_it
                0x0000000040248b80                PKCS12_SAFEBAG_it
                0x0000000040248bc0                PKCS12_BAGS_it
                0x0000000040248c00                PKCS12_MAC_DATA_it
                0x0000000040248c40                PKCS12_it
                0x0000000040249280                v3_alt
                0x00000000402493c0                BASIC_CONSTRAINTS_it
                0x0000000040249400                v3_bcons
                0x00000000402494e0                AUTHORITY_INFO_ACCESS_it
                0x0000000040249520                ACCESS_DESCRIPTION_it
                0x0000000040249560                v3_sinfo
                0x00000000402495e0                v3_info
                0x0000000040249700                v3_ocsp_serviceloc
                0x0000000040249780                v3_ocsp_nocheck
                0x0000000040249800                v3_ocsp_nonce
                0x0000000040249880                v3_crl_hold
                0x0000000040249900                v3_crl_invdate
                0x0000000040249980                v3_ocsp_acutoff
                0x0000000040249a00                v3_ocsp_crlid
                0x0000000040249a80                v3_pci
                0x0000000040249b00                PROXY_CERT_INFO_EXTENSION_it
                0x0000000040249b40                PROXY_POLICY_it
                0x0000000040249c40                PKEY_USAGE_PERIOD_it
                0x0000000040249c80                v3_pkey_usage_period
                0x0000000040249d60                v3_skey_id
                0x0000000040249de0                SXNET_it
                0x0000000040249e20                SXNETID_it
                0x0000000040249e60                v3_sxnet
                0x000000004024a440                CONF_version
                0x000000004024a480                OCSP_SERVICELOC_it
                0x000000004024a4c0                OCSP_CRLID_it
                0x000000004024a500                OCSP_BASICRESP_it
                0x000000004024a540                OCSP_RESPDATA_it
                0x000000004024a580                OCSP_SINGLERESP_it
                0x000000004024a5c0                OCSP_CERTSTATUS_it
                0x000000004024a600                OCSP_REVOKEDINFO_it
                0x000000004024a640                OCSP_RESPID_it
                0x000000004024a680                OCSP_RESPONSE_it
                0x000000004024a6c0                OCSP_RESPBYTES_it
                0x000000004024a700                OCSP_REQUEST_it
                0x000000004024a740                OCSP_REQINFO_it
                0x000000004024a780                OCSP_ONEREQ_it
                0x000000004024a7c0                OCSP_CERTID_it
                0x000000004024a800                OCSP_SIGNATURE_it
                0x000000004024b000                v3_akey_id
                0x000000004024b080                v3_key_usage
                0x000000004024b100                v3_nscert
                0x000000004024b180                v3_crl_reason
                0x000000004024b200                EXTENDED_KEY_USAGE_it
                0x000000004024b240                v3_ocsp_accresp
                0x000000004024b2c0                v3_ext_ku
                0x000000004024b380                v3_ns_ia5_list
                0x000000004024b6c0                v3_inhibit_anyp
                0x000000004024b740                v3_delta_crl
                0x000000004024b7c0                v3_crl_num
                0x000000004024b840                CONF_def_version

.rodata.str1.1  0x000000004024b86c    0x12c07 load address 0x000000000024b86c
 .rodata.str1.1
                0x000000004024b86c    0x12c07 output.o
                                      0x1502f (size before relaxing)

.rodata.str1.8  0x000000004025e478     0x9840 load address 0x000000000025e478
 .rodata.str1.8
                0x000000004025e478     0x9840 output.o
                                       0x9b65 (size before relaxing)

.eh_frame       0x0000000040267cb8    0x37650 load address 0x0000000000267cb8
 .eh_frame      0x0000000040267cb8    0x37650 output.o

.eh_frame_hdr   0x000000004029f308        0x8 load address 0x000000000029f308
 .eh_frame_hdr  0x000000004029f308        0x8 output.o

.note.gnu.build-id
                0x000000004029f310      0x288 load address 0x000000000029f310
 .note.gnu.build-id
                0x000000004029f310      0x288 output.o

.rela.dyn       0x000000004029f598        0x0 load address 0x000000000029f598
 .rela.iplt     0x0000000000000000        0x0 output.o
 .rela.text     0x0000000000000000        0x0 output.o

.data           0x00000000402a0000  0x9837000 load address 0x00000000002a0000
                0x00000000402a0000                data = .
 *(.data)
 .data          0x00000000402a0000   0x9eaa53 output.o
                0x00000000402a0020                config
                0x00000000402b0190                use_pae
                0x00000000402b03b0                savemsr_index
                0x00000000402b1000                vmm_pml4
                0x00000000402b2000                vmm_pdp
                0x00000000402b3000                vmm_pd
                0x00000000402b4000                vmm_pd1
                0x00000000402b5000                vmm_pd2
                0x00000000402b6000                guest_int0x15_hook
                0x00000000402b601d                guest_int0x15_e801_fake_ax
                0x00000000402b6020                guest_int0x15_e801_fake_bx
                0x00000000402b6031                guest_int0x15_orig
                0x00000000402b6046                guest_int0x15_e820_data_minus0x18
                0x00000000402b604e                guest_int0x15_e820_end
                0x00000000402b6074                guest_int0x15_hook_end
                0x00000000402b7078                wakeup_entry_start
                0x00000000402b7081                wakeup_entry_addr
                0x00000000402b70a7                wakeup_entry_cr4
                0x00000000402b70b0                wakeup_entry_cr3
                0x00000000402b70b9                wakeup_entry_cr0
                0x00000000402b70c8                wakeup_entry_gdtr
                0x00000000402b70d2                wakeup_entry_end
                0x00000000402b70d4                ept_spinlock
                0x00000000402b7160                ata_bm_handler_table
                0x00000000402b71a0                ata_ctlblk_handler_table
                0x00000000402b71c0                ata_cmdblk_handler_table
                0x00000000402b7c70                usb_log_level
                0x00000000402b8600                hSessionCnt
                0x00000000402b8608                hObjectCnt
                0x00000000402b8e00                g_rgSCardT1Pci
                0x00000000402b8e10                g_rgSCardT0Pci
                0x00000000402b8e20                FI
                0x00000000402b8e60                DI
                0x00000000402bd480                default_pctx
                0x00000000402c0720                rand_ssleay_meth
                0x0000000040c8aa58                . = ALIGN (0x8)
 *fill*         0x0000000040c8aa53        0x5 00
                0x0000000040c8aa58                __initfunc_start = .
 *(.initfunc)
 .initfunc      0x0000000040c8aa58      0x640 output.o
                0x0000000040c8aa58                __initfunc_acpi_init_paral
                0x0000000040c8aa68                __initfunc_acpi_init_global
                0x0000000040c8aa78                __initfunc_beep_init_msg
                0x0000000040c8aa88                __initfunc_cache_init_pass
                0x0000000040c8aa98                __initfunc_cache_init_vcpu
                0x0000000040c8aaa8                __initfunc_cache_init_pcpu
                0x0000000040c8aab8                __initfunc_callrealmode_panic
                0x0000000040c8aac8                __initfunc_callrealmode_init_global
                0x0000000040c8aad8                __initfunc_cpu_mmu_spt_init_pcpu
                0x0000000040c8aae8                __initfunc_cpu_mmu_spt_init_global
                0x0000000040c8aaf8                __initfunc_cpuid_init
                0x0000000040c8ab08                __initfunc_cpuid_pass_init
                0x0000000040c8ab18                __initfunc_exint_pass_init
                0x0000000040c8ab28                __initfunc_gmm_pass_init
                0x0000000040c8ab38                __initfunc_install_int0x15_hook
                0x0000000040c8ab48                __initfunc_idman_init
                0x0000000040c8ab58                __initfunc_idman_init_global
                0x0000000040c8ab68                __initfunc_int_wakeup
                0x0000000040c8ab78                __initfunc_int_init_global
                0x0000000040c8ab88                __initfunc_io_io_init
                0x0000000040c8ab98                __initfunc_setiohooks
                0x0000000040c8aba8                __initfunc_io_iopass_init
                0x0000000040c8abb8                __initfunc_keyboard_init_msg
                0x0000000040c8abc8                __initfunc_localapic_init
                0x0000000040c8abd8                __initfunc_get_shiftflags
                0x0000000040c8abe8                __initfunc_copy_minios
                0x0000000040c8abf8                __initfunc_print_boot_msg
                0x0000000040c8ac08                __initfunc_debug_on_shift_key
                0x0000000040c8ac18                __initfunc_create_pass_vm
                0x0000000040c8ac28                __initfunc_virtualization_init_pcpu
                0x0000000040c8ac38                __initfunc_unmap_user_area
                0x0000000040c8ac48                __initfunc_mm_init_global
                0x0000000040c8ac58                __initfunc_mmio_debug
                0x0000000040c8ac68                __initfunc_mmio_init
                0x0000000040c8ac78                __initfunc_msg_init_global
                0x0000000040c8ac88                __initfunc_msr_init
                0x0000000040c8ac98                __initfunc_msr_pass_init
                0x0000000040c8aca8                __initfunc_nmi_pass_init_pcpu
                0x0000000040c8acb8                __initfunc_nmi_pass_init
                0x0000000040c8acc8                __initfunc_panic_init_pcpu
                0x0000000040c8acd8                __initfunc_panic_init_msg
                0x0000000040c8ace8                __initfunc_panic_init_global3
                0x0000000040c8acf8                __initfunc_panic_init_global
                0x0000000040c8ad08                __initfunc_printf_init_global
                0x0000000040c8ad18                __initfunc_process_wakeup
                0x0000000040c8ad28                __initfunc_process_init_ap
                0x0000000040c8ad38                __initfunc_process_init_global
                0x0000000040c8ad48                __initfunc_random_init_config0
                0x0000000040c8ad58                __initfunc_random_init_global
                0x0000000040c8ad68                __initfunc_reboot_init_msg
                0x0000000040c8ad78                __initfunc_segment_init_global
                0x0000000040c8ad88                __initfunc_serial_init_msg
                0x0000000040c8ad98                __initfunc_sleep_init_msg
                0x0000000040c8ada8                __initfunc_sleep_init_global
                0x0000000040c8adb8                __initfunc_svm_panic
                0x0000000040c8adc8                __initfunc_sx_init_pass_init
                0x0000000040c8add8                __initfunc_thread_init_pcpu
                0x0000000040c8ade8                __initfunc_thread_init_global
                0x0000000040c8adf8                __initfunc_time_init_msg
                0x0000000040c8ae08                __initfunc_time_init_pcpu
                0x0000000040c8ae18                __initfunc_time_init_global_status
                0x0000000040c8ae28                __initfunc_time_init_global
                0x0000000040c8ae38                __initfunc_timer_init_global
                0x0000000040c8ae48                __initfunc_tty_init_msg
                0x0000000040c8ae58                __initfunc_tty_init_global2
                0x0000000040c8ae68                __initfunc_tty_init_global
                0x0000000040c8ae78                __initfunc_vcpu_init_global
                0x0000000040c8ae88                __initfunc_vga_init
                0x0000000040c8ae98                __initfunc_vmmcall_init
                0x0000000040c8aea8                __initfunc_vmmcall_boot_init
                0x0000000040c8aeb8                __initfunc_vmmcall_dbgsh_init_pcpu
                0x0000000040c8aec8                __initfunc_vmmcall_dbgsh_init_global
                0x0000000040c8aed8                __initfunc_vmmcall_dbgsh_init
                0x0000000040c8aee8                __initfunc_vmmcall_iccard_init
                0x0000000040c8aef8                __initfunc_vmmcall_log_init
                0x0000000040c8af08                __initfunc_vmmcall_status_init
                0x0000000040c8af18                __initfunc_vmmcall_status_init_global
                0x0000000040c8af28                __initfunc_vramwrite_init_bsp
                0x0000000040c8af38                __initfunc_vramwrite_init_msg
                0x0000000040c8af48                __initfunc_vt_register_status_callback
                0x0000000040c8af58                __initfunc_vt_panic
                0x0000000040c8af68                __initfunc_xsetbv_init
                0x0000000040c8af78                __initfunc_xsetbv_pass_init
                0x0000000040c8af88                __initfunc_core_init
                0x0000000040c8af98                __initfunc_ieee1394_init_boot
                0x0000000040c8afa8                __initfunc_ieee1394_init
                0x0000000040c8afb8                __initfunc_iommu_setup
                0x0000000040c8afc8                __initfunc_pci_init
                0x0000000040c8afd8                __initfunc_debug_ata_init
                0x0000000040c8afe8                __initfunc_ata_init
                0x0000000040c8aff8                __initfunc_uhci_init
                0x0000000040c8b008                __initfunc_ehci_init
                0x0000000040c8b018                __initfunc_pro100_init
                0x0000000040c8b028                __initfunc_suspend_pro1000
                0x0000000040c8b038                __initfunc_resume_pro1000
                0x0000000040c8b048                __initfunc_vpn_pro1000_init
                0x0000000040c8b058                __initfunc_storage_kernel_init
                0x0000000040c8b068                __initfunc_storage_io_initfunc
                0x0000000040c8b078                __initfunc_vpn_kernel_init
                0x0000000040c8b088                __initfunc_idman_kernel_init
                0x0000000040c8b098                __initfunc_end = .
                0x0000000040c8b098                __process_builtin = .
 *(.processes)
 .processes     0x0000000040c8b098      0x1a0 output.o
                0x0000000040c8b238                __process_builtin_end = .
                0x0000000040c8b238                bss = .
 *(.bss)
 *fill*         0x0000000040c8b238        0x8 00
 .bss           0x0000000040c8b240  0x8e4a8c0 output.o
                0x0000000040c8eaa0                vmmsize
                0x0000000040c8eaa8                memorysize
                0x0000000041192560                pcpu_default
                0x00000000411afdc4                ps2_locked
                0x00000000411b0270                protecting
                0x00000000411b0278                syscallHandlerAddress
                0x00000000411b0280                currentProtectedApplication
                0x00000000411b0288                target
                0x00000000411b0290                numberOfVMs
                0x00000000411b0298                numberOfProtectedApplications
                0x00000000411b02a0                currentRunningApplication
                0x00000000499b0a00                syscall_metatata_table
                0x00000000499b0a20                handler_descriptor
                0x00000000499b0c28                drhd_list_head
                0x00000000499b2460                pci_driver_list_head
                0x00000000499b2468                pci_device_list_head
                0x00000000499b2610                uhci_monitor_boost_hc
                0x00000000499b2628                usb_hc_list_head
                0x00000000499b2630                usb_busses_head
                0x00000000499b9f48                rt
                0x0000000049ad3970                hContext
                0x0000000049ad3978                sessionTable
                0x0000000049ad3980                slotTable
                0x0000000049ad3988                slotFlag
                0x0000000049ad3989                libInitFlag
                0x0000000049ad45e0                OPENSSL_NONPIC_relocated
                0x0000000049ad45e8                OPENSSL_ia32cap_P
                0x0000000049ad5228                cleanse_ctr
                0x0000000049ad5288                obj_cleanup_defer
                0x0000000049ad52a8                _shadow_DES_check_key
                0x0000000049ad53a8                app_pkey_methods
                0x0000000049ad5400                chelp_inited
 *(COMMON)
 COMMON         0x0000000049ad5b00     0x12c4 output.o
                0x0000000049ad5b00                clflush_size
                0x0000000049ad5b20                sReaderContext
                0x0000000049ad5b80                sigx_app
                0x0000000049ad5b88                num_dom
                0x0000000049ad5ba0                mszReaders
                0x0000000049ad5fa0                zero_page_pool
                0x0000000049ad63a0                prohibit_iccard_init
                0x0000000049ad63a8                curthread
                0x0000000049ad63b0                sig_app
                0x0000000049ad63c0                readerState
                0x0000000049ad6440                dom_io
                0x0000000049ad6c40                acpi_dsdt_system_state
                0x0000000049ad6c60                ehci_host
                0x0000000049ad6c68                num_of_processors
                0x0000000049ad6c6c                e801_fake_bx
                0x0000000049ad6c6e                iommu_detected
                0x0000000049ad6c70                dwReaders
                0x0000000049ad6c80                readerTracker
                0x0000000049ad6dc0                handler_descriptor_lock
                0x0000000049ad6dc2                e801_fake_ax
                0x0000000049ad7000                . = ALIGN (0x1000)
 *fill*         0x0000000049ad6dc4      0x23c 00

.igot.plt       0x0000000049ad7000        0x0 load address 0x0000000009ad7000
 .igot.plt      0x0000000000000000        0x0 output.o
                0x0000000049ad7000                . = ALIGN (0x1000)
                0x0000000049ad7000                PAGE_POOL_START = .
                0x0000000049ed7000                . = (PAGE_POOL_START + 0x400000)
                0x0000000049ed7000                end = .

/DISCARD/
 *(.gomi)
LOAD output.o
OUTPUT(bitvisor.elf elf64-x86-64)

.comment        0x0000000000000000       0x2a
 .comment       0x0000000000000000       0x2a output.o
                                       0x5de5 (size before relaxing)

.note.GNU-stack
                0x0000000000000000        0x0
 .note.GNU-stack
                0x0000000000000000        0x0 output.o

.debug_aranges  0x0000000000000000     0x6a20
 .debug_aranges
                0x0000000000000000     0x6a20 output.o

.debug_info     0x0000000000000000   0x2a1ad1
 .debug_info    0x0000000000000000   0x2a1ad1 output.o

.debug_abbrev   0x0000000000000000    0x4474f
 .debug_abbrev  0x0000000000000000    0x4474f output.o

.debug_line     0x0000000000000000    0x4d577
 .debug_line    0x0000000000000000    0x4d577 output.o

.debug_str      0x0000000000000000    0x36f2c
 .debug_str     0x0000000000000000    0x36f2c output.o
                                     0x127811 (size before relaxing)

.debug_loc      0x0000000000000000   0x24034c
 .debug_loc     0x0000000000000000   0x24034c output.o

.debug_ranges   0x0000000000000000     0x7b40
 .debug_ranges  0x0000000000000000     0x7b40 output.o

Cross Reference Table

Symbol                                            File
ACCESS_DESCRIPTION_free                           output.o
ACCESS_DESCRIPTION_it                             output.o
ACCESS_DESCRIPTION_new                            output.o
AES_cbc_encrypt                                   output.o
AES_cfb128_encrypt                                output.o
AES_cfb1_encrypt                                  output.o
AES_cfb8_encrypt                                  output.o
AES_decrypt                                       output.o
AES_ecb_encrypt                                   output.o
AES_encrypt                                       output.o
AES_ofb128_encrypt                                output.o
AES_set_decrypt_key                               output.o
AES_set_encrypt_key                               output.o
AES_unwrap_key                                    output.o
AES_wrap_key                                      output.o
ASN1_ANY_it                                       output.o
ASN1_BIT_STRING_check                             output.o
ASN1_BIT_STRING_free                              output.o
ASN1_BIT_STRING_get_bit                           output.o
ASN1_BIT_STRING_it                                output.o
ASN1_BIT_STRING_new                               output.o
ASN1_BIT_STRING_set                               output.o
ASN1_BIT_STRING_set_bit                           output.o
ASN1_BMPSTRING_free                               output.o
ASN1_BMPSTRING_it                                 output.o
ASN1_BMPSTRING_new                                output.o
ASN1_BOOLEAN_it                                   output.o
ASN1_ENUMERATED_free                              output.o
ASN1_ENUMERATED_get                               output.o
ASN1_ENUMERATED_it                                output.o
ASN1_ENUMERATED_new                               output.o
ASN1_ENUMERATED_set                               output.o
ASN1_ENUMERATED_to_BN                             output.o
ASN1_FBOOLEAN_it                                  output.o
ASN1_GENERALIZEDTIME_adj                          output.o
ASN1_GENERALIZEDTIME_check                        output.o
ASN1_GENERALIZEDTIME_free                         output.o
ASN1_GENERALIZEDTIME_it                           output.o
ASN1_GENERALIZEDTIME_new                          output.o
ASN1_GENERALIZEDTIME_print                        output.o
ASN1_GENERALIZEDTIME_set                          output.o
ASN1_GENERALIZEDTIME_set_string                   output.o
ASN1_GENERALSTRING_free                           output.o
ASN1_GENERALSTRING_it                             output.o
ASN1_GENERALSTRING_new                            output.o
ASN1_IA5STRING_free                               output.o
ASN1_IA5STRING_it                                 output.o
ASN1_IA5STRING_new                                output.o
ASN1_INTEGER_cmp                                  output.o
ASN1_INTEGER_dup                                  output.o
ASN1_INTEGER_free                                 output.o
ASN1_INTEGER_get                                  output.o
ASN1_INTEGER_it                                   output.o
ASN1_INTEGER_new                                  output.o
ASN1_INTEGER_set                                  output.o
ASN1_INTEGER_to_BN                                output.o
ASN1_NULL_free                                    output.o
ASN1_NULL_it                                      output.o
ASN1_NULL_new                                     output.o
ASN1_OBJECT_create                                output.o
ASN1_OBJECT_free                                  output.o
ASN1_OBJECT_it                                    output.o
ASN1_OBJECT_new                                   output.o
ASN1_OCTET_STRING_NDEF_it                         output.o
ASN1_OCTET_STRING_cmp                             output.o
ASN1_OCTET_STRING_dup                             output.o
ASN1_OCTET_STRING_free                            output.o
ASN1_OCTET_STRING_it                              output.o
ASN1_OCTET_STRING_new                             output.o
ASN1_OCTET_STRING_set                             output.o
ASN1_PCTX_free                                    output.o
ASN1_PCTX_get_cert_flags                          output.o
ASN1_PCTX_get_flags                               output.o
ASN1_PCTX_get_nm_flags                            output.o
ASN1_PCTX_get_oid_flags                           output.o
ASN1_PCTX_get_str_flags                           output.o
ASN1_PCTX_new                                     output.o
ASN1_PCTX_set_cert_flags                          output.o
ASN1_PCTX_set_flags                               output.o
ASN1_PCTX_set_nm_flags                            output.o
ASN1_PCTX_set_oid_flags                           output.o
ASN1_PCTX_set_str_flags                           output.o
ASN1_PRINTABLESTRING_free                         output.o
ASN1_PRINTABLESTRING_it                           output.o
ASN1_PRINTABLESTRING_new                          output.o
ASN1_PRINTABLE_free                               output.o
ASN1_PRINTABLE_it                                 output.o
ASN1_PRINTABLE_new                                output.o
ASN1_PRINTABLE_type                               output.o
ASN1_SEQUENCE_ANY_it                              output.o
ASN1_SEQUENCE_it                                  output.o
ASN1_SET_ANY_it                                   output.o
ASN1_STRING_TABLE_add                             output.o
ASN1_STRING_TABLE_cleanup                         output.o
ASN1_STRING_TABLE_get                             output.o
ASN1_STRING_cmp                                   output.o
ASN1_STRING_copy                                  output.o
ASN1_STRING_data                                  output.o
ASN1_STRING_dup                                   output.o
ASN1_STRING_free                                  output.o
ASN1_STRING_get_default_mask                      output.o
ASN1_STRING_length                                output.o
ASN1_STRING_length_set                            output.o
ASN1_STRING_new                                   output.o
ASN1_STRING_print                                 output.o
ASN1_STRING_print_ex                              output.o
ASN1_STRING_set                                   output.o
ASN1_STRING_set0                                  output.o
ASN1_STRING_set_by_NID                            output.o
ASN1_STRING_set_default_mask                      output.o
ASN1_STRING_set_default_mask_asc                  output.o
ASN1_STRING_to_UTF8                               output.o
ASN1_STRING_type                                  output.o
ASN1_STRING_type_new                              output.o
ASN1_T61STRING_free                               output.o
ASN1_T61STRING_it                                 output.o
ASN1_T61STRING_new                                output.o
ASN1_TBOOLEAN_it                                  output.o
ASN1_TIME_adj                                     output.o
ASN1_TIME_check                                   output.o
ASN1_TIME_free                                    output.o
ASN1_TIME_it                                      output.o
ASN1_TIME_new                                     output.o
ASN1_TIME_print                                   output.o
ASN1_TIME_set                                     output.o
ASN1_TIME_set_string                              output.o
ASN1_TIME_to_generalizedtime                      output.o
ASN1_TYPE_cmp                                     output.o
ASN1_TYPE_free                                    output.o
ASN1_TYPE_get                                     output.o
ASN1_TYPE_get_int_octetstring                     output.o
ASN1_TYPE_get_octetstring                         output.o
ASN1_TYPE_new                                     output.o
ASN1_TYPE_set                                     output.o
ASN1_TYPE_set1                                    output.o
ASN1_TYPE_set_int_octetstring                     output.o
ASN1_TYPE_set_octetstring                         output.o
ASN1_UNIVERSALSTRING_free                         output.o
ASN1_UNIVERSALSTRING_it                           output.o
ASN1_UNIVERSALSTRING_new                          output.o
ASN1_UNIVERSALSTRING_to_string                    output.o
ASN1_UTCTIME_adj                                  output.o
ASN1_UTCTIME_check                                output.o
ASN1_UTCTIME_cmp_time_t                           output.o
ASN1_UTCTIME_free                                 output.o
ASN1_UTCTIME_it                                   output.o
ASN1_UTCTIME_new                                  output.o
ASN1_UTCTIME_print                                output.o
ASN1_UTCTIME_set                                  output.o
ASN1_UTCTIME_set_string                           output.o
ASN1_UTF8STRING_free                              output.o
ASN1_UTF8STRING_it                                output.o
ASN1_UTF8STRING_new                               output.o
ASN1_VISIBLESTRING_free                           output.o
ASN1_VISIBLESTRING_it                             output.o
ASN1_VISIBLESTRING_new                            output.o
ASN1_bn_print                                     output.o
ASN1_check_infinite_end                           output.o
ASN1_const_check_infinite_end                     output.o
ASN1_d2i_bio                                      output.o
ASN1_digest                                       output.o
ASN1_dup                                          output.o
ASN1_generate_nconf                               output.o
ASN1_generate_v3                                  output.o
ASN1_get_object                                   output.o
ASN1_i2d_bio                                      output.o
ASN1_item_d2i                                     output.o
ASN1_item_d2i_bio                                 output.o
ASN1_item_digest                                  output.o
ASN1_item_dup                                     output.o
ASN1_item_ex_d2i                                  output.o
ASN1_item_ex_free                                 output.o
ASN1_item_ex_i2d                                  output.o
ASN1_item_ex_new                                  output.o
ASN1_item_free                                    output.o
ASN1_item_i2d                                     output.o
ASN1_item_i2d_bio                                 output.o
ASN1_item_ndef_i2d                                output.o
ASN1_item_new                                     output.o
ASN1_item_pack                                    output.o
ASN1_item_print                                   output.o
ASN1_item_sign                                    output.o
ASN1_item_unpack                                  output.o
ASN1_item_verify                                  output.o
ASN1_mbstring_copy                                output.o
ASN1_mbstring_ncopy                               output.o
ASN1_object_size                                  output.o
ASN1_pack_string                                  output.o
ASN1_parse                                        output.o
ASN1_parse_dump                                   output.o
ASN1_primitive_free                               output.o
ASN1_primitive_new                                output.o
ASN1_put_eoc                                      output.o
ASN1_put_object                                   output.o
ASN1_seq_pack                                     output.o
ASN1_seq_unpack                                   output.o
ASN1_sign                                         output.o
ASN1_tag2bit                                      output.o
ASN1_tag2str                                      output.o
ASN1_template_d2i                                 output.o
ASN1_template_free                                output.o
ASN1_template_i2d                                 output.o
ASN1_template_new                                 output.o
ASN1_unpack_string                                output.o
ASN1_verify                                       output.o
ASN1_version                                      output.o
AUTHORITY_INFO_ACCESS_free                        output.o
AUTHORITY_INFO_ACCESS_it                          output.o
AUTHORITY_INFO_ACCESS_new                         output.o
AUTHORITY_KEYID_free                              output.o
AUTHORITY_KEYID_it                                output.o
AUTHORITY_KEYID_new                               output.o
AddCertDataByBuf                                  output.o
AddElem                                           output.o
AddIdPassDataByBuf                                output.o
AddObjTblByTlv                                    output.o
BASIC_CONSTRAINTS_free                            output.o
BASIC_CONSTRAINTS_it                              output.o
BASIC_CONSTRAINTS_new                             output.o
BF_cbc_encrypt                                    output.o
BF_cfb64_encrypt                                  output.o
BF_decrypt                                        output.o
BF_ecb_encrypt                                    output.o
BF_encrypt                                        output.o
BF_ofb64_encrypt                                  output.o
BF_options                                        output.o
BF_set_key                                        output.o
BF_version                                        output.o
BIGNUM_it                                         output.o
BIO_asn1_get_prefix                               output.o
BIO_asn1_get_suffix                               output.o
BIO_asn1_set_prefix                               output.o
BIO_asn1_set_suffix                               output.o
BIO_callback_ctrl                                 output.o
BIO_clear_flags                                   output.o
BIO_copy_next_retry                               output.o
BIO_ctrl                                          output.o
BIO_ctrl_pending                                  output.o
BIO_ctrl_wpending                                 output.o
BIO_dump                                          output.o
BIO_dump_cb                                       output.o
BIO_dump_indent                                   output.o
BIO_dump_indent_cb                                output.o
BIO_dup_chain                                     output.o
BIO_f_asn1                                        output.o
BIO_f_base64                                      output.o
BIO_f_buffer                                      output.o
BIO_f_cipher                                      output.o
BIO_f_md                                          output.o
BIO_find_type                                     output.o
BIO_free                                          output.o
BIO_free_all                                      output.o
BIO_get_callback                                  output.o
BIO_get_callback_arg                              output.o
BIO_get_ex_data                                   output.o
BIO_get_ex_new_index                              output.o
BIO_get_retry_BIO                                 output.o
BIO_get_retry_reason                              output.o
BIO_gets                                          output.o
BIO_indent                                        output.o
BIO_int_ctrl                                      output.o
BIO_method_name                                   output.o
BIO_method_type                                   output.o
BIO_new                                           output.o
BIO_new_CMS                                       output.o
BIO_new_NDEF                                      output.o
BIO_new_mem_buf                                   output.o
BIO_next                                          output.o
BIO_number_read                                   output.o
BIO_number_written                                output.o
BIO_pop                                           output.o
BIO_printf                                        output.o
BIO_ptr_ctrl                                      output.o
BIO_push                                          output.o
BIO_puts                                          output.o
BIO_read                                          output.o
BIO_s_mem                                         output.o
BIO_s_null                                        output.o
BIO_set                                           output.o
BIO_set_callback                                  output.o
BIO_set_callback_arg                              output.o
BIO_set_cipher                                    output.o
BIO_set_ex_data                                   output.o
BIO_set_flags                                     output.o
BIO_snprintf                                      output.o
BIO_test_flags                                    output.o
BIO_vfree                                         output.o
BIO_write                                         output.o
BN_BLINDING_convert                               output.o
BN_BLINDING_convert_ex                            output.o
BN_BLINDING_create_param                          output.o
BN_BLINDING_free                                  output.o
BN_BLINDING_get_flags                             output.o
BN_BLINDING_get_thread_id                         output.o
BN_BLINDING_invert                                output.o
BN_BLINDING_invert_ex                             output.o
BN_BLINDING_new                                   output.o
BN_BLINDING_set_flags                             output.o
BN_BLINDING_set_thread_id                         output.o
BN_BLINDING_thread_id                             output.o
BN_BLINDING_update                                output.o
BN_CTX_end                                        output.o
BN_CTX_free                                       output.o
BN_CTX_get                                        output.o
BN_CTX_init                                       output.o
BN_CTX_new                                        output.o
BN_CTX_start                                      output.o
BN_GENCB_call                                     output.o
BN_GF2m_add                                       output.o
BN_GF2m_arr2poly                                  output.o
BN_GF2m_mod                                       output.o
BN_GF2m_mod_arr                                   output.o
BN_GF2m_mod_div                                   output.o
BN_GF2m_mod_div_arr                               output.o
BN_GF2m_mod_exp                                   output.o
BN_GF2m_mod_exp_arr                               output.o
BN_GF2m_mod_inv                                   output.o
BN_GF2m_mod_inv_arr                               output.o
BN_GF2m_mod_mul                                   output.o
BN_GF2m_mod_mul_arr                               output.o
BN_GF2m_mod_solve_quad                            output.o
BN_GF2m_mod_solve_quad_arr                        output.o
BN_GF2m_mod_sqr                                   output.o
BN_GF2m_mod_sqr_arr                               output.o
BN_GF2m_mod_sqrt                                  output.o
BN_GF2m_mod_sqrt_arr                              output.o
BN_GF2m_poly2arr                                  output.o
BN_MONT_CTX_copy                                  output.o
BN_MONT_CTX_free                                  output.o
BN_MONT_CTX_init                                  output.o
BN_MONT_CTX_new                                   output.o
BN_MONT_CTX_set                                   output.o
BN_MONT_CTX_set_locked                            output.o
BN_RECP_CTX_free                                  output.o
BN_RECP_CTX_init                                  output.o
BN_RECP_CTX_new                                   output.o
BN_RECP_CTX_set                                   output.o
BN_add                                            output.o
BN_add_word                                       output.o
BN_asc2bn                                         output.o
BN_bin2bn                                         output.o
BN_bn2bin                                         output.o
BN_bn2dec                                         output.o
BN_bn2hex                                         output.o
BN_bntest_rand                                    output.o
BN_clear                                          output.o
BN_clear_bit                                      output.o
BN_clear_free                                     output.o
BN_cmp                                            output.o
BN_copy                                           output.o
BN_dec2bn                                         output.o
BN_div                                            output.o
BN_div_recp                                       output.o
BN_div_word                                       output.o
BN_dup                                            output.o
BN_exp                                            output.o
BN_free                                           output.o
BN_from_montgomery                                output.o
BN_gcd                                            output.o
BN_generate_prime_ex                              output.o
BN_get0_nist_prime_192                            output.o
BN_get0_nist_prime_224                            output.o
BN_get0_nist_prime_256                            output.o
BN_get0_nist_prime_384                            output.o
BN_get0_nist_prime_521                            output.o
BN_get_params                                     output.o
BN_get_word                                       output.o
BN_hex2bn                                         output.o
BN_init                                           output.o
BN_is_bit_set                                     output.o
BN_is_prime_ex                                    output.o
BN_is_prime_fasttest_ex                           output.o
BN_kronecker                                      output.o
BN_lshift                                         output.o
BN_lshift1                                        output.o
BN_mask_bits                                      output.o
BN_mod_add                                        output.o
BN_mod_add_quick                                  output.o
BN_mod_exp                                        output.o
BN_mod_exp2_mont                                  output.o
BN_mod_exp_mont                                   output.o
BN_mod_exp_mont_consttime                         output.o
BN_mod_exp_mont_word                              output.o
BN_mod_exp_recp                                   output.o
BN_mod_exp_simple                                 output.o
BN_mod_inverse                                    output.o
BN_mod_lshift                                     output.o
BN_mod_lshift1                                    output.o
BN_mod_lshift1_quick                              output.o
BN_mod_lshift_quick                               output.o
BN_mod_mul                                        output.o
BN_mod_mul_montgomery                             output.o
BN_mod_mul_reciprocal                             output.o
BN_mod_sqr                                        output.o
BN_mod_sqrt                                       output.o
BN_mod_sub                                        output.o
BN_mod_sub_quick                                  output.o
BN_mod_word                                       output.o
BN_mul                                            output.o
BN_mul_word                                       output.o
BN_new                                            output.o
BN_nist_mod_192                                   output.o
BN_nist_mod_224                                   output.o
BN_nist_mod_256                                   output.o
BN_nist_mod_384                                   output.o
BN_nist_mod_521                                   output.o
BN_nnmod                                          output.o
BN_num_bits                                       output.o
BN_num_bits_word                                  output.o
BN_options                                        output.o
BN_print                                          output.o
BN_pseudo_rand                                    output.o
BN_pseudo_rand_range                              output.o
BN_rand                                           output.o
BN_rand_range                                     output.o
BN_reciprocal                                     output.o
BN_rshift                                         output.o
BN_rshift1                                        output.o
BN_set_bit                                        output.o
BN_set_negative                                   output.o
BN_set_params                                     output.o
BN_set_word                                       output.o
BN_sqr                                            output.o
BN_sub                                            output.o
BN_sub_word                                       output.o
BN_swap                                           output.o
BN_to_ASN1_ENUMERATED                             output.o
BN_to_ASN1_INTEGER                                output.o
BN_uadd                                           output.o
BN_ucmp                                           output.o
BN_usub                                           output.o
BN_value_one                                      output.o
BN_version                                        output.o
BUF_MEM_free                                      output.o
BUF_MEM_grow                                      output.o
BUF_MEM_grow_clean                                output.o
BUF_MEM_new                                       output.o
BUF_memdup                                        output.o
BUF_reverse                                       output.o
BUF_strdup                                        output.o
BUF_strlcat                                       output.o
BUF_strlcpy                                       output.o
BUF_strndup                                       output.o
BlockSendCardT1                                   output.o
CAST_S_table0                                     output.o
CAST_S_table1                                     output.o
CAST_S_table2                                     output.o
CAST_S_table3                                     output.o
CAST_S_table4                                     output.o
CAST_S_table5                                     output.o
CAST_S_table6                                     output.o
CAST_S_table7                                     output.o
CAST_cbc_encrypt                                  output.o
CAST_cfb64_encrypt                                output.o
CAST_decrypt                                      output.o
CAST_ecb_encrypt                                  output.o
CAST_encrypt                                      output.o
CAST_ofb64_encrypt                                output.o
CAST_set_key                                      output.o
CAST_version                                      output.o
CBIGNUM_it                                        output.o
CERTIFICATEPOLICIES_free                          output.o
CERTIFICATEPOLICIES_it                            output.o
CERTIFICATEPOLICIES_new                           output.o
CMS_Attributes_Sign_it                            output.o
CMS_Attributes_Verify_it                          output.o
CMS_AuthenticatedData_it                          output.o
CMS_CertificateChoices_it                         output.o
CMS_CompressedData_it                             output.o
CMS_ContentInfo_free                              output.o
CMS_ContentInfo_it                                output.o
CMS_ContentInfo_new                               output.o
CMS_ContentInfo_print_ctx                         output.o
CMS_DigestedData_it                               output.o
CMS_EncapsulatedContentInfo_it                    output.o
CMS_EncryptedContentInfo_it                       output.o
CMS_EncryptedData_it                              output.o
CMS_EncryptedData_set1_key                        output.o
CMS_EnvelopedData_create                          output.o
CMS_EnvelopedData_it                              output.o
CMS_IssuerAndSerialNumber_it                      output.o
CMS_KEKIdentifier_it                              output.o
CMS_KEKRecipientInfo_it                           output.o
CMS_KeyAgreeRecipientIdentifier_it                output.o
CMS_KeyAgreeRecipientInfo_it                      output.o
CMS_KeyTransRecipientInfo_it                      output.o
CMS_OriginatorIdentifierOrKey_it                  output.o
CMS_OriginatorInfo_it                             output.o
CMS_OriginatorPublicKey_it                        output.o
CMS_OtherCertificateFormat_it                     output.o
CMS_OtherKeyAttribute_it                          output.o
CMS_OtherRecipientInfo_it                         output.o
CMS_OtherRevocationInfoFormat_it                  output.o
CMS_PasswordRecipientInfo_it                      output.o
CMS_ReceiptRequest_it                             output.o
CMS_Receipt_it                                    output.o
CMS_ReceiptsFrom_it                               output.o
CMS_RecipientEncryptedKey_it                      output.o
CMS_RecipientInfo_decrypt                         output.o
CMS_RecipientInfo_it                              output.o
CMS_RecipientInfo_kekri_get0_id                   output.o
CMS_RecipientInfo_kekri_id_cmp                    output.o
CMS_RecipientInfo_ktri_cert_cmp                   output.o
CMS_RecipientInfo_ktri_get0_algs                  output.o
CMS_RecipientInfo_ktri_get0_signer_id             output.o
CMS_RecipientInfo_set0_key                        output.o
CMS_RecipientInfo_set0_pkey                       output.o
CMS_RecipientInfo_type                            output.o
CMS_RecipientKeyIdentifier_it                     output.o
CMS_RevocationInfoChoice_it                       output.o
CMS_SignedData_init                               output.o
CMS_SignedData_it                                 output.o
CMS_SignerIdentifier_it                           output.o
CMS_SignerInfo_cert_cmp                           output.o
CMS_SignerInfo_get0_algs                          output.o
CMS_SignerInfo_get0_signer_id                     output.o
CMS_SignerInfo_it                                 output.o
CMS_SignerInfo_set1_signer_cert                   output.o
CMS_SignerInfo_sign                               output.o
CMS_SignerInfo_verify                             output.o
CMS_SignerInfo_verify_content                     output.o
CMS_add0_CertificateChoices                       output.o
CMS_add0_RevocationInfoChoice                     output.o
CMS_add0_cert                                     output.o
CMS_add0_crl                                      output.o
CMS_add0_recipient_key                            output.o
CMS_add1_cert                                     output.o
CMS_add1_crl                                      output.o
CMS_add1_recipient_cert                           output.o
CMS_add1_signer                                   output.o
CMS_add_simple_smimecap                           output.o
CMS_add_smimecap                                  output.o
CMS_add_standard_smimecap                         output.o
CMS_dataFinal                                     output.o
CMS_dataInit                                      output.o
CMS_get0_RecipientInfos                           output.o
CMS_get0_SignerInfos                              output.o
CMS_get0_content                                  output.o
CMS_get0_eContentType                             output.o
CMS_get0_signers                                  output.o
CMS_get0_type                                     output.o
CMS_get1_certs                                    output.o
CMS_get1_crls                                     output.o
CMS_is_detached                                   output.o
CMS_set1_eContentType                             output.o
CMS_set1_signers_certs                            output.o
CMS_set_detached                                  output.o
CMS_signed_add1_attr                              output.o
CMS_signed_add1_attr_by_NID                       output.o
CMS_signed_add1_attr_by_OBJ                       output.o
CMS_signed_add1_attr_by_txt                       output.o
CMS_signed_delete_attr                            output.o
CMS_signed_get0_data_by_OBJ                       output.o
CMS_signed_get_attr                               output.o
CMS_signed_get_attr_by_NID                        output.o
CMS_signed_get_attr_by_OBJ                        output.o
CMS_signed_get_attr_count                         output.o
CMS_stream                                        output.o
CMS_unsigned_add1_attr                            output.o
CMS_unsigned_add1_attr_by_NID                     output.o
CMS_unsigned_add1_attr_by_OBJ                     output.o
CMS_unsigned_add1_attr_by_txt                     output.o
CMS_unsigned_delete_attr                          output.o
CMS_unsigned_get0_data_by_OBJ                     output.o
CMS_unsigned_get_attr                             output.o
CMS_unsigned_get_attr_by_NID                      output.o
CMS_unsigned_get_attr_by_OBJ                      output.o
CMS_unsigned_get_attr_count                       output.o
CONF_def_version                                  output.o
CONF_dump_bio                                     output.o
CONF_free                                         output.o
CONF_get1_default_config_file                     output.o
CONF_get_number                                   output.o
CONF_get_section                                  output.o
CONF_get_string                                   output.o
CONF_imodule_get_flags                            output.o
CONF_imodule_get_module                           output.o
CONF_imodule_get_name                             output.o
CONF_imodule_get_usr_data                         output.o
CONF_imodule_get_value                            output.o
CONF_imodule_set_flags                            output.o
CONF_imodule_set_usr_data                         output.o
CONF_load                                         output.o
CONF_load_bio                                     output.o
CONF_module_add                                   output.o
CONF_module_get_usr_data                          output.o
CONF_module_set_usr_data                          output.o
CONF_modules_finish                               output.o
CONF_modules_free                                 output.o
CONF_modules_load                                 output.o
CONF_modules_load_file                            output.o
CONF_modules_unload                               output.o
CONF_parse_list                                   output.o
CONF_set_default_method                           output.o
CONF_set_nconf                                    output.o
CONF_version                                      output.o
CRL_DIST_POINTS_free                              output.o
CRL_DIST_POINTS_it                                output.o
CRL_DIST_POINTS_new                               output.o
CRYPTO_THREADID_cmp                               output.o
CRYPTO_THREADID_cpy                               output.o
CRYPTO_THREADID_current                           output.o
CRYPTO_THREADID_get_callback                      output.o
CRYPTO_THREADID_hash                              output.o
CRYPTO_THREADID_set_callback                      output.o
CRYPTO_THREADID_set_numeric                       output.o
CRYPTO_THREADID_set_pointer                       output.o
CRYPTO_add_lock                                   output.o
CRYPTO_cbc128_decrypt                             output.o
CRYPTO_cbc128_encrypt                             output.o
CRYPTO_cfb128_1_encrypt                           output.o
CRYPTO_cfb128_8_encrypt                           output.o
CRYPTO_cfb128_encrypt                             output.o
CRYPTO_cleanup_all_ex_data                        output.o
CRYPTO_dbg_free                                   output.o
CRYPTO_dbg_get_options                            output.o
CRYPTO_dbg_malloc                                 output.o
CRYPTO_dbg_realloc                                output.o
CRYPTO_dbg_set_options                            output.o
CRYPTO_destroy_dynlockid                          output.o
CRYPTO_dup_ex_data                                output.o
CRYPTO_ex_data_new_class                          output.o
CRYPTO_free                                       output.o
CRYPTO_free_ex_data                               output.o
CRYPTO_free_locked                                output.o
CRYPTO_get_add_lock_callback                      output.o
CRYPTO_get_dynlock_create_callback                output.o
CRYPTO_get_dynlock_destroy_callback               output.o
CRYPTO_get_dynlock_lock_callback                  output.o
CRYPTO_get_dynlock_value                          output.o
CRYPTO_get_ex_data                                output.o
CRYPTO_get_ex_data_implementation                 output.o
CRYPTO_get_ex_new_index                           output.o
CRYPTO_get_id_callback                            output.o
CRYPTO_get_lock_name                              output.o
CRYPTO_get_locked_mem_ex_functions                output.o
CRYPTO_get_locked_mem_functions                   output.o
CRYPTO_get_locking_callback                       output.o
CRYPTO_get_mem_debug_functions                    output.o
CRYPTO_get_mem_debug_options                      output.o
CRYPTO_get_mem_ex_functions                       output.o
CRYPTO_get_mem_functions                          output.o
CRYPTO_get_new_dynlockid                          output.o
CRYPTO_get_new_lockid                             output.o
CRYPTO_is_mem_check_on                            output.o
CRYPTO_lock                                       output.o
CRYPTO_malloc                                     output.o
CRYPTO_malloc_locked                              output.o
CRYPTO_mem_ctrl                                   output.o
CRYPTO_mem_leaks                                  output.o
CRYPTO_mem_leaks_cb                               output.o
CRYPTO_new_ex_data                                output.o
CRYPTO_num_locks                                  output.o
CRYPTO_ofb128_encrypt                             output.o
CRYPTO_pop_info                                   output.o
CRYPTO_push_info_                                 output.o
CRYPTO_realloc                                    output.o
CRYPTO_realloc_clean                              output.o
CRYPTO_remalloc                                   output.o
CRYPTO_remove_all_info                            output.o
CRYPTO_set_add_lock_callback                      output.o
CRYPTO_set_dynlock_create_callback                output.o
CRYPTO_set_dynlock_destroy_callback               output.o
CRYPTO_set_dynlock_lock_callback                  output.o
CRYPTO_set_ex_data                                output.o
CRYPTO_set_ex_data_implementation                 output.o
CRYPTO_set_id_callback                            output.o
CRYPTO_set_locked_mem_ex_functions                output.o
CRYPTO_set_locked_mem_functions                   output.o
CRYPTO_set_locking_callback                       output.o
CRYPTO_set_mem_debug_functions                    output.o
CRYPTO_set_mem_debug_options                      output.o
CRYPTO_set_mem_ex_functions                       output.o
CRYPTO_set_mem_functions                          output.o
CRYPTO_strdup                                     output.o
CRYPTO_thread_id                                  output.o
C_CloseAllSessions                                output.o
C_CloseSession                                    output.o
C_CreateObject                                    output.o
C_DestroyObject                                   output.o
C_DigestFinal                                     output.o
C_DigestInit                                      output.o
C_DigestUpdate                                    output.o
C_Finalize                                        output.o
C_FindObjects                                     output.o
C_FindObjectsFinal                                output.o
C_FindObjectsInit                                 output.o
C_GetAttributeValue                               output.o
C_GetCardStatus                                   output.o
C_GetFunctionList                                 output.o
C_GetInfo                                         output.o
C_GetMechanismInfo                                output.o
C_GetMechanismList                                output.o
C_GetSessionInfo                                  output.o
C_GetSlotInfo                                     output.o
C_GetSlotList                                     output.o
C_GetTokenInfo                                    output.o
C_Initialize                                      output.o
C_Login                                           output.o
C_Logout                                          output.o
C_OpenSession                                     output.o
C_SetAttributeValue                               output.o
C_Sign                                            output.o
C_SignInit                                        output.o
C_Verify                                          output.o
C_VerifyInit                                      output.o
CardConnect                                       output.o
CardDisconnect                                    output.o
CardEstablishContext                              output.o
CardListReaders                                   output.o
CardMechanical                                    output.o
CardReleaseContext                                output.o
CardStateConfirm                                  output.o
CardStatus                                        output.o
CardTransmit                                      output.o
CloseUSB                                          output.o
DES_SPtrans                                       output.o
DES_cfb64_encrypt                                 output.o
DES_cfb_encrypt                                   output.o
DES_check_key_parity                              output.o
DES_decrypt3                                      output.o
DES_ecb3_encrypt                                  output.o
DES_ecb_encrypt                                   output.o
DES_ede3_cbc_encrypt                              output.o
DES_ede3_cfb64_encrypt                            output.o
DES_ede3_cfb_encrypt                              output.o
DES_ede3_ofb64_encrypt                            output.o
DES_encrypt1                                      output.o
DES_encrypt2                                      output.o
DES_encrypt3                                      output.o
DES_is_weak_key                                   output.o
DES_key_sched                                     output.o
DES_ncbc_encrypt                                  output.o
DES_ofb64_encrypt                                 output.o
DES_options                                       output.o
DES_random_key                                    output.o
DES_set_key                                       output.o
DES_set_key_checked                               output.o
DES_set_key_unchecked                             output.o
DES_set_odd_parity                                output.o
DES_xcbc_encrypt                                  output.o
DH_OpenSSL                                        output.o
DH_check                                          output.o
DH_check_pub_key                                  output.o
DH_compute_key                                    output.o
DH_free                                           output.o
DH_generate_key                                   output.o
DH_generate_parameters_ex                         output.o
DH_get_default_method                             output.o
DH_get_ex_data                                    output.o
DH_get_ex_new_index                               output.o
DH_new                                            output.o
DH_new_method                                     output.o
DH_set_default_method                             output.o
DH_set_ex_data                                    output.o
DH_set_method                                     output.o
DH_size                                           output.o
DH_up_ref                                         output.o
DH_version                                        output.o
DHparams_dup                                      output.o
DHparams_it                                       output.o
DHparams_print                                    output.o
DI                                                output.o
DIRECTORYSTRING_free                              output.o
DIRECTORYSTRING_it                                output.o
DIRECTORYSTRING_new                               output.o
DISPLAYTEXT_free                                  output.o
DISPLAYTEXT_it                                    output.o
DISPLAYTEXT_new                                   output.o
DIST_POINT_NAME_free                              output.o
DIST_POINT_NAME_it                                output.o
DIST_POINT_NAME_new                               output.o
DIST_POINT_free                                   output.o
DIST_POINT_it                                     output.o
DIST_POINT_new                                    output.o
DIST_POINT_set_dpname                             output.o
DSAPrivateKey_it                                  output.o
DSAPublicKey_it                                   output.o
DSA_OpenSSL                                       output.o
DSA_SIG_free                                      output.o
DSA_SIG_it                                        output.o
DSA_SIG_new                                       output.o
DSA_do_sign                                       output.o
DSA_do_verify                                     output.o
DSA_dup_DH                                        output.o
DSA_free                                          output.o
DSA_generate_key                                  output.o
DSA_generate_parameters_ex                        output.o
DSA_get_default_method                            output.o
DSA_get_ex_data                                   output.o
DSA_get_ex_new_index                              output.o
DSA_new                                           output.o
DSA_new_method                                    output.o
DSA_set_default_method                            output.o
DSA_set_ex_data                                   output.o
DSA_set_method                                    output.o
DSA_sign                                          output.o
DSA_sign_setup                                    output.o
DSA_size                                          output.o
DSA_up_ref                                        output.o
DSA_verify                                        output.o
DSA_version                                       output.o
DSAparams_dup                                     output.o
DSAparams_it                                      output.o
DSO_METHOD_null                                   output.o
DSO_METHOD_openssl                                output.o
DSO_bind_func                                     output.o
DSO_bind_var                                      output.o
DSO_convert_filename                              output.o
DSO_ctrl                                          output.o
DSO_flags                                         output.o
DSO_free                                          output.o
DSO_get_default_method                            output.o
DSO_get_filename                                  output.o
DSO_get_loaded_filename                           output.o
DSO_get_method                                    output.o
DSO_global_lookup                                 output.o
DSO_load                                          output.o
DSO_merge                                         output.o
DSO_new                                           output.o
DSO_new_method                                    output.o
DSO_pathbyaddr                                    output.o
DSO_set_default_method                            output.o
DSO_set_filename                                  output.o
DSO_set_method                                    output.o
DSO_set_name_converter                            output.o
DSO_up_ref                                        output.o
DelElem                                           output.o
DestroyAttribute                                  output.o
DestroyElem                                       output.o
DestroyList                                       output.o
DestroySessionData                                output.o
DestroySlotData                                   output.o
DestroyTlvData                                    output.o
DestroyTokenData                                  output.o
ECDH_OpenSSL                                      output.o
ECDH_compute_key                                  output.o
ECDH_get_default_method                           output.o
ECDH_get_ex_data                                  output.o
ECDH_get_ex_new_index                             output.o
ECDH_set_default_method                           output.o
ECDH_set_ex_data                                  output.o
ECDH_set_method                                   output.o
ECDH_version                                      output.o
ECDSA_OpenSSL                                     output.o
ECDSA_SIG_free                                    output.o
ECDSA_SIG_it                                      output.o
ECDSA_SIG_new                                     output.o
ECDSA_do_sign                                     output.o
ECDSA_do_sign_ex                                  output.o
ECDSA_do_verify                                   output.o
ECDSA_get_default_method                          output.o
ECDSA_get_ex_data                                 output.o
ECDSA_get_ex_new_index                            output.o
ECDSA_set_default_method                          output.o
ECDSA_set_ex_data                                 output.o
ECDSA_set_method                                  output.o
ECDSA_sign                                        output.o
ECDSA_sign_ex                                     output.o
ECDSA_sign_setup                                  output.o
ECDSA_size                                        output.o
ECDSA_verify                                      output.o
ECDSA_version                                     output.o
ECPARAMETERS_free                                 output.o
ECPARAMETERS_it                                   output.o
ECPARAMETERS_new                                  output.o
ECPKPARAMETERS_free                               output.o
ECPKPARAMETERS_it                                 output.o
ECPKPARAMETERS_new                                output.o
ECPKParameters_print                              output.o
ECParameters_print                                output.o
EC_EX_DATA_clear_free_all_data                    output.o
EC_EX_DATA_clear_free_data                        output.o
EC_EX_DATA_free_all_data                          output.o
EC_EX_DATA_free_data                              output.o
EC_EX_DATA_get_data                               output.o
EC_EX_DATA_set_data                               output.o
EC_GF2m_simple_method                             output.o
EC_GFp_mont_method                                output.o
EC_GFp_nist_method                                output.o
EC_GFp_simple_method                              output.o
EC_GROUP_check_discriminant                       output.o
EC_GROUP_clear_free                               output.o
EC_GROUP_cmp                                      output.o
EC_GROUP_copy                                     output.o
EC_GROUP_dup                                      output.o
EC_GROUP_free                                     output.o
EC_GROUP_get0_generator                           output.o
EC_GROUP_get0_seed                                output.o
EC_GROUP_get_asn1_flag                            output.o
EC_GROUP_get_basis_type                           output.o
EC_GROUP_get_cofactor                             output.o
EC_GROUP_get_curve_GF2m                           output.o
EC_GROUP_get_curve_GFp                            output.o
EC_GROUP_get_curve_name                           output.o
EC_GROUP_get_degree                               output.o
EC_GROUP_get_order                                output.o
EC_GROUP_get_pentanomial_basis                    output.o
EC_GROUP_get_point_conversion_form                output.o
EC_GROUP_get_seed_len                             output.o
EC_GROUP_get_trinomial_basis                      output.o
EC_GROUP_have_precompute_mult                     output.o
EC_GROUP_method_of                                output.o
EC_GROUP_new                                      output.o
EC_GROUP_new_by_curve_name                        output.o
EC_GROUP_new_curve_GF2m                           output.o
EC_GROUP_new_curve_GFp                            output.o
EC_GROUP_precompute_mult                          output.o
EC_GROUP_set_asn1_flag                            output.o
EC_GROUP_set_curve_GF2m                           output.o
EC_GROUP_set_curve_GFp                            output.o
EC_GROUP_set_curve_name                           output.o
EC_GROUP_set_generator                            output.o
EC_GROUP_set_point_conversion_form                output.o
EC_GROUP_set_seed                                 output.o
EC_KEY_check_key                                  output.o
EC_KEY_copy                                       output.o
EC_KEY_dup                                        output.o
EC_KEY_free                                       output.o
EC_KEY_generate_key                               output.o
EC_KEY_get0_group                                 output.o
EC_KEY_get0_private_key                           output.o
EC_KEY_get0_public_key                            output.o
EC_KEY_get_conv_form                              output.o
EC_KEY_get_enc_flags                              output.o
EC_KEY_get_key_method_data                        output.o
EC_KEY_insert_key_method_data                     output.o
EC_KEY_new                                        output.o
EC_KEY_new_by_curve_name                          output.o
EC_KEY_precompute_mult                            output.o
EC_KEY_print                                      output.o
EC_KEY_set_asn1_flag                              output.o
EC_KEY_set_conv_form                              output.o
EC_KEY_set_enc_flags                              output.o
EC_KEY_set_group                                  output.o
EC_KEY_set_private_key                            output.o
EC_KEY_set_public_key                             output.o
EC_KEY_up_ref                                     output.o
EC_METHOD_get_field_type                          output.o
EC_POINT_add                                      output.o
EC_POINT_bn2point                                 output.o
EC_POINT_clear_free                               output.o
EC_POINT_cmp                                      output.o
EC_POINT_copy                                     output.o
EC_POINT_dbl                                      output.o
EC_POINT_dup                                      output.o
EC_POINT_free                                     output.o
EC_POINT_get_Jprojective_coordinates_GFp          output.o
EC_POINT_get_affine_coordinates_GF2m              output.o
EC_POINT_get_affine_coordinates_GFp               output.o
EC_POINT_hex2point                                output.o
EC_POINT_invert                                   output.o
EC_POINT_is_at_infinity                           output.o
EC_POINT_is_on_curve                              output.o
EC_POINT_make_affine                              output.o
EC_POINT_method_of                                output.o
EC_POINT_mul                                      output.o
EC_POINT_new                                      output.o
EC_POINT_oct2point                                output.o
EC_POINT_point2bn                                 output.o
EC_POINT_point2hex                                output.o
EC_POINT_point2oct                                output.o
EC_POINT_set_Jprojective_coordinates_GFp          output.o
EC_POINT_set_affine_coordinates_GF2m              output.o
EC_POINT_set_affine_coordinates_GFp               output.o
EC_POINT_set_compressed_coordinates_GF2m          output.o
EC_POINT_set_compressed_coordinates_GFp           output.o
EC_POINT_set_to_infinity                          output.o
EC_POINTs_make_affine                             output.o
EC_POINTs_mul                                     output.o
EC_PRIVATEKEY_free                                output.o
EC_PRIVATEKEY_it                                  output.o
EC_PRIVATEKEY_new                                 output.o
EC_get_builtin_curves                             output.o
EDIPARTYNAME_free                                 output.o
EDIPARTYNAME_it                                   output.o
EDIPARTYNAME_new                                  output.o
EHDestroyEventHandler                             output.o
EHInitEventHandler                                output.o
EHStatusHandler                                   output.o
ERR_add_error_data                                output.o
ERR_clear_error                                   output.o
ERR_error_string                                  output.o
ERR_error_string_n                                output.o
ERR_free_strings                                  output.o
ERR_func_error_string                             output.o
ERR_get_err_state_table                           output.o
ERR_get_error                                     output.o
ERR_get_error_line                                output.o
ERR_get_error_line_data                           output.o
ERR_get_implementation                            output.o
ERR_get_next_error_library                        output.o
ERR_get_state                                     output.o
ERR_get_string_table                              output.o
ERR_lib_error_string                              output.o
ERR_load_ASN1_strings                             output.o
ERR_load_BIO_strings                              output.o
ERR_load_BN_strings                               output.o
ERR_load_BUF_strings                              output.o
ERR_load_CMS_strings                              output.o
ERR_load_COMP_strings                             output.o
ERR_load_CONF_strings                             output.o
ERR_load_CRYPTO_strings                           output.o
ERR_load_DH_strings                               output.o
ERR_load_DSA_strings                              output.o
ERR_load_DSO_strings                              output.o
ERR_load_ECDH_strings                             output.o
ERR_load_ECDSA_strings                            output.o
ERR_load_EC_strings                               output.o
ERR_load_ERR_strings                              output.o
ERR_load_EVP_strings                              output.o
ERR_load_OBJ_strings                              output.o
ERR_load_OCSP_strings                             output.o
ERR_load_PEM_strings                              output.o
ERR_load_PKCS12_strings                           output.o
ERR_load_PKCS7_strings                            output.o
ERR_load_RAND_strings                             output.o
ERR_load_RSA_strings                              output.o
ERR_load_TS_strings                               output.o
ERR_load_UI_strings                               output.o
ERR_load_X509V3_strings                           output.o
ERR_load_X509_strings                             output.o
ERR_load_crypto_strings                           output.o
ERR_load_strings                                  output.o
ERR_peek_error                                    output.o
ERR_peek_error_line                               output.o
ERR_peek_error_line_data                          output.o
ERR_peek_last_error                               output.o
ERR_peek_last_error_line                          output.o
ERR_peek_last_error_line_data                     output.o
ERR_pop_to_mark                                   output.o
ERR_print_errors                                  output.o
ERR_print_errors_cb                               output.o
ERR_put_error                                     output.o
ERR_reason_error_string                           output.o
ERR_release_err_state_table                       output.o
ERR_remove_state                                  output.o
ERR_remove_thread_state                           output.o
ERR_set_error_data                                output.o
ERR_set_implementation                            output.o
ERR_set_mark                                      output.o
ERR_unload_strings                                output.o
EVP_BytesToKey                                    output.o
EVP_CIPHER_CTX_block_size                         output.o
EVP_CIPHER_CTX_cipher                             output.o
EVP_CIPHER_CTX_cleanup                            output.o
EVP_CIPHER_CTX_clear_flags                        output.o
EVP_CIPHER_CTX_copy                               output.o
EVP_CIPHER_CTX_ctrl                               output.o
EVP_CIPHER_CTX_flags                              output.o
EVP_CIPHER_CTX_free                               output.o
EVP_CIPHER_CTX_get_app_data                       output.o
EVP_CIPHER_CTX_init                               output.o
EVP_CIPHER_CTX_iv_length                          output.o
EVP_CIPHER_CTX_key_length                         output.o
EVP_CIPHER_CTX_new                                output.o
EVP_CIPHER_CTX_nid                                output.o
EVP_CIPHER_CTX_rand_key                           output.o
EVP_CIPHER_CTX_set_app_data                       output.o
EVP_CIPHER_CTX_set_flags                          output.o
EVP_CIPHER_CTX_set_key_length                     output.o
EVP_CIPHER_CTX_set_padding                        output.o
EVP_CIPHER_CTX_test_flags                         output.o
EVP_CIPHER_asn1_to_param                          output.o
EVP_CIPHER_block_size                             output.o
EVP_CIPHER_do_all                                 output.o
EVP_CIPHER_do_all_sorted                          output.o
EVP_CIPHER_flags                                  output.o
EVP_CIPHER_get_asn1_iv                            output.o
EVP_CIPHER_iv_length                              output.o
EVP_CIPHER_key_length                             output.o
EVP_CIPHER_nid                                    output.o
EVP_CIPHER_param_to_asn1                          output.o
EVP_CIPHER_set_asn1_iv                            output.o
EVP_CIPHER_type                                   output.o
EVP_Cipher                                        output.o
EVP_CipherFinal                                   output.o
EVP_CipherFinal_ex                                output.o
EVP_CipherInit                                    output.o
EVP_CipherInit_ex                                 output.o
EVP_CipherUpdate                                  output.o
EVP_DecodeBlock                                   output.o
EVP_DecodeFinal                                   output.o
EVP_DecodeInit                                    output.o
EVP_DecodeUpdate                                  output.o
EVP_DecryptFinal                                  output.o
EVP_DecryptFinal_ex                               output.o
EVP_DecryptInit                                   output.o
EVP_DecryptInit_ex                                output.o
EVP_DecryptUpdate                                 output.o
EVP_Digest                                        output.o
EVP_DigestFinal                                   output.o
EVP_DigestFinal_ex                                output.o
EVP_DigestInit                                    output.o
EVP_DigestInit_ex                                 output.o
EVP_DigestSignFinal                               output.o
EVP_DigestSignInit                                output.o
EVP_DigestUpdate                                  output.o
EVP_DigestVerifyFinal                             output.o
EVP_DigestVerifyInit                              output.o
EVP_EncodeBlock                                   output.o
EVP_EncodeFinal                                   output.o
EVP_EncodeInit                                    output.o
EVP_EncodeUpdate                                  output.o
EVP_EncryptFinal                                  output.o
EVP_EncryptFinal_ex                               output.o
EVP_EncryptInit                                   output.o
EVP_EncryptInit_ex                                output.o
EVP_EncryptUpdate                                 output.o
EVP_MD_CTX_cleanup                                output.o
EVP_MD_CTX_clear_flags                            output.o
EVP_MD_CTX_copy                                   output.o
EVP_MD_CTX_copy_ex                                output.o
EVP_MD_CTX_create                                 output.o
EVP_MD_CTX_destroy                                output.o
EVP_MD_CTX_init                                   output.o
EVP_MD_CTX_md                                     output.o
EVP_MD_CTX_set_flags                              output.o
EVP_MD_CTX_test_flags                             output.o
EVP_MD_block_size                                 output.o
EVP_MD_do_all                                     output.o
EVP_MD_do_all_sorted                              output.o
EVP_MD_flags                                      output.o
EVP_MD_pkey_type                                  output.o
EVP_MD_size                                       output.o
EVP_MD_type                                       output.o
EVP_PBE_CipherInit                                output.o
EVP_PBE_alg_add                                   output.o
EVP_PBE_alg_add_type                              output.o
EVP_PBE_cleanup                                   output.o
EVP_PBE_find                                      output.o
EVP_PKCS82PKEY                                    output.o
EVP_PKEY2PKCS8                                    output.o
EVP_PKEY2PKCS8_broken                             output.o
EVP_PKEY_CTX_ctrl                                 output.o
EVP_PKEY_CTX_ctrl_str                             output.o
EVP_PKEY_CTX_dup                                  output.o
EVP_PKEY_CTX_free                                 output.o
EVP_PKEY_CTX_get0_peerkey                         output.o
EVP_PKEY_CTX_get0_pkey                            output.o
EVP_PKEY_CTX_get_app_data                         output.o
EVP_PKEY_CTX_get_cb                               output.o
EVP_PKEY_CTX_get_data                             output.o
EVP_PKEY_CTX_get_keygen_info                      output.o
EVP_PKEY_CTX_get_operation                        output.o
EVP_PKEY_CTX_new                                  output.o
EVP_PKEY_CTX_new_id                               output.o
EVP_PKEY_CTX_set0_keygen_info                     output.o
EVP_PKEY_CTX_set_app_data                         output.o
EVP_PKEY_CTX_set_cb                               output.o
EVP_PKEY_CTX_set_data                             output.o
EVP_PKEY_add1_attr                                output.o
EVP_PKEY_add1_attr_by_NID                         output.o
EVP_PKEY_add1_attr_by_OBJ                         output.o
EVP_PKEY_add1_attr_by_txt                         output.o
EVP_PKEY_asn1_add0                                output.o
EVP_PKEY_asn1_add_alias                           output.o
EVP_PKEY_asn1_copy                                output.o
EVP_PKEY_asn1_find                                output.o
EVP_PKEY_asn1_find_str                            output.o
EVP_PKEY_asn1_free                                output.o
EVP_PKEY_asn1_get0                                output.o
EVP_PKEY_asn1_get0_info                           output.o
EVP_PKEY_asn1_get_count                           output.o
EVP_PKEY_asn1_new                                 output.o
EVP_PKEY_asn1_set_ctrl                            output.o
EVP_PKEY_asn1_set_free                            output.o
EVP_PKEY_asn1_set_param                           output.o
EVP_PKEY_asn1_set_private                         output.o
EVP_PKEY_asn1_set_public                          output.o
EVP_PKEY_assign                                   output.o
EVP_PKEY_base_id                                  output.o
EVP_PKEY_bits                                     output.o
EVP_PKEY_cmp                                      output.o
EVP_PKEY_cmp_parameters                           output.o
EVP_PKEY_copy_parameters                          output.o
EVP_PKEY_decrypt                                  output.o
EVP_PKEY_decrypt_init                             output.o
EVP_PKEY_delete_attr                              output.o
EVP_PKEY_derive                                   output.o
EVP_PKEY_derive_init                              output.o
EVP_PKEY_derive_set_peer                          output.o
EVP_PKEY_encrypt                                  output.o
EVP_PKEY_encrypt_init                             output.o
EVP_PKEY_free                                     output.o
EVP_PKEY_get0                                     output.o
EVP_PKEY_get0_asn1                                output.o
EVP_PKEY_get1_DH                                  output.o
EVP_PKEY_get1_DSA                                 output.o
EVP_PKEY_get1_EC_KEY                              output.o
EVP_PKEY_get1_RSA                                 output.o
EVP_PKEY_get_attr                                 output.o
EVP_PKEY_get_attr_by_NID                          output.o
EVP_PKEY_get_attr_by_OBJ                          output.o
EVP_PKEY_get_attr_count                           output.o
EVP_PKEY_get_default_digest_nid                   output.o
EVP_PKEY_id                                       output.o
EVP_PKEY_keygen                                   output.o
EVP_PKEY_keygen_init                              output.o
EVP_PKEY_meth_add0                                output.o
EVP_PKEY_meth_find                                output.o
EVP_PKEY_meth_free                                output.o
EVP_PKEY_meth_new                                 output.o
EVP_PKEY_meth_set_cleanup                         output.o
EVP_PKEY_meth_set_copy                            output.o
EVP_PKEY_meth_set_ctrl                            output.o
EVP_PKEY_meth_set_decrypt                         output.o
EVP_PKEY_meth_set_derive                          output.o
EVP_PKEY_meth_set_encrypt                         output.o
EVP_PKEY_meth_set_init                            output.o
EVP_PKEY_meth_set_keygen                          output.o
EVP_PKEY_meth_set_paramgen                        output.o
EVP_PKEY_meth_set_sign                            output.o
EVP_PKEY_meth_set_signctx                         output.o
EVP_PKEY_meth_set_verify                          output.o
EVP_PKEY_meth_set_verify_recover                  output.o
EVP_PKEY_meth_set_verifyctx                       output.o
EVP_PKEY_missing_parameters                       output.o
EVP_PKEY_new                                      output.o
EVP_PKEY_new_mac_key                              output.o
EVP_PKEY_paramgen                                 output.o
EVP_PKEY_paramgen_init                            output.o
EVP_PKEY_print_params                             output.o
EVP_PKEY_print_private                            output.o
EVP_PKEY_print_public                             output.o
EVP_PKEY_save_parameters                          output.o
EVP_PKEY_set1_DH                                  output.o
EVP_PKEY_set1_DSA                                 output.o
EVP_PKEY_set1_EC_KEY                              output.o
EVP_PKEY_set1_RSA                                 output.o
EVP_PKEY_set_type                                 output.o
EVP_PKEY_set_type_str                             output.o
EVP_PKEY_sign                                     output.o
EVP_PKEY_sign_init                                output.o
EVP_PKEY_size                                     output.o
EVP_PKEY_type                                     output.o
EVP_PKEY_verify                                   output.o
EVP_PKEY_verify_init                              output.o
EVP_PKEY_verify_recover                           output.o
EVP_PKEY_verify_recover_init                      output.o
EVP_SignFinal                                     output.o
EVP_VerifyFinal                                   output.o
EVP_add_cipher                                    output.o
EVP_add_digest                                    output.o
EVP_aes_128_cbc                                   output.o
EVP_aes_128_cfb1                                  output.o
EVP_aes_128_cfb128                                output.o
EVP_aes_128_cfb8                                  output.o
EVP_aes_128_ecb                                   output.o
EVP_aes_128_ofb                                   output.o
EVP_aes_192_cbc                                   output.o
EVP_aes_192_cfb1                                  output.o
EVP_aes_192_cfb128                                output.o
EVP_aes_192_cfb8                                  output.o
EVP_aes_192_ecb                                   output.o
EVP_aes_192_ofb                                   output.o
EVP_aes_256_cbc                                   output.o
EVP_aes_256_cfb1                                  output.o
EVP_aes_256_cfb128                                output.o
EVP_aes_256_cfb8                                  output.o
EVP_aes_256_ecb                                   output.o
EVP_aes_256_ofb                                   output.o
EVP_bf_cbc                                        output.o
EVP_bf_cfb64                                      output.o
EVP_bf_ecb                                        output.o
EVP_bf_ofb                                        output.o
EVP_cast5_cbc                                     output.o
EVP_cast5_cfb64                                   output.o
EVP_cast5_ecb                                     output.o
EVP_cast5_ofb                                     output.o
EVP_cleanup                                       output.o
EVP_des_cbc                                       output.o
EVP_des_cfb1                                      output.o
EVP_des_cfb64                                     output.o
EVP_des_cfb8                                      output.o
EVP_des_ecb                                       output.o
EVP_des_ede                                       output.o
EVP_des_ede3                                      output.o
EVP_des_ede3_cbc                                  output.o
EVP_des_ede3_cfb1                                 output.o
EVP_des_ede3_cfb64                                output.o
EVP_des_ede3_cfb8                                 output.o
EVP_des_ede3_ecb                                  output.o
EVP_des_ede3_ofb                                  output.o
EVP_des_ede_cbc                                   output.o
EVP_des_ede_cfb64                                 output.o
EVP_des_ede_ecb                                   output.o
EVP_des_ede_ofb                                   output.o
EVP_des_ofb                                       output.o
EVP_desx_cbc                                      output.o
EVP_dss                                           output.o
EVP_dss1                                          output.o
EVP_ecdsa                                         output.o
EVP_get_cipherbyname                              output.o
EVP_get_digestbyname                              output.o
EVP_get_pw_prompt                                 output.o
EVP_idea_cbc                                      output.o
EVP_idea_cfb64                                    output.o
EVP_idea_ecb                                      output.o
EVP_idea_ofb                                      output.o
EVP_md4                                           output.o
EVP_md5                                           output.o
EVP_rc2_40_cbc                                    output.o
EVP_rc2_64_cbc                                    output.o
EVP_rc2_cbc                                       output.o
EVP_rc2_cfb64                                     output.o
EVP_rc2_ecb                                       output.o
EVP_rc2_ofb                                       output.o
EVP_rc4                                           output.o
EVP_rc4_40                                        output.o
EVP_read_pw_string                                output.o
EVP_read_pw_string_min                            output.o
EVP_ripemd160                                     output.o
EVP_set_pw_prompt                                 output.o
EVP_sha                                           output.o
EVP_sha1                                          output.o
EVP_sha224                                        output.o
EVP_sha256                                        output.o
EVP_sha384                                        output.o
EVP_sha512                                        output.o
EVP_version                                       output.o
EVP_whirlpool                                     output.o
EXTENDED_KEY_USAGE_free                           output.o
EXTENDED_KEY_USAGE_it                             output.o
EXTENDED_KEY_USAGE_new                            output.o
ExchangePPSData                                   output.o
FI                                                output.o
FindBaudRateTable                                 output.o
GENERAL_NAMES_free                                output.o
GENERAL_NAMES_it                                  output.o
GENERAL_NAMES_new                                 output.o
GENERAL_NAME_cmp                                  output.o
GENERAL_NAME_dup                                  output.o
GENERAL_NAME_free                                 output.o
GENERAL_NAME_get0_otherName                       output.o
GENERAL_NAME_get0_value                           output.o
GENERAL_NAME_it                                   output.o
GENERAL_NAME_new                                  output.o
GENERAL_NAME_print                                output.o
GENERAL_NAME_set0_othername                       output.o
GENERAL_NAME_set0_value                           output.o
GENERAL_SUBTREE_free                              output.o
GENERAL_SUBTREE_it                                output.o
GENERAL_SUBTREE_new                               output.o
GetAttrValType                                    output.o
GetBWICWIData                                     output.o
GetCardStatus                                     output.o
GetDirDataByTlv                                   output.o
GetElem                                           output.o
GetICCardData                                     output.o
GetIFSCData                                       output.o
GetLength                                         output.o
GetOdfDataByTlv                                   output.o
GetTlvByBuf                                       output.o
GetTokenDataByTlv                                 output.o
GetUlByByte                                       output.o
GetUlByTxt                                        output.o
GetValueData                                      output.o
GetVerByTex                                       output.o
HMAC                                              output.o
HMAC_CTX_cleanup                                  output.o
HMAC_CTX_copy                                     output.o
HMAC_CTX_init                                     output.o
HMAC_CTX_set_flags                                output.o
HMAC_Final                                        output.o
HMAC_Init                                         output.o
HMAC_Init_ex                                      output.o
HMAC_Update                                       output.o
HPSearchHotPluggables                             output.o
IDEA_version                                      output.o
IDMan_CheckCardStatus                             output.o
IDMan_CmCheckCRL                                  output.o
IDMan_CmChgRSA                                    output.o
IDMan_CmGetCertificateSign                        output.o
IDMan_CmGetDN                                     output.o
IDMan_CmGetPublicKey                              output.o
IDMan_CmMakeRand                                  output.o
IDMan_CmMkHash                                    output.o
IDMan_CmPadding                                   output.o
IDMan_CmPadding2                                  output.o
IDMan_EncryptByIndex                              output.o
IDMan_IPCheckCrlPkcX                              output.o
IDMan_IPCheckPKC                                  output.o
IDMan_IPCheckSignature                            output.o
IDMan_IPCrSignature                               output.o
IDMan_IPFinalize                                  output.o
IDMan_IPFinalizeReader                            output.o
IDMan_IPIdPassListMalloc                          output.o
IDMan_IPInitialize                                output.o
IDMan_IPInitializeReader                          output.o
IDMan_IPMkPublicKeyObj                            output.o
IDMan_IPMkRandHash                                output.o
IDMan_IPRetJudgment                               output.o
IDMan_IPSignatureVerify                           output.o
IDMan_IPgCIndexParamChk                           output.o
IDMan_IPgCParamChk                                output.o
IDMan_IPgIdxSParamChk                             output.o
IDMan_IPgSParamChk                                output.o
IDMan_IPgetCertIdxPKCS                            output.o
IDMan_IPgetCertPKCS                               output.o
IDMan_IPgetCertPkeyIdxPKCSx                       output.o
IDMan_IPgetCertPkeyPKCSx                          output.o
IDMan_IPgetCertPkeyPKCSy                          output.o
IDMan_IPgetHash                                   output.o
IDMan_IPgetMakeRandData                           output.o
IDMan_IPgetPrivateKey                             output.o
IDMan_IPgetPrivateKeyPKCSx                        output.o
IDMan_IPuAPKCS11IdxParamChk                       output.o
IDMan_IPuAPKCS11ParamChk                          output.o
IDMan_IPvSIdxParamChk                             output.o
IDMan_IPvSParamChk                                output.o
IDMan_PaddingParamChk                             output.o
IDMan_SCardConnect                                output.o
IDMan_SCardDisconnect                             output.o
IDMan_SCardEstablishContext                       output.o
IDMan_SCardListReaders                            output.o
IDMan_SCardReleaseContext                         output.o
IDMan_SCardSetBinay                               output.o
IDMan_SCardSizeLongToChar                         output.o
IDMan_SCardStatus                                 output.o
IDMan_SCardTransmit                               output.o
IDMan_StAtoi                                      output.o
IDMan_StAtol                                      output.o
IDMan_StFree                                      output.o
IDMan_StMalloc                                    output.o
IDMan_StMemcmp                                    output.o
IDMan_StMemcpy                                    output.o
IDMan_StMemset                                    output.o
IDMan_StReadSetData                               output.o
IDMan_StStrcat                                    output.o
IDMan_StStrchr                                    output.o
IDMan_StStrcmp                                    output.o
IDMan_StStrcpy                                    output.o
IDMan_StStrlen                                    output.o
IDMan_generateSignature                           output.o
IDMan_generateSignatureByIndex                    output.o
IDMan_getCertificate                              output.o
IDMan_getCertificateByIndex                       output.o
IDMan_getMemoryFree                               output.o
IDMan_getStaticPassword                           output.o
IDMan_userAuthPKCS11                              output.o
IDMan_userAuthPKCS11ByIndex                       output.o
IDMan_verifySignature                             output.o
IDMan_verifySignatureByIndex                      output.o
IFDHCloseChannel                                  output.o
IFDHControl                                       output.o
IFDHCreateChannel                                 output.o
IFDHGetCapabilities                               output.o
IFDHICCPresence                                   output.o
IFDHPowerICC                                      output.o
IFDHSetProtocolParameters                         output.o
IFDHTransmitToICC                                 output.o
ISSUING_DIST_POINT_free                           output.o
ISSUING_DIST_POINT_it                             output.o
ISSUING_DIST_POINT_new                            output.o
InitCryptoLibrary                                 output.o
InitLeaderCardProtocol                            output.o
InternalAuth                                      output.o
LONG_it                                           output.o
MD4_Final                                         output.o
MD4_Init                                          output.o
MD4_Transform                                     output.o
MD4_Update                                        output.o
MD4_version                                       output.o
MD5                                               output.o
MD5_Final                                         output.o
MD5_Init                                          output.o
MD5_Transform                                     output.o
MD5_Update                                        output.o
MD5_version                                       output.o
NAME_CONSTRAINTS_check                            output.o
NAME_CONSTRAINTS_free                             output.o
NAME_CONSTRAINTS_it                               output.o
NAME_CONSTRAINTS_new                              output.o
NCONF_WIN32                                       output.o
NCONF_default                                     output.o
NCONF_dump_bio                                    output.o
NCONF_free                                        output.o
NCONF_free_data                                   output.o
NCONF_get_number_e                                output.o
NCONF_get_section                                 output.o
NCONF_get_string                                  output.o
NCONF_load                                        output.o
NCONF_load_bio                                    output.o
NCONF_new                                         output.o
NETSCAPE_CERT_SEQUENCE_free                       output.o
NETSCAPE_CERT_SEQUENCE_it                         output.o
NETSCAPE_CERT_SEQUENCE_new                        output.o
NETSCAPE_SPKAC_free                               output.o
NETSCAPE_SPKAC_it                                 output.o
NETSCAPE_SPKAC_new                                output.o
NETSCAPE_SPKI_free                                output.o
NETSCAPE_SPKI_it                                  output.o
NETSCAPE_SPKI_new                                 output.o
NETSCAPE_SPKI_sign                                output.o
NETSCAPE_SPKI_verify                              output.o
NOTICEREF_free                                    output.o
NOTICEREF_it                                      output.o
NOTICEREF_new                                     output.o
OBJ_NAME_add                                      output.o
OBJ_NAME_cleanup                                  output.o
OBJ_NAME_do_all                                   output.o
OBJ_NAME_do_all_sorted                            output.o
OBJ_NAME_get                                      output.o
OBJ_NAME_init                                     output.o
OBJ_NAME_new_index                                output.o
OBJ_NAME_remove                                   output.o
OBJ_add_object                                    output.o
OBJ_add_sigid                                     output.o
OBJ_bsearch_                                      output.o
OBJ_bsearch_ex_                                   output.o
OBJ_cleanup                                       output.o
OBJ_cmp                                           output.o
OBJ_create                                        output.o
OBJ_create_objects                                output.o
OBJ_dup                                           output.o
OBJ_find_sigid_algs                               output.o
OBJ_find_sigid_by_algs                            output.o
OBJ_ln2nid                                        output.o
OBJ_new_nid                                       output.o
OBJ_nid2ln                                        output.o
OBJ_nid2obj                                       output.o
OBJ_nid2sn                                        output.o
OBJ_obj2nid                                       output.o
OBJ_obj2txt                                       output.o
OBJ_sigid_free                                    output.o
OBJ_sn2nid                                        output.o
OBJ_txt2nid                                       output.o
OBJ_txt2obj                                       output.o
OCSP_BASICRESP_free                               output.o
OCSP_BASICRESP_it                                 output.o
OCSP_BASICRESP_new                                output.o
OCSP_CERTID_free                                  output.o
OCSP_CERTID_it                                    output.o
OCSP_CERTID_new                                   output.o
OCSP_CERTSTATUS_free                              output.o
OCSP_CERTSTATUS_it                                output.o
OCSP_CERTSTATUS_new                               output.o
OCSP_CRLID_free                                   output.o
OCSP_CRLID_it                                     output.o
OCSP_CRLID_new                                    output.o
OCSP_ONEREQ_free                                  output.o
OCSP_ONEREQ_it                                    output.o
OCSP_ONEREQ_new                                   output.o
OCSP_REQINFO_free                                 output.o
OCSP_REQINFO_it                                   output.o
OCSP_REQINFO_new                                  output.o
OCSP_REQUEST_free                                 output.o
OCSP_REQUEST_it                                   output.o
OCSP_REQUEST_new                                  output.o
OCSP_RESPBYTES_free                               output.o
OCSP_RESPBYTES_it                                 output.o
OCSP_RESPBYTES_new                                output.o
OCSP_RESPDATA_free                                output.o
OCSP_RESPDATA_it                                  output.o
OCSP_RESPDATA_new                                 output.o
OCSP_RESPID_free                                  output.o
OCSP_RESPID_it                                    output.o
OCSP_RESPID_new                                   output.o
OCSP_RESPONSE_free                                output.o
OCSP_RESPONSE_it                                  output.o
OCSP_RESPONSE_new                                 output.o
OCSP_REVOKEDINFO_free                             output.o
OCSP_REVOKEDINFO_it                               output.o
OCSP_REVOKEDINFO_new                              output.o
OCSP_SERVICELOC_free                              output.o
OCSP_SERVICELOC_it                                output.o
OCSP_SERVICELOC_new                               output.o
OCSP_SIGNATURE_free                               output.o
OCSP_SIGNATURE_it                                 output.o
OCSP_SIGNATURE_new                                output.o
OCSP_SINGLERESP_free                              output.o
OCSP_SINGLERESP_it                                output.o
OCSP_SINGLERESP_new                               output.o
OPENSSL_NONPIC_relocated                          output.o
OPENSSL_asc2uni                                   output.o
OPENSSL_cleanse                                   output.o
OPENSSL_cpuid_setup                               output.o
OPENSSL_gmtime                                    output.o
OPENSSL_gmtime_adj                                output.o
OPENSSL_ia32cap_P                                 output.o
OPENSSL_ia32cap_loc                               output.o
OPENSSL_isservice                                 output.o
OPENSSL_showfatal                                 output.o
OPENSSL_stderr                                    output.o
OPENSSL_uni2asc                                   output.o
OSSL_DES_version                                  output.o
OSSL_libdes_version                               output.o
OTHERNAME_cmp                                     output.o
OTHERNAME_free                                    output.o
OTHERNAME_it                                      output.o
OTHERNAME_new                                     output.o
OpenSSLDie                                        output.o
OpenSSL_add_all_ciphers                           output.o
OpenSSL_add_all_digests                           output.o
OpenUSB                                           output.o
PAGE_POOL_START                                   output.o
PBE2PARAM_free                                    output.o
PBE2PARAM_it                                      output.o
PBE2PARAM_new                                     output.o
PBEPARAM_free                                     output.o
PBEPARAM_it                                       output.o
PBEPARAM_new                                      output.o
PBKDF2PARAM_free                                  output.o
PBKDF2PARAM_it                                    output.o
PBKDF2PARAM_new                                   output.o
PEM_ASN1_read_bio                                 output.o
PEM_ASN1_write_bio                                output.o
PEM_bytes_read_bio                                output.o
PEM_def_callback                                  output.o
PEM_dek_info                                      output.o
PEM_do_header                                     output.o
PEM_get_EVP_CIPHER_INFO                           output.o
PEM_proc_type                                     output.o
PEM_read_bio                                      output.o
PEM_read_bio_CMS                                  output.o
PEM_read_bio_DHparams                             output.o
PEM_read_bio_DSAPrivateKey                        output.o
PEM_read_bio_DSA_PUBKEY                           output.o
PEM_read_bio_DSAparams                            output.o
PEM_read_bio_ECPKParameters                       output.o
PEM_read_bio_ECPrivateKey                         output.o
PEM_read_bio_EC_PUBKEY                            output.o
PEM_read_bio_NETSCAPE_CERT_SEQUENCE               output.o
PEM_read_bio_PKCS7                                output.o
PEM_read_bio_PKCS8                                output.o
PEM_read_bio_PKCS8_PRIV_KEY_INFO                  output.o
PEM_read_bio_PUBKEY                               output.o
PEM_read_bio_Parameters                           output.o
PEM_read_bio_PrivateKey                           output.o
PEM_read_bio_RSAPrivateKey                        output.o
PEM_read_bio_RSAPublicKey                         output.o
PEM_read_bio_RSA_PUBKEY                           output.o
PEM_read_bio_X509                                 output.o
PEM_read_bio_X509_CRL                             output.o
PEM_read_bio_X509_REQ                             output.o
PEM_version                                       output.o
PEM_write_bio                                     output.o
PEM_write_bio_ASN1_stream                         output.o
PEM_write_bio_CMS                                 output.o
PEM_write_bio_CMS_stream                          output.o
PEM_write_bio_DHparams                            output.o
PEM_write_bio_DSAPrivateKey                       output.o
PEM_write_bio_DSA_PUBKEY                          output.o
PEM_write_bio_DSAparams                           output.o
PEM_write_bio_ECPKParameters                      output.o
PEM_write_bio_ECPrivateKey                        output.o
PEM_write_bio_EC_PUBKEY                           output.o
PEM_write_bio_NETSCAPE_CERT_SEQUENCE              output.o
PEM_write_bio_PKCS7                               output.o
PEM_write_bio_PKCS8                               output.o
PEM_write_bio_PKCS8PrivateKey                     output.o
PEM_write_bio_PKCS8PrivateKey_nid                 output.o
PEM_write_bio_PKCS8_PRIV_KEY_INFO                 output.o
PEM_write_bio_PUBKEY                              output.o
PEM_write_bio_Parameters                          output.o
PEM_write_bio_PrivateKey                          output.o
PEM_write_bio_RSAPrivateKey                       output.o
PEM_write_bio_RSAPublicKey                        output.o
PEM_write_bio_RSA_PUBKEY                          output.o
PEM_write_bio_X509                                output.o
PEM_write_bio_X509_CRL                            output.o
PEM_write_bio_X509_REQ                            output.o
PEM_write_bio_X509_REQ_NEW                        output.o
PHGetProtocol                                     output.o
PHSetProtocol                                     output.o
PKCS12_AUTHSAFES_it                               output.o
PKCS12_BAGS_free                                  output.o
PKCS12_BAGS_it                                    output.o
PKCS12_BAGS_new                                   output.o
PKCS12_MAC_DATA_free                              output.o
PKCS12_MAC_DATA_it                                output.o
PKCS12_MAC_DATA_new                               output.o
PKCS12_MAKE_KEYBAG                                output.o
PKCS12_MAKE_SHKEYBAG                              output.o
PKCS12_PBE_add                                    output.o
PKCS12_PBE_keyivgen                               output.o
PKCS12_SAFEBAGS_it                                output.o
PKCS12_SAFEBAG_free                               output.o
PKCS12_SAFEBAG_it                                 output.o
PKCS12_SAFEBAG_new                                output.o
PKCS12_certbag2x509                               output.o
PKCS12_certbag2x509crl                            output.o
PKCS12_decrypt_skey                               output.o
PKCS12_free                                       output.o
PKCS12_it                                         output.o
PKCS12_item_decrypt_d2i                           output.o
PKCS12_item_i2d_encrypt                           output.o
PKCS12_item_pack_safebag                          output.o
PKCS12_key_gen_asc                                output.o
PKCS12_key_gen_uni                                output.o
PKCS12_new                                        output.o
PKCS12_pack_authsafes                             output.o
PKCS12_pack_p7data                                output.o
PKCS12_pack_p7encdata                             output.o
PKCS12_pbe_crypt                                  output.o
PKCS12_unpack_authsafes                           output.o
PKCS12_unpack_p7data                              output.o
PKCS12_unpack_p7encdata                           output.o
PKCS12_x5092certbag                               output.o
PKCS12_x509crl2certbag                            output.o
PKCS1_MGF1                                        output.o
PKCS5_PBE_add                                     output.o
PKCS5_PBE_keyivgen                                output.o
PKCS5_PBKDF2_HMAC                                 output.o
PKCS5_PBKDF2_HMAC_SHA1                            output.o
PKCS5_pbe2_set                                    output.o
PKCS5_pbe2_set_iv                                 output.o
PKCS5_pbe_set                                     output.o
PKCS5_pbe_set0_algor                              output.o
PKCS5_v2_PBE_keyivgen                             output.o
PKCS7_ATTR_SIGN_it                                output.o
PKCS7_ATTR_VERIFY_it                              output.o
PKCS7_DIGEST_free                                 output.o
PKCS7_DIGEST_it                                   output.o
PKCS7_DIGEST_new                                  output.o
PKCS7_ENCRYPT_free                                output.o
PKCS7_ENCRYPT_it                                  output.o
PKCS7_ENCRYPT_new                                 output.o
PKCS7_ENC_CONTENT_free                            output.o
PKCS7_ENC_CONTENT_it                              output.o
PKCS7_ENC_CONTENT_new                             output.o
PKCS7_ENVELOPE_free                               output.o
PKCS7_ENVELOPE_it                                 output.o
PKCS7_ENVELOPE_new                                output.o
PKCS7_ISSUER_AND_SERIAL_digest                    output.o
PKCS7_ISSUER_AND_SERIAL_free                      output.o
PKCS7_ISSUER_AND_SERIAL_it                        output.o
PKCS7_ISSUER_AND_SERIAL_new                       output.o
PKCS7_RECIP_INFO_free                             output.o
PKCS7_RECIP_INFO_get0_alg                         output.o
PKCS7_RECIP_INFO_it                               output.o
PKCS7_RECIP_INFO_new                              output.o
PKCS7_RECIP_INFO_set                              output.o
PKCS7_SIGNED_free                                 output.o
PKCS7_SIGNED_it                                   output.o
PKCS7_SIGNED_new                                  output.o
PKCS7_SIGNER_INFO_free                            output.o
PKCS7_SIGNER_INFO_get0_algs                       output.o
PKCS7_SIGNER_INFO_it                              output.o
PKCS7_SIGNER_INFO_new                             output.o
PKCS7_SIGNER_INFO_set                             output.o
PKCS7_SIGNER_INFO_sign                            output.o
PKCS7_SIGN_ENVELOPE_free                          output.o
PKCS7_SIGN_ENVELOPE_it                            output.o
PKCS7_SIGN_ENVELOPE_new                           output.o
PKCS7_add0_attrib_signing_time                    output.o
PKCS7_add1_attrib_digest                          output.o
PKCS7_add_attrib_content_type                     output.o
PKCS7_add_attrib_smimecap                         output.o
PKCS7_add_attribute                               output.o
PKCS7_add_certificate                             output.o
PKCS7_add_crl                                     output.o
PKCS7_add_recipient                               output.o
PKCS7_add_recipient_info                          output.o
PKCS7_add_signature                               output.o
PKCS7_add_signed_attribute                        output.o
PKCS7_add_signer                                  output.o
PKCS7_cert_from_signer_info                       output.o
PKCS7_content_new                                 output.o
PKCS7_ctrl                                        output.o
PKCS7_dataDecode                                  output.o
PKCS7_dataFinal                                   output.o
PKCS7_dataInit                                    output.o
PKCS7_dataVerify                                  output.o
PKCS7_digest_from_attributes                      output.o
PKCS7_dup                                         output.o
PKCS7_free                                        output.o
PKCS7_get_attribute                               output.o
PKCS7_get_issuer_and_serial                       output.o
PKCS7_get_signed_attribute                        output.o
PKCS7_get_signer_info                             output.o
PKCS7_get_smimecap                                output.o
PKCS7_it                                          output.o
PKCS7_new                                         output.o
PKCS7_print_ctx                                   output.o
PKCS7_set0_type_other                             output.o
PKCS7_set_attributes                              output.o
PKCS7_set_cipher                                  output.o
PKCS7_set_content                                 output.o
PKCS7_set_digest                                  output.o
PKCS7_set_signed_attributes                       output.o
PKCS7_set_type                                    output.o
PKCS7_signatureVerify                             output.o
PKCS7_simple_smimecap                             output.o
PKCS7_stream                                      output.o
PKCS8_PRIV_KEY_INFO_free                          output.o
PKCS8_PRIV_KEY_INFO_it                            output.o
PKCS8_PRIV_KEY_INFO_new                           output.o
PKCS8_decrypt                                     output.o
PKCS8_encrypt                                     output.o
PKCS8_pkey_get0                                   output.o
PKCS8_pkey_set0                                   output.o
PKCS8_set_broken                                  output.o
PKEY_USAGE_PERIOD_free                            output.o
PKEY_USAGE_PERIOD_it                              output.o
PKEY_USAGE_PERIOD_new                             output.o
POLICYINFO_free                                   output.o
POLICYINFO_it                                     output.o
POLICYINFO_new                                    output.o
POLICYQUALINFO_free                               output.o
POLICYQUALINFO_it                                 output.o
POLICYQUALINFO_new                                output.o
POLICY_CONSTRAINTS_free                           output.o
POLICY_CONSTRAINTS_it                             output.o
POLICY_CONSTRAINTS_new                            output.o
POLICY_MAPPINGS_it                                output.o
POLICY_MAPPING_free                               output.o
POLICY_MAPPING_it                                 output.o
POLICY_MAPPING_new                                output.o
PROXY_CERT_INFO_EXTENSION_free                    output.o
PROXY_CERT_INFO_EXTENSION_it                      output.o
PROXY_CERT_INFO_EXTENSION_new                     output.o
PROXY_POLICY_free                                 output.o
PROXY_POLICY_it                                   output.o
PROXY_POLICY_new                                  output.o
PowerOff                                          output.o
PowerOn                                           output.o
RAND_SSLeay                                       output.o
RAND_add                                          output.o
RAND_bytes                                        output.o
RAND_cleanup                                      output.o
RAND_get_rand_method                              output.o
RAND_poll                                         output.o
RAND_pseudo_bytes                                 output.o
RAND_seed                                         output.o
RAND_set_rand_method                              output.o
RAND_status                                       output.o
RAND_version                                      output.o
RC2_cbc_encrypt                                   output.o
RC2_cfb64_encrypt                                 output.o
RC2_decrypt                                       output.o
RC2_ecb_encrypt                                   output.o
RC2_encrypt                                       output.o
RC2_ofb64_encrypt                                 output.o
RC2_set_key                                       output.o
RC2_version                                       output.o
RC4                                               output.o
RC4_options                                       output.o
RC4_set_key                                       output.o
RC4_version                                       output.o
RFAddReader                                       output.o
RFCheckReaderEventState                           output.o
RFReaderInfoById                                  output.o
RFRemoveReader                                    output.o
RIPEMD160_Final                                   output.o
RIPEMD160_Init                                    output.o
RIPEMD160_Transform                               output.o
RIPEMD160_Update                                  output.o
RMD160_version                                    output.o
RSAPrivateKey_dup                                 output.o
RSAPrivateKey_it                                  output.o
RSAPublicKey_dup                                  output.o
RSAPublicKey_it                                   output.o
RSA_PKCS1_SSLeay                                  output.o
RSA_X931_hash_id                                  output.o
RSA_blinding_off                                  output.o
RSA_blinding_on                                   output.o
RSA_flags                                         output.o
RSA_free                                          output.o
RSA_generate_key                                  output.o
RSA_generate_key_ex                               output.o
RSA_get_default_method                            output.o
RSA_get_ex_data                                   output.o
RSA_get_ex_new_index                              output.o
RSA_get_method                                    output.o
RSA_memory_lock                                   output.o
RSA_new                                           output.o
RSA_new_method                                    output.o
RSA_padding_add_PKCS1_OAEP                        output.o
RSA_padding_add_PKCS1_PSS                         output.o
RSA_padding_add_PKCS1_type_1                      output.o
RSA_padding_add_PKCS1_type_2                      output.o
RSA_padding_add_SSLv23                            output.o
RSA_padding_add_X931                              output.o
RSA_padding_add_none                              output.o
RSA_padding_check_PKCS1_OAEP                      output.o
RSA_padding_check_PKCS1_type_1                    output.o
RSA_padding_check_PKCS1_type_2                    output.o
RSA_padding_check_SSLv23                          output.o
RSA_padding_check_X931                            output.o
RSA_padding_check_none                            output.o
RSA_private_decrypt                               output.o
RSA_private_encrypt                               output.o
RSA_public_decrypt                                output.o
RSA_public_encrypt                                output.o
RSA_set_default_method                            output.o
RSA_set_ex_data                                   output.o
RSA_set_method                                    output.o
RSA_setup_blinding                                output.o
RSA_sign                                          output.o
RSA_size                                          output.o
RSA_up_ref                                        output.o
RSA_verify                                        output.o
RSA_verify_PKCS1_PSS                              output.o
RSA_version                                       output.o
ReadBinary                                        output.o
ReadDataT0                                        output.o
ReadUSB                                           output.o
ReceiveReply                                      output.o
SCardBeginTransaction                             output.o
SCardConnect                                      output.o
SCardDisconnect                                   output.o
SCardEndTransaction                               output.o
SCardEstablishContext                             output.o
SCardListReaders                                  output.o
SCardReleaseContext                               output.o
SCardStatus                                       output.o
SCardTransmit                                     output.o
SHA1                                              output.o
SHA1_Final                                        output.o
SHA1_Init                                         output.o
SHA1_Transform                                    output.o
SHA1_Update                                       output.o
SHA1_version                                      output.o
SHA224                                            output.o
SHA224_Final                                      output.o
SHA224_Init                                       output.o
SHA224_Update                                     output.o
SHA256                                            output.o
SHA256_Final                                      output.o
SHA256_Init                                       output.o
SHA256_Transform                                  output.o
SHA256_Update                                     output.o
SHA256_version                                    output.o
SHA384                                            output.o
SHA384_Final                                      output.o
SHA384_Init                                       output.o
SHA384_Update                                     output.o
SHA512                                            output.o
SHA512_Final                                      output.o
SHA512_Init                                       output.o
SHA512_Transform                                  output.o
SHA512_Update                                     output.o
SHA512_version                                    output.o
SHA_Final                                         output.o
SHA_Init                                          output.o
SHA_Transform                                     output.o
SHA_Update                                        output.o
SHA_version                                       output.o
SMIME_crlf_copy                                   output.o
SMIME_read_ASN1                                   output.o
SMIME_read_CMS                                    output.o
SMIME_text                                        output.o
SMIME_write_ASN1                                  output.o
SMIME_write_CMS                                   output.o
STACK_version                                     output.o
SXNETID_free                                      output.o
SXNETID_it                                        output.o
SXNETID_new                                       output.o
SXNET_add_id_INTEGER                              output.o
SXNET_add_id_asc                                  output.o
SXNET_add_id_ulong                                output.o
SXNET_free                                        output.o
SXNET_get_id_INTEGER                              output.o
SXNET_get_id_asc                                  output.o
SXNET_get_id_ulong                                output.o
SXNET_it                                          output.o
SXNET_new                                         output.o
Se4AddArpEntryList                                output.o
Se4AdjustTcpMss                                   output.o
Se4And                                            output.o
Se4BitToHex                                       output.o
Se4BroadcastMacAddress                            output.o
Se4BuildIcmpEchoPacket                            output.o
Se4CheckUnicastAddress                            output.o
Se4Cmp                                            output.o
Se4CmpArpEntry                                    output.o
Se4CmpArpWaitEntry                                output.o
Se4CmpIpCombineList                               output.o
Se4CombineIp                                      output.o
Se4FlushArpEntryList                              output.o
Se4FlushIpCombineList                             output.o
Se4FlushIpWaitList                                output.o
Se4Free                                           output.o
Se4FreeArpEntryList                               output.o
Se4FreeArpWaitList                                output.o
Se4FreeIpCombine                                  output.o
Se4FreeIpCombineList                              output.o
Se4FreeIpFragmentList                             output.o
Se4FreeIpHeaderInfo                               output.o
Se4FreeIpWait                                     output.o
Se4FreeIpWaitList                                 output.o
Se4GenerateSubnetMask                             output.o
Se4GenerateSubnetMask32                           output.o
Se4GetBroadcastAddress                            output.o
Se4GetHostAddress                                 output.o
Se4GetNetworkAddress                              output.o
Se4IPToStr                                        output.o
Se4IPToStr32                                      output.o
Se4IPToUINT                                       output.o
Se4Init                                           output.o
Se4InitArpEntryList                               output.o
Se4InitArpWaitList                                output.o
Se4InitIpCombineList                              output.o
Se4InitIpFragmentList                             output.o
Se4InitIpWaitList                                 output.o
Se4InsertIpCombine                                output.o
Se4InsertIpWait                                   output.o
Se4IpCheckChecksum                                output.o
Se4IpChecksum                                     output.o
Se4IsBroadcastAddress                             output.o
Se4IsInSameNetwork                                output.o
Se4IsSubnetMask                                   output.o
Se4IsZeroIP                                       output.o
Se4MacIpRelationKnown                             output.o
Se4MainProc                                       output.o
Se4Not                                            output.o
Se4Or                                             output.o
Se4ParseIpPacket                                  output.o
Se4ParseIpPacketICMPv4                            output.o
Se4ParseIpPacketUDPv4                             output.o
Se4ProcessArpWaitList                             output.o
Se4RecvArp                                        output.o
Se4RecvArpRequest                                 output.o
Se4RecvArpResponse                                output.o
Se4RecvEthPacket                                  output.o
Se4RecvIp                                         output.o
Se4RecvIpComplete                                 output.o
Se4SearchArpEntryList                             output.o
Se4SearchArpWaitList                              output.o
Se4SearchIpCombineList                            output.o
Se4SendArpDoProcess                               output.o
Se4SendArpRequest                                 output.o
Se4SendArpResponse                                output.o
Se4SendEthPacket                                  output.o
Se4SendIcmp                                       output.o
Se4SendIcmpEchoRequest                            output.o
Se4SendIcmpEchoResponse                           output.o
Se4SendIp                                         output.o
Se4SendIpFragment                                 output.o
Se4SendIpFragmentNow                              output.o
Se4SendRawIp                                      output.o
Se4SendUdp                                        output.o
Se4SendWaitingIpWait                              output.o
Se4StrToIP                                        output.o
Se4StrToIP32                                      output.o
Se4Tick                                           output.o
Se4UINTToIP                                       output.o
Se4ZeroIP                                         output.o
Se6AddGuestNode                                   output.o
Se6AddNeighborEntryList                           output.o
Se6And                                            output.o
Se6BroadcastMacAddress                            output.o
Se6BuildIcmpEchoPacket                            output.o
Se6CalcChecksum                                   output.o
Se6CheckIPItemStr                                 output.o
Se6CheckSubnetLength                              output.o
Se6CheckUnicastAddress                            output.o
Se6Cmp                                            output.o
Se6CmpIpCombineList                               output.o
Se6CmpNdpWaitEntry                                output.o
Se6CmpNeighborEntry                               output.o
Se6CombineIp                                      output.o
Se6FlushIpCombineList                             output.o
Se6FlushIpWaitList                                output.o
Se6FlushNeighborEntryList                         output.o
Se6Free                                           output.o
Se6FreeIpCombine                                  output.o
Se6FreeIpCombineList                              output.o
Se6FreeIpFragmentList                             output.o
Se6FreeIpHeaderInfo                               output.o
Se6FreeIpWait                                     output.o
Se6FreeIpWaitList                                 output.o
Se6FreeNdpWaitList                                output.o
Se6FreeNeighborEntryList                          output.o
Se6GenerateEui64Address                           output.o
Se6GenerateEui64GlobalAddress                     output.o
Se6GenerateEui64LocalAddress                      output.o
Se6GenerateMulticastMacAddress                    output.o
Se6GenerateSubnetMask                             output.o
Se6GetAllNodeMulticastAddr                        output.o
Se6GetAllRouterMulticastAddr                      output.o
Se6GetHostAddress                                 output.o
Se6GetIPAddrType                                  output.o
Se6GetPrefixAddress                               output.o
Se6GetSoliciationMulticastAddr                    output.o
Se6IPItemStrToChars                               output.o
Se6IPToStr                                        output.o
Se6Init                                           output.o
Se6InitIpCombineList                              output.o
Se6InitIpFragmentList                             output.o
Se6InitIpWaitList                                 output.o
Se6InitNdpWaitList                                output.o
Se6InitNeighborEntryList                          output.o
Se6InsertIpCombine                                output.o
Se6InsertIpWait                                   output.o
Se6IpChecksum                                     output.o
Se6IsGuestNode                                    output.o
Se6IsInSameNetwork                                output.o
Se6IsNetworkPrefixAddress                         output.o
Se6IsSubnetMask                                   output.o
Se6IsZeroIP                                       output.o
Se6LocalSubnet                                    output.o
Se6MacIpRelationKnown                             output.o
Se6MainProc                                       output.o
Se6Not                                            output.o
Se6Or                                             output.o
Se6ParseIpPacket                                  output.o
Se6ParseIpPacketICMPv6                            output.o
Se6ParseIpPacketUDPv6                             output.o
Se6ProcessNdpWaitList                             output.o
Se6RecvEthPacket                                  output.o
Se6RecvIp                                         output.o
Se6RecvIpComplete                                 output.o
Se6SearchIpCombineList                            output.o
Se6SearchNdpWaitList                              output.o
Se6SearchNeighborEntryList                        output.o
Se6SendEthPacket                                  output.o
Se6SendIcmp                                       output.o
Se6SendIcmpEchoRequest                            output.o
Se6SendIcmpEchoResponse                           output.o
Se6SendIcmpNeighborAdvertisement                  output.o
Se6SendIcmpNeighborSoliciation                    output.o
Se6SendIcmpRouterAdvertisement                    output.o
Se6SendIp                                         output.o
Se6SendIpFragment                                 output.o
Se6SendIpFragmentNow                              output.o
Se6SendNeighborSoliciation                        output.o
Se6SendNeighborSoliciationDoProcess               output.o
Se6SendRawIp                                      output.o
Se6SendUdp                                        output.o
Se6SendWaitingIpWait                              output.o
Se6StrToIP                                        output.o
Se6SubnetMaskToInt                                output.o
Se6Tick                                           output.o
Se6ZeroIP                                         output.o
SeAdd                                             output.o
SeAddBufStr                                       output.o
SeAdjustBufSize                                   output.o
SeB64CharToCode                                   output.o
SeB64CodeToChar                                   output.o
SeB64Decode                                       output.o
SeB64Encode                                       output.o
SeBSearch                                         output.o
SeBigNumToBuf                                     output.o
SeBigNumToStr                                     output.o
SeBinToBigNum                                     output.o
SeBinToStr                                        output.o
SeBinToStrEx                                      output.o
SeBioToBuf                                        output.o
SeBioToCert                                       output.o
SeBioToKey                                        output.o
SeBufToBigNum                                     output.o
SeBufToBio                                        output.o
SeBufToCert                                       output.o
SeBufToKey                                        output.o
SeBuildAndAddIPv6PacketOptionHeader               output.o
SeBuildICMPv6OptionValue                          output.o
SeBuildICMPv6Options                              output.o
SeBuildIPv6Packet                                 output.o
SeBuildIPv6PacketWithFragment                     output.o
SeCalcReplaceStrEx                                output.o
SeCertToBio                                       output.o
SeCertToBuf                                       output.o
SeCheckCert                                       output.o
SeCheckCertAndKey                                 output.o
SeCheckSignature                                  output.o
SeClearBuf                                        output.o
SeClearFifo                                       output.o
SeClone                                           output.o
SeCloneBuf                                        output.o
SeCloneCert                                       output.o
SeCloneKey                                        output.o
SeCloneList                                       output.o
SeCmp                                             output.o
SeCmpBuf                                          output.o
SeCmpEx                                           output.o
SeCompareCert                                     output.o
SeCompareStr                                      output.o
SeCopy                                            output.o
SeCopyStr                                         output.o
SeCopyToArray                                     output.o
SeDebug                                           output.o
SeDebugBin                                        output.o
SeDefaultTokenSplitChars                          output.o
SeDelete                                          output.o
SeDeleteAll                                       output.o
SeDeleteLock                                      output.o
SeDes3Decrypt                                     output.o
SeDes3Encrypt                                     output.o
SeDes3FreeKey                                     output.o
SeDes3NewKey                                      output.o
SeDes3RandKey                                     output.o
SeDesFreeKey                                      output.o
SeDesFreeKeyValue                                 output.o
SeDesNewKey                                       output.o
SeDesNewKeyValue                                  output.o
SeDesRandKey                                      output.o
SeDesRandKeyValue                                 output.o
SeDhCompute                                       output.o
SeDhFree                                          output.o
SeDhNew                                           output.o
SeDhNewGroup2                                     output.o
SeDumpBuf                                         output.o
SeEndWith                                         output.o
SeEndian16                                        output.o
SeEndian32                                        output.o
SeEndian64                                        output.o
SeError                                           output.o
SeEthAddSenderMacList                             output.o
SeEthDeleteOldSenderMacList                       output.o
SeEthFree                                         output.o
SeEthGenRandMacAddress                            output.o
SeEthGetInfo                                      output.o
SeEthGetNextRecvPacket                            output.o
SeEthIsSenderMacAddressExistsInList               output.o
SeEthNew                                          output.o
SeEthNicCallback                                  output.o
SeEthParseEthernetPacket                          output.o
SeEthSend                                         output.o
SeEthSendAdd                                      output.o
SeEthSendAll                                      output.o
SeFastSwap                                        output.o
SeFatal                                           output.o
SeFifoSize                                        output.o
SeFormat                                          output.o
SeFormatArgs                                      output.o
SeFormatEx                                        output.o
SeFree                                            output.o
SeFreeBio                                         output.o
SeFreeBuf                                         output.o
SeFreeBufWithoutBuffer                            output.o
SeFreeCert                                        output.o
SeFreeConfigEntryList                             output.o
SeFreeCrypto                                      output.o
SeFreeFifo                                        output.o
SeFreeKernel                                      output.o
SeFreeKey                                         output.o
SeFreeList                                        output.o
SeFreePKey                                        output.o
SeFreePacket                                      output.o
SeFreePacketList                                  output.o
SeFreePacketListWithoutBuffer                     output.o
SeFreeQueue                                       output.o
SeFreeStack                                       output.o
SeFreeToken                                       output.o
SeFreeX509                                        output.o
SeGetCertIssuerName                               output.o
SeGetCertMd5                                      output.o
SeGetCertSha1                                     output.o
SeGetCertSubjectName                              output.o
SeGetConfigBin                                    output.o
SeGetConfigBool                                   output.o
SeGetConfigEntry                                  output.o
SeGetConfigInt                                    output.o
SeGetConfigInt64                                  output.o
SeGetConfigStr                                    output.o
SeGetCurrentCpuId                                 output.o
SeGetKeyAndValue                                  output.o
SeGetKeyFromCert                                  output.o
SeGetNext                                         output.o
SeGetNextHeaderFromQueue                          output.o
SeGetNextInt                                      output.o
SeHashForSignBySHA1                               output.o
SeHexTo4Bit                                       output.o
SeHexToInt                                        output.o
SeHexToInt64                                      output.o
SeIkeBuild                                        output.o
SeIkeBuildCertPayload                             output.o
SeIkeBuildCertRequestPayload                      output.o
SeIkeBuildDataPayload                             output.o
SeIkeBuildDeletePayload                           output.o
SeIkeBuildIdPayload                               output.o
SeIkeBuildNoticePayload                           output.o
SeIkeBuildPayload                                 output.o
SeIkeBuildPayloadList                             output.o
SeIkeBuildProposalPayload                         output.o
SeIkeBuildSaPayload                               output.o
SeIkeBuildTransformPayload                        output.o
SeIkeBuildTransformValue                          output.o
SeIkeBuildTransformValueList                      output.o
SeIkeDecrypt                                      output.o
SeIkeEncrypt                                      output.o
SeIkeEncryptWithPadding                           output.o
SeIkeFree                                         output.o
SeIkeFreeCertPayload                              output.o
SeIkeFreeCertRequestPayload                       output.o
SeIkeFreeDataPayload                              output.o
SeIkeFreeDeletePayload                            output.o
SeIkeFreeIdPayload                                output.o
SeIkeFreeNoticePayload                            output.o
SeIkeFreePayload                                  output.o
SeIkeFreePayloadList                              output.o
SeIkeFreeProposalPayload                          output.o
SeIkeFreeSaPayload                                output.o
SeIkeFreeTransformPayload                         output.o
SeIkeFreeTransformValueList                       output.o
SeIkeGetFirstPayloadType                          output.o
SeIkeGetIPv4Address                               output.o
SeIkeGetIPv6Address                               output.o
SeIkeGetPayload                                   output.o
SeIkeGetPayloadNum                                output.o
SeIkeInitIPv4Address                              output.o
SeIkeInitIPv6Address                              output.o
SeIkeIpAddressToStr                               output.o
SeIkeIsZeroIP                                     output.o
SeIkeNew                                          output.o
SeIkeNewCertPayload                               output.o
SeIkeNewCertRequestPayload                        output.o
SeIkeNewDataPayload                               output.o
SeIkeNewDeletePayload                             output.o
SeIkeNewIdPayload                                 output.o
SeIkeNewNoticePayload                             output.o
SeIkeNewPayload                                   output.o
SeIkeNewProposalPayload                           output.o
SeIkeNewSaPayload                                 output.o
SeIkeNewTransformPayload                          output.o
SeIkeNewTransformValue                            output.o
SeIkeParse                                        output.o
SeIkeParseCertPayload                             output.o
SeIkeParseCertRequestPayload                      output.o
SeIkeParseDataPayload                             output.o
SeIkeParseDeletePayload                           output.o
SeIkeParseEx                                      output.o
SeIkeParseHeader                                  output.o
SeIkeParseIdPayload                               output.o
SeIkeParseNoticePayload                           output.o
SeIkeParsePayload                                 output.o
SeIkeParsePayloadList                             output.o
SeIkeParsePayloadListEx                           output.o
SeIkeParseProposalPayload                         output.o
SeIkeParseSaPayload                               output.o
SeIkeParseTransformPayload                        output.o
SeIkeParseTransformValueList                      output.o
SeIkePhase1CryptIdToKeySize                       output.o
SeIkePhase2CryptIdToKeySize                       output.o
SeIkeStrToPassword                                output.o
SeIkeStrToPhase1CryptId                           output.o
SeIkeStrToPhase1HashId                            output.o
SeIkeStrToPhase2CryptId                           output.o
SeIkeStrToPhase2HashId                            output.o
SeInfo                                            output.o
SeInitCrypto                                      output.o
SeInitKernel                                      output.o
SeInsert                                          output.o
SeInsertQueue                                     output.o
SeInsertQueueInt                                  output.o
SeInsertStr                                       output.o
SeIntFree                                         output.o
SeIntInit                                         output.o
SeIsAllLowerStr                                   output.o
SeIsAllUpperStr                                   output.o
SeIsBase64                                        output.o
SeIsBigEndian                                     output.o
SeIsCertSignedByCert                              output.o
SeIsCharInStr                                     output.o
SeIsEmptyStr                                      output.o
SeIsInList                                        output.o
SeIsInListStr                                     output.o
SeIsLittleEndian                                  output.o
SeIsSplitChar                                     output.o
SeIsZero                                          output.o
SeKeyToBio                                        output.o
SeKeyToBuf                                        output.o
SeLoad                                            output.o
SeLoadCert                                        output.o
SeLoadConfigEntryList                             output.o
SeLoadConfigEntryListFromBuf                      output.o
SeLoadKey                                         output.o
SeLock                                            output.o
SeLog                                             output.o
SeLogArgs                                         output.o
SeMacSha1                                         output.o
SeMacSha196                                       output.o
SeMacToStr                                        output.o
SeMakeCharArray                                   output.o
SeMalloc                                          output.o
SeMd5                                             output.o
SeMemSize                                         output.o
SeMemToBuf                                        output.o
SeNewBio                                          output.o
SeNewBuf                                          output.o
SeNewFifo                                         output.o
SeNewList                                         output.o
SeNewLock                                         output.o
SeNewQueue                                        output.o
SeNewStack                                        output.o
SeNormalizeCrlf                                   output.o
SeNullTokenList                                   output.o
SePKeyPasswordCallbackFunction                    output.o
SeParseICMPv6Options                              output.o
SeParseIPv6ExtHeader                              output.o
SeParseIPv6Packet                                 output.o
SeParsePacket                                     output.o
SeParsePacketL2                                   output.o
SeParsePacketL3ARPv4                              output.o
SeParsePacketL3IPv4                               output.o
SeParsePacketL3IPv6                               output.o
SeParseToken                                      output.o
SeParseTokenWithNullStr                           output.o
SePeekFifo                                        output.o
SePeekNext                                        output.o
SePop                                             output.o
SePush                                            output.o
SeQSort                                           output.o
SeRand                                            output.o
SeRand1                                           output.o
SeRand16                                          output.o
SeRand32                                          output.o
SeRand64                                          output.o
SeRand8                                           output.o
SeRandBuf                                         output.o
SeReAlloc                                         output.o
SeReadBuf                                         output.o
SeReadBufFromBuf                                  output.o
SeReadBufInt                                      output.o
SeReadBufInt64                                    output.o
SeReadBufStr                                      output.o
SeReadDump                                        output.o
SeReadFifo                                        output.o
SeReadNextLine                                    output.o
SeReadRemainBuf                                   output.o
SeReplaceListPointer                              output.o
SeReplaceStr                                      output.o
SeReplaceStrEx                                    output.o
SeReplaceStri                                     output.o
SeRsaGen                                          output.o
SeRsaPrivateDecrypt                               output.o
SeRsaPrivateEncrypt                               output.o
SeRsaPublicDecrypt                                output.o
SeRsaPublicEncrypt                                output.o
SeRsaPublicSize                                   output.o
SeRsaPublicToBin                                  output.o
SeRsaPublicToBuf                                  output.o
SeRsaSign                                         output.o
SeRsaSignWithPadding                              output.o
SeRsaSignWithSha1                                 output.o
SeRsaVerifyWithPadding                            output.o
SeRsaVerifyWithSha1                               output.o
SeSave                                            output.o
SeSaveCert                                        output.o
SeSaveKey                                         output.o
SeSearch                                          output.o
SeSearchStr                                       output.o
SeSearchStrEx                                     output.o
SeSearchStri                                      output.o
SeSecAddTimer                                     output.o
SeSecCalcKEYMAT                                   output.o
SeSecCalcKEYMATFull                               output.o
SeSecCalcKa                                       output.o
SeSecCalcP1Iv                                     output.o
SeSecCalcP1KeySet                                 output.o
SeSecCalcP2Iv                                     output.o
SeSecCheckIPsecSaExpires                          output.o
SeSecCheckIkeSaExpires                            output.o
SeSecCmpIkeSa                                     output.o
SeSecDeleteExpiredIPsecSa                         output.o
SeSecDeleteExpiredIkeSa                           output.o
SeSecDoInterval                                   output.o
SeSecEspRecvCallback                              output.o
SeSecForceReconnect                               output.o
SeSecFree                                         output.o
SeSecFreeIPsecSa                                  output.o
SeSecFreeIkeSa                                    output.o
SeSecFreeMain                                     output.o
SeSecFreeP1KeySet                                 output.o
SeSecFreeSaList                                   output.o
SeSecGenIPsecSASpi                                output.o
SeSecGenIkeSaInitCookie                           output.o
SeSecGenIkeSaMessageId                            output.o
SeSecGetIPsecSa                                   output.o
SeSecInit                                         output.o
SeSecInitMain                                     output.o
SeSecInitSaList                                   output.o
SeSecLifeSeconds64bit                             output.o
SeSecNewIPsecSa                                   output.o
SeSecNewIkeSa                                     output.o
SeSecNewSpi                                       output.o
SeSecProcessIkeSaMsg                              output.o
SeSecProcessIkeSaMsgInfo                          output.o
SeSecProcessIkeSaMsgPhase1                        output.o
SeSecProcessIkeSaMsgPhase2                        output.o
SeSecProcessMain                                  output.o
SeSecSearchIPsecSaBySpi                           output.o
SeSecSearchIkeSa                                  output.o
SeSecSearchIkeSaBySpi                             output.o
SeSecSendEsp                                      output.o
SeSecSendIPsecSaDeleteMsg                         output.o
SeSecSendIkeSaDeleteMsg                           output.o
SeSecSendIkeSaMsgInfo                             output.o
SeSecSendIkeSaMsgInfoSimple                       output.o
SeSecSendIkeSaMsgPhase2                           output.o
SeSecSendIkeSaMsgPhase2FinalHash                  output.o
SeSecSendUdp                                      output.o
SeSecSendVirtualIp                                output.o
SeSecSetRecvEspCallback                           output.o
SeSecSetRecvUdpCallback                           output.o
SeSecSetRecvVirtualIpCallback                     output.o
SeSecSetTimerCallback                             output.o
SeSecStartVpnConnect                              output.o
SeSecStrToAuthMethod                              output.o
SeSecTick                                         output.o
SeSecTimerCallback                                output.o
SeSecUdpRecvCallback                              output.o
SeSecVirtualIpRecvCallback                        output.o
SeSeekBuf                                         output.o
SeSetCmp                                          output.o
SeSetSortFlag                                     output.o
SeSha1                                            output.o
SeSort                                            output.o
SeStartWith                                       output.o
SeStrCat                                          output.o
SeStrCheckLen                                     output.o
SeStrCheckSize                                    output.o
SeStrCmp                                          output.o
SeStrCmpi                                         output.o
SeStrCpy                                          output.o
SeStrLen                                          output.o
SeStrLower                                        output.o
SeStrSize                                         output.o
SeStrToBin                                        output.o
SeStrToBinEx                                      output.o
SeStrToMac                                        output.o
SeStrUpper                                        output.o
SeStrnCmp                                         output.o
SeStrnCmpi                                        output.o
SeSwap                                            output.o
SeSwap16                                          output.o
SeSwap32                                          output.o
SeSwap64                                          output.o
SeSysFreeData                                     output.o
SeSysFreeLock                                     output.o
SeSysFreeTimer                                    output.o
SeSysGetCurrentCpuId                              output.o
SeSysGetPhysicalNicInfo                           output.o
SeSysGetTickCount                                 output.o
SeSysGetVirtualNicInfo                            output.o
SeSysLoadData                                     output.o
SeSysLock                                         output.o
SeSysLog                                          output.o
SeSysMemoryAlloc                                  output.o
SeSysMemoryFree                                   output.o
SeSysMemoryReAlloc                                output.o
SeSysNewLock                                      output.o
SeSysNewTimer                                     output.o
SeSysRsaSign                                      output.o
SeSysSaveData                                     output.o
SeSysSendPhysicalNic                              output.o
SeSysSendVirtualNic                               output.o
SeSysSetPhysicalNicRecvCallback                   output.o
SeSysSetTimer                                     output.o
SeSysSetVirtualNicRecvCallback                    output.o
SeSysUnlock                                       output.o
SeTick                                            output.o
SeTick64                                          output.o
SeTick64Internal                                  output.o
SeTimerAdjust                                     output.o
SeTimerCallback                                   output.o
SeTimerEntryCompare                               output.o
SeTimerFree                                       output.o
SeTimerNew                                        output.o
SeTimerSet                                        output.o
SeToArray                                         output.o
SeToHex                                           output.o
SeToHex64                                         output.o
SeToInt                                           output.o
SeToInt64                                         output.o
SeToLower                                         output.o
SeToStr                                           output.o
SeToStr3                                          output.o
SeToStr64                                         output.o
SeToUpper                                         output.o
SeTrim                                            output.o
SeTrimCopy                                        output.o
SeTrimCrlf                                        output.o
SeTrimLeft                                        output.o
SeTrimRight                                       output.o
SeUniqueToken                                     output.o
SeUnlock                                          output.o
SeVpn4ClientAddTimer                              output.o
SeVpn4ClientGetTick                               output.o
SeVpn4ClientSendEsp                               output.o
SeVpn4ClientSendUdp                               output.o
SeVpn4ClientSendVirtualIp                         output.o
SeVpn4ClientSetRecvEspCallback                    output.o
SeVpn4ClientSetRecvUdpCallback                    output.o
SeVpn4ClientSetRecvVirtualIpCallback              output.o
SeVpn4ClientSetTimerCallback                      output.o
SeVpn4DhcpBuildDhcpOptionList                     output.o
SeVpn4DhcpFreeOptionList                          output.o
SeVpn4DhcpOptionsToBuf                            output.o
SeVpn4DhcpParseOptionList                         output.o
SeVpn4DhcpParseOptionListMain                     output.o
SeVpn4DhcpSearchOption                            output.o
SeVpn4DhcpSendResponse                            output.o
SeVpn4DhcpServer                                  output.o
SeVpn4DoInterval                                  output.o
SeVpn4Free                                        output.o
SeVpn4FreeIPsec                                   output.o
SeVpn4IPsecInputFromPhysical                      output.o
SeVpn4IPsecInputFromVirtual                       output.o
SeVpn4IPsecMainProc                               output.o
SeVpn4IPsecSendPing                               output.o
SeVpn4Init                                        output.o
SeVpn4InitIPsec                                   output.o
SeVpn4InitSecConfig                               output.o
SeVpn4MainProc                                    output.o
SeVpn4NewDhcpOption                               output.o
SeVpn4RecvPacketPhysical                          output.o
SeVpn4RecvPacketVirtual                           output.o
SeVpn4SetTimer                                    output.o
SeVpn4Tick                                        output.o
SeVpn6ClientAddTimer                              output.o
SeVpn6ClientGetTick                               output.o
SeVpn6ClientSendEsp                               output.o
SeVpn6ClientSendUdp                               output.o
SeVpn6ClientSendVirtualIp                         output.o
SeVpn6ClientSetRecvEspCallback                    output.o
SeVpn6ClientSetRecvUdpCallback                    output.o
SeVpn6ClientSetRecvVirtualIpCallback              output.o
SeVpn6ClientSetTimerCallback                      output.o
SeVpn6DoInterval                                  output.o
SeVpn6Free                                        output.o
SeVpn6FreeIPsec                                   output.o
SeVpn6IPsecInputFromPhysical                      output.o
SeVpn6IPsecInputFromVirtual                       output.o
SeVpn6IPsecMainProc                               output.o
SeVpn6IPsecSendPing                               output.o
SeVpn6Init                                        output.o
SeVpn6InitIPsec                                   output.o
SeVpn6InitSecConfig                               output.o
SeVpn6MainProc                                    output.o
SeVpn6RecvPacketPhysical                          output.o
SeVpn6RecvPacketVirtual                           output.o
SeVpn6SetTimer                                    output.o
SeVpn6Tick                                        output.o
SeVpn6UpdateGuestOsIpAddress                      output.o
SeVpnAddTimer                                     output.o
SeVpnDoInterval                                   output.o
SeVpnEthRecvCallback                              output.o
SeVpnFree                                         output.o
SeVpnFreeConfig                                   output.o
SeVpnFreeIpStack                                  output.o
SeVpnInit                                         output.o
SeVpnInitIpStack                                  output.o
SeVpnLoadConfig                                   output.o
SeVpnMainFree                                     output.o
SeVpnMainHandler                                  output.o
SeVpnMainInit                                     output.o
SeVpnMainProcRecvEtherPacket                      output.o
SeVpnMainProcess                                  output.o
SeVpnRecvEtherPacket                              output.o
SeVpnRecvIpV4PacketCallback                       output.o
SeVpnRecvIpV6PacketCallback                       output.o
SeVpnSendEtherPacket                              output.o
SeVpnStatusChanged                                output.o
SeVpnTick                                         output.o
SeVpnTimerCallback                                output.o
SeWarning                                         output.o
SeWriteBuf                                        output.o
SeWriteBufBuf                                     output.o
SeWriteBufInt                                     output.o
SeWriteBufInt64                                   output.o
SeWriteBufLine                                    output.o
SeWriteBufStr                                     output.o
SeWriteFifo                                       output.o
SeX509ToCert                                      output.o
SeZero                                            output.o
SeZeroMalloc                                      output.o
SelectFileDF                                      output.o
SelectFileEF                                      output.o
SetATR                                            output.o
SetElem                                           output.o
SetLength                                         output.o
StIsdigit                                         output.o
StIsspace                                         output.o
T0XfrBlockCHAR                                    output.o
T0XfrBlockTPDU                                    output.o
T1NegociateIFSD                                   output.o
T1XfrBlockExtendedAPDU                            output.o
T1XfrBlockTPDU                                    output.o
TransHex2Tex                                      output.o
TransTex2Hex                                      output.o
TransmitCommand                                   output.o
TransmitPPS                                       output.o
UI_OpenSSL                                        output.o
UI_add_error_string                               output.o
UI_add_info_string                                output.o
UI_add_input_boolean                              output.o
UI_add_input_string                               output.o
UI_add_user_data                                  output.o
UI_add_verify_string                              output.o
UI_construct_prompt                               output.o
UI_create_method                                  output.o
UI_ctrl                                           output.o
UI_destroy_method                                 output.o
UI_dup_error_string                               output.o
UI_dup_info_string                                output.o
UI_dup_input_boolean                              output.o
UI_dup_input_string                               output.o
UI_dup_verify_string                              output.o
UI_free                                           output.o
UI_get0_action_string                             output.o
UI_get0_output_string                             output.o
UI_get0_result                                    output.o
UI_get0_result_string                             output.o
UI_get0_test_string                               output.o
UI_get0_user_data                                 output.o
UI_get_default_method                             output.o
UI_get_ex_data                                    output.o
UI_get_ex_new_index                               output.o
UI_get_input_flags                                output.o
UI_get_method                                     output.o
UI_get_result_maxsize                             output.o
UI_get_result_minsize                             output.o
UI_get_string_type                                output.o
UI_method_get_closer                              output.o
UI_method_get_flusher                             output.o
UI_method_get_opener                              output.o
UI_method_get_prompt_constructor                  output.o
UI_method_get_reader                              output.o
UI_method_get_writer                              output.o
UI_method_set_closer                              output.o
UI_method_set_flusher                             output.o
UI_method_set_opener                              output.o
UI_method_set_prompt_constructor                  output.o
UI_method_set_reader                              output.o
UI_method_set_writer                              output.o
UI_new                                            output.o
UI_new_method                                     output.o
UI_process                                        output.o
UI_set_default_method                             output.o
UI_set_ex_data                                    output.o
UI_set_method                                     output.o
UI_set_result                                     output.o
USERNOTICE_free                                   output.o
USERNOTICE_it                                     output.o
USERNOTICE_new                                    output.o
UTF8_getc                                         output.o
UTF8_putc                                         output.o
UpdateBinary                                      output.o
VPN_IPsec_Client_Start                            output.o
VPN_IPsec_Client_Stop                             output.o
VPN_IPsec_Free                                    output.o
VPN_IPsec_Init                                    output.o
Verify                                            output.o
WHIRLPOOL                                         output.o
WHIRLPOOL_BitUpdate                               output.o
WHIRLPOOL_Final                                   output.o
WHIRLPOOL_Init                                    output.o
WHIRLPOOL_Update                                  output.o
WriteUSB                                          output.o
X509V3_EXT_CRL_add_conf                           output.o
X509V3_EXT_CRL_add_nconf                          output.o
X509V3_EXT_REQ_add_conf                           output.o
X509V3_EXT_REQ_add_nconf                          output.o
X509V3_EXT_add                                    output.o
X509V3_EXT_add_alias                              output.o
X509V3_EXT_add_conf                               output.o
X509V3_EXT_add_list                               output.o
X509V3_EXT_add_nconf                              output.o
X509V3_EXT_add_nconf_sk                           output.o
X509V3_EXT_cleanup                                output.o
X509V3_EXT_conf                                   output.o
X509V3_EXT_conf_nid                               output.o
X509V3_EXT_d2i                                    output.o
X509V3_EXT_get                                    output.o
X509V3_EXT_get_nid                                output.o
X509V3_EXT_i2d                                    output.o
X509V3_EXT_nconf                                  output.o
X509V3_EXT_nconf_nid                              output.o
X509V3_EXT_print                                  output.o
X509V3_EXT_val_prn                                output.o
X509V3_NAME_from_section                          output.o
X509V3_add1_i2d                                   output.o
X509V3_add_standard_extensions                    output.o
X509V3_add_value                                  output.o
X509V3_add_value_bool                             output.o
X509V3_add_value_bool_nf                          output.o
X509V3_add_value_int                              output.o
X509V3_add_value_uchar                            output.o
X509V3_conf_free                                  output.o
X509V3_extensions_print                           output.o
X509V3_get_d2i                                    output.o
X509V3_get_section                                output.o
X509V3_get_string                                 output.o
X509V3_get_value_bool                             output.o
X509V3_get_value_int                              output.o
X509V3_parse_list                                 output.o
X509V3_section_free                               output.o
X509V3_set_conf_lhash                             output.o
X509V3_set_ctx                                    output.o
X509V3_set_nconf                                  output.o
X509V3_string_free                                output.o
X509_ALGORS_it                                    output.o
X509_ALGOR_dup                                    output.o
X509_ALGOR_free                                   output.o
X509_ALGOR_get0                                   output.o
X509_ALGOR_it                                     output.o
X509_ALGOR_new                                    output.o
X509_ALGOR_set0                                   output.o
X509_ATTRIBUTE_SET_it                             output.o
X509_ATTRIBUTE_count                              output.o
X509_ATTRIBUTE_create                             output.o
X509_ATTRIBUTE_create_by_NID                      output.o
X509_ATTRIBUTE_create_by_OBJ                      output.o
X509_ATTRIBUTE_create_by_txt                      output.o
X509_ATTRIBUTE_dup                                output.o
X509_ATTRIBUTE_free                               output.o
X509_ATTRIBUTE_get0_data                          output.o
X509_ATTRIBUTE_get0_object                        output.o
X509_ATTRIBUTE_get0_type                          output.o
X509_ATTRIBUTE_it                                 output.o
X509_ATTRIBUTE_new                                output.o
X509_ATTRIBUTE_set1_data                          output.o
X509_ATTRIBUTE_set1_object                        output.o
X509_CERT_AUX_free                                output.o
X509_CERT_AUX_it                                  output.o
X509_CERT_AUX_new                                 output.o
X509_CERT_AUX_print                               output.o
X509_CERT_PAIR_free                               output.o
X509_CERT_PAIR_it                                 output.o
X509_CERT_PAIR_new                                output.o
X509_CINF_free                                    output.o
X509_CINF_it                                      output.o
X509_CINF_new                                     output.o
X509_CRL_INFO_free                                output.o
X509_CRL_INFO_it                                  output.o
X509_CRL_INFO_new                                 output.o
X509_CRL_METHOD_free                              output.o
X509_CRL_METHOD_new                               output.o
X509_CRL_add0_revoked                             output.o
X509_CRL_add1_ext_i2d                             output.o
X509_CRL_add_ext                                  output.o
X509_CRL_cmp                                      output.o
X509_CRL_delete_ext                               output.o
X509_CRL_digest                                   output.o
X509_CRL_dup                                      output.o
X509_CRL_free                                     output.o
X509_CRL_get0_by_cert                             output.o
X509_CRL_get0_by_serial                           output.o
X509_CRL_get_ext                                  output.o
X509_CRL_get_ext_by_NID                           output.o
X509_CRL_get_ext_by_OBJ                           output.o
X509_CRL_get_ext_by_critical                      output.o
X509_CRL_get_ext_count                            output.o
X509_CRL_get_ext_d2i                              output.o
X509_CRL_get_meth_data                            output.o
X509_CRL_it                                       output.o
X509_CRL_match                                    output.o
X509_CRL_new                                      output.o
X509_CRL_set_default_method                       output.o
X509_CRL_set_meth_data                            output.o
X509_CRL_sign                                     output.o
X509_CRL_verify                                   output.o
X509_EXTENSIONS_it                                output.o
X509_EXTENSION_create_by_NID                      output.o
X509_EXTENSION_create_by_OBJ                      output.o
X509_EXTENSION_dup                                output.o
X509_EXTENSION_free                               output.o
X509_EXTENSION_get_critical                       output.o
X509_EXTENSION_get_data                           output.o
X509_EXTENSION_get_object                         output.o
X509_EXTENSION_it                                 output.o
X509_EXTENSION_new                                output.o
X509_EXTENSION_set_critical                       output.o
X509_EXTENSION_set_data                           output.o
X509_EXTENSION_set_object                         output.o
X509_LOOKUP_by_alias                              output.o
X509_LOOKUP_by_fingerprint                        output.o
X509_LOOKUP_by_issuer_serial                      output.o
X509_LOOKUP_by_subject                            output.o
X509_LOOKUP_ctrl                                  output.o
X509_LOOKUP_free                                  output.o
X509_LOOKUP_init                                  output.o
X509_LOOKUP_new                                   output.o
X509_LOOKUP_shutdown                              output.o
X509_NAME_ENTRIES_it                              output.o
X509_NAME_ENTRY_create_by_NID                     output.o
X509_NAME_ENTRY_create_by_OBJ                     output.o
X509_NAME_ENTRY_create_by_txt                     output.o
X509_NAME_ENTRY_dup                               output.o
X509_NAME_ENTRY_free                              output.o
X509_NAME_ENTRY_get_data                          output.o
X509_NAME_ENTRY_get_object                        output.o
X509_NAME_ENTRY_it                                output.o
X509_NAME_ENTRY_new                               output.o
X509_NAME_ENTRY_set_data                          output.o
X509_NAME_ENTRY_set_object                        output.o
X509_NAME_INTERNAL_it                             output.o
X509_NAME_add_entry                               output.o
X509_NAME_add_entry_by_NID                        output.o
X509_NAME_add_entry_by_OBJ                        output.o
X509_NAME_add_entry_by_txt                        output.o
X509_NAME_cmp                                     output.o
X509_NAME_delete_entry                            output.o
X509_NAME_digest                                  output.o
X509_NAME_dup                                     output.o
X509_NAME_entry_count                             output.o
X509_NAME_free                                    output.o
X509_NAME_get_entry                               output.o
X509_NAME_get_index_by_NID                        output.o
X509_NAME_get_index_by_OBJ                        output.o
X509_NAME_get_text_by_NID                         output.o
X509_NAME_get_text_by_OBJ                         output.o
X509_NAME_hash                                    output.o
X509_NAME_hash_old                                output.o
X509_NAME_it                                      output.o
X509_NAME_new                                     output.o
X509_NAME_oneline                                 output.o
X509_NAME_print                                   output.o
X509_NAME_print_ex                                output.o
X509_NAME_set                                     output.o
X509_OBJECT_free_contents                         output.o
X509_OBJECT_idx_by_subject                        output.o
X509_OBJECT_retrieve_by_subject                   output.o
X509_OBJECT_retrieve_match                        output.o
X509_OBJECT_up_ref_count                          output.o
X509_POLICY_NODE_print                            output.o
X509_PUBKEY_free                                  output.o
X509_PUBKEY_get                                   output.o
X509_PUBKEY_get0_param                            output.o
X509_PUBKEY_it                                    output.o
X509_PUBKEY_new                                   output.o
X509_PUBKEY_set                                   output.o
X509_PUBKEY_set0_param                            output.o
X509_PURPOSE_add                                  output.o
X509_PURPOSE_cleanup                              output.o
X509_PURPOSE_get0                                 output.o
X509_PURPOSE_get0_name                            output.o
X509_PURPOSE_get0_sname                           output.o
X509_PURPOSE_get_by_id                            output.o
X509_PURPOSE_get_by_sname                         output.o
X509_PURPOSE_get_count                            output.o
X509_PURPOSE_get_id                               output.o
X509_PURPOSE_get_trust                            output.o
X509_PURPOSE_set                                  output.o
X509_REQ_INFO_free                                output.o
X509_REQ_INFO_it                                  output.o
X509_REQ_INFO_new                                 output.o
X509_REQ_add1_attr                                output.o
X509_REQ_add1_attr_by_NID                         output.o
X509_REQ_add1_attr_by_OBJ                         output.o
X509_REQ_add1_attr_by_txt                         output.o
X509_REQ_add_extensions                           output.o
X509_REQ_add_extensions_nid                       output.o
X509_REQ_check_private_key                        output.o
X509_REQ_delete_attr                              output.o
X509_REQ_digest                                   output.o
X509_REQ_dup                                      output.o
X509_REQ_extension_nid                            output.o
X509_REQ_free                                     output.o
X509_REQ_get1_email                               output.o
X509_REQ_get_attr                                 output.o
X509_REQ_get_attr_by_NID                          output.o
X509_REQ_get_attr_by_OBJ                          output.o
X509_REQ_get_attr_count                           output.o
X509_REQ_get_extension_nids                       output.o
X509_REQ_get_extensions                           output.o
X509_REQ_get_pubkey                               output.o
X509_REQ_it                                       output.o
X509_REQ_new                                      output.o
X509_REQ_set_extension_nids                       output.o
X509_REQ_set_pubkey                               output.o
X509_REQ_set_subject_name                         output.o
X509_REQ_set_version                              output.o
X509_REQ_sign                                     output.o
X509_REQ_verify                                   output.o
X509_REVOKED_add1_ext_i2d                         output.o
X509_REVOKED_add_ext                              output.o
X509_REVOKED_delete_ext                           output.o
X509_REVOKED_free                                 output.o
X509_REVOKED_get_ext                              output.o
X509_REVOKED_get_ext_by_NID                       output.o
X509_REVOKED_get_ext_by_OBJ                       output.o
X509_REVOKED_get_ext_by_critical                  output.o
X509_REVOKED_get_ext_count                        output.o
X509_REVOKED_get_ext_d2i                          output.o
X509_REVOKED_it                                   output.o
X509_REVOKED_new                                  output.o
X509_SIG_free                                     output.o
X509_SIG_it                                       output.o
X509_SIG_new                                      output.o
X509_STORE_CTX_cleanup                            output.o
X509_STORE_CTX_free                               output.o
X509_STORE_CTX_get0_current_crl                   output.o
X509_STORE_CTX_get0_current_issuer                output.o
X509_STORE_CTX_get0_param                         output.o
X509_STORE_CTX_get0_parent_ctx                    output.o
X509_STORE_CTX_get0_policy_tree                   output.o
X509_STORE_CTX_get1_chain                         output.o
X509_STORE_CTX_get1_issuer                        output.o
X509_STORE_CTX_get_chain                          output.o
X509_STORE_CTX_get_current_cert                   output.o
X509_STORE_CTX_get_error                          output.o
X509_STORE_CTX_get_error_depth                    output.o
X509_STORE_CTX_get_ex_data                        output.o
X509_STORE_CTX_get_ex_new_index                   output.o
X509_STORE_CTX_get_explicit_policy                output.o
X509_STORE_CTX_init                               output.o
X509_STORE_CTX_new                                output.o
X509_STORE_CTX_purpose_inherit                    output.o
X509_STORE_CTX_set0_crls                          output.o
X509_STORE_CTX_set0_param                         output.o
X509_STORE_CTX_set_cert                           output.o
X509_STORE_CTX_set_chain                          output.o
X509_STORE_CTX_set_default                        output.o
X509_STORE_CTX_set_depth                          output.o
X509_STORE_CTX_set_error                          output.o
X509_STORE_CTX_set_ex_data                        output.o
X509_STORE_CTX_set_flags                          output.o
X509_STORE_CTX_set_purpose                        output.o
X509_STORE_CTX_set_time                           output.o
X509_STORE_CTX_set_trust                          output.o
X509_STORE_CTX_set_verify_cb                      output.o
X509_STORE_CTX_trusted_stack                      output.o
X509_STORE_add_cert                               output.o
X509_STORE_add_crl                                output.o
X509_STORE_add_lookup                             output.o
X509_STORE_free                                   output.o
X509_STORE_get1_certs                             output.o
X509_STORE_get1_crls                              output.o
X509_STORE_get_by_subject                         output.o
X509_STORE_new                                    output.o
X509_STORE_set1_param                             output.o
X509_STORE_set_depth                              output.o
X509_STORE_set_flags                              output.o
X509_STORE_set_purpose                            output.o
X509_STORE_set_trust                              output.o
X509_STORE_set_verify_cb                          output.o
X509_TRUST_add                                    output.o
X509_TRUST_cleanup                                output.o
X509_TRUST_get0                                   output.o
X509_TRUST_get0_name                              output.o
X509_TRUST_get_by_id                              output.o
X509_TRUST_get_count                              output.o
X509_TRUST_get_flags                              output.o
X509_TRUST_get_trust                              output.o
X509_TRUST_set                                    output.o
X509_TRUST_set_default                            output.o
X509_VAL_free                                     output.o
X509_VAL_it                                       output.o
X509_VAL_new                                      output.o
X509_VERIFY_PARAM_add0_policy                     output.o
X509_VERIFY_PARAM_add0_table                      output.o
X509_VERIFY_PARAM_clear_flags                     output.o
X509_VERIFY_PARAM_free                            output.o
X509_VERIFY_PARAM_get_depth                       output.o
X509_VERIFY_PARAM_get_flags                       output.o
X509_VERIFY_PARAM_inherit                         output.o
X509_VERIFY_PARAM_lookup                          output.o
X509_VERIFY_PARAM_new                             output.o
X509_VERIFY_PARAM_set1                            output.o
X509_VERIFY_PARAM_set1_name                       output.o
X509_VERIFY_PARAM_set1_policies                   output.o
X509_VERIFY_PARAM_set_depth                       output.o
X509_VERIFY_PARAM_set_flags                       output.o
X509_VERIFY_PARAM_set_purpose                     output.o
X509_VERIFY_PARAM_set_time                        output.o
X509_VERIFY_PARAM_set_trust                       output.o
X509_VERIFY_PARAM_table_cleanup                   output.o
X509_add1_ext_i2d                                 output.o
X509_add1_reject_object                           output.o
X509_add1_trust_object                            output.o
X509_add_ext                                      output.o
X509_alias_get0                                   output.o
X509_alias_set1                                   output.o
X509_check_akid                                   output.o
X509_check_ca                                     output.o
X509_check_issued                                 output.o
X509_check_private_key                            output.o
X509_check_purpose                                output.o
X509_check_trust                                  output.o
X509_cmp                                          output.o
X509_cmp_current_time                             output.o
X509_cmp_time                                     output.o
X509_delete_ext                                   output.o
X509_digest                                       output.o
X509_dup                                          output.o
X509_email_free                                   output.o
X509_find_by_issuer_and_serial                    output.o
X509_find_by_subject                              output.o
X509_free                                         output.o
X509_get0_pubkey_bitstr                           output.o
X509_get1_email                                   output.o
X509_get1_ocsp                                    output.o
X509_get_default_cert_area                        output.o
X509_get_default_cert_dir                         output.o
X509_get_default_cert_dir_env                     output.o
X509_get_default_cert_file                        output.o
X509_get_default_cert_file_env                    output.o
X509_get_default_private_dir                      output.o
X509_get_ex_data                                  output.o
X509_get_ex_new_index                             output.o
X509_get_ext                                      output.o
X509_get_ext_by_NID                               output.o
X509_get_ext_by_OBJ                               output.o
X509_get_ext_by_critical                          output.o
X509_get_ext_count                                output.o
X509_get_ext_d2i                                  output.o
X509_get_issuer_name                              output.o
X509_get_pubkey                                   output.o
X509_get_pubkey_parameters                        output.o
X509_get_serialNumber                             output.o
X509_get_subject_name                             output.o
X509_gmtime_adj                                   output.o
X509_issuer_and_serial_cmp                        output.o
X509_issuer_and_serial_hash                       output.o
X509_issuer_name_cmp                              output.o
X509_issuer_name_hash                             output.o
X509_issuer_name_hash_old                         output.o
X509_it                                           output.o
X509_keyid_get0                                   output.o
X509_keyid_set1                                   output.o
X509_new                                          output.o
X509_ocspid_print                                 output.o
X509_policy_check                                 output.o
X509_policy_level_get0_node                       output.o
X509_policy_level_node_count                      output.o
X509_policy_node_get0_parent                      output.o
X509_policy_node_get0_policy                      output.o
X509_policy_node_get0_qualifiers                  output.o
X509_policy_tree_free                             output.o
X509_policy_tree_get0_level                       output.o
X509_policy_tree_get0_policies                    output.o
X509_policy_tree_get0_user_policies               output.o
X509_policy_tree_level_count                      output.o
X509_print                                        output.o
X509_print_ex                                     output.o
X509_pubkey_digest                                output.o
X509_reject_clear                                 output.o
X509_set_ex_data                                  output.o
X509_sign                                         output.o
X509_signature_print                              output.o
X509_subject_name_cmp                             output.o
X509_subject_name_hash                            output.o
X509_subject_name_hash_old                        output.o
X509_supported_extension                          output.o
X509_time_adj                                     output.o
X509_time_adj_ex                                  output.o
X509_to_X509_REQ                                  output.o
X509_trust_clear                                  output.o
X509_verify                                       output.o
X509_verify_cert                                  output.o
X509_version                                      output.o
X509at_add1_attr                                  output.o
X509at_add1_attr_by_NID                           output.o
X509at_add1_attr_by_OBJ                           output.o
X509at_add1_attr_by_txt                           output.o
X509at_delete_attr                                output.o
X509at_get0_data_by_OBJ                           output.o
X509at_get_attr                                   output.o
X509at_get_attr_by_NID                            output.o
X509at_get_attr_by_OBJ                            output.o
X509at_get_attr_count                             output.o
X509v3_add_ext                                    output.o
X509v3_delete_ext                                 output.o
X509v3_get_ext                                    output.o
X509v3_get_ext_by_NID                             output.o
X509v3_get_ext_by_OBJ                             output.o
X509v3_get_ext_by_critical                        output.o
X509v3_get_ext_count                              output.o
X9_62_CHARACTERISTIC_TWO_free                     output.o
X9_62_CHARACTERISTIC_TWO_it                       output.o
X9_62_CHARACTERISTIC_TWO_new                      output.o
X9_62_CURVE_it                                    output.o
X9_62_FIELDID_it                                  output.o
X9_62_PENTANOMIAL_free                            output.o
X9_62_PENTANOMIAL_it                              output.o
X9_62_PENTANOMIAL_new                             output.o
ZLONG_it                                          output.o
_CONF_add_string                                  output.o
_CONF_free_data                                   output.o
_CONF_get_section                                 output.o
_CONF_get_section_values                          output.o
_CONF_get_string                                  output.o
_CONF_new_data                                    output.o
_CONF_new_section                                 output.o
__initfunc_acpi_init_global                       output.o
__initfunc_acpi_init_paral                        output.o
__initfunc_ata_init                               output.o
__initfunc_beep_init_msg                          output.o
__initfunc_cache_init_pass                        output.o
__initfunc_cache_init_pcpu                        output.o
__initfunc_cache_init_vcpu                        output.o
__initfunc_callrealmode_init_global               output.o
__initfunc_callrealmode_panic                     output.o
__initfunc_copy_minios                            output.o
__initfunc_core_init                              output.o
__initfunc_cpu_mmu_spt_init_global                output.o
__initfunc_cpu_mmu_spt_init_pcpu                  output.o
__initfunc_cpuid_init                             output.o
__initfunc_cpuid_pass_init                        output.o
__initfunc_create_pass_vm                         output.o
__initfunc_debug_ata_init                         output.o
__initfunc_debug_on_shift_key                     output.o
__initfunc_ehci_init                              output.o
__initfunc_end                                    output.o
__initfunc_exint_pass_init                        output.o
__initfunc_get_shiftflags                         output.o
__initfunc_gmm_pass_init                          output.o
__initfunc_idman_init                             output.o
__initfunc_idman_init_global                      output.o
__initfunc_idman_kernel_init                      output.o
__initfunc_ieee1394_init                          output.o
__initfunc_ieee1394_init_boot                     output.o
__initfunc_install_int0x15_hook                   output.o
__initfunc_int_init_global                        output.o
__initfunc_int_wakeup                             output.o
__initfunc_io_io_init                             output.o
__initfunc_io_iopass_init                         output.o
__initfunc_iommu_setup                            output.o
__initfunc_keyboard_init_msg                      output.o
__initfunc_localapic_init                         output.o
__initfunc_mm_init_global                         output.o
__initfunc_mmio_debug                             output.o
__initfunc_mmio_init                              output.o
__initfunc_msg_init_global                        output.o
__initfunc_msr_init                               output.o
__initfunc_msr_pass_init                          output.o
__initfunc_nmi_pass_init                          output.o
__initfunc_nmi_pass_init_pcpu                     output.o
__initfunc_panic_init_global                      output.o
__initfunc_panic_init_global3                     output.o
__initfunc_panic_init_msg                         output.o
__initfunc_panic_init_pcpu                        output.o
__initfunc_pci_init                               output.o
__initfunc_print_boot_msg                         output.o
__initfunc_printf_init_global                     output.o
__initfunc_pro100_init                            output.o
__initfunc_process_init_ap                        output.o
__initfunc_process_init_global                    output.o
__initfunc_process_wakeup                         output.o
__initfunc_random_init_config0                    output.o
__initfunc_random_init_global                     output.o
__initfunc_reboot_init_msg                        output.o
__initfunc_resume_pro1000                         output.o
__initfunc_segment_init_global                    output.o
__initfunc_serial_init_msg                        output.o
__initfunc_setiohooks                             output.o
__initfunc_sleep_init_global                      output.o
__initfunc_sleep_init_msg                         output.o
__initfunc_start                                  output.o
__initfunc_storage_io_initfunc                    output.o
__initfunc_storage_kernel_init                    output.o
__initfunc_suspend_pro1000                        output.o
__initfunc_svm_panic                              output.o
__initfunc_sx_init_pass_init                      output.o
__initfunc_thread_init_global                     output.o
__initfunc_thread_init_pcpu                       output.o
__initfunc_time_init_global                       output.o
__initfunc_time_init_global_status                output.o
__initfunc_time_init_msg                          output.o
__initfunc_time_init_pcpu                         output.o
__initfunc_timer_init_global                      output.o
__initfunc_tty_init_global                        output.o
__initfunc_tty_init_global2                       output.o
__initfunc_tty_init_msg                           output.o
__initfunc_uhci_init                              output.o
__initfunc_unmap_user_area                        output.o
__initfunc_vcpu_init_global                       output.o
__initfunc_vga_init                               output.o
__initfunc_virtualization_init_pcpu               output.o
__initfunc_vmmcall_boot_init                      output.o
__initfunc_vmmcall_dbgsh_init                     output.o
__initfunc_vmmcall_dbgsh_init_global              output.o
__initfunc_vmmcall_dbgsh_init_pcpu                output.o
__initfunc_vmmcall_iccard_init                    output.o
__initfunc_vmmcall_init                           output.o
__initfunc_vmmcall_log_init                       output.o
__initfunc_vmmcall_status_init                    output.o
__initfunc_vmmcall_status_init_global             output.o
__initfunc_vpn_kernel_init                        output.o
__initfunc_vpn_pro1000_init                       output.o
__initfunc_vramwrite_init_bsp                     output.o
__initfunc_vramwrite_init_msg                     output.o
__initfunc_vt_panic                               output.o
__initfunc_vt_register_status_callback            output.o
__initfunc_xsetbv_init                            output.o
__initfunc_xsetbv_pass_init                       output.o
__process_builtin                                 output.o
__process_builtin_end                             output.o
_dprintf                                          output.o
_dprintft                                         output.o
_shadow_DES_check_key                             output.o
a2d_ASN1_OBJECT                                   output.o
a2i_ASN1_INTEGER                                  output.o
a2i_ASN1_STRING                                   output.o
a2i_GENERAL_NAME                                  output.o
a2i_IPADDRESS                                     output.o
a2i_IPADDRESS_NC                                  output.o
a2i_ipadd                                         output.o
acpi_dsdt_parse                                   output.o
acpi_dsdt_system_state                            output.o
acpi_iohook                                       output.o
acpi_poweroff                                     output.o
acpi_reset                                        output.o
acpi_smi_hook                                     output.o
add_remap                                         output.o
aes_xts_init                                      output.o
ahci_config_read                                  output.o
ahci_config_write                                 output.o
ahci_new                                          output.o
alloc                                             output.o
alloc2                                            output.o
alloc_handler_descriptor                          output.o
alloc_page                                        output.o
alloc_pages                                       output.o
alloc_realmodemem                                 output.o
allocateNewAppID                                  output.o
allocateNewApplicationIdentifiers                 output.o
allocateNewVMID                                   output.o
allocateNewZeroPage                               output.o
ap_start_addr                                     output.o
apic_available                                    output.o
apinit_lock                                       output.o
apinit_procs                                      output.o
apinitproc0                                       output.o
app_pkey_methods                                  output.o
asm_vmlaunch_regs_32                              output.o
asm_vmlaunch_regs_64                              output.o
asm_vmresume_regs_32                              output.o
asm_vmresume_regs_64                              output.o
asm_vmrun_regs_32                                 output.o
asm_vmrun_regs_64                                 output.o
asn1_Finish                                       output.o
asn1_GetSequence                                  output.o
asn1_add_error                                    output.o
asn1_const_Finish                                 output.o
asn1_do_adb                                       output.o
asn1_do_lock                                      output.o
asn1_enc_free                                     output.o
asn1_enc_init                                     output.o
asn1_enc_restore                                  output.o
asn1_enc_save                                     output.o
asn1_ex_c2i                                       output.o
asn1_ex_i2c                                       output.o
asn1_get_choice_selector                          output.o
asn1_get_field_ptr                                output.o
asn1_set_choice_selector                          output.o
asn1_template_print_ctx                           output.o
assertion_failed                                  output.o
ata_ahci_mode                                     output.o
ata_bm_handle_command                             output.o
ata_bm_handle_device_specific                     output.o
ata_bm_handle_prd_table                           output.o
ata_bm_handle_status                              output.o
ata_bm_handler                                    output.o
ata_bm_handler_table                              output.o
ata_channel_lock                                  output.o
ata_channel_unlock                                output.o
ata_cmdblk_handler                                output.o
ata_cmdblk_handler_table                          output.o
ata_config_read                                   output.o
ata_config_write                                  output.o
ata_ctlblk_handler                                output.o
ata_ctlblk_handler_table                          output.o
ata_get_cmd_type                                  output.o
ata_handle_queued_status                          output.o
ata_init_io_handler                               output.o
ata_init_vendor                                   output.o
ata_set_bm_handler                                output.o
ata_set_cmdblk_handler                            output.o
ata_set_ctlblk_handler                            output.o
atapi_handle_cmd_packet                           output.o
atapi_handle_config_data                          output.o
atapi_handle_interrupt_reason                     output.o
atapi_handle_packet_data                          output.o
atapi_handle_pio_identify_packet                  output.o
auto_reboot                                       output.o
backtrace                                         output.o
beep_off                                          output.o
beep_on                                           output.o
beep_set_freq                                     output.o
bn_add_part_words                                 output.o
bn_add_words                                      output.o
bn_cmp_part_words                                 output.o
bn_cmp_words                                      output.o
bn_div_words                                      output.o
bn_dup_expand                                     output.o
bn_expand2                                        output.o
bn_mul_add_words                                  output.o
bn_mul_comba4                                     output.o
bn_mul_comba8                                     output.o
bn_mul_high                                       output.o
bn_mul_low_normal                                 output.o
bn_mul_low_recursive                              output.o
bn_mul_normal                                     output.o
bn_mul_part_recursive                             output.o
bn_mul_recursive                                  output.o
bn_mul_words                                      output.o
bn_sqr_comba4                                     output.o
bn_sqr_comba8                                     output.o
bn_sqr_normal                                     output.o
bn_sqr_recursive                                  output.o
bn_sqr_words                                      output.o
bn_sub_part_words                                 output.o
bn_sub_words                                      output.o
bss                                               output.o
c2i_ASN1_BIT_STRING                               output.o
c2i_ASN1_INTEGER                                  output.o
c2i_ASN1_OBJECT                                   output.o
cache_get_attr                                    output.o
cache_get_gmsr_amd                                output.o
cache_get_gmtrr                                   output.o
cache_get_gmtrr_attr                              output.o
cache_get_gmtrr_type                              output.o
cache_get_gmtrrcap                                output.o
cache_get_gpat                                    output.o
cache_set_gmsr_amd                                output.o
cache_set_gmtrr                                   output.o
cache_set_gpat                                    output.o
call_cpuid                                        output.o
call_initfunc                                     output.o
call_io                                           output.o
call_read_msr                                     output.o
call_write_msr                                    output.o
call_xsetbv                                       output.o
callfunc_and_getint                               output.o
callrealmode_bootcd_getstatus                     output.o
callrealmode_disk_readlba                         output.o
callrealmode_disk_readmbr                         output.o
callrealmode_end                                  output.o
callrealmode_endofcodeaddr                        output.o
callrealmode_getfontinfo                          output.o
callrealmode_getshiftflags                        output.o
callrealmode_getsysmemmap                         output.o
callrealmode_printmsg                             output.o
callrealmode_reboot                               output.o
callrealmode_setcursorpos                         output.o
callrealmode_setvideomode                         output.o
callrealmode_start                                output.o
callrealmode_start2                               output.o
callrealmode_startkernel32                        output.o
callrealmode_tcgbios                              output.o
callrealmode_usevcpu                              output.o
cancel_sleep                                      output.o
changePageStatus                                  output.o
check_defer                                       output.o
chelp_abort                                       output.o
chelp_bsearch                                     output.o
chelp_div_64_32_32                                output.o
chelp_div_64_32_64                                output.o
chelp_free                                        output.o
chelp_inited                                      output.o
chelp_isalnum                                     output.o
chelp_isalpha                                     output.o
chelp_isdigit                                     output.o
chelp_islower                                     output.o
chelp_isspace                                     output.o
chelp_isupper                                     output.o
chelp_isxdigit                                    output.o
chelp_malloc                                      output.o
chelp_memchr                                      output.o
chelp_memcmp                                      output.o
chelp_memcpy                                      output.o
chelp_memmove                                     output.o
chelp_memset                                      output.o
chelp_mod_64_32_32                                output.o
chelp_mul_64_64_64                                output.o
chelp_print                                       output.o
chelp_printf                                      output.o
chelp_qsort                                       output.o
chelp_realloc                                     output.o
chelp_snprintf                                    output.o
chelp_sprintf                                     output.o
chelp_strcat                                      output.o
chelp_strchr                                      output.o
chelp_strcmp                                      output.o
chelp_strcpy                                      output.o
chelp_stricmp                                     output.o
chelp_strlen                                      output.o
chelp_strncasecmp                                 output.o
chelp_strncmp                                     output.o
chelp_strncpy                                     output.o
chelp_strrchr                                     output.o
chelp_strtol                                      output.o
chelp_strtoul                                     output.o
chelp_strtoul_ex                                  output.o
chelp_swap                                        output.o
chelp_tolower                                     output.o
chelp_toupper                                     output.o
cleanse_ctr                                       output.o
clear_guest_status                                output.o
clflush_size                                      output.o
closePage                                         output.o
cmpxchg_gphys_l                                   output.o
cmpxchg_gphys_q                                   output.o
cmpxchg_hphys_l                                   output.o
cmpxchg_hphys_q                                   output.o
cms_Data_create                                   output.o
cms_DigestAlgorithm_find_ctx                      output.o
cms_DigestAlgorithm_init_bio                      output.o
cms_DigestAlgorithm_set                           output.o
cms_DigestedData_create                           output.o
cms_DigestedData_do_final                         output.o
cms_DigestedData_init_bio                         output.o
cms_EncryptedContent_init                         output.o
cms_EncryptedContent_init_bio                     output.o
cms_EncryptedData_init_bio                        output.o
cms_EnvelopedData_init_bio                        output.o
cms_SignedData_final                              output.o
cms_SignedData_init_bio                           output.o
cms_SignerIdentifier_cert_cmp                     output.o
cms_SignerIdentifier_get0_signer_id               output.o
cms_content_bio                                   output.o
cms_set1_SignerIdentifier                         output.o
config                                            output.o
copy_bootsector                                   output.o
core_init                                         output.o
core_io_handle_default                            output.o
core_io_modify_handler                            output.o
core_io_register_handler                          output.o
core_io_unregister_handler                        output.o
core_mm_read_guest_phys                           output.o
core_mm_write_guest_phys                          output.o
cpu_emul_cli                                      output.o
cpu_emul_cpuid                                    output.o
cpu_emul_hlt                                      output.o
cpu_emul_rdmsr                                    output.o
cpu_emul_realmode_int                             output.o
cpu_emul_sti                                      output.o
cpu_emul_wrmsr                                    output.o
cpu_emul_xsetbv                                   output.o
cpu_interpreter                                   output.o
cpu_mmu_get_pte                                   output.o
cpu_mmu_spt_clear_all                             output.o
cpu_mmu_spt_extern_mapsearch                      output.o
cpu_mmu_spt_init                                  output.o
cpu_mmu_spt_invalidate                            output.o
cpu_mmu_spt_map_1mb                               output.o
cpu_mmu_spt_pagefault                             output.o
cpu_mmu_spt_tlbflush                              output.o
cpu_mmu_spt_updatecr3                             output.o
cpu_seg_read_b                                    output.o
cpu_seg_read_l                                    output.o
cpu_seg_read_q                                    output.o
cpu_seg_read_w                                    output.o
cpu_seg_write_b                                   output.o
cpu_seg_write_l                                   output.o
cpu_seg_write_q                                   output.o
cpu_seg_write_w                                   output.o
cpu_stack_get                                     output.o
cpu_stack_pop                                     output.o
cpu_stack_push                                    output.o
cpu_stack_set                                     output.o
cpuinit_end                                       output.o
cpuinit_start                                     output.o
create_dom                                        output.o
crypt_sys_rsa_sign                                output.o
crypto_find                                       output.o
crypto_init                                       output.o
crypto_none_init                                  output.o
crypto_register                                   output.o
currentProtectedApplication                       output.o
currentRunningApplication                         output.o
curthread                                         output.o
d2i_ACCESS_DESCRIPTION                            output.o
d2i_ASN1_BIT_STRING                               output.o
d2i_ASN1_BMPSTRING                                output.o
d2i_ASN1_BOOLEAN                                  output.o
d2i_ASN1_ENUMERATED                               output.o
d2i_ASN1_GENERALIZEDTIME                          output.o
d2i_ASN1_GENERALSTRING                            output.o
d2i_ASN1_IA5STRING                                output.o
d2i_ASN1_INTEGER                                  output.o
d2i_ASN1_NULL                                     output.o
d2i_ASN1_OBJECT                                   output.o
d2i_ASN1_OCTET_STRING                             output.o
d2i_ASN1_PRINTABLE                                output.o
d2i_ASN1_PRINTABLESTRING                          output.o
d2i_ASN1_SEQUENCE_ANY                             output.o
d2i_ASN1_SET                                      output.o
d2i_ASN1_SET_ANY                                  output.o
d2i_ASN1_T61STRING                                output.o
d2i_ASN1_TIME                                     output.o
d2i_ASN1_TYPE                                     output.o
d2i_ASN1_UINTEGER                                 output.o
d2i_ASN1_UNIVERSALSTRING                          output.o
d2i_ASN1_UTCTIME                                  output.o
d2i_ASN1_UTF8STRING                               output.o
d2i_ASN1_VISIBLESTRING                            output.o
d2i_ASN1_bytes                                    output.o
d2i_ASN1_type_bytes                               output.o
d2i_AUTHORITY_INFO_ACCESS                         output.o
d2i_AUTHORITY_KEYID                               output.o
d2i_AutoPrivateKey                                output.o
d2i_BASIC_CONSTRAINTS                             output.o
d2i_CERTIFICATEPOLICIES                           output.o
d2i_CMS_ContentInfo                               output.o
d2i_CMS_bio                                       output.o
d2i_CRL_DIST_POINTS                               output.o
d2i_DHparams                                      output.o
d2i_DIRECTORYSTRING                               output.o
d2i_DISPLAYTEXT                                   output.o
d2i_DIST_POINT                                    output.o
d2i_DIST_POINT_NAME                               output.o
d2i_DSAPrivateKey                                 output.o
d2i_DSAPrivateKey_bio                             output.o
d2i_DSAPublicKey                                  output.o
d2i_DSA_PUBKEY                                    output.o
d2i_DSA_PUBKEY_bio                                output.o
d2i_DSA_SIG                                       output.o
d2i_DSAparams                                     output.o
d2i_ECDSA_SIG                                     output.o
d2i_ECPKPARAMETERS                                output.o
d2i_ECPKParameters                                output.o
d2i_ECParameters                                  output.o
d2i_ECPrivateKey                                  output.o
d2i_ECPrivateKey_bio                              output.o
d2i_EC_PRIVATEKEY                                 output.o
d2i_EC_PUBKEY                                     output.o
d2i_EC_PUBKEY_bio                                 output.o
d2i_EDIPARTYNAME                                  output.o
d2i_EXTENDED_KEY_USAGE                            output.o
d2i_GENERAL_NAME                                  output.o
d2i_GENERAL_NAMES                                 output.o
d2i_ISSUING_DIST_POINT                            output.o
d2i_NETSCAPE_CERT_SEQUENCE                        output.o
d2i_NETSCAPE_SPKAC                                output.o
d2i_NETSCAPE_SPKI                                 output.o
d2i_NOTICEREF                                     output.o
d2i_OCSP_BASICRESP                                output.o
d2i_OCSP_CERTID                                   output.o
d2i_OCSP_CERTSTATUS                               output.o
d2i_OCSP_CRLID                                    output.o
d2i_OCSP_ONEREQ                                   output.o
d2i_OCSP_REQINFO                                  output.o
d2i_OCSP_REQUEST                                  output.o
d2i_OCSP_RESPBYTES                                output.o
d2i_OCSP_RESPDATA                                 output.o
d2i_OCSP_RESPID                                   output.o
d2i_OCSP_RESPONSE                                 output.o
d2i_OCSP_REVOKEDINFO                              output.o
d2i_OCSP_SERVICELOC                               output.o
d2i_OCSP_SIGNATURE                                output.o
d2i_OCSP_SINGLERESP                               output.o
d2i_OTHERNAME                                     output.o
d2i_PBE2PARAM                                     output.o
d2i_PBEPARAM                                      output.o
d2i_PBKDF2PARAM                                   output.o
d2i_PKCS12                                        output.o
d2i_PKCS12_BAGS                                   output.o
d2i_PKCS12_MAC_DATA                               output.o
d2i_PKCS12_SAFEBAG                                output.o
d2i_PKCS12_bio                                    output.o
d2i_PKCS7                                         output.o
d2i_PKCS7_DIGEST                                  output.o
d2i_PKCS7_ENCRYPT                                 output.o
d2i_PKCS7_ENC_CONTENT                             output.o
d2i_PKCS7_ENVELOPE                                output.o
d2i_PKCS7_ISSUER_AND_SERIAL                       output.o
d2i_PKCS7_RECIP_INFO                              output.o
d2i_PKCS7_SIGNED                                  output.o
d2i_PKCS7_SIGNER_INFO                             output.o
d2i_PKCS7_SIGN_ENVELOPE                           output.o
d2i_PKCS7_bio                                     output.o
d2i_PKCS8PrivateKey_bio                           output.o
d2i_PKCS8_PRIV_KEY_INFO                           output.o
d2i_PKCS8_PRIV_KEY_INFO_bio                       output.o
d2i_PKCS8_bio                                     output.o
d2i_PKEY_USAGE_PERIOD                             output.o
d2i_POLICYINFO                                    output.o
d2i_POLICYQUALINFO                                output.o
d2i_PROXY_CERT_INFO_EXTENSION                     output.o
d2i_PROXY_POLICY                                  output.o
d2i_PUBKEY                                        output.o
d2i_PUBKEY_bio                                    output.o
d2i_PrivateKey                                    output.o
d2i_PrivateKey_bio                                output.o
d2i_RSAPrivateKey                                 output.o
d2i_RSAPrivateKey_bio                             output.o
d2i_RSAPublicKey                                  output.o
d2i_RSAPublicKey_bio                              output.o
d2i_RSA_PUBKEY                                    output.o
d2i_RSA_PUBKEY_bio                                output.o
d2i_SXNET                                         output.o
d2i_SXNETID                                       output.o
d2i_USERNOTICE                                    output.o
d2i_X509                                          output.o
d2i_X509_ALGOR                                    output.o
d2i_X509_ALGORS                                   output.o
d2i_X509_ATTRIBUTE                                output.o
d2i_X509_AUX                                      output.o
d2i_X509_CERT_AUX                                 output.o
d2i_X509_CERT_PAIR                                output.o
d2i_X509_CINF                                     output.o
d2i_X509_CRL                                      output.o
d2i_X509_CRL_INFO                                 output.o
d2i_X509_CRL_bio                                  output.o
d2i_X509_EXTENSION                                output.o
d2i_X509_EXTENSIONS                               output.o
d2i_X509_NAME                                     output.o
d2i_X509_NAME_ENTRY                               output.o
d2i_X509_PUBKEY                                   output.o
d2i_X509_REQ                                      output.o
d2i_X509_REQ_INFO                                 output.o
d2i_X509_REQ_bio                                  output.o
d2i_X509_REVOKED                                  output.o
d2i_X509_SIG                                      output.o
d2i_X509_VAL                                      output.o
d2i_X509_bio                                      output.o
deactivate_and_delete_urb                         output.o
debug_addstr                                      output.o
debug_gdb                                         output.o
debug_iohook                                      output.o
debug_msgregister                                 output.o
debug_msgunregister                               output.o
decryptcfg                                        output.o
default_pctx                                      output.o
dh_asn1_meth                                      output.o
dh_pkey_meth                                      output.o
disable_apic                                      output.o
do_exint_pass                                     output.o
do_externalint_enable                             output.o
do_io_nothing                                     output.o
do_iopass_default                                 output.o
do_panic_reboot                                   output.o
dom_io                                            output.o
dprintf_port                                      output.o
drhd_list_head                                    output.o
dsa_asn1_meths                                    output.o
dsa_builtin_paramgen                              output.o
dsa_pkey_meth                                     output.o
dsa_pub_internal_it                               output.o
dump_frame                                        output.o
dump_qh                                           output.o
dump_td                                           output.o
dump_td_byvirt                                    output.o
dwReaders                                         output.o
e801_fake_ax                                      output.o
e801_fake_bx                                      output.o
ec_GF2m_have_precompute_mult                      output.o
ec_GF2m_precompute_mult                           output.o
ec_GF2m_simple_add                                output.o
ec_GF2m_simple_cmp                                output.o
ec_GF2m_simple_dbl                                output.o
ec_GF2m_simple_field_div                          output.o
ec_GF2m_simple_field_mul                          output.o
ec_GF2m_simple_field_sqr                          output.o
ec_GF2m_simple_group_check_discriminant           output.o
ec_GF2m_simple_group_clear_finish                 output.o
ec_GF2m_simple_group_copy                         output.o
ec_GF2m_simple_group_finish                       output.o
ec_GF2m_simple_group_get_curve                    output.o
ec_GF2m_simple_group_get_degree                   output.o
ec_GF2m_simple_group_init                         output.o
ec_GF2m_simple_group_set_curve                    output.o
ec_GF2m_simple_invert                             output.o
ec_GF2m_simple_is_at_infinity                     output.o
ec_GF2m_simple_is_on_curve                        output.o
ec_GF2m_simple_make_affine                        output.o
ec_GF2m_simple_mul                                output.o
ec_GF2m_simple_oct2point                          output.o
ec_GF2m_simple_point2oct                          output.o
ec_GF2m_simple_point_clear_finish                 output.o
ec_GF2m_simple_point_copy                         output.o
ec_GF2m_simple_point_finish                       output.o
ec_GF2m_simple_point_get_affine_coordinates       output.o
ec_GF2m_simple_point_init                         output.o
ec_GF2m_simple_point_set_affine_coordinates       output.o
ec_GF2m_simple_point_set_to_infinity              output.o
ec_GF2m_simple_points_make_affine                 output.o
ec_GF2m_simple_set_compressed_coordinates         output.o
ec_GFp_mont_field_decode                          output.o
ec_GFp_mont_field_encode                          output.o
ec_GFp_mont_field_mul                             output.o
ec_GFp_mont_field_set_to_one                      output.o
ec_GFp_mont_field_sqr                             output.o
ec_GFp_mont_group_clear_finish                    output.o
ec_GFp_mont_group_copy                            output.o
ec_GFp_mont_group_finish                          output.o
ec_GFp_mont_group_init                            output.o
ec_GFp_mont_group_set_curve                       output.o
ec_GFp_nist_field_mul                             output.o
ec_GFp_nist_field_sqr                             output.o
ec_GFp_nist_group_copy                            output.o
ec_GFp_nist_group_set_curve                       output.o
ec_GFp_simple_add                                 output.o
ec_GFp_simple_cmp                                 output.o
ec_GFp_simple_dbl                                 output.o
ec_GFp_simple_field_mul                           output.o
ec_GFp_simple_field_sqr                           output.o
ec_GFp_simple_get_Jprojective_coordinates_GFp     output.o
ec_GFp_simple_group_check_discriminant            output.o
ec_GFp_simple_group_clear_finish                  output.o
ec_GFp_simple_group_copy                          output.o
ec_GFp_simple_group_finish                        output.o
ec_GFp_simple_group_get_curve                     output.o
ec_GFp_simple_group_get_degree                    output.o
ec_GFp_simple_group_init                          output.o
ec_GFp_simple_group_set_curve                     output.o
ec_GFp_simple_invert                              output.o
ec_GFp_simple_is_at_infinity                      output.o
ec_GFp_simple_is_on_curve                         output.o
ec_GFp_simple_make_affine                         output.o
ec_GFp_simple_oct2point                           output.o
ec_GFp_simple_point2oct                           output.o
ec_GFp_simple_point_clear_finish                  output.o
ec_GFp_simple_point_copy                          output.o
ec_GFp_simple_point_finish                        output.o
ec_GFp_simple_point_get_affine_coordinates        output.o
ec_GFp_simple_point_init                          output.o
ec_GFp_simple_point_set_affine_coordinates        output.o
ec_GFp_simple_point_set_to_infinity               output.o
ec_GFp_simple_points_make_affine                  output.o
ec_GFp_simple_set_Jprojective_coordinates_GFp     output.o
ec_GFp_simple_set_compressed_coordinates          output.o
ec_pkey_meth                                      output.o
ec_wNAF_have_precompute_mult                      output.o
ec_wNAF_mul                                       output.o
ec_wNAF_precompute_mult                           output.o
ecdh_check                                        output.o
ecdsa_check                                       output.o
eckey_asn1_meth                                   output.o
ehci_check_advance                                output.o
ehci_check_urb_advance                            output.o
ehci_cleanup_urbs                                 output.o
ehci_conceal_portroute                            output.o
ehci_deactivate_urb                               output.o
ehci_dump_alist                                   output.o
ehci_dump_all                                     output.o
ehci_dump_async                                   output.o
ehci_dump_qtd                                     output.o
ehci_dump_qtdm                                    output.o
ehci_dump_urb                                     output.o
ehci_dump_urblist                                 output.o
ehci_end_monitor_async                            output.o
ehci_host                                         output.o
ehci_init                                         output.o
ehci_monitor_async_list                           output.o
ehci_shadow_async_list                            output.o
ehci_shadow_buffer                                output.o
ehci_submit_bulk                                  output.o
ehci_submit_control                               output.o
ehci_submit_interrupt                             output.o
end                                               output.o
entry                                             output.o
entry_pd                                          output.o
entry_pd0                                         output.o
entry_pdp                                         output.o
ept_spinlock                                      output.o
evp_pkey_set_cb_translate                         output.o
exitprocess                                       output.o
findProtectedApplicationFromRIP                   output.o
findUnmappedPage                                  output.o
free                                              output.o
free_config_descriptors                           output.o
free_device                                       output.o
free_page                                         output.o
free_page_phys                                    output.o
g_rgSCardT0Pci                                    output.o
g_rgSCardT1Pci                                    output.o
getCurrentProtectedApplication                    output.o
getGuestRSP                                       output.o
getMemoryOwnershipTableEntry                      output.o
getMemoryOwnershipTableIndex                      output.o
getSystemCallHandlerGPA                           output.o
getTSSGVA                                         output.o
get_acpi_time                                     output.o
get_acpi_time_raw                                 output.o
get_cpu_id                                        output.o
get_cpu_time                                      output.o
get_ept_base_HPA                                  output.o
get_guest_cr3_value                               output.o
get_guest_eptp_value                              output.o
get_gurb_by_address                               output.o
get_idman_session                                 output.o
get_page_table_base_GPA                           output.o
get_seg_access_rights                             output.o
get_seg_base                                      output.o
get_time                                          output.o
getfakesysmemmap                                  output.o
getsysmemmap                                      output.o
gmm_pass_gp2hp                                    output.o
gpaToHPA                                          output.o
gs_current                                        output.o
gs_currentcpu                                     output.o
gs_init_count                                     output.o
gs_inthandling                                    output.o
gs_nmi                                            output.o
gs_syscallstack                                   output.o
guest_int0x15_e801_fake_ax                        output.o
guest_int0x15_e801_fake_bx                        output.o
guest_int0x15_e820_data_minus0x18                 output.o
guest_int0x15_e820_end                            output.o
guest_int0x15_hook                                output.o
guest_int0x15_hook_end                            output.o
guest_int0x15_orig                                output.o
gvaToGPA                                          output.o
hContext                                          output.o
hObjectCnt                                        output.o
hSessionCnt                                       output.o
handleSystemCall                                  output.o
handle_connect_status                             output.o
handle_init_to_bsp                                output.o
handle_port_reset                                 output.o
handler_descriptor                                output.o
handler_descriptor_lock                           output.o
head                                              output.o
hex_to_string                                     output.o
hmac_asn1_meth                                    output.o
hmac_pkey_meth                                    output.o
hub_portdevice_register                           output.o
hypercall_handler                                 output.o
i2a_ACCESS_DESCRIPTION                            output.o
i2a_ASN1_INTEGER                                  output.o
i2a_ASN1_OBJECT                                   output.o
i2a_ASN1_STRING                                   output.o
i2c_ASN1_BIT_STRING                               output.o
i2c_ASN1_INTEGER                                  output.o
i2d_ACCESS_DESCRIPTION                            output.o
i2d_ASN1_BIT_STRING                               output.o
i2d_ASN1_BMPSTRING                                output.o
i2d_ASN1_BOOLEAN                                  output.o
i2d_ASN1_ENUMERATED                               output.o
i2d_ASN1_GENERALIZEDTIME                          output.o
i2d_ASN1_GENERALSTRING                            output.o
i2d_ASN1_IA5STRING                                output.o
i2d_ASN1_INTEGER                                  output.o
i2d_ASN1_NULL                                     output.o
i2d_ASN1_OBJECT                                   output.o
i2d_ASN1_OCTET_STRING                             output.o
i2d_ASN1_PRINTABLE                                output.o
i2d_ASN1_PRINTABLESTRING                          output.o
i2d_ASN1_SEQUENCE_ANY                             output.o
i2d_ASN1_SET                                      output.o
i2d_ASN1_SET_ANY                                  output.o
i2d_ASN1_T61STRING                                output.o
i2d_ASN1_TIME                                     output.o
i2d_ASN1_TYPE                                     output.o
i2d_ASN1_UNIVERSALSTRING                          output.o
i2d_ASN1_UTCTIME                                  output.o
i2d_ASN1_UTF8STRING                               output.o
i2d_ASN1_VISIBLESTRING                            output.o
i2d_ASN1_bio_stream                               output.o
i2d_ASN1_bytes                                    output.o
i2d_AUTHORITY_INFO_ACCESS                         output.o
i2d_AUTHORITY_KEYID                               output.o
i2d_BASIC_CONSTRAINTS                             output.o
i2d_CERTIFICATEPOLICIES                           output.o
i2d_CMS_ContentInfo                               output.o
i2d_CMS_bio                                       output.o
i2d_CMS_bio_stream                                output.o
i2d_CRL_DIST_POINTS                               output.o
i2d_DHparams                                      output.o
i2d_DIRECTORYSTRING                               output.o
i2d_DISPLAYTEXT                                   output.o
i2d_DIST_POINT                                    output.o
i2d_DIST_POINT_NAME                               output.o
i2d_DSAPrivateKey                                 output.o
i2d_DSAPrivateKey_bio                             output.o
i2d_DSAPublicKey                                  output.o
i2d_DSA_PUBKEY                                    output.o
i2d_DSA_PUBKEY_bio                                output.o
i2d_DSA_SIG                                       output.o
i2d_DSAparams                                     output.o
i2d_ECDSA_SIG                                     output.o
i2d_ECPKPARAMETERS                                output.o
i2d_ECPKParameters                                output.o
i2d_ECParameters                                  output.o
i2d_ECPrivateKey                                  output.o
i2d_ECPrivateKey_bio                              output.o
i2d_EC_PRIVATEKEY                                 output.o
i2d_EC_PUBKEY                                     output.o
i2d_EC_PUBKEY_bio                                 output.o
i2d_EDIPARTYNAME                                  output.o
i2d_EXTENDED_KEY_USAGE                            output.o
i2d_GENERAL_NAME                                  output.o
i2d_GENERAL_NAMES                                 output.o
i2d_ISSUING_DIST_POINT                            output.o
i2d_NETSCAPE_CERT_SEQUENCE                        output.o
i2d_NETSCAPE_SPKAC                                output.o
i2d_NETSCAPE_SPKI                                 output.o
i2d_NOTICEREF                                     output.o
i2d_OCSP_BASICRESP                                output.o
i2d_OCSP_CERTID                                   output.o
i2d_OCSP_CERTSTATUS                               output.o
i2d_OCSP_CRLID                                    output.o
i2d_OCSP_ONEREQ                                   output.o
i2d_OCSP_REQINFO                                  output.o
i2d_OCSP_REQUEST                                  output.o
i2d_OCSP_RESPBYTES                                output.o
i2d_OCSP_RESPDATA                                 output.o
i2d_OCSP_RESPID                                   output.o
i2d_OCSP_RESPONSE                                 output.o
i2d_OCSP_REVOKEDINFO                              output.o
i2d_OCSP_SERVICELOC                               output.o
i2d_OCSP_SIGNATURE                                output.o
i2d_OCSP_SINGLERESP                               output.o
i2d_OTHERNAME                                     output.o
i2d_PBE2PARAM                                     output.o
i2d_PBEPARAM                                      output.o
i2d_PBKDF2PARAM                                   output.o
i2d_PKCS12                                        output.o
i2d_PKCS12_BAGS                                   output.o
i2d_PKCS12_MAC_DATA                               output.o
i2d_PKCS12_SAFEBAG                                output.o
i2d_PKCS12_bio                                    output.o
i2d_PKCS7                                         output.o
i2d_PKCS7_DIGEST                                  output.o
i2d_PKCS7_ENCRYPT                                 output.o
i2d_PKCS7_ENC_CONTENT                             output.o
i2d_PKCS7_ENVELOPE                                output.o
i2d_PKCS7_ISSUER_AND_SERIAL                       output.o
i2d_PKCS7_NDEF                                    output.o
i2d_PKCS7_RECIP_INFO                              output.o
i2d_PKCS7_SIGNED                                  output.o
i2d_PKCS7_SIGNER_INFO                             output.o
i2d_PKCS7_SIGN_ENVELOPE                           output.o
i2d_PKCS7_bio                                     output.o
i2d_PKCS8PrivateKeyInfo_bio                       output.o
i2d_PKCS8PrivateKey_bio                           output.o
i2d_PKCS8PrivateKey_nid_bio                       output.o
i2d_PKCS8_PRIV_KEY_INFO                           output.o
i2d_PKCS8_PRIV_KEY_INFO_bio                       output.o
i2d_PKCS8_bio                                     output.o
i2d_PKEY_USAGE_PERIOD                             output.o
i2d_POLICYINFO                                    output.o
i2d_POLICYQUALINFO                                output.o
i2d_PROXY_CERT_INFO_EXTENSION                     output.o
i2d_PROXY_POLICY                                  output.o
i2d_PUBKEY                                        output.o
i2d_PUBKEY_bio                                    output.o
i2d_PrivateKey                                    output.o
i2d_PrivateKey_bio                                output.o
i2d_RSAPrivateKey                                 output.o
i2d_RSAPrivateKey_bio                             output.o
i2d_RSAPublicKey                                  output.o
i2d_RSAPublicKey_bio                              output.o
i2d_RSA_PUBKEY                                    output.o
i2d_RSA_PUBKEY_bio                                output.o
i2d_SXNET                                         output.o
i2d_SXNETID                                       output.o
i2d_USERNOTICE                                    output.o
i2d_X509                                          output.o
i2d_X509_ALGOR                                    output.o
i2d_X509_ALGORS                                   output.o
i2d_X509_ATTRIBUTE                                output.o
i2d_X509_AUX                                      output.o
i2d_X509_CERT_AUX                                 output.o
i2d_X509_CERT_PAIR                                output.o
i2d_X509_CINF                                     output.o
i2d_X509_CRL                                      output.o
i2d_X509_CRL_INFO                                 output.o
i2d_X509_CRL_bio                                  output.o
i2d_X509_EXTENSION                                output.o
i2d_X509_EXTENSIONS                               output.o
i2d_X509_NAME                                     output.o
i2d_X509_NAME_ENTRY                               output.o
i2d_X509_PUBKEY                                   output.o
i2d_X509_REQ                                      output.o
i2d_X509_REQ_INFO                                 output.o
i2d_X509_REQ_bio                                  output.o
i2d_X509_REVOKED                                  output.o
i2d_X509_SIG                                      output.o
i2d_X509_VAL                                      output.o
i2d_X509_bio                                      output.o
i2o_ECPublicKey                                   output.o
i2s_ASN1_ENUMERATED                               output.o
i2s_ASN1_ENUMERATED_TABLE                         output.o
i2s_ASN1_INTEGER                                  output.o
i2s_ASN1_OCTET_STRING                             output.o
i2t_ASN1_OBJECT                                   output.o
i2v_ASN1_BIT_STRING                               output.o
i2v_GENERAL_NAME                                  output.o
i2v_GENERAL_NAMES                                 output.o
idea_cbc_encrypt                                  output.o
idea_cfb64_encrypt                                output.o
idea_ecb_encrypt                                  output.o
idea_encrypt                                      output.o
idea_ofb64_encrypt                                output.o
idea_options                                      output.o
idea_set_decrypt_key                              output.o
idea_set_encrypt_key                              output.o
idman_reinit2                                     output.o
idman_reinit_session                              output.o
idman_user_init                                   output.o
ieee1394_init                                     output.o
initPagePool                                      output.o
init_hframelist                                   output.o
initfunc_init                                     output.o
initializeNewProtectedApplication                 output.o
int1a_TCG_CompactHashLogExtendEvent               output.o
int1a_TCG_HashAll                                 output.o
int1a_TCG_HashLogEvent                            output.o
int1a_TCG_HashLogExtendEvent                      output.o
int1a_TCG_PassThroughToTPM                        output.o
int1a_TCG_StatusCheck                             output.o
int1a_TCG_TSS                                     output.o
int_callfunc                                      output.o
int_exceptionHandler                              output.o
int_fatal                                         output.o
int_handler                                       output.o
int_init_ap                                       output.o
int_rsa_verify                                    output.o
iodom_init                                        output.o
iommu_detected                                    output.o
iommu_setup                                       output.o
ipchecksum                                        output.o
keyboard_flush                                    output.o
keyboard_reset                                    output.o
level_add_node                                    output.o
level_find_node                                   output.o
lh_delete                                         output.o
lh_doall                                          output.o
lh_doall_arg                                      output.o
lh_free                                           output.o
lh_insert                                         output.o
lh_new                                            output.o
lh_num_items                                      output.o
lh_retrieve                                       output.o
lh_strhash                                        output.o
lh_version                                        output.o
libInitFlag                                       output.o
load_bootsector                                   output.o
load_minios                                       output.o
load_new_vcpu                                     output.o
localapic_change_base_msr                         output.o
localapic_mmio_register                           output.o
localapic_wait_for_sipi                           output.o
mapHPAintoHVA                                     output.o
mapmem                                            output.o
mapmem_gphys                                      output.o
mapmem_hphys                                      output.o
matched_drhd_u                                    output.o
md4_block_data_order                              output.o
md5_block_data_order                              output.o
memcmp                                            output.o
memcpy                                            output.o
memorysize                                        output.o
mempool_allocmem                                  output.o
mempool_free                                      output.o
mempool_freemem                                   output.o
mempool_new                                       output.o
memset                                            output.o
message_exitcode                                  output.o
message_exitreason                                output.o
mm_flush_wb_cache                                 output.o
mm_force_unlock                                   output.o
mm_process_alloc                                  output.o
mm_process_free                                   output.o
mm_process_map_alloc                              output.o
mm_process_map_shared                             output.o
mm_process_map_shared_physpage                    output.o
mm_process_map_stack                              output.o
mm_process_switch                                 output.o
mm_process_unmap                                  output.o
mm_process_unmap_stack                            output.o
mm_process_unmapall                               output.o
mmio_access_memory                                output.o
mmio_access_page                                  output.o
mmio_lock                                         output.o
mmio_register                                     output.o
mmio_unlock                                       output.o
mmio_unregister                                   output.o
monitor_memset                                    output.o
monitor_vmcs_read                                 output.o
monitor_vmcs_write                                output.o
move_vmm_area32                                   output.o
move_vmm_area64                                   output.o
mpudiv_128_32                                     output.o
mpumul_64_64                                      output.o
msg_findname                                      output.o
msg_register                                      output.o
msg_unregister                                    output.o
msg_unregister2                                   output.o
msg_unregisterall                                 output.o
msg_usb_bulk_read                                 output.o
msg_usb_bulk_write                                output.o
msg_usb_claim_interface                           output.o
msg_usb_close                                     output.o
msg_usb_control_msg                               output.o
msg_usb_find_busses                               output.o
msg_usb_find_devices                              output.o
msg_usb_get_busses                                output.o
msg_usb_get_string_simple                         output.o
msg_usb_init                                      output.o
msg_usb_open                                      output.o
msg_usb_release_interface                         output.o
msg_usb_reset                                     output.o
msg_vpn_FreeTimer                                 output.o
msg_vpn_GetCurrentCpuId                           output.o
msg_vpn_GetPhysicalNicInfo                        output.o
msg_vpn_GetTickCount                              output.o
msg_vpn_GetVirtualNicInfo                         output.o
msg_vpn_NewTimer                                  output.o
msg_vpn_SendPhysicalNic                           output.o
msg_vpn_SendVirtualNic                            output.o
msg_vpn_SetPhysicalNicRecvCallback                output.o
msg_vpn_SetTimer                                  output.o
msg_vpn_SetVirtualNicRecvCallback                 output.o
msg_vpn_ic_rsa_sign                               output.o
msgclose                                          output.o
msgopen                                           output.o
msgpremapbuf                                      output.o
msgregister                                       output.o
msgsendbuf                                        output.o
msgsenddesc                                       output.o
msgsendint                                        output.o
msgsetfunc                                        output.o
msgunregister                                     output.o
mszReaders                                        output.o
name_cmp                                          output.o
newprocess                                        output.o
num_dom                                           output.o
num_of_available_pages                            output.o
num_of_processors                                 output.o
numberOfProtectedApplications                     output.o
numberOfVMs                                       output.o
o2i_ECPublicKey                                   output.o
obj_cleanup_defer                                 output.o
openPage                                          output.o
packet_handle_command                             output.o
packet_handle_config                              output.o
packet_handle_invalid                             output.o
packet_handle_nondata                             output.o
packet_handle_rw                                  output.o
packet_handle_through                             output.o
panic                                             output.o
panic_oom                                         output.o
panic_test                                        output.o
panic_wakeup_all                                  output.o
parse_dmar_bios_report                            output.o
pci_append_device                                 output.o
pci_conceal_config_data_handler                   output.o
pci_conceal_new_device                            output.o
pci_config_addr_handler                           output.o
pci_config_data_handler                           output.o
pci_device_list_head                              output.o
pci_driver_list_head                              output.o
pci_handle_default_config_write                   output.o
pci_possible_new_device                           output.o
pci_print_device                                  output.o
pci_read_config_data16                            output.o
pci_read_config_data32                            output.o
pci_read_config_data8                             output.o
pci_read_config_data_port                         output.o
pci_register_driver                               output.o
pci_restore_config_addr                           output.o
pci_save_config_addr                              output.o
pci_write_config_data16                           output.o
pci_write_config_data32                           output.o
pci_write_config_data8                            output.o
pci_write_config_data_port                        output.o
pcpu_default                                      output.o
pcpu_init                                         output.o
pcpu_list_add                                     output.o
pcpu_list_foreach                                 output.o
pem_check_suffix                                  output.o
phys_in_vmm                                       output.o
phys_to_virt                                      output.o
pmap_autoalloc                                    output.o
pmap_clear                                        output.o
pmap_close                                        output.o
pmap_dump                                         output.o
pmap_getreadlevel                                 output.o
pmap_open_guest                                   output.o
pmap_open_vmm                                     output.o
pmap_pointer                                      output.o
pmap_read                                         output.o
pmap_seek                                         output.o
pmap_setlevel                                     output.o
pmap_write                                        output.o
policy_cache_find_data                            output.o
policy_cache_free                                 output.o
policy_cache_set                                  output.o
policy_cache_set_mapping                          output.o
policy_data_free                                  output.o
policy_data_new                                   output.o
policy_node_cmp_new                               output.o
policy_node_free                                  output.o
policy_node_match                                 output.o
prepare_for_sleep                                 output.o
printexitcode                                     output.o
printexitreason                                   output.o
printf                                            output.o
pro100_alloc_page                                 output.o
pro100_alloc_recv_buffer                          output.o
pro100_beep                                       output.o
pro100_config_read                                output.o
pro100_config_write                               output.o
pro100_exec_cu_op                                 output.o
pro100_flush                                      output.o
pro100_free_page                                  output.o
pro100_generate_int                               output.o
pro100_get_ctx                                    output.o
pro100_get_cu_command_string                      output.o
pro100_get_int_bit_string                         output.o
pro100_get_op_size                                output.o
pro100_get_ru_command_string                      output.o
pro100_get_stat_ack_string                        output.o
pro100_hook_read                                  output.o
pro100_hook_write                                 output.o
pro100_init                                       output.o
pro100_init_cu_base_addr                          output.o
pro100_init_recv_buffer                           output.o
pro100_init_ru_base_addr                          output.o
pro100_init_vpn_client                            output.o
pro100_io_handler                                 output.o
pro100_mem_read                                   output.o
pro100_mem_write                                  output.o
pro100_mm_handler                                 output.o
pro100_new                                        output.o
pro100_poll_ru                                    output.o
pro100_proc_guest_op                              output.o
pro100_read                                       output.o
pro100_read_send_packet                           output.o
pro100_send_packet_to_line                        output.o
pro100_sleep                                      output.o
pro100_wait_cu_ru_accepable                       output.o
pro100_write                                      output.o
pro100_write_recv_packet                          output.o
process_kill                                      output.o
process_syscall                                   output.o
processuser_no_sysenter                           output.o
processuser_syscall                               output.o
processuser_sysenter                              output.o
prohibit_iccard_init                              output.o
protectCurrentApplication                         output.o
protecting                                        output.o
ps2_locked                                        output.o
putchar                                           output.o
putchar_set_func                                  output.o
rand_ssleay_meth                                  output.o
read_gphys_b                                      output.o
read_gphys_l                                      output.o
read_gphys_q                                      output.o
read_gphys_w                                      output.o
read_hphys_b                                      output.o
read_hphys_l                                      output.o
read_hphys_q                                      output.o
read_hphys_w                                      output.o
read_linearaddr_b                                 output.o
read_linearaddr_l                                 output.o
read_linearaddr_q                                 output.o
read_linearaddr_tss                               output.o
read_linearaddr_w                                 output.o
readerState                                       output.o
readerTracker                                     output.o
realloc                                           output.o
reboot_test                                       output.o
register_status_callback                          output.o
remapPage                                         output.o
restore_guest_status                              output.o
restore_register                                  output.o
resume_vm                                         output.o
ret_to_user32                                     output.o
ret_to_user64                                     output.o
ripemd160_block_data_order                        output.o
rsa_asn1_meths                                    output.o
rsa_pkey_meth                                     output.o
rt                                                output.o
s2i_ASN1_INTEGER                                  output.o
s2i_ASN1_OCTET_STRING                             output.o
sReaderContext                                    output.o
saveSystemCallHandlerAddress                      output.o
save_guest_status                                 output.o
savemsr_index                                     output.o
savemsr_load                                      output.o
savemsr_save                                      output.o
scan_gframelist                                   output.o
schedule                                          output.o
security_storage_check_lba                        output.o
segment_init_ap                                   output.o
segment_wakeup                                    output.o
serial_getDebugChar                               output.o
serial_init_iohook                                output.o
serial_putDebugChar                               output.o
serial_putchar                                    output.o
sessionTable                                      output.o
setCurrentProtectedApplication                    output.o
set_int_handler                                   output.o
set_iofunc                                        output.o
setkbdled                                         output.o
shadow_and_activate_urb                           output.o
sig_app                                           output.o
sigx_app                                          output.o
sk_delete                                         output.o
sk_delete_ptr                                     output.o
sk_dup                                            output.o
sk_find                                           output.o
sk_find_ex                                        output.o
sk_free                                           output.o
sk_insert                                         output.o
sk_is_sorted                                      output.o
sk_new                                            output.o
sk_new_null                                       output.o
sk_num                                            output.o
sk_pop                                            output.o
sk_pop_free                                       output.o
sk_push                                           output.o
sk_set                                            output.o
sk_set_cmp_func                                   output.o
sk_shift                                          output.o
sk_sort                                           output.o
sk_unshift                                        output.o
sk_value                                          output.o
sk_zero                                           output.o
sleep_set_timer_counter                           output.o
slotFlag                                          output.o
slotTable                                         output.o
snprintf                                          output.o
start_all_processors                              output.o
storage_free                                      output.o
storage_get_num_hc                                output.o
storage_handle_sectors                            output.o
storage_hc_close                                  output.o
storage_hc_dev_atacommand                         output.o
storage_hc_dev_close                              output.o
storage_hc_dev_open                               output.o
storage_hc_hook_register                          output.o
storage_hc_hook_unregister                        output.o
storage_hc_open                                   output.o
storage_hc_register                               output.o
storage_hc_scandev                                output.o
storage_hc_unregister                             output.o
storage_init                                      output.o
storage_io_aget_size                              output.o
storage_io_aread                                  output.o
storage_io_awrite                                 output.o
storage_io_deinit                                 output.o
storage_io_get_num_devices                        output.o
storage_io_init                                   output.o
storage_new                                       output.o
storage_premap_buf                                output.o
storage_premap_handle_sectors                     output.o
strcmp                                            output.o
string_to_hex                                     output.o
strlen                                            output.o
svm_available                                     output.o
svm_enable_resume                                 output.o
svm_extern_iopass                                 output.o
svm_init                                          output.o
svm_init_signal                                   output.o
svm_ioio                                          output.o
svm_msr_update_lma                                output.o
svm_np_clear_all                                  output.o
svm_np_extern_mapsearch                           output.o
svm_np_init                                       output.o
svm_np_map_1mb                                    output.o
svm_np_pagefault                                  output.o
svm_np_tlbflush                                   output.o
svm_np_updatecr3                                  output.o
svm_paging_apply_fixed_cr0                        output.o
svm_paging_apply_fixed_cr4                        output.o
svm_paging_clear_all                              output.o
svm_paging_extern_flush_tlb_entry                 output.o
svm_paging_flush_guest_tlb                        output.o
svm_paging_get_gpat                               output.o
svm_paging_init                                   output.o
svm_paging_invalidate                             output.o
svm_paging_map_1mb                                output.o
svm_paging_npf                                    output.o
svm_paging_pagefault                              output.o
svm_paging_pg_change                              output.o
svm_paging_set_gpat                               output.o
svm_paging_spt_setcr3                             output.o
svm_paging_start                                  output.o
svm_paging_tlbflush                               output.o
svm_paging_updatecr3                              output.o
svm_panic_dump                                    output.o
svm_read_control_reg                              output.o
svm_read_flags                                    output.o
svm_read_gdtr                                     output.o
svm_read_general_reg                              output.o
svm_read_idtr                                     output.o
svm_read_ip                                       output.o
svm_read_msr                                      output.o
svm_read_sreg_acr                                 output.o
svm_read_sreg_base                                output.o
svm_read_sreg_limit                               output.o
svm_read_sreg_sel                                 output.o
svm_reset                                         output.o
svm_resume                                        output.o
svm_start_vm                                      output.o
svm_vmexit                                        output.o
svm_vminit                                        output.o
svm_write_control_reg                             output.o
svm_write_flags                                   output.o
svm_write_gdtr                                    output.o
svm_write_general_reg                             output.o
svm_write_idtr                                    output.o
svm_write_ip                                      output.o
svm_write_msr                                     output.o
svm_write_realmode_seg                            output.o
svm_writing_sreg                                  output.o
sx_handler                                        output.o
sym_to_phys                                       output.o
sync_all_processors                               output.o
sys_exitprocess                                   output.o
sys_msgclose                                      output.o
sys_msgopen                                       output.o
sys_msgregister                                   output.o
sys_msgret                                        output.o
sys_msgsendbuf                                    output.o
sys_msgsenddesc                                   output.o
sys_msgsendint                                    output.o
sys_msgsetfunc                                    output.o
sys_msgunregister                                 output.o
sys_newprocess                                    output.o
syscallHandlerAddress                             output.o
syscall_entry_lret                                output.o
syscall_entry_sysexit                             output.o
syscall_entry_sysret64                            output.o
syscall_metatata_table                            output.o
target                                            output.o
tcg_measure                                       output.o
test_gpaToHPA                                     output.o
test_logicalCPUStatus                             output.o
test_start                                        output.o
test_traverseGuestPages                           output.o
thread_exit                                       output.o
thread_gettid                                     output.o
thread_new                                        output.o
thread_set_process_switch                         output.o
thread_start0                                     output.o
thread_start1                                     output.o
thread_switch                                     output.o
thread_wakeup                                     output.o
thread_will_stop                                  output.o
timer_free                                        output.o
timer_new                                         output.o
timer_set                                         output.o
traverseGuestPages                                output.o
traverseIA32ePDPT                                 output.o
traverseIA32ePDT                                  output.o
traverseIA32ePT                                   output.o
traverseIA32ePages                                output.o
tree_find_sk                                      output.o
tty_init_iohook                                   output.o
tty_putchar                                       output.o
tty_udp_register                                  output.o
ttylog_stop                                       output.o
uhci_activate_urb                                 output.o
uhci_check_advance                                output.o
uhci_check_urb_advance                            output.o
uhci_create_urb                                   output.o
uhci_current_frame_number                         output.o
uhci_deactivate_urb                               output.o
uhci_destroy_unlinked_urbs                        output.o
uhci_destroy_urb                                  output.o
uhci_dump_all                                     output.o
uhci_error_status_string                          output.o
uhci_framelist_monitor                            output.o
uhci_init                                         output.o
uhci_monitor_boost_hc                             output.o
uhci_reactivate_urb                               output.o
uhci_shadow_buffer                                output.o
uhci_submit_bulk                                  output.o
uhci_submit_control                               output.o
uhci_submit_interrupt                             output.o
unmapHPAintoHVA                                   output.o
unmapmem                                          output.o
update_mtrr_and_pat                               output.o
usb_bulk_read                                     output.o
usb_bulk_write                                    output.o
usb_busses_head                                   output.o
usb_claim_interface                               output.o
usb_clear_halt                                    output.o
usb_close                                         output.o
usb_control_msg                                   output.o
usb_find_busses                                   output.o
usb_find_devices                                  output.o
usb_get_bus                                       output.o
usb_get_busses                                    output.o
usb_get_descriptor                                output.o
usb_get_descriptor_by_endpoint                    output.o
usb_get_descriptor_early                          output.o
usb_get_string                                    output.o
usb_get_string_simple                             output.o
usb_hc_list_head                                  output.o
usb_hook_process                                  output.o
usb_hook_register                                 output.o
usb_hook_unregister                               output.o
usb_init                                          output.o
usb_init_device_monitor                           output.o
usb_interrupt_read                                output.o
usb_interrupt_write                               output.o
usb_log_level                                     output.o
usb_new_dev_handle                                output.o
usb_open                                          output.o
usb_register_host                                 output.o
usb_release_interface                             output.o
usb_reset                                         output.o
usb_resetep                                       output.o
usb_sc_lock                                       output.o
usb_sc_unlock                                     output.o
usb_set_altinterface                              output.o
usb_set_configuration                             output.o
usb_set_debug                                     output.o
usb_unregister_devices                            output.o
usbccid_init_handle                               output.o
usbhid_init_handle                                output.o
usbhub_init_handle                                output.o
usbmsc_init_handle                                output.o
use_pae                                           output.o
usleep                                            output.o
v2i_ASN1_BIT_STRING                               output.o
v2i_GENERAL_NAME                                  output.o
v2i_GENERAL_NAMES                                 output.o
v2i_GENERAL_NAME_ex                               output.o
v3_akey_id                                        output.o
v3_alt                                            output.o
v3_bcons                                          output.o
v3_cpols                                          output.o
v3_crl_hold                                       output.o
v3_crl_invdate                                    output.o
v3_crl_num                                        output.o
v3_crl_reason                                     output.o
v3_crld                                           output.o
v3_delta_crl                                      output.o
v3_ext_ku                                         output.o
v3_freshest_crl                                   output.o
v3_idp                                            output.o
v3_info                                           output.o
v3_inhibit_anyp                                   output.o
v3_key_usage                                      output.o
v3_name_constraints                               output.o
v3_ns_ia5_list                                    output.o
v3_nscert                                         output.o
v3_ocsp_accresp                                   output.o
v3_ocsp_acutoff                                   output.o
v3_ocsp_crlid                                     output.o
v3_ocsp_nocheck                                   output.o
v3_ocsp_nonce                                     output.o
v3_ocsp_serviceloc                                output.o
v3_pci                                            output.o
v3_pkey_usage_period                              output.o
v3_policy_constraints                             output.o
v3_policy_mappings                                output.o
v3_sinfo                                          output.o
v3_skey_id                                        output.o
v3_sxnet                                          output.o
vcpu_list_foreach                                 output.o
vga_fill_rect                                     output.o
vga_get_screen_size                               output.o
vga_is_ready                                      output.o
vga_register                                      output.o
vga_transfer_image                                output.o
virt_to_phys                                      output.o
vmctl_svm_init                                    output.o
vmctl_vt_init                                     output.o
vmm_base_cr3                                      output.o
vmm_main                                          output.o
vmm_pd                                            output.o
vmm_pd1                                           output.o
vmm_pd2                                           output.o
vmm_pdp                                           output.o
vmm_pml4                                          output.o
vmm_start_inf                                     output.o
vmm_term_inf                                      output.o
vmmcall                                           output.o
vmmcall_boot_continue                             output.o
vmmcall_boot_enable                               output.o
vmmcall_init                                      output.o
vmmcall_register                                  output.o
vmmsize                                           output.o
vpn_FreeTimer                                     output.o
vpn_GetCurrentCpuId                               output.o
vpn_GetPhysicalNicInfo                            output.o
vpn_GetTickCount                                  output.o
vpn_GetVirtualNicInfo                             output.o
vpn_NewTimer                                      output.o
vpn_SendPhysicalNic                               output.o
vpn_SendVirtualNic                                output.o
vpn_SetPhysicalNicRecvCallback                    output.o
vpn_SetTimer                                      output.o
vpn_SetVirtualNicRecvCallback                     output.o
vpn_ic_rsa_sign                                   output.o
vpn_new_nic                                       output.o
vpn_premap_PhysicalNicRecv                        output.o
vpn_premap_VirtualNicRecv                         output.o
vpn_premap_recvbuf                                output.o
vpn_start                                         output.o
vpn_user_init                                     output.o
vprintf                                           output.o
vramwrite_clearscreen                             output.o
vramwrite_exit_global                             output.o
vramwrite_get_cursor_pos                          output.o
vramwrite_init_global                             output.o
vramwrite_mark1                                   output.o
vramwrite_mark2                                   output.o
vramwrite_mark3                                   output.o
vramwrite_putchar                                 output.o
vramwrite_restore_cursor                          output.o
vramwrite_save_and_move_cursor                    output.o
vsnprintf                                         output.o
vt__vmx_init                                      output.o
vt__vmxon                                         output.o
vt_add_guest_msr                                  output.o
vt_available                                      output.o
vt_enable_resume                                  output.o
vt_ept_clear_all                                  output.o
vt_ept_extern_mapsearch                           output.o
vt_ept_init                                       output.o
vt_ept_map_1mb                                    output.o
vt_ept_tlbflush                                   output.o
vt_ept_updatecr3                                  output.o
vt_ept_violation                                  output.o
vt_extern_iopass                                  output.o
vt_generate_external_int                          output.o
vt_generate_pagefault                             output.o
vt_get_current_regs_in_vmcs                       output.o
vt_get_vmcs_regs_in_vmcs                          output.o
vt_init                                           output.o
vt_init_signal                                    output.o
vt_io                                             output.o
vt_iopass                                         output.o
vt_iopass_init                                    output.o
vt_msr_init                                       output.o
vt_msr_update_lma                                 output.o
vt_paging_apply_fixed_cr0                         output.o
vt_paging_apply_fixed_cr4                         output.o
vt_paging_clear_all                               output.o
vt_paging_extern_flush_tlb_entry                  output.o
vt_paging_flush_guest_tlb                         output.o
vt_paging_get_gpat                                output.o
vt_paging_init                                    output.o
vt_paging_invalidate                              output.o
vt_paging_map_1mb                                 output.o
vt_paging_npf                                     output.o
vt_paging_pagefault                               output.o
vt_paging_pg_change                               output.o
vt_paging_set_gpat                                output.o
vt_paging_spt_setcr3                              output.o
vt_paging_start                                   output.o
vt_paging_tlbflush                                output.o
vt_paging_updatecr3                               output.o
vt_panic_dump                                     output.o
vt_read_control_reg                               output.o
vt_read_flags                                     output.o
vt_read_gdtr                                      output.o
vt_read_general_reg                               output.o
vt_read_guest_msr                                 output.o
vt_read_idtr                                      output.o
vt_read_ip                                        output.o
vt_read_msr                                       output.o
vt_read_sreg_acr                                  output.o
vt_read_sreg_base                                 output.o
vt_read_sreg_limit                                output.o
vt_read_sreg_sel                                  output.o
vt_reset                                          output.o
vt_resume                                         output.o
vt_start_vm                                       output.o
vt_update_exception_bmp                           output.o
vt_vmexit                                         output.o
vt_vminit                                         output.o
vt_vmptrld                                        output.o
vt_write_control_reg                              output.o
vt_write_flags                                    output.o
vt_write_gdtr                                     output.o
vt_write_general_reg                              output.o
vt_write_guest_msr                                output.o
vt_write_idtr                                     output.o
vt_write_ip                                       output.o
vt_write_msr                                      output.o
vt_write_realmode_seg                             output.o
vt_writing_sreg                                   output.o
waitcycles                                        output.o
wakeup_cont                                       output.o
wakeup_entry_addr                                 output.o
wakeup_entry_cr0                                  output.o
wakeup_entry_cr3                                  output.o
wakeup_entry_cr4                                  output.o
wakeup_entry_end                                  output.o
wakeup_entry_gdtr                                 output.o
wakeup_entry_start                                output.o
wakeup_init                                       output.o
wakeup_main                                       output.o
whirlpool_block                                   output.o
write_gphys_b                                     output.o
write_gphys_l                                     output.o
write_gphys_q                                     output.o
write_gphys_w                                     output.o
write_hphys_b                                     output.o
write_hphys_l                                     output.o
write_hphys_q                                     output.o
write_hphys_w                                     output.o
write_linearaddr_b                                output.o
write_linearaddr_l                                output.o
write_linearaddr_ok_b                             output.o
write_linearaddr_ok_l                             output.o
write_linearaddr_ok_w                             output.o
write_linearaddr_q                                output.o
write_linearaddr_tss                              output.o
write_linearaddr_w                                output.o
x509_name_ff                                      output.o
zero_page_pool                                    output.o
