
Allocating common symbols
Common symbol       size              file

clflush_size        0x4               output.o
sReaderContext      0x60              output.o
sigx_app            0x8               output.o
num_dom             0x4               output.o
mszReaders          0x400             output.o
prohibit_iccard_init
                    0x4               output.o
curthread           0x8               output.o
sig_app             0x8               output.o
readerState         0x64              output.o
dom_io              0x800             output.o
acpi_dsdt_system_state
                    0x1e              output.o
ehci_host           0x8               output.o
num_of_processors   0x4               output.o
e801_fake_bx        0x2               output.o
iommu_detected      0x1               output.o
dwReaders           0x8               output.o
readerTracker       0x140             output.o
handler_descriptor_lock
                    0x1               output.o
e801_fake_ax        0x2               output.o

Discarded input sections

 .gomi          0x0000000000000000        0xe output.o

Memory Configuration

Name             Origin             Length             Attributes
*default*        0x0000000000000000 0xffffffffffffffff

Linker script and memory map

                0x0000000040100000                virt = 0x40100000
                0x0000000000100000                phys = 0x100000
                0x0000000040100000                . = virt
                0x0000000040100000                head = .
                0x00000000401000b0                . = (virt + SIZEOF_HEADERS)

.text           0x0000000040101000   0x1124e8 load address 0x0000000000101000
                0x0000000040101000                code = .
 *(.entry)
 .entry         0x0000000040101000     0x6000 output.o
                0x000000004010100c                entry
                0x000000004010109a                cpuinit_start
                0x00000000401012c8                vmm_base_cr3
                0x00000000401012e0                apinit_procs
                0x00000000401012e8                apinit_lock
                0x00000000401012f0                cpuinit_end
                0x0000000040103000                entry_pdp
                0x0000000040104000                entry_pd0
                0x0000000040105000                entry_pd
 *(.text)
 .text          0x0000000040107000   0x10c4e8 output.o
                0x0000000040107654                acpi_smi_hook
                0x00000000401076a1                acpi_iohook
                0x00000000401076f3                acpi_reset
                0x00000000401077f1                acpi_poweroff
                0x000000004010782a                get_acpi_time_raw
                0x000000004010c801                acpi_dsdt_parse
                0x000000004010ccf2                apinitproc0
                0x000000004010cd1b                apic_available
                0x000000004010cd49                ap_start_addr
                0x000000004010cfa3                panic_wakeup_all
                0x000000004010d033                disable_apic
                0x000000004010d0a7                sync_all_processors
                0x000000004010d137                start_all_processors
                0x000000004010d178                assertion_failed
                0x000000004010d1b5                beep_set_freq
                0x000000004010d1e3                beep_on
                0x000000004010d1f3                beep_off
                0x000000004010d842                update_mtrr_and_pat
                0x000000004010da91                cache_get_gpat
                0x000000004010dae4                cache_set_gpat
                0x000000004010db2d                cache_get_attr
                0x000000004010dbe2                cache_get_gmtrr_type
                0x000000004010dbed                cache_get_gmtrr_attr
                0x000000004010dc00                cache_get_gmtrrcap
                0x000000004010dc2e                cache_get_gmtrr
                0x000000004010dd8b                cache_set_gmtrr
                0x000000004010dde5                cache_get_gmsr_amd
                0x000000004010de35                cache_set_gmsr_amd
                0x000000004010e271                callrealmode_endofcodeaddr
                0x000000004010e282                callrealmode_usevcpu
                0x000000004010e28f                callrealmode_printmsg
                0x000000004010e2ac                callrealmode_getsysmemmap
                0x000000004010e309                callrealmode_getshiftflags
                0x000000004010e327                callrealmode_setvideomode
                0x000000004010e345                callrealmode_reboot
                0x000000004010e35f                callrealmode_tcgbios
                0x000000004010e3f3                callrealmode_disk_readmbr
                0x000000004010e432                callrealmode_disk_readlba
                0x000000004010e479                callrealmode_bootcd_getstatus
                0x000000004010e4ce                callrealmode_setcursorpos
                0x000000004010e4f3                callrealmode_startkernel32
                0x000000004010e513                callrealmode_getfontinfo
                0x000000004010e594                get_cpu_id
                0x000000004010e5b0                cpu_emul_cpuid
                0x000000004010e664                cpu_emul_rdmsr
                0x000000004010e6dd                cpu_emul_wrmsr
                0x000000004010e753                cpu_emul_hlt
                0x000000004010e76b                cpu_emul_cli
                0x000000004010e7a4                cpu_emul_sti
                0x000000004010e7eb                cpu_emul_realmode_int
                0x000000004010e967                cpu_emul_xsetbv
                0x00000000401111b0                cpu_interpreter
                0x00000000401134ec                cpu_mmu_get_pte
                0x0000000040113e95                write_linearaddr_ok_b
                0x0000000040113eb7                write_linearaddr_ok_w
                0x0000000040113ec2                write_linearaddr_ok_l
                0x0000000040113ecd                write_linearaddr_b
                0x0000000040113f45                write_linearaddr_w
                0x0000000040113fe8                write_linearaddr_l
                0x0000000040114089                write_linearaddr_q
                0x0000000040114128                read_linearaddr_b
                0x000000004011419f                read_linearaddr_w
                0x000000004011423b                read_linearaddr_l
                0x00000000401142d8                read_linearaddr_q
                0x0000000040114375                read_linearaddr_tss
                0x000000004011441a                write_linearaddr_tss
                0x00000000401184ad                cpu_mmu_spt_tlbflush
                0x00000000401184e8                cpu_mmu_spt_updatecr3
                0x0000000040118781                cpu_mmu_spt_invalidate
                0x0000000040118809                cpu_mmu_spt_pagefault
                0x00000000401189f9                cpu_mmu_spt_extern_mapsearch
                0x0000000040118b3a                cpu_mmu_spt_map_1mb
                0x0000000040118c96                cpu_mmu_spt_clear_all
                0x0000000040118df5                cpu_mmu_spt_init
                0x0000000040119464                cpu_seg_read_b
                0x00000000401194db                cpu_seg_read_w
                0x0000000040119552                cpu_seg_read_l
                0x00000000401195c9                cpu_seg_read_q
                0x0000000040119640                cpu_seg_write_b
                0x00000000401196b8                cpu_seg_write_w
                0x0000000040119730                cpu_seg_write_l
                0x00000000401197a7                cpu_seg_write_q
                0x0000000040119820                cpu_stack_get
                0x000000004011988a                cpu_stack_set
                0x000000004011991f                cpu_stack_push
                0x00000000401199d1                cpu_stack_pop
                0x0000000040119ac0                call_cpuid
                0x0000000040119e99                debug_addstr
                0x0000000040119e9f                debug_gdb
                0x0000000040119ea5                debug_iohook
                0x0000000040119eab                debug_msgregister
                0x0000000040119edb                debug_msgunregister
                0x0000000040119f79                do_exint_pass
                0x000000004011a010                read_gphys_b
                0x000000004011a08c                write_gphys_b
                0x000000004011a10f                read_gphys_w
                0x000000004011a1b5                write_gphys_w
                0x000000004011a266                read_gphys_l
                0x000000004011a30c                write_gphys_l
                0x000000004011a3c0                read_gphys_q
                0x000000004011a466                write_gphys_q
                0x000000004011a517                cmpxchg_gphys_l
                0x000000004011a5e3                cmpxchg_gphys_q
                0x000000004011aa11                gmm_pass_gp2hp
                0x000000004011ab82                idman_reinit_session
                0x000000004011abfd                idman_reinit2
                0x000000004011ac1e                get_idman_session
                0x000000004011ac60                call_initfunc
                0x000000004011acc4                initfunc_init
                0x000000004011c84e                int_fatal
                0x000000004011cbcf                callfunc_and_getint
                0x000000004011cbe3                do_externalint_enable
                0x000000004011cbf8                set_int_handler
                0x000000004011cc17                int_exceptionHandler
                0x000000004011cc22                int_init_ap
                0x000000004011cc76                do_io_nothing
                0x000000004011ccb2                set_iofunc
                0x000000004011cd53                call_io
                0x000000004011ce9c                do_iopass_default
                0x000000004011d033                keyboard_reset
                0x000000004011d078                setkbdled
                0x000000004011d0d9                keyboard_flush
                0x000000004011d100                load_bootsector
                0x000000004011d4c9                copy_bootsector
                0x000000004011d76a                localapic_wait_for_sipi
                0x000000004011d7f7                localapic_change_base_msr
                0x000000004011d843                localapic_mmio_register
                0x000000004011e21a                resume_vm
                0x000000004011e2d5                vmm_main
                0x000000004011e6c0                getsysmemmap
                0x000000004011e748                getfakesysmemmap
                0x000000004011e7cc                phys_to_virt
                0x000000004011e7e2                vmm_start_inf
                0x000000004011e7ee                vmm_term_inf
                0x000000004011e7ff                num_of_available_pages
                0x000000004011e86b                alloc_pages
                0x000000004011e8f4                alloc_page
                0x000000004011e904                alloc
                0x000000004011eb81                alloc2
                0x000000004011ebce                free
                0x000000004011eced                realloc
                0x000000004011ee3e                free_page
                0x000000004011ee51                free_page_phys
                0x000000004011ee6c                mempool_new
                0x000000004011eed7                mempool_free
                0x000000004011ef87                mempool_allocmem
                0x000000004011f16a                mempool_freemem
                0x000000004011f420                sym_to_phys
                0x000000004011f434                phys_in_vmm
                0x000000004011f450                mm_force_unlock
                0x000000004011f479                mm_process_alloc
                0x000000004011f649                mm_process_free
                0x000000004011f690                mm_process_switch
                0x000000004011f6ae                pmap_open_vmm
                0x000000004011f6d9                pmap_open_guest
                0x000000004011f71b                pmap_close
                0x000000004011f721                pmap_getreadlevel
                0x000000004011f72d                pmap_setlevel
                0x000000004011f739                pmap_seek
                0x000000004011f7a6                pmap_read
                0x000000004011f9d1                pmap_write
                0x000000004011fb68                mm_process_unmap_stack
                0x000000004011fd4f                mm_process_unmap
                0x000000004011fe31                mm_process_unmapall
                0x000000004011fed8                pmap_pointer
                0x000000004011ff39                pmap_clear
                0x0000000040120026                pmap_autoalloc
                0x000000004012075d                mm_process_map_stack
                0x0000000040120ac2                mm_process_map_shared_physpage
                0x0000000040120b36                mm_process_map_shared
                0x0000000040120d60                mm_process_map_alloc
                0x0000000040120e92                pmap_dump
                0x0000000040120faa                unmapmem
                0x000000004012108b                mapmem
                0x000000004012155e                cmpxchg_hphys_q
                0x00000000401215bc                cmpxchg_hphys_l
                0x000000004012161a                write_hphys_q
                0x000000004012164e                read_hphys_q
                0x0000000040121685                write_hphys_l
                0x00000000401216b7                read_hphys_l
                0x00000000401216ec                write_hphys_w
                0x000000004012171f                read_hphys_w
                0x0000000040121756                write_hphys_b
                0x0000000040121788                read_hphys_b
                0x00000000401217eb                mapmem_hphys
                0x0000000040121803                alloc_realmodemem
                0x00000000401218a6                mapmem_gphys
                0x00000000401218be                mm_flush_wb_cache
                0x0000000040121cdf                mmio_access_memory
                0x0000000040121e36                mmio_access_page
                0x0000000040121ef7                mmio_register
                0x00000000401220fa                mmio_unregister
                0x0000000040122181                mmio_lock
                0x000000004012219c                mmio_unlock
                0x000000004012222e                msg_findname
                0x00000000401222a8                msg_register
                0x000000004012238a                msg_unregister
                0x0000000040122405                msg_unregisterall
                0x0000000040122491                msg_unregister2
                0x000000004012255e                call_read_msr
                0x0000000040122572                call_write_msr
                0x0000000040122850                load_minios
                0x0000000040123070                backtrace
                0x00000000401234a8                panic
                0x00000000401239a0                auto_reboot
                0x00000000401239bd                panic_test
                0x00000000401239e0                pcpu_list_foreach
                0x0000000040123a1f                pcpu_list_add
                0x0000000040123a71                pcpu_init
                0x00000000401244c5                vprintf
                0x0000000040124500                printf
                0x000000004012453e                vsnprintf
                0x0000000040124582                snprintf
                0x00000000401247e9                sys_msgsetfunc
                0x000000004012488e                sys_msgclose
                0x00000000401248ab                sys_msgret
                0x00000000401248bd                sys_exitprocess
                0x0000000040124b6d                sys_msgsenddesc
                0x0000000040124c25                sys_msgunregister
                0x0000000040125341                sys_msgsendbuf
                0x00000000401254f3                sys_msgsendint
                0x0000000040125792                sys_newprocess
                0x0000000040125833                sys_msgopen
                0x0000000040125973                sys_msgregister
                0x00000000401259f1                process_kill
                0x0000000040125a48                msgsetfunc
                0x0000000040125a5d                msgregister
                0x0000000040125a73                msgopen
                0x0000000040125a86                msgclose
                0x0000000040125a98                msgsendint
                0x0000000040125aac                msgsenddesc
                0x0000000040125ac0                newprocess
                0x0000000040125ad3                msgsendbuf
                0x0000000040125aed                msgunregister
                0x0000000040125aff                exitprocess
                0x0000000040125b12                msgpremapbuf
                0x0000000040125c3c                process_syscall
                0x0000000040125ce8                putchar
                0x0000000040125d26                putchar_set_func
                0x0000000040126027                do_panic_reboot
                0x00000000401260b1                handle_init_to_bsp
                0x00000000401260d2                reboot_test
                0x0000000040126102                savemsr_save
                0x000000004012617e                savemsr_load
                0x00000000401267a6                get_seg_base
                0x0000000040126864                get_seg_access_rights
                0x0000000040126884                segment_wakeup
                0x00000000401268c6                segment_init_ap
                0x0000000040126b8b                serial_putDebugChar
                0x0000000040126b9d                serial_getDebugChar
                0x0000000040126bb2                serial_putchar
                0x0000000040126c06                serial_init_iohook
                0x0000000040126c74                waitcycles
                0x0000000040126c96                usleep
                0x0000000040126d6b                sleep_set_timer_counter
                0x0000000040126ed2                vmctl_svm_init
                0x0000000040126f7c                message_exitcode
                0x00000000401274ff                printexitcode
                0x00000000401276b8                svm_available
                0x0000000040127776                svm_reset
                0x000000004012787a                svm_vminit
                0x0000000040127ab5                svm_vmexit
                0x0000000040127abb                svm_init
                0x0000000040127c05                svm_enable_resume
                0x0000000040127d0a                svm_resume
                0x0000000040127e60                svm_ioio
                0x0000000040127f60                svm_extern_iopass
                0x00000000401280d3                svm_init_signal
                0x00000000401280f6                svm_start_vm
                0x0000000040128bb0                svm_msr_update_lma
                0x0000000040128c25                svm_read_msr
                0x0000000040128eca                svm_write_msr
                0x000000004012941a                svm_np_init
                0x0000000040129502                svm_np_pagefault
                0x0000000040129548                svm_np_tlbflush
                0x000000004012954e                svm_np_updatecr3
                0x0000000040129559                svm_np_clear_all
                0x00000000401295ec                svm_np_extern_mapsearch
                0x0000000040129677                svm_np_map_1mb
                0x00000000401296d0                svm_paging_extern_flush_tlb_entry
                0x00000000401296f7                svm_paging_map_1mb
                0x0000000040129721                svm_paging_flush_guest_tlb
                0x0000000040129760                svm_paging_init
                0x000000004012987e                svm_paging_pagefault
                0x00000000401298aa                svm_paging_tlbflush
                0x00000000401298d1                svm_paging_invalidate
                0x00000000401298fd                svm_paging_npf
                0x0000000040129929                svm_paging_updatecr3
                0x0000000040129951                svm_paging_spt_setcr3
                0x0000000040129986                svm_paging_clear_all
                0x00000000401299b1                svm_paging_get_gpat
                0x00000000401299bc                svm_paging_set_gpat
                0x0000000040129a09                svm_paging_apply_fixed_cr0
                0x0000000040129a2c                svm_paging_apply_fixed_cr4
                0x0000000040129a50                svm_paging_pg_change
                0x0000000040129a56                svm_paging_start
                0x0000000040129a68                svm_panic_dump
                0x0000000040129b40                svm_read_general_reg
                0x0000000040129ca9                svm_write_general_reg
                0x0000000040129ddf                svm_read_control_reg
                0x0000000040129e75                svm_write_control_reg
                0x0000000040129f61                svm_read_sreg_sel
                0x000000004012a02d                svm_read_sreg_acr
                0x000000004012a10c                svm_read_sreg_base
                0x000000004012a22e                svm_read_sreg_limit
                0x000000004012a345                svm_read_ip
                0x000000004012a364                svm_write_ip
                0x000000004012a38a                svm_read_flags
                0x000000004012a3a9                svm_write_flags
                0x000000004012a3c5                svm_read_gdtr
                0x000000004012a3fc                svm_write_gdtr
                0x000000004012a425                svm_read_idtr
                0x000000004012a45c                svm_write_idtr
                0x000000004012a485                svm_write_realmode_seg
                0x000000004012a5d5                svm_writing_sreg
                0x000000004012a6f7                int1a_TCG_StatusCheck
                0x000000004012a7bc                int1a_TCG_HashLogExtendEvent
                0x000000004012a84d                int1a_TCG_PassThroughToTPM
                0x000000004012a8de                int1a_TCG_HashLogEvent
                0x000000004012a95f                int1a_TCG_HashAll
                0x000000004012aa17                int1a_TCG_TSS
                0x000000004012aaa8                int1a_TCG_CompactHashLogExtendEvent
                0x000000004012ab09                tcg_measure
                0x000000004012ae4d                thread_gettid
                0x000000004012ae62                schedule
                0x000000004012b073                thread_new
                0x000000004012b196                thread_wakeup
                0x000000004012b273                thread_will_stop
                0x000000004012b2eb                thread_exit
                0x000000004012b38f                thread_start1
                0x000000004012b3bf                thread_set_process_switch
                0x000000004012b570                get_cpu_time
                0x000000004012b643                get_acpi_time
                0x000000004012b6f3                get_time
                0x000000004012b8d5                timer_new
                0x000000004012b956                timer_set
                0x000000004012ba4c                timer_free
                0x000000004012bc52                tty_putchar
                0x000000004012be06                ttylog_stop
                0x000000004012be16                tty_udp_register
                0x000000004012be68                tty_init_iohook
                0x000000004012be90                vcpu_list_foreach
                0x000000004012becf                load_new_vcpu
                0x000000004012bf89                vga_register
                0x000000004012c00b                vga_is_ready
                0x000000004012c06b                vga_transfer_image
                0x000000004012c0b8                vga_fill_rect
                0x000000004012c0f2                vga_get_screen_size
                0x000000004012c21c                vmmcall
                0x000000004012c275                vmmcall_register
                0x000000004012c2b3                vmmcall_init
                0x000000004012c674                vmmcall_boot_continue
                0x000000004012c6bf                vmmcall_boot_enable
                0x000000004012cf27                register_status_callback
                0x000000004012d03f                vramwrite_clearscreen
                0x000000004012d096                vramwrite_putchar
                0x000000004012d26e                vramwrite_mark1
                0x000000004012d2c0                vramwrite_mark2
                0x000000004012d320                vramwrite_mark3
                0x000000004012d380                vramwrite_save_and_move_cursor
                0x000000004012d3c5                vramwrite_restore_cursor
                0x000000004012d3d7                vramwrite_get_cursor_pos
                0x000000004012d437                vramwrite_init_global
                0x000000004012d444                vramwrite_exit_global
                0x000000004012d4ce                vt_generate_external_int
                0x000000004012d521                vt_generate_pagefault
                0x000000004012d5d7                vmctl_vt_init
                0x000000004012d67f                vt_vmptrld
                0x000000004012d96c                vt_ept_init
                0x000000004012da5c                vt_ept_violation
                0x000000004012dade                vt_ept_tlbflush
                0x000000004012dae4                vt_ept_updatecr3
                0x000000004012dbd6                vt_ept_clear_all
                0x000000004012dc69                vt_ept_extern_mapsearch
                0x000000004012dcf4                vt_ept_map_1mb
                0x000000004012dd48                message_exitreason
                0x000000004012deb1                printexitreason
                0x000000004012e828                vt_available
                0x000000004012e8c2                vt__vmx_init
                0x000000004012e90a                vt__vmxon
                0x000000004012e9b7                vt_vminit
                0x000000004012ea13                vt_vmexit
                0x000000004012ea2d                vt_init
                0x000000004012ea3d                vt_enable_resume
                0x000000004012eb76                vt_resume
                0x000000004012ed07                vt_io
                0x000000004012ee38                vt_iopass_init
                0x000000004012efcd                vt_iopass
                0x000000004012f01e                vt_extern_iopass
                0x000000004012fc33                vt_update_exception_bmp
                0x0000000040130270                vt_init_signal
                0x000000004013027b                vt_start_vm
                0x0000000040130661                vt_add_guest_msr
                0x00000000401307a4                vt_read_guest_msr
                0x00000000401307d5                vt_write_guest_msr
                0x0000000040130803                vt_msr_update_lma
                0x00000000401308db                vt_read_msr
                0x0000000040130b7f                vt_write_msr
                0x0000000040130e47                vt_msr_init
                0x0000000040131043                vt_paging_extern_flush_tlb_entry
                0x00000000401310b1                vt_paging_map_1mb
                0x00000000401310d1                vt_paging_flush_guest_tlb
                0x0000000040131131                vt_paging_pagefault
                0x0000000040131174                vt_paging_tlbflush
                0x0000000040131197                vt_paging_invalidate
                0x00000000401311ca                vt_paging_npf
                0x000000004013120d                vt_paging_updatecr3
                0x0000000040131241                vt_paging_spt_setcr3
                0x000000004013126c                vt_paging_clear_all
                0x000000004013129f                vt_paging_get_gpat
                0x00000000401312aa                vt_paging_set_gpat
                0x000000004013130a                vt_paging_apply_fixed_cr0
                0x0000000040131372                vt_paging_apply_fixed_cr4
                0x00000000401313ba                vt_paging_pg_change
                0x000000004013153d                vt_paging_init
                0x00000000401315b8                vt_paging_start
                0x00000000401315e7                vt_panic_dump
                0x0000000040131790                vt_read_general_reg
                0x00000000401318de                vt_write_general_reg
                0x00000000401319fc                vt_read_control_reg
                0x0000000040131a6c                vt_read_sreg_sel
                0x0000000040131b86                vt_read_sreg_acr
                0x0000000040131be5                vt_read_sreg_base
                0x0000000040131c9d                vt_read_sreg_limit
                0x0000000040131d50                vt_read_ip
                0x0000000040131d5e                vt_write_ip
                0x0000000040131d7e                vt_read_flags
                0x0000000040131da4                vt_write_flags
                0x0000000040131dcf                vt_read_gdtr
                0x0000000040131de4                vt_write_gdtr
                0x0000000040131df9                vt_read_idtr
                0x0000000040131e3d                vt_write_idtr
                0x0000000040131e73                vt_write_control_reg
                0x000000004013234f                vt_get_current_regs_in_vmcs
                0x00000000401325f7                vt_get_vmcs_regs_in_vmcs
                0x0000000040132774                vt_write_realmode_seg
                0x00000000401328b7                vt_writing_sreg
                0x0000000040132940                vt_reset
                0x0000000040132c1f                prepare_for_sleep
                0x0000000040132cf6                cancel_sleep
                0x0000000040132d18                wakeup_main
                0x0000000040132da0                wakeup_cont
                0x0000000040132eca                wakeup_init
                0x0000000040132f14                call_xsetbv
                0x0000000040132f80                mpumul_64_64
                0x0000000040132fa0                mpudiv_128_32
                0x0000000040132fc0                ipchecksum
                0x0000000040133050                asm_vmlaunch_regs_32
                0x00000000401330d0                asm_vmresume_regs_32
                0x0000000040133150                asm_vmrun_regs_32
                0x00000000401331b0                asm_vmlaunch_regs_64
                0x0000000040133290                asm_vmresume_regs_64
                0x0000000040133370                asm_vmrun_regs_64
                0x0000000040133414                callrealmode_start
                0x000000004013342a                callrealmode_start2
                0x00000000401338b6                callrealmode_end
                0x00000000401338b8                move_vmm_area32
                0x00000000401338dd                move_vmm_area64
                0x0000000040133908                int_handler
                0x0000000040133980                int_callfunc
                0x0000000040134000                syscall_entry_sysexit
                0x000000004013402c                syscall_entry_lret
                0x000000004013405c                ret_to_user32
                0x0000000040134068                syscall_entry_sysret64
                0x00000000401340b0                ret_to_user64
                0x0000000040135000                processuser_sysenter
                0x0000000040136000                processuser_no_sysenter
                0x0000000040137000                processuser_syscall
                0x0000000040138140                memset
                0x00000000401381c0                memcpy
                0x0000000040138200                strcmp
                0x0000000040138240                memcmp
                0x0000000040138280                strlen
                0x0000000040138298                sx_handler
                0x00000000401382f0                thread_switch
                0x0000000040138310                thread_start0
                0x000000004013834c                monitor_vmcs_read
                0x0000000040138355                get_guest_eptp_value
                0x0000000040138365                get_guest_cr3_value
                0x0000000040138375                monitor_vmcs_write
                0x0000000040138380                hypercall_handler
                0x00000000401383a0                get_page_table_base_GPA
                0x00000000401383b6                get_ept_base_HPA
                0x00000000401383cc                traverseGuestPages
                0x00000000401383d7                saveSystemCallHandlerAddress
                0x0000000040138418                getSystemCallHandlerGPA
                0x0000000040138425                save_guest_status
                0x0000000040138789                clear_guest_status
                0x0000000040138a77                restore_guest_status
                0x0000000040138d91                getTSSGVA
                0x0000000040138da1                getKernelESPGVA
                0x0000000040138e00                closePage
                0x0000000040138e0b                allocateNewVMID
                0x0000000040138e21                allocateNewAppID
                0x0000000040138e39                allocateNewApplicationIdentifiers
                0x0000000040138e74                getMemoryOwnershipTableIndex
                0x0000000040138e81                changePageStatus
                0x0000000040138f80                openPage
                0x000000004013900e                getMemoryOwnershipTableEntry
                0x0000000040139046                initializeNewProtectedApplication
                0x0000000040139061                protectCurrentApplication
                0x00000000401390c2                getCurrentProtectedApplication
                0x0000000040139118                traverseIA32ePages
                0x000000004013935c                traverseIA32ePDPT
                0x0000000040139505                traverseIA32ePDT
                0x0000000040139622                traverseIA32ePT
                0x00000000401396c2                gvaToGPA
                0x00000000401398cc                mapHPAintoHVA
                0x00000000401398f3                unmapHPAintoHVA
                0x00000000401398fe                gpaToHPA
                0x0000000040139a98                test_start
                0x0000000040139ae4                test_gpaToHPA
                0x0000000040139b1e                test_traverseGuestPages
                0x0000000040139b5b                test_logicalCPUStatus
                0x0000000040139b90                core_init
                0x0000000040139c4a                core_mm_read_guest_phys
                0x0000000040139c5f                core_mm_write_guest_phys
                0x0000000040139c74                alloc_handler_descriptor
                0x0000000040139c84                core_io_modify_handler
                0x0000000040139d42                core_io_unregister_handler
                0x0000000040139dc9                core_io_handle_default
                0x000000004013a051                panic_oom
                0x000000004013a064                core_io_register_handler
                0x000000004013a198                matched_drhd_u
                0x000000004013a1ed                parse_dmar_bios_report
                0x000000004013a238                ieee1394_init
                0x000000004013a270                iommu_setup
                0x000000004013a276                iodom_init
                0x000000004013a437                add_remap
                0x000000004013a4c4                create_dom
                0x000000004013a7e7                pci_conceal_new_device
                0x000000004013aba5                pci_conceal_config_data_handler
                0x000000004013abbc                pci_save_config_addr
                0x000000004013abce                pci_restore_config_addr
                0x000000004013abe0                pci_append_device
                0x000000004013ac12                pci_config_data_handler
                0x000000004013af3b                pci_config_addr_handler
                0x000000004013af83                pci_register_driver
                0x000000004013b022                pci_read_config_data8
                0x000000004013b068                pci_read_config_data16
                0x000000004013b0af                pci_read_config_data32
                0x000000004013b0f5                pci_write_config_data8
                0x000000004013b139                pci_write_config_data16
                0x000000004013b17e                pci_write_config_data32
                0x000000004013b1c2                pci_read_config_data_port
                0x000000004013b1f4                pci_write_config_data_port
                0x000000004013b22a                pci_handle_default_config_write
                0x000000004013b26c                pci_print_device
                0x000000004013b5cc                pci_possible_new_device
                0x000000004013b5f0                security_storage_check_lba
                0x000000004013eb6a                ahci_new
                0x000000004013ee00                ahci_config_read
                0x000000004013ee5e                ahci_config_write
                0x000000004013eff4                ata_bm_handle_prd_table
                0x000000004013f23d                ata_bm_handle_status
                0x000000004013f2fd                ata_bm_handle_command
                0x000000004013f440                ata_bm_handler
                0x000000004013f558                ata_get_cmd_type
                0x000000004013fb12                ata_handle_queued_status
                0x0000000040140347                ata_channel_lock
                0x00000000401403c3                ata_channel_unlock
                0x0000000040140f4b                ata_ctlblk_handler
                0x0000000040141053                ata_cmdblk_handler
                0x000000004014117c                ata_ahci_mode
                0x000000004014167f                ata_init_io_handler
                0x0000000040141722                ata_set_bm_handler
                0x0000000040141787                ata_set_cmdblk_handler
                0x00000000401417cd                ata_set_ctlblk_handler
                0x0000000040141815                ata_config_read
                0x00000000401418d7                ata_config_write
                0x0000000040141a70                ata_init_vendor
                0x0000000040141a97                ata_bm_handle_device_specific
                0x0000000040141b90                atapi_handle_config_data
                0x0000000040141dd7                atapi_handle_interrupt_reason
                0x0000000040141e30                atapi_handle_pio_identify_packet
                0x0000000040141fbf                atapi_handle_packet_data
                0x0000000040141fca                atapi_handle_cmd_packet
                0x0000000040142044                packet_handle_through
                0x0000000040142079                packet_handle_nondata
                0x0000000040142093                packet_handle_config
                0x00000000401420df                packet_handle_rw
                0x0000000040142161                packet_handle_invalid
                0x000000004014217b                packet_handle_command
                0x00000000401421b0                uhci_init
                0x0000000040142a57                uhci_current_frame_number
                0x0000000040142a70                dump_td_byvirt
                0x0000000040142c3d                dump_td
                0x0000000040142d1d                dump_qh
                0x0000000040142ee5                dump_frame
                0x0000000040142fea                uhci_dump_all
                0x00000000401431ac                uhci_error_status_string
                0x000000004014348d                uhci_shadow_buffer
                0x0000000040143712                uhci_framelist_monitor
                0x0000000040145680                scan_gframelist
                0x0000000040145f53                uhci_create_urb
                0x00000000401460ac                uhci_destroy_urb
                0x00000000401461d9                uhci_destroy_unlinked_urbs
                0x000000004014629b                uhci_deactivate_urb
                0x0000000040146624                uhci_activate_urb
                0x0000000040146b78                uhci_reactivate_urb
                0x0000000040146c1e                uhci_submit_control
                0x0000000040147222                uhci_submit_interrupt
                0x0000000040147286                uhci_submit_bulk
                0x00000000401472ea                uhci_check_urb_advance
                0x000000004014732f                uhci_check_advance
                0x000000004014753a                init_hframelist
                0x00000000401477bc                ehci_init
                0x0000000040149049                ehci_conceal_portroute
                0x000000004014966d                ehci_dump_qtd
                0x00000000401496f3                ehci_dump_qtdm
                0x0000000040149728                ehci_dump_alist
                0x00000000401497eb                ehci_dump_urblist
                0x0000000040149880                ehci_dump_urb
                0x0000000040149d3d                ehci_dump_async
                0x000000004014a1cc                ehci_dump_all
                0x000000004014b7aa                ehci_shadow_buffer
                0x000000004014ba64                get_gurb_by_address
                0x000000004014baf8                shadow_and_activate_urb
                0x000000004014bda8                ehci_deactivate_urb
                0x000000004014bf40                deactivate_and_delete_urb
                0x000000004014c1b7                ehci_check_urb_advance
                0x000000004014c387                ehci_check_advance
                0x000000004014c5bb                ehci_shadow_async_list
                0x000000004014c6d5                ehci_cleanup_urbs
                0x000000004014c82a                ehci_end_monitor_async
                0x000000004014c893                ehci_monitor_async_list
                0x000000004014cf3c                ehci_submit_control
                0x000000004014d4b5                ehci_submit_bulk
                0x000000004014d4c0                ehci_submit_interrupt
                0x000000004014f08a                usbmsc_init_handle
                0x000000004014f469                usbhub_init_handle
                0x000000004014f4e2                hub_portdevice_register
                0x000000004014fba5                usbccid_init_handle
                0x000000004014fcd0                usb_set_debug
                0x000000004014fcdc                usb_init
                0x000000004014fce2                usb_find_busses
                0x000000004014fdc2                usb_get_busses
                0x000000004014fdcf                usb_get_bus
                0x000000004014fdf7                usb_find_devices
                0x000000004014fe40                usb_open
                0x000000004014feaa                usb_close
                0x000000004014feba                usb_resetep
                0x000000004014fec5                usb_clear_halt
                0x000000004014fed0                usb_reset
                0x000000004014fedb                usb_claim_interface
                0x000000004014fee9                usb_release_interface
                0x000000004014fefb                usb_set_configuration
                0x00000000401501a6                usb_set_altinterface
                0x0000000040150453                usb_control_msg
                0x00000000401507af                usb_get_string
                0x0000000040150afc                usb_get_string_simple
                0x0000000040150cf1                usb_get_descriptor
                0x0000000040151041                usb_get_descriptor_early
                0x000000004015139c                usb_get_descriptor_by_endpoint
                0x00000000401516ee                usb_bulk_write
                0x0000000040151944                usb_interrupt_write
                0x0000000040151b9a                usb_bulk_read
                0x0000000040151e75                usb_interrupt_read
                0x0000000040152150                usb_register_host
                0x0000000040152262                usb_unregister_devices
                0x0000000040152294                usb_sc_lock
                0x000000004015230c                usb_sc_unlock
                0x0000000040152633                free_config_descriptors
                0x000000004015303c                free_device
                0x00000000401531aa                handle_connect_status
                0x00000000401532be                handle_port_reset
                0x000000004015339f                dprintf_port
                0x0000000040153e71                usb_init_device_monitor
                0x0000000040153edb                usb_new_dev_handle
                0x0000000040153f74                usbhid_init_handle
                0x00000000401540b0                usb_hook_process
                0x000000004015439b                usb_hook_register
                0x000000004015447f                usb_hook_unregister
                0x0000000040154500                _dprintf
                0x000000004015454d                _dprintft
                0x0000000040154608                pro100_io_handler
                0x0000000040154613                pro100_init
                0x000000004015462c                pro100_config_write
                0x0000000040154771                pro100_config_read
                0x00000000401548ba                pro100_init_vpn_client
                0x00000000401548f9                pro100_sleep
                0x0000000040154937                pro100_beep
                0x000000004015496f                pro100_get_ctx
                0x0000000040154a12                pro100_alloc_page
                0x0000000040154a4c                pro100_free_page
                0x0000000040154a71                pro100_get_op_size
                0x0000000040154ab4                pro100_mem_read
                0x0000000040154ae3                pro100_read_send_packet
                0x0000000040154cf5                pro100_mem_write
                0x0000000040154d1e                pro100_write
                0x0000000040154d4d                pro100_read
                0x0000000040154d8a                pro100_flush
                0x0000000040154da4                pro100_wait_cu_ru_accepable
                0x0000000040154ddf                pro100_init_ru_base_addr
                0x0000000040154e3f                pro100_init_cu_base_addr
                0x0000000040154e9f                pro100_send_packet_to_line
                0x0000000040154ff3                pro100_exec_cu_op
                0x000000004015514c                pro100_generate_int
                0x000000004015517b                pro100_proc_guest_op
                0x0000000040155376                pro100_write_recv_packet
                0x000000004015550a                pro100_get_int_bit_string
                0x0000000040155582                pro100_get_stat_ack_string
                0x00000000401555ef                pro100_get_cu_command_string
                0x0000000040155671                pro100_get_ru_command_string
                0x00000000401556bb                pro100_init_recv_buffer
                0x00000000401557f2                pro100_alloc_recv_buffer
                0x0000000040155861                pro100_new
                0x000000004015592e                pro100_poll_ru
                0x0000000040155a27                pro100_hook_read
                0x0000000040155be6                pro100_hook_write
                0x0000000040155ebc                pro100_mm_handler
                0x0000000040158243                storage_premap_buf
                0x000000004015824e                storage_premap_handle_sectors
                0x00000000401585a2                storage_get_num_hc
                0x00000000401585d4                storage_hc_open
                0x00000000401586b4                storage_hc_close
                0x00000000401586fe                storage_hc_hook_register
                0x0000000040158783                storage_hc_hook_unregister
                0x000000004015881d                storage_hc_register
                0x00000000401589e8                storage_hc_unregister
                0x0000000040158aed                storage_hc_scandev
                0x0000000040158b31                storage_hc_dev_open
                0x0000000040158c6f                storage_hc_dev_atacommand
                0x0000000040158e42                storage_hc_dev_close
                0x0000000040158f0a                storage_io_init
                0x0000000040158f1f                storage_io_deinit
                0x0000000040158f2a                storage_io_get_num_devices
                0x0000000040158fe8                storage_io_aget_size
                0x000000004015914f                storage_io_aread
                0x000000004015936b                storage_io_awrite
                0x0000000040159afb                storage_handle_sectors
                0x0000000040159d0d                storage_new
                0x000000004015a15a                storage_free
                0x000000004015a165                storage_init
                0x000000004015a389                aes_xts_init
                0x000000004015a3c0                crypto_find
                0x000000004015a417                crypto_register
                0x000000004015a467                crypto_init
                0x000000004015a4b5                crypto_none_init
                0x000000004015a4ea                vpn_GetCurrentCpuId
                0x000000004015a4f5                vpn_GetTickCount
                0x000000004015a525                vpn_NewTimer
                0x000000004015a53f                vpn_SetTimer
                0x000000004015a553                vpn_FreeTimer
                0x000000004015a55e                vpn_GetPhysicalNicInfo
                0x000000004015a56d                vpn_SendPhysicalNic
                0x000000004015a57c                vpn_SetPhysicalNicRecvCallback
                0x000000004015a58b                vpn_GetVirtualNicInfo
                0x000000004015a59b                vpn_SendVirtualNic
                0x000000004015a5ab                vpn_SetVirtualNicRecvCallback
                0x000000004015a5bb                vpn_premap_PhysicalNicRecv
                0x000000004015a5d4                vpn_premap_VirtualNicRecv
                0x000000004015a5ed                vpn_premap_recvbuf
                0x000000004015a5f8                vpn_ic_rsa_sign
                0x000000004015a69f                vpn_new_nic
                0x000000004015acc9                msg_vpn_GetCurrentCpuId
                0x000000004015ace3                msg_vpn_ic_rsa_sign
                0x000000004015ad8f                msg_vpn_GetTickCount
                0x000000004015adcd                msg_vpn_GetPhysicalNicInfo
                0x000000004015ae31                msg_vpn_SendPhysicalNic
                0x000000004015aee6                msg_vpn_SetPhysicalNicRecvCallback
                0x000000004015af32                msg_vpn_GetVirtualNicInfo
                0x000000004015af96                msg_vpn_SendVirtualNic
                0x000000004015b04b                msg_vpn_SetVirtualNicRecvCallback
                0x000000004015b097                msg_vpn_NewTimer
                0x000000004015b0f9                msg_vpn_SetTimer
                0x000000004015b1ce                msg_vpn_FreeTimer
                0x000000004015b237                vpn_start
                0x000000004015b5b0                vpn_user_init
                0x000000004015b610                SeFreeConfigEntryList
                0x000000004015b66d                SeGetConfigEntry
                0x000000004015b6de                SeGetConfigStr
                0x000000004015b709                SeGetConfigBin
                0x000000004015b731                SeGetConfigInt64
                0x000000004015b756                SeGetConfigInt
                0x000000004015b781                SeGetConfigBool
                0x000000004015b830                SeIsSplitChar
                0x000000004015b8ab                SeGetKeyAndValue
                0x000000004015ba41                SeLoadConfigEntryListFromBuf
                0x000000004015bbb9                SeLoadConfigEntryList
                0x000000004015bbf0                SePKeyPasswordCallbackFunction
                0x000000004015bc22                SeDhFree
                0x000000004015bc5c                SeRsaVerifyWithPadding
                0x000000004015bd2e                SeRsaSignWithPadding
                0x000000004015bde8                SeRsaPublicDecrypt
                0x000000004015be7f                SeRsaPrivateEncrypt
                0x000000004015bf16                SeRsaPrivateDecrypt
                0x000000004015bfa5                SeRsaPublicEncrypt
                0x000000004015c034                SeGetCertSha1
                0x000000004015c076                SeGetCertMd5
                0x000000004015c0b8                SeBinToBigNum
                0x000000004015c0fb                SeDhCompute
                0x000000004015c181                SeBufToBigNum
                0x000000004015c1a1                SeBigNumToBuf
                0x000000004015c22a                SeDhNew
                0x000000004015c2e7                SeDhNewGroup2
                0x000000004015c2fc                SeRsaPublicToBuf
                0x000000004015c341                SeRsaPublicToBin
                0x000000004015c398                SeRsaPublicSize
                0x000000004015c3fd                SeCheckSignature
                0x000000004015c428                SeGetKeyFromCert
                0x000000004015c467                SeCompareCert
                0x000000004015c492                SeCheckCertAndKey
                0x000000004015c4bd                SeIsBase64
                0x000000004015c544                SeFreePKey
                0x000000004015c555                SeFreeKey
                0x000000004015c57d                SeCheckCert
                0x000000004015c5c9                SeIsCertSignedByCert
                0x000000004015c628                SeBioToKey
                0x000000004015c729                SeGetCertIssuerName
                0x000000004015c7b9                SeGetCertSubjectName
                0x000000004015c849                SeFreeX509
                0x000000004015c85a                SeFreeCert
                0x000000004015c888                SeFreeBio
                0x000000004015c899                SeNewBio
                0x000000004015c8ac                SeRsaGen
                0x000000004015ca05                SeKeyToBio
                0x000000004015cb00                SeCertToBio
                0x000000004015cb5a                SeBioToBuf
                0x000000004015cbea                SeBigNumToStr
                0x000000004015cc57                SeKeyToBuf
                0x000000004015ccaa                SeX509ToCert
                0x000000004015cd53                SeBioToCert
                0x000000004015cd9c                SeSaveKey
                0x000000004015cdf1                SeCertToBuf
                0x000000004015ce44                SeSaveCert
                0x000000004015ce95                SeBufToBio
                0x000000004015cef2                SeBufToCert
                0x000000004015cf39                SeCloneCert
                0x000000004015cf84                SeLoadCert
                0x000000004015cfc5                SeBufToKey
                0x000000004015d016                SeCloneKey
                0x000000004015d072                SeLoadKey
                0x000000004015d113                SeSha1
                0x000000004015d134                SeMacSha1
                0x000000004015d29c                SeMacSha196
                0x000000004015d2e3                SeHashForSignBySHA1
                0x000000004015d383                SeRsaVerifyWithSha1
                0x000000004015d42e                SeRsaSignWithSha1
                0x000000004015d4c4                SeMd5
                0x000000004015d4e5                SeDes3Encrypt
                0x000000004015d56e                SeDes3Decrypt
                0x000000004015d5f7                SeDesNewKeyValue
                0x000000004015d64c                SeDes3NewKey
                0x000000004015d6b9                SeDesNewKey
                0x000000004015d6ca                SeDesRandKeyValue
                0x000000004015d6e6                SeDes3RandKey
                0x000000004015d72f                SeDesRandKey
                0x000000004015d779                SeDesFreeKeyValue
                0x000000004015d7a1                SeDes3FreeKey
                0x000000004015d7db                SeDesFreeKey
                0x000000004015d7e6                SeRand
                0x000000004015d7fb                SeRand64
                0x000000004015d817                SeRand32
                0x000000004015d832                SeRand16
                0x000000004015d84e                SeRand8
                0x000000004015d86a                SeRand1
                0x000000004015d87d                SeInitCrypto
                0x000000004015d8bc                SeFreeCrypto
                0x000000004015d8d0                SeIkeStrToPassword
                0x000000004015d929                SeIkePhase1CryptIdToKeySize
                0x000000004015d948                SeIkePhase2CryptIdToKeySize
                0x000000004015d967                SeIkeStrToPhase1CryptId
                0x000000004015d9cd                SeIkeStrToPhase1HashId
                0x000000004015da0c                SeIkeStrToPhase2CryptId
                0x000000004015da77                SeIkeStrToPhase2HashId
                0x000000004015dab6                SeIkeIsZeroIP
                0x000000004015dae7                SeIkeInitIPv6Address
                0x000000004015db24                SeIkeInitIPv4Address
                0x000000004015db57                SeIkeGetIPv6Address
                0x000000004015db76                SeIkeGetIPv4Address
                0x000000004015db91                SeIkeIpAddressToStr
                0x000000004015dbdb                SeIkeBuildDataPayload
                0x000000004015dc17                SeIkeBuildTransformValue
                0x000000004015dcd5                SeIkeBuildTransformValueList
                0x000000004015dd3d                SeIkeBuildTransformPayload
                0x000000004015ddbb                SeIkeBuildIdPayload
                0x000000004015de33                SeIkeBuildCertPayload
                0x000000004015de97                SeIkeBuildCertRequestPayload
                0x000000004015defb                SeIkeBuildNoticePayload
                0x000000004015df89                SeIkeBuildDeletePayload
                0x000000004015e061                SeIkeGetFirstPayloadType
                0x000000004015e087                SeIkeBuildPayloadList
                0x000000004015e193                SeIkeBuildSaPayload
                0x000000004015e21e                SeIkeBuildProposalPayload
                0x000000004015e2cc                SeIkeBuildPayload
                0x000000004015e3a9                SeIkeGetPayload
                0x000000004015e3f7                SeIkeGetPayloadNum
                0x000000004015e43a                SeIkeNewPayload
                0x000000004015e458                SeIkeNewDeletePayload
                0x000000004015e488                SeIkeNewNoticePayload
                0x000000004015e513                SeIkeNewCertRequestPayload
                0x000000004015e561                SeIkeNewCertPayload
                0x000000004015e5af                SeIkeNewIdPayload
                0x000000004015e61c                SeIkeNewTransformPayload
                0x000000004015e65f                SeIkeNewProposalPayload
                0x000000004015e6d6                SeIkeNewSaPayload
                0x000000004015e703                SeIkeNewDataPayload
                0x000000004015e74c                SeIkeNewTransformValue
                0x000000004015e76d                SeIkeFreeTransformValueList
                0x000000004015e7a9                SeIkeParseTransformValueList
                0x000000004015e920                SeIkeParseTransformPayload
                0x000000004015e986                SeIkeFreeTransformPayload
                0x000000004015e9b4                SeIkeParseIdPayload
                0x000000004015ea2b                SeIkeFreeIdPayload
                0x000000004015ea59                SeIkeParseCertPayload
                0x000000004015eabc                SeIkeFreeCertPayload
                0x000000004015eaea                SeIkeParseCertRequestPayload
                0x000000004015eb4d                SeIkeFreeCertRequestPayload
                0x000000004015eb7b                SeIkeParseNoticePayload
                0x000000004015ec39                SeIkeFreeNoticePayload
                0x000000004015ec7d                SeIkeFreeDeletePayload
                0x000000004015eccf                SeIkeParseDeletePayload
                0x000000004015edc8                SeIkeParseDataPayload
                0x000000004015ee02                SeIkeFreeDataPayload
                0x000000004015ee16                SeIkeFreePayloadList
                0x000000004015ee52                SeIkeFreeSaPayload
                0x000000004015ee7e                SeIkeFreeProposalPayload
                0x000000004015eec2                SeIkeFreePayload
                0x000000004015ef68                SeIkeParsePayloadListEx
                0x000000004015f0ee                SeIkeParsePayloadList
                0x000000004015f101                SeIkeParseSaPayload
                0x000000004015f1c4                SeIkeParseProposalPayload
                0x000000004015f25d                SeIkeParsePayload
                0x000000004015f355                SeIkeEncrypt
                0x000000004015f3f0                SeIkeEncryptWithPadding
                0x000000004015f4a1                SeIkeBuild
                0x000000004015f5f6                SeIkeDecrypt
                0x000000004015f691                SeIkeFree
                0x000000004015f6cd                SeIkeParseEx
                0x000000004015f8ae                SeIkeParseHeader
                0x000000004015f8be                SeIkeParse
                0x000000004015f8ce                SeIkeNew
                0x000000004015f940                VPN_IPsec_Client_Start
                0x000000004015f968                VPN_IPsec_Client_Stop
                0x000000004015f979                SeIntInit
                0x000000004015f99c                SeIntFree
                0x000000004015f9b6                VPN_IPsec_Init
                0x000000004015fa04                VPN_IPsec_Free
                0x000000004015fa37                SeSysMemoryAlloc
                0x000000004015fa53                SeSysMemoryReAlloc
                0x000000004015fa81                SeSysMemoryFree
                0x000000004015fa9a                SeSysGetCurrentCpuId
                0x000000004015fab2                SeSysNewLock
                0x000000004015faca                SeSysLock
                0x000000004015fae3                SeSysUnlock
                0x000000004015fafc                SeSysFreeLock
                0x000000004015fb15                SeSysGetTickCount
                0x000000004015fb2d                SeSysNewTimer
                0x000000004015fb52                SeSysSetTimer
                0x000000004015fb6b                SeSysFreeTimer
                0x000000004015fb84                SeSysGetPhysicalNicInfo
                0x000000004015fba2                SeSysSendPhysicalNic
                0x000000004015fbc8                SeSysSetPhysicalNicRecvCallback
                0x000000004015fbeb                SeSysGetVirtualNicInfo
                0x000000004015fc09                SeSysSendVirtualNic
                0x000000004015fc32                SeSysSetVirtualNicRecvCallback
                0x000000004015fc58                SeSysSaveData
                0x000000004015fc81                SeSysLoadData
                0x000000004015fca9                SeSysFreeData
                0x000000004015fcc5                SeSysRsaSign
                0x000000004015fcfd                SeSysLog
                0x000000004015fd2b                SeRsaSign
                0x000000004015fdc0                Se4ParseIpPacketUDPv4
                0x000000004015fea2                Se4FreeIpHeaderInfo
                0x000000004015fed6                Se4IpChecksum
                0x000000004015ff4a                Se4AdjustTcpMss
                0x00000000401600df                Se4BuildIcmpEchoPacket
                0x0000000040160187                Se4ParseIpPacketICMPv4
                0x00000000401602a9                Se4IpCheckChecksum
                0x00000000401602ea                Se4Tick
                0x0000000040160303                Se4BroadcastMacAddress
                0x000000004016030e                Se4SendEthPacket
                0x00000000401603c7                Se4SendIpFragmentNow
                0x00000000401603f0                Se4InitArpEntryList
                0x0000000040160400                Se4FreeArpEntryList
                0x000000004016043c                Se4FlushArpEntryList
                0x00000000401604e9                Se4SearchArpEntryList
                0x000000004016056f                Se4AddArpEntryList
                0x000000004016063f                Se4SearchArpWaitList
                0x0000000040160683                Se4InitArpWaitList
                0x0000000040160693                Se4FreeArpWaitList
                0x00000000401606cf                Se4InsertIpWait
                0x000000004016073f                Se4InitIpWaitList
                0x000000004016074f                Se4FreeIpWait
                0x0000000040160778                Se4FlushIpWaitList
                0x0000000040160836                Se4FreeIpWaitList
                0x0000000040160872                Se4InitIpCombineList
                0x0000000040160882                Se4SearchIpCombineList
                0x00000000401608e8                Se4InitIpFragmentList
                0x00000000401608f8                Se4InsertIpCombine
                0x00000000401609e7                Se4FreeIpFragmentList
                0x0000000040160a23                Se4FreeIpCombine
                0x0000000040160a5b                Se4FreeIpCombineList
                0x0000000040160aa9                Se4FlushIpCombineList
                0x0000000040160b8e                Se4Free
                0x0000000040160bd2                Se4And
                0x0000000040160c01                Se4GetNetworkAddress
                0x0000000040160c0c                Se4Or
                0x0000000040160c3b                Se4Not
                0x0000000040160c65                Se4GetHostAddress
                0x0000000040160c7f                Se4GetBroadcastAddress
                0x0000000040160cb2                Se4GenerateSubnetMask32
                0x0000000040160cd1                Se4IPToStr
                0x0000000040160d13                Se4ZeroIP
                0x0000000040160d2e                Se4StrToIP
                0x0000000040160dcf                Se4IPToUINT
                0x0000000040160df1                Se4SendArpDoProcess
                0x0000000040160ef2                Se4SendArpRequest
                0x0000000040160f5d                Se4ProcessArpWaitList
                0x000000004016100d                Se4MainProc
                0x000000004016103e                Se4SendArpResponse
                0x0000000040161117                Se4IsBroadcastAddress
                0x000000004016112b                Se4Cmp
                0x0000000040161156                Se4CmpArpEntry
                0x000000004016118d                Se4CmpArpWaitEntry
                0x00000000401611c4                Se4SendWaitingIpWait
                0x00000000401612a5                Se4CmpIpCombineList
                0x0000000040161322                Se4IsInSameNetwork
                0x0000000040161367                Se4MacIpRelationKnown
                0x00000000401613fd                Se4ParseIpPacket
                0x0000000040161540                Se4IsZeroIP
                0x0000000040161553                Se4Init
                0x0000000040161659                Se4CheckUnicastAddress
                0x000000004016169c                Se4StrToIP32
                0x00000000401616ae                Se4UINTToIP
                0x00000000401616d0                Se4SendRawIp
                0x0000000040161820                Se4SendIpFragment
                0x000000004016193e                Se4SendIp
                0x0000000040161a2c                Se4SendIcmpEchoRequest
                0x0000000040161ab4                Se4SendIcmpEchoResponse
                0x0000000040161b3c                Se4RecvIpComplete
                0x0000000040161bf9                Se4CombineIp
                0x0000000040161df5                Se4SendIcmp
                0x0000000040161e9e                Se4SendUdp
                0x0000000040161fbb                Se4RecvIp
                0x0000000040162250                Se4RecvArpRequest
                0x0000000040162364                Se4RecvArpResponse
                0x000000004016239b                Se4RecvArp
                0x000000004016244e                Se4RecvEthPacket
                0x00000000401624ca                Se4GenerateSubnetMask
                0x00000000401624dc                Se4IsSubnetMask
                0x000000004016251b                Se4IPToStr32
                0x0000000040162540                Se6CmpIpCombineList
                0x0000000040162609                Se6CmpNdpWaitEntry
                0x000000004016266b                Se6CmpNeighborEntry
                0x00000000401626cd                Se6IsGuestNode
                0x00000000401627ac                Se6FreeIpHeaderInfo
                0x00000000401627e0                Se6IpChecksum
                0x0000000040162854                Se6CalcChecksum
                0x00000000401628f9                Se6BuildIcmpEchoPacket
                0x00000000401629cf                Se6ParseIpPacketUDPv6
                0x0000000040162b03                Se6ParseIpPacketICMPv6
                0x0000000040162d2a                Se6BroadcastMacAddress
                0x0000000040162d35                Se6SendEthPacket
                0x0000000040162dee                Se6SendIpFragmentNow
                0x0000000040162e18                Se6InitNeighborEntryList
                0x0000000040162e28                Se6FreeNeighborEntryList
                0x0000000040162e64                Se6FlushNeighborEntryList
                0x0000000040162f11                Se6SearchNeighborEntryList
                0x0000000040162f68                Se6AddNeighborEntryList
                0x000000004016303a                Se6SearchNdpWaitList
                0x0000000040163089                Se6InitNdpWaitList
                0x0000000040163099                Se6FreeNdpWaitList
                0x00000000401630d5                Se6InsertIpWait
                0x0000000040163156                Se6InitIpWaitList
                0x0000000040163166                Se6FreeIpWait
                0x000000004016318f                Se6SendWaitingIpWait
                0x000000004016329e                Se6FreeIpWaitList
                0x00000000401632da                Se6InitIpCombineList
                0x00000000401632ea                Se6SearchIpCombineList
                0x000000004016337e                Se6InitIpFragmentList
                0x000000004016338e                Se6FreeIpFragmentList
                0x00000000401633ca                Se6FreeIpCombine
                0x0000000040163405                Se6FreeIpCombineList
                0x0000000040163453                Se6Free
                0x00000000401634a3                Se6Tick
                0x00000000401634bc                Se6FlushIpWaitList
                0x0000000040163580                Se6FlushIpCombineList
                0x0000000040163668                Se6InsertIpCombine
                0x000000004016378b                Se6GenerateEui64Address
                0x00000000401637de                Se6GenerateMulticastMacAddress
                0x0000000040163815                Se6GetAllNodeMulticastAddr
                0x0000000040163841                Se6GetAllRouterMulticastAddr
                0x000000004016386d                Se6GetIPAddrType
                0x00000000401639b7                Se6CheckUnicastAddress
                0x0000000040163a02                Se6And
                0x0000000040163a40                Se6GetPrefixAddress
                0x0000000040163a4b                Se6IsInSameNetwork
                0x0000000040163acf                Se6ParseIpPacket
                0x0000000040163c9a                Se6Or
                0x0000000040163cd8                Se6Not
                0x0000000040163d0c                Se6GetHostAddress
                0x0000000040163d3a                Se6IsNetworkPrefixAddress
                0x0000000040163d67                Se6GenerateSubnetMask
                0x0000000040163dce                Se6LocalSubnet
                0x0000000040163dde                Se6MacIpRelationKnown
                0x0000000040163ee2                Se6AddGuestNode
                0x0000000040163f9e                Se6GetSoliciationMulticastAddr
                0x0000000040164032                Se6SendIcmpNeighborSoliciation
                0x0000000040164172                Se6SendNeighborSoliciationDoProcess
                0x0000000040164202                Se6ProcessNdpWaitList
                0x00000000401642b8                Se6SendNeighborSoliciation
                0x000000004016432c                Se6SendRawIp
                0x00000000401644b0                Se6SendIpFragment
                0x00000000401644c9                Se6SendIp
                0x0000000040164628                Se6SendIcmpEchoRequest
                0x00000000401646f1                Se6SendIcmpEchoResponse
                0x00000000401647ba                Se6SendIcmp
                0x00000000401648a2                Se6SendIcmpNeighborAdvertisement
                0x00000000401649db                Se6SendUdp
                0x0000000040164aea                Se6SubnetMaskToInt
                0x0000000040164b50                Se6SendIcmpRouterAdvertisement
                0x0000000040164d09                Se6MainProc
                0x0000000040164d63                Se6RecvIpComplete
                0x0000000040165087                Se6CombineIp
                0x000000004016529f                Se6RecvIp
                0x00000000401654bc                Se6RecvEthPacket
                0x0000000040165520                Se6IsSubnetMask
                0x0000000040165589                Se6Cmp
                0x00000000401655b5                Se6IsZeroIP
                0x00000000401655d5                Se6IPToStr
                0x000000004016572c                Se6IPItemStrToChars
                0x0000000040165820                Se6CheckIPItemStr
                0x000000004016588e                Se6ZeroIP
                0x00000000401658ae                Se6GenerateEui64GlobalAddress
                0x0000000040165960                Se6GenerateEui64LocalAddress
                0x00000000401659bb                Se6Init
                0x0000000040165b24                Se6StrToIP
                0x0000000040165cb2                Se6CheckSubnetLength
                0x0000000040165cd0                SeTimerEntryCompare
                0x0000000040165d10                SeEthGetInfo
                0x0000000040165d35                SeEthSendAdd
                0x0000000040165d68                SeEthParseEthernetPacket
                0x0000000040165e71                SeEthGenRandMacAddress
                0x0000000040165ec3                SeLoad
                0x0000000040165f2f                SeSave
                0x0000000040165f51                SeTick
                0x0000000040165f61                SeGetCurrentCpuId
                0x0000000040165f71                SeNewLock
                0x0000000040165fac                SeTimerNew
                0x000000004016601a                SeEthNew
                0x0000000040166121                SeLock
                0x000000004016615d                SeUnlock
                0x0000000040166185                SeEthGetNextRecvPacket
                0x00000000401661c1                SeTick64Internal
                0x0000000040166216                SeInitKernel
                0x0000000040166250                SeTick64
                0x000000004016626f                SeTimerAdjust
                0x00000000401662e3                SeTimerCallback
                0x00000000401663ee                SeTimerSet
                0x0000000040166474                SeEthDeleteOldSenderMacList
                0x0000000040166544                SeEthAddSenderMacList
                0x000000004016662b                SeEthSend
                0x00000000401666be                SeEthSendAll
                0x0000000040166794                SeEthIsSenderMacAddressExistsInList
                0x000000004016683a                SeEthNicCallback
                0x0000000040166936                SeDeleteLock
                0x000000004016695e                SeFreeKernel
                0x0000000040166974                SeTimerFree
                0x00000000401669ce                SeEthFree
                0x0000000040166a75                SeLogArgs
                0x0000000040166aa5                SeDebug
                0x0000000040166aeb                SeDebugBin
                0x0000000040166b43                SeFatal
                0x0000000040166b89                SeInfo
                0x0000000040166bcf                SeError
                0x0000000040166c15                SeWarning
                0x0000000040166c5b                SeLog
                0x0000000040166ca0                SeB64CodeToChar
                0x0000000040166ce6                SeB64CharToCode
                0x0000000040166d2a                SeIsZero
                0x0000000040166d7a                SeReplaceListPointer
                0x0000000040166ddb                SeIsInListStr
                0x0000000040166e4b                SeIsInList
                0x0000000040166e96                SeCompareStr
                0x0000000040166eb9                SeSetSortFlag
                0x0000000040166ec7                SeSetCmp
                0x0000000040166ee8                SeFastSwap
                0x0000000040166f1a                SeQSort
                0x00000000401672fa                SeSort
                0x0000000040167332                SeBSearch
                0x0000000040167409                SeSearch
                0x0000000040167471                SeFifoSize
                0x0000000040167486                SeDumpBuf
                0x00000000401674b1                SeSeekBuf
                0x00000000401674e5                SeClearBuf
                0x00000000401674fe                SeEndian16
                0x0000000040167523                SeSwap16
                0x000000004016753e                SeSwap32
                0x0000000040167568                SeEndian32
                0x000000004016757f                SeSwap64
                0x00000000401675d6                SeEndian64
                0x00000000401675ee                SeMalloc
                0x0000000040167630                SeNewFifo
                0x0000000040167672                SeNewBuf
                0x00000000401676b4                SeReAlloc
                0x0000000040167729                SePush
                0x0000000040167782                SePop
                0x00000000401677df                SeDeleteAll
                0x0000000040167816                SeDelete
                0x00000000401678da                SeAdd
                0x000000004016793a                SeInsert
                0x0000000040167a7c                SeInsertStr
                0x0000000040167ac1                SeClearFifo
                0x0000000040167afe                SeAdjustBufSize
                0x0000000040167b33                SeMemSize
                0x0000000040167b67                SeFree
                0x0000000040167b96                SeFreeStack
                0x0000000040167bbf                SeFreeList
                0x0000000040167be8                SeFreeFifo
                0x0000000040167c10                SeFreeQueue
                0x0000000040167c39                SeFreeBufWithoutBuffer
                0x0000000040167c4a                SeFreeBuf
                0x0000000040167c72                SeIsLittleEndian
                0x0000000040167c85                SeIsBigEndian
                0x0000000040167c98                SeCmp
                0x0000000040167d08                SeCmpBuf
                0x0000000040167d49                SeCmpEx
                0x0000000040167d80                SeCopy
                0x0000000040167da8                SeCopyToArray
                0x0000000040167dd1                SeToArray
                0x0000000040167e0b                SeWriteFifo
                0x0000000040167e8e                SeInsertQueue
                0x0000000040167ec4                SeReadFifo
                0x0000000040167faa                SeGetNext
                0x0000000040167ff4                SeGetNextInt
                0x000000004016802b                SePeekFifo
                0x0000000040168071                SePeekNext
                0x00000000401680af                SeWriteBuf
                0x0000000040168110                SeReadDump
                0x0000000040168176                SeAddBufStr
                0x00000000401681a7                SeWriteBufInt64
                0x00000000401681ea                SeWriteBufInt
                0x000000004016822a                SeWriteBufStr
                0x000000004016828d                SeWriteBufBuf
                0x00000000401682a9                SeWriteBufLine
                0x00000000401682f3                SeMemToBuf
                0x000000004016834e                SeCloneBuf
                0x0000000040168371                SeRandBuf
                0x00000000401683ac                SeSwap
                0x0000000040168408                SeClone
                0x000000004016844d                SeInsertQueueInt
                0x0000000040168481                SeZero
                0x00000000401684a5                SeReadBuf
                0x0000000040168537                SeReadBufInt64
                0x0000000040168573                SeReadBufInt
                0x00000000401685ab                SeReadBufStr
                0x0000000040168665                SeReadBufFromBuf
                0x00000000401686ed                SeReadRemainBuf
                0x0000000040168717                SeZeroMalloc
                0x0000000040168741                SeB64Encode
                0x0000000040168922                SeB64Decode
                0x0000000040168b00                SeNewStack
                0x0000000040168b3b                SeNewQueue
                0x0000000040168b6f                SeNewList
                0x0000000040168bb4                SeCloneList
                0x0000000040168c10                SeBuildICMPv6OptionValue
                0x0000000040168c8b                SeBuildICMPv6Options
                0x0000000040168d37                SeParseICMPv6Options
                0x0000000040168e17                SeFreePacketList
                0x0000000040168e53                SeFreePacketListWithoutBuffer
                0x0000000040168e8f                SeGetNextHeaderFromQueue
                0x0000000040168ebb                SeBuildAndAddIPv6PacketOptionHeader
                0x0000000040168f47                SeBuildIPv6Packet
                0x000000004016911b                SeBuildIPv6PacketWithFragment
                0x00000000401692e4                SeParseIPv6ExtHeader
                0x00000000401693d3                SeParseIPv6Packet
                0x0000000040169441                SeParsePacketL3IPv6
                0x0000000040169482                SeParsePacketL3IPv4
                0x0000000040169531                SeParsePacketL3ARPv4
                0x000000004016955b                SeParsePacketL2
                0x00000000401695f3                SeFreePacket
                0x0000000040169604                SeParsePacket
                0x0000000040169690                SeSecCmpIkeSa
                0x000000004016976f                SeSecCalcP2Iv
                0x000000004016980f                SeSecCalcP1Iv
                0x00000000401698ab                SeSecCalcKEYMATFull
                0x00000000401699b1                SeSecCalcKEYMAT
                0x0000000040169a65                SeSecCalcKa
                0x0000000040169b36                SeSecCalcP1KeySet
                0x0000000040169d3e                SeSecForceReconnect
                0x0000000040169d77                SeSecLifeSeconds64bit
                0x0000000040169d97                SeSecGetIPsecSa
                0x0000000040169de3                SeSecNewIkeSa
                0x0000000040169e84                SeSecFreeP1KeySet
                0x0000000040169ed2                SeSecGenIkeSaMessageId
                0x0000000040169f43                SeSecGenIkeSaInitCookie
                0x0000000040169fb4                SeSecInitSaList
                0x0000000040169fee                SeSecSearchIPsecSaBySpi
                0x000000004016a07c                SeSecSearchIkeSaBySpi
                0x000000004016a146                SeSecSearchIkeSa
                0x000000004016a209                SeSecNewSpi
                0x000000004016a220                SeSecGenIPsecSASpi
                0x000000004016a291                SeSecStrToAuthMethod
                0x000000004016a2fc                SeSecTick
                0x000000004016a317                SeSecCheckIkeSaExpires
                0x000000004016a3cc                SeSecCheckIPsecSaExpires
                0x000000004016a485                SeSecSetTimerCallback
                0x000000004016a4a6                SeSecAddTimer
                0x000000004016a4c7                SeSecNewIPsecSa
                0x000000004016a624                SeSecDoInterval
                0x000000004016a68b                SeSecSetRecvUdpCallback
                0x000000004016a6ac                SeSecSetRecvEspCallback
                0x000000004016a6cd                SeSecSetRecvVirtualIpCallback
                0x000000004016a6ee                SeSecSendUdp
                0x000000004016a735                SeSecSendIkeSaMsgInfo
                0x000000004016a997                SeSecSendIkeSaMsgInfoSimple
                0x000000004016a9e9                SeSecSendIkeSaDeleteMsg
                0x000000004016aa7c                SeSecSendIPsecSaDeleteMsg
                0x000000004016aae9                SeSecFreeIPsecSa
                0x000000004016ab5b                SeSecProcessIkeSaMsgInfo
                0x000000004016ae74                SeSecDeleteExpiredIPsecSa
                0x000000004016af1a                SeSecFreeIkeSa
                0x000000004016b0e0                SeSecDeleteExpiredIkeSa
                0x000000004016b248                SeSecFreeSaList
                0x000000004016b2c7                SeSecFreeMain
                0x000000004016b2d8                SeSecFree
                0x000000004016b307                SeSecSendIkeSaMsgPhase2FinalHash
                0x000000004016b498                SeSecProcessIkeSaMsgPhase2
                0x000000004016b935                SeSecSendIkeSaMsgPhase2
                0x000000004016be5a                SeSecProcessIkeSaMsgPhase1
                0x000000004016c6e2                SeSecProcessIkeSaMsg
                0x000000004016c739                SeSecUdpRecvCallback
                0x000000004016c98b                SeSecStartVpnConnect
                0x000000004016cfba                SeSecProcessMain
                0x000000004016d0ad                SeSecInitMain
                0x000000004016d0d2                SeSecInit
                0x000000004016d1f6                SeSecTimerCallback
                0x000000004016d20a                SeSecSendEsp
                0x000000004016d243                SeSecVirtualIpRecvCallback
                0x000000004016d447                SeSecSendVirtualIp
                0x000000004016d46f                SeSecEspRecvCallback
                0x000000004016d610                SeMakeCharArray
                0x000000004016d644                SeFreeToken
                0x000000004016d692                SeNullTokenList
                0x000000004016d6c6                SeDefaultTokenSplitChars
                0x000000004016d6d1                Se4BitToHex
                0x000000004016d6e6                SeHexTo4Bit
                0x000000004016d720                SeStrCmp
                0x000000004016d7cd                SeStrnCmp
                0x000000004016d89a                SeToUpper
                0x000000004016d8ac                SeStrCmpi
                0x000000004016d95f                SeStrnCmpi
                0x000000004016da38                SeToLower
                0x000000004016da4a                SeStrCheckLen
                0x000000004016da95                SeStrCheckSize
                0x000000004016dab4                SeStrLen
                0x000000004016dae8                SeReadNextLine
                0x000000004016dba9                SeIsAllLowerStr
                0x000000004016dc1c                SeIsAllUpperStr
                0x000000004016dc8f                SeIsCharInStr
                0x000000004016dcf5                SeNormalizeCrlf
                0x000000004016dd98                SeEndWith
                0x000000004016ddf2                SeTrimCrlf
                0x000000004016de39                SeHexToInt64
                0x000000004016dec8                SeHexToInt
                0x000000004016df54                SeToInt
                0x000000004016dfb0                SeToInt64
                0x000000004016e018                SeStrLower
                0x000000004016e053                SeStrUpper
                0x000000004016e08e                SeStrCat
                0x000000004016e11e                SeStrCpy
                0x000000004016e1cc                SeStrToBin
                0x000000004016e2c7                SeStrToBinEx
                0x000000004016e32b                SeStrToMac
                0x000000004016e33e                SeSearchStrEx
                0x000000004016e483                SeSearchStr
                0x000000004016e493                SeSearchStri
                0x000000004016e4a3                SeCalcReplaceStrEx
                0x000000004016e547                SeReplaceStrEx
                0x000000004016e69b                SeReplaceStri
                0x000000004016e6ac                SeReplaceStr
                0x000000004016e6bd                SeCopyStr
                0x000000004016e709                SeUniqueToken
                0x000000004016e865                SeParseTokenWithNullStr
                0x000000004016e9be                SeParseToken
                0x000000004016eb53                SeStartWith
                0x000000004016ebed                SeTrimRight
                0x000000004016ecef                SeTrimLeft
                0x000000004016ed95                SeTrim
                0x000000004016edba                SeTrimCopy
                0x000000004016edea                SeIsEmptyStr
                0x000000004016ee35                SeToHex64
                0x000000004016eef0                SeToHex
                0x000000004016efab                SeToStr
                0x000000004016f063                SeToStr64
                0x000000004016f12c                SeToStr3
                0x000000004016f274                SeStrSize
                0x000000004016f28d                SeFormatEx
                0x000000004016f785                SeFormatArgs
                0x000000004016f7db                SeFormat
                0x000000004016f811                SeMacToStr
                0x000000004016f862                SeBinToStrEx
                0x000000004016f8f9                SeBinToStr
                0x000000004016f9a0                SeVpnRecvIpV4PacketCallback
                0x000000004016f9f1                SeVpnRecvIpV6PacketCallback
                0x000000004016fa42                SeVpnInitIpStack
                0x000000004016fd60                SeVpnFreeIpStack
                0x000000004016fe00                SeVpnMainInit
                0x000000004016ff0f                SeVpnMainFree
                0x000000004016ff33                SeVpnRecvEtherPacket
                0x000000004016ffad                SeVpnSendEtherPacket
                0x000000004016ffd3                SeVpnMainProcRecvEtherPacket
                0x000000004017007c                SeVpnStatusChanged
                0x000000004017008e                SeVpnMainProcess
                0x000000004017018c                SeVpnMainHandler
                0x00000000401701d9                SeVpnTimerCallback
                0x00000000401701f2                SeVpnEthRecvCallback
                0x000000004017020b                SeVpnTick
                0x0000000040170221                SeVpnAddTimer
                0x0000000040170236                SeVpnDoInterval
                0x0000000040170287                SeVpnFreeConfig
                0x0000000040170298                SeVpnFree
                0x00000000401702e9                SeVpnLoadConfig
                0x0000000040171635                SeVpnInit
                0x0000000040171750                SeVpn4ClientSetTimerCallback
                0x0000000040171763                SeVpn4ClientSetRecvUdpCallback
                0x0000000040171776                SeVpn4ClientSetRecvEspCallback
                0x0000000040171789                SeVpn4ClientSetRecvVirtualIpCallback
                0x000000004017179c                SeVpn4ClientSendUdp
                0x0000000040171814                SeVpn4ClientSendEsp
                0x0000000040171885                SeVpn4ClientSendVirtualIp
                0x00000000401718b7                SeVpn4IPsecSendPing
                0x00000000401719f8                SeVpn4IPsecInputFromPhysical
                0x0000000040171ab6                SeVpn4IPsecInputFromVirtual
                0x0000000040171b20                SeVpn4FreeIPsec
                0x0000000040171b35                SeVpn4InitSecConfig
                0x0000000040171d0c                SeVpn4InitIPsec
                0x0000000040171ddd                SeVpn4DoInterval
                0x0000000040171df6                SeVpn4Tick
                0x0000000040171e0f                SeVpn4IPsecMainProc
                0x0000000040171e7f                SeVpn4MainProc
                0x0000000040171e9b                SeVpn4ClientGetTick
                0x0000000040171eb1                SeVpn4SetTimer
                0x0000000040171ec5                SeVpn4ClientAddTimer
                0x0000000040171ede                SeVpn4DhcpSendResponse
                0x0000000040171fe8                SeVpn4DhcpOptionsToBuf
                0x00000000401720a6                SeVpn4NewDhcpOption
                0x00000000401720f7                SeVpn4DhcpBuildDhcpOptionList
                0x00000000401722d9                SeVpn4DhcpSearchOption
                0x0000000040172315                SeVpn4DhcpFreeOptionList
                0x0000000040172369                SeVpn4DhcpParseOptionListMain
                0x0000000040172454                SeVpn4DhcpParseOptionList
                0x0000000040172539                SeVpn4DhcpServer
                0x00000000401727fd                SeVpn4RecvPacketPhysical
                0x00000000401728c0                SeVpn4RecvPacketVirtual
                0x0000000040172a19                SeVpn4Init
                0x0000000040172a7f                SeVpn4Free
                0x0000000040172ab0                SeVpn6ClientSetTimerCallback
                0x0000000040172ac3                SeVpn6ClientSetRecvUdpCallback
                0x0000000040172ad6                SeVpn6ClientSetRecvEspCallback
                0x0000000040172ae9                SeVpn6ClientSetRecvVirtualIpCallback
                0x0000000040172afc                SeVpn6ClientSendUdp
                0x0000000040172b81                SeVpn6ClientSendEsp
                0x0000000040172c03                SeVpn6ClientSendVirtualIp
                0x0000000040172c35                SeVpn6IPsecSendPing
                0x0000000040172e22                SeVpn6UpdateGuestOsIpAddress
                0x0000000040172ede                SeVpn6IPsecInputFromPhysical
                0x0000000040172f9c                SeVpn6IPsecInputFromVirtual
                0x0000000040172fd2                SeVpn6InitSecConfig
                0x00000000401731bb                SeVpn6InitIPsec
                0x0000000040173295                SeVpn6FreeIPsec
                0x00000000401732aa                SeVpn6DoInterval
                0x00000000401732c3                SeVpn6Tick
                0x00000000401732dc                SeVpn6IPsecMainProc
                0x0000000040173356                SeVpn6MainProc
                0x0000000040173372                SeVpn6ClientGetTick
                0x0000000040173388                SeVpn6SetTimer
                0x000000004017339c                SeVpn6ClientAddTimer
                0x00000000401733b5                SeVpn6RecvPacketPhysical
                0x0000000040173441                SeVpn6RecvPacketVirtual
                0x0000000040173562                SeVpn6Init
                0x00000000401735d9                SeVpn6Free
                0x0000000040173609                crypt_sys_rsa_sign
                0x0000000040173992                msg_usb_bulk_read
                0x00000000401739f2                msg_usb_bulk_write
                0x0000000040173a52                msg_usb_claim_interface
                0x0000000040173a98                msg_usb_close
                0x0000000040173af2                msg_usb_control_msg
                0x0000000040173b67                msg_usb_find_busses
                0x0000000040173ba5                msg_usb_find_devices
                0x0000000040173be3                msg_usb_get_busses
                0x0000000040173c4d                msg_usb_get_string_simple
                0x0000000040173ca9                msg_usb_init
                0x0000000040173cbe                msg_usb_open
                0x0000000040173d3e                msg_usb_release_interface
                0x0000000040173d84                msg_usb_reset
                0x0000000040173dc7                IDMan_StReadSetData
                0x00000000401744ab                idman_user_init
                0x0000000040174500                IDMan_IPIdPassListMalloc
                0x00000000401745d6                IDMan_IPRetJudgment
                0x0000000040174652                IDMan_IPInitializeReader
                0x0000000040174683                IDMan_IPInitialize
                0x000000004017478c                IDMan_IPFinalize
                0x00000000401747d4                IDMan_IPFinalizeReader
                0x00000000401747f6                IDMan_getMemoryFree
                0x000000004017483e                IDMan_PaddingParamChk
                0x0000000040174954                IDMan_CmPadding
                0x0000000040174b05                IDMan_CmPadding2
                0x0000000040174c78                IDMan_IPgetCertPKCS
                0x00000000401752df                IDMan_IPgetCertIdxPKCS
                0x00000000401757e3                IDMan_IPCheckPKC
                0x00000000401759fe                IDMan_CheckCardStatus
                0x0000000040175a30                IDMan_IPgSParamChk
                0x0000000040175b79                IDMan_IPgIdxSParamChk
                0x0000000040175bb8                IDMan_IPgetPrivateKey
                0x0000000040175d9a                IDMan_IPgetHash
                0x0000000040175e7c                IDMan_IPCrSignature
                0x0000000040175fdc                IDMan_generateSignature
                0x0000000040176101                IDMan_generateSignatureByIndex
                0x0000000040176213                IDMan_EncryptByIndex
                0x0000000040176330                IDMan_IPgCParamChk
                0x0000000040176439                IDMan_getCertificate
                0x0000000040176760                IDMan_IPgCIndexParamChk
                0x0000000040176790                IDMan_getCertificateByIndex
                0x0000000040176b10                IDMan_getStaticPassword
                0x0000000040176e40                IDMan_IPuAPKCS11ParamChk
                0x0000000040176f5f                IDMan_IPuAPKCS11IdxParamChk
                0x0000000040176f86                IDMan_IPgetCertPkeyPKCSx
                0x0000000040177439                IDMan_IPgetCertPkeyIdxPKCSx
                0x000000004017785d                IDMan_IPgetCertPkeyPKCSy
                0x00000000401779a8                IDMan_IPCheckCrlPkcX
                0x0000000040177ae2                IDMan_IPgetMakeRandData
                0x0000000040177b5b                IDMan_IPMkRandHash
                0x0000000040177c05                IDMan_IPgetPrivateKeyPKCSx
                0x0000000040177de3                IDMan_IPSignatureVerify
                0x0000000040177f5c                IDMan_userAuthPKCS11
                0x00000000401783d7                IDMan_userAuthPKCS11ByIndex
                0x0000000040178860                IDMan_IPvSParamChk
                0x0000000040178a06                IDMan_IPvSIdxParamChk
                0x0000000040178a7e                IDMan_IPMkPublicKeyObj
                0x0000000040178bc2                IDMan_IPCheckSignature
                0x0000000040178d6d                IDMan_verifySignature
                0x0000000040178f34                IDMan_verifySignatureByIndex
                0x00000000401790e0                CardEstablishContext
                0x00000000401790f8                CardReleaseContext
                0x0000000040179129                CardListReaders
                0x0000000040179141                CardConnect
                0x000000004017917f                CardDisconnect
                0x000000004017919c                CardStatus
                0x00000000401791ed                CardTransmit
                0x0000000040179229                SelectFileDF
                0x000000004017930d                SelectFileEF
                0x00000000401793e8                Verify
                0x00000000401794dc                InternalAuth
                0x0000000040179613                ReadBinary
                0x0000000040179c00                UpdateBinary
                0x0000000040179d19                GetICCardData
                0x000000004017a100                GetUlByTxt
                0x000000004017a13f                GetVerByTex
                0x000000004017a21f                GetUlByByte
                0x000000004017a26d                TransHex2Tex
                0x000000004017a307                TransTex2Hex
                0x000000004017a3d0                GetLength
                0x000000004017a437                SetLength
                0x000000004017a49c                GetTlvByBuf
                0x000000004017a808                GetDirDataByTlv
                0x000000004017a93a                GetOdfDataByTlv
                0x000000004017aaad                GetTokenDataByTlv
                0x000000004017af14                AddObjTblByTlv
                0x000000004017b54d                AddCertDataByBuf
                0x000000004017b646                AddIdPassDataByBuf
                0x000000004017ba1d                GetValueData
                0x000000004017bda0                AddElem
                0x000000004017be28                SetElem
                0x000000004017bee8                GetElem
                0x000000004017bf24                GetAttrValType
                0x000000004017c096                DestroyAttribute
                0x000000004017c0e0                DestroyTlvData
                0x000000004017c0fb                DestroyElem
                0x000000004017c184                DestroyList
                0x000000004017c1c1                DestroyTokenData
                0x000000004017c221                DestroySlotData
                0x000000004017c25d                DestroySessionData
                0x000000004017c29b                DelElem
                0x000000004017c310                C_GetFunctionList
                0x000000004017c322                C_Initialize
                0x000000004017c490                C_Finalize
                0x000000004017c52c                C_GetInfo
                0x000000004017c5b2                C_GetSlotList
                0x000000004017ce7c                C_GetSlotInfo
                0x000000004017cf64                C_GetTokenInfo
                0x000000004017d826                C_GetMechanismList
                0x000000004017d8f1                C_GetMechanismInfo
                0x000000004017d9ab                C_OpenSession
                0x000000004017db69                C_CloseSession
                0x000000004017dc43                C_CloseAllSessions
                0x000000004017dd53                C_GetSessionInfo
                0x000000004017ddcf                C_Login
                0x000000004017e230                C_Logout
                0x000000004017e33d                C_FindObjectsInit
                0x000000004017e59e                C_FindObjects
                0x000000004017ead3                C_FindObjectsFinal
                0x000000004017eb49                C_GetAttributeValue
                0x000000004017ee48                C_SignInit
                0x000000004017ef0f                C_Sign
                0x000000004017f285                C_DigestInit
                0x000000004017f300                C_DigestUpdate
                0x000000004017f382                C_DigestFinal
                0x000000004017f4c2                C_VerifyInit
                0x000000004017f589                C_Verify
                0x000000004017f6f0                C_CreateObject
                0x000000004017f9aa                C_DestroyObject
                0x000000004017fa6a                C_SetAttributeValue
                0x000000004018060a                C_GetCardStatus
                0x00000000401806a0                IDMan_StFree
                0x00000000401806b1                IDMan_StMemcpy
                0x00000000401806d9                IDMan_StMemset
                0x00000000401806f9                IDMan_StMalloc
                0x0000000040180732                IDMan_StMemcmp
                0x0000000040180782                IDMan_StStrlen
                0x00000000401807a3                IDMan_StStrcat
                0x00000000401807e2                IDMan_StStrchr
                0x000000004018081d                IDMan_StStrcpy
                0x0000000040180849                IDMan_StStrcmp
                0x000000004018088c                StIsspace
                0x00000000401808fb                StIsdigit
                0x000000004018090d                IDMan_StAtoi
                0x000000004018095f                IDMan_StAtol
                0x00000000401809bb                IDMan_CmMkHash
                0x0000000040180b6d                IDMan_CmChgRSA
                0x0000000040180d27                IDMan_CmGetDN
                0x0000000040180fc3                IDMan_CmGetCertificateSign
                0x00000000401811e7                IDMan_CmGetPublicKey
                0x00000000401813b7                IDMan_CmMakeRand
                0x0000000040181455                IDMan_CmCheckCRL
                0x00000000401817d0                IDMan_SCardEstablishContext
                0x00000000401817ed                IDMan_SCardReleaseContext
                0x00000000401817f8                IDMan_SCardListReaders
                0x0000000040181828                IDMan_SCardConnect
                0x0000000040181858                IDMan_SCardDisconnect
                0x0000000040181863                IDMan_SCardStatus
                0x00000000401818d7                IDMan_SCardSizeLongToChar
                0x0000000040181918                IDMan_SCardSetBinay
                0x0000000040181cab                IDMan_SCardTransmit
                0x0000000040181d20                EHDestroyEventHandler
                0x0000000040181d8d                EHInitEventHandler
                0x0000000040181e5d                EHStatusHandler
                0x0000000040181ff9                HPSearchHotPluggables
                0x0000000040182360                PHGetProtocol
                0x000000004018272a                PHSetProtocol
                0x000000004018278e                RFAddReader
                0x00000000401828a5                RFRemoveReader
                0x0000000040182960                RFReaderInfoById
                0x0000000040182990                RFCheckReaderEventState
                0x00000000401829d0                SCardEstablishContext
                0x0000000040182ac0                SCardListReaders
                0x0000000040182b5d                SCardConnect
                0x0000000040182df4                SCardDisconnect
                0x0000000040182fa2                SCardBeginTransaction
                0x0000000040182ff9                SCardEndTransaction
                0x00000000401831cf                SCardStatus
                0x00000000401833e2                SCardReleaseContext
                0x00000000401834aa                SCardTransmit
                0x00000000401836f0                SetATR
                0x0000000040183939                GetIFSCData
                0x0000000040183996                GetBWICWIData
                0x0000000040183a43                IFDHCloseChannel
                0x0000000040183ac0                IFDHGetCapabilities
                0x0000000040183b06                IFDHSetProtocolParameters
                0x0000000040184210                IFDHPowerICC
                0x00000000401843ff                IFDHTransmitToICC
                0x00000000401846c5                IFDHControl
                0x00000000401847d6                IFDHICCPresence
                0x0000000040184878                IFDHCreateChannel
                0x0000000040184918                FindBaudRateTable
                0x0000000040184961                ExchangePPSData
                0x000000004018502c                InitLeaderCardProtocol
                0x0000000040185146                T1XfrBlockTPDU
                0x000000004018577d                T1NegociateIFSD
                0x00000000401858cb                CardStateConfirm
                0x0000000040185900                GetCardStatus
                0x0000000040185a05                PowerOn
                0x0000000040185bb0                PowerOff
                0x0000000040185d00                CardMechanical
                0x0000000040185e0d                TransmitPPS
                0x0000000040185f86                TransmitCommand
                0x0000000040186056                ReceiveReply
                0x0000000040186205                ReadDataT0
                0x00000000401862b0                BlockSendCardT1
                0x00000000401864cd                T0XfrBlockCHAR
                0x00000000401869d1                T0XfrBlockTPDU
                0x0000000040186a4a                T1XfrBlockExtendedAPDU
                0x0000000040186d93                OpenUSB
                0x0000000040187148                WriteUSB
                0x0000000040187177                ReadUSB
                0x00000000401871d5                CloseUSB
                0x0000000040187243                AES_set_encrypt_key
                0x0000000040187651                AES_set_decrypt_key
                0x000000004018787c                AES_encrypt
                0x0000000040187d07                AES_decrypt
                0x0000000040188170                BIO_set
                0x000000004018823e                BIO_new
                0x00000000401882b1                BIO_free
                0x0000000040188369                BIO_vfree
                0x0000000040188374                BIO_clear_flags
                0x000000004018837f                BIO_test_flags
                0x000000004018838a                BIO_set_flags
                0x0000000040188393                BIO_get_callback
                0x000000004018839d                BIO_set_callback
                0x00000000401883a7                BIO_set_callback_arg
                0x00000000401883b1                BIO_get_callback_arg
                0x00000000401883bb                BIO_method_name
                0x00000000401883c8                BIO_method_type
                0x00000000401883d3                BIO_read
                0x00000000401884bd                BIO_write
                0x00000000401885b2                BIO_puts
                0x000000004018869f                BIO_gets
                0x0000000040188783                BIO_indent
                0x00000000401887c8                BIO_ctrl
                0x000000004018888e                BIO_int_ctrl
                0x00000000401888a4                BIO_ptr_ctrl
                0x00000000401888cf                BIO_callback_ctrl
                0x0000000040188993                BIO_ctrl_pending
                0x00000000401889ad                BIO_ctrl_wpending
                0x00000000401889c7                BIO_push
                0x0000000040188a17                BIO_pop
                0x0000000040188a7d                BIO_get_retry_BIO
                0x0000000040188aaa                BIO_get_retry_reason
                0x0000000040188ab3                BIO_find_type
                0x0000000040188afe                BIO_next
                0x0000000040188b14                BIO_free_all
                0x0000000040188b43                BIO_dup_chain
                0x0000000040188c3b                BIO_copy_next_retry
                0x0000000040188c54                BIO_get_ex_new_index
                0x0000000040188c73                BIO_set_ex_data
                0x0000000040188c82                BIO_get_ex_data
                0x0000000040188c91                BIO_number_read
                0x0000000040188ca7                BIO_number_written
                0x0000000040188e00                BN_set_params
                0x0000000040188e90                BN_get_params
                0x0000000040188ec5                BN_value_one
                0x0000000040188ed0                BN_options
                0x0000000040188f18                BN_num_bits_word
                0x0000000040188f76                BN_num_bits
                0x0000000040188f9c                BN_clear_free
                0x0000000040188ff5                BN_free
                0x000000004018903e                BN_init
                0x0000000040189053                BN_new
                0x00000000401890bb                bn_expand2
                0x000000004018910c                BN_copy
                0x00000000401891f8                BN_dup
                0x000000004018924a                bn_dup_expand
                0x00000000401892bb                BN_swap
                0x000000004018931e                BN_clear
                0x000000004018935b                BN_get_word
                0x000000004018937d                BN_set_word
                0x00000000401893d2                BN_bin2bn
                0x0000000040189511                BN_bn2bin
                0x0000000040189580                BN_ucmp
                0x00000000401895dd                BN_cmp
                0x000000004018969d                BN_set_bit
                0x000000004018974c                BN_clear_bit
                0x00000000401897d5                BN_is_bit_set
                0x0000000040189819                BN_mask_bits
                0x00000000401898ae                BN_set_negative
                0x00000000401898ce                bn_cmp_words
                0x0000000040189934                bn_cmp_part_words
                0x00000000401899c0                BN_bn2hex
                0x0000000040189aa2                BN_bn2dec
                0x0000000040189cba                BN_hex2bn
                0x0000000040189e9d                BN_dec2bn
                0x000000004018a04a                BN_asc2bn
                0x000000004018a0b1                BN_print
                0x000000004018a387                BN_rand
                0x000000004018a3a1                BN_pseudo_rand
                0x000000004018a58e                BN_bntest_rand
                0x000000004018a5a8                BN_rand_range
                0x000000004018a5be                BN_pseudo_rand_range
                0x000000004018a5e0                BN_mod_word
                0x000000004018a63a                BN_div_word
                0x000000004018a712                BN_sub_word
                0x000000004018a80c                BN_add_word
                0x000000004018a8fa                BN_mul_word
                0x000000004018ad9c                BIO_s_mem
                0x000000004018ada7                BIO_new_mem_buf
                0x000000004018ae20                BUF_MEM_new
                0x000000004018ae7c                BUF_MEM_free
                0x000000004018aebb                BUF_MEM_grow
                0x000000004018afb0                BUF_MEM_grow_clean
                0x000000004018b0bf                BUF_memdup
                0x000000004018b128                BUF_strlcpy
                0x000000004018b198                BUF_strndup
                0x000000004018b214                BUF_strdup
                0x000000004018b242                BUF_strlcat
                0x000000004018b28a                BUF_reverse
                0x000000004018b2df                OpenSSL_add_all_ciphers
                0x000000004018b780                OpenSSL_add_all_digests
                0x000000004018b8f0                CRYPTO_get_new_lockid
                0x000000004018b99f                CRYPTO_num_locks
                0x000000004018b9aa                CRYPTO_get_dynlock_create_callback
                0x000000004018b9b7                CRYPTO_get_dynlock_lock_callback
                0x000000004018b9c4                CRYPTO_get_dynlock_destroy_callback
                0x000000004018b9d1                CRYPTO_set_dynlock_create_callback
                0x000000004018b9de                CRYPTO_set_dynlock_lock_callback
                0x000000004018b9eb                CRYPTO_set_dynlock_destroy_callback
                0x000000004018b9f8                CRYPTO_get_locking_callback
                0x000000004018ba05                CRYPTO_get_add_lock_callback
                0x000000004018ba12                CRYPTO_set_locking_callback
                0x000000004018ba1f                CRYPTO_set_add_lock_callback
                0x000000004018ba2c                CRYPTO_THREADID_set_numeric
                0x000000004018ba51                CRYPTO_THREADID_set_pointer
                0x000000004018ba79                CRYPTO_THREADID_set_callback
                0x000000004018ba97                CRYPTO_THREADID_get_callback
                0x000000004018baa4                CRYPTO_THREADID_current
                0x000000004018baec                CRYPTO_THREADID_cmp
                0x000000004018bafc                CRYPTO_THREADID_cpy
                0x000000004018bb0c                CRYPTO_THREADID_hash
                0x000000004018bb16                CRYPTO_get_id_callback
                0x000000004018bb23                CRYPTO_set_id_callback
                0x000000004018bb30                CRYPTO_thread_id
                0x000000004018bb4a                CRYPTO_get_lock_name
                0x000000004018bb9f                OPENSSL_ia32cap_loc
                0x000000004018bbaa                OPENSSL_cpuid_setup
                0x000000004018bbb0                OPENSSL_showfatal
                0x000000004018bbfb                OPENSSL_isservice
                0x000000004018bc06                OpenSSLDie
                0x000000004018bc28                CRYPTO_lock
                0x000000004018bcad                CRYPTO_get_new_dynlockid
                0x000000004018bec9                CRYPTO_destroy_dynlockid
                0x000000004018bfc1                CRYPTO_get_dynlock_value
                0x000000004018c060                CRYPTO_add_lock
                0x000000004018c0ce                OPENSSL_stderr
                0x000000004018c0d9                DES_encrypt1
                0x000000004018c4ee                DES_encrypt2
                0x000000004018c806                DES_encrypt3
                0x000000004018c960                DES_decrypt3
                0x000000004018cabd                DES_ncbc_encrypt
                0x000000004018d0f9                DES_ede3_cbc_encrypt
                0x000000004018db1a                DH_generate_key
                0x000000004018db2a                DH_compute_key
                0x000000004018db3a                DH_OpenSSL
                0x000000004018db45                DH_set_default_method
                0x000000004018db52                DH_get_default_method
                0x000000004018db7d                DH_set_method
                0x000000004018dbbc                DH_new_method
                0x000000004018dcdd                DH_new
                0x000000004018dced                DH_free
                0x000000004018ddcd                DH_up_ref
                0x000000004018ddfa                DH_get_ex_new_index
                0x000000004018de19                DH_set_ex_data
                0x000000004018de28                DH_get_ex_data
                0x000000004018de37                DH_size
                0x000000004018eb9a                EVP_aes_128_cbc
                0x000000004018eba5                EVP_aes_128_cfb128
                0x000000004018ebb0                EVP_aes_128_ofb
                0x000000004018ebbb                EVP_aes_128_ecb
                0x000000004018ebc6                EVP_aes_192_cbc
                0x000000004018ebd1                EVP_aes_192_cfb128
                0x000000004018ebdc                EVP_aes_192_ofb
                0x000000004018ebe7                EVP_aes_192_ecb
                0x000000004018ebf2                EVP_aes_256_cbc
                0x000000004018ebfd                EVP_aes_256_cfb128
                0x000000004018ec08                EVP_aes_256_ofb
                0x000000004018ec13                EVP_aes_256_ecb
                0x000000004018ec1e                EVP_aes_128_cfb1
                0x000000004018ec29                EVP_aes_192_cfb1
                0x000000004018ec34                EVP_aes_256_cfb1
                0x000000004018ec3f                EVP_aes_128_cfb8
                0x000000004018ec4a                EVP_aes_192_cfb8
                0x000000004018ec55                EVP_aes_256_cfb8
                0x000000004018ef78                EVP_bf_cbc
                0x000000004018ef83                EVP_bf_cfb64
                0x000000004018ef8e                EVP_bf_ofb
                0x000000004018ef99                EVP_bf_ecb
                0x000000004018f2bc                EVP_cast5_cbc
                0x000000004018f2c7                EVP_cast5_cfb64
                0x000000004018f2d2                EVP_cast5_ofb
                0x000000004018f2dd                EVP_cast5_ecb
                0x000000004018f8c5                EVP_des_cbc
                0x000000004018f8d0                EVP_des_cfb64
                0x000000004018f8db                EVP_des_ofb
                0x000000004018f8e6                EVP_des_ecb
                0x000000004018f8f1                EVP_des_cfb1
                0x000000004018f8fc                EVP_des_cfb8
                0x000000004018feea                EVP_des_ede_cbc
                0x000000004018fef5                EVP_des_ede_cfb64
                0x000000004018ff00                EVP_des_ede_ofb
                0x000000004018ff0b                EVP_des_ede_ecb
                0x000000004018ff16                EVP_des_ede3_cbc
                0x000000004018ff21                EVP_des_ede3_cfb64
                0x000000004018ff2c                EVP_des_ede3_ofb
                0x000000004018ff37                EVP_des_ede3_ecb
                0x000000004018ff42                EVP_des_ede3_cfb1
                0x000000004018ff4d                EVP_des_ede3_cfb8
                0x000000004018ff58                EVP_des_ede
                0x000000004018ff63                EVP_des_ede3
                0x00000000401902e2                EVP_idea_cbc
                0x00000000401902ed                EVP_idea_cfb64
                0x00000000401902f8                EVP_idea_ofb
                0x0000000040190303                EVP_idea_ecb
                0x000000004019084e                EVP_rc2_cbc
                0x0000000040190859                EVP_rc2_cfb64
                0x0000000040190864                EVP_rc2_ofb
                0x000000004019086f                EVP_rc2_ecb
                0x000000004019087a                EVP_rc2_64_cbc
                0x0000000040190885                EVP_rc2_40_cbc
                0x00000000401908d7                EVP_rc4
                0x00000000401908e2                EVP_rc4_40
                0x0000000040190a5d                EVP_desx_cbc
                0x0000000040190a68                DES_ecb3_encrypt
                0x0000000040190b38                DES_options
                0x0000000040190b92                DES_ecb_encrypt
                0x000000004019131d                ERR_get_implementation
                0x000000004019132f                ERR_set_implementation
                0x000000004019138a                ERR_load_ERR_strings
                0x00000000401914b7                ERR_load_strings
                0x00000000401914d7                ERR_unload_strings
                0x0000000040191529                ERR_free_strings
                0x000000004019153e                ERR_get_string_table
                0x0000000040191557                ERR_get_err_state_table
                0x0000000040191571                ERR_release_err_state_table
                0x0000000040191596                ERR_lib_error_string
                0x00000000401915d6                ERR_func_error_string
                0x0000000040191616                ERR_reason_error_string
                0x000000004019167f                ERR_error_string_n
                0x00000000401917e1                ERR_error_string
                0x0000000040191810                ERR_remove_thread_state
                0x0000000040191855                ERR_remove_state
                0x0000000040191865                ERR_get_state
                0x000000004019197b                ERR_put_error
                0x0000000040191a6e                ERR_clear_error
                0x0000000040191d1a                ERR_get_error
                0x0000000040191d45                ERR_get_error_line
                0x0000000040191d6c                ERR_get_error_line_data
                0x0000000040191d8d                ERR_peek_error
                0x0000000040191db8                ERR_peek_error_line
                0x0000000040191ddf                ERR_peek_error_line_data
                0x0000000040191e00                ERR_peek_last_error
                0x0000000040191e2b                ERR_peek_last_error_line
                0x0000000040191e52                ERR_peek_last_error_line_data
                0x0000000040191e73                ERR_get_next_error_library
                0x0000000040191e88                ERR_set_error_data
                0x0000000040191efb                ERR_add_error_data
                0x0000000040192024                ERR_set_mark
                0x0000000040192051                ERR_pop_to_mark
                0x0000000040192120                ERR_load_crypto_strings
                0x00000000401921c0                ASN1_TYPE_set_octetstring
                0x000000004019221b                ASN1_TYPE_get_octetstring
                0x0000000040192277                ASN1_TYPE_set_int_octetstring
                0x00000000401923a0                ASN1_TYPE_get_int_octetstring
                0x0000000040192570                EVP_CIPHER_CTX_init
                0x0000000040192585                EVP_CIPHER_CTX_new
                0x00000000401925bc                EVP_EncryptUpdate
                0x000000004019273f                EVP_EncryptFinal_ex
                0x0000000040192815                EVP_EncryptFinal
                0x0000000040192820                EVP_DecryptUpdate
                0x0000000040192931                EVP_CipherUpdate
                0x0000000040192949                EVP_DecryptFinal_ex
                0x0000000040192ada                EVP_CipherFinal_ex
                0x0000000040192af7                EVP_DecryptFinal
                0x0000000040192b02                EVP_CipherFinal
                0x0000000040192b21                EVP_CIPHER_CTX_cleanup
                0x0000000040192b85                EVP_CIPHER_CTX_free
                0x0000000040192baa                EVP_CIPHER_CTX_set_padding
                0x0000000040192bcb                EVP_CIPHER_CTX_ctrl
                0x0000000040192c5b                EVP_CipherInit_ex
                0x0000000040192e9b                EVP_CipherInit
                0x0000000040192eed                EVP_EncryptInit
                0x0000000040192efe                EVP_DecryptInit
                0x0000000040192f0f                EVP_EncryptInit_ex
                0x0000000040192f20                EVP_DecryptInit_ex
                0x0000000040192f31                EVP_CIPHER_CTX_set_key_length
                0x0000000040192f9d                EVP_CIPHER_CTX_rand_key
                0x0000000040192fd3                EVP_CIPHER_CTX_copy
                0x00000000401930b3                ERR_load_EVP_strings
                0x00000000401930f0                EVP_CIPHER_param_to_asn1
                0x0000000040193111                EVP_CIPHER_asn1_to_param
                0x0000000040193131                EVP_CIPHER_get_asn1_iv
                0x00000000401931ad                EVP_CIPHER_set_asn1_iv
                0x0000000040193208                EVP_CIPHER_type
                0x0000000040193355                EVP_CIPHER_block_size
                0x000000004019335e                EVP_CIPHER_CTX_block_size
                0x000000004019336a                EVP_Cipher
                0x0000000040193378                EVP_CIPHER_CTX_cipher
                0x0000000040193381                EVP_CIPHER_flags
                0x000000004019338b                EVP_CIPHER_CTX_flags
                0x0000000040193398                EVP_CIPHER_CTX_get_app_data
                0x00000000401933a2                EVP_CIPHER_CTX_set_app_data
                0x00000000401933ac                EVP_CIPHER_iv_length
                0x00000000401933b5                EVP_CIPHER_CTX_iv_length
                0x00000000401933c1                EVP_CIPHER_key_length
                0x00000000401933ca                EVP_CIPHER_CTX_key_length
                0x00000000401933d3                EVP_CIPHER_nid
                0x00000000401933db                EVP_CIPHER_CTX_nid
                0x00000000401933e6                EVP_MD_block_size
                0x00000000401933ef                EVP_MD_type
                0x00000000401933f7                EVP_MD_pkey_type
                0x0000000040193400                EVP_MD_size
                0x0000000040193433                EVP_MD_flags
                0x000000004019343d                EVP_MD_CTX_md
                0x0000000040193452                EVP_MD_CTX_set_flags
                0x000000004019345f                EVP_MD_CTX_clear_flags
                0x000000004019346e                EVP_MD_CTX_test_flags
                0x0000000040193479                EVP_CIPHER_CTX_set_flags
                0x0000000040193486                EVP_CIPHER_CTX_clear_flags
                0x0000000040193495                EVP_CIPHER_CTX_test_flags
                0x00000000401938a8                CRYPTO_get_ex_data_implementation
                0x00000000401938cc                CRYPTO_set_ex_data_implementation
                0x0000000040193927                CRYPTO_ex_data_new_class
                0x0000000040193945                CRYPTO_cleanup_all_ex_data
                0x0000000040193964                CRYPTO_get_ex_new_index
                0x00000000401939c1                CRYPTO_new_ex_data
                0x0000000040193a02                CRYPTO_dup_ex_data
                0x0000000040193a43                CRYPTO_free_ex_data
                0x0000000040193a84                CRYPTO_set_ex_data
                0x0000000040193b4e                CRYPTO_get_ex_data
                0x0000000040194072                idea_encrypt
                0x0000000040194975                idea_cbc_encrypt
                0x0000000040194fb0                idea_cfb64_encrypt
                0x00000000401951d1                idea_options
                0x00000000401951dc                idea_ecb_encrypt
                0x0000000040195295                idea_ofb64_encrypt
                0x00000000401954c2                idea_set_encrypt_key
                0x000000004019564c                idea_set_decrypt_key
                0x00000000401957bf                lh_strhash
                0x0000000040195836                lh_new
                0x000000004019599f                lh_free
                0x0000000040195a09                lh_insert
                0x0000000040195b96                lh_delete
                0x0000000040195cd9                lh_retrieve
                0x0000000040195d1c                lh_doall
                0x0000000040195d6e                lh_doall_arg
                0x0000000040195dd2                lh_num_items
                0x0000000040195e1b                EVP_dss
                0x0000000040195e59                EVP_dss1
                0x0000000040195e97                EVP_ecdsa
                0x0000000040195ed5                EVP_md4
                0x0000000040195f13                EVP_md5
                0x0000000040195f51                EVP_ripemd160
                0x0000000040195f8f                EVP_sha
                0x0000000040196051                EVP_sha1
                0x000000004019605c                EVP_sha224
                0x0000000040196067                EVP_sha256
                0x0000000040196072                EVP_sha384
                0x000000004019607d                EVP_sha512
                0x0000000040196088                MD4_Init
                0x00000000401960ca                md4_block_data_order
                0x0000000040196668                MD4_Update
                0x0000000040196784                MD4_Transform
                0x0000000040196794                MD4_Final
                0x0000000040196861                MD5_Init
                0x00000000401968a3                md5_block_data_order
                0x000000004019709e                MD5_Update
                0x00000000401971ba                MD5_Transform
                0x00000000401971ca                MD5_Final
                0x0000000040197297                MD5
                0x0000000040197334                CRYPTO_set_mem_functions
                0x00000000401973ab                CRYPTO_set_mem_ex_functions
                0x0000000040197422                CRYPTO_set_locked_mem_functions
                0x0000000040197462                CRYPTO_set_locked_mem_ex_functions
                0x00000000401974a2                CRYPTO_set_mem_debug_functions
                0x00000000401974db                CRYPTO_get_mem_functions
                0x0000000040197530                CRYPTO_get_mem_ex_functions
                0x0000000040197581                CRYPTO_get_locked_mem_functions
                0x00000000401975b6                CRYPTO_get_locked_mem_ex_functions
                0x00000000401975e9                CRYPTO_get_mem_debug_functions
                0x000000004019763a                CRYPTO_malloc_locked
                0x00000000401976ea                CRYPTO_free_locked
                0x0000000040197731                CRYPTO_malloc
                0x00000000401977e1                CRYPTO_strdup
                0x0000000040197826                CRYPTO_realloc
                0x00000000401978ce                CRYPTO_realloc_clean
                0x000000004019799d                CRYPTO_free
                0x00000000401979e4                CRYPTO_remalloc
                0x0000000040197a11                CRYPTO_set_mem_debug_options
                0x0000000040197a26                CRYPTO_get_mem_debug_options
                0x0000000040197a40                OPENSSL_cleanse
                0x0000000040197ec8                CRYPTO_mem_ctrl
                0x0000000040198059                CRYPTO_is_mem_check_on
                0x00000000401980d5                CRYPTO_dbg_set_options
                0x00000000401980e2                CRYPTO_dbg_get_options
                0x00000000401980ef                CRYPTO_push_info_
                0x00000000401981b8                CRYPTO_pop_info
                0x00000000401981fa                CRYPTO_remove_all_info
                0x000000004019823d                CRYPTO_dbg_malloc
                0x00000000401983cb                CRYPTO_dbg_free
                0x0000000040198441                CRYPTO_dbg_realloc
                0x00000000401984e1                CRYPTO_mem_leaks
                0x0000000040198600                CRYPTO_mem_leaks_cb
                0x00000000401986cd                EVP_add_cipher
                0x0000000040198722                EVP_add_digest
                0x00000000401987ca                EVP_get_cipherbyname
                0x00000000401987da                EVP_get_digestbyname
                0x00000000401987ea                EVP_cleanup
                0x0000000040198830                EVP_CIPHER_do_all
                0x0000000040198855                EVP_CIPHER_do_all_sorted
                0x000000004019887a                EVP_MD_do_all
                0x000000004019889f                EVP_MD_do_all_sorted
                0x00000000401989c4                OBJ_NAME_init
                0x0000000040198a12                OBJ_NAME_new_index
                0x0000000040198b7b                OBJ_NAME_get
                0x0000000040198c1e                OBJ_NAME_add
                0x0000000040198cfa                OBJ_NAME_remove
                0x0000000040198da8                OBJ_NAME_do_all
                0x0000000040198dd2                OBJ_NAME_do_all_sorted
                0x0000000040198e75                OBJ_NAME_cleanup
                0x000000004019913c                check_defer
                0x000000004019915d                OBJ_cleanup
                0x00000000401991cf                OBJ_new_nid
                0x00000000401991e3                OBJ_add_object
                0x00000000401993ad                OBJ_nid2obj
                0x000000004019946b                OBJ_nid2sn
                0x000000004019952c                OBJ_nid2ln
                0x00000000401995ee                OBJ_bsearch_ex_
                0x0000000040199709                OBJ_bsearch_
                0x000000004019971a                OBJ_obj2nid
                0x00000000401997a4                OBJ_obj2txt
                0x0000000040199b00                OBJ_ln2nid
                0x0000000040199b7b                OBJ_sn2nid
                0x0000000040199bf6                OBJ_txt2obj
                0x0000000040199ceb                OBJ_txt2nid
                0x0000000040199d1a                OBJ_create
                0x0000000040199e0e                OBJ_create_objects
                0x0000000040199f60                ERR_load_OBJ_strings
                0x0000000040199fa0                OBJ_dup
                0x000000004019a179                OBJ_cmp
                0x000000004019a19b                ERR_load_OCSP_strings
                0x000000004019a1d0                DES_ede3_ofb64_encrypt
                0x000000004019a39f                DES_ofb64_encrypt
                0x000000004019a6aa                EVP_PKEY_bits
                0x000000004019a6dd                EVP_PKEY_size
                0x000000004019a712                EVP_PKEY_save_parameters
                0x000000004019a744                EVP_PKEY_missing_parameters
                0x000000004019a772                EVP_PKEY_copy_parameters
                0x000000004019a7ff                EVP_PKEY_cmp_parameters
                0x000000004019a836                EVP_PKEY_cmp
                0x000000004019a891                EVP_PKEY_new
                0x000000004019a911                EVP_PKEY_set_type
                0x000000004019a926                EVP_PKEY_set_type_str
                0x000000004019a93b                EVP_PKEY_assign
                0x000000004019a963                EVP_PKEY_get0
                0x000000004019a96d                EVP_PKEY_set1_RSA
                0x000000004019a999                EVP_PKEY_get1_RSA
                0x000000004019a9e4                EVP_PKEY_set1_DSA
                0x000000004019aa10                EVP_PKEY_get1_DSA
                0x000000004019aa5b                EVP_PKEY_set1_EC_KEY
                0x000000004019aa87                EVP_PKEY_get1_EC_KEY
                0x000000004019aad5                EVP_PKEY_set1_DH
                0x000000004019ab01                EVP_PKEY_get1_DH
                0x000000004019ab4c                EVP_PKEY_type
                0x000000004019ab6f                EVP_PKEY_id
                0x000000004019ab77                EVP_PKEY_base_id
                0x000000004019ab84                EVP_PKEY_free
                0x000000004019abe1                EVP_PKEY_print_public
                0x000000004019ac07                EVP_PKEY_print_private
                0x000000004019ac2e                EVP_PKEY_print_params
                0x000000004019ac57                EVP_PKEY_get_default_digest_nid
                0x000000004019ac91                PEM_read_bio_X509_REQ
                0x000000004019acb2                PEM_write_bio_X509_REQ
                0x000000004019acf6                PEM_write_bio_X509_REQ_NEW
                0x000000004019ad3a                PEM_read_bio_X509_CRL
                0x000000004019ad5b                PEM_write_bio_X509_CRL
                0x000000004019ad9f                PEM_read_bio_PKCS7
                0x000000004019adc0                PEM_write_bio_PKCS7
                0x000000004019ae04                PEM_read_bio_NETSCAPE_CERT_SEQUENCE
                0x000000004019ae25                PEM_write_bio_NETSCAPE_CERT_SEQUENCE
                0x000000004019ae69                PEM_read_bio_RSAPrivateKey
                0x000000004019aed4                PEM_write_bio_RSAPrivateKey
                0x000000004019af0b                PEM_read_bio_RSAPublicKey
                0x000000004019af2c                PEM_write_bio_RSAPublicKey
                0x000000004019af70                PEM_read_bio_RSA_PUBKEY
                0x000000004019af91                PEM_write_bio_RSA_PUBKEY
                0x000000004019afd5                PEM_read_bio_DSAPrivateKey
                0x000000004019b040                PEM_write_bio_DSAPrivateKey
                0x000000004019b077                PEM_read_bio_DSA_PUBKEY
                0x000000004019b098                PEM_write_bio_DSA_PUBKEY
                0x000000004019b0dc                PEM_read_bio_DSAparams
                0x000000004019b0fd                PEM_write_bio_DSAparams
                0x000000004019b141                PEM_read_bio_ECPrivateKey
                0x000000004019b1ac                PEM_read_bio_ECPKParameters
                0x000000004019b1cd                PEM_write_bio_ECPKParameters
                0x000000004019b211                PEM_write_bio_ECPrivateKey
                0x000000004019b248                PEM_read_bio_EC_PUBKEY
                0x000000004019b269                PEM_write_bio_EC_PUBKEY
                0x000000004019b2ad                PEM_read_bio_DHparams
                0x000000004019b2ce                PEM_write_bio_DHparams
                0x000000004019b312                PEM_read_bio_PUBKEY
                0x000000004019b333                PEM_write_bio_PUBKEY
                0x000000004019b377                ERR_load_PEM_strings
                0x000000004019b3b0                PEM_def_callback
                0x000000004019b3da                PEM_proc_type
                0x000000004019b449                PEM_dek_info
                0x000000004019b50e                PEM_do_header
                0x000000004019b6da                PEM_get_EVP_CIPHER_INFO
                0x000000004019b98a                PEM_write_bio
                0x000000004019bc3d                PEM_ASN1_write_bio
                0x000000004019c058                PEM_read_bio
                0x000000004019c778                pem_check_suffix
                0x000000004019c7e5                PEM_bytes_read_bio
                0x000000004019cb39                PEM_ASN1_read_bio
                0x000000004019cbd6                PEM_read_bio_PrivateKey
                0x000000004019ce2d                PEM_write_bio_PrivateKey
                0x000000004019cee4                PEM_read_bio_Parameters
                0x000000004019d00a                PEM_write_bio_Parameters
                0x000000004019d093                PEM_read_bio_X509
                0x000000004019d0b4                PEM_write_bio_X509
                0x000000004019d0f8                ERR_load_PKCS12_strings
                0x000000004019d1f9                d2i_PKCS7
                0x000000004019d209                i2d_PKCS7
                0x000000004019d219                PKCS7_new
                0x000000004019d229                PKCS7_free
                0x000000004019d239                i2d_PKCS7_NDEF
                0x000000004019d249                PKCS7_dup
                0x000000004019d25c                d2i_PKCS7_SIGNED
                0x000000004019d26c                i2d_PKCS7_SIGNED
                0x000000004019d27c                PKCS7_SIGNED_new
                0x000000004019d28c                PKCS7_SIGNED_free
                0x000000004019d29c                d2i_PKCS7_SIGNER_INFO
                0x000000004019d2ac                i2d_PKCS7_SIGNER_INFO
                0x000000004019d2bc                PKCS7_SIGNER_INFO_new
                0x000000004019d2cc                PKCS7_SIGNER_INFO_free
                0x000000004019d2dc                d2i_PKCS7_ISSUER_AND_SERIAL
                0x000000004019d2ec                i2d_PKCS7_ISSUER_AND_SERIAL
                0x000000004019d2fc                PKCS7_ISSUER_AND_SERIAL_new
                0x000000004019d30c                PKCS7_ISSUER_AND_SERIAL_free
                0x000000004019d31c                d2i_PKCS7_ENVELOPE
                0x000000004019d32c                i2d_PKCS7_ENVELOPE
                0x000000004019d33c                PKCS7_ENVELOPE_new
                0x000000004019d34c                PKCS7_ENVELOPE_free
                0x000000004019d35c                d2i_PKCS7_RECIP_INFO
                0x000000004019d36c                i2d_PKCS7_RECIP_INFO
                0x000000004019d37c                PKCS7_RECIP_INFO_new
                0x000000004019d38c                PKCS7_RECIP_INFO_free
                0x000000004019d39c                d2i_PKCS7_ENC_CONTENT
                0x000000004019d3ac                i2d_PKCS7_ENC_CONTENT
                0x000000004019d3bc                PKCS7_ENC_CONTENT_new
                0x000000004019d3cc                PKCS7_ENC_CONTENT_free
                0x000000004019d3dc                d2i_PKCS7_SIGN_ENVELOPE
                0x000000004019d3ec                i2d_PKCS7_SIGN_ENVELOPE
                0x000000004019d3fc                PKCS7_SIGN_ENVELOPE_new
                0x000000004019d40c                PKCS7_SIGN_ENVELOPE_free
                0x000000004019d41c                d2i_PKCS7_ENCRYPT
                0x000000004019d42c                i2d_PKCS7_ENCRYPT
                0x000000004019d43c                PKCS7_ENCRYPT_new
                0x000000004019d44c                PKCS7_ENCRYPT_free
                0x000000004019d45c                d2i_PKCS7_DIGEST
                0x000000004019d46c                i2d_PKCS7_DIGEST
                0x000000004019d47c                PKCS7_DIGEST_new
                0x000000004019d48c                PKCS7_DIGEST_free
                0x000000004019d49c                PKCS7_print_ctx
                0x000000004019da0d                PKCS7_dataInit
                0x000000004019e0fd                PKCS7_dataDecode
                0x000000004019e738                PKCS7_SIGNER_INFO_sign
                0x000000004019e901                PKCS7_get_issuer_and_serial
                0x000000004019e977                PKCS7_get_signed_attribute
                0x000000004019e986                PKCS7_dataFinal
                0x000000004019ef39                PKCS7_get_attribute
                0x000000004019ef48                PKCS7_digest_from_attributes
                0x000000004019ef68                PKCS7_signatureVerify
                0x000000004019f27f                PKCS7_dataVerify
                0x000000004019f3f1                PKCS7_set_signed_attributes
                0x000000004019f481                PKCS7_set_attributes
                0x000000004019f511                PKCS7_add_signed_attribute
                0x000000004019f520                PKCS7_add_attribute
                0x000000004019f530                PKCS7_ctrl
                0x000000004019f668                PKCS7_set_content
                0x000000004019f6f5                PKCS7_set_type
                0x000000004019f8f4                PKCS7_content_new
                0x000000004019f956                PKCS7_set0_type_other
                0x000000004019f97c                PKCS7_add_signer
                0x000000004019fae0                PKCS7_add_certificate
                0x000000004019fbbb                PKCS7_add_crl
                0x000000004019fc9b                PKCS7_SIGNER_INFO_set
                0x000000004019fdf6                PKCS7_add_signature
                0x000000004019feba                PKCS7_set_digest
                0x000000004019ff79                PKCS7_get_signer_info
                0x000000004019ffc2                PKCS7_SIGNER_INFO_get0_algs
                0x000000004019ffec                PKCS7_RECIP_INFO_get0_alg
                0x000000004019fffe                PKCS7_add_recipient_info
                0x00000000401a006d                PKCS7_RECIP_INFO_set
                0x00000000401a0206                PKCS7_add_recipient
                0x00000000401a0266                PKCS7_cert_from_signer_info
                0x00000000401a02aa                PKCS7_set_cipher
                0x00000000401a0344                PKCS7_stream
                0x00000000401a040a                ERR_load_PKCS7_strings
                0x00000000401a043f                ERR_load_RAND_strings
                0x00000000401a0480                DES_random_key
                0x00000000401a04c0                RAND_set_rand_method
                0x00000000401a04d2                RAND_get_rand_method
                0x00000000401a04fd                RAND_cleanup
                0x00000000401a0523                RAND_seed
                0x00000000401a054f                RAND_add
                0x00000000401a058e                RAND_bytes
                0x00000000401a05c9                RAND_pseudo_bytes
                0x00000000401a0604                RAND_status
                0x00000000401a062b                RC2_encrypt
                0x00000000401a077e                RC2_decrypt
                0x00000000401a08e2                RC2_cbc_encrypt
                0x00000000401a0f0a                RC2_ecb_encrypt
                0x00000000401a0fd1                RC2_set_key
                0x00000000401a1100                RC2_cfb64_encrypt
                0x00000000401a1315                RC2_ofb64_encrypt
                0x00000000401a14c8                RC4
                0x00000000401a1923                RC4_options
                0x00000000401a192e                RC4_set_key
                0x00000000401a1a31                RIPEMD160_Init
                0x00000000401a1a7a                ripemd160_block_data_order
                0x00000000401a311b                RIPEMD160_Update
                0x00000000401a3237                RIPEMD160_Transform
                0x00000000401a3247                RIPEMD160_Final
                0x00000000401a3366                d2i_RSAPrivateKey
                0x00000000401a3376                i2d_RSAPrivateKey
                0x00000000401a3386                d2i_RSAPublicKey
                0x00000000401a3396                i2d_RSAPublicKey
                0x00000000401a33a6                RSAPublicKey_dup
                0x00000000401a33b9                RSAPrivateKey_dup
                0x00000000401a33cc                RSA_generate_key
                0x00000000401a348e                ERR_load_RSA_strings
                0x00000000401a34d0                RSA_generate_key_ex
                0x00000000401a3ad9                RSA_set_default_method
                0x00000000401a3ae6                RSA_get_default_method
                0x00000000401a3b11                RSA_get_method
                0x00000000401a3b1b                RSA_set_method
                0x00000000401a3b54                RSA_new_method
                0x00000000401a3cab                RSA_new
                0x00000000401a3cbb                RSA_free
                0x00000000401a3dcb                RSA_up_ref
                0x00000000401a3df8                RSA_get_ex_new_index
                0x00000000401a3e17                RSA_set_ex_data
                0x00000000401a3e26                RSA_get_ex_data
                0x00000000401a3e35                RSA_size
                0x00000000401a3e50                RSA_public_encrypt
                0x00000000401a3e5d                RSA_private_encrypt
                0x00000000401a3e6a                RSA_private_decrypt
                0x00000000401a3e77                RSA_public_decrypt
                0x00000000401a3e84                RSA_flags
                0x00000000401a3e9d                RSA_blinding_off
                0x00000000401a3ed7                RSA_setup_blinding
                0x00000000401a4173                RSA_blinding_on
                0x00000000401a41c2                RSA_memory_lock
                0x00000000401a4310                RSA_sign
                0x00000000401a456a                int_rsa_verify
                0x00000000401a4907                RSA_verify
                0x00000000401a4950                DES_set_odd_parity
                0x00000000401a4973                DES_check_key_parity
                0x00000000401a49bb                DES_is_weak_key
                0x00000000401a4a0c                DES_set_key_unchecked
                0x00000000401a4cac                DES_set_key_checked
                0x00000000401a4cfa                DES_set_key
                0x00000000401a4d1c                DES_key_sched
                0x00000000401a4d27                SHA1
                0x00000000401a5f4e                SHA1_Update
                0x00000000401a606a                SHA1_Transform
                0x00000000401a607a                SHA1_Final
                0x00000000401a615d                SHA1_Init
                0x00000000401a793e                SHA224_Init
                0x00000000401a79a3                SHA256_Init
                0x00000000401a7a08                SHA256_Update
                0x00000000401a7b24                SHA224_Update
                0x00000000401a7b2f                SHA256_Transform
                0x00000000401a7b3f                SHA256_Final
                0x00000000401a7c7b                SHA224
                0x00000000401a7ce9                SHA256
                0x00000000401a7d57                SHA224_Final
                0x00000000401a94a3                SHA384_Init
                0x00000000401a9541                SHA512_Init
                0x00000000401a95df                SHA512_Final
                0x00000000401a9847                SHA384_Final
                0x00000000401a9852                SHA512_Update
                0x00000000401a994b                SHA384_Update
                0x00000000401a9956                SHA512_Transform
                0x00000000401a9966                SHA384
                0x00000000401a99da                SHA512
                0x00000000401aaaa4                SHA_Update
                0x00000000401aabc0                SHA_Transform
                0x00000000401aabd0                SHA_Final
                0x00000000401aacb3                SHA_Init
                0x00000000401aad00                sk_set_cmp_func
                0x00000000401aad1a                sk_new
                0x00000000401aadac                sk_new_null
                0x00000000401aadbc                sk_insert
                0x00000000401aae72                sk_delete
                0x00000000401aaed0                sk_delete_ptr
                0x00000000401aaf1e                sk_push
                0x00000000401aaf2b                sk_unshift
                0x00000000401aaf3b                sk_shift
                0x00000000401aaf63                sk_pop
                0x00000000401aaf8a                sk_zero
                0x00000000401aafbf                sk_free
                0x00000000401aafed                sk_dup
                0x00000000401ab083                sk_pop_free
                0x00000000401ab0d5                sk_num
                0x00000000401ab0e9                sk_value
                0x00000000401ab11a                sk_set
                0x00000000401ab14e                sk_sort
                0x00000000401ab238                sk_find
                0x00000000401ab248                sk_find_ex
                0x00000000401ab258                sk_is_sorted
                0x00000000401ab715                ASN1_tag2bit
                0x00000000401ab730                asn1_ex_c2i
                0x00000000401abf70                ASN1_item_ex_d2i
                0x00000000401ac916                ASN1_item_d2i
                0x00000000401ace8d                ASN1_template_d2i
                0x00000000401acee5                asn1_ex_i2c
                0x00000000401ad1d5                ASN1_item_ex_i2d
                0x00000000401ad636                ASN1_item_ndef_i2d
                0x00000000401ad646                ASN1_item_i2d
                0x00000000401adb03                ASN1_template_i2d
                0x00000000401adb20                ASN1_primitive_free
                0x00000000401ade3a                ASN1_item_free
                0x00000000401ade56                ASN1_item_ex_free
                0x00000000401ade66                ASN1_template_free
                0x00000000401adfa2                ASN1_primitive_new
                0x00000000401ae3cd                ASN1_item_ex_new
                0x00000000401ae3dd                ASN1_item_new
                0x00000000401ae40a                ASN1_template_new
                0x00000000401ae4ae                d2i_ASN1_INTEGER
                0x00000000401ae4be                i2d_ASN1_INTEGER
                0x00000000401ae4ce                ASN1_INTEGER_new
                0x00000000401ae4de                ASN1_INTEGER_free
                0x00000000401ae4ee                d2i_ASN1_ENUMERATED
                0x00000000401ae4fe                i2d_ASN1_ENUMERATED
                0x00000000401ae50e                ASN1_ENUMERATED_new
                0x00000000401ae51e                ASN1_ENUMERATED_free
                0x00000000401ae52e                d2i_ASN1_BIT_STRING
                0x00000000401ae53e                i2d_ASN1_BIT_STRING
                0x00000000401ae54e                ASN1_BIT_STRING_new
                0x00000000401ae55e                ASN1_BIT_STRING_free
                0x00000000401ae56e                d2i_ASN1_OCTET_STRING
                0x00000000401ae57e                i2d_ASN1_OCTET_STRING
                0x00000000401ae58e                ASN1_OCTET_STRING_new
                0x00000000401ae59e                ASN1_OCTET_STRING_free
                0x00000000401ae5ae                d2i_ASN1_NULL
                0x00000000401ae5be                i2d_ASN1_NULL
                0x00000000401ae5ce                ASN1_NULL_new
                0x00000000401ae5de                ASN1_NULL_free
                0x00000000401ae5ee                d2i_ASN1_UTF8STRING
                0x00000000401ae5fe                i2d_ASN1_UTF8STRING
                0x00000000401ae60e                ASN1_UTF8STRING_new
                0x00000000401ae61e                ASN1_UTF8STRING_free
                0x00000000401ae62e                d2i_ASN1_PRINTABLESTRING
                0x00000000401ae63e                i2d_ASN1_PRINTABLESTRING
                0x00000000401ae64e                ASN1_PRINTABLESTRING_new
                0x00000000401ae65e                ASN1_PRINTABLESTRING_free
                0x00000000401ae66e                d2i_ASN1_T61STRING
                0x00000000401ae67e                i2d_ASN1_T61STRING
                0x00000000401ae68e                ASN1_T61STRING_new
                0x00000000401ae69e                ASN1_T61STRING_free
                0x00000000401ae6ae                d2i_ASN1_IA5STRING
                0x00000000401ae6be                i2d_ASN1_IA5STRING
                0x00000000401ae6ce                ASN1_IA5STRING_new
                0x00000000401ae6de                ASN1_IA5STRING_free
                0x00000000401ae6ee                d2i_ASN1_GENERALSTRING
                0x00000000401ae6fe                i2d_ASN1_GENERALSTRING
                0x00000000401ae70e                ASN1_GENERALSTRING_new
                0x00000000401ae71e                ASN1_GENERALSTRING_free
                0x00000000401ae72e                d2i_ASN1_UTCTIME
                0x00000000401ae73e                i2d_ASN1_UTCTIME
                0x00000000401ae74e                ASN1_UTCTIME_new
                0x00000000401ae75e                ASN1_UTCTIME_free
                0x00000000401ae76e                d2i_ASN1_GENERALIZEDTIME
                0x00000000401ae77e                i2d_ASN1_GENERALIZEDTIME
                0x00000000401ae78e                ASN1_GENERALIZEDTIME_new
                0x00000000401ae79e                ASN1_GENERALIZEDTIME_free
                0x00000000401ae7ae                d2i_ASN1_VISIBLESTRING
                0x00000000401ae7be                i2d_ASN1_VISIBLESTRING
                0x00000000401ae7ce                ASN1_VISIBLESTRING_new
                0x00000000401ae7de                ASN1_VISIBLESTRING_free
                0x00000000401ae7ee                d2i_ASN1_UNIVERSALSTRING
                0x00000000401ae7fe                i2d_ASN1_UNIVERSALSTRING
                0x00000000401ae80e                ASN1_UNIVERSALSTRING_new
                0x00000000401ae81e                ASN1_UNIVERSALSTRING_free
                0x00000000401ae82e                d2i_ASN1_BMPSTRING
                0x00000000401ae83e                i2d_ASN1_BMPSTRING
                0x00000000401ae84e                ASN1_BMPSTRING_new
                0x00000000401ae85e                ASN1_BMPSTRING_free
                0x00000000401ae86e                d2i_ASN1_TYPE
                0x00000000401ae87e                i2d_ASN1_TYPE
                0x00000000401ae88e                ASN1_TYPE_new
                0x00000000401ae89e                ASN1_TYPE_free
                0x00000000401ae8ae                d2i_ASN1_PRINTABLE
                0x00000000401ae8be                i2d_ASN1_PRINTABLE
                0x00000000401ae8ce                ASN1_PRINTABLE_new
                0x00000000401ae8de                ASN1_PRINTABLE_free
                0x00000000401ae8ee                d2i_DISPLAYTEXT
                0x00000000401ae8fe                i2d_DISPLAYTEXT
                0x00000000401ae90e                DISPLAYTEXT_new
                0x00000000401ae91e                DISPLAYTEXT_free
                0x00000000401ae92e                d2i_DIRECTORYSTRING
                0x00000000401ae93e                i2d_DIRECTORYSTRING
                0x00000000401ae94e                DIRECTORYSTRING_new
                0x00000000401ae95e                DIRECTORYSTRING_free
                0x00000000401ae96e                d2i_ASN1_SEQUENCE_ANY
                0x00000000401ae97e                i2d_ASN1_SEQUENCE_ANY
                0x00000000401ae98e                d2i_ASN1_SET_ANY
                0x00000000401ae99e                i2d_ASN1_SET_ANY
                0x00000000401ae9f5                asn1_get_choice_selector
                0x00000000401aea05                asn1_set_choice_selector
                0x00000000401aea19                asn1_do_lock
                0x00000000401aea78                asn1_enc_init
                0x00000000401aea9e                asn1_enc_free
                0x00000000401aeade                asn1_enc_save
                0x00000000401aeb60                asn1_enc_restore
                0x00000000401aebd8                asn1_get_field_ptr
                0x00000000401aebf1                asn1_do_adb
                0x00000000401aecb0                ERR_load_UI_strings
                0x00000000401aece5                ERR_load_X509V3_strings
                0x00000000401aed20                X509_issuer_and_serial_hash
                0x00000000401aedf1                X509_CRL_match
                0x00000000401aee09                X509_get_issuer_name
                0x00000000401aee16                X509_get_subject_name
                0x00000000401aee23                X509_get_serialNumber
                0x00000000401aee30                X509_cmp
                0x00000000401aee7c                X509_NAME_cmp
                0x00000000401aeef9                X509_issuer_and_serial_cmp
                0x00000000401aef2d                X509_issuer_name_cmp
                0x00000000401aef46                X509_subject_name_cmp
                0x00000000401aef5f                X509_CRL_cmp
                0x00000000401aef78                X509_NAME_hash
                0x00000000401aefde                X509_issuer_name_hash
                0x00000000401aeff0                X509_subject_name_hash
                0x00000000401af002                X509_NAME_hash_old
                0x00000000401af06b                X509_issuer_name_hash_old
                0x00000000401af07d                X509_subject_name_hash_old
                0x00000000401af08f                X509_find_by_issuer_and_serial
                0x00000000401af112                X509_find_by_subject
                0x00000000401af16c                X509_get_pubkey
                0x00000000401af196                X509_get0_pubkey_bitstr
                0x00000000401af1b3                X509_check_private_key
                0x00000000401af26a                ERR_load_X509_strings
                0x00000000401af29f                X509_NAME_oneline
                0x00000000401afa82                X509_time_adj_ex
                0x00000000401afad3                X509_time_adj
                0x00000000401afae9                X509_cmp_time
                0x00000000401aff9e                X509_cmp_current_time
                0x00000000401b0b1c                X509_gmtime_adj
                0x00000000401b0b2c                X509_get_pubkey_parameters
                0x00000000401b0c63                X509_verify_cert
                0x00000000401b15ef                X509_STORE_CTX_get_ex_new_index
                0x00000000401b160e                X509_STORE_CTX_set_ex_data
                0x00000000401b1620                X509_STORE_CTX_get_ex_data
                0x00000000401b1632                X509_STORE_CTX_get_error
                0x00000000401b163e                X509_STORE_CTX_set_error
                0x00000000401b164a                X509_STORE_CTX_get_error_depth
                0x00000000401b1656                X509_STORE_CTX_get_current_cert
                0x00000000401b1663                X509_STORE_CTX_get_chain
                0x00000000401b1670                X509_STORE_CTX_get1_chain
                0x00000000401b16e1                X509_STORE_CTX_get0_current_issuer
                0x00000000401b16ee                X509_STORE_CTX_get0_current_crl
                0x00000000401b16fb                X509_STORE_CTX_get0_parent_ctx
                0x00000000401b1708                X509_STORE_CTX_set_cert
                0x00000000401b1712                X509_STORE_CTX_set_chain
                0x00000000401b171c                X509_STORE_CTX_set0_crls
                0x00000000401b1726                X509_STORE_CTX_purpose_inherit
                0x00000000401b183d                X509_STORE_CTX_set_purpose
                0x00000000401b1854                X509_STORE_CTX_set_trust
                0x00000000401b186b                X509_STORE_CTX_new
                0x00000000401b18d2                X509_STORE_CTX_init
                0x00000000401b1c34                X509_STORE_CTX_trusted_stack
                0x00000000401b1c46                X509_STORE_CTX_cleanup
                0x00000000401b1ce9                X509_STORE_CTX_free
                0x00000000401b1d09                X509_STORE_CTX_set_depth
                0x00000000401b1d18                X509_STORE_CTX_set_flags
                0x00000000401b1d27                X509_STORE_CTX_set_time
                0x00000000401b1d38                X509_STORE_CTX_set_verify_cb
                0x00000000401b1d42                X509_STORE_CTX_get0_policy_tree
                0x00000000401b1d4f                X509_STORE_CTX_get_explicit_policy
                0x00000000401b1d5b                X509_STORE_CTX_set_default
                0x00000000401b1d8c                X509_STORE_CTX_get0_param
                0x00000000401b1d96                X509_STORE_CTX_set0_param
                0x00000000401b20c0                X509_VERIFY_PARAM_free
                0x00000000401b214f                X509_VERIFY_PARAM_new
                0x00000000401b21d7                X509_VERIFY_PARAM_set1_name
                0x00000000401b220a                X509_VERIFY_PARAM_set_flags
                0x00000000401b2230                X509_VERIFY_PARAM_clear_flags
                0x00000000401b2242                X509_VERIFY_PARAM_get_flags
                0x00000000401b224c                X509_VERIFY_PARAM_set_purpose
                0x00000000401b225b                X509_VERIFY_PARAM_set_trust
                0x00000000401b226a                X509_VERIFY_PARAM_set_depth
                0x00000000401b2273                X509_VERIFY_PARAM_set_time
                0x00000000401b2281                X509_VERIFY_PARAM_add0_policy
                0x00000000401b22c3                X509_VERIFY_PARAM_set1_policies
                0x00000000401b23a1                X509_VERIFY_PARAM_inherit
                0x00000000401b24f5                X509_VERIFY_PARAM_set1
                0x00000000401b251c                X509_VERIFY_PARAM_get_depth
                0x00000000401b2525                X509_VERIFY_PARAM_add0_table
                0x00000000401b25ab                X509_VERIFY_PARAM_lookup
                0x00000000401b2601                X509_VERIFY_PARAM_table_cleanup
                0x00000000401b2634                d2i_X509_ALGOR
                0x00000000401b2644                i2d_X509_ALGOR
                0x00000000401b2654                X509_ALGOR_new
                0x00000000401b2664                X509_ALGOR_free
                0x00000000401b2674                d2i_X509_ALGORS
                0x00000000401b2684                i2d_X509_ALGORS
                0x00000000401b2694                X509_ALGOR_dup
                0x00000000401b26a7                X509_ALGOR_set0
                0x00000000401b274b                X509_ALGOR_get0
                0x00000000401b2786                X509_verify
                0x00000000401b27a4                X509_REQ_verify
                0x00000000401b27c2                NETSCAPE_SPKI_verify
                0x00000000401b27e0                X509_sign
                0x00000000401b2817                X509_REQ_sign
                0x00000000401b2842                X509_CRL_sign
                0x00000000401b2879                NETSCAPE_SPKI_sign
                0x00000000401b28a4                d2i_X509_bio
                0x00000000401b28ba                i2d_X509_bio
                0x00000000401b28d0                d2i_X509_CRL_bio
                0x00000000401b28e6                i2d_X509_CRL_bio
                0x00000000401b28fc                d2i_PKCS7_bio
                0x00000000401b2912                i2d_PKCS7_bio
                0x00000000401b2928                d2i_X509_REQ_bio
                0x00000000401b293e                i2d_X509_REQ_bio
                0x00000000401b2954                d2i_RSAPrivateKey_bio
                0x00000000401b296a                i2d_RSAPrivateKey_bio
                0x00000000401b2980                d2i_RSAPublicKey_bio
                0x00000000401b2996                d2i_RSA_PUBKEY_bio
                0x00000000401b29b1                i2d_RSAPublicKey_bio
                0x00000000401b29c7                i2d_RSA_PUBKEY_bio
                0x00000000401b29dd                d2i_DSAPrivateKey_bio
                0x00000000401b29f8                i2d_DSAPrivateKey_bio
                0x00000000401b2a0e                d2i_DSA_PUBKEY_bio
                0x00000000401b2a29                i2d_DSA_PUBKEY_bio
                0x00000000401b2a3f                d2i_EC_PUBKEY_bio
                0x00000000401b2a5a                i2d_EC_PUBKEY_bio
                0x00000000401b2a70                d2i_ECPrivateKey_bio
                0x00000000401b2a8b                i2d_ECPrivateKey_bio
                0x00000000401b2aa1                X509_pubkey_digest
                0x00000000401b2aef                X509_digest
                0x00000000401b2b08                X509_CRL_digest
                0x00000000401b2b21                X509_REQ_digest
                0x00000000401b2b3a                X509_NAME_digest
                0x00000000401b2b53                PKCS7_ISSUER_AND_SERIAL_digest
                0x00000000401b2b6c                d2i_PKCS8_bio
                0x00000000401b2b87                i2d_PKCS8_bio
                0x00000000401b2b9d                d2i_PKCS8_PRIV_KEY_INFO_bio
                0x00000000401b2bb8                i2d_PKCS8_PRIV_KEY_INFO_bio
                0x00000000401b2bce                i2d_PKCS8PrivateKeyInfo_bio
                0x00000000401b2c0b                i2d_PrivateKey_bio
                0x00000000401b2c21                d2i_PrivateKey_bio
                0x00000000401b2c3c                i2d_PUBKEY_bio
                0x00000000401b2c52                d2i_PUBKEY_bio
                0x00000000401b2c6d                d2i_X509_ATTRIBUTE
                0x00000000401b2c7d                i2d_X509_ATTRIBUTE
                0x00000000401b2c8d                X509_ATTRIBUTE_new
                0x00000000401b2c9d                X509_ATTRIBUTE_free
                0x00000000401b2cad                X509_ATTRIBUTE_dup
                0x00000000401b2cc0                X509_ATTRIBUTE_create
                0x00000000401b347d                d2i_X509_REVOKED
                0x00000000401b348d                i2d_X509_REVOKED
                0x00000000401b349d                X509_REVOKED_new
                0x00000000401b34ad                X509_REVOKED_free
                0x00000000401b34bd                d2i_X509_CRL_INFO
                0x00000000401b34cd                i2d_X509_CRL_INFO
                0x00000000401b34dd                X509_CRL_INFO_new
                0x00000000401b34ed                X509_CRL_INFO_free
                0x00000000401b34fd                d2i_X509_CRL
                0x00000000401b350d                i2d_X509_CRL
                0x00000000401b351d                X509_CRL_new
                0x00000000401b352d                X509_CRL_free
                0x00000000401b353d                X509_CRL_dup
                0x00000000401b3550                X509_CRL_add0_revoked
                0x00000000401b35bf                X509_CRL_verify
                0x00000000401b35da                X509_CRL_get0_by_serial
                0x00000000401b35fb                X509_CRL_get0_by_cert
                0x00000000401b3657                X509_CRL_set_default_method
                0x00000000401b3670                X509_CRL_METHOD_new
                0x00000000401b36bf                X509_CRL_METHOD_free
                0x00000000401b36d0                X509_CRL_set_meth_data
                0x00000000401b36da                X509_CRL_get_meth_data
                0x00000000401b36e4                d2i_X509_EXTENSION
                0x00000000401b36f4                i2d_X509_EXTENSION
                0x00000000401b3704                X509_EXTENSION_new
                0x00000000401b3714                X509_EXTENSION_free
                0x00000000401b3724                d2i_X509_EXTENSIONS
                0x00000000401b3734                i2d_X509_EXTENSIONS
                0x00000000401b3744                X509_EXTENSION_dup
                0x00000000401b3920                X509_NAME_ENTRY_free
                0x00000000401b3aef                d2i_X509_NAME_ENTRY
                0x00000000401b3aff                i2d_X509_NAME_ENTRY
                0x00000000401b3b0f                X509_NAME_ENTRY_new
                0x00000000401b400d                X509_NAME_ENTRY_dup
                0x00000000401b4020                d2i_X509_NAME
                0x00000000401b4030                i2d_X509_NAME
                0x00000000401b4040                X509_NAME_new
                0x00000000401b4050                X509_NAME_free
                0x00000000401b41f0                X509_NAME_dup
                0x00000000401b4203                X509_NAME_set
                0x00000000401b4272                d2i_X509_PUBKEY
                0x00000000401b4282                i2d_X509_PUBKEY
                0x00000000401b4292                X509_PUBKEY_new
                0x00000000401b42a2                X509_PUBKEY_free
                0x00000000401b42b2                X509_PUBKEY_set
                0x00000000401b439d                X509_PUBKEY_get
                0x00000000401b4501                d2i_PUBKEY
                0x00000000401b456c                i2d_PUBKEY
                0x00000000401b45ba                d2i_RSA_PUBKEY
                0x00000000401b463e                i2d_RSA_PUBKEY
                0x00000000401b46bd                d2i_DSA_PUBKEY
                0x00000000401b4741                i2d_DSA_PUBKEY
                0x00000000401b47c0                d2i_EC_PUBKEY
                0x00000000401b4844                i2d_EC_PUBKEY
                0x00000000401b48c3                X509_PUBKEY_set0_param
                0x00000000401b4934                X509_PUBKEY_get0_param
                0x00000000401b499f                d2i_X509_REQ_INFO
                0x00000000401b49af                i2d_X509_REQ_INFO
                0x00000000401b49bf                X509_REQ_INFO_new
                0x00000000401b49cf                X509_REQ_INFO_free
                0x00000000401b49df                d2i_X509_REQ
                0x00000000401b49ef                i2d_X509_REQ
                0x00000000401b49ff                X509_REQ_new
                0x00000000401b4a0f                X509_REQ_free
                0x00000000401b4a1f                X509_REQ_dup
                0x00000000401b4a32                d2i_X509_SIG
                0x00000000401b4a42                i2d_X509_SIG
                0x00000000401b4a52                X509_SIG_new
                0x00000000401b4a62                X509_SIG_free
                0x00000000401b4a72                d2i_NETSCAPE_SPKAC
                0x00000000401b4a82                i2d_NETSCAPE_SPKAC
                0x00000000401b4a92                NETSCAPE_SPKAC_new
                0x00000000401b4aa2                NETSCAPE_SPKAC_free
                0x00000000401b4ab2                d2i_NETSCAPE_SPKI
                0x00000000401b4ac2                i2d_NETSCAPE_SPKI
                0x00000000401b4ad2                NETSCAPE_SPKI_new
                0x00000000401b4ae2                NETSCAPE_SPKI_free
                0x00000000401b4c0e                d2i_X509_CINF
                0x00000000401b4c1e                i2d_X509_CINF
                0x00000000401b4c2e                X509_CINF_new
                0x00000000401b4c3e                X509_CINF_free
                0x00000000401b4c4e                d2i_X509
                0x00000000401b4c5e                i2d_X509
                0x00000000401b4c6e                X509_new
                0x00000000401b4c7e                X509_free
                0x00000000401b4c8e                X509_dup
                0x00000000401b4ca1                X509_get_ex_new_index
                0x00000000401b4cc0                X509_set_ex_data
                0x00000000401b4ccf                X509_get_ex_data
                0x00000000401b4cde                d2i_X509_AUX
                0x00000000401b4d40                i2d_X509_AUX
                0x00000000401b4d80                d2i_X509_CERT_AUX
                0x00000000401b4d90                i2d_X509_CERT_AUX
                0x00000000401b4da0                X509_CERT_AUX_new
                0x00000000401b4df1                X509_CERT_AUX_free
                0x00000000401b4e01                X509_alias_set1
                0x00000000401b4eae                X509_keyid_set1
                0x00000000401b4f5b                X509_alias_get0
                0x00000000401b4f9c                X509_keyid_get0
                0x00000000401b4fdd                X509_add1_trust_object
                0x00000000401b503d                X509_add1_reject_object
                0x00000000401b50a0                X509_trust_clear
                0x00000000401b50df                X509_reject_clear
                0x00000000401b5120                d2i_X509_CERT_PAIR
                0x00000000401b5130                i2d_X509_CERT_PAIR
                0x00000000401b5140                X509_CERT_PAIR_new
                0x00000000401b5150                X509_CERT_PAIR_free
                0x00000000401b5160                DES_xcbc_encrypt
                0x00000000401b58c2                ERR_load_TS_strings
                0x00000000401b58f7                ERR_load_CMS_strings
                0x00000000401b597e                OBJ_find_sigid_algs
                0x00000000401b5a02                OBJ_find_sigid_by_algs
                0x00000000401b5a8b                OBJ_add_sigid
                0x00000000401b5b90                OBJ_sigid_free
                0x00000000401b5c06                EVP_whirlpool
                0x00000000401b5c31                EVP_PKEY_meth_find
                0x00000000401b5caa                EVP_PKEY_meth_new
                0x00000000401b5dc7                EVP_PKEY_meth_free
                0x00000000401b5dde                EVP_PKEY_meth_add0
                0x00000000401b5e3c                EVP_PKEY_CTX_free
                0x00000000401b5fc2                EVP_PKEY_CTX_new
                0x00000000401b5fd2                EVP_PKEY_CTX_new_id
                0x00000000401b5fe4                EVP_PKEY_CTX_dup
                0x00000000401b60e2                EVP_PKEY_CTX_ctrl
                0x00000000401b61d6                EVP_PKEY_CTX_ctrl_str
                0x00000000401b62b8                EVP_PKEY_CTX_get_operation
                0x00000000401b62c1                EVP_PKEY_CTX_set0_keygen_info
                0x00000000401b62ce                EVP_PKEY_CTX_set_data
                0x00000000401b62d8                EVP_PKEY_CTX_get_data
                0x00000000401b62e2                EVP_PKEY_CTX_get0_pkey
                0x00000000401b62ec                EVP_PKEY_CTX_get0_peerkey
                0x00000000401b62f6                EVP_PKEY_CTX_set_app_data
                0x00000000401b6300                EVP_PKEY_CTX_get_app_data
                0x00000000401b630a                EVP_PKEY_meth_set_init
                0x00000000401b6314                EVP_PKEY_meth_set_copy
                0x00000000401b631e                EVP_PKEY_meth_set_cleanup
                0x00000000401b6328                EVP_PKEY_meth_set_paramgen
                0x00000000401b6336                EVP_PKEY_meth_set_keygen
                0x00000000401b6344                EVP_PKEY_meth_set_sign
                0x00000000401b6352                EVP_PKEY_meth_set_verify
                0x00000000401b6360                EVP_PKEY_meth_set_verify_recover
                0x00000000401b636e                EVP_PKEY_meth_set_signctx
                0x00000000401b637c                EVP_PKEY_meth_set_verifyctx
                0x00000000401b6390                EVP_PKEY_meth_set_encrypt
                0x00000000401b63a4                EVP_PKEY_meth_set_decrypt
                0x00000000401b63b8                EVP_PKEY_meth_set_derive
                0x00000000401b63cc                EVP_PKEY_meth_set_ctrl
                0x00000000401b6400                EVP_PKEY_asn1_get_count
                0x00000000401b6420                EVP_PKEY_asn1_get0
                0x00000000401b6452                EVP_PKEY_asn1_find
                0x00000000401b64fa                EVP_PKEY_asn1_find_str
                0x00000000401b6582                EVP_PKEY_asn1_add0
                0x00000000401b65e0                EVP_PKEY_asn1_get0_info
                0x00000000401b6636                EVP_PKEY_get0_asn1
                0x00000000401b6640                EVP_PKEY_asn1_copy
                0x00000000401b6708                EVP_PKEY_asn1_free
                0x00000000401b674a                EVP_PKEY_asn1_new
                0x00000000401b68b4                EVP_PKEY_asn1_add_alias
                0x00000000401b68f1                EVP_PKEY_asn1_set_public
                0x00000000401b6913                EVP_PKEY_asn1_set_private
                0x00000000401b6925                EVP_PKEY_asn1_set_param
                0x00000000401b6950                EVP_PKEY_asn1_set_free
                0x00000000401b695d                EVP_PKEY_asn1_set_ctrl
                0x00000000401b6970                EVP_PKEY_sign_init
                0x00000000401b69e3                EVP_PKEY_sign
                0x00000000401b6add                EVP_PKEY_verify_init
                0x00000000401b6b50                EVP_PKEY_verify
                0x00000000401b6bc1                EVP_PKEY_verify_recover_init
                0x00000000401b6c34                EVP_PKEY_verify_recover
                0x00000000401b6d2e                EVP_PKEY_encrypt_init
                0x00000000401b6da7                EVP_PKEY_encrypt
                0x00000000401b6eaa                EVP_PKEY_decrypt_init
                0x00000000401b6f23                EVP_PKEY_decrypt
                0x00000000401b7026                EVP_PKEY_derive_init
                0x00000000401b709f                EVP_PKEY_derive_set_peer
                0x00000000401b727f                EVP_PKEY_derive
                0x00000000401b74bc                ASN1_PCTX_new
                0x00000000401b7528                ASN1_PCTX_free
                0x00000000401b7533                ASN1_PCTX_get_flags
                0x00000000401b753c                ASN1_PCTX_set_flags
                0x00000000401b7545                ASN1_PCTX_get_nm_flags
                0x00000000401b754f                ASN1_PCTX_set_nm_flags
                0x00000000401b7559                ASN1_PCTX_get_cert_flags
                0x00000000401b7563                ASN1_PCTX_set_cert_flags
                0x00000000401b756d                ASN1_PCTX_get_oid_flags
                0x00000000401b7577                ASN1_PCTX_set_oid_flags
                0x00000000401b7581                ASN1_PCTX_get_str_flags
                0x00000000401b758b                ASN1_PCTX_set_str_flags
                0x00000000401b7595                asn1_template_print_ctx
                0x00000000401b7eb7                ASN1_item_print
                0x00000000401b808a                EVP_DigestSignInit
                0x00000000401b809b                EVP_DigestVerifyInit
                0x00000000401b80ac                EVP_DigestSignFinal
                0x00000000401b81f0                EVP_DigestVerifyFinal
                0x00000000401b82c0                WHIRLPOOL_Init
                0x00000000401b82da                WHIRLPOOL_BitUpdate
                0x00000000401b85e5                WHIRLPOOL_Update
                0x00000000401b86ad                WHIRLPOOL_Final
                0x00000000401b87b7                WHIRLPOOL
                0x00000000401bb9ac                DHparams_print
                0x00000000401bd7fe                whirlpool_block
                0x00000000401be31f                EVP_PKEY_paramgen_init
                0x00000000401be392                EVP_PKEY_paramgen
                0x00000000401be44b                EVP_PKEY_keygen_init
                0x00000000401be4be                EVP_PKEY_keygen
                0x00000000401be577                EVP_PKEY_CTX_set_cb
                0x00000000401be581                EVP_PKEY_CTX_get_cb
                0x00000000401be58b                evp_pkey_set_cb_translate
                0x00000000401be5a3                EVP_PKEY_CTX_get_keygen_info
                0x00000000401be5d2                EVP_PKEY_new_mac_key
                0x00000000401be749                CMS_SignedData_init
                0x00000000401be75d                cms_set1_SignerIdentifier
                0x00000000401be872                cms_SignerIdentifier_get0_signer_id
                0x00000000401be8c3                cms_SignerIdentifier_cert_cmp
                0x00000000401be942                CMS_get0_SignerInfos
                0x00000000401be95d                CMS_get0_signers
                0x00000000401be9e5                CMS_SignerInfo_set1_signer_cert
                0x00000000401bea46                CMS_SignerInfo_get0_signer_id
                0x00000000401bea55                CMS_SignerInfo_cert_cmp
                0x00000000401bea64                CMS_set1_signers_certs
                0x00000000401beb91                CMS_SignerInfo_get0_algs
                0x00000000401bebc7                CMS_SignerInfo_sign
                0x00000000401bee27                cms_SignedData_final
                0x00000000401bf05e                CMS_SignerInfo_verify
                0x00000000401bf189                cms_SignedData_init_bio
                0x00000000401bf34f                CMS_SignerInfo_verify_content
                0x00000000401bf525                CMS_add_smimecap
                0x00000000401bf57c                CMS_add_simple_smimecap
                0x00000000401bf6c0                CMS_add_standard_smimecap
                0x00000000401bf7d7                CMS_add1_signer
                0x00000000401bfd1a                CMS_get0_RecipientInfos
                0x00000000401bfd35                CMS_RecipientInfo_type
                0x00000000401bfd3d                CMS_EnvelopedData_create
                0x00000000401bfe3b                CMS_add1_recipient_cert
                0x00000000401c0032                CMS_RecipientInfo_ktri_get0_algs
                0x00000000401c0097                CMS_RecipientInfo_ktri_get0_signer_id
                0x00000000401c00d5                CMS_RecipientInfo_ktri_cert_cmp
                0x00000000401c0113                CMS_RecipientInfo_set0_pkey
                0x00000000401c0152                CMS_RecipientInfo_kekri_id_cmp
                0x00000000401c01b1                CMS_add0_recipient_key
                0x00000000401c042f                CMS_RecipientInfo_kekri_get0_id
                0x00000000401c04d6                CMS_RecipientInfo_set0_key
                0x00000000401c0519                CMS_RecipientInfo_decrypt
                0x00000000401c08ed                cms_EnvelopedData_init_bio
                0x00000000401c0d90                EC_KEY_print
                0x00000000401c0def                ECParameters_print
                0x00000000401c0e51                ECPKParameters_print
                0x00000000401c1a45                CMS_signed_get_attr_count
                0x00000000401c1a54                CMS_signed_get_attr_by_NID
                0x00000000401c1a63                CMS_signed_get_attr_by_OBJ
                0x00000000401c1a72                CMS_signed_get_attr
                0x00000000401c1a81                CMS_signed_delete_attr
                0x00000000401c1a90                CMS_signed_add1_attr
                0x00000000401c1aa8                CMS_signed_add1_attr_by_OBJ
                0x00000000401c1ac0                CMS_signed_add1_attr_by_NID
                0x00000000401c1ad8                CMS_signed_add1_attr_by_txt
                0x00000000401c1af0                CMS_signed_get0_data_by_OBJ
                0x00000000401c1aff                CMS_unsigned_get_attr_count
                0x00000000401c1b0e                CMS_unsigned_get_attr_by_NID
                0x00000000401c1b1d                CMS_unsigned_get_attr_by_OBJ
                0x00000000401c1b2c                CMS_unsigned_get_attr
                0x00000000401c1b3b                CMS_unsigned_delete_attr
                0x00000000401c1b4a                CMS_unsigned_add1_attr
                0x00000000401c1b62                CMS_unsigned_add1_attr_by_OBJ
                0x00000000401c1b7a                CMS_unsigned_add1_attr_by_NID
                0x00000000401c1b92                CMS_unsigned_add1_attr_by_txt
                0x00000000401c1baa                CMS_unsigned_get0_data_by_OBJ
                0x00000000401c1d2b                d2i_CMS_ContentInfo
                0x00000000401c1d3b                i2d_CMS_ContentInfo
                0x00000000401c1d4b                CMS_ContentInfo_new
                0x00000000401c1d5b                CMS_ContentInfo_free
                0x00000000401c1d6b                CMS_ContentInfo_print_ctx
                0x00000000401c1d7e                CMS_get0_type
                0x00000000401c1d87                CMS_get0_content
                0x00000000401c1e63                cms_content_bio
                0x00000000401c1eb3                CMS_dataInit
                0x00000000401c1fa5                CMS_dataFinal
                0x00000000401c2109                CMS_get0_eContentType
                0x00000000401c2123                CMS_set1_eContentType
                0x00000000401c2175                CMS_is_detached
                0x00000000401c2196                CMS_set_detached
                0x00000000401c2223                cms_Data_create
                0x00000000401c225d                cms_DigestAlgorithm_set
                0x00000000401c22a0                cms_DigestAlgorithm_init_bio
                0x00000000401c2399                cms_DigestAlgorithm_find_ctx
                0x00000000401c2479                CMS_add0_CertificateChoices
                0x00000000401c24f1                CMS_add0_cert
                0x00000000401c25af                CMS_add1_cert
                0x00000000401c25ea                CMS_add0_RevocationInfoChoice
                0x00000000401c2662                CMS_add0_crl
                0x00000000401c2695                CMS_add1_crl
                0x00000000401c26d0                CMS_get1_certs
                0x00000000401c2790                CMS_get1_crls
                0x00000000401c2989                cms_EncryptedContent_init_bio
                0x00000000401c2d78                cms_EncryptedContent_init
                0x00000000401c2dee                CMS_EncryptedData_set1_key
                0x00000000401c2ee2                cms_EncryptedData_init_bio
                0x00000000401c2f0a                AES_wrap_key
                0x00000000401c3034                AES_unwrap_key
                0x00000000401c318b                cms_DigestedData_create
                0x00000000401c3211                cms_DigestedData_init_bio
                0x00000000401c3224                cms_DigestedData_do_final
                0x00000000401c3338                CMS_stream
                0x00000000401c33b6                d2i_CMS_bio
                0x00000000401c33cc                i2d_CMS_bio
                0x00000000401c33e2                PEM_read_bio_CMS
                0x00000000401c3403                PEM_write_bio_CMS
                0x00000000401c3447                BIO_new_CMS
                0x00000000401c3457                i2d_CMS_bio_stream
                0x00000000401c3468                PEM_write_bio_CMS_stream
                0x00000000401c347f                SMIME_write_CMS
                0x00000000401c34fd                SMIME_read_CMS
                0x00000000401c3e19                SMIME_read_ASN1
                0x00000000401c4239                SMIME_crlf_copy
                0x00000000401c4387                i2d_ASN1_bio_stream
                0x00000000401c44f6                PEM_write_bio_ASN1_stream
                0x00000000401c456b                SMIME_write_ASN1
                0x00000000401c4c10                SMIME_text
                0x00000000401c4f44                BIO_new_NDEF
                0x00000000401c56be                BIO_f_asn1
                0x00000000401c56c9                BIO_asn1_set_prefix
                0x00000000401c56ee                BIO_asn1_get_prefix
                0x00000000401c572e                BIO_asn1_set_suffix
                0x00000000401c5753                BIO_asn1_get_suffix
                0x00000000401c57a0                chelp_snprintf
                0x00000000401c57dd                chelp_sprintf
                0x00000000401c5824                chelp_print
                0x00000000401c583c                chelp_printf
                0x00000000401c58a4                chelp_mod_64_32_32
                0x00000000401c58b9                chelp_div_64_32_32
                0x00000000401c58cc                chelp_div_64_32_64
                0x00000000401c58df                chelp_mul_64_64_64
                0x00000000401c58ec                BIO_printf
                0x00000000401c5929                BIO_snprintf
                0x00000000401c595f                chelp_abort
                0x00000000401c5972                RAND_poll
                0x00000000401c5991                InitCryptoLibrary
                0x00000000401c5a10                chelp_malloc
                0x00000000401c5a27                chelp_realloc
                0x00000000401c5a51                chelp_free
                0x00000000401c5a62                chelp_swap
                0x00000000401c5a94                chelp_qsort
                0x00000000401c5e73                chelp_bsearch
                0x00000000401c5f4a                chelp_memchr
                0x00000000401c5f8f                chelp_memmove
                0x00000000401c6016                chelp_memcmp
                0x00000000401c6086                chelp_memcpy
                0x00000000401c60b3                chelp_memset
                0x00000000401c60e0                chelp_isupper
                0x00000000401c60f3                chelp_islower
                0x00000000401c6106                chelp_toupper
                0x00000000401c6112                chelp_tolower
                0x00000000401c611e                chelp_isspace
                0x00000000401c613c                chelp_isdigit
                0x00000000401c614f                chelp_isxdigit
                0x00000000401c6172                chelp_isalpha
                0x00000000401c6188                chelp_isalnum
                0x00000000401c61a9                chelp_strtoul_ex
                0x00000000401c6393                chelp_strtol
                0x00000000401c63a3                chelp_strtoul
                0x00000000401c63b3                chelp_strcpy
                0x00000000401c63e3                chelp_strncpy
                0x00000000401c6457                chelp_strcat
                0x00000000401c649c                chelp_strcmp
                0x00000000401c6500                chelp_strncmp
                0x00000000401c6659                chelp_stricmp
                0x00000000401c6699                chelp_strchr
                0x00000000401c66d7                chelp_strrchr
                0x00000000401c6707                chelp_strlen
                0x00000000401c673b                chelp_strncasecmp
                0x00000000401c6792                decryptcfg
                0x00000000401c6811                ASN1_BIT_STRING_set
                0x00000000401c681c                i2c_ASN1_BIT_STRING
                0x00000000401c691b                c2i_ASN1_BIT_STRING
                0x00000000401c6a8e                ASN1_BIT_STRING_set_bit
                0x00000000401c6bff                ASN1_BIT_STRING_get_bit
                0x00000000401c6c55                ASN1_BIT_STRING_check
                0x00000000401c6cc0                d2i_ASN1_type_bytes
                0x00000000401c6e67                i2d_ASN1_bytes
                0x00000000401c6f0f                d2i_ASN1_bytes
                0x00000000401c755d                ASN1_d2i_bio
                0x00000000401c75c2                ASN1_item_d2i_bio
                0x00000000401c762d                ASN1_digest
                0x00000000401c76e2                ASN1_item_digest
                0x00000000401c7755                ASN1_dup
                0x00000000401c7804                ASN1_item_dup
                0x00000000401c7890                ASN1_ENUMERATED_set
                0x00000000401c79ab                ASN1_ENUMERATED_get
                0x00000000401c7a33                BN_to_ASN1_ENUMERATED
                0x00000000401c7b33                ASN1_ENUMERATED_to_BN
                0x00000000401c7ba0                ASN1_GENERALIZEDTIME_check
                0x00000000401c7e20                ASN1_GENERALIZEDTIME_set_string
                0x00000000401c7e8d                ASN1_GENERALIZEDTIME_adj
                0x00000000401c7fdc                ASN1_GENERALIZEDTIME_set
                0x00000000401c8000                ASN1_i2d_bio
                0x00000000401c80be                ASN1_item_i2d_bio
                0x00000000401c8170                ASN1_INTEGER_dup
                0x00000000401c817b                ASN1_INTEGER_cmp
                0x00000000401c81bb                i2c_ASN1_INTEGER
                0x00000000401c8358                c2i_ASN1_INTEGER
                0x00000000401c8541                d2i_ASN1_UINTEGER
                0x00000000401c86af                ASN1_INTEGER_set
                0x00000000401c87ca                ASN1_INTEGER_get
                0x00000000401c8856                BN_to_ASN1_INTEGER
                0x00000000401c896c                ASN1_INTEGER_to_BN
                0x00000000401c89d0                i2d_ASN1_OBJECT
                0x00000000401c8a63                a2d_ASN1_OBJECT
                0x00000000401c8f74                i2t_ASN1_OBJECT
                0x00000000401c8f84                i2a_ASN1_OBJECT
                0x00000000401c9056                ASN1_OBJECT_new
                0x00000000401c90c7                ASN1_OBJECT_free
                0x00000000401c9140                c2i_ASN1_OBJECT
                0x00000000401c92e8                d2i_ASN1_OBJECT
                0x00000000401c9374                ASN1_OBJECT_create
                0x00000000401c93a0                ASN1_OCTET_STRING_dup
                0x00000000401c93ab                ASN1_OCTET_STRING_cmp
                0x00000000401c93b6                ASN1_OCTET_STRING_set
                0x00000000401c93d0                ASN1_sign
                0x00000000401c9670                ASN1_item_sign
                0x00000000401ca07c                X509_NAME_print_ex
                0x00000000401ca553                ASN1_STRING_print_ex
                0x00000000401ca569                ASN1_STRING_to_UTF8
                0x00000000401ca5f0                d2i_ASN1_TIME
                0x00000000401ca600                i2d_ASN1_TIME
                0x00000000401ca610                ASN1_TIME_new
                0x00000000401ca620                ASN1_TIME_free
                0x00000000401ca630                ASN1_TIME_adj
                0x00000000401ca6e5                ASN1_TIME_set
                0x00000000401ca6fa                ASN1_TIME_check
                0x00000000401ca71e                ASN1_TIME_to_generalizedtime
                0x00000000401ca826                ASN1_TIME_set_string
                0x00000000401ca8a0                ASN1_TYPE_get
                0x00000000401ca8b9                ASN1_TYPE_set
                0x00000000401ca912                ASN1_TYPE_set1
                0x00000000401ca990                ASN1_TYPE_cmp
                0x00000000401ca9f0                ASN1_UTCTIME_check
                0x00000000401cac1c                ASN1_UTCTIME_set_string
                0x00000000401cac89                ASN1_UTCTIME_adj
                0x00000000401cae03                ASN1_UTCTIME_set
                0x00000000401cae18                ASN1_UTCTIME_cmp_time_t
                0x00000000401cafa0                UTF8_getc
                0x00000000401cb300                UTF8_putc
                0x00000000401cb570                ASN1_verify
                0x00000000401cb6ce                ASN1_item_verify
                0x00000000401cb8c0                AES_cbc_encrypt
                0x00000000401cb8e3                AES_cfb128_encrypt
                0x00000000401cb901                AES_cfb1_encrypt
                0x00000000401cb91f                AES_cfb8_encrypt
                0x00000000401cb940                AES_ecb_encrypt
                0x00000000401cb957                AES_ofb128_encrypt
                0x00000000401cb96e                ERR_load_ASN1_strings
                0x00000000401cba44                ASN1_check_infinite_end
                0x00000000401cba4f                ASN1_const_check_infinite_end
                0x00000000401cba5a                ASN1_get_object
                0x00000000401cbbfe                ASN1_put_object
                0x00000000401cbd2d                ASN1_put_eoc
                0x00000000401cbd49                ASN1_object_size
                0x00000000401cbd7d                asn1_Finish
                0x00000000401cbd88                asn1_const_Finish
                0x00000000401cbd93                asn1_GetSequence
                0x00000000401cbe30                ASN1_STRING_set
                0x00000000401cbf1c                ASN1_STRING_copy
                0x00000000401cbf5b                ASN1_STRING_set0
                0x00000000401cbf91                ASN1_STRING_type_new
                0x00000000401cbffb                ASN1_STRING_new
                0x00000000401cc00b                ASN1_STRING_free
                0x00000000401cc03f                ASN1_STRING_dup
                0x00000000401cc090                ASN1_STRING_cmp
                0x00000000401cc0c9                asn1_add_error
                0x00000000401cc131                ASN1_STRING_length
                0x00000000401cc139                ASN1_STRING_length_set
                0x00000000401cc141                ASN1_STRING_type
                0x00000000401cc14a                ASN1_STRING_data
                0x00000000401cc160                ASN1_tag2str
                0x00000000401ccd29                ASN1_parse
                0x00000000401ccd55                ASN1_parse_dump
                0x00000000401ccd94                BIO_dump_indent_cb
                0x00000000401cd18c                BIO_dump_cb
                0x00000000401cd19d                BIO_dump
                0x00000000401cd1b5                BIO_dump_indent
                0x00000000401cdb88                BIO_f_buffer
                0x00000000401cdba0                BF_cfb64_encrypt
                0x00000000401cdd89                BF_options
                0x00000000401cdd94                BF_ecb_encrypt
                0x00000000401cde43                BF_encrypt
                0x00000000401ce241                BF_decrypt
                0x00000000401ce63f                BF_cbc_encrypt
                0x00000000401cebf2                BF_ofb64_encrypt
                0x00000000401ced82                BF_set_key
                0x00000000401cfb14                BIO_f_base64
                0x00000000401d01d2                BIO_f_cipher
                0x00000000401d01dd                BIO_set_cipher
                0x00000000401d0280                ERR_load_BIO_strings
                0x00000000401d0617                BIO_f_md
                0x00000000401d0630                BN_uadd
                0x00000000401d0776                BN_usub
                0x00000000401d097d                BN_add
                0x00000000401d0a0a                BN_sub
                0x00000000401d0aef                bn_mul_add_words
                0x00000000401d0d3a                bn_mul_words
                0x00000000401d0f46                bn_sqr_words
                0x00000000401d1088                bn_div_words
                0x00000000401d11b7                bn_add_words
                0x00000000401d12a9                bn_sub_words
                0x00000000401d13ba                bn_mul_comba8
                0x00000000401d2d7c                bn_mul_comba4
                0x00000000401d33d1                bn_sqr_comba8
                0x00000000401d44ce                bn_sqr_comba4
                0x00000000401d4900                BN_BLINDING_free
                0x00000000401d4957                BN_BLINDING_new
                0x00000000401d4a31                BN_BLINDING_invert_ex
                0x00000000401d4a8e                BN_BLINDING_invert
                0x00000000401d4aa4                BN_BLINDING_get_thread_id
                0x00000000401d4aae                BN_BLINDING_set_thread_id
                0x00000000401d4ab8                BN_BLINDING_thread_id
                0x00000000401d4ac2                BN_BLINDING_get_flags
                0x00000000401d4acc                BN_BLINDING_set_flags
                0x00000000401d4ad6                BN_BLINDING_create_param
                0x00000000401d4c67                BN_BLINDING_update
                0x00000000401d4d59                BN_BLINDING_convert_ex
                0x00000000401d4e13                BN_BLINDING_convert
                0x00000000401d4e29                BN_CTX_init
                0x00000000401d4ea4                BN_CTX_new
                0x00000000401d4f39                BN_CTX_free
                0x00000000401d4fbb                BN_CTX_start
                0x00000000401d508b                BN_CTX_end
                0x00000000401d50fa                BN_CTX_get
                0x00000000401d5241                BN_div
                0x00000000401d5cb9                ERR_load_BN_strings
                0x00000000401d5dce                BN_exp
                0x00000000401d5f55                BN_mod_exp_recp
                0x00000000401d6414                BN_mod_exp_mont_consttime
                0x00000000401d69e1                BN_mod_exp_mont
                0x00000000401d6f9f                BN_mod_exp_mont_word
                0x00000000401d7423                BN_mod_exp
                0x00000000401d7471                BN_mod_exp_simple
                0x00000000401d7910                BN_gcd
                0x00000000401d7b25                BN_mod_inverse
                0x00000000401d8530                BN_nnmod
                0x00000000401d8586                BN_mod_add
                0x00000000401d85c1                BN_mod_add_quick
                0x00000000401d8600                BN_mod_sub
                0x00000000401d863b                BN_mod_sub_quick
                0x00000000401d866f                BN_mod_mul
                0x00000000401d8720                BN_mod_sqr
                0x00000000401d8763                BN_mod_lshift1
                0x00000000401d879e                BN_mod_lshift1_quick
                0x00000000401d87dd                BN_mod_lshift_quick
                0x00000000401d88ca                BN_mod_lshift
                0x00000000401d8cbe                BN_mod_mul_montgomery
                0x00000000401d8d6c                BN_from_montgomery
                0x00000000401d8de4                BN_MONT_CTX_init
                0x00000000401d8e2d                BN_MONT_CTX_new
                0x00000000401d8e6b                BN_MONT_CTX_free
                0x00000000401d8eac                BN_MONT_CTX_set
                0x00000000401d9096                BN_MONT_CTX_copy
                0x00000000401d9116                BN_MONT_CTX_set_locked
                0x00000000401d9200                bn_sub_part_words
                0x00000000401d9458                bn_add_part_words
                0x00000000401d97d5                bn_mul_normal
                0x00000000401d9911                bn_mul_recursive
                0x00000000401d9d95                bn_mul_high
                0x00000000401da235                bn_mul_part_recursive
                0x00000000401da6fd                BN_mul
                0x00000000401daa30                bn_mul_low_normal
                0x00000000401dab01                bn_mul_low_recursive
                0x00000000401dad29                BN_GENCB_call
                0x00000000401dad79                BN_is_prime_fasttest_ex
                0x00000000401db278                BN_generate_prime_ex
                0x00000000401db850                BN_is_prime_ex
                0x00000000401db863                BN_RECP_CTX_init
                0x00000000401db892                BN_RECP_CTX_new
                0x00000000401db8d0                BN_RECP_CTX_free
                0x00000000401db904                BN_RECP_CTX_set
                0x00000000401db94c                BN_reciprocal
                0x00000000401db9db                BN_div_recp
                0x00000000401dbc81                BN_mod_mul_reciprocal
                0x00000000401dbd3a                BN_lshift1
                0x00000000401dbe04                BN_rshift1
                0x00000000401dbedb                BN_lshift
                0x00000000401dc03e                BN_rshift
                0x00000000401dc1c0                bn_sqr_normal
                0x00000000401dc29e                bn_sqr_recursive
                0x00000000401dc45a                BN_sqr
                0x00000000401dc716                BIO_s_null
                0x00000000401dc721                ERR_load_BUF_strings
                0x00000000401dc760                CAST_cfb64_encrypt
                0x00000000401dc949                CAST_ecb_encrypt
                0x00000000401dc9f8                CAST_encrypt
                0x00000000401dce60                CAST_decrypt
                0x00000000401dd2af                CAST_cbc_encrypt
                0x00000000401dd862                CAST_ofb64_encrypt
                0x00000000401dd9f2                CAST_set_key
                0x00000000401de470                DES_ede3_cfb64_encrypt
                0x00000000401de6a4                DES_ede3_cfb_encrypt
                0x00000000401deeb6                DES_cfb64_encrypt
                0x00000000401df0db                DES_cfb_encrypt
                0x00000000401df709                ERR_load_COMP_strings
                0x00000000401df73e                ERR_load_CONF_strings
                0x00000000401df773                ERR_load_CRYPTO_strings
                0x00000000401df7a8                d2i_PrivateKey
                0x00000000401df908                d2i_AutoPrivateKey
                0x00000000401dfa64                d2i_DHparams
                0x00000000401dfa74                i2d_DHparams
                0x00000000401dfa84                DHparams_dup
                0x00000000401dfaa0                DH_check
                0x00000000401dfbcb                DH_check_pub_key
                0x00000000401dfc5b                ERR_load_DH_strings
                0x00000000401dfc90                DH_generate_parameters_ex
                0x00000000401dfe8d                EVP_MD_CTX_init
                0x00000000401dfea2                EVP_MD_CTX_create
                0x00000000401dfed9                EVP_DigestInit_ex
                0x00000000401dffb8                EVP_DigestInit
                0x00000000401dffdf                EVP_DigestUpdate
                0x00000000401dffeb                EVP_DigestFinal_ex
                0x00000000401e007c                EVP_MD_CTX_cleanup
                0x00000000401e0119                EVP_DigestFinal
                0x00000000401e013b                EVP_MD_CTX_copy_ex
                0x00000000401e0278                EVP_MD_CTX_copy
                0x00000000401e029a                EVP_Digest
                0x00000000401e0332                EVP_MD_CTX_destroy
                0x00000000401e040d                d2i_DSA_SIG
                0x00000000401e041d                i2d_DSA_SIG
                0x00000000401e042d                DSA_SIG_new
                0x00000000401e043d                DSA_SIG_free
                0x00000000401e044d                d2i_DSAPrivateKey
                0x00000000401e045d                i2d_DSAPrivateKey
                0x00000000401e046d                d2i_DSAparams
                0x00000000401e047d                i2d_DSAparams
                0x00000000401e048d                d2i_DSAPublicKey
                0x00000000401e049d                i2d_DSAPublicKey
                0x00000000401e04ad                DSAparams_dup
                0x00000000401e04c0                ERR_load_DSA_strings
                0x00000000401e0500                dsa_builtin_paramgen
                0x00000000401e0dc7                DSA_generate_parameters_ex
                0x00000000401e0e60                DSA_generate_key
                0x00000000401e0fbc                DSA_set_default_method
                0x00000000401e0fc9                DSA_get_default_method
                0x00000000401e0ff4                DSA_set_method
                0x00000000401e102d                DSA_new_method
                0x00000000401e1139                DSA_new
                0x00000000401e1149                DSA_free
                0x00000000401e1218                DSA_up_ref
                0x00000000401e1245                DSA_size
                0x00000000401e129a                DSA_get_ex_new_index
                0x00000000401e12b9                DSA_set_ex_data
                0x00000000401e12c8                DSA_get_ex_data
                0x00000000401e12d7                DSA_dup_DH
                0x00000000401e1c87                DSA_OpenSSL
                0x00000000401e1c92                DSA_do_sign
                0x00000000401e1c9f                DSA_sign
                0x00000000401e1d15                DSA_sign_setup
                0x00000000401e1d22                DSA_do_verify
                0x00000000401e1d2f                DSA_verify
                0x00000000401e1da9                ERR_load_DSO_strings
                0x00000000401e2703                EC_GROUP_get_basis_type
                0x00000000401e276a                EC_GROUP_get_trinomial_basis
                0x00000000401e27ec                EC_GROUP_get_pentanomial_basis
                0x00000000401e28af                X9_62_PENTANOMIAL_new
                0x00000000401e28bf                X9_62_PENTANOMIAL_free
                0x00000000401e28cf                X9_62_CHARACTERISTIC_TWO_new
                0x00000000401e28df                X9_62_CHARACTERISTIC_TWO_free
                0x00000000401e28ef                ECPARAMETERS_new
                0x00000000401e28ff                ECPARAMETERS_free
                0x00000000401e290f                d2i_ECPKPARAMETERS
                0x00000000401e291f                i2d_ECPKPARAMETERS
                0x00000000401e292f                ECPKPARAMETERS_new
                0x00000000401e293f                ECPKPARAMETERS_free
                0x00000000401e3529                d2i_EC_PRIVATEKEY
                0x00000000401e3539                i2d_EC_PRIVATEKEY
                0x00000000401e3549                EC_PRIVATEKEY_new
                0x00000000401e3559                EC_PRIVATEKEY_free
                0x00000000401e3569                d2i_ECPKParameters
                0x00000000401e3624                i2d_ECPKParameters
                0x00000000401e36b6                d2i_ECPrivateKey
                0x00000000401e396d                i2d_ECPrivateKey
                0x00000000401e3ce9                i2d_ECParameters
                0x00000000401e3d21                d2i_ECParameters
                0x00000000401e3e10                o2i_ECPublicKey
                0x00000000401e3f00                i2o_ECPublicKey
                0x00000000401e4060                EC_GROUP_new_by_curve_name
                0x00000000401e4572                EC_get_builtin_curves
                0x00000000401e45c3                EC_GROUP_new_curve_GFp
                0x00000000401e46b1                EC_GROUP_new_curve_GF2m
                0x00000000401e4724                ERR_load_EC_strings
                0x00000000401e4760                EC_KEY_new
                0x00000000401e47e0                EC_KEY_free
                0x00000000401e4862                EC_KEY_new_by_curve_name
                0x00000000401e48a8                EC_KEY_copy
                0x00000000401e4a4f                EC_KEY_dup
                0x00000000401e4a96                EC_KEY_up_ref
                0x00000000401e4ac3                EC_KEY_generate_key
                0x00000000401e4ca2                EC_KEY_check_key
                0x00000000401e4f43                EC_KEY_get0_group
                0x00000000401e4f4d                EC_KEY_set_group
                0x00000000401e4f82                EC_KEY_get0_private_key
                0x00000000401e4f8c                EC_KEY_set_private_key
                0x00000000401e4fc1                EC_KEY_get0_public_key
                0x00000000401e4fcb                EC_KEY_set_public_key
                0x00000000401e5004                EC_KEY_get_enc_flags
                0x00000000401e500d                EC_KEY_set_enc_flags
                0x00000000401e5016                EC_KEY_get_conv_form
                0x00000000401e501f                EC_KEY_set_conv_form
                0x00000000401e5037                EC_KEY_get_key_method_data
                0x00000000401e5046                EC_KEY_insert_key_method_data
                0x00000000401e50d3                EC_KEY_set_asn1_flag
                0x00000000401e50e8                EC_KEY_precompute_mult
                0x00000000401e5110                EC_GROUP_new
                0x00000000401e5228                EC_GROUP_method_of
                0x00000000401e5231                EC_METHOD_get_field_type
                0x00000000401e5239                EC_GROUP_get0_generator
                0x00000000401e5243                EC_GROUP_get_order
                0x00000000401e5278                EC_GROUP_get_cofactor
                0x00000000401e52ad                EC_GROUP_set_curve_name
                0x00000000401e52b6                EC_GROUP_get_curve_name
                0x00000000401e52bf                EC_GROUP_set_asn1_flag
                0x00000000401e52c8                EC_GROUP_get_asn1_flag
                0x00000000401e52d1                EC_GROUP_set_point_conversion_form
                0x00000000401e52da                EC_GROUP_get_point_conversion_form
                0x00000000401e52e3                EC_GROUP_set_seed
                0x00000000401e5368                EC_GROUP_get0_seed
                0x00000000401e5372                EC_GROUP_get_seed_len
                0x00000000401e537c                EC_GROUP_set_curve_GFp
                0x00000000401e53b6                EC_GROUP_get_curve_GFp
                0x00000000401e53f1                EC_GROUP_set_curve_GF2m
                0x00000000401e542b                EC_GROUP_get_curve_GF2m
                0x00000000401e5465                EC_GROUP_get_degree
                0x00000000401e54a1                EC_GROUP_check_discriminant
                0x00000000401e54db                EC_EX_DATA_set_data
                0x00000000401e55ac                EC_EX_DATA_get_data
                0x00000000401e55e5                EC_EX_DATA_free_data
                0x00000000401e5634                EC_EX_DATA_clear_free_data
                0x00000000401e5683                EC_EX_DATA_free_all_data
                0x00000000401e56cf                EC_EX_DATA_clear_free_all_data
                0x00000000401e571b                EC_POINT_new
                0x00000000401e57ee                EC_POINT_free
                0x00000000401e581c                EC_GROUP_free
                0x00000000401e5881                EC_POINT_clear_free
                0x00000000401e58c9                EC_GROUP_clear_free
                0x00000000401e5955                EC_POINT_copy
                0x00000000401e59c1                EC_GROUP_copy
                0x00000000401e5bcd                EC_GROUP_dup
                0x00000000401e5c21                EC_GROUP_set_generator
                0x00000000401e5cf7                EC_POINT_dup
                0x00000000401e5d4b                EC_POINT_method_of
                0x00000000401e5d54                EC_POINT_set_to_infinity
                0x00000000401e5db6                EC_POINT_set_Jprojective_coordinates_GFp
                0x00000000401e5e1c                EC_POINT_get_Jprojective_coordinates_GFp
                0x00000000401e5e82                EC_POINT_set_affine_coordinates_GFp
                0x00000000401e5eeb                EC_POINT_set_affine_coordinates_GF2m
                0x00000000401e5f54                EC_POINT_get_affine_coordinates_GFp
                0x00000000401e5fc1                EC_POINT_get_affine_coordinates_GF2m
                0x00000000401e602a                EC_POINT_set_compressed_coordinates_GFp
                0x00000000401e6093                EC_POINT_set_compressed_coordinates_GF2m
                0x00000000401e60fc                EC_POINT_point2oct
                0x00000000401e6165                EC_POINT_oct2point
                0x00000000401e61d1                EC_POINT_add
                0x00000000401e6244                EC_POINT_dbl
                0x00000000401e62b1                EC_POINT_invert
                0x00000000401e631b                EC_POINT_is_at_infinity
                0x00000000401e6381                EC_POINT_is_on_curve
                0x00000000401e63e9                EC_POINT_cmp
                0x00000000401e6456                EC_GROUP_cmp
                0x00000000401e66c1                EC_POINT_make_affine
                0x00000000401e6729                EC_POINTs_make_affine
                0x00000000401e67b3                EC_POINTs_mul
                0x00000000401e67e5                EC_POINT_mul
                0x00000000401e681a                EC_GROUP_precompute_mult
                0x00000000401e6847                EC_GROUP_have_precompute_mult
                0x00000000401e6c7c                ec_wNAF_mul
                0x00000000401e7ac9                ec_wNAF_precompute_mult
                0x00000000401e80cb                ec_wNAF_have_precompute_mult
                0x00000000401e80f2                EC_POINT_point2bn
                0x00000000401e81ab                EC_POINT_bn2point
                0x00000000401e82ba                EC_POINT_point2hex
                0x00000000401e83d8                EC_POINT_hex2point
                0x00000000401e8437                ERR_load_ECDH_strings
                0x00000000401e846c                ECDH_compute_key
                0x00000000401e8509                ECDH_set_default_method
                0x00000000401e8516                ECDH_get_default_method
                0x00000000401e85e1                ecdh_check
                0x00000000401e863a                ECDH_set_method
                0x00000000401e8667                ECDH_get_ex_new_index
                0x00000000401e8686                ECDH_set_ex_data
                0x00000000401e86b7                ECDH_get_ex_data
                0x00000000401e8aac                ECDH_OpenSSL
                0x00000000401e8ab7                ec_GFp_mont_group_init
                0x00000000401e8ae5                ec_GFp_mont_group_finish
                0x00000000401e8b38                ec_GFp_mont_group_clear_finish
                0x00000000401e8b8b                ec_GFp_mont_group_copy
                0x00000000401e8c6f                ec_GFp_mont_field_mul
                0x00000000401e8cb8                ec_GFp_mont_field_sqr
                0x00000000401e8d01                ec_GFp_mont_field_encode
                0x00000000401e8d4e                ec_GFp_mont_group_set_curve
                0x00000000401e8eef                ec_GFp_mont_field_decode
                0x00000000401e8f32                ec_GFp_mont_field_set_to_one
                0x00000000401e8f7c                EC_GFp_mont_method
                0x00000000401e8f87                ec_GFp_nist_group_copy
                0x00000000401e8fa0                ec_GFp_nist_group_set_curve
                0x00000000401e911c                ec_GFp_nist_field_mul
                0x00000000401e91f4                ec_GFp_nist_field_sqr
                0x00000000401e92b4                EC_GFp_nist_method
                0x00000000401e92c0                ec_GFp_simple_is_at_infinity
                0x00000000401e92d0                ec_GFp_simple_group_init
                0x00000000401e9313                ec_GFp_simple_point_init
                0x00000000401e934d                ec_GFp_simple_group_finish
                0x00000000401e9381                ec_GFp_simple_point_finish
                0x00000000401e93af                ec_GFp_simple_group_clear_finish
                0x00000000401e93e3                ec_GFp_simple_point_clear_finish
                0x00000000401e9418                ec_GFp_simple_group_copy
                0x00000000401e9494                ec_GFp_simple_point_copy
                0x00000000401e94fe                ec_GFp_simple_group_get_degree
                0x00000000401e950d                ec_GFp_simple_group_set_curve
                0x00000000401e96f1                ec_GFp_simple_group_get_curve
                0x00000000401e984c                ec_GFp_simple_set_Jprojective_coordinates_GFp
                0x00000000401e9a49                ec_GFp_simple_get_Jprojective_coordinates_GFp
                0x00000000401e9baf                ec_GFp_simple_field_sqr
                0x00000000401e9bc7                ec_GFp_simple_field_mul
                0x00000000401e9be2                ec_GFp_simple_group_check_discriminant
                0x00000000401e9e23                ec_GFp_simple_point_set_to_infinity
                0x00000000401e9e43                ec_GFp_simple_point_set_affine_coordinates
                0x00000000401e9ebe                ec_GFp_simple_cmp
                0x00000000401ea18b                ec_GFp_simple_point_get_affine_coordinates
                0x00000000401ea4e1                ec_GFp_simple_invert
                0x00000000401ea51c                ec_GFp_simple_set_compressed_coordinates
                0x00000000401ea9b5                ec_GFp_simple_make_affine
                0x00000000401eaacb                ec_GFp_simple_point2oct
                0x00000000401eae34                ec_GFp_simple_is_on_curve
                0x00000000401eb15a                ec_GFp_simple_oct2point
                0x00000000401eb4cf                ec_GFp_simple_add
                0x00000000401ebbc2                ec_GFp_simple_dbl
                0x00000000401ec14c                ec_GFp_simple_points_make_affine
                0x00000000401ec6d2                EC_GFp_simple_method
                0x00000000401ec6dd                ERR_load_ECDSA_strings
                0x00000000401ec759                ECDSA_set_default_method
                0x00000000401ec766                ECDSA_get_default_method
                0x00000000401ec831                ecdsa_check
                0x00000000401ec88a                ECDSA_set_method
                0x00000000401ec8b7                ECDSA_size
                0x00000000401ec971                ECDSA_get_ex_new_index
                0x00000000401ec990                ECDSA_set_ex_data
                0x00000000401ec9c1                ECDSA_get_ex_data
                0x00000000401ed6f6                ECDSA_OpenSSL
                0x00000000401ed701                ECDSA_do_sign_ex
                0x00000000401ed75a                ECDSA_do_sign
                0x00000000401ed772                ECDSA_sign_ex
                0x00000000401ed7f0                ECDSA_sign
                0x00000000401ed812                ECDSA_sign_setup
                0x00000000401ed857                ECDSA_do_verify
                0x00000000401ed89f                ECDSA_verify
                0x00000000401ed920                EVP_EncodeInit
                0x00000000401ed93a                EVP_EncodeBlock
                0x00000000401eda7e                EVP_EncodeUpdate
                0x00000000401edbaa                EVP_EncodeFinal
                0x00000000401edbf5                EVP_DecodeInit
                0x00000000401edc16                EVP_DecodeBlock
                0x00000000401eddc3                EVP_DecodeUpdate
                0x00000000401ee0da                EVP_DecodeFinal
                0x00000000401ee130                EVP_set_pw_prompt
                0x00000000401ee15c                EVP_get_pw_prompt
                0x00000000401ee177                EVP_read_pw_string_min
                0x00000000401ee247                EVP_read_pw_string
                0x00000000401ee25f                EVP_BytesToKey
                0x00000000401ee53d                EVP_PBE_alg_add_type
                0x00000000401ee5ed                EVP_PBE_alg_add
                0x00000000401ee647                EVP_PBE_find
                0x00000000401ee703                EVP_PBE_CipherInit
                0x00000000401ee8d2                EVP_PBE_cleanup
                0x00000000401ee8f4                EVP_PKCS82PKEY
                0x00000000401eea37                EVP_PKEY2PKCS8_broken
                0x00000000401eeb3a                EVP_PKEY2PKCS8
                0x00000000401eeb4a                PKCS8_set_broken
                0x00000000401eeb9d                EVP_PKEY_get_attr_count
                0x00000000401eebac                EVP_PKEY_get_attr_by_NID
                0x00000000401eebbb                EVP_PKEY_get_attr_by_OBJ
                0x00000000401eebca                EVP_PKEY_get_attr
                0x00000000401eebd9                EVP_PKEY_delete_attr
                0x00000000401eebe8                EVP_PKEY_add1_attr
                0x00000000401eec00                EVP_PKEY_add1_attr_by_OBJ
                0x00000000401eec18                EVP_PKEY_add1_attr_by_NID
                0x00000000401eec30                EVP_PKEY_add1_attr_by_txt
                0x00000000401eec50                HMAC_Init_ex
                0x00000000401eee52                HMAC_Update
                0x00000000401eee61                HMAC_Final
                0x00000000401eeed8                HMAC_CTX_init
                0x00000000401eef06                HMAC_Init
                0x00000000401eef4c                HMAC_CTX_copy
                0x00000000401eefc6                HMAC_CTX_cleanup
                0x00000000401ef006                HMAC
                0x00000000401ef0c5                HMAC_CTX_set_flags
                0x00000000401ef100                i2d_PrivateKey
                0x00000000401efaf5                RAND_SSLeay
                0x00000000401efb2e                d2i_NETSCAPE_CERT_SEQUENCE
                0x00000000401efb3e                i2d_NETSCAPE_CERT_SEQUENCE
                0x00000000401efb4e                NETSCAPE_CERT_SEQUENCE_new
                0x00000000401efb5e                NETSCAPE_CERT_SEQUENCE_free
                0x00000000401efb6e                OPENSSL_gmtime
                0x00000000401efb79                OPENSSL_gmtime_adj
                0x00000000401efe19                PKCS12_PBE_add
                0x00000000401efe1f                PKCS12_PBE_keyivgen
                0x00000000401f0030                PKCS12_key_gen_uni
                0x00000000401f0547                PKCS12_key_gen_asc
                0x00000000401f0617                PKCS8_decrypt
                0x00000000401f0639                OPENSSL_asc2uni
                0x00000000401f06ce                OPENSSL_uni2asc
                0x00000000401f0754                i2d_PKCS12_bio
                0x00000000401f076a                d2i_PKCS12_bio
                0x00000000401f0780                PKCS12_x5092certbag
                0x00000000401f079a                PKCS12_x509crl2certbag
                0x00000000401f07b4                PKCS12_certbag2x509
                0x00000000401f080b                PKCS12_certbag2x509crl
                0x00000000401f0862                PKCS5_PBE_add
                0x00000000401f0868                PKCS5_PBE_keyivgen
                0x00000000401f0b48                PKCS5_PBKDF2_HMAC
                0x00000000401f0d47                PKCS5_PBKDF2_HMAC_SHA1
                0x00000000401f0da2                PKCS5_v2_PBE_keyivgen
                0x00000000401f1192                d2i_PBEPARAM
                0x00000000401f11a2                i2d_PBEPARAM
                0x00000000401f11b2                PBEPARAM_new
                0x00000000401f11c2                PBEPARAM_free
                0x00000000401f11d2                PKCS5_pbe_set0_algor
                0x00000000401f137d                PKCS5_pbe_set
                0x00000000401f1407                d2i_PBE2PARAM
                0x00000000401f1417                i2d_PBE2PARAM
                0x00000000401f1427                PBE2PARAM_new
                0x00000000401f1437                PBE2PARAM_free
                0x00000000401f1447                d2i_PBKDF2PARAM
                0x00000000401f1457                i2d_PBKDF2PARAM
                0x00000000401f1467                PBKDF2PARAM_new
                0x00000000401f1477                PBKDF2PARAM_free
                0x00000000401f1487                PKCS5_pbe2_set_iv
                0x00000000401f19a3                PKCS5_pbe2_set
                0x00000000401f19f2                d2i_PKCS8_PRIV_KEY_INFO
                0x00000000401f1a02                i2d_PKCS8_PRIV_KEY_INFO
                0x00000000401f1a12                PKCS8_PRIV_KEY_INFO_new
                0x00000000401f1a22                PKCS8_PRIV_KEY_INFO_free
                0x00000000401f1a32                PKCS8_pkey_set0
                0x00000000401f1aeb                PKCS8_pkey_get0
                0x00000000401f1b76                EVP_SignFinal
                0x00000000401f1d3d                EVP_VerifyFinal
                0x00000000401f1ee9                policy_cache_free
                0x00000000401f1f29                policy_cache_set
                0x00000000401f22b8                policy_cache_find_data
                0x00000000401f22f3                policy_data_free
                0x00000000401f2338                policy_data_new
                0x00000000401f2433                policy_cache_set_mapping
                0x00000000401f2682                X509_policy_tree_free
                0x00000000401f272e                X509_policy_check
                0x00000000401f30d1                d2i_PKCS8PrivateKey_bio
                0x00000000401f31e8                PEM_read_bio_PKCS8
                0x00000000401f3209                PEM_write_bio_PKCS8
                0x00000000401f324d                PEM_read_bio_PKCS8_PRIV_KEY_INFO
                0x00000000401f326e                PEM_write_bio_PKCS8_PRIV_KEY_INFO
                0x00000000401f349c                PEM_write_bio_PKCS8PrivateKey_nid
                0x00000000401f34cd                PEM_write_bio_PKCS8PrivateKey
                0x00000000401f34fe                i2d_PKCS8PrivateKey_bio
                0x00000000401f352f                i2d_PKCS8PrivateKey_nid_bio
                0x00000000401f3560                PKCS7_add_attrib_smimecap
                0x00000000401f35d9                PKCS7_get_smimecap
                0x00000000401f3628                PKCS7_simple_smimecap
                0x00000000401f375d                PKCS7_add_attrib_content_type
                0x00000000401f37ae                PKCS7_add0_attrib_signing_time
                0x00000000401f3811                PKCS7_add1_attrib_digest
                0x00000000401f50f2                RSA_PKCS1_SSLeay
                0x00000000401f50fd                RSA_padding_add_none
                0x00000000401f5169                RSA_padding_check_none
                0x00000000401f51d9                PKCS1_MGF1
                0x00000000401f537e                RSA_padding_check_PKCS1_OAEP
                0x00000000401f560c                RSA_padding_add_PKCS1_OAEP
                0x00000000401f5820                RSA_padding_add_PKCS1_type_1
                0x00000000401f58a6                RSA_padding_check_PKCS1_type_1
                0x00000000401f5a03                RSA_padding_add_PKCS1_type_2
                0x00000000401f5ac2                RSA_padding_check_PKCS1_type_2
                0x00000000401f5bf0                RSA_verify_PKCS1_PSS
                0x00000000401f5f7d                RSA_padding_add_PKCS1_PSS
                0x00000000401f6240                RSA_padding_add_SSLv23
                0x00000000401f6310                RSA_padding_check_SSLv23
                0x00000000401f647e                RSA_padding_add_X931
                0x00000000401f6520                RSA_padding_check_X931
                0x00000000401f663e                RSA_X931_hash_id
                0x00000000401f6683                ASN1_bn_print
                0x00000000401f6890                X509_ocspid_print
                0x00000000401f6a00                X509_signature_print
                0x00000000401f6b07                ASN1_STRING_print
                0x00000000401f6bcb                ASN1_GENERALIZEDTIME_print
                0x00000000401f6e4f                ASN1_UTCTIME_print
                0x00000000401f6fc4                ASN1_TIME_print
                0x00000000401f6ffd                X509_print_ex
                0x00000000401f7542                X509_print
                0x00000000401f7557                X509_NAME_print
                0x00000000401f764c                X509_CERT_AUX_print
                0x00000000401f7bc3                UI_free
                0x00000000401f7c02                UI_add_input_string
                0x00000000401f7c33                UI_dup_input_string
                0x00000000401f7cca                UI_add_verify_string
                0x00000000401f7cfb                UI_dup_verify_string
                0x00000000401f7d92                UI_add_input_boolean
                0x00000000401f7dbc                UI_dup_input_boolean
                0x00000000401f7f47                UI_add_info_string
                0x00000000401f7f84                UI_dup_info_string
                0x00000000401f800b                UI_add_error_string
                0x00000000401f8048                UI_dup_error_string
                0x00000000401f80cf                UI_construct_prompt
                0x00000000401f81f4                UI_add_user_data
                0x00000000401f8202                UI_get0_user_data
                0x00000000401f820c                UI_process
                0x00000000401f8343                UI_ctrl
                0x00000000401f83ca                UI_get_ex_new_index
                0x00000000401f83e9                UI_set_ex_data
                0x00000000401f83f8                UI_get_ex_data
                0x00000000401f8407                UI_set_default_method
                0x00000000401f8414                UI_get_default_method
                0x00000000401f843f                UI_new_method
                0x00000000401f84cd                UI_new
                0x00000000401f84dd                UI_get_method
                0x00000000401f84e6                UI_set_method
                0x00000000401f84f2                UI_create_method
                0x00000000401f853d                UI_destroy_method
                0x00000000401f8567                UI_method_set_opener
                0x00000000401f8582                UI_method_set_writer
                0x00000000401f859d                UI_method_set_flusher
                0x00000000401f85b8                UI_method_set_reader
                0x00000000401f85d3                UI_method_set_closer
                0x00000000401f85ee                UI_method_set_prompt_constructor
                0x00000000401f8609                UI_method_get_opener
                0x00000000401f861f                UI_method_get_writer
                0x00000000401f8635                UI_method_get_flusher
                0x00000000401f864b                UI_method_get_reader
                0x00000000401f8661                UI_method_get_closer
                0x00000000401f8677                UI_method_get_prompt_constructor
                0x00000000401f868d                UI_get_string_type
                0x00000000401f86a1                UI_get_input_flags
                0x00000000401f86b6                UI_get0_output_string
                0x00000000401f86cc                UI_get0_action_string
                0x00000000401f86f5                UI_get0_result_string
                0x00000000401f871c                UI_get0_result
                0x00000000401f879e                UI_get0_test_string
                0x00000000401f87c0                UI_get_result_minsize
                0x00000000401f87e6                UI_get_result_maxsize
                0x00000000401f880c                UI_set_result
                0x00000000401f8cd5                UI_OpenSSL
                0x00000000401f8ce0                d2i_AUTHORITY_KEYID
                0x00000000401f8cf0                i2d_AUTHORITY_KEYID
                0x00000000401f8d00                AUTHORITY_KEYID_new
                0x00000000401f8d10                AUTHORITY_KEYID_free
                0x00000000401f8fad                POLICYINFO_free
                0x00000000401f8fbd                d2i_CERTIFICATEPOLICIES
                0x00000000401f8fcd                i2d_CERTIFICATEPOLICIES
                0x00000000401f8fdd                CERTIFICATEPOLICIES_new
                0x00000000401f8fed                CERTIFICATEPOLICIES_free
                0x00000000401f8ffd                d2i_POLICYINFO
                0x00000000401f900d                i2d_POLICYINFO
                0x00000000401f901d                POLICYINFO_new
                0x00000000401f902d                d2i_POLICYQUALINFO
                0x00000000401f903d                i2d_POLICYQUALINFO
                0x00000000401f904d                POLICYQUALINFO_new
                0x00000000401f905d                POLICYQUALINFO_free
                0x00000000401f906d                d2i_USERNOTICE
                0x00000000401f907d                i2d_USERNOTICE
                0x00000000401f908d                USERNOTICE_new
                0x00000000401f909d                USERNOTICE_free
                0x00000000401f90ad                d2i_NOTICEREF
                0x00000000401f90bd                i2d_NOTICEREF
                0x00000000401f90cd                NOTICEREF_new
                0x00000000401f9a09                NOTICEREF_free
                0x00000000401f9a19                X509_POLICY_NODE_print
                0x00000000401fa02d                DIST_POINT_free
                0x00000000401fa03d                d2i_DIST_POINT_NAME
                0x00000000401fa04d                i2d_DIST_POINT_NAME
                0x00000000401fa05d                DIST_POINT_NAME_new
                0x00000000401fa265                DIST_POINT_NAME_free
                0x00000000401fa275                d2i_DIST_POINT
                0x00000000401fa285                i2d_DIST_POINT
                0x00000000401fa295                DIST_POINT_new
                0x00000000401fa54a                d2i_CRL_DIST_POINTS
                0x00000000401fa55a                i2d_CRL_DIST_POINTS
                0x00000000401fa56a                CRL_DIST_POINTS_new
                0x00000000401fa57a                CRL_DIST_POINTS_free
                0x00000000401fa58a                d2i_ISSUING_DIST_POINT
                0x00000000401fa59a                i2d_ISSUING_DIST_POINT
                0x00000000401fa5aa                ISSUING_DIST_POINT_new
                0x00000000401fa5ba                ISSUING_DIST_POINT_free
                0x00000000401fa7c6                DIST_POINT_set_dpname
                0x00000000401fa8c0                d2i_GENERAL_NAME
                0x00000000401fa8d0                i2d_GENERAL_NAME
                0x00000000401fa8e0                d2i_OTHERNAME
                0x00000000401fa8f0                i2d_OTHERNAME
                0x00000000401fa900                OTHERNAME_new
                0x00000000401fa910                OTHERNAME_free
                0x00000000401fa920                d2i_EDIPARTYNAME
                0x00000000401fa930                i2d_EDIPARTYNAME
                0x00000000401fa940                EDIPARTYNAME_new
                0x00000000401fa950                EDIPARTYNAME_free
                0x00000000401fa960                GENERAL_NAME_new
                0x00000000401fa970                GENERAL_NAME_free
                0x00000000401fa980                d2i_GENERAL_NAMES
                0x00000000401fa990                i2d_GENERAL_NAMES
                0x00000000401fa9a0                GENERAL_NAMES_new
                0x00000000401fa9b0                GENERAL_NAMES_free
                0x00000000401fa9c0                GENERAL_NAME_dup
                0x00000000401fa9d8                OTHERNAME_cmp
                0x00000000401faa1a                GENERAL_NAME_cmp
                0x00000000401faaa4                GENERAL_NAME_set0_value
                0x00000000401faadc                GENERAL_NAME_get0_value
                0x00000000401fab22                GENERAL_NAME_set0_othername
                0x00000000401fab68                GENERAL_NAME_get0_otherName
                0x00000000401fb19b                GENERAL_SUBTREE_new
                0x00000000401fb1ab                GENERAL_SUBTREE_free
                0x00000000401fb1bb                NAME_CONSTRAINTS_new
                0x00000000401fb1cb                NAME_CONSTRAINTS_free
                0x00000000401fb388                NAME_CONSTRAINTS_check
                0x00000000401fb4b2                POLICY_CONSTRAINTS_new
                0x00000000401fb4c2                POLICY_CONSTRAINTS_free
                0x00000000401fb6c9                POLICY_MAPPING_free
                0x00000000401fb6d9                POLICY_MAPPING_new
                0x00000000401fb978                X509V3_EXT_val_prn
                0x00000000401fba9f                X509V3_EXT_print
                0x00000000401fbc6d                X509V3_extensions_print
                0x00000000401fc178                X509_PURPOSE_get_count
                0x00000000401fc198                X509_PURPOSE_get0
                0x00000000401fc1d1                X509_PURPOSE_get_by_sname
                0x00000000401fc213                X509_PURPOSE_get_by_id
                0x00000000401fc254                X509_PURPOSE_set
                0x00000000401fc2a0                X509_PURPOSE_add
                0x00000000401fc45b                X509_PURPOSE_cleanup
                0x00000000401fc49f                X509_PURPOSE_get_id
                0x00000000401fc4a7                X509_PURPOSE_get0_name
                0x00000000401fc4b1                X509_PURPOSE_get0_sname
                0x00000000401fc4bb                X509_PURPOSE_get_trust
                0x00000000401fc4c4                X509_supported_extension
                0x00000000401fca0f                X509_check_purpose
                0x00000000401fcaa2                X509_check_ca
                0x00000000401fcafd                X509_check_akid
                0x00000000401fcbe0                X509_check_issued
                0x00000000401fcd58                X509V3_conf_free
                0x00000000401fce57                X509V3_add_value
                0x00000000401fcf7c                X509V3_add_value_uchar
                0x00000000401fcf87                X509V3_add_value_bool
                0x00000000401fcfa7                X509V3_add_value_bool_nf
                0x00000000401fcfc1                i2s_ASN1_ENUMERATED
                0x00000000401fd031                i2s_ASN1_INTEGER
                0x00000000401fd0a1                s2i_ASN1_INTEGER
                0x00000000401fd202                X509V3_add_value_int
                0x00000000401fd25e                X509V3_get_value_bool
                0x00000000401fd3cb                X509V3_get_value_int
                0x00000000401fd436                X509V3_parse_list
                0x00000000401fd674                hex_to_string
                0x00000000401fd72f                string_to_hex
                0x00000000401fd8ef                name_cmp
                0x00000000401fd946                X509_email_free
                0x00000000401fdaab                X509_get1_email
                0x00000000401fdaf7                X509_REQ_get1_email
                0x00000000401fdb64                X509_get1_ocsp
                0x00000000401fdc00                a2i_ipadd
                0x00000000401fdd43                a2i_IPADDRESS
                0x00000000401fdda9                a2i_IPADDRESS_NC
                0x00000000401fde8e                X509V3_NAME_from_section
                0x00000000401fdf80                X509at_get_attr_count
                0x00000000401fdf8b                X509at_get_attr_by_OBJ
                0x00000000401fe000                X509at_get_attr_by_NID
                0x00000000401fe033                X509at_get_attr
                0x00000000401fe079                X509at_delete_attr
                0x00000000401fe0bf                X509at_add1_attr
                0x00000000401fe1af                X509_ATTRIBUTE_set1_object
                0x00000000401fe1ea                X509_ATTRIBUTE_set1_data
                0x00000000401fe365                X509_ATTRIBUTE_create_by_OBJ
                0x00000000401fe431                X509at_add1_attr_by_OBJ
                0x00000000401fe472                X509_ATTRIBUTE_create_by_NID
                0x00000000401fe4fa                X509at_add1_attr_by_NID
                0x00000000401fe53b                X509_ATTRIBUTE_create_by_txt
                0x00000000401fe5e0                X509at_add1_attr_by_txt
                0x00000000401fe621                X509_ATTRIBUTE_count
                0x00000000401fe644                X509_ATTRIBUTE_get0_object
                0x00000000401fe659                X509_ATTRIBUTE_get0_type
                0x00000000401fe6a0                X509_ATTRIBUTE_get0_data
                0x00000000401fe6fa                X509at_get0_data_by_OBJ
                0x00000000401fe795                X509_CRL_get_ext_count
                0x00000000401fe7a7                X509_CRL_get_ext_by_NID
                0x00000000401fe7b9                X509_CRL_get_ext_by_OBJ
                0x00000000401fe7cb                X509_CRL_get_ext_by_critical
                0x00000000401fe7dd                X509_CRL_get_ext
                0x00000000401fe7ef                X509_CRL_delete_ext
                0x00000000401fe801                X509_CRL_get_ext_d2i
                0x00000000401fe813                X509_CRL_add1_ext_i2d
                0x00000000401fe825                X509_CRL_add_ext
                0x00000000401fe840                X509_get_ext_count
                0x00000000401fe852                X509_get_ext_by_NID
                0x00000000401fe864                X509_get_ext_by_OBJ
                0x00000000401fe876                X509_get_ext_by_critical
                0x00000000401fe888                X509_get_ext
                0x00000000401fe89a                X509_delete_ext
                0x00000000401fe8ac                X509_add_ext
                0x00000000401fe8c7                X509_get_ext_d2i
                0x00000000401fe8d9                X509_add1_ext_i2d
                0x00000000401fe8eb                X509_REVOKED_get_ext_count
                0x00000000401fe8fa                X509_REVOKED_get_ext_by_NID
                0x00000000401fe909                X509_REVOKED_get_ext_by_OBJ
                0x00000000401fe918                X509_REVOKED_get_ext_by_critical
                0x00000000401fe927                X509_REVOKED_get_ext
                0x00000000401fe936                X509_REVOKED_delete_ext
                0x00000000401fe945                X509_REVOKED_add_ext
                0x00000000401fe95d                X509_REVOKED_get_ext_d2i
                0x00000000401fe96c                X509_REVOKED_add1_ext_i2d
                0x00000000401feafa                X509_LOOKUP_new
                0x00000000401feb76                X509_LOOKUP_free
                0x00000000401febaa                X509_LOOKUP_init
                0x00000000401febd4                X509_LOOKUP_shutdown
                0x00000000401fec02                X509_LOOKUP_ctrl
                0x00000000401fec2b                X509_LOOKUP_by_subject
                0x00000000401fec62                X509_LOOKUP_by_issuer_serial
                0x00000000401fec8b                X509_LOOKUP_by_fingerprint
                0x00000000401fecb4                X509_LOOKUP_by_alias
                0x00000000401fece2                X509_STORE_new
                0x00000000401fede1                X509_STORE_free
                0x00000000401fee71                X509_STORE_add_lookup
                0x00000000401feef2                X509_OBJECT_up_ref_count
                0x00000000401fef4c                X509_OBJECT_free_contents
                0x00000000401fef74                X509_OBJECT_idx_by_subject
                0x00000000401fef84                X509_OBJECT_retrieve_by_subject
                0x00000000401fefb2                X509_STORE_get_by_subject
                0x00000000401ff0c9                X509_STORE_get1_certs
                0x00000000401ff28c                X509_STORE_get1_crls
                0x00000000401ff448                X509_OBJECT_retrieve_match
                0x00000000401ff51e                X509_STORE_add_cert
                0x00000000401ff62d                X509_STORE_add_crl
                0x00000000401ff73c                X509_STORE_CTX_get1_issuer
                0x00000000401ff8f4                X509_STORE_set_flags
                0x00000000401ff903                X509_STORE_set_depth
                0x00000000401ff917                X509_STORE_set_purpose
                0x00000000401ff926                X509_STORE_set_trust
                0x00000000401ff935                X509_STORE_set1_param
                0x00000000401ff944                X509_STORE_set_verify_cb
                0x00000000401ff950                X509_to_X509_REQ
                0x00000000401ffa51                X509_REQ_get_pubkey
                0x00000000401ffa7b                X509_REQ_check_private_key
                0x00000000401ffbb3                X509_REQ_extension_nid
                0x00000000401ffbfc                X509_REQ_get_extension_nids
                0x00000000401ffc09                X509_REQ_set_extension_nids
                0x00000000401ffc16                X509_REQ_add_extensions_nid
                0x00000000401ffd29                X509_REQ_add_extensions
                0x00000000401ffd39                X509_REQ_get_attr_count
                0x00000000401ffd4b                X509_REQ_get_attr_by_NID
                0x00000000401ffd5d                X509_REQ_get_attr_by_OBJ
                0x00000000401ffd6f                X509_REQ_get_attr
                0x00000000401ffd81                X509_REQ_get_extensions
                0x00000000401ffe7d                X509_REQ_delete_attr
                0x00000000401ffe8f                X509_REQ_add1_attr
                0x00000000401ffeaa                X509_REQ_add1_attr_by_OBJ
                0x00000000401ffec5                X509_REQ_add1_attr_by_NID
                0x00000000401ffee0                X509_REQ_add1_attr_by_txt
                0x0000000040200085                X509_TRUST_set_default
                0x0000000040200099                X509_TRUST_get_count
                0x00000000402000b9                X509_TRUST_get0
                0x00000000402000f1                X509_TRUST_get_by_id
                0x0000000040200132                X509_check_trust
                0x000000004020018b                X509_TRUST_set
                0x00000000402001d7                X509_TRUST_add
                0x0000000040200375                X509_TRUST_cleanup
                0x00000000402003b9                X509_TRUST_get_flags
                0x00000000402003c2                X509_TRUST_get0_name
                0x00000000402003cc                X509_TRUST_get_trust
                0x00000000402003e0                X509v3_get_ext_count
                0x00000000402003f6                X509v3_get_ext_by_OBJ
                0x0000000040200467                X509v3_get_ext_by_NID
                0x000000004020049a                X509v3_get_ext_by_critical
                0x0000000040200516                X509v3_get_ext
                0x000000004020055c                X509v3_delete_ext
                0x00000000402005a2                X509v3_add_ext
                0x00000000402006bb                X509_EXTENSION_set_object
                0x00000000402006f6                X509_EXTENSION_set_critical
                0x0000000040200717                X509_EXTENSION_set_data
                0x0000000040200742                X509_EXTENSION_create_by_OBJ
                0x0000000040200814                X509_EXTENSION_create_by_NID
                0x000000004020088a                X509_EXTENSION_get_object
                0x000000004020089f                X509_EXTENSION_get_data
                0x00000000402008b5                X509_EXTENSION_get_critical
                0x00000000402008e0                X509_NAME_entry_count
                0x00000000402008f9                X509_NAME_get_index_by_OBJ
                0x0000000040200970                X509_NAME_get_index_by_NID
                0x00000000402009a3                X509_NAME_get_entry
                0x00000000402009ec                X509_NAME_get_text_by_OBJ
                0x0000000040200a67                X509_NAME_get_text_by_NID
                0x0000000040200aac                X509_NAME_delete_entry
                0x0000000040200b8e                X509_NAME_add_entry
                0x0000000040200d26                X509_NAME_ENTRY_set_object
                0x0000000040200d84                X509_NAME_ENTRY_set_data
                0x0000000040200e5f                X509_NAME_ENTRY_create_by_OBJ
                0x0000000040200f0c                X509_NAME_add_entry_by_OBJ
                0x0000000040200f60                X509_NAME_ENTRY_create_by_txt
                0x0000000040201005                X509_NAME_add_entry_by_txt
                0x0000000040201059                X509_NAME_ENTRY_create_by_NID
                0x00000000402010dc                X509_NAME_add_entry_by_NID
                0x0000000040201130                X509_NAME_ENTRY_get_object
                0x0000000040201145                X509_NAME_ENTRY_get_data
                0x0000000040201160                X509_REQ_set_version
                0x000000004020117d                X509_REQ_set_subject_name
                0x00000000402011a7                X509_REQ_set_pubkey
                0x00000000402011d2                d2i_X509_VAL
                0x00000000402011e2                i2d_X509_VAL
                0x00000000402011f2                X509_VAL_new
                0x0000000040201202                X509_VAL_free
                0x0000000040201212                CRYPTO_cbc128_encrypt
                0x0000000040201358                CRYPTO_cbc128_decrypt
                0x00000000402016a4                CRYPTO_cfb128_encrypt
                0x0000000040201953                CRYPTO_cfb128_1_encrypt
                0x0000000040201a1e                CRYPTO_cfb128_8_encrypt
                0x0000000040201a89                CRYPTO_ofb128_encrypt
                0x0000000040201bc2                i2d_ASN1_BOOLEAN
                0x0000000040201c3a                d2i_ASN1_BOOLEAN
                0x0000000040201f65                ASN1_mbstring_ncopy
                0x0000000040202483                ASN1_mbstring_copy
                0x00000000402024a0                ASN1_PRINTABLE_type
                0x000000004020252f                ASN1_UNIVERSALSTRING_to_string
                0x0000000040202636                ASN1_STRING_set_default_mask
                0x0000000040202643                ASN1_STRING_get_default_mask
                0x0000000040202650                ASN1_STRING_set_default_mask_asc
                0x0000000040202717                ASN1_STRING_TABLE_get
                0x000000004020277d                ASN1_STRING_set_by_NID
                0x000000004020282d                ASN1_STRING_TABLE_add
                0x0000000040202950                ASN1_STRING_TABLE_cleanup
                0x0000000040202980                ASN1_seq_unpack
                0x00000000402029e5                ASN1_seq_pack
                0x0000000040202ad9                ASN1_unpack_string
                0x0000000040202b2c                ASN1_pack_string
                0x0000000040202c49                ASN1_item_pack
                0x0000000040202d58                ASN1_item_unpack
                0x0000000040202db0                BN_mod_exp2_mont
                0x0000000040203660                BN_kronecker
                0x000000004020393a                BN_get0_nist_prime_192
                0x0000000040203945                BN_get0_nist_prime_224
                0x0000000040203950                BN_get0_nist_prime_256
                0x000000004020395b                BN_get0_nist_prime_384
                0x0000000040203966                BN_get0_nist_prime_521
                0x0000000040203971                BN_nist_mod_192
                0x0000000040203be4                BN_nist_mod_224
                0x0000000040203f1f                BN_nist_mod_256
                0x00000000402043b4                BN_nist_mod_384
                0x000000004020494e                BN_nist_mod_521
                0x0000000040204b30                BN_mod_sqrt
                0x0000000040205473                CONF_modules_load
                0x0000000040205920                CONF_modules_finish
                0x000000004020599a                CONF_modules_unload
                0x0000000040205a4c                CONF_module_add
                0x0000000040205a6e                CONF_modules_free
                0x0000000040205a83                CONF_imodule_get_name
                0x0000000040205a8d                CONF_imodule_get_value
                0x0000000040205a97                CONF_imodule_get_usr_data
                0x0000000040205aa1                CONF_imodule_set_usr_data
                0x0000000040205aab                CONF_imodule_get_module
                0x0000000040205ab4                CONF_imodule_get_flags
                0x0000000040205abe                CONF_imodule_set_flags
                0x0000000040205ac8                CONF_module_get_usr_data
                0x0000000040205ad2                CONF_module_set_usr_data
                0x0000000040205adc                CONF_get1_default_config_file
                0x0000000040205b59                CONF_modules_load_file
                0x0000000040205c21                CONF_parse_list
                0x0000000040205d40                DSO_set_default_method
                0x0000000040205d4d                DSO_get_default_method
                0x0000000040205d5a                DSO_get_method
                0x0000000040205d63                DSO_set_method
                0x0000000040205d6f                DSO_new_method
                0x0000000040205e6d                DSO_new
                0x0000000040205e7d                DSO_free
                0x0000000040205f8f                DSO_flags
                0x0000000040205fa4                DSO_up_ref
                0x0000000040205ff6                DSO_bind_var
                0x0000000040206096                DSO_bind_func
                0x0000000040206136                DSO_ctrl
                0x00000000402061cb                DSO_set_name_converter
                0x0000000040206210                DSO_get_filename
                0x0000000040206244                DSO_set_filename
                0x0000000040206337                DSO_load
                0x00000000402064d6                DSO_merge
                0x0000000040206537                DSO_convert_filename
                0x0000000040206636                DSO_get_loaded_filename
                0x000000004020666a                DSO_pathbyaddr
                0x00000000402066d6                DSO_global_lookup
                0x000000004020672e                DSO_METHOD_openssl
                0x0000000040206740                ec_GF2m_simple_is_at_infinity
                0x0000000040206750                ec_GF2m_simple_points_make_affine
                0x00000000402067b5                ec_GF2m_simple_group_init
                0x00000000402067ee                ec_GF2m_simple_point_init
                0x0000000040206821                ec_GF2m_simple_group_finish
                0x0000000040206855                ec_GF2m_simple_point_finish
                0x0000000040206883                ec_GF2m_simple_group_clear_finish
                0x00000000402068f3                ec_GF2m_simple_point_clear_finish
                0x0000000040206928                ec_GF2m_simple_group_get_curve
                0x00000000402069a8                ec_GF2m_simple_point_copy
                0x0000000040206a12                ec_GF2m_simple_group_copy
                0x0000000040206bbb                ec_GF2m_simple_group_set_curve
                0x0000000040206d62                ec_GF2m_simple_group_get_degree
                0x0000000040206d74                ec_GF2m_simple_group_check_discriminant
                0x0000000040206e3e                ec_GF2m_simple_point_set_to_infinity
                0x0000000040206e5e                ec_GF2m_simple_point_set_affine_coordinates
                0x0000000040206f34                ec_GF2m_simple_point_get_affine_coordinates
                0x0000000040207026                ec_GF2m_simple_is_on_curve
                0x00000000402071c2                ec_GF2m_simple_set_compressed_coordinates
                0x0000000040207451                ec_GF2m_simple_cmp
                0x00000000402075eb                ec_GF2m_simple_make_affine
                0x00000000402076fe                ec_GF2m_simple_point2oct
                0x0000000040207aa8                ec_GF2m_simple_oct2point
                0x0000000040207e52                ec_GF2m_simple_add
                0x00000000402082ec                ec_GF2m_simple_dbl
                0x00000000402082fd                ec_GF2m_simple_invert
                0x000000004020835a                ec_GF2m_simple_field_mul
                0x0000000040208378                ec_GF2m_simple_field_sqr
                0x0000000040208393                ec_GF2m_simple_field_div
                0x00000000402083ae                EC_GF2m_simple_method
                0x00000000402083b9                d2i_ECDSA_SIG
                0x00000000402083c9                i2d_ECDSA_SIG
                0x00000000402083d9                ECDSA_SIG_new
                0x00000000402083e9                ECDSA_SIG_free
                0x000000004020840f                ERR_print_errors_cb
                0x0000000040208501                ERR_print_errors
                0x0000000040208514                PKCS12_item_pack_safebag
                0x0000000040208601                PKCS12_MAKE_KEYBAG
                0x0000000040208657                PKCS12_MAKE_SHKEYBAG
                0x0000000040208740                PKCS12_pack_p7data
                0x000000004020880b                PKCS12_unpack_p7data
                0x0000000040208860                PKCS12_pack_p7encdata
                0x00000000402089f6                PKCS12_unpack_p7encdata
                0x0000000040208a56                PKCS12_decrypt_skey
                0x0000000040208a65                PKCS12_pack_authsafes
                0x0000000040208a8c                PKCS12_unpack_authsafes
                0x0000000040208ae9                d2i_PKCS12
                0x0000000040208af9                i2d_PKCS12
                0x0000000040208b09                PKCS12_new
                0x0000000040208b19                PKCS12_free
                0x0000000040208b29                d2i_PKCS12_MAC_DATA
                0x0000000040208b39                i2d_PKCS12_MAC_DATA
                0x0000000040208b49                PKCS12_MAC_DATA_new
                0x0000000040208b59                PKCS12_MAC_DATA_free
                0x0000000040208b69                d2i_PKCS12_BAGS
                0x0000000040208b79                i2d_PKCS12_BAGS
                0x0000000040208b89                PKCS12_BAGS_new
                0x0000000040208b99                PKCS12_BAGS_free
                0x0000000040208ba9                d2i_PKCS12_SAFEBAG
                0x0000000040208bb9                i2d_PKCS12_SAFEBAG
                0x0000000040208bc9                PKCS12_SAFEBAG_new
                0x0000000040208bd9                PKCS12_SAFEBAG_free
                0x0000000040208be9                PKCS12_pbe_crypt
                0x0000000040208d59                PKCS12_item_decrypt_d2i
                0x0000000040208e28                PKCS12_item_i2d_encrypt
                0x0000000040208f54                PKCS8_encrypt
                0x000000004020907c                X509_policy_tree_level_count
                0x0000000040209091                X509_policy_tree_get0_level
                0x00000000402090c2                X509_policy_tree_get0_policies
                0x00000000402090d8                X509_policy_tree_get0_user_policies
                0x00000000402090fa                X509_policy_level_node_count
                0x0000000040209133                X509_policy_level_get0_node
                0x000000004020915e                X509_policy_node_get0_policy
                0x0000000040209177                X509_policy_node_get0_qualifiers
                0x0000000040209190                X509_policy_node_get0_parent
                0x00000000402091c5                policy_node_cmp_new
                0x00000000402091d5                tree_find_sk
                0x0000000040209213                level_find_node
                0x0000000040209286                level_add_node
                0x000000004020937c                policy_node_free
                0x0000000040209387                policy_node_match
                0x0000000040209592                i2v_GENERAL_NAME
                0x00000000402097fe                i2v_GENERAL_NAMES
                0x0000000040209859                GENERAL_NAME_print
                0x00000000402099f3                a2i_GENERAL_NAME
                0x0000000040209d95                v2i_GENERAL_NAME_ex
                0x0000000040209ef4                v2i_GENERAL_NAME
                0x000000004020a243                v2i_GENERAL_NAMES
                0x000000004020a331                d2i_BASIC_CONSTRAINTS
                0x000000004020a341                i2d_BASIC_CONSTRAINTS
                0x000000004020a351                BASIC_CONSTRAINTS_new
                0x000000004020a361                BASIC_CONSTRAINTS_free
                0x000000004020aad8                X509V3_EXT_nconf
                0x000000004020ab9d                X509V3_EXT_nconf_nid
                0x000000004020ac1b                X509V3_EXT_i2d
                0x000000004020ac7b                X509V3_EXT_add_nconf_sk
                0x000000004020ad21                X509V3_EXT_add_nconf
                0x000000004020ad3f                X509V3_EXT_CRL_add_nconf
                0x000000004020ad5d                X509V3_EXT_REQ_add_nconf
                0x000000004020adb6                X509V3_get_string
                0x000000004020ae01                X509V3_get_section
                0x000000004020ae51                X509V3_string_free
                0x000000004020ae70                X509V3_section_free
                0x000000004020ae8f                X509V3_set_nconf
                0x000000004020aea1                X509V3_set_ctx
                0x000000004020aeba                X509V3_EXT_conf
                0x000000004020aef9                X509V3_EXT_conf_nid
                0x000000004020af38                X509V3_set_conf_lhash
                0x000000004020af4a                X509V3_EXT_add_conf
                0x000000004020af89                X509V3_EXT_CRL_add_conf
                0x000000004020afc8                X509V3_EXT_REQ_add_conf
                0x000000004020b15b                ACCESS_DESCRIPTION_free
                0x000000004020b16b                d2i_ACCESS_DESCRIPTION
                0x000000004020b17b                i2d_ACCESS_DESCRIPTION
                0x000000004020b18b                ACCESS_DESCRIPTION_new
                0x000000004020b3af                d2i_AUTHORITY_INFO_ACCESS
                0x000000004020b3bf                i2d_AUTHORITY_INFO_ACCESS
                0x000000004020b3cf                AUTHORITY_INFO_ACCESS_new
                0x000000004020b3df                AUTHORITY_INFO_ACCESS_free
                0x000000004020b3ef                i2a_ACCESS_DESCRIPTION
                0x000000004020b442                X509V3_EXT_add
                0x000000004020b4d8                X509V3_EXT_get_nid
                0x000000004020b556                X509V3_EXT_get
                0x000000004020b574                X509V3_EXT_add_list
                0x000000004020b5af                X509V3_EXT_add_alias
                0x000000004020b6aa                X509V3_EXT_cleanup
                0x000000004020b6cc                X509V3_add_standard_extensions
                0x000000004020b6d7                X509V3_EXT_d2i
                0x000000004020b732                X509V3_get_d2i
                0x000000004020b871                X509V3_add1_i2d
                0x000000004020c812                d2i_PROXY_POLICY
                0x000000004020c822                i2d_PROXY_POLICY
                0x000000004020c832                PROXY_POLICY_new
                0x000000004020c842                PROXY_POLICY_free
                0x000000004020c852                d2i_PROXY_CERT_INFO_EXTENSION
                0x000000004020c862                i2d_PROXY_CERT_INFO_EXTENSION
                0x000000004020c872                PROXY_CERT_INFO_EXTENSION_new
                0x000000004020c882                PROXY_CERT_INFO_EXTENSION_free
                0x000000004020c928                d2i_PKEY_USAGE_PERIOD
                0x000000004020c938                i2d_PKEY_USAGE_PERIOD
                0x000000004020c948                PKEY_USAGE_PERIOD_new
                0x000000004020c958                PKEY_USAGE_PERIOD_free
                0x000000004020c968                i2s_ASN1_OCTET_STRING
                0x000000004020c97d                s2i_ASN1_OCTET_STRING
                0x000000004020cc1e                d2i_SXNETID
                0x000000004020cc2e                i2d_SXNETID
                0x000000004020cc3e                SXNETID_new
                0x000000004020cc4e                SXNETID_free
                0x000000004020cc5e                d2i_SXNET
                0x000000004020cc6e                i2d_SXNET
                0x000000004020cc7e                SXNET_new
                0x000000004020cc8e                SXNET_free
                0x000000004020cc9e                SXNET_get_id_INTEGER
                0x000000004020ccf9                SXNET_add_id_INTEGER
                0x000000004020cea9                SXNET_add_id_asc
                0x000000004020cf74                SXNET_add_id_ulong
                0x000000004020d000                SXNET_get_id_asc
                0x000000004020d060                SXNET_get_id_ulong
                0x000000004020d0e6                X509_get_default_private_dir
                0x000000004020d0f1                X509_get_default_cert_area
                0x000000004020d0fc                X509_get_default_cert_dir
                0x000000004020d107                X509_get_default_cert_file
                0x000000004020d112                X509_get_default_cert_dir_env
                0x000000004020d11d                X509_get_default_cert_file_env
                0x000000004020d165                i2d_ASN1_SET
                0x000000004020d3d6                d2i_ASN1_SET
                0x000000004020dc98                ASN1_generate_v3
                0x000000004020e5da                ASN1_generate_nconf
                0x000000004020e7dc                BN_GF2m_add
                0x000000004020e8c5                BN_GF2m_mod_arr
                0x000000004020eb79                BN_GF2m_mod_sqr_arr
                0x000000004020ed16                BN_GF2m_mod_mul_arr
                0x000000004020ef84                BN_GF2m_mod_exp_arr
                0x000000004020f0a7                BN_GF2m_mod_sqrt_arr
                0x000000004020f13e                BN_GF2m_mod_solve_quad_arr
                0x000000004020f4fb                BN_GF2m_poly2arr
                0x000000004020f596                BN_GF2m_mod
                0x000000004020f645                BN_GF2m_mod_inv
                0x000000004020f827                BN_GF2m_mod_mul
                0x000000004020f8e6                BN_GF2m_mod_div
                0x000000004020f975                BN_GF2m_mod_sqr
                0x000000004020fa2c                BN_GF2m_mod_exp
                0x000000004020faeb                BN_GF2m_mod_sqrt
                0x000000004020fba2                BN_GF2m_mod_solve_quad
                0x000000004020fc59                BN_GF2m_arr2poly
                0x000000004020fcbc                BN_GF2m_mod_inv_arr
                0x000000004020fd36                BN_GF2m_mod_div_arr
                0x000000004020fdc0                CONF_set_nconf
                0x000000004020fdf9                CONF_set_default_method
                0x000000004020fe0b                CONF_load
                0x000000004020fe35                NCONF_new
                0x000000004020fe82                NCONF_free
                0x000000004020fe94                NCONF_free_data
                0x000000004020fea6                CONF_free
                0x000000004020fec5                NCONF_load
                0x000000004020fefa                NCONF_load_bio
                0x000000004020ff2f                CONF_load_bio
                0x000000004020ff73                NCONF_get_section
                0x000000004020ffd1                CONF_get_section
                0x0000000040210009                NCONF_get_string
                0x00000000402100a5                CONF_get_string
                0x00000000402100e6                NCONF_get_number_e
                0x0000000040210183                CONF_get_number
                0x00000000402101e1                NCONF_dump_bio
                0x0000000040210216                CONF_dump_bio
                0x0000000040210241                DSO_METHOD_null
                0x0000000040210b15                ec_GF2m_simple_mul
                0x0000000040210d67                ec_GF2m_precompute_mult
                0x0000000040210d72                ec_GF2m_have_precompute_mult
                0x0000000040210d80                i2a_ASN1_INTEGER
                0x0000000040210ec6                a2i_ASN1_INTEGER
                0x00000000402111ac                i2a_ASN1_STRING
                0x00000000402112c5                a2i_ASN1_STRING
                0x0000000040211574                d2i_OCSP_SIGNATURE
                0x0000000040211584                i2d_OCSP_SIGNATURE
                0x0000000040211594                OCSP_SIGNATURE_new
                0x00000000402115a4                OCSP_SIGNATURE_free
                0x00000000402115b4                d2i_OCSP_CERTID
                0x00000000402115c4                i2d_OCSP_CERTID
                0x00000000402115d4                OCSP_CERTID_new
                0x00000000402115e4                OCSP_CERTID_free
                0x00000000402115f4                d2i_OCSP_ONEREQ
                0x0000000040211604                i2d_OCSP_ONEREQ
                0x0000000040211614                OCSP_ONEREQ_new
                0x0000000040211624                OCSP_ONEREQ_free
                0x0000000040211634                d2i_OCSP_REQINFO
                0x0000000040211644                i2d_OCSP_REQINFO
                0x0000000040211654                OCSP_REQINFO_new
                0x0000000040211664                OCSP_REQINFO_free
                0x0000000040211674                d2i_OCSP_REQUEST
                0x0000000040211684                i2d_OCSP_REQUEST
                0x0000000040211694                OCSP_REQUEST_new
                0x00000000402116a4                OCSP_REQUEST_free
                0x00000000402116b4                d2i_OCSP_RESPBYTES
                0x00000000402116c4                i2d_OCSP_RESPBYTES
                0x00000000402116d4                OCSP_RESPBYTES_new
                0x00000000402116e4                OCSP_RESPBYTES_free
                0x00000000402116f4                d2i_OCSP_RESPONSE
                0x0000000040211704                i2d_OCSP_RESPONSE
                0x0000000040211714                OCSP_RESPONSE_new
                0x0000000040211724                OCSP_RESPONSE_free
                0x0000000040211734                d2i_OCSP_RESPID
                0x0000000040211744                i2d_OCSP_RESPID
                0x0000000040211754                OCSP_RESPID_new
                0x0000000040211764                OCSP_RESPID_free
                0x0000000040211774                d2i_OCSP_REVOKEDINFO
                0x0000000040211784                i2d_OCSP_REVOKEDINFO
                0x0000000040211794                OCSP_REVOKEDINFO_new
                0x00000000402117a4                OCSP_REVOKEDINFO_free
                0x00000000402117b4                d2i_OCSP_CERTSTATUS
                0x00000000402117c4                i2d_OCSP_CERTSTATUS
                0x00000000402117d4                OCSP_CERTSTATUS_new
                0x00000000402117e4                OCSP_CERTSTATUS_free
                0x00000000402117f4                d2i_OCSP_SINGLERESP
                0x0000000040211804                i2d_OCSP_SINGLERESP
                0x0000000040211814                OCSP_SINGLERESP_new
                0x0000000040211824                OCSP_SINGLERESP_free
                0x0000000040211834                d2i_OCSP_RESPDATA
                0x0000000040211844                i2d_OCSP_RESPDATA
                0x0000000040211854                OCSP_RESPDATA_new
                0x0000000040211864                OCSP_RESPDATA_free
                0x0000000040211874                d2i_OCSP_BASICRESP
                0x0000000040211884                i2d_OCSP_BASICRESP
                0x0000000040211894                OCSP_BASICRESP_new
                0x00000000402118a4                OCSP_BASICRESP_free
                0x00000000402118b4                d2i_OCSP_CRLID
                0x00000000402118c4                i2d_OCSP_CRLID
                0x00000000402118d4                OCSP_CRLID_new
                0x00000000402118e4                OCSP_CRLID_free
                0x00000000402118f4                d2i_OCSP_SERVICELOC
                0x0000000040211904                i2d_OCSP_SERVICELOC
                0x0000000040211914                OCSP_SERVICELOC_new
                0x0000000040211924                OCSP_SERVICELOC_free
                0x0000000040211cea                i2v_ASN1_BIT_STRING
                0x0000000040211d3f                v2i_ASN1_BIT_STRING
                0x0000000040211ec0                i2s_ASN1_ENUMERATED_TABLE
                0x0000000040212087                d2i_EXTENDED_KEY_USAGE
                0x0000000040212097                i2d_EXTENDED_KEY_USAGE
                0x00000000402120a7                EXTENDED_KEY_USAGE_new
                0x00000000402120b7                EXTENDED_KEY_USAGE_free
                0x0000000040212309                _CONF_get_section
                0x0000000040212341                _CONF_get_section_values
                0x000000004021235c                _CONF_add_string
                0x00000000402123d6                _CONF_get_string
                0x000000004021246b                _CONF_new_data
                0x00000000402124b2                _CONF_free_data
                0x0000000040212503                _CONF_new_section
                0x00000000402134d0                NCONF_default
                0x00000000402134db                NCONF_WIN32
                0x00000000402134e8                codeend = .

.iplt           0x00000000402134f0        0x0 load address 0x00000000002134f0
 .iplt          0x0000000000000000        0x0 output.o

.rodata         0x0000000040213500    0x3534c load address 0x0000000000213500
 .rodata        0x0000000040213500    0x3534c output.o
                0x0000000040221b00                BN_version
                0x0000000040221de0                DES_SPtrans
                0x0000000040222de0                DH_version
                0x00000000402242c0                OSSL_DES_version
                0x0000000040224300                OSSL_libdes_version
                0x00000000402243e0                EVP_version
                0x00000000402244a0                IDEA_version
                0x00000000402244e0                lh_version
                0x0000000040224b20                MD4_version
                0x0000000040224b60                MD5_version
                0x0000000040231700                PEM_version
                0x0000000040231740                PKCS7_ATTR_VERIFY_it
                0x00000000402317c0                PKCS7_ATTR_SIGN_it
                0x0000000040231840                PKCS7_DIGEST_it
                0x0000000040231920                PKCS7_ENCRYPT_it
                0x00000000402319c0                PKCS7_SIGN_ENVELOPE_it
                0x0000000040231b20                PKCS7_ENC_CONTENT_it
                0x0000000040231be0                PKCS7_RECIP_INFO_it
                0x0000000040231d00                PKCS7_ENVELOPE_it
                0x0000000040231dc0                PKCS7_ISSUER_AND_SERIAL_it
                0x0000000040231e60                PKCS7_SIGNER_INFO_it
                0x0000000040232000                PKCS7_SIGNED_it
                0x0000000040232140                PKCS7_it
                0x00000000402324c0                RC2_version
                0x0000000040232600                RC4_version
                0x0000000040232640                RMD160_version
                0x0000000040232680                RSAPublicKey_it
                0x0000000040232760                RSAPrivateKey_it
                0x0000000040232960                RSA_version
                0x0000000040233b60                SHA1_version
                0x0000000040233ca0                SHA256_version
                0x0000000040233f60                SHA512_version
                0x0000000040233fa0                SHA_version
                0x0000000040233fe0                STACK_version
                0x0000000040234240                ASN1_SET_ANY_it
                0x00000000402342c0                ASN1_SEQUENCE_ANY_it
                0x0000000040234340                ASN1_OCTET_STRING_NDEF_it
                0x0000000040234380                ASN1_FBOOLEAN_it
                0x00000000402343c0                ASN1_TBOOLEAN_it
                0x0000000040234400                ASN1_BOOLEAN_it
                0x0000000040234440                DIRECTORYSTRING_it
                0x0000000040234480                DISPLAYTEXT_it
                0x00000000402344c0                ASN1_PRINTABLE_it
                0x0000000040234500                ASN1_SEQUENCE_it
                0x0000000040234540                ASN1_ANY_it
                0x0000000040234580                ASN1_BMPSTRING_it
                0x00000000402345c0                ASN1_UNIVERSALSTRING_it
                0x0000000040234600                ASN1_VISIBLESTRING_it
                0x0000000040234640                ASN1_GENERALIZEDTIME_it
                0x0000000040234680                ASN1_UTCTIME_it
                0x00000000402346c0                ASN1_GENERALSTRING_it
                0x0000000040234700                ASN1_IA5STRING_it
                0x0000000040234740                ASN1_T61STRING_it
                0x0000000040234780                ASN1_PRINTABLESTRING_it
                0x00000000402347c0                ASN1_UTF8STRING_it
                0x0000000040234800                ASN1_OBJECT_it
                0x0000000040234840                ASN1_NULL_it
                0x0000000040234880                ASN1_OCTET_STRING_it
                0x00000000402348c0                ASN1_BIT_STRING_it
                0x0000000040234900                ASN1_ENUMERATED_it
                0x0000000040234940                ASN1_INTEGER_it
                0x00000000402349a0                X509_version
                0x0000000040234b00                X509_ALGORS_it
                0x0000000040234b80                X509_ALGOR_it
                0x0000000040234c20                X509_ATTRIBUTE_it
                0x0000000040234cc0                X509_ATTRIBUTE_SET_it
                0x0000000040234d60                CBIGNUM_it
                0x0000000040234da0                BIGNUM_it
                0x0000000040234de0                X509_CRL_it
                0x0000000040234ee0                X509_CRL_INFO_it
                0x0000000040235080                X509_REVOKED_it
                0x0000000040235140                X509_EXTENSIONS_it
                0x00000000402351c0                X509_EXTENSION_it
                0x0000000040235280                ZLONG_it
                0x00000000402352c0                LONG_it
                0x0000000040235300                X509_NAME_it
                0x0000000040235340                x509_name_ff
                0x0000000040235380                X509_NAME_INTERNAL_it
                0x0000000040235400                X509_NAME_ENTRIES_it
                0x0000000040235480                X509_NAME_ENTRY_it
                0x0000000040235520                X509_PUBKEY_it
                0x0000000040235600                X509_REQ_it
                0x0000000040235700                X509_REQ_INFO_it
                0x0000000040235820                X509_SIG_it
                0x00000000402358c0                NETSCAPE_SPKI_it
                0x0000000040235980                NETSCAPE_SPKAC_it
                0x0000000040235a20                X509_it
                0x0000000040235b20                X509_CINF_it
                0x0000000040235d40                X509_CERT_PAIR_it
                0x0000000040235de0                X509_CERT_AUX_it
                0x0000000040236380                rsa_pkey_meth
                0x0000000040236460                dh_pkey_meth
                0x0000000040236540                dsa_pkey_meth
                0x0000000040236620                ec_pkey_meth
                0x0000000040236700                hmac_pkey_meth
                0x0000000040236820                rsa_asn1_meths
                0x00000000402369a0                dh_asn1_meth
                0x0000000040236a60                dsa_asn1_meths
                0x0000000040236e00                eckey_asn1_meth
                0x0000000040236ec0                hmac_asn1_meth
                0x0000000040238000                CMS_Receipt_it
                0x00000000402380e0                CMS_ReceiptRequest_it
                0x00000000402381a0                CMS_ReceiptsFrom_it
                0x0000000040238240                CMS_Attributes_Verify_it
                0x00000000402382c0                CMS_Attributes_Sign_it
                0x0000000040238340                CMS_ContentInfo_it
                0x0000000040238600                CMS_CompressedData_it
                0x00000000402386c0                CMS_AuthenticatedData_it
                0x0000000040238880                CMS_EncryptedData_it
                0x0000000040238940                CMS_DigestedData_it
                0x0000000040238a20                CMS_EnvelopedData_it
                0x0000000040238b40                CMS_RecipientInfo_it
                0x0000000040238ca0                CMS_OtherRecipientInfo_it
                0x0000000040238d40                CMS_PasswordRecipientInfo_it
                0x0000000040238e20                CMS_KEKRecipientInfo_it
                0x0000000040238f00                CMS_KEKIdentifier_it
                0x0000000040238fc0                CMS_KeyAgreeRecipientInfo_it
                0x00000000402390e0                CMS_OriginatorIdentifierOrKey_it
                0x00000000402391a0                CMS_OriginatorPublicKey_it
                0x0000000040239240                CMS_RecipientEncryptedKey_it
                0x00000000402392e0                CMS_KeyAgreeRecipientIdentifier_it
                0x0000000040239380                CMS_RecipientKeyIdentifier_it
                0x0000000040239440                CMS_OtherKeyAttribute_it
                0x00000000402394e0                CMS_KeyTransRecipientInfo_it
                0x00000000402395c0                CMS_EncryptedContentInfo_it
                0x0000000040239680                CMS_OriginatorInfo_it
                0x0000000040239720                CMS_SignedData_it
                0x0000000040239860                CMS_RevocationInfoChoice_it
                0x0000000040239900                CMS_OtherRevocationInfoFormat_it
                0x00000000402399a0                CMS_SignerInfo_it
                0x0000000040239b40                CMS_EncapsulatedContentInfo_it
                0x0000000040239be0                CMS_SignerIdentifier_it
                0x0000000040239c80                CMS_CertificateChoices_it
                0x0000000040239da0                CMS_OtherCertificateFormat_it
                0x0000000040239e40                CMS_IssuerAndSerialNumber_it
                0x000000004023a0c0                ASN1_TIME_it
                0x000000004023a140                ASN1_version
                0x000000004023a280                BF_version
                0x000000004023c4a0                CAST_version
                0x000000004023c560                CAST_S_table7
                0x000000004023c960                CAST_S_table6
                0x000000004023cd60                CAST_S_table5
                0x000000004023d160                CAST_S_table4
                0x000000004023d560                CAST_S_table3
                0x000000004023d960                CAST_S_table2
                0x000000004023dd60                CAST_S_table1
                0x000000004023e160                CAST_S_table0
                0x000000004023e7a0                DHparams_it
                0x000000004023e8a0                DSAPublicKey_it
                0x000000004023e980                dsa_pub_internal_it
                0x000000004023ea60                DSAparams_it
                0x000000004023eb60                DSAPrivateKey_it
                0x000000004023ece0                DSA_SIG_it
                0x000000004023edc0                DSA_version
                0x000000004023ee00                EC_PRIVATEKEY_it
                0x000000004023eee0                ECPKPARAMETERS_it
                0x000000004023efa0                ECPARAMETERS_it
                0x000000004023f0e0                X9_62_CURVE_it
                0x000000004023f1a0                X9_62_FIELDID_it
                0x000000004023f320                X9_62_CHARACTERISTIC_TWO_it
                0x000000004023f500                X9_62_PENTANOMIAL_it
                0x0000000040242f40                ECDH_version
                0x0000000040243340                ECDSA_version
                0x0000000040243640                RAND_version
                0x0000000040243680                NETSCAPE_CERT_SEQUENCE_it
                0x0000000040243760                PBEPARAM_it
                0x0000000040243800                PBKDF2PARAM_it
                0x00000000402438e0                PBE2PARAM_it
                0x0000000040243980                PKCS8_PRIV_KEY_INFO_it
                0x0000000040243b40                AUTHORITY_KEYID_it
                0x0000000040243c00                NOTICEREF_it
                0x0000000040243ca0                USERNOTICE_it
                0x0000000040243d40                POLICYQUALINFO_it
                0x0000000040243ec0                POLICYINFO_it
                0x0000000040243f60                CERTIFICATEPOLICIES_it
                0x0000000040243fe0                v3_cpols
                0x0000000040244060                v3_idp
                0x00000000402440e0                ISSUING_DIST_POINT_it
                0x0000000040244220                CRL_DIST_POINTS_it
                0x00000000402442a0                DIST_POINT_it
                0x0000000040244360                DIST_POINT_NAME_it
                0x0000000040244540                v3_freshest_crl
                0x00000000402445c0                v3_crld
                0x0000000040244720                GENERAL_NAMES_it
                0x00000000402447a0                GENERAL_NAME_it
                0x0000000040244960                EDIPARTYNAME_it
                0x0000000040244a00                OTHERNAME_it
                0x0000000040244aa0                NAME_CONSTRAINTS_it
                0x0000000040244b40                GENERAL_SUBTREE_it
                0x0000000040244c00                v3_name_constraints
                0x0000000040244c80                POLICY_CONSTRAINTS_it
                0x0000000040244d20                v3_policy_constraints
                0x0000000040244da0                POLICY_MAPPINGS_it
                0x0000000040244e20                POLICY_MAPPING_it
                0x0000000040244ec0                v3_policy_mappings
                0x0000000040244fa0                X509_VAL_it
                0x0000000040245a40                ECDSA_SIG_it
                0x0000000040245ae0                PKCS12_AUTHSAFES_it
                0x0000000040245b60                PKCS12_SAFEBAGS_it
                0x0000000040245be0                PKCS12_SAFEBAG_it
                0x0000000040245e40                PKCS12_BAGS_it
                0x0000000040246000                PKCS12_MAC_DATA_it
                0x00000000402460c0                PKCS12_it
                0x0000000040246260                v3_alt
                0x00000000402463a0                BASIC_CONSTRAINTS_it
                0x0000000040246440                v3_bcons
                0x00000000402464c0                AUTHORITY_INFO_ACCESS_it
                0x0000000040246540                ACCESS_DESCRIPTION_it
                0x00000000402465e0                v3_sinfo
                0x0000000040246660                v3_info
                0x00000000402466e0                v3_ocsp_serviceloc
                0x0000000040246760                v3_ocsp_nocheck
                0x00000000402467e0                v3_ocsp_nonce
                0x0000000040246860                v3_crl_hold
                0x00000000402468e0                v3_crl_invdate
                0x0000000040246960                v3_ocsp_acutoff
                0x00000000402469e0                v3_ocsp_crlid
                0x0000000040246a60                v3_pci
                0x0000000040246ae0                PROXY_CERT_INFO_EXTENSION_it
                0x0000000040246b80                PROXY_POLICY_it
                0x0000000040246c20                PKEY_USAGE_PERIOD_it
                0x0000000040246cc0                v3_pkey_usage_period
                0x0000000040246d40                v3_skey_id
                0x0000000040246dc0                SXNET_it
                0x0000000040246e60                SXNETID_it
                0x0000000040246f00                v3_sxnet
                0x0000000040247420                CONF_version
                0x0000000040247460                OCSP_SERVICELOC_it
                0x0000000040247500                OCSP_CRLID_it
                0x00000000402475c0                OCSP_BASICRESP_it
                0x00000000402476a0                OCSP_RESPDATA_it
                0x00000000402477c0                OCSP_SINGLERESP_it
                0x00000000402478e0                OCSP_CERTSTATUS_it
                0x00000000402479a0                OCSP_REVOKEDINFO_it
                0x0000000040247a40                OCSP_RESPID_it
                0x0000000040247ae0                OCSP_RESPONSE_it
                0x0000000040247b80                OCSP_RESPBYTES_it
                0x0000000040247c20                OCSP_REQUEST_it
                0x0000000040247cc0                OCSP_REQINFO_it
                0x0000000040247da0                OCSP_ONEREQ_it
                0x0000000040247e40                OCSP_CERTID_it
                0x0000000040247f20                OCSP_SIGNATURE_it
                0x0000000040247fe0                v3_akey_id
                0x0000000040248060                v3_key_usage
                0x00000000402480e0                v3_nscert
                0x0000000040248160                v3_crl_reason
                0x00000000402481e0                EXTENDED_KEY_USAGE_it
                0x0000000040248260                v3_ocsp_accresp
                0x00000000402482e0                v3_ext_ku
                0x0000000040248360                v3_ns_ia5_list
                0x00000000402486a0                v3_inhibit_anyp
                0x0000000040248720                v3_delta_crl
                0x00000000402487a0                v3_crl_num
                0x0000000040248820                CONF_def_version

.rodata.str1.1  0x000000004024884c    0x12b7a load address 0x000000000024884c
 .rodata.str1.1
                0x000000004024884c    0x12b7a output.o
                                      0x14f96 (size before relaxing)

.rodata.str1.8  0x000000004025b3c8     0x97c0 load address 0x000000000025b3c8
 .rodata.str1.8
                0x000000004025b3c8     0x97c0 output.o
                                       0x9ae5 (size before relaxing)

.eh_frame       0x0000000040264b88    0x38520 load address 0x0000000000264b88
 .eh_frame      0x0000000040264b88    0x38520 output.o

.eh_frame_hdr   0x000000004029d0a8        0x8 load address 0x000000000029d0a8
 .eh_frame_hdr  0x000000004029d0a8        0x8 output.o

.note.gnu.build-id
                0x000000004029d0b0      0x288 load address 0x000000000029d0b0
 .note.gnu.build-id
                0x000000004029d0b0      0x288 output.o

.rela.dyn       0x000000004029d338        0x0 load address 0x000000000029d338
 .rela.iplt     0x0000000000000000        0x0 output.o
 .rela.text     0x0000000000000000        0x0 output.o

.data           0x000000004029e000  0x974c000 load address 0x000000000029e000
                0x000000004029e000                data = .
 *(.data)
 .data          0x000000004029e000   0xb7f42f output.o
                0x000000004029e020                config
                0x00000000402ae190                use_pae
                0x00000000402ae3b0                savemsr_index
                0x00000000402af000                vmm_pml4
                0x00000000402b0000                vmm_pdp
                0x00000000402b1000                vmm_pd
                0x00000000402b2000                vmm_pd1
                0x00000000402b3000                vmm_pd2
                0x00000000402b4000                guest_int0x15_hook
                0x00000000402b401d                guest_int0x15_e801_fake_ax
                0x00000000402b4020                guest_int0x15_e801_fake_bx
                0x00000000402b4031                guest_int0x15_orig
                0x00000000402b4046                guest_int0x15_e820_data_minus0x18
                0x00000000402b404e                guest_int0x15_e820_end
                0x00000000402b4074                guest_int0x15_hook_end
                0x00000000402b5078                wakeup_entry_start
                0x00000000402b5081                wakeup_entry_addr
                0x00000000402b50a7                wakeup_entry_cr4
                0x00000000402b50b0                wakeup_entry_cr3
                0x00000000402b50b9                wakeup_entry_cr0
                0x00000000402b50c8                wakeup_entry_gdtr
                0x00000000402b50d2                wakeup_entry_end
                0x00000000402b5160                ata_bm_handler_table
                0x00000000402b51a0                ata_ctlblk_handler_table
                0x00000000402b51c0                ata_cmdblk_handler_table
                0x00000000402b5c70                usb_log_level
                0x00000000402b6600                hSessionCnt
                0x00000000402b6608                hObjectCnt
                0x00000000402b6e00                g_rgSCardT1Pci
                0x00000000402b6e10                g_rgSCardT0Pci
                0x00000000402b6e20                FI
                0x00000000402b6e60                DI
                0x00000000402bb4a0                default_pctx
                0x00000000402be720                rand_ssleay_meth
                0x0000000040e1d430                . = ALIGN (0x8)
 *fill*         0x0000000040e1d42f        0x1 00
                0x0000000040e1d430                __initfunc_start = .
 *(.initfunc)
 .initfunc      0x0000000040e1d430      0x640 output.o
                0x0000000040e1d430                __initfunc_acpi_init_paral
                0x0000000040e1d440                __initfunc_acpi_init_global
                0x0000000040e1d450                __initfunc_beep_init_msg
                0x0000000040e1d460                __initfunc_cache_init_pass
                0x0000000040e1d470                __initfunc_cache_init_vcpu
                0x0000000040e1d480                __initfunc_cache_init_pcpu
                0x0000000040e1d490                __initfunc_callrealmode_panic
                0x0000000040e1d4a0                __initfunc_callrealmode_init_global
                0x0000000040e1d4b0                __initfunc_cpu_mmu_spt_init_pcpu
                0x0000000040e1d4c0                __initfunc_cpu_mmu_spt_init_global
                0x0000000040e1d4d0                __initfunc_cpuid_init
                0x0000000040e1d4e0                __initfunc_cpuid_pass_init
                0x0000000040e1d4f0                __initfunc_exint_pass_init
                0x0000000040e1d500                __initfunc_gmm_pass_init
                0x0000000040e1d510                __initfunc_install_int0x15_hook
                0x0000000040e1d520                __initfunc_idman_init
                0x0000000040e1d530                __initfunc_idman_init_global
                0x0000000040e1d540                __initfunc_int_wakeup
                0x0000000040e1d550                __initfunc_int_init_global
                0x0000000040e1d560                __initfunc_io_io_init
                0x0000000040e1d570                __initfunc_setiohooks
                0x0000000040e1d580                __initfunc_io_iopass_init
                0x0000000040e1d590                __initfunc_keyboard_init_msg
                0x0000000040e1d5a0                __initfunc_localapic_init
                0x0000000040e1d5b0                __initfunc_get_shiftflags
                0x0000000040e1d5c0                __initfunc_copy_minios
                0x0000000040e1d5d0                __initfunc_print_boot_msg
                0x0000000040e1d5e0                __initfunc_debug_on_shift_key
                0x0000000040e1d5f0                __initfunc_create_pass_vm
                0x0000000040e1d600                __initfunc_virtualization_init_pcpu
                0x0000000040e1d610                __initfunc_unmap_user_area
                0x0000000040e1d620                __initfunc_mm_init_global
                0x0000000040e1d630                __initfunc_mmio_debug
                0x0000000040e1d640                __initfunc_mmio_init
                0x0000000040e1d650                __initfunc_msg_init_global
                0x0000000040e1d660                __initfunc_msr_init
                0x0000000040e1d670                __initfunc_msr_pass_init
                0x0000000040e1d680                __initfunc_nmi_pass_init_pcpu
                0x0000000040e1d690                __initfunc_nmi_pass_init
                0x0000000040e1d6a0                __initfunc_panic_init_pcpu
                0x0000000040e1d6b0                __initfunc_panic_init_msg
                0x0000000040e1d6c0                __initfunc_panic_init_global3
                0x0000000040e1d6d0                __initfunc_panic_init_global
                0x0000000040e1d6e0                __initfunc_printf_init_global
                0x0000000040e1d6f0                __initfunc_process_wakeup
                0x0000000040e1d700                __initfunc_process_init_ap
                0x0000000040e1d710                __initfunc_process_init_global
                0x0000000040e1d720                __initfunc_random_init_config0
                0x0000000040e1d730                __initfunc_random_init_global
                0x0000000040e1d740                __initfunc_reboot_init_msg
                0x0000000040e1d750                __initfunc_segment_init_global
                0x0000000040e1d760                __initfunc_serial_init_msg
                0x0000000040e1d770                __initfunc_sleep_init_msg
                0x0000000040e1d780                __initfunc_sleep_init_global
                0x0000000040e1d790                __initfunc_svm_panic
                0x0000000040e1d7a0                __initfunc_sx_init_pass_init
                0x0000000040e1d7b0                __initfunc_thread_init_pcpu
                0x0000000040e1d7c0                __initfunc_thread_init_global
                0x0000000040e1d7d0                __initfunc_time_init_msg
                0x0000000040e1d7e0                __initfunc_time_init_pcpu
                0x0000000040e1d7f0                __initfunc_time_init_global_status
                0x0000000040e1d800                __initfunc_time_init_global
                0x0000000040e1d810                __initfunc_timer_init_global
                0x0000000040e1d820                __initfunc_tty_init_msg
                0x0000000040e1d830                __initfunc_tty_init_global2
                0x0000000040e1d840                __initfunc_tty_init_global
                0x0000000040e1d850                __initfunc_vcpu_init_global
                0x0000000040e1d860                __initfunc_vga_init
                0x0000000040e1d870                __initfunc_vmmcall_init
                0x0000000040e1d880                __initfunc_vmmcall_boot_init
                0x0000000040e1d890                __initfunc_vmmcall_dbgsh_init_pcpu
                0x0000000040e1d8a0                __initfunc_vmmcall_dbgsh_init_global
                0x0000000040e1d8b0                __initfunc_vmmcall_dbgsh_init
                0x0000000040e1d8c0                __initfunc_vmmcall_iccard_init
                0x0000000040e1d8d0                __initfunc_vmmcall_log_init
                0x0000000040e1d8e0                __initfunc_vmmcall_status_init
                0x0000000040e1d8f0                __initfunc_vmmcall_status_init_global
                0x0000000040e1d900                __initfunc_vramwrite_init_bsp
                0x0000000040e1d910                __initfunc_vramwrite_init_msg
                0x0000000040e1d920                __initfunc_vt_register_status_callback
                0x0000000040e1d930                __initfunc_vt_panic
                0x0000000040e1d940                __initfunc_xsetbv_init
                0x0000000040e1d950                __initfunc_xsetbv_pass_init
                0x0000000040e1d960                __initfunc_core_init
                0x0000000040e1d970                __initfunc_ieee1394_init_boot
                0x0000000040e1d980                __initfunc_ieee1394_init
                0x0000000040e1d990                __initfunc_iommu_setup
                0x0000000040e1d9a0                __initfunc_pci_init
                0x0000000040e1d9b0                __initfunc_debug_ata_init
                0x0000000040e1d9c0                __initfunc_ata_init
                0x0000000040e1d9d0                __initfunc_uhci_init
                0x0000000040e1d9e0                __initfunc_ehci_init
                0x0000000040e1d9f0                __initfunc_pro100_init
                0x0000000040e1da00                __initfunc_suspend_pro1000
                0x0000000040e1da10                __initfunc_resume_pro1000
                0x0000000040e1da20                __initfunc_vpn_pro1000_init
                0x0000000040e1da30                __initfunc_storage_kernel_init
                0x0000000040e1da40                __initfunc_storage_io_initfunc
                0x0000000040e1da50                __initfunc_vpn_kernel_init
                0x0000000040e1da60                __initfunc_idman_kernel_init
                0x0000000040e1da70                __initfunc_end = .
                0x0000000040e1da70                __process_builtin = .
 *(.processes)
 .processes     0x0000000040e1da70      0x1a0 output.o
                0x0000000040e1dc10                __process_builtin_end = .
                0x0000000040e1dc10                bss = .
 *(.bss)
 *fill*         0x0000000040e1dc10       0x10 00
 .bss           0x0000000040e1dc20  0x8bca868 output.o
                0x0000000040e21480                vmmsize
                0x0000000040e21488                memorysize
                0x00000000410a4f40                pcpu_default
                0x00000000410c27a4                ps2_locked
                0x00000000410c2c50                syscallHandlerAddress
                0x00000000410c2c60                numberOfVMs
                0x00000000410c2c68                numberOfProtectedApplications
                0x00000000410c2c70                currentRunningApplication
                0x00000000498c33a0                handler_descriptor
                0x00000000498c35a8                drhd_list_head
                0x00000000498c4de0                pci_driver_list_head
                0x00000000498c4de8                pci_device_list_head
                0x00000000498c4f90                uhci_monitor_boost_hc
                0x00000000498c4fa8                usb_hc_list_head
                0x00000000498c4fb0                usb_busses_head
                0x00000000498cc8c8                rt
                0x00000000499e62f0                hContext
                0x00000000499e62f8                sessionTable
                0x00000000499e6300                slotTable
                0x00000000499e6308                slotFlag
                0x00000000499e6309                libInitFlag
                0x00000000499e6f58                OPENSSL_NONPIC_relocated
                0x00000000499e6f60                OPENSSL_ia32cap_P
                0x00000000499e7ba8                cleanse_ctr
                0x00000000499e7c08                obj_cleanup_defer
                0x00000000499e7c28                _shadow_DES_check_key
                0x00000000499e7d18                app_pkey_methods
                0x00000000499e7d80                chelp_inited
 *(COMMON)
 *fill*         0x00000000499e8488       0x18 00
 COMMON         0x00000000499e84a0      0xec4 output.o
                0x00000000499e84a0                clflush_size
                0x00000000499e84c0                sReaderContext
                0x00000000499e8520                sigx_app
                0x00000000499e8528                num_dom
                0x00000000499e8540                mszReaders
                0x00000000499e8940                prohibit_iccard_init
                0x00000000499e8948                curthread
                0x00000000499e8950                sig_app
                0x00000000499e8960                readerState
                0x00000000499e89e0                dom_io
                0x00000000499e91e0                acpi_dsdt_system_state
                0x00000000499e9200                ehci_host
                0x00000000499e9208                num_of_processors
                0x00000000499e920c                e801_fake_bx
                0x00000000499e920e                iommu_detected
                0x00000000499e9210                dwReaders
                0x00000000499e9220                readerTracker
                0x00000000499e9360                handler_descriptor_lock
                0x00000000499e9362                e801_fake_ax
                0x00000000499ea000                . = ALIGN (0x1000)
 *fill*         0x00000000499e9364      0xc9c 00
                0x00000000499ea000                end = .

.igot.plt       0x00000000499ea000        0x0 load address 0x00000000099ea000
 .igot.plt      0x0000000000000000        0x0 output.o

/DISCARD/
 *(.gomi)
LOAD output.o
OUTPUT(bitvisor.elf elf64-x86-64)

.comment        0x0000000000000000       0x55
 .comment       0x0000000000000000       0x55 output.o
                                       0x5f2f (size before relaxing)

.note.GNU-stack
                0x0000000000000000        0x0
 .note.GNU-stack
                0x0000000000000000        0x0 output.o

.debug_aranges  0x0000000000000000     0x69c0
 .debug_aranges
                0x0000000000000000     0x69c0 output.o

.debug_info     0x0000000000000000   0x3396b0
 .debug_info    0x0000000000000000   0x3396b0 output.o

.debug_abbrev   0x0000000000000000    0x516df
 .debug_abbrev  0x0000000000000000    0x516df output.o

.debug_line     0x0000000000000000    0x4e591
 .debug_line    0x0000000000000000    0x4e591 output.o

.debug_str      0x0000000000000000    0x36da3
 .debug_str     0x0000000000000000    0x36da3 output.o
                                     0x14e16b (size before relaxing)

.debug_loc      0x0000000000000000   0x275918
 .debug_loc     0x0000000000000000   0x275918 output.o

.debug_ranges   0x0000000000000000     0x75f0
 .debug_ranges  0x0000000000000000     0x75f0 output.o

Cross Reference Table

Symbol                                            File
ACCESS_DESCRIPTION_free                           output.o
ACCESS_DESCRIPTION_it                             output.o
ACCESS_DESCRIPTION_new                            output.o
AES_cbc_encrypt                                   output.o
AES_cfb128_encrypt                                output.o
AES_cfb1_encrypt                                  output.o
AES_cfb8_encrypt                                  output.o
AES_decrypt                                       output.o
AES_ecb_encrypt                                   output.o
AES_encrypt                                       output.o
AES_ofb128_encrypt                                output.o
AES_set_decrypt_key                               output.o
AES_set_encrypt_key                               output.o
AES_unwrap_key                                    output.o
AES_wrap_key                                      output.o
ASN1_ANY_it                                       output.o
ASN1_BIT_STRING_check                             output.o
ASN1_BIT_STRING_free                              output.o
ASN1_BIT_STRING_get_bit                           output.o
ASN1_BIT_STRING_it                                output.o
ASN1_BIT_STRING_new                               output.o
ASN1_BIT_STRING_set                               output.o
ASN1_BIT_STRING_set_bit                           output.o
ASN1_BMPSTRING_free                               output.o
ASN1_BMPSTRING_it                                 output.o
ASN1_BMPSTRING_new                                output.o
ASN1_BOOLEAN_it                                   output.o
ASN1_ENUMERATED_free                              output.o
ASN1_ENUMERATED_get                               output.o
ASN1_ENUMERATED_it                                output.o
ASN1_ENUMERATED_new                               output.o
ASN1_ENUMERATED_set                               output.o
ASN1_ENUMERATED_to_BN                             output.o
ASN1_FBOOLEAN_it                                  output.o
ASN1_GENERALIZEDTIME_adj                          output.o
ASN1_GENERALIZEDTIME_check                        output.o
ASN1_GENERALIZEDTIME_free                         output.o
ASN1_GENERALIZEDTIME_it                           output.o
ASN1_GENERALIZEDTIME_new                          output.o
ASN1_GENERALIZEDTIME_print                        output.o
ASN1_GENERALIZEDTIME_set                          output.o
ASN1_GENERALIZEDTIME_set_string                   output.o
ASN1_GENERALSTRING_free                           output.o
ASN1_GENERALSTRING_it                             output.o
ASN1_GENERALSTRING_new                            output.o
ASN1_IA5STRING_free                               output.o
ASN1_IA5STRING_it                                 output.o
ASN1_IA5STRING_new                                output.o
ASN1_INTEGER_cmp                                  output.o
ASN1_INTEGER_dup                                  output.o
ASN1_INTEGER_free                                 output.o
ASN1_INTEGER_get                                  output.o
ASN1_INTEGER_it                                   output.o
ASN1_INTEGER_new                                  output.o
ASN1_INTEGER_set                                  output.o
ASN1_INTEGER_to_BN                                output.o
ASN1_NULL_free                                    output.o
ASN1_NULL_it                                      output.o
ASN1_NULL_new                                     output.o
ASN1_OBJECT_create                                output.o
ASN1_OBJECT_free                                  output.o
ASN1_OBJECT_it                                    output.o
ASN1_OBJECT_new                                   output.o
ASN1_OCTET_STRING_NDEF_it                         output.o
ASN1_OCTET_STRING_cmp                             output.o
ASN1_OCTET_STRING_dup                             output.o
ASN1_OCTET_STRING_free                            output.o
ASN1_OCTET_STRING_it                              output.o
ASN1_OCTET_STRING_new                             output.o
ASN1_OCTET_STRING_set                             output.o
ASN1_PCTX_free                                    output.o
ASN1_PCTX_get_cert_flags                          output.o
ASN1_PCTX_get_flags                               output.o
ASN1_PCTX_get_nm_flags                            output.o
ASN1_PCTX_get_oid_flags                           output.o
ASN1_PCTX_get_str_flags                           output.o
ASN1_PCTX_new                                     output.o
ASN1_PCTX_set_cert_flags                          output.o
ASN1_PCTX_set_flags                               output.o
ASN1_PCTX_set_nm_flags                            output.o
ASN1_PCTX_set_oid_flags                           output.o
ASN1_PCTX_set_str_flags                           output.o
ASN1_PRINTABLESTRING_free                         output.o
ASN1_PRINTABLESTRING_it                           output.o
ASN1_PRINTABLESTRING_new                          output.o
ASN1_PRINTABLE_free                               output.o
ASN1_PRINTABLE_it                                 output.o
ASN1_PRINTABLE_new                                output.o
ASN1_PRINTABLE_type                               output.o
ASN1_SEQUENCE_ANY_it                              output.o
ASN1_SEQUENCE_it                                  output.o
ASN1_SET_ANY_it                                   output.o
ASN1_STRING_TABLE_add                             output.o
ASN1_STRING_TABLE_cleanup                         output.o
ASN1_STRING_TABLE_get                             output.o
ASN1_STRING_cmp                                   output.o
ASN1_STRING_copy                                  output.o
ASN1_STRING_data                                  output.o
ASN1_STRING_dup                                   output.o
ASN1_STRING_free                                  output.o
ASN1_STRING_get_default_mask                      output.o
ASN1_STRING_length                                output.o
ASN1_STRING_length_set                            output.o
ASN1_STRING_new                                   output.o
ASN1_STRING_print                                 output.o
ASN1_STRING_print_ex                              output.o
ASN1_STRING_set                                   output.o
ASN1_STRING_set0                                  output.o
ASN1_STRING_set_by_NID                            output.o
ASN1_STRING_set_default_mask                      output.o
ASN1_STRING_set_default_mask_asc                  output.o
ASN1_STRING_to_UTF8                               output.o
ASN1_STRING_type                                  output.o
ASN1_STRING_type_new                              output.o
ASN1_T61STRING_free                               output.o
ASN1_T61STRING_it                                 output.o
ASN1_T61STRING_new                                output.o
ASN1_TBOOLEAN_it                                  output.o
ASN1_TIME_adj                                     output.o
ASN1_TIME_check                                   output.o
ASN1_TIME_free                                    output.o
ASN1_TIME_it                                      output.o
ASN1_TIME_new                                     output.o
ASN1_TIME_print                                   output.o
ASN1_TIME_set                                     output.o
ASN1_TIME_set_string                              output.o
ASN1_TIME_to_generalizedtime                      output.o
ASN1_TYPE_cmp                                     output.o
ASN1_TYPE_free                                    output.o
ASN1_TYPE_get                                     output.o
ASN1_TYPE_get_int_octetstring                     output.o
ASN1_TYPE_get_octetstring                         output.o
ASN1_TYPE_new                                     output.o
ASN1_TYPE_set                                     output.o
ASN1_TYPE_set1                                    output.o
ASN1_TYPE_set_int_octetstring                     output.o
ASN1_TYPE_set_octetstring                         output.o
ASN1_UNIVERSALSTRING_free                         output.o
ASN1_UNIVERSALSTRING_it                           output.o
ASN1_UNIVERSALSTRING_new                          output.o
ASN1_UNIVERSALSTRING_to_string                    output.o
ASN1_UTCTIME_adj                                  output.o
ASN1_UTCTIME_check                                output.o
ASN1_UTCTIME_cmp_time_t                           output.o
ASN1_UTCTIME_free                                 output.o
ASN1_UTCTIME_it                                   output.o
ASN1_UTCTIME_new                                  output.o
ASN1_UTCTIME_print                                output.o
ASN1_UTCTIME_set                                  output.o
ASN1_UTCTIME_set_string                           output.o
ASN1_UTF8STRING_free                              output.o
ASN1_UTF8STRING_it                                output.o
ASN1_UTF8STRING_new                               output.o
ASN1_VISIBLESTRING_free                           output.o
ASN1_VISIBLESTRING_it                             output.o
ASN1_VISIBLESTRING_new                            output.o
ASN1_bn_print                                     output.o
ASN1_check_infinite_end                           output.o
ASN1_const_check_infinite_end                     output.o
ASN1_d2i_bio                                      output.o
ASN1_digest                                       output.o
ASN1_dup                                          output.o
ASN1_generate_nconf                               output.o
ASN1_generate_v3                                  output.o
ASN1_get_object                                   output.o
ASN1_i2d_bio                                      output.o
ASN1_item_d2i                                     output.o
ASN1_item_d2i_bio                                 output.o
ASN1_item_digest                                  output.o
ASN1_item_dup                                     output.o
ASN1_item_ex_d2i                                  output.o
ASN1_item_ex_free                                 output.o
ASN1_item_ex_i2d                                  output.o
ASN1_item_ex_new                                  output.o
ASN1_item_free                                    output.o
ASN1_item_i2d                                     output.o
ASN1_item_i2d_bio                                 output.o
ASN1_item_ndef_i2d                                output.o
ASN1_item_new                                     output.o
ASN1_item_pack                                    output.o
ASN1_item_print                                   output.o
ASN1_item_sign                                    output.o
ASN1_item_unpack                                  output.o
ASN1_item_verify                                  output.o
ASN1_mbstring_copy                                output.o
ASN1_mbstring_ncopy                               output.o
ASN1_object_size                                  output.o
ASN1_pack_string                                  output.o
ASN1_parse                                        output.o
ASN1_parse_dump                                   output.o
ASN1_primitive_free                               output.o
ASN1_primitive_new                                output.o
ASN1_put_eoc                                      output.o
ASN1_put_object                                   output.o
ASN1_seq_pack                                     output.o
ASN1_seq_unpack                                   output.o
ASN1_sign                                         output.o
ASN1_tag2bit                                      output.o
ASN1_tag2str                                      output.o
ASN1_template_d2i                                 output.o
ASN1_template_free                                output.o
ASN1_template_i2d                                 output.o
ASN1_template_new                                 output.o
ASN1_unpack_string                                output.o
ASN1_verify                                       output.o
ASN1_version                                      output.o
AUTHORITY_INFO_ACCESS_free                        output.o
AUTHORITY_INFO_ACCESS_it                          output.o
AUTHORITY_INFO_ACCESS_new                         output.o
AUTHORITY_KEYID_free                              output.o
AUTHORITY_KEYID_it                                output.o
AUTHORITY_KEYID_new                               output.o
AddCertDataByBuf                                  output.o
AddElem                                           output.o
AddIdPassDataByBuf                                output.o
AddObjTblByTlv                                    output.o
BASIC_CONSTRAINTS_free                            output.o
BASIC_CONSTRAINTS_it                              output.o
BASIC_CONSTRAINTS_new                             output.o
BF_cbc_encrypt                                    output.o
BF_cfb64_encrypt                                  output.o
BF_decrypt                                        output.o
BF_ecb_encrypt                                    output.o
BF_encrypt                                        output.o
BF_ofb64_encrypt                                  output.o
BF_options                                        output.o
BF_set_key                                        output.o
BF_version                                        output.o
BIGNUM_it                                         output.o
BIO_asn1_get_prefix                               output.o
BIO_asn1_get_suffix                               output.o
BIO_asn1_set_prefix                               output.o
BIO_asn1_set_suffix                               output.o
BIO_callback_ctrl                                 output.o
BIO_clear_flags                                   output.o
BIO_copy_next_retry                               output.o
BIO_ctrl                                          output.o
BIO_ctrl_pending                                  output.o
BIO_ctrl_wpending                                 output.o
BIO_dump                                          output.o
BIO_dump_cb                                       output.o
BIO_dump_indent                                   output.o
BIO_dump_indent_cb                                output.o
BIO_dup_chain                                     output.o
BIO_f_asn1                                        output.o
BIO_f_base64                                      output.o
BIO_f_buffer                                      output.o
BIO_f_cipher                                      output.o
BIO_f_md                                          output.o
BIO_find_type                                     output.o
BIO_free                                          output.o
BIO_free_all                                      output.o
BIO_get_callback                                  output.o
BIO_get_callback_arg                              output.o
BIO_get_ex_data                                   output.o
BIO_get_ex_new_index                              output.o
BIO_get_retry_BIO                                 output.o
BIO_get_retry_reason                              output.o
BIO_gets                                          output.o
BIO_indent                                        output.o
BIO_int_ctrl                                      output.o
BIO_method_name                                   output.o
BIO_method_type                                   output.o
BIO_new                                           output.o
BIO_new_CMS                                       output.o
BIO_new_NDEF                                      output.o
BIO_new_mem_buf                                   output.o
BIO_next                                          output.o
BIO_number_read                                   output.o
BIO_number_written                                output.o
BIO_pop                                           output.o
BIO_printf                                        output.o
BIO_ptr_ctrl                                      output.o
BIO_push                                          output.o
BIO_puts                                          output.o
BIO_read                                          output.o
BIO_s_mem                                         output.o
BIO_s_null                                        output.o
BIO_set                                           output.o
BIO_set_callback                                  output.o
BIO_set_callback_arg                              output.o
BIO_set_cipher                                    output.o
BIO_set_ex_data                                   output.o
BIO_set_flags                                     output.o
BIO_snprintf                                      output.o
BIO_test_flags                                    output.o
BIO_vfree                                         output.o
BIO_write                                         output.o
BN_BLINDING_convert                               output.o
BN_BLINDING_convert_ex                            output.o
BN_BLINDING_create_param                          output.o
BN_BLINDING_free                                  output.o
BN_BLINDING_get_flags                             output.o
BN_BLINDING_get_thread_id                         output.o
BN_BLINDING_invert                                output.o
BN_BLINDING_invert_ex                             output.o
BN_BLINDING_new                                   output.o
BN_BLINDING_set_flags                             output.o
BN_BLINDING_set_thread_id                         output.o
BN_BLINDING_thread_id                             output.o
BN_BLINDING_update                                output.o
BN_CTX_end                                        output.o
BN_CTX_free                                       output.o
BN_CTX_get                                        output.o
BN_CTX_init                                       output.o
BN_CTX_new                                        output.o
BN_CTX_start                                      output.o
BN_GENCB_call                                     output.o
BN_GF2m_add                                       output.o
BN_GF2m_arr2poly                                  output.o
BN_GF2m_mod                                       output.o
BN_GF2m_mod_arr                                   output.o
BN_GF2m_mod_div                                   output.o
BN_GF2m_mod_div_arr                               output.o
BN_GF2m_mod_exp                                   output.o
BN_GF2m_mod_exp_arr                               output.o
BN_GF2m_mod_inv                                   output.o
BN_GF2m_mod_inv_arr                               output.o
BN_GF2m_mod_mul                                   output.o
BN_GF2m_mod_mul_arr                               output.o
BN_GF2m_mod_solve_quad                            output.o
BN_GF2m_mod_solve_quad_arr                        output.o
BN_GF2m_mod_sqr                                   output.o
BN_GF2m_mod_sqr_arr                               output.o
BN_GF2m_mod_sqrt                                  output.o
BN_GF2m_mod_sqrt_arr                              output.o
BN_GF2m_poly2arr                                  output.o
BN_MONT_CTX_copy                                  output.o
BN_MONT_CTX_free                                  output.o
BN_MONT_CTX_init                                  output.o
BN_MONT_CTX_new                                   output.o
BN_MONT_CTX_set                                   output.o
BN_MONT_CTX_set_locked                            output.o
BN_RECP_CTX_free                                  output.o
BN_RECP_CTX_init                                  output.o
BN_RECP_CTX_new                                   output.o
BN_RECP_CTX_set                                   output.o
BN_add                                            output.o
BN_add_word                                       output.o
BN_asc2bn                                         output.o
BN_bin2bn                                         output.o
BN_bn2bin                                         output.o
BN_bn2dec                                         output.o
BN_bn2hex                                         output.o
BN_bntest_rand                                    output.o
BN_clear                                          output.o
BN_clear_bit                                      output.o
BN_clear_free                                     output.o
BN_cmp                                            output.o
BN_copy                                           output.o
BN_dec2bn                                         output.o
BN_div                                            output.o
BN_div_recp                                       output.o
BN_div_word                                       output.o
BN_dup                                            output.o
BN_exp                                            output.o
BN_free                                           output.o
BN_from_montgomery                                output.o
BN_gcd                                            output.o
BN_generate_prime_ex                              output.o
BN_get0_nist_prime_192                            output.o
BN_get0_nist_prime_224                            output.o
BN_get0_nist_prime_256                            output.o
BN_get0_nist_prime_384                            output.o
BN_get0_nist_prime_521                            output.o
BN_get_params                                     output.o
BN_get_word                                       output.o
BN_hex2bn                                         output.o
BN_init                                           output.o
BN_is_bit_set                                     output.o
BN_is_prime_ex                                    output.o
BN_is_prime_fasttest_ex                           output.o
BN_kronecker                                      output.o
BN_lshift                                         output.o
BN_lshift1                                        output.o
BN_mask_bits                                      output.o
BN_mod_add                                        output.o
BN_mod_add_quick                                  output.o
BN_mod_exp                                        output.o
BN_mod_exp2_mont                                  output.o
BN_mod_exp_mont                                   output.o
BN_mod_exp_mont_consttime                         output.o
BN_mod_exp_mont_word                              output.o
BN_mod_exp_recp                                   output.o
BN_mod_exp_simple                                 output.o
BN_mod_inverse                                    output.o
BN_mod_lshift                                     output.o
BN_mod_lshift1                                    output.o
BN_mod_lshift1_quick                              output.o
BN_mod_lshift_quick                               output.o
BN_mod_mul                                        output.o
BN_mod_mul_montgomery                             output.o
BN_mod_mul_reciprocal                             output.o
BN_mod_sqr                                        output.o
BN_mod_sqrt                                       output.o
BN_mod_sub                                        output.o
BN_mod_sub_quick                                  output.o
BN_mod_word                                       output.o
BN_mul                                            output.o
BN_mul_word                                       output.o
BN_new                                            output.o
BN_nist_mod_192                                   output.o
BN_nist_mod_224                                   output.o
BN_nist_mod_256                                   output.o
BN_nist_mod_384                                   output.o
BN_nist_mod_521                                   output.o
BN_nnmod                                          output.o
BN_num_bits                                       output.o
BN_num_bits_word                                  output.o
BN_options                                        output.o
BN_print                                          output.o
BN_pseudo_rand                                    output.o
BN_pseudo_rand_range                              output.o
BN_rand                                           output.o
BN_rand_range                                     output.o
BN_reciprocal                                     output.o
BN_rshift                                         output.o
BN_rshift1                                        output.o
BN_set_bit                                        output.o
BN_set_negative                                   output.o
BN_set_params                                     output.o
BN_set_word                                       output.o
BN_sqr                                            output.o
BN_sub                                            output.o
BN_sub_word                                       output.o
BN_swap                                           output.o
BN_to_ASN1_ENUMERATED                             output.o
BN_to_ASN1_INTEGER                                output.o
BN_uadd                                           output.o
BN_ucmp                                           output.o
BN_usub                                           output.o
BN_value_one                                      output.o
BN_version                                        output.o
BUF_MEM_free                                      output.o
BUF_MEM_grow                                      output.o
BUF_MEM_grow_clean                                output.o
BUF_MEM_new                                       output.o
BUF_memdup                                        output.o
BUF_reverse                                       output.o
BUF_strdup                                        output.o
BUF_strlcat                                       output.o
BUF_strlcpy                                       output.o
BUF_strndup                                       output.o
BlockSendCardT1                                   output.o
CAST_S_table0                                     output.o
CAST_S_table1                                     output.o
CAST_S_table2                                     output.o
CAST_S_table3                                     output.o
CAST_S_table4                                     output.o
CAST_S_table5                                     output.o
CAST_S_table6                                     output.o
CAST_S_table7                                     output.o
CAST_cbc_encrypt                                  output.o
CAST_cfb64_encrypt                                output.o
CAST_decrypt                                      output.o
CAST_ecb_encrypt                                  output.o
CAST_encrypt                                      output.o
CAST_ofb64_encrypt                                output.o
CAST_set_key                                      output.o
CAST_version                                      output.o
CBIGNUM_it                                        output.o
CERTIFICATEPOLICIES_free                          output.o
CERTIFICATEPOLICIES_it                            output.o
CERTIFICATEPOLICIES_new                           output.o
CMS_Attributes_Sign_it                            output.o
CMS_Attributes_Verify_it                          output.o
CMS_AuthenticatedData_it                          output.o
CMS_CertificateChoices_it                         output.o
CMS_CompressedData_it                             output.o
CMS_ContentInfo_free                              output.o
CMS_ContentInfo_it                                output.o
CMS_ContentInfo_new                               output.o
CMS_ContentInfo_print_ctx                         output.o
CMS_DigestedData_it                               output.o
CMS_EncapsulatedContentInfo_it                    output.o
CMS_EncryptedContentInfo_it                       output.o
CMS_EncryptedData_it                              output.o
CMS_EncryptedData_set1_key                        output.o
CMS_EnvelopedData_create                          output.o
CMS_EnvelopedData_it                              output.o
CMS_IssuerAndSerialNumber_it                      output.o
CMS_KEKIdentifier_it                              output.o
CMS_KEKRecipientInfo_it                           output.o
CMS_KeyAgreeRecipientIdentifier_it                output.o
CMS_KeyAgreeRecipientInfo_it                      output.o
CMS_KeyTransRecipientInfo_it                      output.o
CMS_OriginatorIdentifierOrKey_it                  output.o
CMS_OriginatorInfo_it                             output.o
CMS_OriginatorPublicKey_it                        output.o
CMS_OtherCertificateFormat_it                     output.o
CMS_OtherKeyAttribute_it                          output.o
CMS_OtherRecipientInfo_it                         output.o
CMS_OtherRevocationInfoFormat_it                  output.o
CMS_PasswordRecipientInfo_it                      output.o
CMS_ReceiptRequest_it                             output.o
CMS_Receipt_it                                    output.o
CMS_ReceiptsFrom_it                               output.o
CMS_RecipientEncryptedKey_it                      output.o
CMS_RecipientInfo_decrypt                         output.o
CMS_RecipientInfo_it                              output.o
CMS_RecipientInfo_kekri_get0_id                   output.o
CMS_RecipientInfo_kekri_id_cmp                    output.o
CMS_RecipientInfo_ktri_cert_cmp                   output.o
CMS_RecipientInfo_ktri_get0_algs                  output.o
CMS_RecipientInfo_ktri_get0_signer_id             output.o
CMS_RecipientInfo_set0_key                        output.o
CMS_RecipientInfo_set0_pkey                       output.o
CMS_RecipientInfo_type                            output.o
CMS_RecipientKeyIdentifier_it                     output.o
CMS_RevocationInfoChoice_it                       output.o
CMS_SignedData_init                               output.o
CMS_SignedData_it                                 output.o
CMS_SignerIdentifier_it                           output.o
CMS_SignerInfo_cert_cmp                           output.o
CMS_SignerInfo_get0_algs                          output.o
CMS_SignerInfo_get0_signer_id                     output.o
CMS_SignerInfo_it                                 output.o
CMS_SignerInfo_set1_signer_cert                   output.o
CMS_SignerInfo_sign                               output.o
CMS_SignerInfo_verify                             output.o
CMS_SignerInfo_verify_content                     output.o
CMS_add0_CertificateChoices                       output.o
CMS_add0_RevocationInfoChoice                     output.o
CMS_add0_cert                                     output.o
CMS_add0_crl                                      output.o
CMS_add0_recipient_key                            output.o
CMS_add1_cert                                     output.o
CMS_add1_crl                                      output.o
CMS_add1_recipient_cert                           output.o
CMS_add1_signer                                   output.o
CMS_add_simple_smimecap                           output.o
CMS_add_smimecap                                  output.o
CMS_add_standard_smimecap                         output.o
CMS_dataFinal                                     output.o
CMS_dataInit                                      output.o
CMS_get0_RecipientInfos                           output.o
CMS_get0_SignerInfos                              output.o
CMS_get0_content                                  output.o
CMS_get0_eContentType                             output.o
CMS_get0_signers                                  output.o
CMS_get0_type                                     output.o
CMS_get1_certs                                    output.o
CMS_get1_crls                                     output.o
CMS_is_detached                                   output.o
CMS_set1_eContentType                             output.o
CMS_set1_signers_certs                            output.o
CMS_set_detached                                  output.o
CMS_signed_add1_attr                              output.o
CMS_signed_add1_attr_by_NID                       output.o
CMS_signed_add1_attr_by_OBJ                       output.o
CMS_signed_add1_attr_by_txt                       output.o
CMS_signed_delete_attr                            output.o
CMS_signed_get0_data_by_OBJ                       output.o
CMS_signed_get_attr                               output.o
CMS_signed_get_attr_by_NID                        output.o
CMS_signed_get_attr_by_OBJ                        output.o
CMS_signed_get_attr_count                         output.o
CMS_stream                                        output.o
CMS_unsigned_add1_attr                            output.o
CMS_unsigned_add1_attr_by_NID                     output.o
CMS_unsigned_add1_attr_by_OBJ                     output.o
CMS_unsigned_add1_attr_by_txt                     output.o
CMS_unsigned_delete_attr                          output.o
CMS_unsigned_get0_data_by_OBJ                     output.o
CMS_unsigned_get_attr                             output.o
CMS_unsigned_get_attr_by_NID                      output.o
CMS_unsigned_get_attr_by_OBJ                      output.o
CMS_unsigned_get_attr_count                       output.o
CONF_def_version                                  output.o
CONF_dump_bio                                     output.o
CONF_free                                         output.o
CONF_get1_default_config_file                     output.o
CONF_get_number                                   output.o
CONF_get_section                                  output.o
CONF_get_string                                   output.o
CONF_imodule_get_flags                            output.o
CONF_imodule_get_module                           output.o
CONF_imodule_get_name                             output.o
CONF_imodule_get_usr_data                         output.o
CONF_imodule_get_value                            output.o
CONF_imodule_set_flags                            output.o
CONF_imodule_set_usr_data                         output.o
CONF_load                                         output.o
CONF_load_bio                                     output.o
CONF_module_add                                   output.o
CONF_module_get_usr_data                          output.o
CONF_module_set_usr_data                          output.o
CONF_modules_finish                               output.o
CONF_modules_free                                 output.o
CONF_modules_load                                 output.o
CONF_modules_load_file                            output.o
CONF_modules_unload                               output.o
CONF_parse_list                                   output.o
CONF_set_default_method                           output.o
CONF_set_nconf                                    output.o
CONF_version                                      output.o
CRL_DIST_POINTS_free                              output.o
CRL_DIST_POINTS_it                                output.o
CRL_DIST_POINTS_new                               output.o
CRYPTO_THREADID_cmp                               output.o
CRYPTO_THREADID_cpy                               output.o
CRYPTO_THREADID_current                           output.o
CRYPTO_THREADID_get_callback                      output.o
CRYPTO_THREADID_hash                              output.o
CRYPTO_THREADID_set_callback                      output.o
CRYPTO_THREADID_set_numeric                       output.o
CRYPTO_THREADID_set_pointer                       output.o
CRYPTO_add_lock                                   output.o
CRYPTO_cbc128_decrypt                             output.o
CRYPTO_cbc128_encrypt                             output.o
CRYPTO_cfb128_1_encrypt                           output.o
CRYPTO_cfb128_8_encrypt                           output.o
CRYPTO_cfb128_encrypt                             output.o
CRYPTO_cleanup_all_ex_data                        output.o
CRYPTO_dbg_free                                   output.o
CRYPTO_dbg_get_options                            output.o
CRYPTO_dbg_malloc                                 output.o
CRYPTO_dbg_realloc                                output.o
CRYPTO_dbg_set_options                            output.o
CRYPTO_destroy_dynlockid                          output.o
CRYPTO_dup_ex_data                                output.o
CRYPTO_ex_data_new_class                          output.o
CRYPTO_free                                       output.o
CRYPTO_free_ex_data                               output.o
CRYPTO_free_locked                                output.o
CRYPTO_get_add_lock_callback                      output.o
CRYPTO_get_dynlock_create_callback                output.o
CRYPTO_get_dynlock_destroy_callback               output.o
CRYPTO_get_dynlock_lock_callback                  output.o
CRYPTO_get_dynlock_value                          output.o
CRYPTO_get_ex_data                                output.o
CRYPTO_get_ex_data_implementation                 output.o
CRYPTO_get_ex_new_index                           output.o
CRYPTO_get_id_callback                            output.o
CRYPTO_get_lock_name                              output.o
CRYPTO_get_locked_mem_ex_functions                output.o
CRYPTO_get_locked_mem_functions                   output.o
CRYPTO_get_locking_callback                       output.o
CRYPTO_get_mem_debug_functions                    output.o
CRYPTO_get_mem_debug_options                      output.o
CRYPTO_get_mem_ex_functions                       output.o
CRYPTO_get_mem_functions                          output.o
CRYPTO_get_new_dynlockid                          output.o
CRYPTO_get_new_lockid                             output.o
CRYPTO_is_mem_check_on                            output.o
CRYPTO_lock                                       output.o
CRYPTO_malloc                                     output.o
CRYPTO_malloc_locked                              output.o
CRYPTO_mem_ctrl                                   output.o
CRYPTO_mem_leaks                                  output.o
CRYPTO_mem_leaks_cb                               output.o
CRYPTO_new_ex_data                                output.o
CRYPTO_num_locks                                  output.o
CRYPTO_ofb128_encrypt                             output.o
CRYPTO_pop_info                                   output.o
CRYPTO_push_info_                                 output.o
CRYPTO_realloc                                    output.o
CRYPTO_realloc_clean                              output.o
CRYPTO_remalloc                                   output.o
CRYPTO_remove_all_info                            output.o
CRYPTO_set_add_lock_callback                      output.o
CRYPTO_set_dynlock_create_callback                output.o
CRYPTO_set_dynlock_destroy_callback               output.o
CRYPTO_set_dynlock_lock_callback                  output.o
CRYPTO_set_ex_data                                output.o
CRYPTO_set_ex_data_implementation                 output.o
CRYPTO_set_id_callback                            output.o
CRYPTO_set_locked_mem_ex_functions                output.o
CRYPTO_set_locked_mem_functions                   output.o
CRYPTO_set_locking_callback                       output.o
CRYPTO_set_mem_debug_functions                    output.o
CRYPTO_set_mem_debug_options                      output.o
CRYPTO_set_mem_ex_functions                       output.o
CRYPTO_set_mem_functions                          output.o
CRYPTO_strdup                                     output.o
CRYPTO_thread_id                                  output.o
C_CloseAllSessions                                output.o
C_CloseSession                                    output.o
C_CreateObject                                    output.o
C_DestroyObject                                   output.o
C_DigestFinal                                     output.o
C_DigestInit                                      output.o
C_DigestUpdate                                    output.o
C_Finalize                                        output.o
C_FindObjects                                     output.o
C_FindObjectsFinal                                output.o
C_FindObjectsInit                                 output.o
C_GetAttributeValue                               output.o
C_GetCardStatus                                   output.o
C_GetFunctionList                                 output.o
C_GetInfo                                         output.o
C_GetMechanismInfo                                output.o
C_GetMechanismList                                output.o
C_GetSessionInfo                                  output.o
C_GetSlotInfo                                     output.o
C_GetSlotList                                     output.o
C_GetTokenInfo                                    output.o
C_Initialize                                      output.o
C_Login                                           output.o
C_Logout                                          output.o
C_OpenSession                                     output.o
C_SetAttributeValue                               output.o
C_Sign                                            output.o
C_SignInit                                        output.o
C_Verify                                          output.o
C_VerifyInit                                      output.o
CardConnect                                       output.o
CardDisconnect                                    output.o
CardEstablishContext                              output.o
CardListReaders                                   output.o
CardMechanical                                    output.o
CardReleaseContext                                output.o
CardStateConfirm                                  output.o
CardStatus                                        output.o
CardTransmit                                      output.o
CloseUSB                                          output.o
DES_SPtrans                                       output.o
DES_cfb64_encrypt                                 output.o
DES_cfb_encrypt                                   output.o
DES_check_key_parity                              output.o
DES_decrypt3                                      output.o
DES_ecb3_encrypt                                  output.o
DES_ecb_encrypt                                   output.o
DES_ede3_cbc_encrypt                              output.o
DES_ede3_cfb64_encrypt                            output.o
DES_ede3_cfb_encrypt                              output.o
DES_ede3_ofb64_encrypt                            output.o
DES_encrypt1                                      output.o
DES_encrypt2                                      output.o
DES_encrypt3                                      output.o
DES_is_weak_key                                   output.o
DES_key_sched                                     output.o
DES_ncbc_encrypt                                  output.o
DES_ofb64_encrypt                                 output.o
DES_options                                       output.o
DES_random_key                                    output.o
DES_set_key                                       output.o
DES_set_key_checked                               output.o
DES_set_key_unchecked                             output.o
DES_set_odd_parity                                output.o
DES_xcbc_encrypt                                  output.o
DH_OpenSSL                                        output.o
DH_check                                          output.o
DH_check_pub_key                                  output.o
DH_compute_key                                    output.o
DH_free                                           output.o
DH_generate_key                                   output.o
DH_generate_parameters_ex                         output.o
DH_get_default_method                             output.o
DH_get_ex_data                                    output.o
DH_get_ex_new_index                               output.o
DH_new                                            output.o
DH_new_method                                     output.o
DH_set_default_method                             output.o
DH_set_ex_data                                    output.o
DH_set_method                                     output.o
DH_size                                           output.o
DH_up_ref                                         output.o
DH_version                                        output.o
DHparams_dup                                      output.o
DHparams_it                                       output.o
DHparams_print                                    output.o
DI                                                output.o
DIRECTORYSTRING_free                              output.o
DIRECTORYSTRING_it                                output.o
DIRECTORYSTRING_new                               output.o
DISPLAYTEXT_free                                  output.o
DISPLAYTEXT_it                                    output.o
DISPLAYTEXT_new                                   output.o
DIST_POINT_NAME_free                              output.o
DIST_POINT_NAME_it                                output.o
DIST_POINT_NAME_new                               output.o
DIST_POINT_free                                   output.o
DIST_POINT_it                                     output.o
DIST_POINT_new                                    output.o
DIST_POINT_set_dpname                             output.o
DSAPrivateKey_it                                  output.o
DSAPublicKey_it                                   output.o
DSA_OpenSSL                                       output.o
DSA_SIG_free                                      output.o
DSA_SIG_it                                        output.o
DSA_SIG_new                                       output.o
DSA_do_sign                                       output.o
DSA_do_verify                                     output.o
DSA_dup_DH                                        output.o
DSA_free                                          output.o
DSA_generate_key                                  output.o
DSA_generate_parameters_ex                        output.o
DSA_get_default_method                            output.o
DSA_get_ex_data                                   output.o
DSA_get_ex_new_index                              output.o
DSA_new                                           output.o
DSA_new_method                                    output.o
DSA_set_default_method                            output.o
DSA_set_ex_data                                   output.o
DSA_set_method                                    output.o
DSA_sign                                          output.o
DSA_sign_setup                                    output.o
DSA_size                                          output.o
DSA_up_ref                                        output.o
DSA_verify                                        output.o
DSA_version                                       output.o
DSAparams_dup                                     output.o
DSAparams_it                                      output.o
DSO_METHOD_null                                   output.o
DSO_METHOD_openssl                                output.o
DSO_bind_func                                     output.o
DSO_bind_var                                      output.o
DSO_convert_filename                              output.o
DSO_ctrl                                          output.o
DSO_flags                                         output.o
DSO_free                                          output.o
DSO_get_default_method                            output.o
DSO_get_filename                                  output.o
DSO_get_loaded_filename                           output.o
DSO_get_method                                    output.o
DSO_global_lookup                                 output.o
DSO_load                                          output.o
DSO_merge                                         output.o
DSO_new                                           output.o
DSO_new_method                                    output.o
DSO_pathbyaddr                                    output.o
DSO_set_default_method                            output.o
DSO_set_filename                                  output.o
DSO_set_method                                    output.o
DSO_set_name_converter                            output.o
DSO_up_ref                                        output.o
DelElem                                           output.o
DestroyAttribute                                  output.o
DestroyElem                                       output.o
DestroyList                                       output.o
DestroySessionData                                output.o
DestroySlotData                                   output.o
DestroyTlvData                                    output.o
DestroyTokenData                                  output.o
ECDH_OpenSSL                                      output.o
ECDH_compute_key                                  output.o
ECDH_get_default_method                           output.o
ECDH_get_ex_data                                  output.o
ECDH_get_ex_new_index                             output.o
ECDH_set_default_method                           output.o
ECDH_set_ex_data                                  output.o
ECDH_set_method                                   output.o
ECDH_version                                      output.o
ECDSA_OpenSSL                                     output.o
ECDSA_SIG_free                                    output.o
ECDSA_SIG_it                                      output.o
ECDSA_SIG_new                                     output.o
ECDSA_do_sign                                     output.o
ECDSA_do_sign_ex                                  output.o
ECDSA_do_verify                                   output.o
ECDSA_get_default_method                          output.o
ECDSA_get_ex_data                                 output.o
ECDSA_get_ex_new_index                            output.o
ECDSA_set_default_method                          output.o
ECDSA_set_ex_data                                 output.o
ECDSA_set_method                                  output.o
ECDSA_sign                                        output.o
ECDSA_sign_ex                                     output.o
ECDSA_sign_setup                                  output.o
ECDSA_size                                        output.o
ECDSA_verify                                      output.o
ECDSA_version                                     output.o
ECPARAMETERS_free                                 output.o
ECPARAMETERS_it                                   output.o
ECPARAMETERS_new                                  output.o
ECPKPARAMETERS_free                               output.o
ECPKPARAMETERS_it                                 output.o
ECPKPARAMETERS_new                                output.o
ECPKParameters_print                              output.o
ECParameters_print                                output.o
EC_EX_DATA_clear_free_all_data                    output.o
EC_EX_DATA_clear_free_data                        output.o
EC_EX_DATA_free_all_data                          output.o
EC_EX_DATA_free_data                              output.o
EC_EX_DATA_get_data                               output.o
EC_EX_DATA_set_data                               output.o
EC_GF2m_simple_method                             output.o
EC_GFp_mont_method                                output.o
EC_GFp_nist_method                                output.o
EC_GFp_simple_method                              output.o
EC_GROUP_check_discriminant                       output.o
EC_GROUP_clear_free                               output.o
EC_GROUP_cmp                                      output.o
EC_GROUP_copy                                     output.o
EC_GROUP_dup                                      output.o
EC_GROUP_free                                     output.o
EC_GROUP_get0_generator                           output.o
EC_GROUP_get0_seed                                output.o
EC_GROUP_get_asn1_flag                            output.o
EC_GROUP_get_basis_type                           output.o
EC_GROUP_get_cofactor                             output.o
EC_GROUP_get_curve_GF2m                           output.o
EC_GROUP_get_curve_GFp                            output.o
EC_GROUP_get_curve_name                           output.o
EC_GROUP_get_degree                               output.o
EC_GROUP_get_order                                output.o
EC_GROUP_get_pentanomial_basis                    output.o
EC_GROUP_get_point_conversion_form                output.o
EC_GROUP_get_seed_len                             output.o
EC_GROUP_get_trinomial_basis                      output.o
EC_GROUP_have_precompute_mult                     output.o
EC_GROUP_method_of                                output.o
EC_GROUP_new                                      output.o
EC_GROUP_new_by_curve_name                        output.o
EC_GROUP_new_curve_GF2m                           output.o
EC_GROUP_new_curve_GFp                            output.o
EC_GROUP_precompute_mult                          output.o
EC_GROUP_set_asn1_flag                            output.o
EC_GROUP_set_curve_GF2m                           output.o
EC_GROUP_set_curve_GFp                            output.o
EC_GROUP_set_curve_name                           output.o
EC_GROUP_set_generator                            output.o
EC_GROUP_set_point_conversion_form                output.o
EC_GROUP_set_seed                                 output.o
EC_KEY_check_key                                  output.o
EC_KEY_copy                                       output.o
EC_KEY_dup                                        output.o
EC_KEY_free                                       output.o
EC_KEY_generate_key                               output.o
EC_KEY_get0_group                                 output.o
EC_KEY_get0_private_key                           output.o
EC_KEY_get0_public_key                            output.o
EC_KEY_get_conv_form                              output.o
EC_KEY_get_enc_flags                              output.o
EC_KEY_get_key_method_data                        output.o
EC_KEY_insert_key_method_data                     output.o
EC_KEY_new                                        output.o
EC_KEY_new_by_curve_name                          output.o
EC_KEY_precompute_mult                            output.o
EC_KEY_print                                      output.o
EC_KEY_set_asn1_flag                              output.o
EC_KEY_set_conv_form                              output.o
EC_KEY_set_enc_flags                              output.o
EC_KEY_set_group                                  output.o
EC_KEY_set_private_key                            output.o
EC_KEY_set_public_key                             output.o
EC_KEY_up_ref                                     output.o
EC_METHOD_get_field_type                          output.o
EC_POINT_add                                      output.o
EC_POINT_bn2point                                 output.o
EC_POINT_clear_free                               output.o
EC_POINT_cmp                                      output.o
EC_POINT_copy                                     output.o
EC_POINT_dbl                                      output.o
EC_POINT_dup                                      output.o
EC_POINT_free                                     output.o
EC_POINT_get_Jprojective_coordinates_GFp          output.o
EC_POINT_get_affine_coordinates_GF2m              output.o
EC_POINT_get_affine_coordinates_GFp               output.o
EC_POINT_hex2point                                output.o
EC_POINT_invert                                   output.o
EC_POINT_is_at_infinity                           output.o
EC_POINT_is_on_curve                              output.o
EC_POINT_make_affine                              output.o
EC_POINT_method_of                                output.o
EC_POINT_mul                                      output.o
EC_POINT_new                                      output.o
EC_POINT_oct2point                                output.o
EC_POINT_point2bn                                 output.o
EC_POINT_point2hex                                output.o
EC_POINT_point2oct                                output.o
EC_POINT_set_Jprojective_coordinates_GFp          output.o
EC_POINT_set_affine_coordinates_GF2m              output.o
EC_POINT_set_affine_coordinates_GFp               output.o
EC_POINT_set_compressed_coordinates_GF2m          output.o
EC_POINT_set_compressed_coordinates_GFp           output.o
EC_POINT_set_to_infinity                          output.o
EC_POINTs_make_affine                             output.o
EC_POINTs_mul                                     output.o
EC_PRIVATEKEY_free                                output.o
EC_PRIVATEKEY_it                                  output.o
EC_PRIVATEKEY_new                                 output.o
EC_get_builtin_curves                             output.o
EDIPARTYNAME_free                                 output.o
EDIPARTYNAME_it                                   output.o
EDIPARTYNAME_new                                  output.o
EHDestroyEventHandler                             output.o
EHInitEventHandler                                output.o
EHStatusHandler                                   output.o
ERR_add_error_data                                output.o
ERR_clear_error                                   output.o
ERR_error_string                                  output.o
ERR_error_string_n                                output.o
ERR_free_strings                                  output.o
ERR_func_error_string                             output.o
ERR_get_err_state_table                           output.o
ERR_get_error                                     output.o
ERR_get_error_line                                output.o
ERR_get_error_line_data                           output.o
ERR_get_implementation                            output.o
ERR_get_next_error_library                        output.o
ERR_get_state                                     output.o
ERR_get_string_table                              output.o
ERR_lib_error_string                              output.o
ERR_load_ASN1_strings                             output.o
ERR_load_BIO_strings                              output.o
ERR_load_BN_strings                               output.o
ERR_load_BUF_strings                              output.o
ERR_load_CMS_strings                              output.o
ERR_load_COMP_strings                             output.o
ERR_load_CONF_strings                             output.o
ERR_load_CRYPTO_strings                           output.o
ERR_load_DH_strings                               output.o
ERR_load_DSA_strings                              output.o
ERR_load_DSO_strings                              output.o
ERR_load_ECDH_strings                             output.o
ERR_load_ECDSA_strings                            output.o
ERR_load_EC_strings                               output.o
ERR_load_ERR_strings                              output.o
ERR_load_EVP_strings                              output.o
ERR_load_OBJ_strings                              output.o
ERR_load_OCSP_strings                             output.o
ERR_load_PEM_strings                              output.o
ERR_load_PKCS12_strings                           output.o
ERR_load_PKCS7_strings                            output.o
ERR_load_RAND_strings                             output.o
ERR_load_RSA_strings                              output.o
ERR_load_TS_strings                               output.o
ERR_load_UI_strings                               output.o
ERR_load_X509V3_strings                           output.o
ERR_load_X509_strings                             output.o
ERR_load_crypto_strings                           output.o
ERR_load_strings                                  output.o
ERR_peek_error                                    output.o
ERR_peek_error_line                               output.o
ERR_peek_error_line_data                          output.o
ERR_peek_last_error                               output.o
ERR_peek_last_error_line                          output.o
ERR_peek_last_error_line_data                     output.o
ERR_pop_to_mark                                   output.o
ERR_print_errors                                  output.o
ERR_print_errors_cb                               output.o
ERR_put_error                                     output.o
ERR_reason_error_string                           output.o
ERR_release_err_state_table                       output.o
ERR_remove_state                                  output.o
ERR_remove_thread_state                           output.o
ERR_set_error_data                                output.o
ERR_set_implementation                            output.o
ERR_set_mark                                      output.o
ERR_unload_strings                                output.o
EVP_BytesToKey                                    output.o
EVP_CIPHER_CTX_block_size                         output.o
EVP_CIPHER_CTX_cipher                             output.o
EVP_CIPHER_CTX_cleanup                            output.o
EVP_CIPHER_CTX_clear_flags                        output.o
EVP_CIPHER_CTX_copy                               output.o
EVP_CIPHER_CTX_ctrl                               output.o
EVP_CIPHER_CTX_flags                              output.o
EVP_CIPHER_CTX_free                               output.o
EVP_CIPHER_CTX_get_app_data                       output.o
EVP_CIPHER_CTX_init                               output.o
EVP_CIPHER_CTX_iv_length                          output.o
EVP_CIPHER_CTX_key_length                         output.o
EVP_CIPHER_CTX_new                                output.o
EVP_CIPHER_CTX_nid                                output.o
EVP_CIPHER_CTX_rand_key                           output.o
EVP_CIPHER_CTX_set_app_data                       output.o
EVP_CIPHER_CTX_set_flags                          output.o
EVP_CIPHER_CTX_set_key_length                     output.o
EVP_CIPHER_CTX_set_padding                        output.o
EVP_CIPHER_CTX_test_flags                         output.o
EVP_CIPHER_asn1_to_param                          output.o
EVP_CIPHER_block_size                             output.o
EVP_CIPHER_do_all                                 output.o
EVP_CIPHER_do_all_sorted                          output.o
EVP_CIPHER_flags                                  output.o
EVP_CIPHER_get_asn1_iv                            output.o
EVP_CIPHER_iv_length                              output.o
EVP_CIPHER_key_length                             output.o
EVP_CIPHER_nid                                    output.o
EVP_CIPHER_param_to_asn1                          output.o
EVP_CIPHER_set_asn1_iv                            output.o
EVP_CIPHER_type                                   output.o
EVP_Cipher                                        output.o
EVP_CipherFinal                                   output.o
EVP_CipherFinal_ex                                output.o
EVP_CipherInit                                    output.o
EVP_CipherInit_ex                                 output.o
EVP_CipherUpdate                                  output.o
EVP_DecodeBlock                                   output.o
EVP_DecodeFinal                                   output.o
EVP_DecodeInit                                    output.o
EVP_DecodeUpdate                                  output.o
EVP_DecryptFinal                                  output.o
EVP_DecryptFinal_ex                               output.o
EVP_DecryptInit                                   output.o
EVP_DecryptInit_ex                                output.o
EVP_DecryptUpdate                                 output.o
EVP_Digest                                        output.o
EVP_DigestFinal                                   output.o
EVP_DigestFinal_ex                                output.o
EVP_DigestInit                                    output.o
EVP_DigestInit_ex                                 output.o
EVP_DigestSignFinal                               output.o
EVP_DigestSignInit                                output.o
EVP_DigestUpdate                                  output.o
EVP_DigestVerifyFinal                             output.o
EVP_DigestVerifyInit                              output.o
EVP_EncodeBlock                                   output.o
EVP_EncodeFinal                                   output.o
EVP_EncodeInit                                    output.o
EVP_EncodeUpdate                                  output.o
EVP_EncryptFinal                                  output.o
EVP_EncryptFinal_ex                               output.o
EVP_EncryptInit                                   output.o
EVP_EncryptInit_ex                                output.o
EVP_EncryptUpdate                                 output.o
EVP_MD_CTX_cleanup                                output.o
EVP_MD_CTX_clear_flags                            output.o
EVP_MD_CTX_copy                                   output.o
EVP_MD_CTX_copy_ex                                output.o
EVP_MD_CTX_create                                 output.o
EVP_MD_CTX_destroy                                output.o
EVP_MD_CTX_init                                   output.o
EVP_MD_CTX_md                                     output.o
EVP_MD_CTX_set_flags                              output.o
EVP_MD_CTX_test_flags                             output.o
EVP_MD_block_size                                 output.o
EVP_MD_do_all                                     output.o
EVP_MD_do_all_sorted                              output.o
EVP_MD_flags                                      output.o
EVP_MD_pkey_type                                  output.o
EVP_MD_size                                       output.o
EVP_MD_type                                       output.o
EVP_PBE_CipherInit                                output.o
EVP_PBE_alg_add                                   output.o
EVP_PBE_alg_add_type                              output.o
EVP_PBE_cleanup                                   output.o
EVP_PBE_find                                      output.o
EVP_PKCS82PKEY                                    output.o
EVP_PKEY2PKCS8                                    output.o
EVP_PKEY2PKCS8_broken                             output.o
EVP_PKEY_CTX_ctrl                                 output.o
EVP_PKEY_CTX_ctrl_str                             output.o
EVP_PKEY_CTX_dup                                  output.o
EVP_PKEY_CTX_free                                 output.o
EVP_PKEY_CTX_get0_peerkey                         output.o
EVP_PKEY_CTX_get0_pkey                            output.o
EVP_PKEY_CTX_get_app_data                         output.o
EVP_PKEY_CTX_get_cb                               output.o
EVP_PKEY_CTX_get_data                             output.o
EVP_PKEY_CTX_get_keygen_info                      output.o
EVP_PKEY_CTX_get_operation                        output.o
EVP_PKEY_CTX_new                                  output.o
EVP_PKEY_CTX_new_id                               output.o
EVP_PKEY_CTX_set0_keygen_info                     output.o
EVP_PKEY_CTX_set_app_data                         output.o
EVP_PKEY_CTX_set_cb                               output.o
EVP_PKEY_CTX_set_data                             output.o
EVP_PKEY_add1_attr                                output.o
EVP_PKEY_add1_attr_by_NID                         output.o
EVP_PKEY_add1_attr_by_OBJ                         output.o
EVP_PKEY_add1_attr_by_txt                         output.o
EVP_PKEY_asn1_add0                                output.o
EVP_PKEY_asn1_add_alias                           output.o
EVP_PKEY_asn1_copy                                output.o
EVP_PKEY_asn1_find                                output.o
EVP_PKEY_asn1_find_str                            output.o
EVP_PKEY_asn1_free                                output.o
EVP_PKEY_asn1_get0                                output.o
EVP_PKEY_asn1_get0_info                           output.o
EVP_PKEY_asn1_get_count                           output.o
EVP_PKEY_asn1_new                                 output.o
EVP_PKEY_asn1_set_ctrl                            output.o
EVP_PKEY_asn1_set_free                            output.o
EVP_PKEY_asn1_set_param                           output.o
EVP_PKEY_asn1_set_private                         output.o
EVP_PKEY_asn1_set_public                          output.o
EVP_PKEY_assign                                   output.o
EVP_PKEY_base_id                                  output.o
EVP_PKEY_bits                                     output.o
EVP_PKEY_cmp                                      output.o
EVP_PKEY_cmp_parameters                           output.o
EVP_PKEY_copy_parameters                          output.o
EVP_PKEY_decrypt                                  output.o
EVP_PKEY_decrypt_init                             output.o
EVP_PKEY_delete_attr                              output.o
EVP_PKEY_derive                                   output.o
EVP_PKEY_derive_init                              output.o
EVP_PKEY_derive_set_peer                          output.o
EVP_PKEY_encrypt                                  output.o
EVP_PKEY_encrypt_init                             output.o
EVP_PKEY_free                                     output.o
EVP_PKEY_get0                                     output.o
EVP_PKEY_get0_asn1                                output.o
EVP_PKEY_get1_DH                                  output.o
EVP_PKEY_get1_DSA                                 output.o
EVP_PKEY_get1_EC_KEY                              output.o
EVP_PKEY_get1_RSA                                 output.o
EVP_PKEY_get_attr                                 output.o
EVP_PKEY_get_attr_by_NID                          output.o
EVP_PKEY_get_attr_by_OBJ                          output.o
EVP_PKEY_get_attr_count                           output.o
EVP_PKEY_get_default_digest_nid                   output.o
EVP_PKEY_id                                       output.o
EVP_PKEY_keygen                                   output.o
EVP_PKEY_keygen_init                              output.o
EVP_PKEY_meth_add0                                output.o
EVP_PKEY_meth_find                                output.o
EVP_PKEY_meth_free                                output.o
EVP_PKEY_meth_new                                 output.o
EVP_PKEY_meth_set_cleanup                         output.o
EVP_PKEY_meth_set_copy                            output.o
EVP_PKEY_meth_set_ctrl                            output.o
EVP_PKEY_meth_set_decrypt                         output.o
EVP_PKEY_meth_set_derive                          output.o
EVP_PKEY_meth_set_encrypt                         output.o
EVP_PKEY_meth_set_init                            output.o
EVP_PKEY_meth_set_keygen                          output.o
EVP_PKEY_meth_set_paramgen                        output.o
EVP_PKEY_meth_set_sign                            output.o
EVP_PKEY_meth_set_signctx                         output.o
EVP_PKEY_meth_set_verify                          output.o
EVP_PKEY_meth_set_verify_recover                  output.o
EVP_PKEY_meth_set_verifyctx                       output.o
EVP_PKEY_missing_parameters                       output.o
EVP_PKEY_new                                      output.o
EVP_PKEY_new_mac_key                              output.o
EVP_PKEY_paramgen                                 output.o
EVP_PKEY_paramgen_init                            output.o
EVP_PKEY_print_params                             output.o
EVP_PKEY_print_private                            output.o
EVP_PKEY_print_public                             output.o
EVP_PKEY_save_parameters                          output.o
EVP_PKEY_set1_DH                                  output.o
EVP_PKEY_set1_DSA                                 output.o
EVP_PKEY_set1_EC_KEY                              output.o
EVP_PKEY_set1_RSA                                 output.o
EVP_PKEY_set_type                                 output.o
EVP_PKEY_set_type_str                             output.o
EVP_PKEY_sign                                     output.o
EVP_PKEY_sign_init                                output.o
EVP_PKEY_size                                     output.o
EVP_PKEY_type                                     output.o
EVP_PKEY_verify                                   output.o
EVP_PKEY_verify_init                              output.o
EVP_PKEY_verify_recover                           output.o
EVP_PKEY_verify_recover_init                      output.o
EVP_SignFinal                                     output.o
EVP_VerifyFinal                                   output.o
EVP_add_cipher                                    output.o
EVP_add_digest                                    output.o
EVP_aes_128_cbc                                   output.o
EVP_aes_128_cfb1                                  output.o
EVP_aes_128_cfb128                                output.o
EVP_aes_128_cfb8                                  output.o
EVP_aes_128_ecb                                   output.o
EVP_aes_128_ofb                                   output.o
EVP_aes_192_cbc                                   output.o
EVP_aes_192_cfb1                                  output.o
EVP_aes_192_cfb128                                output.o
EVP_aes_192_cfb8                                  output.o
EVP_aes_192_ecb                                   output.o
EVP_aes_192_ofb                                   output.o
EVP_aes_256_cbc                                   output.o
EVP_aes_256_cfb1                                  output.o
EVP_aes_256_cfb128                                output.o
EVP_aes_256_cfb8                                  output.o
EVP_aes_256_ecb                                   output.o
EVP_aes_256_ofb                                   output.o
EVP_bf_cbc                                        output.o
EVP_bf_cfb64                                      output.o
EVP_bf_ecb                                        output.o
EVP_bf_ofb                                        output.o
EVP_cast5_cbc                                     output.o
EVP_cast5_cfb64                                   output.o
EVP_cast5_ecb                                     output.o
EVP_cast5_ofb                                     output.o
EVP_cleanup                                       output.o
EVP_des_cbc                                       output.o
EVP_des_cfb1                                      output.o
EVP_des_cfb64                                     output.o
EVP_des_cfb8                                      output.o
EVP_des_ecb                                       output.o
EVP_des_ede                                       output.o
EVP_des_ede3                                      output.o
EVP_des_ede3_cbc                                  output.o
EVP_des_ede3_cfb1                                 output.o
EVP_des_ede3_cfb64                                output.o
EVP_des_ede3_cfb8                                 output.o
EVP_des_ede3_ecb                                  output.o
EVP_des_ede3_ofb                                  output.o
EVP_des_ede_cbc                                   output.o
EVP_des_ede_cfb64                                 output.o
EVP_des_ede_ecb                                   output.o
EVP_des_ede_ofb                                   output.o
EVP_des_ofb                                       output.o
EVP_desx_cbc                                      output.o
EVP_dss                                           output.o
EVP_dss1                                          output.o
EVP_ecdsa                                         output.o
EVP_get_cipherbyname                              output.o
EVP_get_digestbyname                              output.o
EVP_get_pw_prompt                                 output.o
EVP_idea_cbc                                      output.o
EVP_idea_cfb64                                    output.o
EVP_idea_ecb                                      output.o
EVP_idea_ofb                                      output.o
EVP_md4                                           output.o
EVP_md5                                           output.o
EVP_rc2_40_cbc                                    output.o
EVP_rc2_64_cbc                                    output.o
EVP_rc2_cbc                                       output.o
EVP_rc2_cfb64                                     output.o
EVP_rc2_ecb                                       output.o
EVP_rc2_ofb                                       output.o
EVP_rc4                                           output.o
EVP_rc4_40                                        output.o
EVP_read_pw_string                                output.o
EVP_read_pw_string_min                            output.o
EVP_ripemd160                                     output.o
EVP_set_pw_prompt                                 output.o
EVP_sha                                           output.o
EVP_sha1                                          output.o
EVP_sha224                                        output.o
EVP_sha256                                        output.o
EVP_sha384                                        output.o
EVP_sha512                                        output.o
EVP_version                                       output.o
EVP_whirlpool                                     output.o
EXTENDED_KEY_USAGE_free                           output.o
EXTENDED_KEY_USAGE_it                             output.o
EXTENDED_KEY_USAGE_new                            output.o
ExchangePPSData                                   output.o
FI                                                output.o
FindBaudRateTable                                 output.o
GENERAL_NAMES_free                                output.o
GENERAL_NAMES_it                                  output.o
GENERAL_NAMES_new                                 output.o
GENERAL_NAME_cmp                                  output.o
GENERAL_NAME_dup                                  output.o
GENERAL_NAME_free                                 output.o
GENERAL_NAME_get0_otherName                       output.o
GENERAL_NAME_get0_value                           output.o
GENERAL_NAME_it                                   output.o
GENERAL_NAME_new                                  output.o
GENERAL_NAME_print                                output.o
GENERAL_NAME_set0_othername                       output.o
GENERAL_NAME_set0_value                           output.o
GENERAL_SUBTREE_free                              output.o
GENERAL_SUBTREE_it                                output.o
GENERAL_SUBTREE_new                               output.o
GetAttrValType                                    output.o
GetBWICWIData                                     output.o
GetCardStatus                                     output.o
GetDirDataByTlv                                   output.o
GetElem                                           output.o
GetICCardData                                     output.o
GetIFSCData                                       output.o
GetLength                                         output.o
GetOdfDataByTlv                                   output.o
GetTlvByBuf                                       output.o
GetTokenDataByTlv                                 output.o
GetUlByByte                                       output.o
GetUlByTxt                                        output.o
GetValueData                                      output.o
GetVerByTex                                       output.o
HMAC                                              output.o
HMAC_CTX_cleanup                                  output.o
HMAC_CTX_copy                                     output.o
HMAC_CTX_init                                     output.o
HMAC_CTX_set_flags                                output.o
HMAC_Final                                        output.o
HMAC_Init                                         output.o
HMAC_Init_ex                                      output.o
HMAC_Update                                       output.o
HPSearchHotPluggables                             output.o
IDEA_version                                      output.o
IDMan_CheckCardStatus                             output.o
IDMan_CmCheckCRL                                  output.o
IDMan_CmChgRSA                                    output.o
IDMan_CmGetCertificateSign                        output.o
IDMan_CmGetDN                                     output.o
IDMan_CmGetPublicKey                              output.o
IDMan_CmMakeRand                                  output.o
IDMan_CmMkHash                                    output.o
IDMan_CmPadding                                   output.o
IDMan_CmPadding2                                  output.o
IDMan_EncryptByIndex                              output.o
IDMan_IPCheckCrlPkcX                              output.o
IDMan_IPCheckPKC                                  output.o
IDMan_IPCheckSignature                            output.o
IDMan_IPCrSignature                               output.o
IDMan_IPFinalize                                  output.o
IDMan_IPFinalizeReader                            output.o
IDMan_IPIdPassListMalloc                          output.o
IDMan_IPInitialize                                output.o
IDMan_IPInitializeReader                          output.o
IDMan_IPMkPublicKeyObj                            output.o
IDMan_IPMkRandHash                                output.o
IDMan_IPRetJudgment                               output.o
IDMan_IPSignatureVerify                           output.o
IDMan_IPgCIndexParamChk                           output.o
IDMan_IPgCParamChk                                output.o
IDMan_IPgIdxSParamChk                             output.o
IDMan_IPgSParamChk                                output.o
IDMan_IPgetCertIdxPKCS                            output.o
IDMan_IPgetCertPKCS                               output.o
IDMan_IPgetCertPkeyIdxPKCSx                       output.o
IDMan_IPgetCertPkeyPKCSx                          output.o
IDMan_IPgetCertPkeyPKCSy                          output.o
IDMan_IPgetHash                                   output.o
IDMan_IPgetMakeRandData                           output.o
IDMan_IPgetPrivateKey                             output.o
IDMan_IPgetPrivateKeyPKCSx                        output.o
IDMan_IPuAPKCS11IdxParamChk                       output.o
IDMan_IPuAPKCS11ParamChk                          output.o
IDMan_IPvSIdxParamChk                             output.o
IDMan_IPvSParamChk                                output.o
IDMan_PaddingParamChk                             output.o
IDMan_SCardConnect                                output.o
IDMan_SCardDisconnect                             output.o
IDMan_SCardEstablishContext                       output.o
IDMan_SCardListReaders                            output.o
IDMan_SCardReleaseContext                         output.o
IDMan_SCardSetBinay                               output.o
IDMan_SCardSizeLongToChar                         output.o
IDMan_SCardStatus                                 output.o
IDMan_SCardTransmit                               output.o
IDMan_StAtoi                                      output.o
IDMan_StAtol                                      output.o
IDMan_StFree                                      output.o
IDMan_StMalloc                                    output.o
IDMan_StMemcmp                                    output.o
IDMan_StMemcpy                                    output.o
IDMan_StMemset                                    output.o
IDMan_StReadSetData                               output.o
IDMan_StStrcat                                    output.o
IDMan_StStrchr                                    output.o
IDMan_StStrcmp                                    output.o
IDMan_StStrcpy                                    output.o
IDMan_StStrlen                                    output.o
IDMan_generateSignature                           output.o
IDMan_generateSignatureByIndex                    output.o
IDMan_getCertificate                              output.o
IDMan_getCertificateByIndex                       output.o
IDMan_getMemoryFree                               output.o
IDMan_getStaticPassword                           output.o
IDMan_userAuthPKCS11                              output.o
IDMan_userAuthPKCS11ByIndex                       output.o
IDMan_verifySignature                             output.o
IDMan_verifySignatureByIndex                      output.o
IFDHCloseChannel                                  output.o
IFDHControl                                       output.o
IFDHCreateChannel                                 output.o
IFDHGetCapabilities                               output.o
IFDHICCPresence                                   output.o
IFDHPowerICC                                      output.o
IFDHSetProtocolParameters                         output.o
IFDHTransmitToICC                                 output.o
ISSUING_DIST_POINT_free                           output.o
ISSUING_DIST_POINT_it                             output.o
ISSUING_DIST_POINT_new                            output.o
InitCryptoLibrary                                 output.o
InitLeaderCardProtocol                            output.o
InternalAuth                                      output.o
LONG_it                                           output.o
MD4_Final                                         output.o
MD4_Init                                          output.o
MD4_Transform                                     output.o
MD4_Update                                        output.o
MD4_version                                       output.o
MD5                                               output.o
MD5_Final                                         output.o
MD5_Init                                          output.o
MD5_Transform                                     output.o
MD5_Update                                        output.o
MD5_version                                       output.o
NAME_CONSTRAINTS_check                            output.o
NAME_CONSTRAINTS_free                             output.o
NAME_CONSTRAINTS_it                               output.o
NAME_CONSTRAINTS_new                              output.o
NCONF_WIN32                                       output.o
NCONF_default                                     output.o
NCONF_dump_bio                                    output.o
NCONF_free                                        output.o
NCONF_free_data                                   output.o
NCONF_get_number_e                                output.o
NCONF_get_section                                 output.o
NCONF_get_string                                  output.o
NCONF_load                                        output.o
NCONF_load_bio                                    output.o
NCONF_new                                         output.o
NETSCAPE_CERT_SEQUENCE_free                       output.o
NETSCAPE_CERT_SEQUENCE_it                         output.o
NETSCAPE_CERT_SEQUENCE_new                        output.o
NETSCAPE_SPKAC_free                               output.o
NETSCAPE_SPKAC_it                                 output.o
NETSCAPE_SPKAC_new                                output.o
NETSCAPE_SPKI_free                                output.o
NETSCAPE_SPKI_it                                  output.o
NETSCAPE_SPKI_new                                 output.o
NETSCAPE_SPKI_sign                                output.o
NETSCAPE_SPKI_verify                              output.o
NOTICEREF_free                                    output.o
NOTICEREF_it                                      output.o
NOTICEREF_new                                     output.o
OBJ_NAME_add                                      output.o
OBJ_NAME_cleanup                                  output.o
OBJ_NAME_do_all                                   output.o
OBJ_NAME_do_all_sorted                            output.o
OBJ_NAME_get                                      output.o
OBJ_NAME_init                                     output.o
OBJ_NAME_new_index                                output.o
OBJ_NAME_remove                                   output.o
OBJ_add_object                                    output.o
OBJ_add_sigid                                     output.o
OBJ_bsearch_                                      output.o
OBJ_bsearch_ex_                                   output.o
OBJ_cleanup                                       output.o
OBJ_cmp                                           output.o
OBJ_create                                        output.o
OBJ_create_objects                                output.o
OBJ_dup                                           output.o
OBJ_find_sigid_algs                               output.o
OBJ_find_sigid_by_algs                            output.o
OBJ_ln2nid                                        output.o
OBJ_new_nid                                       output.o
OBJ_nid2ln                                        output.o
OBJ_nid2obj                                       output.o
OBJ_nid2sn                                        output.o
OBJ_obj2nid                                       output.o
OBJ_obj2txt                                       output.o
OBJ_sigid_free                                    output.o
OBJ_sn2nid                                        output.o
OBJ_txt2nid                                       output.o
OBJ_txt2obj                                       output.o
OCSP_BASICRESP_free                               output.o
OCSP_BASICRESP_it                                 output.o
OCSP_BASICRESP_new                                output.o
OCSP_CERTID_free                                  output.o
OCSP_CERTID_it                                    output.o
OCSP_CERTID_new                                   output.o
OCSP_CERTSTATUS_free                              output.o
OCSP_CERTSTATUS_it                                output.o
OCSP_CERTSTATUS_new                               output.o
OCSP_CRLID_free                                   output.o
OCSP_CRLID_it                                     output.o
OCSP_CRLID_new                                    output.o
OCSP_ONEREQ_free                                  output.o
OCSP_ONEREQ_it                                    output.o
OCSP_ONEREQ_new                                   output.o
OCSP_REQINFO_free                                 output.o
OCSP_REQINFO_it                                   output.o
OCSP_REQINFO_new                                  output.o
OCSP_REQUEST_free                                 output.o
OCSP_REQUEST_it                                   output.o
OCSP_REQUEST_new                                  output.o
OCSP_RESPBYTES_free                               output.o
OCSP_RESPBYTES_it                                 output.o
OCSP_RESPBYTES_new                                output.o
OCSP_RESPDATA_free                                output.o
OCSP_RESPDATA_it                                  output.o
OCSP_RESPDATA_new                                 output.o
OCSP_RESPID_free                                  output.o
OCSP_RESPID_it                                    output.o
OCSP_RESPID_new                                   output.o
OCSP_RESPONSE_free                                output.o
OCSP_RESPONSE_it                                  output.o
OCSP_RESPONSE_new                                 output.o
OCSP_REVOKEDINFO_free                             output.o
OCSP_REVOKEDINFO_it                               output.o
OCSP_REVOKEDINFO_new                              output.o
OCSP_SERVICELOC_free                              output.o
OCSP_SERVICELOC_it                                output.o
OCSP_SERVICELOC_new                               output.o
OCSP_SIGNATURE_free                               output.o
OCSP_SIGNATURE_it                                 output.o
OCSP_SIGNATURE_new                                output.o
OCSP_SINGLERESP_free                              output.o
OCSP_SINGLERESP_it                                output.o
OCSP_SINGLERESP_new                               output.o
OPENSSL_NONPIC_relocated                          output.o
OPENSSL_asc2uni                                   output.o
OPENSSL_cleanse                                   output.o
OPENSSL_cpuid_setup                               output.o
OPENSSL_gmtime                                    output.o
OPENSSL_gmtime_adj                                output.o
OPENSSL_ia32cap_P                                 output.o
OPENSSL_ia32cap_loc                               output.o
OPENSSL_isservice                                 output.o
OPENSSL_showfatal                                 output.o
OPENSSL_stderr                                    output.o
OPENSSL_uni2asc                                   output.o
OSSL_DES_version                                  output.o
OSSL_libdes_version                               output.o
OTHERNAME_cmp                                     output.o
OTHERNAME_free                                    output.o
OTHERNAME_it                                      output.o
OTHERNAME_new                                     output.o
OpenSSLDie                                        output.o
OpenSSL_add_all_ciphers                           output.o
OpenSSL_add_all_digests                           output.o
OpenUSB                                           output.o
PBE2PARAM_free                                    output.o
PBE2PARAM_it                                      output.o
PBE2PARAM_new                                     output.o
PBEPARAM_free                                     output.o
PBEPARAM_it                                       output.o
PBEPARAM_new                                      output.o
PBKDF2PARAM_free                                  output.o
PBKDF2PARAM_it                                    output.o
PBKDF2PARAM_new                                   output.o
PEM_ASN1_read_bio                                 output.o
PEM_ASN1_write_bio                                output.o
PEM_bytes_read_bio                                output.o
PEM_def_callback                                  output.o
PEM_dek_info                                      output.o
PEM_do_header                                     output.o
PEM_get_EVP_CIPHER_INFO                           output.o
PEM_proc_type                                     output.o
PEM_read_bio                                      output.o
PEM_read_bio_CMS                                  output.o
PEM_read_bio_DHparams                             output.o
PEM_read_bio_DSAPrivateKey                        output.o
PEM_read_bio_DSA_PUBKEY                           output.o
PEM_read_bio_DSAparams                            output.o
PEM_read_bio_ECPKParameters                       output.o
PEM_read_bio_ECPrivateKey                         output.o
PEM_read_bio_EC_PUBKEY                            output.o
PEM_read_bio_NETSCAPE_CERT_SEQUENCE               output.o
PEM_read_bio_PKCS7                                output.o
PEM_read_bio_PKCS8                                output.o
PEM_read_bio_PKCS8_PRIV_KEY_INFO                  output.o
PEM_read_bio_PUBKEY                               output.o
PEM_read_bio_Parameters                           output.o
PEM_read_bio_PrivateKey                           output.o
PEM_read_bio_RSAPrivateKey                        output.o
PEM_read_bio_RSAPublicKey                         output.o
PEM_read_bio_RSA_PUBKEY                           output.o
PEM_read_bio_X509                                 output.o
PEM_read_bio_X509_CRL                             output.o
PEM_read_bio_X509_REQ                             output.o
PEM_version                                       output.o
PEM_write_bio                                     output.o
PEM_write_bio_ASN1_stream                         output.o
PEM_write_bio_CMS                                 output.o
PEM_write_bio_CMS_stream                          output.o
PEM_write_bio_DHparams                            output.o
PEM_write_bio_DSAPrivateKey                       output.o
PEM_write_bio_DSA_PUBKEY                          output.o
PEM_write_bio_DSAparams                           output.o
PEM_write_bio_ECPKParameters                      output.o
PEM_write_bio_ECPrivateKey                        output.o
PEM_write_bio_EC_PUBKEY                           output.o
PEM_write_bio_NETSCAPE_CERT_SEQUENCE              output.o
PEM_write_bio_PKCS7                               output.o
PEM_write_bio_PKCS8                               output.o
PEM_write_bio_PKCS8PrivateKey                     output.o
PEM_write_bio_PKCS8PrivateKey_nid                 output.o
PEM_write_bio_PKCS8_PRIV_KEY_INFO                 output.o
PEM_write_bio_PUBKEY                              output.o
PEM_write_bio_Parameters                          output.o
PEM_write_bio_PrivateKey                          output.o
PEM_write_bio_RSAPrivateKey                       output.o
PEM_write_bio_RSAPublicKey                        output.o
PEM_write_bio_RSA_PUBKEY                          output.o
PEM_write_bio_X509                                output.o
PEM_write_bio_X509_CRL                            output.o
PEM_write_bio_X509_REQ                            output.o
PEM_write_bio_X509_REQ_NEW                        output.o
PHGetProtocol                                     output.o
PHSetProtocol                                     output.o
PKCS12_AUTHSAFES_it                               output.o
PKCS12_BAGS_free                                  output.o
PKCS12_BAGS_it                                    output.o
PKCS12_BAGS_new                                   output.o
PKCS12_MAC_DATA_free                              output.o
PKCS12_MAC_DATA_it                                output.o
PKCS12_MAC_DATA_new                               output.o
PKCS12_MAKE_KEYBAG                                output.o
PKCS12_MAKE_SHKEYBAG                              output.o
PKCS12_PBE_add                                    output.o
PKCS12_PBE_keyivgen                               output.o
PKCS12_SAFEBAGS_it                                output.o
PKCS12_SAFEBAG_free                               output.o
PKCS12_SAFEBAG_it                                 output.o
PKCS12_SAFEBAG_new                                output.o
PKCS12_certbag2x509                               output.o
PKCS12_certbag2x509crl                            output.o
PKCS12_decrypt_skey                               output.o
PKCS12_free                                       output.o
PKCS12_it                                         output.o
PKCS12_item_decrypt_d2i                           output.o
PKCS12_item_i2d_encrypt                           output.o
PKCS12_item_pack_safebag                          output.o
PKCS12_key_gen_asc                                output.o
PKCS12_key_gen_uni                                output.o
PKCS12_new                                        output.o
PKCS12_pack_authsafes                             output.o
PKCS12_pack_p7data                                output.o
PKCS12_pack_p7encdata                             output.o
PKCS12_pbe_crypt                                  output.o
PKCS12_unpack_authsafes                           output.o
PKCS12_unpack_p7data                              output.o
PKCS12_unpack_p7encdata                           output.o
PKCS12_x5092certbag                               output.o
PKCS12_x509crl2certbag                            output.o
PKCS1_MGF1                                        output.o
PKCS5_PBE_add                                     output.o
PKCS5_PBE_keyivgen                                output.o
PKCS5_PBKDF2_HMAC                                 output.o
PKCS5_PBKDF2_HMAC_SHA1                            output.o
PKCS5_pbe2_set                                    output.o
PKCS5_pbe2_set_iv                                 output.o
PKCS5_pbe_set                                     output.o
PKCS5_pbe_set0_algor                              output.o
PKCS5_v2_PBE_keyivgen                             output.o
PKCS7_ATTR_SIGN_it                                output.o
PKCS7_ATTR_VERIFY_it                              output.o
PKCS7_DIGEST_free                                 output.o
PKCS7_DIGEST_it                                   output.o
PKCS7_DIGEST_new                                  output.o
PKCS7_ENCRYPT_free                                output.o
PKCS7_ENCRYPT_it                                  output.o
PKCS7_ENCRYPT_new                                 output.o
PKCS7_ENC_CONTENT_free                            output.o
PKCS7_ENC_CONTENT_it                              output.o
PKCS7_ENC_CONTENT_new                             output.o
PKCS7_ENVELOPE_free                               output.o
PKCS7_ENVELOPE_it                                 output.o
PKCS7_ENVELOPE_new                                output.o
PKCS7_ISSUER_AND_SERIAL_digest                    output.o
PKCS7_ISSUER_AND_SERIAL_free                      output.o
PKCS7_ISSUER_AND_SERIAL_it                        output.o
PKCS7_ISSUER_AND_SERIAL_new                       output.o
PKCS7_RECIP_INFO_free                             output.o
PKCS7_RECIP_INFO_get0_alg                         output.o
PKCS7_RECIP_INFO_it                               output.o
PKCS7_RECIP_INFO_new                              output.o
PKCS7_RECIP_INFO_set                              output.o
PKCS7_SIGNED_free                                 output.o
PKCS7_SIGNED_it                                   output.o
PKCS7_SIGNED_new                                  output.o
PKCS7_SIGNER_INFO_free                            output.o
PKCS7_SIGNER_INFO_get0_algs                       output.o
PKCS7_SIGNER_INFO_it                              output.o
PKCS7_SIGNER_INFO_new                             output.o
PKCS7_SIGNER_INFO_set                             output.o
PKCS7_SIGNER_INFO_sign                            output.o
PKCS7_SIGN_ENVELOPE_free                          output.o
PKCS7_SIGN_ENVELOPE_it                            output.o
PKCS7_SIGN_ENVELOPE_new                           output.o
PKCS7_add0_attrib_signing_time                    output.o
PKCS7_add1_attrib_digest                          output.o
PKCS7_add_attrib_content_type                     output.o
PKCS7_add_attrib_smimecap                         output.o
PKCS7_add_attribute                               output.o
PKCS7_add_certificate                             output.o
PKCS7_add_crl                                     output.o
PKCS7_add_recipient                               output.o
PKCS7_add_recipient_info                          output.o
PKCS7_add_signature                               output.o
PKCS7_add_signed_attribute                        output.o
PKCS7_add_signer                                  output.o
PKCS7_cert_from_signer_info                       output.o
PKCS7_content_new                                 output.o
PKCS7_ctrl                                        output.o
PKCS7_dataDecode                                  output.o
PKCS7_dataFinal                                   output.o
PKCS7_dataInit                                    output.o
PKCS7_dataVerify                                  output.o
PKCS7_digest_from_attributes                      output.o
PKCS7_dup                                         output.o
PKCS7_free                                        output.o
PKCS7_get_attribute                               output.o
PKCS7_get_issuer_and_serial                       output.o
PKCS7_get_signed_attribute                        output.o
PKCS7_get_signer_info                             output.o
PKCS7_get_smimecap                                output.o
PKCS7_it                                          output.o
PKCS7_new                                         output.o
PKCS7_print_ctx                                   output.o
PKCS7_set0_type_other                             output.o
PKCS7_set_attributes                              output.o
PKCS7_set_cipher                                  output.o
PKCS7_set_content                                 output.o
PKCS7_set_digest                                  output.o
PKCS7_set_signed_attributes                       output.o
PKCS7_set_type                                    output.o
PKCS7_signatureVerify                             output.o
PKCS7_simple_smimecap                             output.o
PKCS7_stream                                      output.o
PKCS8_PRIV_KEY_INFO_free                          output.o
PKCS8_PRIV_KEY_INFO_it                            output.o
PKCS8_PRIV_KEY_INFO_new                           output.o
PKCS8_decrypt                                     output.o
PKCS8_encrypt                                     output.o
PKCS8_pkey_get0                                   output.o
PKCS8_pkey_set0                                   output.o
PKCS8_set_broken                                  output.o
PKEY_USAGE_PERIOD_free                            output.o
PKEY_USAGE_PERIOD_it                              output.o
PKEY_USAGE_PERIOD_new                             output.o
POLICYINFO_free                                   output.o
POLICYINFO_it                                     output.o
POLICYINFO_new                                    output.o
POLICYQUALINFO_free                               output.o
POLICYQUALINFO_it                                 output.o
POLICYQUALINFO_new                                output.o
POLICY_CONSTRAINTS_free                           output.o
POLICY_CONSTRAINTS_it                             output.o
POLICY_CONSTRAINTS_new                            output.o
POLICY_MAPPINGS_it                                output.o
POLICY_MAPPING_free                               output.o
POLICY_MAPPING_it                                 output.o
POLICY_MAPPING_new                                output.o
PROXY_CERT_INFO_EXTENSION_free                    output.o
PROXY_CERT_INFO_EXTENSION_it                      output.o
PROXY_CERT_INFO_EXTENSION_new                     output.o
PROXY_POLICY_free                                 output.o
PROXY_POLICY_it                                   output.o
PROXY_POLICY_new                                  output.o
PowerOff                                          output.o
PowerOn                                           output.o
RAND_SSLeay                                       output.o
RAND_add                                          output.o
RAND_bytes                                        output.o
RAND_cleanup                                      output.o
RAND_get_rand_method                              output.o
RAND_poll                                         output.o
RAND_pseudo_bytes                                 output.o
RAND_seed                                         output.o
RAND_set_rand_method                              output.o
RAND_status                                       output.o
RAND_version                                      output.o
RC2_cbc_encrypt                                   output.o
RC2_cfb64_encrypt                                 output.o
RC2_decrypt                                       output.o
RC2_ecb_encrypt                                   output.o
RC2_encrypt                                       output.o
RC2_ofb64_encrypt                                 output.o
RC2_set_key                                       output.o
RC2_version                                       output.o
RC4                                               output.o
RC4_options                                       output.o
RC4_set_key                                       output.o
RC4_version                                       output.o
RFAddReader                                       output.o
RFCheckReaderEventState                           output.o
RFReaderInfoById                                  output.o
RFRemoveReader                                    output.o
RIPEMD160_Final                                   output.o
RIPEMD160_Init                                    output.o
RIPEMD160_Transform                               output.o
RIPEMD160_Update                                  output.o
RMD160_version                                    output.o
RSAPrivateKey_dup                                 output.o
RSAPrivateKey_it                                  output.o
RSAPublicKey_dup                                  output.o
RSAPublicKey_it                                   output.o
RSA_PKCS1_SSLeay                                  output.o
RSA_X931_hash_id                                  output.o
RSA_blinding_off                                  output.o
RSA_blinding_on                                   output.o
RSA_flags                                         output.o
RSA_free                                          output.o
RSA_generate_key                                  output.o
RSA_generate_key_ex                               output.o
RSA_get_default_method                            output.o
RSA_get_ex_data                                   output.o
RSA_get_ex_new_index                              output.o
RSA_get_method                                    output.o
RSA_memory_lock                                   output.o
RSA_new                                           output.o
RSA_new_method                                    output.o
RSA_padding_add_PKCS1_OAEP                        output.o
RSA_padding_add_PKCS1_PSS                         output.o
RSA_padding_add_PKCS1_type_1                      output.o
RSA_padding_add_PKCS1_type_2                      output.o
RSA_padding_add_SSLv23                            output.o
RSA_padding_add_X931                              output.o
RSA_padding_add_none                              output.o
RSA_padding_check_PKCS1_OAEP                      output.o
RSA_padding_check_PKCS1_type_1                    output.o
RSA_padding_check_PKCS1_type_2                    output.o
RSA_padding_check_SSLv23                          output.o
RSA_padding_check_X931                            output.o
RSA_padding_check_none                            output.o
RSA_private_decrypt                               output.o
RSA_private_encrypt                               output.o
RSA_public_decrypt                                output.o
RSA_public_encrypt                                output.o
RSA_set_default_method                            output.o
RSA_set_ex_data                                   output.o
RSA_set_method                                    output.o
RSA_setup_blinding                                output.o
RSA_sign                                          output.o
RSA_size                                          output.o
RSA_up_ref                                        output.o
RSA_verify                                        output.o
RSA_verify_PKCS1_PSS                              output.o
RSA_version                                       output.o
ReadBinary                                        output.o
ReadDataT0                                        output.o
ReadUSB                                           output.o
ReceiveReply                                      output.o
SCardBeginTransaction                             output.o
SCardConnect                                      output.o
SCardDisconnect                                   output.o
SCardEndTransaction                               output.o
SCardEstablishContext                             output.o
SCardListReaders                                  output.o
SCardReleaseContext                               output.o
SCardStatus                                       output.o
SCardTransmit                                     output.o
SHA1                                              output.o
SHA1_Final                                        output.o
SHA1_Init                                         output.o
SHA1_Transform                                    output.o
SHA1_Update                                       output.o
SHA1_version                                      output.o
SHA224                                            output.o
SHA224_Final                                      output.o
SHA224_Init                                       output.o
SHA224_Update                                     output.o
SHA256                                            output.o
SHA256_Final                                      output.o
SHA256_Init                                       output.o
SHA256_Transform                                  output.o
SHA256_Update                                     output.o
SHA256_version                                    output.o
SHA384                                            output.o
SHA384_Final                                      output.o
SHA384_Init                                       output.o
SHA384_Update                                     output.o
SHA512                                            output.o
SHA512_Final                                      output.o
SHA512_Init                                       output.o
SHA512_Transform                                  output.o
SHA512_Update                                     output.o
SHA512_version                                    output.o
SHA_Final                                         output.o
SHA_Init                                          output.o
SHA_Transform                                     output.o
SHA_Update                                        output.o
SHA_version                                       output.o
SMIME_crlf_copy                                   output.o
SMIME_read_ASN1                                   output.o
SMIME_read_CMS                                    output.o
SMIME_text                                        output.o
SMIME_write_ASN1                                  output.o
SMIME_write_CMS                                   output.o
STACK_version                                     output.o
SXNETID_free                                      output.o
SXNETID_it                                        output.o
SXNETID_new                                       output.o
SXNET_add_id_INTEGER                              output.o
SXNET_add_id_asc                                  output.o
SXNET_add_id_ulong                                output.o
SXNET_free                                        output.o
SXNET_get_id_INTEGER                              output.o
SXNET_get_id_asc                                  output.o
SXNET_get_id_ulong                                output.o
SXNET_it                                          output.o
SXNET_new                                         output.o
Se4AddArpEntryList                                output.o
Se4AdjustTcpMss                                   output.o
Se4And                                            output.o
Se4BitToHex                                       output.o
Se4BroadcastMacAddress                            output.o
Se4BuildIcmpEchoPacket                            output.o
Se4CheckUnicastAddress                            output.o
Se4Cmp                                            output.o
Se4CmpArpEntry                                    output.o
Se4CmpArpWaitEntry                                output.o
Se4CmpIpCombineList                               output.o
Se4CombineIp                                      output.o
Se4FlushArpEntryList                              output.o
Se4FlushIpCombineList                             output.o
Se4FlushIpWaitList                                output.o
Se4Free                                           output.o
Se4FreeArpEntryList                               output.o
Se4FreeArpWaitList                                output.o
Se4FreeIpCombine                                  output.o
Se4FreeIpCombineList                              output.o
Se4FreeIpFragmentList                             output.o
Se4FreeIpHeaderInfo                               output.o
Se4FreeIpWait                                     output.o
Se4FreeIpWaitList                                 output.o
Se4GenerateSubnetMask                             output.o
Se4GenerateSubnetMask32                           output.o
Se4GetBroadcastAddress                            output.o
Se4GetHostAddress                                 output.o
Se4GetNetworkAddress                              output.o
Se4IPToStr                                        output.o
Se4IPToStr32                                      output.o
Se4IPToUINT                                       output.o
Se4Init                                           output.o
Se4InitArpEntryList                               output.o
Se4InitArpWaitList                                output.o
Se4InitIpCombineList                              output.o
Se4InitIpFragmentList                             output.o
Se4InitIpWaitList                                 output.o
Se4InsertIpCombine                                output.o
Se4InsertIpWait                                   output.o
Se4IpCheckChecksum                                output.o
Se4IpChecksum                                     output.o
Se4IsBroadcastAddress                             output.o
Se4IsInSameNetwork                                output.o
Se4IsSubnetMask                                   output.o
Se4IsZeroIP                                       output.o
Se4MacIpRelationKnown                             output.o
Se4MainProc                                       output.o
Se4Not                                            output.o
Se4Or                                             output.o
Se4ParseIpPacket                                  output.o
Se4ParseIpPacketICMPv4                            output.o
Se4ParseIpPacketUDPv4                             output.o
Se4ProcessArpWaitList                             output.o
Se4RecvArp                                        output.o
Se4RecvArpRequest                                 output.o
Se4RecvArpResponse                                output.o
Se4RecvEthPacket                                  output.o
Se4RecvIp                                         output.o
Se4RecvIpComplete                                 output.o
Se4SearchArpEntryList                             output.o
Se4SearchArpWaitList                              output.o
Se4SearchIpCombineList                            output.o
Se4SendArpDoProcess                               output.o
Se4SendArpRequest                                 output.o
Se4SendArpResponse                                output.o
Se4SendEthPacket                                  output.o
Se4SendIcmp                                       output.o
Se4SendIcmpEchoRequest                            output.o
Se4SendIcmpEchoResponse                           output.o
Se4SendIp                                         output.o
Se4SendIpFragment                                 output.o
Se4SendIpFragmentNow                              output.o
Se4SendRawIp                                      output.o
Se4SendUdp                                        output.o
Se4SendWaitingIpWait                              output.o
Se4StrToIP                                        output.o
Se4StrToIP32                                      output.o
Se4Tick                                           output.o
Se4UINTToIP                                       output.o
Se4ZeroIP                                         output.o
Se6AddGuestNode                                   output.o
Se6AddNeighborEntryList                           output.o
Se6And                                            output.o
Se6BroadcastMacAddress                            output.o
Se6BuildIcmpEchoPacket                            output.o
Se6CalcChecksum                                   output.o
Se6CheckIPItemStr                                 output.o
Se6CheckSubnetLength                              output.o
Se6CheckUnicastAddress                            output.o
Se6Cmp                                            output.o
Se6CmpIpCombineList                               output.o
Se6CmpNdpWaitEntry                                output.o
Se6CmpNeighborEntry                               output.o
Se6CombineIp                                      output.o
Se6FlushIpCombineList                             output.o
Se6FlushIpWaitList                                output.o
Se6FlushNeighborEntryList                         output.o
Se6Free                                           output.o
Se6FreeIpCombine                                  output.o
Se6FreeIpCombineList                              output.o
Se6FreeIpFragmentList                             output.o
Se6FreeIpHeaderInfo                               output.o
Se6FreeIpWait                                     output.o
Se6FreeIpWaitList                                 output.o
Se6FreeNdpWaitList                                output.o
Se6FreeNeighborEntryList                          output.o
Se6GenerateEui64Address                           output.o
Se6GenerateEui64GlobalAddress                     output.o
Se6GenerateEui64LocalAddress                      output.o
Se6GenerateMulticastMacAddress                    output.o
Se6GenerateSubnetMask                             output.o
Se6GetAllNodeMulticastAddr                        output.o
Se6GetAllRouterMulticastAddr                      output.o
Se6GetHostAddress                                 output.o
Se6GetIPAddrType                                  output.o
Se6GetPrefixAddress                               output.o
Se6GetSoliciationMulticastAddr                    output.o
Se6IPItemStrToChars                               output.o
Se6IPToStr                                        output.o
Se6Init                                           output.o
Se6InitIpCombineList                              output.o
Se6InitIpFragmentList                             output.o
Se6InitIpWaitList                                 output.o
Se6InitNdpWaitList                                output.o
Se6InitNeighborEntryList                          output.o
Se6InsertIpCombine                                output.o
Se6InsertIpWait                                   output.o
Se6IpChecksum                                     output.o
Se6IsGuestNode                                    output.o
Se6IsInSameNetwork                                output.o
Se6IsNetworkPrefixAddress                         output.o
Se6IsSubnetMask                                   output.o
Se6IsZeroIP                                       output.o
Se6LocalSubnet                                    output.o
Se6MacIpRelationKnown                             output.o
Se6MainProc                                       output.o
Se6Not                                            output.o
Se6Or                                             output.o
Se6ParseIpPacket                                  output.o
Se6ParseIpPacketICMPv6                            output.o
Se6ParseIpPacketUDPv6                             output.o
Se6ProcessNdpWaitList                             output.o
Se6RecvEthPacket                                  output.o
Se6RecvIp                                         output.o
Se6RecvIpComplete                                 output.o
Se6SearchIpCombineList                            output.o
Se6SearchNdpWaitList                              output.o
Se6SearchNeighborEntryList                        output.o
Se6SendEthPacket                                  output.o
Se6SendIcmp                                       output.o
Se6SendIcmpEchoRequest                            output.o
Se6SendIcmpEchoResponse                           output.o
Se6SendIcmpNeighborAdvertisement                  output.o
Se6SendIcmpNeighborSoliciation                    output.o
Se6SendIcmpRouterAdvertisement                    output.o
Se6SendIp                                         output.o
Se6SendIpFragment                                 output.o
Se6SendIpFragmentNow                              output.o
Se6SendNeighborSoliciation                        output.o
Se6SendNeighborSoliciationDoProcess               output.o
Se6SendRawIp                                      output.o
Se6SendUdp                                        output.o
Se6SendWaitingIpWait                              output.o
Se6StrToIP                                        output.o
Se6SubnetMaskToInt                                output.o
Se6Tick                                           output.o
Se6ZeroIP                                         output.o
SeAdd                                             output.o
SeAddBufStr                                       output.o
SeAdjustBufSize                                   output.o
SeB64CharToCode                                   output.o
SeB64CodeToChar                                   output.o
SeB64Decode                                       output.o
SeB64Encode                                       output.o
SeBSearch                                         output.o
SeBigNumToBuf                                     output.o
SeBigNumToStr                                     output.o
SeBinToBigNum                                     output.o
SeBinToStr                                        output.o
SeBinToStrEx                                      output.o
SeBioToBuf                                        output.o
SeBioToCert                                       output.o
SeBioToKey                                        output.o
SeBufToBigNum                                     output.o
SeBufToBio                                        output.o
SeBufToCert                                       output.o
SeBufToKey                                        output.o
SeBuildAndAddIPv6PacketOptionHeader               output.o
SeBuildICMPv6OptionValue                          output.o
SeBuildICMPv6Options                              output.o
SeBuildIPv6Packet                                 output.o
SeBuildIPv6PacketWithFragment                     output.o
SeCalcReplaceStrEx                                output.o
SeCertToBio                                       output.o
SeCertToBuf                                       output.o
SeCheckCert                                       output.o
SeCheckCertAndKey                                 output.o
SeCheckSignature                                  output.o
SeClearBuf                                        output.o
SeClearFifo                                       output.o
SeClone                                           output.o
SeCloneBuf                                        output.o
SeCloneCert                                       output.o
SeCloneKey                                        output.o
SeCloneList                                       output.o
SeCmp                                             output.o
SeCmpBuf                                          output.o
SeCmpEx                                           output.o
SeCompareCert                                     output.o
SeCompareStr                                      output.o
SeCopy                                            output.o
SeCopyStr                                         output.o
SeCopyToArray                                     output.o
SeDebug                                           output.o
SeDebugBin                                        output.o
SeDefaultTokenSplitChars                          output.o
SeDelete                                          output.o
SeDeleteAll                                       output.o
SeDeleteLock                                      output.o
SeDes3Decrypt                                     output.o
SeDes3Encrypt                                     output.o
SeDes3FreeKey                                     output.o
SeDes3NewKey                                      output.o
SeDes3RandKey                                     output.o
SeDesFreeKey                                      output.o
SeDesFreeKeyValue                                 output.o
SeDesNewKey                                       output.o
SeDesNewKeyValue                                  output.o
SeDesRandKey                                      output.o
SeDesRandKeyValue                                 output.o
SeDhCompute                                       output.o
SeDhFree                                          output.o
SeDhNew                                           output.o
SeDhNewGroup2                                     output.o
SeDumpBuf                                         output.o
SeEndWith                                         output.o
SeEndian16                                        output.o
SeEndian32                                        output.o
SeEndian64                                        output.o
SeError                                           output.o
SeEthAddSenderMacList                             output.o
SeEthDeleteOldSenderMacList                       output.o
SeEthFree                                         output.o
SeEthGenRandMacAddress                            output.o
SeEthGetInfo                                      output.o
SeEthGetNextRecvPacket                            output.o
SeEthIsSenderMacAddressExistsInList               output.o
SeEthNew                                          output.o
SeEthNicCallback                                  output.o
SeEthParseEthernetPacket                          output.o
SeEthSend                                         output.o
SeEthSendAdd                                      output.o
SeEthSendAll                                      output.o
SeFastSwap                                        output.o
SeFatal                                           output.o
SeFifoSize                                        output.o
SeFormat                                          output.o
SeFormatArgs                                      output.o
SeFormatEx                                        output.o
SeFree                                            output.o
SeFreeBio                                         output.o
SeFreeBuf                                         output.o
SeFreeBufWithoutBuffer                            output.o
SeFreeCert                                        output.o
SeFreeConfigEntryList                             output.o
SeFreeCrypto                                      output.o
SeFreeFifo                                        output.o
SeFreeKernel                                      output.o
SeFreeKey                                         output.o
SeFreeList                                        output.o
SeFreePKey                                        output.o
SeFreePacket                                      output.o
SeFreePacketList                                  output.o
SeFreePacketListWithoutBuffer                     output.o
SeFreeQueue                                       output.o
SeFreeStack                                       output.o
SeFreeToken                                       output.o
SeFreeX509                                        output.o
SeGetCertIssuerName                               output.o
SeGetCertMd5                                      output.o
SeGetCertSha1                                     output.o
SeGetCertSubjectName                              output.o
SeGetConfigBin                                    output.o
SeGetConfigBool                                   output.o
SeGetConfigEntry                                  output.o
SeGetConfigInt                                    output.o
SeGetConfigInt64                                  output.o
SeGetConfigStr                                    output.o
SeGetCurrentCpuId                                 output.o
SeGetKeyAndValue                                  output.o
SeGetKeyFromCert                                  output.o
SeGetNext                                         output.o
SeGetNextHeaderFromQueue                          output.o
SeGetNextInt                                      output.o
SeHashForSignBySHA1                               output.o
SeHexTo4Bit                                       output.o
SeHexToInt                                        output.o
SeHexToInt64                                      output.o
SeIkeBuild                                        output.o
SeIkeBuildCertPayload                             output.o
SeIkeBuildCertRequestPayload                      output.o
SeIkeBuildDataPayload                             output.o
SeIkeBuildDeletePayload                           output.o
SeIkeBuildIdPayload                               output.o
SeIkeBuildNoticePayload                           output.o
SeIkeBuildPayload                                 output.o
SeIkeBuildPayloadList                             output.o
SeIkeBuildProposalPayload                         output.o
SeIkeBuildSaPayload                               output.o
SeIkeBuildTransformPayload                        output.o
SeIkeBuildTransformValue                          output.o
SeIkeBuildTransformValueList                      output.o
SeIkeDecrypt                                      output.o
SeIkeEncrypt                                      output.o
SeIkeEncryptWithPadding                           output.o
SeIkeFree                                         output.o
SeIkeFreeCertPayload                              output.o
SeIkeFreeCertRequestPayload                       output.o
SeIkeFreeDataPayload                              output.o
SeIkeFreeDeletePayload                            output.o
SeIkeFreeIdPayload                                output.o
SeIkeFreeNoticePayload                            output.o
SeIkeFreePayload                                  output.o
SeIkeFreePayloadList                              output.o
SeIkeFreeProposalPayload                          output.o
SeIkeFreeSaPayload                                output.o
SeIkeFreeTransformPayload                         output.o
SeIkeFreeTransformValueList                       output.o
SeIkeGetFirstPayloadType                          output.o
SeIkeGetIPv4Address                               output.o
SeIkeGetIPv6Address                               output.o
SeIkeGetPayload                                   output.o
SeIkeGetPayloadNum                                output.o
SeIkeInitIPv4Address                              output.o
SeIkeInitIPv6Address                              output.o
SeIkeIpAddressToStr                               output.o
SeIkeIsZeroIP                                     output.o
SeIkeNew                                          output.o
SeIkeNewCertPayload                               output.o
SeIkeNewCertRequestPayload                        output.o
SeIkeNewDataPayload                               output.o
SeIkeNewDeletePayload                             output.o
SeIkeNewIdPayload                                 output.o
SeIkeNewNoticePayload                             output.o
SeIkeNewPayload                                   output.o
SeIkeNewProposalPayload                           output.o
SeIkeNewSaPayload                                 output.o
SeIkeNewTransformPayload                          output.o
SeIkeNewTransformValue                            output.o
SeIkeParse                                        output.o
SeIkeParseCertPayload                             output.o
SeIkeParseCertRequestPayload                      output.o
SeIkeParseDataPayload                             output.o
SeIkeParseDeletePayload                           output.o
SeIkeParseEx                                      output.o
SeIkeParseHeader                                  output.o
SeIkeParseIdPayload                               output.o
SeIkeParseNoticePayload                           output.o
SeIkeParsePayload                                 output.o
SeIkeParsePayloadList                             output.o
SeIkeParsePayloadListEx                           output.o
SeIkeParseProposalPayload                         output.o
SeIkeParseSaPayload                               output.o
SeIkeParseTransformPayload                        output.o
SeIkeParseTransformValueList                      output.o
SeIkePhase1CryptIdToKeySize                       output.o
SeIkePhase2CryptIdToKeySize                       output.o
SeIkeStrToPassword                                output.o
SeIkeStrToPhase1CryptId                           output.o
SeIkeStrToPhase1HashId                            output.o
SeIkeStrToPhase2CryptId                           output.o
SeIkeStrToPhase2HashId                            output.o
SeInfo                                            output.o
SeInitCrypto                                      output.o
SeInitKernel                                      output.o
SeInsert                                          output.o
SeInsertQueue                                     output.o
SeInsertQueueInt                                  output.o
SeInsertStr                                       output.o
SeIntFree                                         output.o
SeIntInit                                         output.o
SeIsAllLowerStr                                   output.o
SeIsAllUpperStr                                   output.o
SeIsBase64                                        output.o
SeIsBigEndian                                     output.o
SeIsCertSignedByCert                              output.o
SeIsCharInStr                                     output.o
SeIsEmptyStr                                      output.o
SeIsInList                                        output.o
SeIsInListStr                                     output.o
SeIsLittleEndian                                  output.o
SeIsSplitChar                                     output.o
SeIsZero                                          output.o
SeKeyToBio                                        output.o
SeKeyToBuf                                        output.o
SeLoad                                            output.o
SeLoadCert                                        output.o
SeLoadConfigEntryList                             output.o
SeLoadConfigEntryListFromBuf                      output.o
SeLoadKey                                         output.o
SeLock                                            output.o
SeLog                                             output.o
SeLogArgs                                         output.o
SeMacSha1                                         output.o
SeMacSha196                                       output.o
SeMacToStr                                        output.o
SeMakeCharArray                                   output.o
SeMalloc                                          output.o
SeMd5                                             output.o
SeMemSize                                         output.o
SeMemToBuf                                        output.o
SeNewBio                                          output.o
SeNewBuf                                          output.o
SeNewFifo                                         output.o
SeNewList                                         output.o
SeNewLock                                         output.o
SeNewQueue                                        output.o
SeNewStack                                        output.o
SeNormalizeCrlf                                   output.o
SeNullTokenList                                   output.o
SePKeyPasswordCallbackFunction                    output.o
SeParseICMPv6Options                              output.o
SeParseIPv6ExtHeader                              output.o
SeParseIPv6Packet                                 output.o
SeParsePacket                                     output.o
SeParsePacketL2                                   output.o
SeParsePacketL3ARPv4                              output.o
SeParsePacketL3IPv4                               output.o
SeParsePacketL3IPv6                               output.o
SeParseToken                                      output.o
SeParseTokenWithNullStr                           output.o
SePeekFifo                                        output.o
SePeekNext                                        output.o
SePop                                             output.o
SePush                                            output.o
SeQSort                                           output.o
SeRand                                            output.o
SeRand1                                           output.o
SeRand16                                          output.o
SeRand32                                          output.o
SeRand64                                          output.o
SeRand8                                           output.o
SeRandBuf                                         output.o
SeReAlloc                                         output.o
SeReadBuf                                         output.o
SeReadBufFromBuf                                  output.o
SeReadBufInt                                      output.o
SeReadBufInt64                                    output.o
SeReadBufStr                                      output.o
SeReadDump                                        output.o
SeReadFifo                                        output.o
SeReadNextLine                                    output.o
SeReadRemainBuf                                   output.o
SeReplaceListPointer                              output.o
SeReplaceStr                                      output.o
SeReplaceStrEx                                    output.o
SeReplaceStri                                     output.o
SeRsaGen                                          output.o
SeRsaPrivateDecrypt                               output.o
SeRsaPrivateEncrypt                               output.o
SeRsaPublicDecrypt                                output.o
SeRsaPublicEncrypt                                output.o
SeRsaPublicSize                                   output.o
SeRsaPublicToBin                                  output.o
SeRsaPublicToBuf                                  output.o
SeRsaSign                                         output.o
SeRsaSignWithPadding                              output.o
SeRsaSignWithSha1                                 output.o
SeRsaVerifyWithPadding                            output.o
SeRsaVerifyWithSha1                               output.o
SeSave                                            output.o
SeSaveCert                                        output.o
SeSaveKey                                         output.o
SeSearch                                          output.o
SeSearchStr                                       output.o
SeSearchStrEx                                     output.o
SeSearchStri                                      output.o
SeSecAddTimer                                     output.o
SeSecCalcKEYMAT                                   output.o
SeSecCalcKEYMATFull                               output.o
SeSecCalcKa                                       output.o
SeSecCalcP1Iv                                     output.o
SeSecCalcP1KeySet                                 output.o
SeSecCalcP2Iv                                     output.o
SeSecCheckIPsecSaExpires                          output.o
SeSecCheckIkeSaExpires                            output.o
SeSecCmpIkeSa                                     output.o
SeSecDeleteExpiredIPsecSa                         output.o
SeSecDeleteExpiredIkeSa                           output.o
SeSecDoInterval                                   output.o
SeSecEspRecvCallback                              output.o
SeSecForceReconnect                               output.o
SeSecFree                                         output.o
SeSecFreeIPsecSa                                  output.o
SeSecFreeIkeSa                                    output.o
SeSecFreeMain                                     output.o
SeSecFreeP1KeySet                                 output.o
SeSecFreeSaList                                   output.o
SeSecGenIPsecSASpi                                output.o
SeSecGenIkeSaInitCookie                           output.o
SeSecGenIkeSaMessageId                            output.o
SeSecGetIPsecSa                                   output.o
SeSecInit                                         output.o
SeSecInitMain                                     output.o
SeSecInitSaList                                   output.o
SeSecLifeSeconds64bit                             output.o
SeSecNewIPsecSa                                   output.o
SeSecNewIkeSa                                     output.o
SeSecNewSpi                                       output.o
SeSecProcessIkeSaMsg                              output.o
SeSecProcessIkeSaMsgInfo                          output.o
SeSecProcessIkeSaMsgPhase1                        output.o
SeSecProcessIkeSaMsgPhase2                        output.o
SeSecProcessMain                                  output.o
SeSecSearchIPsecSaBySpi                           output.o
SeSecSearchIkeSa                                  output.o
SeSecSearchIkeSaBySpi                             output.o
SeSecSendEsp                                      output.o
SeSecSendIPsecSaDeleteMsg                         output.o
SeSecSendIkeSaDeleteMsg                           output.o
SeSecSendIkeSaMsgInfo                             output.o
SeSecSendIkeSaMsgInfoSimple                       output.o
SeSecSendIkeSaMsgPhase2                           output.o
SeSecSendIkeSaMsgPhase2FinalHash                  output.o
SeSecSendUdp                                      output.o
SeSecSendVirtualIp                                output.o
SeSecSetRecvEspCallback                           output.o
SeSecSetRecvUdpCallback                           output.o
SeSecSetRecvVirtualIpCallback                     output.o
SeSecSetTimerCallback                             output.o
SeSecStartVpnConnect                              output.o
SeSecStrToAuthMethod                              output.o
SeSecTick                                         output.o
SeSecTimerCallback                                output.o
SeSecUdpRecvCallback                              output.o
SeSecVirtualIpRecvCallback                        output.o
SeSeekBuf                                         output.o
SeSetCmp                                          output.o
SeSetSortFlag                                     output.o
SeSha1                                            output.o
SeSort                                            output.o
SeStartWith                                       output.o
SeStrCat                                          output.o
SeStrCheckLen                                     output.o
SeStrCheckSize                                    output.o
SeStrCmp                                          output.o
SeStrCmpi                                         output.o
SeStrCpy                                          output.o
SeStrLen                                          output.o
SeStrLower                                        output.o
SeStrSize                                         output.o
SeStrToBin                                        output.o
SeStrToBinEx                                      output.o
SeStrToMac                                        output.o
SeStrUpper                                        output.o
SeStrnCmp                                         output.o
SeStrnCmpi                                        output.o
SeSwap                                            output.o
SeSwap16                                          output.o
SeSwap32                                          output.o
SeSwap64                                          output.o
SeSysFreeData                                     output.o
SeSysFreeLock                                     output.o
SeSysFreeTimer                                    output.o
SeSysGetCurrentCpuId                              output.o
SeSysGetPhysicalNicInfo                           output.o
SeSysGetTickCount                                 output.o
SeSysGetVirtualNicInfo                            output.o
SeSysLoadData                                     output.o
SeSysLock                                         output.o
SeSysLog                                          output.o
SeSysMemoryAlloc                                  output.o
SeSysMemoryFree                                   output.o
SeSysMemoryReAlloc                                output.o
SeSysNewLock                                      output.o
SeSysNewTimer                                     output.o
SeSysRsaSign                                      output.o
SeSysSaveData                                     output.o
SeSysSendPhysicalNic                              output.o
SeSysSendVirtualNic                               output.o
SeSysSetPhysicalNicRecvCallback                   output.o
SeSysSetTimer                                     output.o
SeSysSetVirtualNicRecvCallback                    output.o
SeSysUnlock                                       output.o
SeTick                                            output.o
SeTick64                                          output.o
SeTick64Internal                                  output.o
SeTimerAdjust                                     output.o
SeTimerCallback                                   output.o
SeTimerEntryCompare                               output.o
SeTimerFree                                       output.o
SeTimerNew                                        output.o
SeTimerSet                                        output.o
SeToArray                                         output.o
SeToHex                                           output.o
SeToHex64                                         output.o
SeToInt                                           output.o
SeToInt64                                         output.o
SeToLower                                         output.o
SeToStr                                           output.o
SeToStr3                                          output.o
SeToStr64                                         output.o
SeToUpper                                         output.o
SeTrim                                            output.o
SeTrimCopy                                        output.o
SeTrimCrlf                                        output.o
SeTrimLeft                                        output.o
SeTrimRight                                       output.o
SeUniqueToken                                     output.o
SeUnlock                                          output.o
SeVpn4ClientAddTimer                              output.o
SeVpn4ClientGetTick                               output.o
SeVpn4ClientSendEsp                               output.o
SeVpn4ClientSendUdp                               output.o
SeVpn4ClientSendVirtualIp                         output.o
SeVpn4ClientSetRecvEspCallback                    output.o
SeVpn4ClientSetRecvUdpCallback                    output.o
SeVpn4ClientSetRecvVirtualIpCallback              output.o
SeVpn4ClientSetTimerCallback                      output.o
SeVpn4DhcpBuildDhcpOptionList                     output.o
SeVpn4DhcpFreeOptionList                          output.o
SeVpn4DhcpOptionsToBuf                            output.o
SeVpn4DhcpParseOptionList                         output.o
SeVpn4DhcpParseOptionListMain                     output.o
SeVpn4DhcpSearchOption                            output.o
SeVpn4DhcpSendResponse                            output.o
SeVpn4DhcpServer                                  output.o
SeVpn4DoInterval                                  output.o
SeVpn4Free                                        output.o
SeVpn4FreeIPsec                                   output.o
SeVpn4IPsecInputFromPhysical                      output.o
SeVpn4IPsecInputFromVirtual                       output.o
SeVpn4IPsecMainProc                               output.o
SeVpn4IPsecSendPing                               output.o
SeVpn4Init                                        output.o
SeVpn4InitIPsec                                   output.o
SeVpn4InitSecConfig                               output.o
SeVpn4MainProc                                    output.o
SeVpn4NewDhcpOption                               output.o
SeVpn4RecvPacketPhysical                          output.o
SeVpn4RecvPacketVirtual                           output.o
SeVpn4SetTimer                                    output.o
SeVpn4Tick                                        output.o
SeVpn6ClientAddTimer                              output.o
SeVpn6ClientGetTick                               output.o
SeVpn6ClientSendEsp                               output.o
SeVpn6ClientSendUdp                               output.o
SeVpn6ClientSendVirtualIp                         output.o
SeVpn6ClientSetRecvEspCallback                    output.o
SeVpn6ClientSetRecvUdpCallback                    output.o
SeVpn6ClientSetRecvVirtualIpCallback              output.o
SeVpn6ClientSetTimerCallback                      output.o
SeVpn6DoInterval                                  output.o
SeVpn6Free                                        output.o
SeVpn6FreeIPsec                                   output.o
SeVpn6IPsecInputFromPhysical                      output.o
SeVpn6IPsecInputFromVirtual                       output.o
SeVpn6IPsecMainProc                               output.o
SeVpn6IPsecSendPing                               output.o
SeVpn6Init                                        output.o
SeVpn6InitIPsec                                   output.o
SeVpn6InitSecConfig                               output.o
SeVpn6MainProc                                    output.o
SeVpn6RecvPacketPhysical                          output.o
SeVpn6RecvPacketVirtual                           output.o
SeVpn6SetTimer                                    output.o
SeVpn6Tick                                        output.o
SeVpn6UpdateGuestOsIpAddress                      output.o
SeVpnAddTimer                                     output.o
SeVpnDoInterval                                   output.o
SeVpnEthRecvCallback                              output.o
SeVpnFree                                         output.o
SeVpnFreeConfig                                   output.o
SeVpnFreeIpStack                                  output.o
SeVpnInit                                         output.o
SeVpnInitIpStack                                  output.o
SeVpnLoadConfig                                   output.o
SeVpnMainFree                                     output.o
SeVpnMainHandler                                  output.o
SeVpnMainInit                                     output.o
SeVpnMainProcRecvEtherPacket                      output.o
SeVpnMainProcess                                  output.o
SeVpnRecvEtherPacket                              output.o
SeVpnRecvIpV4PacketCallback                       output.o
SeVpnRecvIpV6PacketCallback                       output.o
SeVpnSendEtherPacket                              output.o
SeVpnStatusChanged                                output.o
SeVpnTick                                         output.o
SeVpnTimerCallback                                output.o
SeWarning                                         output.o
SeWriteBuf                                        output.o
SeWriteBufBuf                                     output.o
SeWriteBufInt                                     output.o
SeWriteBufInt64                                   output.o
SeWriteBufLine                                    output.o
SeWriteBufStr                                     output.o
SeWriteFifo                                       output.o
SeX509ToCert                                      output.o
SeZero                                            output.o
SeZeroMalloc                                      output.o
SelectFileDF                                      output.o
SelectFileEF                                      output.o
SetATR                                            output.o
SetElem                                           output.o
SetLength                                         output.o
StIsdigit                                         output.o
StIsspace                                         output.o
T0XfrBlockCHAR                                    output.o
T0XfrBlockTPDU                                    output.o
T1NegociateIFSD                                   output.o
T1XfrBlockExtendedAPDU                            output.o
T1XfrBlockTPDU                                    output.o
TransHex2Tex                                      output.o
TransTex2Hex                                      output.o
TransmitCommand                                   output.o
TransmitPPS                                       output.o
UI_OpenSSL                                        output.o
UI_add_error_string                               output.o
UI_add_info_string                                output.o
UI_add_input_boolean                              output.o
UI_add_input_string                               output.o
UI_add_user_data                                  output.o
UI_add_verify_string                              output.o
UI_construct_prompt                               output.o
UI_create_method                                  output.o
UI_ctrl                                           output.o
UI_destroy_method                                 output.o
UI_dup_error_string                               output.o
UI_dup_info_string                                output.o
UI_dup_input_boolean                              output.o
UI_dup_input_string                               output.o
UI_dup_verify_string                              output.o
UI_free                                           output.o
UI_get0_action_string                             output.o
UI_get0_output_string                             output.o
UI_get0_result                                    output.o
UI_get0_result_string                             output.o
UI_get0_test_string                               output.o
UI_get0_user_data                                 output.o
UI_get_default_method                             output.o
UI_get_ex_data                                    output.o
UI_get_ex_new_index                               output.o
UI_get_input_flags                                output.o
UI_get_method                                     output.o
UI_get_result_maxsize                             output.o
UI_get_result_minsize                             output.o
UI_get_string_type                                output.o
UI_method_get_closer                              output.o
UI_method_get_flusher                             output.o
UI_method_get_opener                              output.o
UI_method_get_prompt_constructor                  output.o
UI_method_get_reader                              output.o
UI_method_get_writer                              output.o
UI_method_set_closer                              output.o
UI_method_set_flusher                             output.o
UI_method_set_opener                              output.o
UI_method_set_prompt_constructor                  output.o
UI_method_set_reader                              output.o
UI_method_set_writer                              output.o
UI_new                                            output.o
UI_new_method                                     output.o
UI_process                                        output.o
UI_set_default_method                             output.o
UI_set_ex_data                                    output.o
UI_set_method                                     output.o
UI_set_result                                     output.o
USERNOTICE_free                                   output.o
USERNOTICE_it                                     output.o
USERNOTICE_new                                    output.o
UTF8_getc                                         output.o
UTF8_putc                                         output.o
UpdateBinary                                      output.o
VPN_IPsec_Client_Start                            output.o
VPN_IPsec_Client_Stop                             output.o
VPN_IPsec_Free                                    output.o
VPN_IPsec_Init                                    output.o
Verify                                            output.o
WHIRLPOOL                                         output.o
WHIRLPOOL_BitUpdate                               output.o
WHIRLPOOL_Final                                   output.o
WHIRLPOOL_Init                                    output.o
WHIRLPOOL_Update                                  output.o
WriteUSB                                          output.o
X509V3_EXT_CRL_add_conf                           output.o
X509V3_EXT_CRL_add_nconf                          output.o
X509V3_EXT_REQ_add_conf                           output.o
X509V3_EXT_REQ_add_nconf                          output.o
X509V3_EXT_add                                    output.o
X509V3_EXT_add_alias                              output.o
X509V3_EXT_add_conf                               output.o
X509V3_EXT_add_list                               output.o
X509V3_EXT_add_nconf                              output.o
X509V3_EXT_add_nconf_sk                           output.o
X509V3_EXT_cleanup                                output.o
X509V3_EXT_conf                                   output.o
X509V3_EXT_conf_nid                               output.o
X509V3_EXT_d2i                                    output.o
X509V3_EXT_get                                    output.o
X509V3_EXT_get_nid                                output.o
X509V3_EXT_i2d                                    output.o
X509V3_EXT_nconf                                  output.o
X509V3_EXT_nconf_nid                              output.o
X509V3_EXT_print                                  output.o
X509V3_EXT_val_prn                                output.o
X509V3_NAME_from_section                          output.o
X509V3_add1_i2d                                   output.o
X509V3_add_standard_extensions                    output.o
X509V3_add_value                                  output.o
X509V3_add_value_bool                             output.o
X509V3_add_value_bool_nf                          output.o
X509V3_add_value_int                              output.o
X509V3_add_value_uchar                            output.o
X509V3_conf_free                                  output.o
X509V3_extensions_print                           output.o
X509V3_get_d2i                                    output.o
X509V3_get_section                                output.o
X509V3_get_string                                 output.o
X509V3_get_value_bool                             output.o
X509V3_get_value_int                              output.o
X509V3_parse_list                                 output.o
X509V3_section_free                               output.o
X509V3_set_conf_lhash                             output.o
X509V3_set_ctx                                    output.o
X509V3_set_nconf                                  output.o
X509V3_string_free                                output.o
X509_ALGORS_it                                    output.o
X509_ALGOR_dup                                    output.o
X509_ALGOR_free                                   output.o
X509_ALGOR_get0                                   output.o
X509_ALGOR_it                                     output.o
X509_ALGOR_new                                    output.o
X509_ALGOR_set0                                   output.o
X509_ATTRIBUTE_SET_it                             output.o
X509_ATTRIBUTE_count                              output.o
X509_ATTRIBUTE_create                             output.o
X509_ATTRIBUTE_create_by_NID                      output.o
X509_ATTRIBUTE_create_by_OBJ                      output.o
X509_ATTRIBUTE_create_by_txt                      output.o
X509_ATTRIBUTE_dup                                output.o
X509_ATTRIBUTE_free                               output.o
X509_ATTRIBUTE_get0_data                          output.o
X509_ATTRIBUTE_get0_object                        output.o
X509_ATTRIBUTE_get0_type                          output.o
X509_ATTRIBUTE_it                                 output.o
X509_ATTRIBUTE_new                                output.o
X509_ATTRIBUTE_set1_data                          output.o
X509_ATTRIBUTE_set1_object                        output.o
X509_CERT_AUX_free                                output.o
X509_CERT_AUX_it                                  output.o
X509_CERT_AUX_new                                 output.o
X509_CERT_AUX_print                               output.o
X509_CERT_PAIR_free                               output.o
X509_CERT_PAIR_it                                 output.o
X509_CERT_PAIR_new                                output.o
X509_CINF_free                                    output.o
X509_CINF_it                                      output.o
X509_CINF_new                                     output.o
X509_CRL_INFO_free                                output.o
X509_CRL_INFO_it                                  output.o
X509_CRL_INFO_new                                 output.o
X509_CRL_METHOD_free                              output.o
X509_CRL_METHOD_new                               output.o
X509_CRL_add0_revoked                             output.o
X509_CRL_add1_ext_i2d                             output.o
X509_CRL_add_ext                                  output.o
X509_CRL_cmp                                      output.o
X509_CRL_delete_ext                               output.o
X509_CRL_digest                                   output.o
X509_CRL_dup                                      output.o
X509_CRL_free                                     output.o
X509_CRL_get0_by_cert                             output.o
X509_CRL_get0_by_serial                           output.o
X509_CRL_get_ext                                  output.o
X509_CRL_get_ext_by_NID                           output.o
X509_CRL_get_ext_by_OBJ                           output.o
X509_CRL_get_ext_by_critical                      output.o
X509_CRL_get_ext_count                            output.o
X509_CRL_get_ext_d2i                              output.o
X509_CRL_get_meth_data                            output.o
X509_CRL_it                                       output.o
X509_CRL_match                                    output.o
X509_CRL_new                                      output.o
X509_CRL_set_default_method                       output.o
X509_CRL_set_meth_data                            output.o
X509_CRL_sign                                     output.o
X509_CRL_verify                                   output.o
X509_EXTENSIONS_it                                output.o
X509_EXTENSION_create_by_NID                      output.o
X509_EXTENSION_create_by_OBJ                      output.o
X509_EXTENSION_dup                                output.o
X509_EXTENSION_free                               output.o
X509_EXTENSION_get_critical                       output.o
X509_EXTENSION_get_data                           output.o
X509_EXTENSION_get_object                         output.o
X509_EXTENSION_it                                 output.o
X509_EXTENSION_new                                output.o
X509_EXTENSION_set_critical                       output.o
X509_EXTENSION_set_data                           output.o
X509_EXTENSION_set_object                         output.o
X509_LOOKUP_by_alias                              output.o
X509_LOOKUP_by_fingerprint                        output.o
X509_LOOKUP_by_issuer_serial                      output.o
X509_LOOKUP_by_subject                            output.o
X509_LOOKUP_ctrl                                  output.o
X509_LOOKUP_free                                  output.o
X509_LOOKUP_init                                  output.o
X509_LOOKUP_new                                   output.o
X509_LOOKUP_shutdown                              output.o
X509_NAME_ENTRIES_it                              output.o
X509_NAME_ENTRY_create_by_NID                     output.o
X509_NAME_ENTRY_create_by_OBJ                     output.o
X509_NAME_ENTRY_create_by_txt                     output.o
X509_NAME_ENTRY_dup                               output.o
X509_NAME_ENTRY_free                              output.o
X509_NAME_ENTRY_get_data                          output.o
X509_NAME_ENTRY_get_object                        output.o
X509_NAME_ENTRY_it                                output.o
X509_NAME_ENTRY_new                               output.o
X509_NAME_ENTRY_set_data                          output.o
X509_NAME_ENTRY_set_object                        output.o
X509_NAME_INTERNAL_it                             output.o
X509_NAME_add_entry                               output.o
X509_NAME_add_entry_by_NID                        output.o
X509_NAME_add_entry_by_OBJ                        output.o
X509_NAME_add_entry_by_txt                        output.o
X509_NAME_cmp                                     output.o
X509_NAME_delete_entry                            output.o
X509_NAME_digest                                  output.o
X509_NAME_dup                                     output.o
X509_NAME_entry_count                             output.o
X509_NAME_free                                    output.o
X509_NAME_get_entry                               output.o
X509_NAME_get_index_by_NID                        output.o
X509_NAME_get_index_by_OBJ                        output.o
X509_NAME_get_text_by_NID                         output.o
X509_NAME_get_text_by_OBJ                         output.o
X509_NAME_hash                                    output.o
X509_NAME_hash_old                                output.o
X509_NAME_it                                      output.o
X509_NAME_new                                     output.o
X509_NAME_oneline                                 output.o
X509_NAME_print                                   output.o
X509_NAME_print_ex                                output.o
X509_NAME_set                                     output.o
X509_OBJECT_free_contents                         output.o
X509_OBJECT_idx_by_subject                        output.o
X509_OBJECT_retrieve_by_subject                   output.o
X509_OBJECT_retrieve_match                        output.o
X509_OBJECT_up_ref_count                          output.o
X509_POLICY_NODE_print                            output.o
X509_PUBKEY_free                                  output.o
X509_PUBKEY_get                                   output.o
X509_PUBKEY_get0_param                            output.o
X509_PUBKEY_it                                    output.o
X509_PUBKEY_new                                   output.o
X509_PUBKEY_set                                   output.o
X509_PUBKEY_set0_param                            output.o
X509_PURPOSE_add                                  output.o
X509_PURPOSE_cleanup                              output.o
X509_PURPOSE_get0                                 output.o
X509_PURPOSE_get0_name                            output.o
X509_PURPOSE_get0_sname                           output.o
X509_PURPOSE_get_by_id                            output.o
X509_PURPOSE_get_by_sname                         output.o
X509_PURPOSE_get_count                            output.o
X509_PURPOSE_get_id                               output.o
X509_PURPOSE_get_trust                            output.o
X509_PURPOSE_set                                  output.o
X509_REQ_INFO_free                                output.o
X509_REQ_INFO_it                                  output.o
X509_REQ_INFO_new                                 output.o
X509_REQ_add1_attr                                output.o
X509_REQ_add1_attr_by_NID                         output.o
X509_REQ_add1_attr_by_OBJ                         output.o
X509_REQ_add1_attr_by_txt                         output.o
X509_REQ_add_extensions                           output.o
X509_REQ_add_extensions_nid                       output.o
X509_REQ_check_private_key                        output.o
X509_REQ_delete_attr                              output.o
X509_REQ_digest                                   output.o
X509_REQ_dup                                      output.o
X509_REQ_extension_nid                            output.o
X509_REQ_free                                     output.o
X509_REQ_get1_email                               output.o
X509_REQ_get_attr                                 output.o
X509_REQ_get_attr_by_NID                          output.o
X509_REQ_get_attr_by_OBJ                          output.o
X509_REQ_get_attr_count                           output.o
X509_REQ_get_extension_nids                       output.o
X509_REQ_get_extensions                           output.o
X509_REQ_get_pubkey                               output.o
X509_REQ_it                                       output.o
X509_REQ_new                                      output.o
X509_REQ_set_extension_nids                       output.o
X509_REQ_set_pubkey                               output.o
X509_REQ_set_subject_name                         output.o
X509_REQ_set_version                              output.o
X509_REQ_sign                                     output.o
X509_REQ_verify                                   output.o
X509_REVOKED_add1_ext_i2d                         output.o
X509_REVOKED_add_ext                              output.o
X509_REVOKED_delete_ext                           output.o
X509_REVOKED_free                                 output.o
X509_REVOKED_get_ext                              output.o
X509_REVOKED_get_ext_by_NID                       output.o
X509_REVOKED_get_ext_by_OBJ                       output.o
X509_REVOKED_get_ext_by_critical                  output.o
X509_REVOKED_get_ext_count                        output.o
X509_REVOKED_get_ext_d2i                          output.o
X509_REVOKED_it                                   output.o
X509_REVOKED_new                                  output.o
X509_SIG_free                                     output.o
X509_SIG_it                                       output.o
X509_SIG_new                                      output.o
X509_STORE_CTX_cleanup                            output.o
X509_STORE_CTX_free                               output.o
X509_STORE_CTX_get0_current_crl                   output.o
X509_STORE_CTX_get0_current_issuer                output.o
X509_STORE_CTX_get0_param                         output.o
X509_STORE_CTX_get0_parent_ctx                    output.o
X509_STORE_CTX_get0_policy_tree                   output.o
X509_STORE_CTX_get1_chain                         output.o
X509_STORE_CTX_get1_issuer                        output.o
X509_STORE_CTX_get_chain                          output.o
X509_STORE_CTX_get_current_cert                   output.o
X509_STORE_CTX_get_error                          output.o
X509_STORE_CTX_get_error_depth                    output.o
X509_STORE_CTX_get_ex_data                        output.o
X509_STORE_CTX_get_ex_new_index                   output.o
X509_STORE_CTX_get_explicit_policy                output.o
X509_STORE_CTX_init                               output.o
X509_STORE_CTX_new                                output.o
X509_STORE_CTX_purpose_inherit                    output.o
X509_STORE_CTX_set0_crls                          output.o
X509_STORE_CTX_set0_param                         output.o
X509_STORE_CTX_set_cert                           output.o
X509_STORE_CTX_set_chain                          output.o
X509_STORE_CTX_set_default                        output.o
X509_STORE_CTX_set_depth                          output.o
X509_STORE_CTX_set_error                          output.o
X509_STORE_CTX_set_ex_data                        output.o
X509_STORE_CTX_set_flags                          output.o
X509_STORE_CTX_set_purpose                        output.o
X509_STORE_CTX_set_time                           output.o
X509_STORE_CTX_set_trust                          output.o
X509_STORE_CTX_set_verify_cb                      output.o
X509_STORE_CTX_trusted_stack                      output.o
X509_STORE_add_cert                               output.o
X509_STORE_add_crl                                output.o
X509_STORE_add_lookup                             output.o
X509_STORE_free                                   output.o
X509_STORE_get1_certs                             output.o
X509_STORE_get1_crls                              output.o
X509_STORE_get_by_subject                         output.o
X509_STORE_new                                    output.o
X509_STORE_set1_param                             output.o
X509_STORE_set_depth                              output.o
X509_STORE_set_flags                              output.o
X509_STORE_set_purpose                            output.o
X509_STORE_set_trust                              output.o
X509_STORE_set_verify_cb                          output.o
X509_TRUST_add                                    output.o
X509_TRUST_cleanup                                output.o
X509_TRUST_get0                                   output.o
X509_TRUST_get0_name                              output.o
X509_TRUST_get_by_id                              output.o
X509_TRUST_get_count                              output.o
X509_TRUST_get_flags                              output.o
X509_TRUST_get_trust                              output.o
X509_TRUST_set                                    output.o
X509_TRUST_set_default                            output.o
X509_VAL_free                                     output.o
X509_VAL_it                                       output.o
X509_VAL_new                                      output.o
X509_VERIFY_PARAM_add0_policy                     output.o
X509_VERIFY_PARAM_add0_table                      output.o
X509_VERIFY_PARAM_clear_flags                     output.o
X509_VERIFY_PARAM_free                            output.o
X509_VERIFY_PARAM_get_depth                       output.o
X509_VERIFY_PARAM_get_flags                       output.o
X509_VERIFY_PARAM_inherit                         output.o
X509_VERIFY_PARAM_lookup                          output.o
X509_VERIFY_PARAM_new                             output.o
X509_VERIFY_PARAM_set1                            output.o
X509_VERIFY_PARAM_set1_name                       output.o
X509_VERIFY_PARAM_set1_policies                   output.o
X509_VERIFY_PARAM_set_depth                       output.o
X509_VERIFY_PARAM_set_flags                       output.o
X509_VERIFY_PARAM_set_purpose                     output.o
X509_VERIFY_PARAM_set_time                        output.o
X509_VERIFY_PARAM_set_trust                       output.o
X509_VERIFY_PARAM_table_cleanup                   output.o
X509_add1_ext_i2d                                 output.o
X509_add1_reject_object                           output.o
X509_add1_trust_object                            output.o
X509_add_ext                                      output.o
X509_alias_get0                                   output.o
X509_alias_set1                                   output.o
X509_check_akid                                   output.o
X509_check_ca                                     output.o
X509_check_issued                                 output.o
X509_check_private_key                            output.o
X509_check_purpose                                output.o
X509_check_trust                                  output.o
X509_cmp                                          output.o
X509_cmp_current_time                             output.o
X509_cmp_time                                     output.o
X509_delete_ext                                   output.o
X509_digest                                       output.o
X509_dup                                          output.o
X509_email_free                                   output.o
X509_find_by_issuer_and_serial                    output.o
X509_find_by_subject                              output.o
X509_free                                         output.o
X509_get0_pubkey_bitstr                           output.o
X509_get1_email                                   output.o
X509_get1_ocsp                                    output.o
X509_get_default_cert_area                        output.o
X509_get_default_cert_dir                         output.o
X509_get_default_cert_dir_env                     output.o
X509_get_default_cert_file                        output.o
X509_get_default_cert_file_env                    output.o
X509_get_default_private_dir                      output.o
X509_get_ex_data                                  output.o
X509_get_ex_new_index                             output.o
X509_get_ext                                      output.o
X509_get_ext_by_NID                               output.o
X509_get_ext_by_OBJ                               output.o
X509_get_ext_by_critical                          output.o
X509_get_ext_count                                output.o
X509_get_ext_d2i                                  output.o
X509_get_issuer_name                              output.o
X509_get_pubkey                                   output.o
X509_get_pubkey_parameters                        output.o
X509_get_serialNumber                             output.o
X509_get_subject_name                             output.o
X509_gmtime_adj                                   output.o
X509_issuer_and_serial_cmp                        output.o
X509_issuer_and_serial_hash                       output.o
X509_issuer_name_cmp                              output.o
X509_issuer_name_hash                             output.o
X509_issuer_name_hash_old                         output.o
X509_it                                           output.o
X509_keyid_get0                                   output.o
X509_keyid_set1                                   output.o
X509_new                                          output.o
X509_ocspid_print                                 output.o
X509_policy_check                                 output.o
X509_policy_level_get0_node                       output.o
X509_policy_level_node_count                      output.o
X509_policy_node_get0_parent                      output.o
X509_policy_node_get0_policy                      output.o
X509_policy_node_get0_qualifiers                  output.o
X509_policy_tree_free                             output.o
X509_policy_tree_get0_level                       output.o
X509_policy_tree_get0_policies                    output.o
X509_policy_tree_get0_user_policies               output.o
X509_policy_tree_level_count                      output.o
X509_print                                        output.o
X509_print_ex                                     output.o
X509_pubkey_digest                                output.o
X509_reject_clear                                 output.o
X509_set_ex_data                                  output.o
X509_sign                                         output.o
X509_signature_print                              output.o
X509_subject_name_cmp                             output.o
X509_subject_name_hash                            output.o
X509_subject_name_hash_old                        output.o
X509_supported_extension                          output.o
X509_time_adj                                     output.o
X509_time_adj_ex                                  output.o
X509_to_X509_REQ                                  output.o
X509_trust_clear                                  output.o
X509_verify                                       output.o
X509_verify_cert                                  output.o
X509_version                                      output.o
X509at_add1_attr                                  output.o
X509at_add1_attr_by_NID                           output.o
X509at_add1_attr_by_OBJ                           output.o
X509at_add1_attr_by_txt                           output.o
X509at_delete_attr                                output.o
X509at_get0_data_by_OBJ                           output.o
X509at_get_attr                                   output.o
X509at_get_attr_by_NID                            output.o
X509at_get_attr_by_OBJ                            output.o
X509at_get_attr_count                             output.o
X509v3_add_ext                                    output.o
X509v3_delete_ext                                 output.o
X509v3_get_ext                                    output.o
X509v3_get_ext_by_NID                             output.o
X509v3_get_ext_by_OBJ                             output.o
X509v3_get_ext_by_critical                        output.o
X509v3_get_ext_count                              output.o
X9_62_CHARACTERISTIC_TWO_free                     output.o
X9_62_CHARACTERISTIC_TWO_it                       output.o
X9_62_CHARACTERISTIC_TWO_new                      output.o
X9_62_CURVE_it                                    output.o
X9_62_FIELDID_it                                  output.o
X9_62_PENTANOMIAL_free                            output.o
X9_62_PENTANOMIAL_it                              output.o
X9_62_PENTANOMIAL_new                             output.o
ZLONG_it                                          output.o
_CONF_add_string                                  output.o
_CONF_free_data                                   output.o
_CONF_get_section                                 output.o
_CONF_get_section_values                          output.o
_CONF_get_string                                  output.o
_CONF_new_data                                    output.o
_CONF_new_section                                 output.o
__initfunc_acpi_init_global                       output.o
__initfunc_acpi_init_paral                        output.o
__initfunc_ata_init                               output.o
__initfunc_beep_init_msg                          output.o
__initfunc_cache_init_pass                        output.o
__initfunc_cache_init_pcpu                        output.o
__initfunc_cache_init_vcpu                        output.o
__initfunc_callrealmode_init_global               output.o
__initfunc_callrealmode_panic                     output.o
__initfunc_copy_minios                            output.o
__initfunc_core_init                              output.o
__initfunc_cpu_mmu_spt_init_global                output.o
__initfunc_cpu_mmu_spt_init_pcpu                  output.o
__initfunc_cpuid_init                             output.o
__initfunc_cpuid_pass_init                        output.o
__initfunc_create_pass_vm                         output.o
__initfunc_debug_ata_init                         output.o
__initfunc_debug_on_shift_key                     output.o
__initfunc_ehci_init                              output.o
__initfunc_end                                    output.o
__initfunc_exint_pass_init                        output.o
__initfunc_get_shiftflags                         output.o
__initfunc_gmm_pass_init                          output.o
__initfunc_idman_init                             output.o
__initfunc_idman_init_global                      output.o
__initfunc_idman_kernel_init                      output.o
__initfunc_ieee1394_init                          output.o
__initfunc_ieee1394_init_boot                     output.o
__initfunc_install_int0x15_hook                   output.o
__initfunc_int_init_global                        output.o
__initfunc_int_wakeup                             output.o
__initfunc_io_io_init                             output.o
__initfunc_io_iopass_init                         output.o
__initfunc_iommu_setup                            output.o
__initfunc_keyboard_init_msg                      output.o
__initfunc_localapic_init                         output.o
__initfunc_mm_init_global                         output.o
__initfunc_mmio_debug                             output.o
__initfunc_mmio_init                              output.o
__initfunc_msg_init_global                        output.o
__initfunc_msr_init                               output.o
__initfunc_msr_pass_init                          output.o
__initfunc_nmi_pass_init                          output.o
__initfunc_nmi_pass_init_pcpu                     output.o
__initfunc_panic_init_global                      output.o
__initfunc_panic_init_global3                     output.o
__initfunc_panic_init_msg                         output.o
__initfunc_panic_init_pcpu                        output.o
__initfunc_pci_init                               output.o
__initfunc_print_boot_msg                         output.o
__initfunc_printf_init_global                     output.o
__initfunc_pro100_init                            output.o
__initfunc_process_init_ap                        output.o
__initfunc_process_init_global                    output.o
__initfunc_process_wakeup                         output.o
__initfunc_random_init_config0                    output.o
__initfunc_random_init_global                     output.o
__initfunc_reboot_init_msg                        output.o
__initfunc_resume_pro1000                         output.o
__initfunc_segment_init_global                    output.o
__initfunc_serial_init_msg                        output.o
__initfunc_setiohooks                             output.o
__initfunc_sleep_init_global                      output.o
__initfunc_sleep_init_msg                         output.o
__initfunc_start                                  output.o
__initfunc_storage_io_initfunc                    output.o
__initfunc_storage_kernel_init                    output.o
__initfunc_suspend_pro1000                        output.o
__initfunc_svm_panic                              output.o
__initfunc_sx_init_pass_init                      output.o
__initfunc_thread_init_global                     output.o
__initfunc_thread_init_pcpu                       output.o
__initfunc_time_init_global                       output.o
__initfunc_time_init_global_status                output.o
__initfunc_time_init_msg                          output.o
__initfunc_time_init_pcpu                         output.o
__initfunc_timer_init_global                      output.o
__initfunc_tty_init_global                        output.o
__initfunc_tty_init_global2                       output.o
__initfunc_tty_init_msg                           output.o
__initfunc_uhci_init                              output.o
__initfunc_unmap_user_area                        output.o
__initfunc_vcpu_init_global                       output.o
__initfunc_vga_init                               output.o
__initfunc_virtualization_init_pcpu               output.o
__initfunc_vmmcall_boot_init                      output.o
__initfunc_vmmcall_dbgsh_init                     output.o
__initfunc_vmmcall_dbgsh_init_global              output.o
__initfunc_vmmcall_dbgsh_init_pcpu                output.o
__initfunc_vmmcall_iccard_init                    output.o
__initfunc_vmmcall_init                           output.o
__initfunc_vmmcall_log_init                       output.o
__initfunc_vmmcall_status_init                    output.o
__initfunc_vmmcall_status_init_global             output.o
__initfunc_vpn_kernel_init                        output.o
__initfunc_vpn_pro1000_init                       output.o
__initfunc_vramwrite_init_bsp                     output.o
__initfunc_vramwrite_init_msg                     output.o
__initfunc_vt_panic                               output.o
__initfunc_vt_register_status_callback            output.o
__initfunc_xsetbv_init                            output.o
__initfunc_xsetbv_pass_init                       output.o
__process_builtin                                 output.o
__process_builtin_end                             output.o
_dprintf                                          output.o
_dprintft                                         output.o
_shadow_DES_check_key                             output.o
a2d_ASN1_OBJECT                                   output.o
a2i_ASN1_INTEGER                                  output.o
a2i_ASN1_STRING                                   output.o
a2i_GENERAL_NAME                                  output.o
a2i_IPADDRESS                                     output.o
a2i_IPADDRESS_NC                                  output.o
a2i_ipadd                                         output.o
acpi_dsdt_parse                                   output.o
acpi_dsdt_system_state                            output.o
acpi_iohook                                       output.o
acpi_poweroff                                     output.o
acpi_reset                                        output.o
acpi_smi_hook                                     output.o
add_remap                                         output.o
aes_xts_init                                      output.o
ahci_config_read                                  output.o
ahci_config_write                                 output.o
ahci_new                                          output.o
alloc                                             output.o
alloc2                                            output.o
alloc_handler_descriptor                          output.o
alloc_page                                        output.o
alloc_pages                                       output.o
alloc_realmodemem                                 output.o
allocateNewAppID                                  output.o
allocateNewApplicationIdentifiers                 output.o
allocateNewVMID                                   output.o
ap_start_addr                                     output.o
apic_available                                    output.o
apinit_lock                                       output.o
apinit_procs                                      output.o
apinitproc0                                       output.o
app_pkey_methods                                  output.o
asm_vmlaunch_regs_32                              output.o
asm_vmlaunch_regs_64                              output.o
asm_vmresume_regs_32                              output.o
asm_vmresume_regs_64                              output.o
asm_vmrun_regs_32                                 output.o
asm_vmrun_regs_64                                 output.o
asn1_Finish                                       output.o
asn1_GetSequence                                  output.o
asn1_add_error                                    output.o
asn1_const_Finish                                 output.o
asn1_do_adb                                       output.o
asn1_do_lock                                      output.o
asn1_enc_free                                     output.o
asn1_enc_init                                     output.o
asn1_enc_restore                                  output.o
asn1_enc_save                                     output.o
asn1_ex_c2i                                       output.o
asn1_ex_i2c                                       output.o
asn1_get_choice_selector                          output.o
asn1_get_field_ptr                                output.o
asn1_set_choice_selector                          output.o
asn1_template_print_ctx                           output.o
assertion_failed                                  output.o
ata_ahci_mode                                     output.o
ata_bm_handle_command                             output.o
ata_bm_handle_device_specific                     output.o
ata_bm_handle_prd_table                           output.o
ata_bm_handle_status                              output.o
ata_bm_handler                                    output.o
ata_bm_handler_table                              output.o
ata_channel_lock                                  output.o
ata_channel_unlock                                output.o
ata_cmdblk_handler                                output.o
ata_cmdblk_handler_table                          output.o
ata_config_read                                   output.o
ata_config_write                                  output.o
ata_ctlblk_handler                                output.o
ata_ctlblk_handler_table                          output.o
ata_get_cmd_type                                  output.o
ata_handle_queued_status                          output.o
ata_init_io_handler                               output.o
ata_init_vendor                                   output.o
ata_set_bm_handler                                output.o
ata_set_cmdblk_handler                            output.o
ata_set_ctlblk_handler                            output.o
atapi_handle_cmd_packet                           output.o
atapi_handle_config_data                          output.o
atapi_handle_interrupt_reason                     output.o
atapi_handle_packet_data                          output.o
atapi_handle_pio_identify_packet                  output.o
auto_reboot                                       output.o
backtrace                                         output.o
beep_off                                          output.o
beep_on                                           output.o
beep_set_freq                                     output.o
bn_add_part_words                                 output.o
bn_add_words                                      output.o
bn_cmp_part_words                                 output.o
bn_cmp_words                                      output.o
bn_div_words                                      output.o
bn_dup_expand                                     output.o
bn_expand2                                        output.o
bn_mul_add_words                                  output.o
bn_mul_comba4                                     output.o
bn_mul_comba8                                     output.o
bn_mul_high                                       output.o
bn_mul_low_normal                                 output.o
bn_mul_low_recursive                              output.o
bn_mul_normal                                     output.o
bn_mul_part_recursive                             output.o
bn_mul_recursive                                  output.o
bn_mul_words                                      output.o
bn_sqr_comba4                                     output.o
bn_sqr_comba8                                     output.o
bn_sqr_normal                                     output.o
bn_sqr_recursive                                  output.o
bn_sqr_words                                      output.o
bn_sub_part_words                                 output.o
bn_sub_words                                      output.o
bss                                               output.o
c2i_ASN1_BIT_STRING                               output.o
c2i_ASN1_INTEGER                                  output.o
c2i_ASN1_OBJECT                                   output.o
cache_get_attr                                    output.o
cache_get_gmsr_amd                                output.o
cache_get_gmtrr                                   output.o
cache_get_gmtrr_attr                              output.o
cache_get_gmtrr_type                              output.o
cache_get_gmtrrcap                                output.o
cache_get_gpat                                    output.o
cache_set_gmsr_amd                                output.o
cache_set_gmtrr                                   output.o
cache_set_gpat                                    output.o
call_cpuid                                        output.o
call_initfunc                                     output.o
call_io                                           output.o
call_read_msr                                     output.o
call_write_msr                                    output.o
call_xsetbv                                       output.o
callfunc_and_getint                               output.o
callrealmode_bootcd_getstatus                     output.o
callrealmode_disk_readlba                         output.o
callrealmode_disk_readmbr                         output.o
callrealmode_end                                  output.o
callrealmode_endofcodeaddr                        output.o
callrealmode_getfontinfo                          output.o
callrealmode_getshiftflags                        output.o
callrealmode_getsysmemmap                         output.o
callrealmode_printmsg                             output.o
callrealmode_reboot                               output.o
callrealmode_setcursorpos                         output.o
callrealmode_setvideomode                         output.o
callrealmode_start                                output.o
callrealmode_start2                               output.o
callrealmode_startkernel32                        output.o
callrealmode_tcgbios                              output.o
callrealmode_usevcpu                              output.o
cancel_sleep                                      output.o
changePageStatus                                  output.o
check_defer                                       output.o
chelp_abort                                       output.o
chelp_bsearch                                     output.o
chelp_div_64_32_32                                output.o
chelp_div_64_32_64                                output.o
chelp_free                                        output.o
chelp_inited                                      output.o
chelp_isalnum                                     output.o
chelp_isalpha                                     output.o
chelp_isdigit                                     output.o
chelp_islower                                     output.o
chelp_isspace                                     output.o
chelp_isupper                                     output.o
chelp_isxdigit                                    output.o
chelp_malloc                                      output.o
chelp_memchr                                      output.o
chelp_memcmp                                      output.o
chelp_memcpy                                      output.o
chelp_memmove                                     output.o
chelp_memset                                      output.o
chelp_mod_64_32_32                                output.o
chelp_mul_64_64_64                                output.o
chelp_print                                       output.o
chelp_printf                                      output.o
chelp_qsort                                       output.o
chelp_realloc                                     output.o
chelp_snprintf                                    output.o
chelp_sprintf                                     output.o
chelp_strcat                                      output.o
chelp_strchr                                      output.o
chelp_strcmp                                      output.o
chelp_strcpy                                      output.o
chelp_stricmp                                     output.o
chelp_strlen                                      output.o
chelp_strncasecmp                                 output.o
chelp_strncmp                                     output.o
chelp_strncpy                                     output.o
chelp_strrchr                                     output.o
chelp_strtol                                      output.o
chelp_strtoul                                     output.o
chelp_strtoul_ex                                  output.o
chelp_swap                                        output.o
chelp_tolower                                     output.o
chelp_toupper                                     output.o
cleanse_ctr                                       output.o
clear_guest_status                                output.o
clflush_size                                      output.o
closePage                                         output.o
cmpxchg_gphys_l                                   output.o
cmpxchg_gphys_q                                   output.o
cmpxchg_hphys_l                                   output.o
cmpxchg_hphys_q                                   output.o
cms_Data_create                                   output.o
cms_DigestAlgorithm_find_ctx                      output.o
cms_DigestAlgorithm_init_bio                      output.o
cms_DigestAlgorithm_set                           output.o
cms_DigestedData_create                           output.o
cms_DigestedData_do_final                         output.o
cms_DigestedData_init_bio                         output.o
cms_EncryptedContent_init                         output.o
cms_EncryptedContent_init_bio                     output.o
cms_EncryptedData_init_bio                        output.o
cms_EnvelopedData_init_bio                        output.o
cms_SignedData_final                              output.o
cms_SignedData_init_bio                           output.o
cms_SignerIdentifier_cert_cmp                     output.o
cms_SignerIdentifier_get0_signer_id               output.o
cms_content_bio                                   output.o
cms_set1_SignerIdentifier                         output.o
config                                            output.o
copy_bootsector                                   output.o
core_init                                         output.o
core_io_handle_default                            output.o
core_io_modify_handler                            output.o
core_io_register_handler                          output.o
core_io_unregister_handler                        output.o
core_mm_read_guest_phys                           output.o
core_mm_write_guest_phys                          output.o
cpu_emul_cli                                      output.o
cpu_emul_cpuid                                    output.o
cpu_emul_hlt                                      output.o
cpu_emul_rdmsr                                    output.o
cpu_emul_realmode_int                             output.o
cpu_emul_sti                                      output.o
cpu_emul_wrmsr                                    output.o
cpu_emul_xsetbv                                   output.o
cpu_interpreter                                   output.o
cpu_mmu_get_pte                                   output.o
cpu_mmu_spt_clear_all                             output.o
cpu_mmu_spt_extern_mapsearch                      output.o
cpu_mmu_spt_init                                  output.o
cpu_mmu_spt_invalidate                            output.o
cpu_mmu_spt_map_1mb                               output.o
cpu_mmu_spt_pagefault                             output.o
cpu_mmu_spt_tlbflush                              output.o
cpu_mmu_spt_updatecr3                             output.o
cpu_seg_read_b                                    output.o
cpu_seg_read_l                                    output.o
cpu_seg_read_q                                    output.o
cpu_seg_read_w                                    output.o
cpu_seg_write_b                                   output.o
cpu_seg_write_l                                   output.o
cpu_seg_write_q                                   output.o
cpu_seg_write_w                                   output.o
cpu_stack_get                                     output.o
cpu_stack_pop                                     output.o
cpu_stack_push                                    output.o
cpu_stack_set                                     output.o
cpuinit_end                                       output.o
cpuinit_start                                     output.o
create_dom                                        output.o
crypt_sys_rsa_sign                                output.o
crypto_find                                       output.o
crypto_init                                       output.o
crypto_none_init                                  output.o
crypto_register                                   output.o
currentRunningApplication                         output.o
curthread                                         output.o
d2i_ACCESS_DESCRIPTION                            output.o
d2i_ASN1_BIT_STRING                               output.o
d2i_ASN1_BMPSTRING                                output.o
d2i_ASN1_BOOLEAN                                  output.o
d2i_ASN1_ENUMERATED                               output.o
d2i_ASN1_GENERALIZEDTIME                          output.o
d2i_ASN1_GENERALSTRING                            output.o
d2i_ASN1_IA5STRING                                output.o
d2i_ASN1_INTEGER                                  output.o
d2i_ASN1_NULL                                     output.o
d2i_ASN1_OBJECT                                   output.o
d2i_ASN1_OCTET_STRING                             output.o
d2i_ASN1_PRINTABLE                                output.o
d2i_ASN1_PRINTABLESTRING                          output.o
d2i_ASN1_SEQUENCE_ANY                             output.o
d2i_ASN1_SET                                      output.o
d2i_ASN1_SET_ANY                                  output.o
d2i_ASN1_T61STRING                                output.o
d2i_ASN1_TIME                                     output.o
d2i_ASN1_TYPE                                     output.o
d2i_ASN1_UINTEGER                                 output.o
d2i_ASN1_UNIVERSALSTRING                          output.o
d2i_ASN1_UTCTIME                                  output.o
d2i_ASN1_UTF8STRING                               output.o
d2i_ASN1_VISIBLESTRING                            output.o
d2i_ASN1_bytes                                    output.o
d2i_ASN1_type_bytes                               output.o
d2i_AUTHORITY_INFO_ACCESS                         output.o
d2i_AUTHORITY_KEYID                               output.o
d2i_AutoPrivateKey                                output.o
d2i_BASIC_CONSTRAINTS                             output.o
d2i_CERTIFICATEPOLICIES                           output.o
d2i_CMS_ContentInfo                               output.o
d2i_CMS_bio                                       output.o
d2i_CRL_DIST_POINTS                               output.o
d2i_DHparams                                      output.o
d2i_DIRECTORYSTRING                               output.o
d2i_DISPLAYTEXT                                   output.o
d2i_DIST_POINT                                    output.o
d2i_DIST_POINT_NAME                               output.o
d2i_DSAPrivateKey                                 output.o
d2i_DSAPrivateKey_bio                             output.o
d2i_DSAPublicKey                                  output.o
d2i_DSA_PUBKEY                                    output.o
d2i_DSA_PUBKEY_bio                                output.o
d2i_DSA_SIG                                       output.o
d2i_DSAparams                                     output.o
d2i_ECDSA_SIG                                     output.o
d2i_ECPKPARAMETERS                                output.o
d2i_ECPKParameters                                output.o
d2i_ECParameters                                  output.o
d2i_ECPrivateKey                                  output.o
d2i_ECPrivateKey_bio                              output.o
d2i_EC_PRIVATEKEY                                 output.o
d2i_EC_PUBKEY                                     output.o
d2i_EC_PUBKEY_bio                                 output.o
d2i_EDIPARTYNAME                                  output.o
d2i_EXTENDED_KEY_USAGE                            output.o
d2i_GENERAL_NAME                                  output.o
d2i_GENERAL_NAMES                                 output.o
d2i_ISSUING_DIST_POINT                            output.o
d2i_NETSCAPE_CERT_SEQUENCE                        output.o
d2i_NETSCAPE_SPKAC                                output.o
d2i_NETSCAPE_SPKI                                 output.o
d2i_NOTICEREF                                     output.o
d2i_OCSP_BASICRESP                                output.o
d2i_OCSP_CERTID                                   output.o
d2i_OCSP_CERTSTATUS                               output.o
d2i_OCSP_CRLID                                    output.o
d2i_OCSP_ONEREQ                                   output.o
d2i_OCSP_REQINFO                                  output.o
d2i_OCSP_REQUEST                                  output.o
d2i_OCSP_RESPBYTES                                output.o
d2i_OCSP_RESPDATA                                 output.o
d2i_OCSP_RESPID                                   output.o
d2i_OCSP_RESPONSE                                 output.o
d2i_OCSP_REVOKEDINFO                              output.o
d2i_OCSP_SERVICELOC                               output.o
d2i_OCSP_SIGNATURE                                output.o
d2i_OCSP_SINGLERESP                               output.o
d2i_OTHERNAME                                     output.o
d2i_PBE2PARAM                                     output.o
d2i_PBEPARAM                                      output.o
d2i_PBKDF2PARAM                                   output.o
d2i_PKCS12                                        output.o
d2i_PKCS12_BAGS                                   output.o
d2i_PKCS12_MAC_DATA                               output.o
d2i_PKCS12_SAFEBAG                                output.o
d2i_PKCS12_bio                                    output.o
d2i_PKCS7                                         output.o
d2i_PKCS7_DIGEST                                  output.o
d2i_PKCS7_ENCRYPT                                 output.o
d2i_PKCS7_ENC_CONTENT                             output.o
d2i_PKCS7_ENVELOPE                                output.o
d2i_PKCS7_ISSUER_AND_SERIAL                       output.o
d2i_PKCS7_RECIP_INFO                              output.o
d2i_PKCS7_SIGNED                                  output.o
d2i_PKCS7_SIGNER_INFO                             output.o
d2i_PKCS7_SIGN_ENVELOPE                           output.o
d2i_PKCS7_bio                                     output.o
d2i_PKCS8PrivateKey_bio                           output.o
d2i_PKCS8_PRIV_KEY_INFO                           output.o
d2i_PKCS8_PRIV_KEY_INFO_bio                       output.o
d2i_PKCS8_bio                                     output.o
d2i_PKEY_USAGE_PERIOD                             output.o
d2i_POLICYINFO                                    output.o
d2i_POLICYQUALINFO                                output.o
d2i_PROXY_CERT_INFO_EXTENSION                     output.o
d2i_PROXY_POLICY                                  output.o
d2i_PUBKEY                                        output.o
d2i_PUBKEY_bio                                    output.o
d2i_PrivateKey                                    output.o
d2i_PrivateKey_bio                                output.o
d2i_RSAPrivateKey                                 output.o
d2i_RSAPrivateKey_bio                             output.o
d2i_RSAPublicKey                                  output.o
d2i_RSAPublicKey_bio                              output.o
d2i_RSA_PUBKEY                                    output.o
d2i_RSA_PUBKEY_bio                                output.o
d2i_SXNET                                         output.o
d2i_SXNETID                                       output.o
d2i_USERNOTICE                                    output.o
d2i_X509                                          output.o
d2i_X509_ALGOR                                    output.o
d2i_X509_ALGORS                                   output.o
d2i_X509_ATTRIBUTE                                output.o
d2i_X509_AUX                                      output.o
d2i_X509_CERT_AUX                                 output.o
d2i_X509_CERT_PAIR                                output.o
d2i_X509_CINF                                     output.o
d2i_X509_CRL                                      output.o
d2i_X509_CRL_INFO                                 output.o
d2i_X509_CRL_bio                                  output.o
d2i_X509_EXTENSION                                output.o
d2i_X509_EXTENSIONS                               output.o
d2i_X509_NAME                                     output.o
d2i_X509_NAME_ENTRY                               output.o
d2i_X509_PUBKEY                                   output.o
d2i_X509_REQ                                      output.o
d2i_X509_REQ_INFO                                 output.o
d2i_X509_REQ_bio                                  output.o
d2i_X509_REVOKED                                  output.o
d2i_X509_SIG                                      output.o
d2i_X509_VAL                                      output.o
d2i_X509_bio                                      output.o
deactivate_and_delete_urb                         output.o
debug_addstr                                      output.o
debug_gdb                                         output.o
debug_iohook                                      output.o
debug_msgregister                                 output.o
debug_msgunregister                               output.o
decryptcfg                                        output.o
default_pctx                                      output.o
dh_asn1_meth                                      output.o
dh_pkey_meth                                      output.o
disable_apic                                      output.o
do_exint_pass                                     output.o
do_externalint_enable                             output.o
do_io_nothing                                     output.o
do_iopass_default                                 output.o
do_panic_reboot                                   output.o
dom_io                                            output.o
dprintf_port                                      output.o
drhd_list_head                                    output.o
dsa_asn1_meths                                    output.o
dsa_builtin_paramgen                              output.o
dsa_pkey_meth                                     output.o
dsa_pub_internal_it                               output.o
dump_frame                                        output.o
dump_qh                                           output.o
dump_td                                           output.o
dump_td_byvirt                                    output.o
dwReaders                                         output.o
e801_fake_ax                                      output.o
e801_fake_bx                                      output.o
ec_GF2m_have_precompute_mult                      output.o
ec_GF2m_precompute_mult                           output.o
ec_GF2m_simple_add                                output.o
ec_GF2m_simple_cmp                                output.o
ec_GF2m_simple_dbl                                output.o
ec_GF2m_simple_field_div                          output.o
ec_GF2m_simple_field_mul                          output.o
ec_GF2m_simple_field_sqr                          output.o
ec_GF2m_simple_group_check_discriminant           output.o
ec_GF2m_simple_group_clear_finish                 output.o
ec_GF2m_simple_group_copy                         output.o
ec_GF2m_simple_group_finish                       output.o
ec_GF2m_simple_group_get_curve                    output.o
ec_GF2m_simple_group_get_degree                   output.o
ec_GF2m_simple_group_init                         output.o
ec_GF2m_simple_group_set_curve                    output.o
ec_GF2m_simple_invert                             output.o
ec_GF2m_simple_is_at_infinity                     output.o
ec_GF2m_simple_is_on_curve                        output.o
ec_GF2m_simple_make_affine                        output.o
ec_GF2m_simple_mul                                output.o
ec_GF2m_simple_oct2point                          output.o
ec_GF2m_simple_point2oct                          output.o
ec_GF2m_simple_point_clear_finish                 output.o
ec_GF2m_simple_point_copy                         output.o
ec_GF2m_simple_point_finish                       output.o
ec_GF2m_simple_point_get_affine_coordinates       output.o
ec_GF2m_simple_point_init                         output.o
ec_GF2m_simple_point_set_affine_coordinates       output.o
ec_GF2m_simple_point_set_to_infinity              output.o
ec_GF2m_simple_points_make_affine                 output.o
ec_GF2m_simple_set_compressed_coordinates         output.o
ec_GFp_mont_field_decode                          output.o
ec_GFp_mont_field_encode                          output.o
ec_GFp_mont_field_mul                             output.o
ec_GFp_mont_field_set_to_one                      output.o
ec_GFp_mont_field_sqr                             output.o
ec_GFp_mont_group_clear_finish                    output.o
ec_GFp_mont_group_copy                            output.o
ec_GFp_mont_group_finish                          output.o
ec_GFp_mont_group_init                            output.o
ec_GFp_mont_group_set_curve                       output.o
ec_GFp_nist_field_mul                             output.o
ec_GFp_nist_field_sqr                             output.o
ec_GFp_nist_group_copy                            output.o
ec_GFp_nist_group_set_curve                       output.o
ec_GFp_simple_add                                 output.o
ec_GFp_simple_cmp                                 output.o
ec_GFp_simple_dbl                                 output.o
ec_GFp_simple_field_mul                           output.o
ec_GFp_simple_field_sqr                           output.o
ec_GFp_simple_get_Jprojective_coordinates_GFp     output.o
ec_GFp_simple_group_check_discriminant            output.o
ec_GFp_simple_group_clear_finish                  output.o
ec_GFp_simple_group_copy                          output.o
ec_GFp_simple_group_finish                        output.o
ec_GFp_simple_group_get_curve                     output.o
ec_GFp_simple_group_get_degree                    output.o
ec_GFp_simple_group_init                          output.o
ec_GFp_simple_group_set_curve                     output.o
ec_GFp_simple_invert                              output.o
ec_GFp_simple_is_at_infinity                      output.o
ec_GFp_simple_is_on_curve                         output.o
ec_GFp_simple_make_affine                         output.o
ec_GFp_simple_oct2point                           output.o
ec_GFp_simple_point2oct                           output.o
ec_GFp_simple_point_clear_finish                  output.o
ec_GFp_simple_point_copy                          output.o
ec_GFp_simple_point_finish                        output.o
ec_GFp_simple_point_get_affine_coordinates        output.o
ec_GFp_simple_point_init                          output.o
ec_GFp_simple_point_set_affine_coordinates        output.o
ec_GFp_simple_point_set_to_infinity               output.o
ec_GFp_simple_points_make_affine                  output.o
ec_GFp_simple_set_Jprojective_coordinates_GFp     output.o
ec_GFp_simple_set_compressed_coordinates          output.o
ec_pkey_meth                                      output.o
ec_wNAF_have_precompute_mult                      output.o
ec_wNAF_mul                                       output.o
ec_wNAF_precompute_mult                           output.o
ecdh_check                                        output.o
ecdsa_check                                       output.o
eckey_asn1_meth                                   output.o
ehci_check_advance                                output.o
ehci_check_urb_advance                            output.o
ehci_cleanup_urbs                                 output.o
ehci_conceal_portroute                            output.o
ehci_deactivate_urb                               output.o
ehci_dump_alist                                   output.o
ehci_dump_all                                     output.o
ehci_dump_async                                   output.o
ehci_dump_qtd                                     output.o
ehci_dump_qtdm                                    output.o
ehci_dump_urb                                     output.o
ehci_dump_urblist                                 output.o
ehci_end_monitor_async                            output.o
ehci_host                                         output.o
ehci_init                                         output.o
ehci_monitor_async_list                           output.o
ehci_shadow_async_list                            output.o
ehci_shadow_buffer                                output.o
ehci_submit_bulk                                  output.o
ehci_submit_control                               output.o
ehci_submit_interrupt                             output.o
end                                               output.o
entry                                             output.o
entry_pd                                          output.o
entry_pd0                                         output.o
entry_pdp                                         output.o
evp_pkey_set_cb_translate                         output.o
exitprocess                                       output.o
free                                              output.o
free_config_descriptors                           output.o
free_device                                       output.o
free_page                                         output.o
free_page_phys                                    output.o
g_rgSCardT0Pci                                    output.o
g_rgSCardT1Pci                                    output.o
getCurrentProtectedApplication                    output.o
getKernelESPGVA                                   output.o
getMemoryOwnershipTableEntry                      output.o
getMemoryOwnershipTableIndex                      output.o
getSystemCallHandlerGPA                           output.o
getTSSGVA                                         output.o
get_acpi_time                                     output.o
get_acpi_time_raw                                 output.o
get_cpu_id                                        output.o
get_cpu_time                                      output.o
get_ept_base_HPA                                  output.o
get_guest_cr3_value                               output.o
get_guest_eptp_value                              output.o
get_gurb_by_address                               output.o
get_idman_session                                 output.o
get_page_table_base_GPA                           output.o
get_seg_access_rights                             output.o
get_seg_base                                      output.o
get_time                                          output.o
getfakesysmemmap                                  output.o
getsysmemmap                                      output.o
gmm_pass_gp2hp                                    output.o
gpaToHPA                                          output.o
gs_current                                        output.o
gs_currentcpu                                     output.o
gs_init_count                                     output.o
gs_inthandling                                    output.o
gs_nmi                                            output.o
gs_syscallstack                                   output.o
guest_int0x15_e801_fake_ax                        output.o
guest_int0x15_e801_fake_bx                        output.o
guest_int0x15_e820_data_minus0x18                 output.o
guest_int0x15_e820_end                            output.o
guest_int0x15_hook                                output.o
guest_int0x15_hook_end                            output.o
guest_int0x15_orig                                output.o
gvaToGPA                                          output.o
hContext                                          output.o
hObjectCnt                                        output.o
hSessionCnt                                       output.o
handle_connect_status                             output.o
handle_init_to_bsp                                output.o
handle_port_reset                                 output.o
handler_descriptor                                output.o
handler_descriptor_lock                           output.o
head                                              output.o
hex_to_string                                     output.o
hmac_asn1_meth                                    output.o
hmac_pkey_meth                                    output.o
hub_portdevice_register                           output.o
hypercall_handler                                 output.o
i2a_ACCESS_DESCRIPTION                            output.o
i2a_ASN1_INTEGER                                  output.o
i2a_ASN1_OBJECT                                   output.o
i2a_ASN1_STRING                                   output.o
i2c_ASN1_BIT_STRING                               output.o
i2c_ASN1_INTEGER                                  output.o
i2d_ACCESS_DESCRIPTION                            output.o
i2d_ASN1_BIT_STRING                               output.o
i2d_ASN1_BMPSTRING                                output.o
i2d_ASN1_BOOLEAN                                  output.o
i2d_ASN1_ENUMERATED                               output.o
i2d_ASN1_GENERALIZEDTIME                          output.o
i2d_ASN1_GENERALSTRING                            output.o
i2d_ASN1_IA5STRING                                output.o
i2d_ASN1_INTEGER                                  output.o
i2d_ASN1_NULL                                     output.o
i2d_ASN1_OBJECT                                   output.o
i2d_ASN1_OCTET_STRING                             output.o
i2d_ASN1_PRINTABLE                                output.o
i2d_ASN1_PRINTABLESTRING                          output.o
i2d_ASN1_SEQUENCE_ANY                             output.o
i2d_ASN1_SET                                      output.o
i2d_ASN1_SET_ANY                                  output.o
i2d_ASN1_T61STRING                                output.o
i2d_ASN1_TIME                                     output.o
i2d_ASN1_TYPE                                     output.o
i2d_ASN1_UNIVERSALSTRING                          output.o
i2d_ASN1_UTCTIME                                  output.o
i2d_ASN1_UTF8STRING                               output.o
i2d_ASN1_VISIBLESTRING                            output.o
i2d_ASN1_bio_stream                               output.o
i2d_ASN1_bytes                                    output.o
i2d_AUTHORITY_INFO_ACCESS                         output.o
i2d_AUTHORITY_KEYID                               output.o
i2d_BASIC_CONSTRAINTS                             output.o
i2d_CERTIFICATEPOLICIES                           output.o
i2d_CMS_ContentInfo                               output.o
i2d_CMS_bio                                       output.o
i2d_CMS_bio_stream                                output.o
i2d_CRL_DIST_POINTS                               output.o
i2d_DHparams                                      output.o
i2d_DIRECTORYSTRING                               output.o
i2d_DISPLAYTEXT                                   output.o
i2d_DIST_POINT                                    output.o
i2d_DIST_POINT_NAME                               output.o
i2d_DSAPrivateKey                                 output.o
i2d_DSAPrivateKey_bio                             output.o
i2d_DSAPublicKey                                  output.o
i2d_DSA_PUBKEY                                    output.o
i2d_DSA_PUBKEY_bio                                output.o
i2d_DSA_SIG                                       output.o
i2d_DSAparams                                     output.o
i2d_ECDSA_SIG                                     output.o
i2d_ECPKPARAMETERS                                output.o
i2d_ECPKParameters                                output.o
i2d_ECParameters                                  output.o
i2d_ECPrivateKey                                  output.o
i2d_ECPrivateKey_bio                              output.o
i2d_EC_PRIVATEKEY                                 output.o
i2d_EC_PUBKEY                                     output.o
i2d_EC_PUBKEY_bio                                 output.o
i2d_EDIPARTYNAME                                  output.o
i2d_EXTENDED_KEY_USAGE                            output.o
i2d_GENERAL_NAME                                  output.o
i2d_GENERAL_NAMES                                 output.o
i2d_ISSUING_DIST_POINT                            output.o
i2d_NETSCAPE_CERT_SEQUENCE                        output.o
i2d_NETSCAPE_SPKAC                                output.o
i2d_NETSCAPE_SPKI                                 output.o
i2d_NOTICEREF                                     output.o
i2d_OCSP_BASICRESP                                output.o
i2d_OCSP_CERTID                                   output.o
i2d_OCSP_CERTSTATUS                               output.o
i2d_OCSP_CRLID                                    output.o
i2d_OCSP_ONEREQ                                   output.o
i2d_OCSP_REQINFO                                  output.o
i2d_OCSP_REQUEST                                  output.o
i2d_OCSP_RESPBYTES                                output.o
i2d_OCSP_RESPDATA                                 output.o
i2d_OCSP_RESPID                                   output.o
i2d_OCSP_RESPONSE                                 output.o
i2d_OCSP_REVOKEDINFO                              output.o
i2d_OCSP_SERVICELOC                               output.o
i2d_OCSP_SIGNATURE                                output.o
i2d_OCSP_SINGLERESP                               output.o
i2d_OTHERNAME                                     output.o
i2d_PBE2PARAM                                     output.o
i2d_PBEPARAM                                      output.o
i2d_PBKDF2PARAM                                   output.o
i2d_PKCS12                                        output.o
i2d_PKCS12_BAGS                                   output.o
i2d_PKCS12_MAC_DATA                               output.o
i2d_PKCS12_SAFEBAG                                output.o
i2d_PKCS12_bio                                    output.o
i2d_PKCS7                                         output.o
i2d_PKCS7_DIGEST                                  output.o
i2d_PKCS7_ENCRYPT                                 output.o
i2d_PKCS7_ENC_CONTENT                             output.o
i2d_PKCS7_ENVELOPE                                output.o
i2d_PKCS7_ISSUER_AND_SERIAL                       output.o
i2d_PKCS7_NDEF                                    output.o
i2d_PKCS7_RECIP_INFO                              output.o
i2d_PKCS7_SIGNED                                  output.o
i2d_PKCS7_SIGNER_INFO                             output.o
i2d_PKCS7_SIGN_ENVELOPE                           output.o
i2d_PKCS7_bio                                     output.o
i2d_PKCS8PrivateKeyInfo_bio                       output.o
i2d_PKCS8PrivateKey_bio                           output.o
i2d_PKCS8PrivateKey_nid_bio                       output.o
i2d_PKCS8_PRIV_KEY_INFO                           output.o
i2d_PKCS8_PRIV_KEY_INFO_bio                       output.o
i2d_PKCS8_bio                                     output.o
i2d_PKEY_USAGE_PERIOD                             output.o
i2d_POLICYINFO                                    output.o
i2d_POLICYQUALINFO                                output.o
i2d_PROXY_CERT_INFO_EXTENSION                     output.o
i2d_PROXY_POLICY                                  output.o
i2d_PUBKEY                                        output.o
i2d_PUBKEY_bio                                    output.o
i2d_PrivateKey                                    output.o
i2d_PrivateKey_bio                                output.o
i2d_RSAPrivateKey                                 output.o
i2d_RSAPrivateKey_bio                             output.o
i2d_RSAPublicKey                                  output.o
i2d_RSAPublicKey_bio                              output.o
i2d_RSA_PUBKEY                                    output.o
i2d_RSA_PUBKEY_bio                                output.o
i2d_SXNET                                         output.o
i2d_SXNETID                                       output.o
i2d_USERNOTICE                                    output.o
i2d_X509                                          output.o
i2d_X509_ALGOR                                    output.o
i2d_X509_ALGORS                                   output.o
i2d_X509_ATTRIBUTE                                output.o
i2d_X509_AUX                                      output.o
i2d_X509_CERT_AUX                                 output.o
i2d_X509_CERT_PAIR                                output.o
i2d_X509_CINF                                     output.o
i2d_X509_CRL                                      output.o
i2d_X509_CRL_INFO                                 output.o
i2d_X509_CRL_bio                                  output.o
i2d_X509_EXTENSION                                output.o
i2d_X509_EXTENSIONS                               output.o
i2d_X509_NAME                                     output.o
i2d_X509_NAME_ENTRY                               output.o
i2d_X509_PUBKEY                                   output.o
i2d_X509_REQ                                      output.o
i2d_X509_REQ_INFO                                 output.o
i2d_X509_REQ_bio                                  output.o
i2d_X509_REVOKED                                  output.o
i2d_X509_SIG                                      output.o
i2d_X509_VAL                                      output.o
i2d_X509_bio                                      output.o
i2o_ECPublicKey                                   output.o
i2s_ASN1_ENUMERATED                               output.o
i2s_ASN1_ENUMERATED_TABLE                         output.o
i2s_ASN1_INTEGER                                  output.o
i2s_ASN1_OCTET_STRING                             output.o
i2t_ASN1_OBJECT                                   output.o
i2v_ASN1_BIT_STRING                               output.o
i2v_GENERAL_NAME                                  output.o
i2v_GENERAL_NAMES                                 output.o
idea_cbc_encrypt                                  output.o
idea_cfb64_encrypt                                output.o
idea_ecb_encrypt                                  output.o
idea_encrypt                                      output.o
idea_ofb64_encrypt                                output.o
idea_options                                      output.o
idea_set_decrypt_key                              output.o
idea_set_encrypt_key                              output.o
idman_reinit2                                     output.o
idman_reinit_session                              output.o
idman_user_init                                   output.o
ieee1394_init                                     output.o
init_hframelist                                   output.o
initfunc_init                                     output.o
initializeNewProtectedApplication                 output.o
int1a_TCG_CompactHashLogExtendEvent               output.o
int1a_TCG_HashAll                                 output.o
int1a_TCG_HashLogEvent                            output.o
int1a_TCG_HashLogExtendEvent                      output.o
int1a_TCG_PassThroughToTPM                        output.o
int1a_TCG_StatusCheck                             output.o
int1a_TCG_TSS                                     output.o
int_callfunc                                      output.o
int_exceptionHandler                              output.o
int_fatal                                         output.o
int_handler                                       output.o
int_init_ap                                       output.o
int_rsa_verify                                    output.o
iodom_init                                        output.o
iommu_detected                                    output.o
iommu_setup                                       output.o
ipchecksum                                        output.o
keyboard_flush                                    output.o
keyboard_reset                                    output.o
level_add_node                                    output.o
level_find_node                                   output.o
lh_delete                                         output.o
lh_doall                                          output.o
lh_doall_arg                                      output.o
lh_free                                           output.o
lh_insert                                         output.o
lh_new                                            output.o
lh_num_items                                      output.o
lh_retrieve                                       output.o
lh_strhash                                        output.o
lh_version                                        output.o
libInitFlag                                       output.o
load_bootsector                                   output.o
load_minios                                       output.o
load_new_vcpu                                     output.o
localapic_change_base_msr                         output.o
localapic_mmio_register                           output.o
localapic_wait_for_sipi                           output.o
mapHPAintoHVA                                     output.o
mapmem                                            output.o
mapmem_gphys                                      output.o
mapmem_hphys                                      output.o
matched_drhd_u                                    output.o
md4_block_data_order                              output.o
md5_block_data_order                              output.o
memcmp                                            output.o
memcpy                                            output.o
memorysize                                        output.o
mempool_allocmem                                  output.o
mempool_free                                      output.o
mempool_freemem                                   output.o
mempool_new                                       output.o
memset                                            output.o
message_exitcode                                  output.o
message_exitreason                                output.o
mm_flush_wb_cache                                 output.o
mm_force_unlock                                   output.o
mm_process_alloc                                  output.o
mm_process_free                                   output.o
mm_process_map_alloc                              output.o
mm_process_map_shared                             output.o
mm_process_map_shared_physpage                    output.o
mm_process_map_stack                              output.o
mm_process_switch                                 output.o
mm_process_unmap                                  output.o
mm_process_unmap_stack                            output.o
mm_process_unmapall                               output.o
mmio_access_memory                                output.o
mmio_access_page                                  output.o
mmio_lock                                         output.o
mmio_register                                     output.o
mmio_unlock                                       output.o
mmio_unregister                                   output.o
monitor_vmcs_read                                 output.o
monitor_vmcs_write                                output.o
move_vmm_area32                                   output.o
move_vmm_area64                                   output.o
mpudiv_128_32                                     output.o
mpumul_64_64                                      output.o
msg_findname                                      output.o
msg_register                                      output.o
msg_unregister                                    output.o
msg_unregister2                                   output.o
msg_unregisterall                                 output.o
msg_usb_bulk_read                                 output.o
msg_usb_bulk_write                                output.o
msg_usb_claim_interface                           output.o
msg_usb_close                                     output.o
msg_usb_control_msg                               output.o
msg_usb_find_busses                               output.o
msg_usb_find_devices                              output.o
msg_usb_get_busses                                output.o
msg_usb_get_string_simple                         output.o
msg_usb_init                                      output.o
msg_usb_open                                      output.o
msg_usb_release_interface                         output.o
msg_usb_reset                                     output.o
msg_vpn_FreeTimer                                 output.o
msg_vpn_GetCurrentCpuId                           output.o
msg_vpn_GetPhysicalNicInfo                        output.o
msg_vpn_GetTickCount                              output.o
msg_vpn_GetVirtualNicInfo                         output.o
msg_vpn_NewTimer                                  output.o
msg_vpn_SendPhysicalNic                           output.o
msg_vpn_SendVirtualNic                            output.o
msg_vpn_SetPhysicalNicRecvCallback                output.o
msg_vpn_SetTimer                                  output.o
msg_vpn_SetVirtualNicRecvCallback                 output.o
msg_vpn_ic_rsa_sign                               output.o
msgclose                                          output.o
msgopen                                           output.o
msgpremapbuf                                      output.o
msgregister                                       output.o
msgsendbuf                                        output.o
msgsenddesc                                       output.o
msgsendint                                        output.o
msgsetfunc                                        output.o
msgunregister                                     output.o
mszReaders                                        output.o
name_cmp                                          output.o
newprocess                                        output.o
num_dom                                           output.o
num_of_available_pages                            output.o
num_of_processors                                 output.o
numberOfProtectedApplications                     output.o
numberOfVMs                                       output.o
o2i_ECPublicKey                                   output.o
obj_cleanup_defer                                 output.o
openPage                                          output.o
packet_handle_command                             output.o
packet_handle_config                              output.o
packet_handle_invalid                             output.o
packet_handle_nondata                             output.o
packet_handle_rw                                  output.o
packet_handle_through                             output.o
panic                                             output.o
panic_oom                                         output.o
panic_test                                        output.o
panic_wakeup_all                                  output.o
parse_dmar_bios_report                            output.o
pci_append_device                                 output.o
pci_conceal_config_data_handler                   output.o
pci_conceal_new_device                            output.o
pci_config_addr_handler                           output.o
pci_config_data_handler                           output.o
pci_device_list_head                              output.o
pci_driver_list_head                              output.o
pci_handle_default_config_write                   output.o
pci_possible_new_device                           output.o
pci_print_device                                  output.o
pci_read_config_data16                            output.o
pci_read_config_data32                            output.o
pci_read_config_data8                             output.o
pci_read_config_data_port                         output.o
pci_register_driver                               output.o
pci_restore_config_addr                           output.o
pci_save_config_addr                              output.o
pci_write_config_data16                           output.o
pci_write_config_data32                           output.o
pci_write_config_data8                            output.o
pci_write_config_data_port                        output.o
pcpu_default                                      output.o
pcpu_init                                         output.o
pcpu_list_add                                     output.o
pcpu_list_foreach                                 output.o
pem_check_suffix                                  output.o
phys_in_vmm                                       output.o
phys_to_virt                                      output.o
pmap_autoalloc                                    output.o
pmap_clear                                        output.o
pmap_close                                        output.o
pmap_dump                                         output.o
pmap_getreadlevel                                 output.o
pmap_open_guest                                   output.o
pmap_open_vmm                                     output.o
pmap_pointer                                      output.o
pmap_read                                         output.o
pmap_seek                                         output.o
pmap_setlevel                                     output.o
pmap_write                                        output.o
policy_cache_find_data                            output.o
policy_cache_free                                 output.o
policy_cache_set                                  output.o
policy_cache_set_mapping                          output.o
policy_data_free                                  output.o
policy_data_new                                   output.o
policy_node_cmp_new                               output.o
policy_node_free                                  output.o
policy_node_match                                 output.o
prepare_for_sleep                                 output.o
printexitcode                                     output.o
printexitreason                                   output.o
printf                                            output.o
pro100_alloc_page                                 output.o
pro100_alloc_recv_buffer                          output.o
pro100_beep                                       output.o
pro100_config_read                                output.o
pro100_config_write                               output.o
pro100_exec_cu_op                                 output.o
pro100_flush                                      output.o
pro100_free_page                                  output.o
pro100_generate_int                               output.o
pro100_get_ctx                                    output.o
pro100_get_cu_command_string                      output.o
pro100_get_int_bit_string                         output.o
pro100_get_op_size                                output.o
pro100_get_ru_command_string                      output.o
pro100_get_stat_ack_string                        output.o
pro100_hook_read                                  output.o
pro100_hook_write                                 output.o
pro100_init                                       output.o
pro100_init_cu_base_addr                          output.o
pro100_init_recv_buffer                           output.o
pro100_init_ru_base_addr                          output.o
pro100_init_vpn_client                            output.o
pro100_io_handler                                 output.o
pro100_mem_read                                   output.o
pro100_mem_write                                  output.o
pro100_mm_handler                                 output.o
pro100_new                                        output.o
pro100_poll_ru                                    output.o
pro100_proc_guest_op                              output.o
pro100_read                                       output.o
pro100_read_send_packet                           output.o
pro100_send_packet_to_line                        output.o
pro100_sleep                                      output.o
pro100_wait_cu_ru_accepable                       output.o
pro100_write                                      output.o
pro100_write_recv_packet                          output.o
process_kill                                      output.o
process_syscall                                   output.o
processuser_no_sysenter                           output.o
processuser_syscall                               output.o
processuser_sysenter                              output.o
prohibit_iccard_init                              output.o
protectCurrentApplication                         output.o
ps2_locked                                        output.o
putchar                                           output.o
putchar_set_func                                  output.o
rand_ssleay_meth                                  output.o
read_gphys_b                                      output.o
read_gphys_l                                      output.o
read_gphys_q                                      output.o
read_gphys_w                                      output.o
read_hphys_b                                      output.o
read_hphys_l                                      output.o
read_hphys_q                                      output.o
read_hphys_w                                      output.o
read_linearaddr_b                                 output.o
read_linearaddr_l                                 output.o
read_linearaddr_q                                 output.o
read_linearaddr_tss                               output.o
read_linearaddr_w                                 output.o
readerState                                       output.o
readerTracker                                     output.o
realloc                                           output.o
reboot_test                                       output.o
register_status_callback                          output.o
restore_guest_status                              output.o
resume_vm                                         output.o
ret_to_user32                                     output.o
ret_to_user64                                     output.o
ripemd160_block_data_order                        output.o
rsa_asn1_meths                                    output.o
rsa_pkey_meth                                     output.o
rt                                                output.o
s2i_ASN1_INTEGER                                  output.o
s2i_ASN1_OCTET_STRING                             output.o
sReaderContext                                    output.o
saveSystemCallHandlerAddress                      output.o
save_guest_status                                 output.o
savemsr_index                                     output.o
savemsr_load                                      output.o
savemsr_save                                      output.o
scan_gframelist                                   output.o
schedule                                          output.o
security_storage_check_lba                        output.o
segment_init_ap                                   output.o
segment_wakeup                                    output.o
serial_getDebugChar                               output.o
serial_init_iohook                                output.o
serial_putDebugChar                               output.o
serial_putchar                                    output.o
sessionTable                                      output.o
set_int_handler                                   output.o
set_iofunc                                        output.o
setkbdled                                         output.o
shadow_and_activate_urb                           output.o
sig_app                                           output.o
sigx_app                                          output.o
sk_delete                                         output.o
sk_delete_ptr                                     output.o
sk_dup                                            output.o
sk_find                                           output.o
sk_find_ex                                        output.o
sk_free                                           output.o
sk_insert                                         output.o
sk_is_sorted                                      output.o
sk_new                                            output.o
sk_new_null                                       output.o
sk_num                                            output.o
sk_pop                                            output.o
sk_pop_free                                       output.o
sk_push                                           output.o
sk_set                                            output.o
sk_set_cmp_func                                   output.o
sk_shift                                          output.o
sk_sort                                           output.o
sk_unshift                                        output.o
sk_value                                          output.o
sk_zero                                           output.o
sleep_set_timer_counter                           output.o
slotFlag                                          output.o
slotTable                                         output.o
snprintf                                          output.o
start_all_processors                              output.o
storage_free                                      output.o
storage_get_num_hc                                output.o
storage_handle_sectors                            output.o
storage_hc_close                                  output.o
storage_hc_dev_atacommand                         output.o
storage_hc_dev_close                              output.o
storage_hc_dev_open                               output.o
storage_hc_hook_register                          output.o
storage_hc_hook_unregister                        output.o
storage_hc_open                                   output.o
storage_hc_register                               output.o
storage_hc_scandev                                output.o
storage_hc_unregister                             output.o
storage_init                                      output.o
storage_io_aget_size                              output.o
storage_io_aread                                  output.o
storage_io_awrite                                 output.o
storage_io_deinit                                 output.o
storage_io_get_num_devices                        output.o
storage_io_init                                   output.o
storage_new                                       output.o
storage_premap_buf                                output.o
storage_premap_handle_sectors                     output.o
strcmp                                            output.o
string_to_hex                                     output.o
strlen                                            output.o
svm_available                                     output.o
svm_enable_resume                                 output.o
svm_extern_iopass                                 output.o
svm_init                                          output.o
svm_init_signal                                   output.o
svm_ioio                                          output.o
svm_msr_update_lma                                output.o
svm_np_clear_all                                  output.o
svm_np_extern_mapsearch                           output.o
svm_np_init                                       output.o
svm_np_map_1mb                                    output.o
svm_np_pagefault                                  output.o
svm_np_tlbflush                                   output.o
svm_np_updatecr3                                  output.o
svm_paging_apply_fixed_cr0                        output.o
svm_paging_apply_fixed_cr4                        output.o
svm_paging_clear_all                              output.o
svm_paging_extern_flush_tlb_entry                 output.o
svm_paging_flush_guest_tlb                        output.o
svm_paging_get_gpat                               output.o
svm_paging_init                                   output.o
svm_paging_invalidate                             output.o
svm_paging_map_1mb                                output.o
svm_paging_npf                                    output.o
svm_paging_pagefault                              output.o
svm_paging_pg_change                              output.o
svm_paging_set_gpat                               output.o
svm_paging_spt_setcr3                             output.o
svm_paging_start                                  output.o
svm_paging_tlbflush                               output.o
svm_paging_updatecr3                              output.o
svm_panic_dump                                    output.o
svm_read_control_reg                              output.o
svm_read_flags                                    output.o
svm_read_gdtr                                     output.o
svm_read_general_reg                              output.o
svm_read_idtr                                     output.o
svm_read_ip                                       output.o
svm_read_msr                                      output.o
svm_read_sreg_acr                                 output.o
svm_read_sreg_base                                output.o
svm_read_sreg_limit                               output.o
svm_read_sreg_sel                                 output.o
svm_reset                                         output.o
svm_resume                                        output.o
svm_start_vm                                      output.o
svm_vmexit                                        output.o
svm_vminit                                        output.o
svm_write_control_reg                             output.o
svm_write_flags                                   output.o
svm_write_gdtr                                    output.o
svm_write_general_reg                             output.o
svm_write_idtr                                    output.o
svm_write_ip                                      output.o
svm_write_msr                                     output.o
svm_write_realmode_seg                            output.o
svm_writing_sreg                                  output.o
sx_handler                                        output.o
sym_to_phys                                       output.o
sync_all_processors                               output.o
sys_exitprocess                                   output.o
sys_msgclose                                      output.o
sys_msgopen                                       output.o
sys_msgregister                                   output.o
sys_msgret                                        output.o
sys_msgsendbuf                                    output.o
sys_msgsenddesc                                   output.o
sys_msgsendint                                    output.o
sys_msgsetfunc                                    output.o
sys_msgunregister                                 output.o
sys_newprocess                                    output.o
syscallHandlerAddress                             output.o
syscall_entry_lret                                output.o
syscall_entry_sysexit                             output.o
syscall_entry_sysret64                            output.o
tcg_measure                                       output.o
test_gpaToHPA                                     output.o
test_logicalCPUStatus                             output.o
test_start                                        output.o
test_traverseGuestPages                           output.o
thread_exit                                       output.o
thread_gettid                                     output.o
thread_new                                        output.o
thread_set_process_switch                         output.o
thread_start0                                     output.o
thread_start1                                     output.o
thread_switch                                     output.o
thread_wakeup                                     output.o
thread_will_stop                                  output.o
timer_free                                        output.o
timer_new                                         output.o
timer_set                                         output.o
traverseGuestPages                                output.o
traverseIA32ePDPT                                 output.o
traverseIA32ePDT                                  output.o
traverseIA32ePT                                   output.o
traverseIA32ePages                                output.o
tree_find_sk                                      output.o
tty_init_iohook                                   output.o
tty_putchar                                       output.o
tty_udp_register                                  output.o
ttylog_stop                                       output.o
uhci_activate_urb                                 output.o
uhci_check_advance                                output.o
uhci_check_urb_advance                            output.o
uhci_create_urb                                   output.o
uhci_current_frame_number                         output.o
uhci_deactivate_urb                               output.o
uhci_destroy_unlinked_urbs                        output.o
uhci_destroy_urb                                  output.o
uhci_dump_all                                     output.o
uhci_error_status_string                          output.o
uhci_framelist_monitor                            output.o
uhci_init                                         output.o
uhci_monitor_boost_hc                             output.o
uhci_reactivate_urb                               output.o
uhci_shadow_buffer                                output.o
uhci_submit_bulk                                  output.o
uhci_submit_control                               output.o
uhci_submit_interrupt                             output.o
unmapHPAintoHVA                                   output.o
unmapmem                                          output.o
update_mtrr_and_pat                               output.o
usb_bulk_read                                     output.o
usb_bulk_write                                    output.o
usb_busses_head                                   output.o
usb_claim_interface                               output.o
usb_clear_halt                                    output.o
usb_close                                         output.o
usb_control_msg                                   output.o
usb_find_busses                                   output.o
usb_find_devices                                  output.o
usb_get_bus                                       output.o
usb_get_busses                                    output.o
usb_get_descriptor                                output.o
usb_get_descriptor_by_endpoint                    output.o
usb_get_descriptor_early                          output.o
usb_get_string                                    output.o
usb_get_string_simple                             output.o
usb_hc_list_head                                  output.o
usb_hook_process                                  output.o
usb_hook_register                                 output.o
usb_hook_unregister                               output.o
usb_init                                          output.o
usb_init_device_monitor                           output.o
usb_interrupt_read                                output.o
usb_interrupt_write                               output.o
usb_log_level                                     output.o
usb_new_dev_handle                                output.o
usb_open                                          output.o
usb_register_host                                 output.o
usb_release_interface                             output.o
usb_reset                                         output.o
usb_resetep                                       output.o
usb_sc_lock                                       output.o
usb_sc_unlock                                     output.o
usb_set_altinterface                              output.o
usb_set_configuration                             output.o
usb_set_debug                                     output.o
usb_unregister_devices                            output.o
usbccid_init_handle                               output.o
usbhid_init_handle                                output.o
usbhub_init_handle                                output.o
usbmsc_init_handle                                output.o
use_pae                                           output.o
usleep                                            output.o
v2i_ASN1_BIT_STRING                               output.o
v2i_GENERAL_NAME                                  output.o
v2i_GENERAL_NAMES                                 output.o
v2i_GENERAL_NAME_ex                               output.o
v3_akey_id                                        output.o
v3_alt                                            output.o
v3_bcons                                          output.o
v3_cpols                                          output.o
v3_crl_hold                                       output.o
v3_crl_invdate                                    output.o
v3_crl_num                                        output.o
v3_crl_reason                                     output.o
v3_crld                                           output.o
v3_delta_crl                                      output.o
v3_ext_ku                                         output.o
v3_freshest_crl                                   output.o
v3_idp                                            output.o
v3_info                                           output.o
v3_inhibit_anyp                                   output.o
v3_key_usage                                      output.o
v3_name_constraints                               output.o
v3_ns_ia5_list                                    output.o
v3_nscert                                         output.o
v3_ocsp_accresp                                   output.o
v3_ocsp_acutoff                                   output.o
v3_ocsp_crlid                                     output.o
v3_ocsp_nocheck                                   output.o
v3_ocsp_nonce                                     output.o
v3_ocsp_serviceloc                                output.o
v3_pci                                            output.o
v3_pkey_usage_period                              output.o
v3_policy_constraints                             output.o
v3_policy_mappings                                output.o
v3_sinfo                                          output.o
v3_skey_id                                        output.o
v3_sxnet                                          output.o
vcpu_list_foreach                                 output.o
vga_fill_rect                                     output.o
vga_get_screen_size                               output.o
vga_is_ready                                      output.o
vga_register                                      output.o
vga_transfer_image                                output.o
vmctl_svm_init                                    output.o
vmctl_vt_init                                     output.o
vmm_base_cr3                                      output.o
vmm_main                                          output.o
vmm_pd                                            output.o
vmm_pd1                                           output.o
vmm_pd2                                           output.o
vmm_pdp                                           output.o
vmm_pml4                                          output.o
vmm_start_inf                                     output.o
vmm_term_inf                                      output.o
vmmcall                                           output.o
vmmcall_boot_continue                             output.o
vmmcall_boot_enable                               output.o
vmmcall_init                                      output.o
vmmcall_register                                  output.o
vmmsize                                           output.o
vpn_FreeTimer                                     output.o
vpn_GetCurrentCpuId                               output.o
vpn_GetPhysicalNicInfo                            output.o
vpn_GetTickCount                                  output.o
vpn_GetVirtualNicInfo                             output.o
vpn_NewTimer                                      output.o
vpn_SendPhysicalNic                               output.o
vpn_SendVirtualNic                                output.o
vpn_SetPhysicalNicRecvCallback                    output.o
vpn_SetTimer                                      output.o
vpn_SetVirtualNicRecvCallback                     output.o
vpn_ic_rsa_sign                                   output.o
vpn_new_nic                                       output.o
vpn_premap_PhysicalNicRecv                        output.o
vpn_premap_VirtualNicRecv                         output.o
vpn_premap_recvbuf                                output.o
vpn_start                                         output.o
vpn_user_init                                     output.o
vprintf                                           output.o
vramwrite_clearscreen                             output.o
vramwrite_exit_global                             output.o
vramwrite_get_cursor_pos                          output.o
vramwrite_init_global                             output.o
vramwrite_mark1                                   output.o
vramwrite_mark2                                   output.o
vramwrite_mark3                                   output.o
vramwrite_putchar                                 output.o
vramwrite_restore_cursor                          output.o
vramwrite_save_and_move_cursor                    output.o
vsnprintf                                         output.o
vt__vmx_init                                      output.o
vt__vmxon                                         output.o
vt_add_guest_msr                                  output.o
vt_available                                      output.o
vt_enable_resume                                  output.o
vt_ept_clear_all                                  output.o
vt_ept_extern_mapsearch                           output.o
vt_ept_init                                       output.o
vt_ept_map_1mb                                    output.o
vt_ept_tlbflush                                   output.o
vt_ept_updatecr3                                  output.o
vt_ept_violation                                  output.o
vt_extern_iopass                                  output.o
vt_generate_external_int                          output.o
vt_generate_pagefault                             output.o
vt_get_current_regs_in_vmcs                       output.o
vt_get_vmcs_regs_in_vmcs                          output.o
vt_init                                           output.o
vt_init_signal                                    output.o
vt_io                                             output.o
vt_iopass                                         output.o
vt_iopass_init                                    output.o
vt_msr_init                                       output.o
vt_msr_update_lma                                 output.o
vt_paging_apply_fixed_cr0                         output.o
vt_paging_apply_fixed_cr4                         output.o
vt_paging_clear_all                               output.o
vt_paging_extern_flush_tlb_entry                  output.o
vt_paging_flush_guest_tlb                         output.o
vt_paging_get_gpat                                output.o
vt_paging_init                                    output.o
vt_paging_invalidate                              output.o
vt_paging_map_1mb                                 output.o
vt_paging_npf                                     output.o
vt_paging_pagefault                               output.o
vt_paging_pg_change                               output.o
vt_paging_set_gpat                                output.o
vt_paging_spt_setcr3                              output.o
vt_paging_start                                   output.o
vt_paging_tlbflush                                output.o
vt_paging_updatecr3                               output.o
vt_panic_dump                                     output.o
vt_read_control_reg                               output.o
vt_read_flags                                     output.o
vt_read_gdtr                                      output.o
vt_read_general_reg                               output.o
vt_read_guest_msr                                 output.o
vt_read_idtr                                      output.o
vt_read_ip                                        output.o
vt_read_msr                                       output.o
vt_read_sreg_acr                                  output.o
vt_read_sreg_base                                 output.o
vt_read_sreg_limit                                output.o
vt_read_sreg_sel                                  output.o
vt_reset                                          output.o
vt_resume                                         output.o
vt_start_vm                                       output.o
vt_update_exception_bmp                           output.o
vt_vmexit                                         output.o
vt_vminit                                         output.o
vt_vmptrld                                        output.o
vt_write_control_reg                              output.o
vt_write_flags                                    output.o
vt_write_gdtr                                     output.o
vt_write_general_reg                              output.o
vt_write_guest_msr                                output.o
vt_write_idtr                                     output.o
vt_write_ip                                       output.o
vt_write_msr                                      output.o
vt_write_realmode_seg                             output.o
vt_writing_sreg                                   output.o
waitcycles                                        output.o
wakeup_cont                                       output.o
wakeup_entry_addr                                 output.o
wakeup_entry_cr0                                  output.o
wakeup_entry_cr3                                  output.o
wakeup_entry_cr4                                  output.o
wakeup_entry_end                                  output.o
wakeup_entry_gdtr                                 output.o
wakeup_entry_start                                output.o
wakeup_init                                       output.o
wakeup_main                                       output.o
whirlpool_block                                   output.o
write_gphys_b                                     output.o
write_gphys_l                                     output.o
write_gphys_q                                     output.o
write_gphys_w                                     output.o
write_hphys_b                                     output.o
write_hphys_l                                     output.o
write_hphys_q                                     output.o
write_hphys_w                                     output.o
write_linearaddr_b                                output.o
write_linearaddr_l                                output.o
write_linearaddr_ok_b                             output.o
write_linearaddr_ok_l                             output.o
write_linearaddr_ok_w                             output.o
write_linearaddr_q                                output.o
write_linearaddr_tss                              output.o
write_linearaddr_w                                output.o
x509_name_ff                                      output.o
