
Allocating common symbols
Common symbol       size              file

clflush_size        0x4               output.o
sReaderContext      0x60              output.o
sigx_app            0x8               output.o
num_dom             0x4               output.o
mszReaders          0x400             output.o
zero_page_pool      0x400             output.o
prohibit_iccard_init
                    0x4               output.o
curthread           0x8               output.o
sig_app             0x8               output.o
readerState         0x64              output.o
dom_io              0x800             output.o
acpi_dsdt_system_state
                    0x1e              output.o
ehci_host           0x8               output.o
num_of_processors   0x4               output.o
e801_fake_bx        0x2               output.o
iommu_detected      0x1               output.o
dwReaders           0x8               output.o
readerTracker       0x140             output.o
handler_descriptor_lock
                    0x1               output.o
e801_fake_ax        0x2               output.o

Discarded input sections

 .gomi          0x0000000000000000        0xe output.o

Memory Configuration

Name             Origin             Length             Attributes
*default*        0x0000000000000000 0xffffffffffffffff

Linker script and memory map

                0x0000000040100000                virt = 0x40100000
                0x0000000000100000                phys = 0x100000
                0x0000000040100000                . = virt
                0x0000000040100000                head = .
                0x00000000401000b0                . = (virt + SIZEOF_HEADERS)

.text           0x0000000040101000   0x114de7 load address 0x0000000000101000
                0x0000000040101000                code = .
 *(.entry)
 .entry         0x0000000040101000     0x6000 output.o
                0x000000004010100c                entry
                0x000000004010109a                cpuinit_start
                0x00000000401012c8                vmm_base_cr3
                0x00000000401012e0                apinit_procs
                0x00000000401012e8                apinit_lock
                0x00000000401012f0                cpuinit_end
                0x0000000040103000                entry_pdp
                0x0000000040104000                entry_pd0
                0x0000000040105000                entry_pd
 *(.text)
 .text          0x0000000040107000   0x10ede7 output.o
                0x000000004010766c                acpi_smi_hook
                0x00000000401076ba                acpi_iohook
                0x000000004010770c                acpi_reset
                0x0000000040107808                acpi_poweroff
                0x0000000040107841                get_acpi_time_raw
                0x000000004010c811                acpi_dsdt_parse
                0x000000004010ccea                apinitproc0
                0x000000004010cd13                apic_available
                0x000000004010cd3f                ap_start_addr
                0x000000004010cf82                panic_wakeup_all
                0x000000004010d006                disable_apic
                0x000000004010d07d                sync_all_processors
                0x000000004010d10d                start_all_processors
                0x000000004010d14c                assertion_failed
                0x000000004010d185                beep_set_freq
                0x000000004010d1b6                beep_on
                0x000000004010d1c6                beep_off
                0x000000004010d80d                update_mtrr_and_pat
                0x000000004010da52                cache_get_gpat
                0x000000004010daa8                cache_set_gpat
                0x000000004010daf2                cache_get_attr
                0x000000004010db98                cache_get_gmtrr_type
                0x000000004010dba3                cache_get_gmtrr_attr
                0x000000004010dbb6                cache_get_gmtrrcap
                0x000000004010dbe4                cache_get_gmtrr
                0x000000004010dd3d                cache_set_gmtrr
                0x000000004010dd97                cache_get_gmsr_amd
                0x000000004010dde7                cache_set_gmsr_amd
                0x000000004010e22b                callrealmode_endofcodeaddr
                0x000000004010e23c                callrealmode_usevcpu
                0x000000004010e249                callrealmode_printmsg
                0x000000004010e266                callrealmode_getsysmemmap
                0x000000004010e2bd                callrealmode_getshiftflags
                0x000000004010e2db                callrealmode_setvideomode
                0x000000004010e2f9                callrealmode_reboot
                0x000000004010e313                callrealmode_tcgbios
                0x000000004010e3a7                callrealmode_disk_readmbr
                0x000000004010e3e7                callrealmode_disk_readlba
                0x000000004010e42f                callrealmode_bootcd_getstatus
                0x000000004010e484                callrealmode_setcursorpos
                0x000000004010e4a9                callrealmode_startkernel32
                0x000000004010e4c9                callrealmode_getfontinfo
                0x000000004010e539                get_cpu_id
                0x000000004010e54d                cpu_emul_cpuid
                0x000000004010e601                cpu_emul_rdmsr
                0x000000004010e67a                cpu_emul_wrmsr
                0x000000004010e6f0                cpu_emul_hlt
                0x000000004010e708                cpu_emul_cli
                0x000000004010e741                cpu_emul_sti
                0x000000004010e788                cpu_emul_realmode_int
                0x000000004010e8ea                cpu_emul_xsetbv
                0x00000000401110f8                cpu_interpreter
                0x0000000040113420                cpu_mmu_get_pte
                0x0000000040113bb5                write_linearaddr_ok_b
                0x0000000040113bd7                write_linearaddr_ok_w
                0x0000000040113be2                write_linearaddr_ok_l
                0x0000000040113bed                write_linearaddr_b
                0x0000000040113c5b                write_linearaddr_w
                0x0000000040113cf3                write_linearaddr_l
                0x0000000040113d89                write_linearaddr_q
                0x0000000040113e1d                read_linearaddr_b
                0x0000000040113e8a                read_linearaddr_w
                0x0000000040113f1b                read_linearaddr_l
                0x0000000040113fac                read_linearaddr_q
                0x000000004011403d                read_linearaddr_tss
                0x00000000401140d0                write_linearaddr_tss
                0x000000004011802f                cpu_mmu_spt_tlbflush
                0x000000004011806a                cpu_mmu_spt_updatecr3
                0x000000004011830a                cpu_mmu_spt_invalidate
                0x0000000040118392                cpu_mmu_spt_pagefault
                0x0000000040118589                cpu_mmu_spt_extern_mapsearch
                0x00000000401186c8                cpu_mmu_spt_map_1mb
                0x000000004011887c                cpu_mmu_spt_clear_all
                0x00000000401189dd                cpu_mmu_spt_init
                0x0000000040118ff1                cpu_seg_read_b
                0x000000004011905e                cpu_seg_read_w
                0x00000000401190cb                cpu_seg_read_l
                0x0000000040119138                cpu_seg_read_q
                0x00000000401191a5                cpu_seg_write_b
                0x0000000040119213                cpu_seg_write_w
                0x0000000040119281                cpu_seg_write_l
                0x00000000401192ee                cpu_seg_write_q
                0x000000004011935b                cpu_stack_get
                0x00000000401193c5                cpu_stack_set
                0x000000004011945a                cpu_stack_push
                0x0000000040119506                cpu_stack_pop
                0x00000000401195f1                call_cpuid
                0x00000000401199aa                debug_addstr
                0x00000000401199b0                debug_gdb
                0x00000000401199b6                debug_iohook
                0x00000000401199bc                debug_msgregister
                0x00000000401199ec                debug_msgunregister
                0x0000000040119a89                do_exint_pass
                0x0000000040119b1d                read_gphys_b
                0x0000000040119b8f                write_gphys_b
                0x0000000040119c12                read_gphys_w
                0x0000000040119caf                write_gphys_w
                0x0000000040119d60                read_gphys_l
                0x0000000040119dfd                write_gphys_l
                0x0000000040119eb1                read_gphys_q
                0x0000000040119f4e                write_gphys_q
                0x0000000040119fff                cmpxchg_gphys_l
                0x000000004011a0bd                cmpxchg_gphys_q
                0x000000004011a17b                gmm_pass_gp2hp
                0x000000004011a645                idman_reinit_session
                0x000000004011a6c0                idman_reinit2
                0x000000004011a6e1                get_idman_session
                0x000000004011a721                call_initfunc
                0x000000004011a786                initfunc_init
                0x000000004011c305                int_fatal
                0x000000004011c664                callfunc_and_getint
                0x000000004011c678                do_externalint_enable
                0x000000004011c68d                set_int_handler
                0x000000004011c6ac                int_exceptionHandler
                0x000000004011c6b7                int_init_ap
                0x000000004011c70d                do_io_nothing
                0x000000004011c748                set_iofunc
                0x000000004011c7ea                call_io
                0x000000004011c8d0                do_iopass_default
                0x000000004011cab6                keyboard_reset
                0x000000004011cafb                setkbdled
                0x000000004011cb4c                keyboard_flush
                0x000000004011cb66                load_bootsector
                0x000000004011cf21                copy_bootsector
                0x000000004011d1d0                localapic_wait_for_sipi
                0x000000004011d25d                localapic_change_base_msr
                0x000000004011d2a9                localapic_mmio_register
                0x000000004011dc74                resume_vm
                0x000000004011dd2e                vmm_main
                0x000000004011e0b4                getsysmemmap
                0x000000004011e13b                getfakesysmemmap
                0x000000004011e1ad                phys_to_virt
                0x000000004011e1c3                vmm_start_inf
                0x000000004011e1cf                vmm_term_inf
                0x000000004011e1e0                num_of_available_pages
                0x000000004011e253                alloc_pages
                0x000000004011e2c9                alloc_page
                0x000000004011e2d9                alloc
                0x000000004011e571                alloc2
                0x000000004011e5a9                free
                0x000000004011e6bc                realloc
                0x000000004011e808                free_page
                0x000000004011e81b                free_page_phys
                0x000000004011e83e                mempool_new
                0x000000004011e8ac                mempool_free
                0x000000004011e95d                mempool_allocmem
                0x000000004011eb42                mempool_freemem
                0x000000004011edfe                sym_to_phys
                0x000000004011ee12                phys_in_vmm
                0x000000004011ee2e                mm_force_unlock
                0x000000004011ee60                mm_process_alloc
                0x000000004011f030                mm_process_free
                0x000000004011f08d                mm_process_switch
                0x000000004011f0ab                pmap_open_vmm
                0x000000004011f0d6                pmap_open_guest
                0x000000004011f118                pmap_close
                0x000000004011f11e                pmap_getreadlevel
                0x000000004011f12a                pmap_setlevel
                0x000000004011f136                pmap_seek
                0x000000004011f1a6                pmap_read
                0x000000004011f434                pmap_write
                0x000000004011f5cc                mm_process_unmap
                0x000000004011f6b9                mm_process_unmap_stack
                0x000000004011f894                mm_process_unmapall
                0x000000004011f93b                pmap_pointer
                0x000000004011f9a6                pmap_clear
                0x000000004011fa9c                pmap_autoalloc
                0x000000004011fc49                mm_process_map_alloc
                0x000000004011fd8c                mm_process_map_shared_physpage
                0x000000004011fdf6                mm_process_map_shared
                0x0000000040120054                mm_process_map_stack
                0x00000000401208fe                pmap_dump
                0x0000000040120a16                unmapmem
                0x0000000040120af7                mapmem
                0x000000004012103e                read_hphys_b
                0x0000000040121093                write_hphys_b
                0x00000000401210c5                read_hphys_w
                0x00000000401210fc                write_hphys_w
                0x000000004012112f                read_hphys_l
                0x0000000040121164                write_hphys_l
                0x0000000040121196                read_hphys_q
                0x00000000401211cd                write_hphys_q
                0x0000000040121201                cmpxchg_hphys_l
                0x0000000040121255                cmpxchg_hphys_q
                0x00000000401212a9                alloc_realmodemem
                0x000000004012134a                mapmem_hphys
                0x0000000040121362                mapmem_gphys
                0x000000004012137a                mm_flush_wb_cache
                0x0000000040121724                mmio_access_memory
                0x0000000040121882                mmio_access_page
                0x000000004012193e                mmio_register
                0x0000000040121b8d                mmio_unregister
                0x0000000040121c14                mmio_lock
                0x0000000040121c2f                mmio_unlock
                0x0000000040121ccf                msg_findname
                0x0000000040121d3f                msg_register
                0x0000000040121e0e                msg_unregister
                0x0000000040121e89                msg_unregisterall
                0x0000000040121f14                msg_unregister2
                0x0000000040121fe1                call_read_msr
                0x0000000040121ff5                call_write_msr
                0x0000000040122291                load_minios
                0x00000000401225c2                backtrace
                0x0000000040122f18                panic
                0x000000004012341d                auto_reboot
                0x000000004012343a                panic_test
                0x000000004012345d                pcpu_list_foreach
                0x000000004012349c                pcpu_list_add
                0x00000000401234f0                pcpu_init
                0x000000004012407a                vprintf
                0x00000000401240b5                printf
                0x00000000401240f3                vsnprintf
                0x0000000040124137                snprintf
                0x0000000040124373                sys_msgsetfunc
                0x0000000040124420                sys_msgclose
                0x000000004012443d                sys_msgret
                0x0000000040124529                sys_msgregister
                0x000000004012475a                sys_msgsenddesc
                0x0000000040124f6c                sys_msgsendint
                0x000000004012529c                sys_newprocess
                0x00000000401252fd                sys_msgunregister
                0x0000000040125389                sys_exitprocess
                0x00000000401253de                sys_msgsendbuf
                0x0000000040125539                sys_msgopen
                0x000000004012559a                process_kill
                0x00000000401255fb                msgsetfunc
                0x0000000040125610                msgregister
                0x0000000040125626                msgopen
                0x0000000040125639                msgclose
                0x000000004012564b                msgsendint
                0x000000004012565f                msgsenddesc
                0x0000000040125673                newprocess
                0x0000000040125686                msgsendbuf
                0x00000000401256a0                msgunregister
                0x00000000401256d0                exitprocess
                0x00000000401256e3                msgpremapbuf
                0x00000000401257ff                process_syscall
                0x00000000401258aa                putchar
                0x00000000401258e8                putchar_set_func
                0x0000000040125bba                do_panic_reboot
                0x0000000040125c44                handle_init_to_bsp
                0x0000000040125c65                reboot_test
                0x0000000040125c94                savemsr_save
                0x0000000040125d01                savemsr_load
                0x0000000040126069                get_seg_base
                0x0000000040126125                get_seg_access_rights
                0x0000000040126145                segment_wakeup
                0x0000000040126187                segment_init_ap
                0x0000000040126426                serial_putDebugChar
                0x0000000040126438                serial_getDebugChar
                0x000000004012644d                serial_putchar
                0x00000000401264af                serial_init_iohook
                0x00000000401264f5                waitcycles
                0x0000000040126518                usleep
                0x0000000040126637                sleep_set_timer_counter
                0x000000004012679e                vmctl_svm_init
                0x0000000040126846                message_exitcode
                0x0000000040126dc9                printexitcode
                0x0000000040126df6                svm_available
                0x0000000040126ea7                svm_reset
                0x0000000040127124                svm_vminit
                0x00000000401274ce                svm_vmexit
                0x00000000401274d4                svm_init
                0x000000004012761b                svm_enable_resume
                0x0000000040127720                svm_resume
                0x0000000040127872                svm_ioio
                0x000000004012797c                svm_extern_iopass
                0x0000000040127ae4                svm_init_signal
                0x0000000040127b07                svm_start_vm
                0x0000000040128620                svm_msr_update_lma
                0x0000000040128695                svm_read_msr
                0x000000004012893a                svm_write_msr
                0x0000000040128ead                svm_np_init
                0x0000000040128fa1                svm_np_pagefault
                0x0000000040128fd9                svm_np_tlbflush
                0x0000000040128fdf                svm_np_updatecr3
                0x0000000040128fea                svm_np_clear_all
                0x000000004012907d                svm_np_extern_mapsearch
                0x0000000040129106                svm_np_map_1mb
                0x0000000040129160                svm_paging_extern_flush_tlb_entry
                0x0000000040129187                svm_paging_map_1mb
                0x00000000401291b1                svm_paging_flush_guest_tlb
                0x00000000401291f0                svm_paging_init
                0x000000004012930e                svm_paging_pagefault
                0x000000004012933a                svm_paging_tlbflush
                0x0000000040129361                svm_paging_invalidate
                0x000000004012938f                svm_paging_npf
                0x00000000401293bb                svm_paging_updatecr3
                0x00000000401293e7                svm_paging_spt_setcr3
                0x000000004012941b                svm_paging_clear_all
                0x0000000040129447                svm_paging_get_gpat
                0x0000000040129452                svm_paging_set_gpat
                0x0000000040129493                svm_paging_apply_fixed_cr0
                0x00000000401294b6                svm_paging_apply_fixed_cr4
                0x00000000401294da                svm_paging_pg_change
                0x00000000401294e0                svm_paging_start
                0x00000000401294f2                svm_panic_dump
                0x00000000401295c0                svm_read_general_reg
                0x00000000401296fc                svm_write_general_reg
                0x0000000040129808                svm_read_control_reg
                0x00000000401298a3                svm_write_control_reg
                0x000000004012997f                svm_read_sreg_sel
                0x0000000040129a40                svm_read_sreg_acr
                0x0000000040129b1b                svm_read_sreg_base
                0x0000000040129c37                svm_read_sreg_limit
                0x0000000040129d48                svm_read_ip
                0x0000000040129d67                svm_write_ip
                0x0000000040129d8d                svm_read_flags
                0x0000000040129dac                svm_write_flags
                0x0000000040129dc8                svm_read_gdtr
                0x0000000040129dff                svm_write_gdtr
                0x0000000040129e28                svm_read_idtr
                0x0000000040129e5f                svm_write_idtr
                0x0000000040129e88                svm_write_realmode_seg
                0x0000000040129fc7                svm_writing_sreg
                0x000000004012a0de                int1a_TCG_StatusCheck
                0x000000004012a191                int1a_TCG_HashLogExtendEvent
                0x000000004012a21c                int1a_TCG_PassThroughToTPM
                0x000000004012a2a7                int1a_TCG_HashLogEvent
                0x000000004012a328                int1a_TCG_HashAll
                0x000000004012a3e0                int1a_TCG_TSS
                0x000000004012a46b                int1a_TCG_CompactHashLogExtendEvent
                0x000000004012a4cc                tcg_measure
                0x000000004012a7c5                thread_gettid
                0x000000004012a7da                schedule
                0x000000004012aa20                thread_new
                0x000000004012ab4d                thread_wakeup
                0x000000004012ac32                thread_will_stop
                0x000000004012acaa                thread_exit
                0x000000004012ad4e                thread_start1
                0x000000004012ad6c                thread_set_process_switch
                0x000000004012af14                get_cpu_time
                0x000000004012afe7                get_acpi_time
                0x000000004012b098                get_time
                0x000000004012b275                timer_new
                0x000000004012b2f6                timer_set
                0x000000004012b3ec                timer_free
                0x000000004012b5de                tty_putchar
                0x000000004012b768                ttylog_stop
                0x000000004012b778                tty_udp_register
                0x000000004012b7bc                tty_init_iohook
                0x000000004012b7e3                vcpu_list_foreach
                0x000000004012b822                load_new_vcpu
                0x000000004012b8e4                vga_register
                0x000000004012b958                vga_is_ready
                0x000000004012b9b8                vga_transfer_image
                0x000000004012ba06                vga_fill_rect
                0x000000004012ba41                vga_get_screen_size
                0x000000004012bb65                vmmcall
                0x000000004012bbbe                vmmcall_register
                0x000000004012bbfb                vmmcall_init
                0x000000004012bfa5                vmmcall_boot_continue
                0x000000004012bff0                vmmcall_boot_enable
                0x000000004012c877                register_status_callback
                0x000000004012c96c                vramwrite_clearscreen
                0x000000004012c9ce                vramwrite_putchar
                0x000000004012cba5                vramwrite_mark1
                0x000000004012cbe6                vramwrite_mark2
                0x000000004012cc2e                vramwrite_mark3
                0x000000004012cc77                vramwrite_save_and_move_cursor
                0x000000004012ccae                vramwrite_restore_cursor
                0x000000004012ccc0                vramwrite_get_cursor_pos
                0x000000004012cd0e                vramwrite_init_global
                0x000000004012cd1b                vramwrite_exit_global
                0x000000004012cdce                vt_generate_pagefault
                0x000000004012ce57                vt_generate_external_int
                0x000000004012cea9                vmctl_vt_init
                0x000000004012cf51                vt_vmptrld
                0x000000004012d262                vt_ept_init
                0x000000004012d35e                vt_ept_violation
                0x000000004012d4dc                vt_ept_tlbflush
                0x000000004012d4e2                vt_ept_updatecr3
                0x000000004012d5d4                vt_ept_clear_all
                0x000000004012d667                vt_ept_extern_mapsearch
                0x000000004012d6f0                vt_ept_map_1mb
                0x000000004012d742                message_exitreason
                0x000000004012d8a8                printexitreason
                0x000000004012e13a                vt_available
                0x000000004012e1d9                vt__vmx_init
                0x000000004012e221                vt__vmxon
                0x000000004012e2ce                vt_vminit
                0x000000004012e32a                vt_vmexit
                0x000000004012e344                vt_init
                0x000000004012e354                vt_enable_resume
                0x000000004012e48d                vt_resume
                0x000000004012e625                vt_io
                0x000000004012e746                vt_iopass_init
                0x000000004012e8db                vt_iopass
                0x000000004012e91e                vt_extern_iopass
                0x000000004012f54e                vt_update_exception_bmp
                0x000000004012fb89                vt_init_signal
                0x000000004012fb94                vt_start_vm
                0x000000004012ff6a                vt_add_guest_msr
                0x00000000401300c2                vt_read_guest_msr
                0x00000000401300f5                vt_write_guest_msr
                0x0000000040130125                vt_msr_update_lma
                0x00000000401301fd                vt_read_msr
                0x00000000401304a3                vt_write_msr
                0x0000000040130761                vt_msr_init
                0x0000000040130963                vt_paging_extern_flush_tlb_entry
                0x00000000401309c7                vt_paging_map_1mb
                0x00000000401309e7                vt_paging_flush_guest_tlb
                0x0000000040130a47                vt_paging_pagefault
                0x0000000040130a7c                vt_paging_tlbflush
                0x0000000040130a99                vt_paging_invalidate
                0x0000000040130acc                vt_paging_npf
                0x0000000040130b01                vt_paging_updatecr3
                0x0000000040130b31                vt_paging_spt_setcr3
                0x0000000040130b5c                vt_paging_clear_all
                0x0000000040130b8f                vt_paging_get_gpat
                0x0000000040130b9a                vt_paging_set_gpat
                0x0000000040130bee                vt_paging_apply_fixed_cr0
                0x0000000040130c56                vt_paging_apply_fixed_cr4
                0x0000000040130c9e                vt_paging_pg_change
                0x0000000040130e1e                vt_paging_init
                0x0000000040130e99                vt_paging_start
                0x0000000040130ec6                vt_panic_dump
                0x0000000040131070                vt_read_general_reg
                0x0000000040131191                vt_write_general_reg
                0x0000000040131285                vt_read_control_reg
                0x00000000401312f3                vt_read_sreg_sel
                0x00000000401313fc                vt_read_sreg_acr
                0x0000000040131453                vt_read_sreg_base
                0x00000000401314d5                vt_read_sreg_limit
                0x0000000040131552                vt_read_ip
                0x0000000040131560                vt_write_ip
                0x0000000040131580                vt_read_flags
                0x00000000401315a6                vt_write_flags
                0x00000000401315d1                vt_read_gdtr
                0x00000000401315e6                vt_write_gdtr
                0x00000000401315fb                vt_read_idtr
                0x000000004013163f                vt_write_idtr
                0x0000000040131675                vt_write_control_reg
                0x0000000040131b48                vt_get_current_regs_in_vmcs
                0x0000000040131dd3                vt_get_vmcs_regs_in_vmcs
                0x0000000040131f50                vt_write_realmode_seg
                0x0000000040132099                vt_writing_sreg
                0x0000000040132122                vt_reset
                0x0000000040132400                prepare_for_sleep
                0x00000000401324c1                cancel_sleep
                0x00000000401324e3                wakeup_main
                0x000000004013256b                wakeup_cont
                0x00000000401326a0                wakeup_init
                0x00000000401326e9                call_xsetbv
                0x0000000040132760                mpumul_64_64
                0x0000000040132780                mpudiv_128_32
                0x00000000401327a0                ipchecksum
                0x0000000040132830                asm_vmlaunch_regs_32
                0x00000000401328b0                asm_vmresume_regs_32
                0x0000000040132930                asm_vmrun_regs_32
                0x0000000040132990                asm_vmlaunch_regs_64
                0x0000000040132a70                asm_vmresume_regs_64
                0x0000000040132b50                asm_vmrun_regs_64
                0x0000000040132bf1                callrealmode_start
                0x0000000040132c07                callrealmode_start2
                0x0000000040133093                move_vmm_area32
                0x0000000040133093                callrealmode_end
                0x00000000401330b8                move_vmm_area64
                0x00000000401330e0                int_handler
                0x0000000040133158                int_callfunc
                0x0000000040134000                syscall_entry_sysexit
                0x000000004013402c                syscall_entry_lret
                0x000000004013405c                ret_to_user32
                0x0000000040134068                syscall_entry_sysret64
                0x00000000401340b0                ret_to_user64
                0x0000000040135000                processuser_sysenter
                0x0000000040136000                processuser_no_sysenter
                0x0000000040137000                processuser_syscall
                0x0000000040138140                memset
                0x00000000401381c0                memcpy
                0x0000000040138200                strcmp
                0x0000000040138240                memcmp
                0x0000000040138280                strlen
                0x0000000040138298                sx_handler
                0x00000000401382f0                thread_switch
                0x0000000040138310                thread_start0
                0x000000004013834a                get_guest_cr3_value
                0x0000000040138358                get_guest_eptp_value
                0x0000000040138366                monitor_vmcs_read
                0x000000004013836f                monitor_vmcs_write
                0x0000000040138378                hypercall_handler
                0x0000000040138397                get_page_table_base_GPA
                0x00000000401383ad                get_ept_base_HPA
                0x00000000401383c3                traverseGuestPages
                0x00000000401383ce                saveSystemCallHandlerAddress
                0x000000004013840f                getSystemCallHandlerGPA
                0x000000004013841c                save_guest_status
                0x00000000401387a0                clear_guest_status
                0x0000000040138a8e                restore_guest_status
                0x0000000040138da8                getTSSGVA
                0x0000000040138db8                getGuestRSP
                0x0000000040138ddd                closePage
                0x0000000040138de8                allocateNewVMID
                0x0000000040138dfe                allocateNewAppID
                0x0000000040138e16                allocateNewApplicationIdentifiers
                0x0000000040138e40                protectCurrentApplication
                0x0000000040138eb1                getMemoryOwnershipTableIndex
                0x0000000040138ebe                remapPage
                0x0000000040138f08                changePageStatus
                0x0000000040139000                openPage
                0x000000004013908f                getMemoryOwnershipTableEntry
                0x00000000401390c7                initializeNewProtectedApplication
                0x00000000401390e2                getCurrentProtectedApplication
                0x0000000040139147                findProtectedApplicationFromRIP
                0x000000004013919f                setCurrentProtectedApplication
                0x00000000401391ac                traverseIA32ePages
                0x0000000040139428                traverseIA32ePDPT
                0x0000000040139605                traverseIA32ePDT
                0x000000004013974c                traverseIA32ePT
                0x00000000401397fc                gvaToGPA
                0x0000000040139a32                mapHPAintoHVA
                0x0000000040139a58                gpaToHPA
                0x0000000040139c53                unmapHPAintoHVA
                0x0000000040139c5e                monitor_memset
                0x0000000040139c78                virt_to_phys
                0x0000000040139c85                test_start
                0x0000000040139cd1                test_gpaToHPA
                0x0000000040139d1a                test_traverseGuestPages
                0x0000000040139d57                test_logicalCPUStatus
                0x0000000040139d7e                restore_register
                0x0000000040139e2b                handleSystemCall
                0x0000000040139e7c                initPagePool
                0x0000000040139eae                findUnmappedPage
                0x0000000040139ee8                allocateNewZeroPage
                0x0000000040139f50                core_init
                0x0000000040139f61                core_mm_read_guest_phys
                0x0000000040139fdb                core_mm_write_guest_phys
                0x000000004013a055                alloc_handler_descriptor
                0x000000004013a065                core_io_modify_handler
                0x000000004013a126                core_io_unregister_handler
                0x000000004013a1ad                core_io_handle_default
                0x000000004013a445                panic_oom
                0x000000004013a458                core_io_register_handler
                0x000000004013a5a0                matched_drhd_u
                0x000000004013a5fe                parse_dmar_bios_report
                0x000000004013a649                ieee1394_init
                0x000000004013a682                iommu_setup
                0x000000004013a688                iodom_init
                0x000000004013a858                add_remap
                0x000000004013a8e2                create_dom
                0x000000004013ac11                pci_conceal_new_device
                0x000000004013afe7                pci_conceal_config_data_handler
                0x000000004013b00c                pci_save_config_addr
                0x000000004013b01e                pci_restore_config_addr
                0x000000004013b030                pci_append_device
                0x000000004013b062                pci_config_data_handler
                0x000000004013b395                pci_config_addr_handler
                0x000000004013b3de                pci_register_driver
                0x000000004013b47d                pci_read_config_data8
                0x000000004013b4c3                pci_read_config_data16
                0x000000004013b50a                pci_read_config_data32
                0x000000004013b550                pci_write_config_data8
                0x000000004013b596                pci_write_config_data16
                0x000000004013b5dd                pci_write_config_data32
                0x000000004013b623                pci_read_config_data_port
                0x000000004013b655                pci_write_config_data_port
                0x000000004013b68b                pci_handle_default_config_write
                0x000000004013b6be                pci_print_device
                0x000000004013ba29                pci_possible_new_device
                0x000000004013ba51                security_storage_check_lba
                0x000000004013ed86                ahci_new
                0x000000004013f010                ahci_config_read
                0x000000004013f077                ahci_config_write
                0x000000004013f32f                ata_bm_handle_command
                0x000000004013f466                ata_bm_handle_status
                0x000000004013f517                ata_bm_handle_prd_table
                0x000000004013f616                ata_bm_handler
                0x000000004013f719                ata_get_cmd_type
                0x000000004013fa83                ata_handle_queued_status
                0x0000000040140449                ata_channel_lock
                0x00000000401404c5                ata_channel_unlock
                0x00000000401404ec                ata_cmdblk_handler
                0x00000000401405fe                ata_ctlblk_handler
                0x000000004014122f                ata_ahci_mode
                0x0000000040141735                ata_init_io_handler
                0x00000000401417da                ata_set_bm_handler
                0x0000000040141831                ata_set_cmdblk_handler
                0x000000004014186a                ata_set_ctlblk_handler
                0x00000000401418a5                ata_config_read
                0x000000004014194b                ata_config_write
                0x0000000040141ac5                ata_init_vendor
                0x0000000040141aec                ata_bm_handle_device_specific
                0x0000000040141bf0                atapi_handle_config_data
                0x0000000040141e30                atapi_handle_interrupt_reason
                0x0000000040141e76                atapi_handle_pio_identify_packet
                0x0000000040142010                atapi_handle_packet_data
                0x000000004014201b                atapi_handle_cmd_packet
                0x0000000040142099                packet_handle_through
                0x00000000401420cc                packet_handle_nondata
                0x00000000401420e6                packet_handle_config
                0x0000000040142130                packet_handle_rw
                0x00000000401421b1                packet_handle_invalid
                0x00000000401421cb                packet_handle_command
                0x0000000040142200                uhci_init
                0x0000000040142a7f                uhci_current_frame_number
                0x0000000040142aa0                dump_td_byvirt
                0x0000000040142c79                dump_td
                0x0000000040142d4b                dump_qh
                0x0000000040142f20                dump_frame
                0x000000004014302a                uhci_dump_all
                0x00000000401431ec                uhci_error_status_string
                0x00000000401434cb                uhci_shadow_buffer
                0x000000004014374e                uhci_framelist_monitor
                0x00000000401456ce                scan_gframelist
                0x0000000040145f7b                uhci_create_urb
                0x00000000401460df                uhci_destroy_urb
                0x000000004014620c                uhci_destroy_unlinked_urbs
                0x00000000401462e1                uhci_deactivate_urb
                0x000000004014666e                uhci_activate_urb
                0x0000000040146c2a                uhci_reactivate_urb
                0x0000000040146cd0                uhci_submit_control
                0x0000000040147304                uhci_submit_interrupt
                0x000000004014736c                uhci_submit_bulk
                0x00000000401473d4                uhci_check_urb_advance
                0x000000004014740f                uhci_check_advance
                0x0000000040147615                init_hframelist
                0x00000000401478f1                ehci_conceal_portroute
                0x0000000040147939                ehci_init
                0x00000000401496f7                ehci_dump_qtd
                0x000000004014976a                ehci_dump_qtdm
                0x000000004014979f                ehci_dump_alist
                0x0000000040149862                ehci_dump_urblist
                0x00000000401498f8                ehci_dump_urb
                0x0000000040149db5                ehci_dump_async
                0x000000004014a236                ehci_dump_all
                0x000000004014b7b3                ehci_shadow_buffer
                0x000000004014ba6f                get_gurb_by_address
                0x000000004014bb05                shadow_and_activate_urb
                0x000000004014bde9                ehci_deactivate_urb
                0x000000004014bf83                deactivate_and_delete_urb
                0x000000004014c1ec                ehci_check_urb_advance
                0x000000004014c3b6                ehci_check_advance
                0x000000004014c604                ehci_shadow_async_list
                0x000000004014c71e                ehci_cleanup_urbs
                0x000000004014c88b                ehci_end_monitor_async
                0x000000004014c8f4                ehci_monitor_async_list
                0x000000004014cfb3                ehci_submit_control
                0x000000004014d543                ehci_submit_bulk
                0x000000004014d54e                ehci_submit_interrupt
                0x000000004014f0f3                usbmsc_init_handle
                0x000000004014f4ce                usbhub_init_handle
                0x000000004014f547                hub_portdevice_register
                0x000000004014fc10                usbccid_init_handle
                0x000000004014fd30                usb_set_debug
                0x000000004014fd3c                usb_init
                0x000000004014fd42                usb_find_busses
                0x000000004014fe23                usb_get_busses
                0x000000004014fe30                usb_get_bus
                0x000000004014fe5f                usb_find_devices
                0x000000004014feaf                usb_open
                0x000000004014ff19                usb_close
                0x000000004014ff29                usb_resetep
                0x000000004014ff34                usb_clear_halt
                0x000000004014ff3f                usb_reset
                0x000000004014ff4a                usb_claim_interface
                0x000000004014ff58                usb_release_interface
                0x000000004014ff6a                usb_set_configuration
                0x0000000040150215                usb_set_altinterface
                0x00000000401504c2                usb_control_msg
                0x0000000040150811                usb_get_string
                0x0000000040150b4c                usb_get_string_simple
                0x0000000040150d4c                usb_get_descriptor
                0x000000004015108d                usb_get_descriptor_early
                0x00000000401513d6                usb_get_descriptor_by_endpoint
                0x000000004015171c                usb_bulk_write
                0x0000000040151950                usb_interrupt_write
                0x0000000040151b82                usb_bulk_read
                0x0000000040151e3e                usb_interrupt_read
                0x00000000401520fd                usb_register_host
                0x0000000040152218                usb_unregister_devices
                0x000000004015224a                usb_sc_lock
                0x00000000401522c2                usb_sc_unlock
                0x00000000401529d8                free_config_descriptors
                0x0000000040152b29                free_device
                0x0000000040152c95                handle_connect_status
                0x0000000040152d90                handle_port_reset
                0x0000000040152e71                dprintf_port
                0x0000000040153e19                usb_init_device_monitor
                0x0000000040153e83                usb_new_dev_handle
                0x0000000040153f34                usbhid_init_handle
                0x000000004015406a                usb_hook_process
                0x000000004015436a                usb_hook_register
                0x0000000040154444                usb_hook_unregister
                0x00000000401544c8                _dprintf
                0x0000000040154515                _dprintft
                0x00000000401545c8                pro100_io_handler
                0x00000000401545d3                pro100_config_read
                0x00000000401545e8                pro100_config_write
                0x0000000040154712                pro100_init
                0x000000004015472c                pro100_init_vpn_client
                0x000000004015476b                pro100_sleep
                0x000000004015479b                pro100_beep
                0x00000000401547c5                pro100_get_ctx
                0x0000000040154868                pro100_alloc_page
                0x00000000401548a2                pro100_free_page
                0x00000000401548c7                pro100_get_op_size
                0x000000004015490a                pro100_mem_read
                0x0000000040154980                pro100_read_send_packet
                0x0000000040154b92                pro100_mem_write
                0x0000000040154c06                pro100_write
                0x0000000040154c79                pro100_read
                0x0000000040154cf8                pro100_wait_cu_ru_accepable
                0x0000000040154d33                pro100_init_cu_base_addr
                0x0000000040154d93                pro100_init_ru_base_addr
                0x0000000040154df3                pro100_flush
                0x0000000040154e0e                pro100_exec_cu_op
                0x0000000040154f52                pro100_send_packet_to_line
                0x000000004015508f                pro100_generate_int
                0x00000000401550bf                pro100_write_recv_packet
                0x000000004015523b                pro100_proc_guest_op
                0x0000000040155446                pro100_get_int_bit_string
                0x00000000401554bc                pro100_get_stat_ack_string
                0x0000000040155527                pro100_get_cu_command_string
                0x00000000401555a9                pro100_get_ru_command_string
                0x00000000401555f3                pro100_init_recv_buffer
                0x000000004015572a                pro100_poll_ru
                0x0000000040155825                pro100_hook_write
                0x0000000040155aeb                pro100_hook_read
                0x0000000040155ca2                pro100_mm_handler
                0x0000000040155df6                pro100_alloc_recv_buffer
                0x0000000040155e63                pro100_new
                0x00000000401580b3                storage_premap_buf
                0x00000000401580be                storage_premap_handle_sectors
                0x00000000401583f2                storage_get_num_hc
                0x0000000040158424                storage_hc_open
                0x0000000040158518                storage_hc_close
                0x0000000040158562                storage_hc_hook_register
                0x00000000401585d9                storage_hc_hook_unregister
                0x0000000040158673                storage_hc_register
                0x0000000040158851                storage_hc_unregister
                0x000000004015895a                storage_hc_scandev
                0x00000000401589a1                storage_hc_dev_open
                0x0000000040158ade                storage_hc_dev_atacommand
                0x0000000040158cb5                storage_hc_dev_close
                0x0000000040158d7d                storage_io_init
                0x0000000040158d92                storage_io_deinit
                0x0000000040158d9d                storage_io_get_num_devices
                0x0000000040158e5b                storage_io_aget_size
                0x0000000040158fcd                storage_io_aread
                0x000000004015920e                storage_io_awrite
                0x0000000040159992                storage_handle_sectors
                0x0000000040159bdb                storage_new
                0x0000000040159e22                storage_free
                0x000000004015a021                storage_init
                0x000000004015a255                aes_xts_init
                0x000000004015a288                crypto_find
                0x000000004015a2db                crypto_register
                0x000000004015a32b                crypto_init
                0x000000004015a382                crypto_none_init
                0x000000004015a3ba                vpn_GetCurrentCpuId
                0x000000004015a3c5                vpn_GetTickCount
                0x000000004015a3f5                vpn_NewTimer
                0x000000004015a40f                vpn_SetTimer
                0x000000004015a423                vpn_FreeTimer
                0x000000004015a42e                vpn_GetPhysicalNicInfo
                0x000000004015a43d                vpn_SendPhysicalNic
                0x000000004015a44c                vpn_SetPhysicalNicRecvCallback
                0x000000004015a45b                vpn_GetVirtualNicInfo
                0x000000004015a46b                vpn_SendVirtualNic
                0x000000004015a47b                vpn_SetVirtualNicRecvCallback
                0x000000004015a48b                vpn_premap_PhysicalNicRecv
                0x000000004015a4a4                vpn_premap_VirtualNicRecv
                0x000000004015a4bd                vpn_premap_recvbuf
                0x000000004015a4c8                vpn_ic_rsa_sign
                0x000000004015a561                vpn_new_nic
                0x000000004015ab71                msg_vpn_GetCurrentCpuId
                0x000000004015ab8b                msg_vpn_ic_rsa_sign
                0x000000004015ac37                msg_vpn_GetTickCount
                0x000000004015ac75                msg_vpn_GetPhysicalNicInfo
                0x000000004015acd9                msg_vpn_SendPhysicalNic
                0x000000004015ad93                msg_vpn_SetPhysicalNicRecvCallback
                0x000000004015addf                msg_vpn_GetVirtualNicInfo
                0x000000004015ae43                msg_vpn_SendVirtualNic
                0x000000004015aefd                msg_vpn_SetVirtualNicRecvCallback
                0x000000004015af49                msg_vpn_NewTimer
                0x000000004015afb9                msg_vpn_SetTimer
                0x000000004015b08c                msg_vpn_FreeTimer
                0x000000004015b0f2                vpn_start
                0x000000004015b47c                vpn_user_init
                0x000000004015b4e0                SeFreeConfigEntryList
                0x000000004015b53e                SeGetConfigEntry
                0x000000004015b5af                SeGetConfigStr
                0x000000004015b5dc                SeGetConfigBool
                0x000000004015b688                SeGetConfigInt
                0x000000004015b6ac                SeGetConfigInt64
                0x000000004015b6d0                SeGetConfigBin
                0x000000004015b6f4                SeIsSplitChar
                0x000000004015b767                SeGetKeyAndValue
                0x000000004015b8f7                SeLoadConfigEntryListFromBuf
                0x000000004015ba6f                SeLoadConfigEntryList
                0x000000004015bac0                SePKeyPasswordCallbackFunction
                0x000000004015baed                SeDhFree
                0x000000004015bb27                SeRsaVerifyWithPadding
                0x000000004015bc01                SeRsaSignWithPadding
                0x000000004015bcc5                SeRsaPublicDecrypt
                0x000000004015bd6e                SeRsaPrivateEncrypt
                0x000000004015be17                SeRsaPrivateDecrypt
                0x000000004015beb8                SeRsaPublicEncrypt
                0x000000004015bf59                SeGetCertSha1
                0x000000004015bfa1                SeGetCertMd5
                0x000000004015bfe9                SeBinToBigNum
                0x000000004015c034                SeBufToBigNum
                0x000000004015c04f                SeDhCompute
                0x000000004015c0db                SeBigNumToBuf
                0x000000004015c174                SeRsaPublicSize
                0x000000004015c1bf                SeRsaPublicToBin
                0x000000004015c223                SeRsaPublicToBuf
                0x000000004015c267                SeDhNew
                0x000000004015c33d                SeDhNewGroup2
                0x000000004015c352                SeCheckSignature
                0x000000004015c37c                SeGetKeyFromCert
                0x000000004015c3b8                SeCompareCert
                0x000000004015c3e2                SeCheckCertAndKey
                0x000000004015c40c                SeIsBase64
                0x000000004015c4cd                SeFreePKey
                0x000000004015c4dd                SeFreeKey
                0x000000004015c505                SeIsCertSignedByCert
                0x000000004015c575                SeCheckCert
                0x000000004015c5db                SeBioToKey
                0x000000004015c6e9                SeGetCertIssuerName
                0x000000004015c775                SeGetCertSubjectName
                0x000000004015c7ff                SeFreeX509
                0x000000004015c80f                SeFreeCert
                0x000000004015c83d                SeFreeBio
                0x000000004015c84d                SeNewBio
                0x000000004015c860                SeCertToBio
                0x000000004015c8c1                SeKeyToBio
                0x000000004015c9bd                SeRsaGen
                0x000000004015cb28                SeBioToBuf
                0x000000004015cbc9                SeCertToBuf
                0x000000004015cc14                SeSaveCert
                0x000000004015cc75                SeKeyToBuf
                0x000000004015ccc0                SeSaveKey
                0x000000004015cd24                SeX509ToCert
                0x000000004015cddc                SeBioToCert
                0x000000004015ce27                SeBigNumToStr
                0x000000004015ce93                SeBufToBio
                0x000000004015ceec                SeBufToKey
                0x000000004015cf58                SeLoadKey
                0x000000004015d003                SeCloneKey
                0x000000004015d06d                SeBufToCert
                0x000000004015d0c2                SeLoadCert
                0x000000004015d10f                SeCloneCert
                0x000000004015d160                SeSha1
                0x000000004015d180                SeHashForSignBySHA1
                0x000000004015d22a                SeRsaSignWithSha1
                0x000000004015d2cd                SeRsaVerifyWithSha1
                0x000000004015d36f                SeMacSha1
                0x000000004015d4c6                SeMacSha196
                0x000000004015d50d                SeMd5
                0x000000004015d52d                SeDes3Encrypt
                0x000000004015d5c5                SeDes3Decrypt
                0x000000004015d65f                SeDesNewKeyValue
                0x000000004015d6b1                SeDes3NewKey
                0x000000004015d732                SeDesNewKey
                0x000000004015d743                SeDesRandKeyValue
                0x000000004015d75f                SeDesRandKey
                0x000000004015d7a9                SeDes3RandKey
                0x000000004015d7f2                SeDesFreeKeyValue
                0x000000004015d81a                SeDes3FreeKey
                0x000000004015d854                SeDesFreeKey
                0x000000004015d85f                SeRand
                0x000000004015d873                SeRand64
                0x000000004015d88f                SeRand32
                0x000000004015d8aa                SeRand16
                0x000000004015d8c6                SeRand8
                0x000000004015d8e2                SeRand1
                0x000000004015d8f5                SeInitCrypto
                0x000000004015d938                SeFreeCrypto
                0x000000004015d950                SeIkeStrToPassword
                0x000000004015d9bd                SeIkePhase1CryptIdToKeySize
                0x000000004015d9dc                SeIkePhase2CryptIdToKeySize
                0x000000004015d9fb                SeIkeStrToPhase1CryptId
                0x000000004015da61                SeIkeStrToPhase1HashId
                0x000000004015daa0                SeIkeStrToPhase2CryptId
                0x000000004015db0b                SeIkeStrToPhase2HashId
                0x000000004015db4a                SeIkeIsZeroIP
                0x000000004015db78                SeIkeInitIPv6Address
                0x000000004015dbc5                SeIkeInitIPv4Address
                0x000000004015dc08                SeIkeGetIPv6Address
                0x000000004015dc42                SeIkeGetIPv4Address
                0x000000004015dc5b                SeIkeIpAddressToStr
                0x000000004015dcb5                SeIkeBuildDataPayload
                0x000000004015dcfe                SeIkeBuildTransformValue
                0x000000004015ddb8                SeIkeBuildTransformValueList
                0x000000004015de20                SeIkeBuildTransformPayload
                0x000000004015de9d                SeIkeBuildIdPayload
                0x000000004015df14                SeIkeBuildCertPayload
                0x000000004015df77                SeIkeBuildCertRequestPayload
                0x000000004015dfda                SeIkeBuildNoticePayload
                0x000000004015e067                SeIkeBuildDeletePayload
                0x000000004015e137                SeIkeGetFirstPayloadType
                0x000000004015e156                SeIkeBuildPayloadList
                0x000000004015e261                SeIkeBuildProposalPayload
                0x000000004015e30c                SeIkeBuildSaPayload
                0x000000004015e395                SeIkeBuildPayload
                0x000000004015e46e                SeIkeGetPayload
                0x000000004015e4bc                SeIkeGetPayloadNum
                0x000000004015e4f8                SeIkeNewPayload
                0x000000004015e516                SeIkeNewDataPayload
                0x000000004015e566                SeIkeNewSaPayload
                0x000000004015e591                SeIkeNewProposalPayload
                0x000000004015e61b                SeIkeNewTransformPayload
                0x000000004015e666                SeIkeNewIdPayload
                0x000000004015e6e6                SeIkeNewCertPayload
                0x000000004015e74a                SeIkeNewCertRequestPayload
                0x000000004015e7ae                SeIkeNewNoticePayload
                0x000000004015e84a                SeIkeNewDeletePayload
                0x000000004015e886                SeIkeNewTransformValue
                0x000000004015e8b5                SeIkeFreeTransformValueList
                0x000000004015e8f1                SeIkeParseTransformValueList
                0x000000004015ea5d                SeIkeParseTransformPayload
                0x000000004015eac9                SeIkeFreeTransformPayload
                0x000000004015eaf7                SeIkeParseIdPayload
                0x000000004015eb74                SeIkeFreeIdPayload
                0x000000004015eba2                SeIkeParseCertPayload
                0x000000004015ec0b                SeIkeFreeCertPayload
                0x000000004015ec39                SeIkeParseCertRequestPayload
                0x000000004015eca2                SeIkeFreeCertRequestPayload
                0x000000004015ecd0                SeIkeParseNoticePayload
                0x000000004015ed94                SeIkeFreeNoticePayload
                0x000000004015edd8                SeIkeFreeDeletePayload
                0x000000004015ee37                SeIkeParseDeletePayload
                0x000000004015ef45                SeIkeParseDataPayload
                0x000000004015ef7f                SeIkeFreeDataPayload
                0x000000004015ef92                SeIkeFreePayloadList
                0x000000004015efce                SeIkeParsePayloadListEx
                0x000000004015f151                SeIkeParsePayloadList
                0x000000004015f164                SeIkeParseProposalPayload
                0x000000004015f214                SeIkeParseSaPayload
                0x000000004015f2e1                SeIkeParsePayload
                0x000000004015f3e1                SeIkeFreeProposalPayload
                0x000000004015f425                SeIkeFreeSaPayload
                0x000000004015f451                SeIkeFreePayload
                0x000000004015f4f8                SeIkeEncrypt
                0x000000004015f5b3                SeIkeEncryptWithPadding
                0x000000004015f663                SeIkeBuild
                0x000000004015f7bc                SeIkeDecrypt
                0x000000004015f877                SeIkeFree
                0x000000004015f8b3                SeIkeParseEx
                0x000000004015fa9b                SeIkeParse
                0x000000004015faab                SeIkeParseHeader
                0x000000004015fabb                SeIkeNew
                0x000000004015fb40                VPN_IPsec_Client_Start
                0x000000004015fb66                VPN_IPsec_Client_Stop
                0x000000004015fb76                SeIntInit
                0x000000004015fb99                SeIntFree
                0x000000004015fbb3                VPN_IPsec_Init
                0x000000004015fc0f                VPN_IPsec_Free
                0x000000004015fc41                SeSysMemoryAlloc
                0x000000004015fc5d                SeSysMemoryReAlloc
                0x000000004015fc86                SeSysMemoryFree
                0x000000004015fc9e                SeSysGetCurrentCpuId
                0x000000004015fcb6                SeSysNewLock
                0x000000004015fcce                SeSysLock
                0x000000004015fce6                SeSysUnlock
                0x000000004015fcfe                SeSysFreeLock
                0x000000004015fd16                SeSysGetTickCount
                0x000000004015fd2e                SeSysNewTimer
                0x000000004015fd52                SeSysSetTimer
                0x000000004015fd6a                SeSysFreeTimer
                0x000000004015fd82                SeSysGetPhysicalNicInfo
                0x000000004015fd9f                SeSysSendPhysicalNic
                0x000000004015fdc5                SeSysSetPhysicalNicRecvCallback
                0x000000004015fde7                SeSysGetVirtualNicInfo
                0x000000004015fe04                SeSysSendVirtualNic
                0x000000004015fe2d                SeSysSetVirtualNicRecvCallback
                0x000000004015fe52                SeSysSaveData
                0x000000004015fe79                SeSysLoadData
                0x000000004015fea0                SeSysFreeData
                0x000000004015febb                SeSysRsaSign
                0x000000004015fef3                SeSysLog
                0x000000004015ff21                SeRsaSign
                0x000000004015ffc0                Se4ParseIpPacketUDPv4
                0x00000000401600bb                Se4FreeIpHeaderInfo
                0x00000000401600ef                Se4IpChecksum
                0x0000000040160162                Se4IpCheckChecksum
                0x00000000401601b1                Se4ParseIpPacketICMPv4
                0x00000000401602e0                Se4BuildIcmpEchoPacket
                0x000000004016039c                Se4AdjustTcpMss
                0x0000000040160541                Se4Tick
                0x0000000040160559                Se4BroadcastMacAddress
                0x0000000040160564                Se4SendEthPacket
                0x000000004016063b                Se4SendIpFragmentNow
                0x0000000040160664                Se4InitArpEntryList
                0x0000000040160674                Se4FreeArpEntryList
                0x00000000401606b0                Se4FlushArpEntryList
                0x000000004016075d                Se4SearchArpEntryList
                0x00000000401607e9                Se4AddArpEntryList
                0x00000000401608d6                Se4SearchArpWaitList
                0x000000004016091e                Se4InitArpWaitList
                0x000000004016092e                Se4FreeArpWaitList
                0x000000004016096a                Se4InsertIpWait
                0x00000000401609ec                Se4InitIpWaitList
                0x00000000401609fc                Se4FreeIpWait
                0x0000000040160a25                Se4FlushIpWaitList
                0x0000000040160ae7                Se4FreeIpWaitList
                0x0000000040160b23                Se4InitIpCombineList
                0x0000000040160b33                Se4SearchIpCombineList
                0x0000000040160ba9                Se4InitIpFragmentList
                0x0000000040160bb9                Se4InsertIpCombine
                0x0000000040160cb8                Se4FreeIpFragmentList
                0x0000000040160cf4                Se4FreeIpCombine
                0x0000000040160d2c                Se4FlushIpCombineList
                0x0000000040160e15                Se4FreeIpCombineList
                0x0000000040160e63                Se4Free
                0x0000000040160ea7                Se4And
                0x0000000040160ed6                Se4GetNetworkAddress
                0x0000000040160ee1                Se4Or
                0x0000000040160f10                Se4Not
                0x0000000040160f3a                Se4GetBroadcastAddress
                0x0000000040160f7f                Se4GetHostAddress
                0x0000000040160f99                Se4GenerateSubnetMask32
                0x0000000040160fba                Se4IPToStr
                0x0000000040160ffd                Se4ZeroIP
                0x0000000040161018                Se4StrToIP
                0x00000000401610b9                Se4IPToUINT
                0x00000000401610db                Se4StrToIP32
                0x00000000401610ed                Se4IsZeroIP
                0x0000000040161100                Se4Init
                0x0000000040161216                Se4Cmp
                0x000000004016124f                Se4CheckUnicastAddress
                0x00000000401612a0                Se4IsInSameNetwork
                0x00000000401612ef                Se4CmpIpCombineList
                0x000000004016138d                Se4SendWaitingIpWait
                0x000000004016146e                Se4MacIpRelationKnown
                0x000000004016151a                Se4CmpArpWaitEntry
                0x0000000040161551                Se4CmpArpEntry
                0x0000000040161588                Se4ParseIpPacket
                0x00000000401616de                Se4IsBroadcastAddress
                0x00000000401616f2                Se4SendArpResponse
                0x00000000401617d9                Se4SendArpDoProcess
                0x00000000401618df                Se4ProcessArpWaitList
                0x0000000040161993                Se4MainProc
                0x00000000401619c4                Se4SendArpRequest
                0x0000000040161a39                Se4UINTToIP
                0x0000000040161a5b                Se4IPToStr32
                0x0000000040161a7f                Se4GenerateSubnetMask
                0x0000000040161a91                Se4IsSubnetMask
                0x0000000040161ace                Se4RecvArpResponse
                0x0000000040161b13                Se4RecvArpRequest
                0x0000000040161c3d                Se4RecvArp
                0x0000000040161cfa                Se4SendRawIp
                0x0000000040161e5d                Se4SendIpFragment
                0x0000000040161f90                Se4SendIp
                0x0000000040162072                Se4SendUdp
                0x00000000401621a4                Se4SendIcmp
                0x000000004016225d                Se4SendIcmpEchoResponse
                0x00000000401622f2                Se4RecvIpComplete
                0x00000000401623bf                Se4CombineIp
                0x00000000401625bd                Se4SendIcmpEchoRequest
                0x0000000040162652                Se4RecvIp
                0x00000000401628ec                Se4RecvEthPacket
                0x0000000040162980                Se6FreeIpHeaderInfo
                0x00000000401629b4                Se6IpChecksum
                0x0000000040162a27                Se6CalcChecksum
                0x0000000040162ae8                Se6ParseIpPacketICMPv6
                0x0000000040162d26                Se6ParseIpPacketUDPv6
                0x0000000040162e75                Se6BuildIcmpEchoPacket
                0x0000000040162f5e                Se6BroadcastMacAddress
                0x0000000040162f69                Se6SendEthPacket
                0x0000000040163040                Se6SendIpFragmentNow
                0x0000000040163069                Se6InitNeighborEntryList
                0x0000000040163079                Se6FreeNeighborEntryList
                0x00000000401630b5                Se6FlushNeighborEntryList
                0x0000000040163162                Se6SearchNeighborEntryList
                0x00000000401631b9                Se6AddNeighborEntryList
                0x00000000401632a3                Se6SearchNdpWaitList
                0x00000000401632f2                Se6InitNdpWaitList
                0x0000000040163302                Se6FreeNdpWaitList
                0x000000004016333e                Se6InsertIpWait
                0x00000000401633cd                Se6InitIpWaitList
                0x00000000401633dd                Se6FreeIpWait
                0x0000000040163406                Se6FreeIpWaitList
                0x0000000040163442                Se6InitIpCombineList
                0x0000000040163452                Se6SearchIpCombineList
                0x00000000401634f6                Se6InitIpFragmentList
                0x0000000040163506                Se6FreeIpFragmentList
                0x0000000040163542                Se6FreeIpCombine
                0x000000004016357d                Se6FreeIpCombineList
                0x00000000401635cb                Se6Free
                0x000000004016361b                Se6Tick
                0x0000000040163633                Se6InsertIpCombine
                0x000000004016376a                Se6FlushIpCombineList
                0x0000000040163856                Se6FlushIpWaitList
                0x000000004016391e                Se6GenerateEui64Address
                0x000000004016397f                Se6GenerateMulticastMacAddress
                0x00000000401639b5                Se6GetAllNodeMulticastAddr
                0x00000000401639e1                Se6GetAllRouterMulticastAddr
                0x0000000040163a0d                Se6And
                0x0000000040163a4b                Se6GetPrefixAddress
                0x0000000040163a5a                Se6Or
                0x0000000040163a98                Se6Not
                0x0000000040163acc                Se6GetHostAddress
                0x0000000040163b08                Se6GenerateSubnetMask
                0x0000000040163b6d                Se6GetSoliciationMulticastAddr
                0x0000000040163c1e                Se6LocalSubnet
                0x0000000040163c32                Se6Cmp
                0x0000000040163c5e                Se6GetIPAddrType
                0x0000000040163d6c                Se6IsInSameNetwork
                0x0000000040163e33                Se6SendRawIp
                0x0000000040163fa5                Se6SendIpFragment
                0x0000000040163fc1                Se6SendIp
                0x000000004016413e                Se6SendUdp
                0x000000004016426a                Se6SendIcmp
                0x0000000040164366                Se6SendIcmpNeighborSoliciation
                0x00000000401644dc                Se6SendNeighborSoliciationDoProcess
                0x0000000040164596                Se6SendNeighborSoliciation
                0x000000004016461e                Se6ProcessNdpWaitList
                0x00000000401646d8                Se6SendIcmpNeighborAdvertisement
                0x000000004016481c                Se6SendIcmpEchoResponse
                0x00000000401648e1                Se6SendIcmpEchoRequest
                0x00000000401649a6                Se6IsSubnetMask
                0x0000000040164a08                Se6SubnetMaskToInt
                0x0000000040164a62                Se6SendIcmpRouterAdvertisement
                0x0000000040164c3a                Se6MainProc
                0x0000000040164c94                Se6CmpIpCombineList
                0x0000000040164d25                Se6SendWaitingIpWait
                0x0000000040164e1c                Se6MacIpRelationKnown
                0x0000000040164f3e                Se6CmpNdpWaitEntry
                0x0000000040164f7f                Se6CmpNeighborEntry
                0x0000000040164fc0                Se6ParseIpPacket
                0x0000000040165162                Se6IsZeroIP
                0x0000000040165182                Se6CheckUnicastAddress
                0x00000000401651b6                Se6IsNetworkPrefixAddress
                0x00000000401651f8                Se6IsGuestNode
                0x000000004016529c                Se6AddGuestNode
                0x0000000040165370                Se6RecvIpComplete
                0x0000000040165627                Se6CombineIp
                0x000000004016583d                Se6RecvIp
                0x0000000040165a7a                Se6RecvEthPacket
                0x0000000040165aec                Se6IPToStr
                0x0000000040165c4a                Se6IPItemStrToChars
                0x0000000040165d2a                Se6CheckIPItemStr
                0x0000000040165d93                Se6ZeroIP
                0x0000000040165db3                Se6StrToIP
                0x0000000040165f7f                Se6GenerateEui64LocalAddress
                0x0000000040165ff2                Se6Init
                0x0000000040166151                Se6GenerateEui64GlobalAddress
                0x0000000040166252                Se6CheckSubnetLength
                0x0000000040166270                SeTimerEntryCompare
                0x00000000401662b0                SeEthGetInfo
                0x00000000401662d4                SeEthSendAdd
                0x0000000040166307                SeEthParseEthernetPacket
                0x0000000040166408                SeEthGenRandMacAddress
                0x000000004016645a                SeLoad
                0x00000000401664bf                SeSave
                0x00000000401664db                SeTick
                0x00000000401664eb                SeGetCurrentCpuId
                0x00000000401664fb                SeNewLock
                0x0000000040166536                SeEthNew
                0x000000004016664c                SeTimerNew
                0x00000000401666c2                SeLock
                0x000000004016670c                SeUnlock
                0x0000000040166733                SeTick64Internal
                0x0000000040166789                SeTick64
                0x00000000401667a8                SeInitKernel
                0x00000000401667e2                SeEthGetNextRecvPacket
                0x000000004016682b                SeEthDeleteOldSenderMacList
                0x00000000401668ff                SeEthIsSenderMacAddressExistsInList
                0x00000000401669a6                SeEthNicCallback
                0x0000000040166aa7                SeEthAddSenderMacList
                0x0000000040166ba1                SeEthSend
                0x0000000040166c27                SeEthSendAll
                0x0000000040166cf8                SeTimerAdjust
                0x0000000040166d7e                SeTimerSet
                0x0000000040166e04                SeTimerCallback
                0x0000000040166f14                SeDeleteLock
                0x0000000040166f3c                SeEthFree
                0x0000000040166fe5                SeTimerFree
                0x000000004016703f                SeFreeKernel
                0x0000000040167055                SeLogArgs
                0x0000000040167093                SeWarning
                0x00000000401670d9                SeError
                0x000000004016711f                SeInfo
                0x0000000040167165                SeFatal
                0x00000000401671ab                SeDebug
                0x00000000401671f1                SeDebugBin
                0x000000004016725f                SeLog
                0x00000000401672a0                SeB64CodeToChar
                0x00000000401672e6                SeB64CharToCode
                0x000000004016732d                SeIsZero
                0x0000000040167376                SeReplaceListPointer
                0x00000000401673d2                SeIsInListStr
                0x0000000040167443                SeIsInList
                0x000000004016748e                SeCompareStr
                0x00000000401674b0                SeSetSortFlag
                0x00000000401674be                SeSetCmp
                0x00000000401674df                SeFastSwap
                0x0000000040167513                SeQSort
                0x000000004016782b                SeSort
                0x0000000040167863                SeBSearch
                0x0000000040167932                SeSearch
                0x000000004016799a                SeFifoSize
                0x00000000401679ad                SeDumpBuf
                0x00000000401679d5                SeSeekBuf
                0x0000000040167a0b                SeClearBuf
                0x0000000040167a24                SeSwap16
                0x0000000040167a3f                SeSwap32
                0x0000000040167a69                SeSwap64
                0x0000000040167ac0                SeMalloc
                0x0000000040167b02                SeNewBuf
                0x0000000040167b44                SeNewFifo
                0x0000000040167b86                SeReAlloc
                0x0000000040167bf7                SeAdjustBufSize
                0x0000000040167c2c                SeClearFifo
                0x0000000040167c69                SeAdd
                0x0000000040167cd3                SeInsert
                0x0000000040167e01                SeInsertStr
                0x0000000040167e54                SeDelete
                0x0000000040167f0f                SeDeleteAll
                0x0000000040167f46                SePop
                0x0000000040167fad                SePush
                0x0000000040168010                SeMemSize
                0x0000000040168042                SeFree
                0x0000000040168071                SeFreeBuf
                0x0000000040168099                SeFreeBufWithoutBuffer
                0x00000000401680a9                SeFreeFifo
                0x00000000401680d1                SeFreeList
                0x00000000401680fa                SeFreeQueue
                0x0000000040168123                SeFreeStack
                0x000000004016814c                SeIsLittleEndian
                0x000000004016815f                SeEndian16
                0x0000000040168183                SeEndian32
                0x00000000401681a6                SeEndian64
                0x00000000401681cd                SeIsBigEndian
                0x00000000401681e5                SeCmp
                0x0000000040168254                SeCmpEx
                0x0000000040168289                SeCmpBuf
                0x00000000401682ca                SeCopy
                0x00000000401682f2                SeClone
                0x000000004016833f                SeSwap
                0x0000000040168399                SeWriteBuf
                0x0000000040168410                SeMemToBuf
                0x0000000040168476                SeRandBuf
                0x00000000401684bc                SeCloneBuf
                0x00000000401684d7                SeWriteBufLine
                0x000000004016852f                SeWriteBufBuf
                0x000000004016854a                SeWriteBufInt
                0x000000004016858a                SeWriteBufInt64
                0x00000000401685cd                SeWriteBufStr
                0x000000004016863b                SeAddBufStr
                0x000000004016867a                SeReadDump
                0x00000000401686df                SePeekFifo
                0x000000004016871d                SePeekNext
                0x000000004016875b                SeReadFifo
                0x0000000040168848                SeGetNext
                0x0000000040168892                SeGetNextInt
                0x00000000401688c8                SeWriteFifo
                0x000000004016895c                SeInsertQueue
                0x0000000040168992                SeInsertQueueInt
                0x00000000401689c6                SeCopyToArray
                0x00000000401689ea                SeToArray
                0x0000000040168a2f                SeZero
                0x0000000040168a51                SeZeroMalloc
                0x0000000040168a89                SeNewList
                0x0000000040168adc                SeCloneList
                0x0000000040168b2a                SeNewQueue
                0x0000000040168b5e                SeNewStack
                0x0000000040168b99                SeB64Decode
                0x0000000040168d68                SeB64Encode
                0x0000000040168f21                SeReadBuf
                0x0000000040168fbb                SeReadBufFromBuf
                0x0000000040169057                SeReadRemainBuf
                0x000000004016907f                SeReadBufInt
                0x00000000401690b4                SeReadBufInt64
                0x00000000401690ec                SeReadBufStr
                0x00000000401691a0                SeBuildICMPv6OptionValue
                0x000000004016922f                SeBuildICMPv6Options
                0x00000000401692da                SeParseICMPv6Options
                0x00000000401693b3                SeFreePacketList
                0x00000000401693ef                SeFreePacketListWithoutBuffer
                0x000000004016942b                SeGetNextHeaderFromQueue
                0x0000000040169457                SeBuildAndAddIPv6PacketOptionHeader
                0x00000000401694f4                SeBuildIPv6Packet
                0x00000000401696d9                SeBuildIPv6PacketWithFragment
                0x0000000040169895                SeParseIPv6ExtHeader
                0x0000000040169982                SeParseIPv6Packet
                0x00000000401699fd                SeParsePacketL3IPv6
                0x0000000040169a3e                SeParsePacketL3IPv4
                0x0000000040169af7                SeParsePacketL3ARPv4
                0x0000000040169b21                SeParsePacketL2
                0x0000000040169bc3                SeFreePacket
                0x0000000040169bd3                SeParsePacket
                0x0000000040169c70                SeSecCmpIkeSa
                0x0000000040169d48                SeSecCalcP2Iv
                0x0000000040169dfc                SeSecCalcP1Iv
                0x0000000040169ea9                SeSecCalcKEYMATFull
                0x0000000040169fb3                SeSecCalcKEYMAT
                0x000000004016a07a                SeSecCalcKa
                0x000000004016a14f                SeSecCalcP1KeySet
                0x000000004016a366                SeSecForceReconnect
                0x000000004016a39f                SeSecLifeSeconds64bit
                0x000000004016a3bf                SeSecGetIPsecSa
                0x000000004016a40b                SeSecNewIkeSa
                0x000000004016a4bc                SeSecFreeP1KeySet
                0x000000004016a50a                SeSecGenIkeSaMessageId
                0x000000004016a579                SeSecGenIkeSaInitCookie
                0x000000004016a5e8                SeSecInitSaList
                0x000000004016a622                SeSecSearchIPsecSaBySpi
                0x000000004016a6b1                SeSecSearchIkeSaBySpi
                0x000000004016a77c                SeSecSearchIkeSa
                0x000000004016a848                SeSecNewSpi
                0x000000004016a85f                SeSecGenIPsecSASpi
                0x000000004016a8ce                SeSecStrToAuthMethod
                0x000000004016a939                SeSecTick
                0x000000004016a953                SeSecCheckIPsecSaExpires
                0x000000004016aa16                SeSecCheckIkeSaExpires
                0x000000004016aad5                SeSecSetTimerCallback
                0x000000004016aaf5                SeSecAddTimer
                0x000000004016ab15                SeSecDoInterval
                0x000000004016ab86                SeSecNewIPsecSa
                0x000000004016acf3                SeSecSetRecvUdpCallback
                0x000000004016ad13                SeSecSetRecvEspCallback
                0x000000004016ad33                SeSecSetRecvVirtualIpCallback
                0x000000004016ad53                SeSecSendUdp
                0x000000004016ad9c                SeSecProcessIkeSaMsgPhase1
                0x000000004016b6a5                SeSecSendIkeSaMsgPhase2
                0x000000004016bbc7                SeSecSendIkeSaMsgPhase2FinalHash
                0x000000004016bd67                SeSecProcessIkeSaMsgPhase2
                0x000000004016c1c6                SeSecSendIkeSaMsgInfo
                0x000000004016c42e                SeSecSendIkeSaMsgInfoSimple
                0x000000004016c496                SeSecSendIPsecSaDeleteMsg
                0x000000004016c51a                SeSecFreeIPsecSa
                0x000000004016c59a                SeSecDeleteExpiredIPsecSa
                0x000000004016c640                SeSecProcessIkeSaMsgInfo
                0x000000004016c965                SeSecProcessIkeSaMsg
                0x000000004016c9b9                SeSecUdpRecvCallback
                0x000000004016cc25                SeSecSendIkeSaDeleteMsg
                0x000000004016ccc2                SeSecFreeIkeSa
                0x000000004016ce7b                SeSecFreeSaList
                0x000000004016cef4                SeSecFreeMain
                0x000000004016cf04                SeSecFree
                0x000000004016cf33                SeSecDeleteExpiredIkeSa
                0x000000004016d096                SeSecStartVpnConnect
                0x000000004016d6ca                SeSecProcessMain
                0x000000004016d7bc                SeSecTimerCallback
                0x000000004016d7cf                SeSecInitMain
                0x000000004016d7f4                SeSecInit
                0x000000004016d928                SeSecSendEsp
                0x000000004016d961                SeSecVirtualIpRecvCallback
                0x000000004016db6a                SeSecSendVirtualIp
                0x000000004016db92                SeSecEspRecvCallback
                0x000000004016dd40                SeMakeCharArray
                0x000000004016dd74                SeFreeToken
                0x000000004016ddc2                SeNullTokenList
                0x000000004016ddf6                SeDefaultTokenSplitChars
                0x000000004016de01                Se4BitToHex
                0x000000004016de16                SeHexTo4Bit
                0x000000004016de52                SeStrCmp
                0x000000004016dee6                SeStrnCmp
                0x000000004016dfb3                SeToUpper
                0x000000004016dfc7                SeStrnCmpi
                0x000000004016e092                SeStrCmpi
                0x000000004016e142                SeToLower
                0x000000004016e156                SeStrCheckLen
                0x000000004016e192                SeStrCheckSize
                0x000000004016e1b0                SeStrLen
                0x000000004016e1d7                SeStrSize
                0x000000004016e1ef                SeStrCpy
                0x000000004016e2ba                SeStrCat
                0x000000004016e35c                SeStrUpper
                0x000000004016e39c                SeStrLower
                0x000000004016e3dc                SeToInt64
                0x000000004016e432                SeToInt
                0x000000004016e480                SeToStr64
                0x000000004016e547                SeToStr
                0x000000004016e601                SeToHex
                0x000000004016e6b5                SeToHex64
                0x000000004016e769                SeHexToInt
                0x000000004016e7f1                SeHexToInt64
                0x000000004016e87b                SeTrimLeft
                0x000000004016e928                SeTrimRight
                0x000000004016ea3a                SeTrim
                0x000000004016ea5f                SeCopyStr
                0x000000004016eab4                SeTrimCopy
                0x000000004016eae1                SeUniqueToken
                0x000000004016ec3b                SeSearchStrEx
                0x000000004016ed8f                SeSearchStri
                0x000000004016ed9f                SeSearchStr
                0x000000004016edaf                SeCalcReplaceStrEx
                0x000000004016ee6a                SeReplaceStrEx
                0x000000004016efbf                SeReplaceStr
                0x000000004016efd0                SeReplaceStri
                0x000000004016efe1                SeTrimCrlf
                0x000000004016f028                SeStartWith
                0x000000004016f0ce                SeEndWith
                0x000000004016f137                SeIsEmptyStr
                0x000000004016f181                SeNormalizeCrlf
                0x000000004016f214                SeIsCharInStr
                0x000000004016f26c                SeParseToken
                0x000000004016f407                SeParseTokenWithNullStr
                0x000000004016f564                SeToStr3
                0x000000004016f6b2                SeIsAllUpperStr
                0x000000004016f724                SeIsAllLowerStr
                0x000000004016f796                SeFormatEx
                0x000000004016fca9                SeFormatArgs
                0x000000004016fd09                SeFormat
                0x000000004016fd3f                SeBinToStr
                0x000000004016fde6                SeBinToStrEx
                0x000000004016fe8f                SeMacToStr
                0x000000004016fee0                SeStrToBin
                0x000000004016ffcf                SeStrToBinEx
                0x0000000040170042                SeStrToMac
                0x0000000040170055                SeReadNextLine
                0x0000000040170120                SeVpnRecvIpV6PacketCallback
                0x0000000040170170                SeVpnRecvIpV4PacketCallback
                0x00000000401701c0                SeVpnInitIpStack
                0x0000000040170522                SeVpnFreeIpStack
                0x00000000401705c2                SeVpnMainInit
                0x00000000401706db                SeVpnMainFree
                0x00000000401706ff                SeVpnRecvEtherPacket
                0x0000000040170766                SeVpnSendEtherPacket
                0x000000004017078b                SeVpnMainProcRecvEtherPacket
                0x000000004017083a                SeVpnStatusChanged
                0x000000004017084c                SeVpnMainProcess
                0x000000004017094a                SeVpnMainHandler
                0x0000000040170997                SeVpnEthRecvCallback
                0x00000000401709af                SeVpnTimerCallback
                0x00000000401709c7                SeVpnTick
                0x00000000401709db                SeVpnAddTimer
                0x00000000401709ef                SeVpnDoInterval
                0x0000000040170a5f                SeVpnFreeConfig
                0x0000000040170a6f                SeVpnFree
                0x0000000040170ac0                SeVpnLoadConfig
                0x0000000040171e1e                SeVpnInit
                0x0000000040171f40                SeVpn4ClientSetTimerCallback
                0x0000000040171f53                SeVpn4ClientSetRecvUdpCallback
                0x0000000040171f66                SeVpn4ClientSetRecvEspCallback
                0x0000000040171f79                SeVpn4ClientSetRecvVirtualIpCallback
                0x0000000040171f8c                SeVpn4ClientSendVirtualIp
                0x0000000040171fcb                SeVpn4ClientSendEsp
                0x000000004017204b                SeVpn4ClientSendUdp
                0x00000000401720d6                SeVpn4IPsecSendPing
                0x000000004017221e                SeVpn4IPsecInputFromPhysical
                0x00000000401722e9                SeVpn4IPsecInputFromVirtual
                0x000000004017235d                SeVpn4FreeIPsec
                0x0000000040172371                SeVpn4InitSecConfig
                0x0000000040172552                SeVpn4InitIPsec
                0x0000000040172623                SeVpn4DoInterval
                0x000000004017263b                SeVpn4Tick
                0x0000000040172653                SeVpn4ClientGetTick
                0x0000000040172668                SeVpn4IPsecMainProc
                0x00000000401726f0                SeVpn4MainProc
                0x000000004017270b                SeVpn4SetTimer
                0x000000004017271e                SeVpn4ClientAddTimer
                0x0000000040172736                SeVpn4DhcpSendResponse
                0x000000004017284b                SeVpn4DhcpOptionsToBuf
                0x0000000040172909                SeVpn4NewDhcpOption
                0x0000000040172970                SeVpn4DhcpBuildDhcpOptionList
                0x0000000040172b4e                SeVpn4DhcpSearchOption
                0x0000000040172b8a                SeVpn4DhcpFreeOptionList
                0x0000000040172be0                SeVpn4DhcpParseOptionListMain
                0x0000000040172cce                SeVpn4DhcpParseOptionList
                0x0000000040172dc1                SeVpn4DhcpServer
                0x000000004017308c                SeVpn4RecvPacketPhysical
                0x0000000040173161                SeVpn4RecvPacketVirtual
                0x00000000401732c3                SeVpn4Init
                0x0000000040173328                SeVpn4Free
                0x0000000040173360                SeVpn6ClientSetTimerCallback
                0x0000000040173373                SeVpn6ClientSetRecvUdpCallback
                0x0000000040173386                SeVpn6ClientSetRecvEspCallback
                0x0000000040173399                SeVpn6ClientSetRecvVirtualIpCallback
                0x00000000401733ac                SeVpn6ClientSendVirtualIp
                0x00000000401733eb                SeVpn6ClientSendEsp
                0x000000004017348b                SeVpn6ClientSendUdp
                0x0000000040173540                SeVpn6IPsecSendPing
                0x0000000040173726                SeVpn6UpdateGuestOsIpAddress
                0x00000000401737fa                SeVpn6IPsecInputFromPhysical
                0x00000000401738c5                SeVpn6IPsecInputFromVirtual
                0x00000000401738f9                SeVpn6InitSecConfig
                0x0000000040173aeb                SeVpn6InitIPsec
                0x0000000040173bcc                SeVpn6FreeIPsec
                0x0000000040173be0                SeVpn6DoInterval
                0x0000000040173bf8                SeVpn6Tick
                0x0000000040173c10                SeVpn6ClientGetTick
                0x0000000040173c25                SeVpn6IPsecMainProc
                0x0000000040173cb5                SeVpn6MainProc
                0x0000000040173cd0                SeVpn6SetTimer
                0x0000000040173ce3                SeVpn6ClientAddTimer
                0x0000000040173cfb                SeVpn6RecvPacketPhysical
                0x0000000040173d7d                SeVpn6RecvPacketVirtual
                0x0000000040173eb4                SeVpn6Init
                0x0000000040173f2a                SeVpn6Free
                0x0000000040173f60                crypt_sys_rsa_sign
                0x00000000401742f5                msg_usb_bulk_read
                0x0000000040174355                msg_usb_bulk_write
                0x00000000401743b5                msg_usb_claim_interface
                0x00000000401743fb                msg_usb_close
                0x0000000040174455                msg_usb_control_msg
                0x00000000401744ca                msg_usb_find_busses
                0x0000000040174508                msg_usb_find_devices
                0x0000000040174546                msg_usb_get_busses
                0x00000000401745ad                msg_usb_get_string_simple
                0x0000000040174609                msg_usb_init
                0x000000004017461e                msg_usb_open
                0x0000000040174697                msg_usb_release_interface
                0x00000000401746dd                msg_usb_reset
                0x0000000040174720                IDMan_StReadSetData
                0x0000000040174e05                idman_user_init
                0x0000000040174e60                IDMan_IPIdPassListMalloc
                0x0000000040174f4b                IDMan_IPRetJudgment
                0x0000000040174fc7                IDMan_IPFinalizeReader
                0x0000000040174fe9                IDMan_IPFinalize
                0x000000004017503f                IDMan_IPInitialize
                0x0000000040175148                IDMan_IPInitializeReader
                0x0000000040175175                IDMan_getMemoryFree
                0x00000000401751bd                IDMan_PaddingParamChk
                0x0000000040175282                IDMan_CmPadding
                0x000000004017543e                IDMan_CmPadding2
                0x00000000401755ba                IDMan_IPgetCertPKCS
                0x0000000040175cb2                IDMan_IPgetCertIdxPKCS
                0x0000000040176185                IDMan_IPCheckPKC
                0x00000000401763ae                IDMan_CheckCardStatus
                0x00000000401763e0                IDMan_IPgSParamChk
                0x0000000040176510                IDMan_IPgIdxSParamChk
                0x0000000040176548                IDMan_IPgetPrivateKey
                0x000000004017673b                IDMan_IPgetHash
                0x0000000040176832                IDMan_IPCrSignature
                0x000000004017699a                IDMan_generateSignature
                0x0000000040176ad4                IDMan_generateSignatureByIndex
                0x0000000040176bfb                IDMan_EncryptByIndex
                0x0000000040176d24                IDMan_IPgCParamChk
                0x0000000040176e16                IDMan_getCertificate
                0x0000000040177138                IDMan_IPgCIndexParamChk
                0x0000000040177171                IDMan_getCertificateByIndex
                0x0000000040177508                IDMan_getStaticPassword
                0x0000000040177820                IDMan_IPuAPKCS11ParamChk
                0x0000000040177921                IDMan_IPuAPKCS11IdxParamChk
                0x0000000040177948                IDMan_IPgetCertPkeyPKCSx
                0x0000000040177e0b                IDMan_IPgetCertPkeyIdxPKCSx
                0x0000000040178234                IDMan_IPgetCertPkeyPKCSy
                0x0000000040178382                IDMan_IPCheckCrlPkcX
                0x00000000401784bf                IDMan_IPgetMakeRandData
                0x0000000040178537                IDMan_IPMkRandHash
                0x00000000401785f4                IDMan_IPgetPrivateKeyPKCSx
                0x00000000401787c7                IDMan_IPSignatureVerify
                0x0000000040178940                IDMan_userAuthPKCS11
                0x0000000040178dc5                IDMan_userAuthPKCS11ByIndex
                0x0000000040179250                IDMan_IPvSParamChk
                0x00000000401793ce                IDMan_IPvSIdxParamChk
                0x0000000040179431                IDMan_IPMkPublicKeyObj
                0x0000000040179575                IDMan_IPCheckSignature
                0x000000004017972f                IDMan_verifySignature
                0x000000004017990c                IDMan_verifySignatureByIndex
                0x0000000040179ad0                CardEstablishContext
                0x0000000040179ae8                CardReleaseContext
                0x0000000040179b19                CardListReaders
                0x0000000040179b31                CardConnect
                0x0000000040179b6f                CardDisconnect
                0x0000000040179b8c                CardStatus
                0x0000000040179bdd                CardTransmit
                0x0000000040179c19                SelectFileDF
                0x0000000040179d0c                SelectFileEF
                0x0000000040179df7                Verify
                0x0000000040179f0b                InternalAuth
                0x000000004017a04f                ReadBinary
                0x000000004017a63f                UpdateBinary
                0x000000004017a769                GetICCardData
                0x000000004017ab50                GetUlByTxt
                0x000000004017ab8f                GetVerByTex
                0x000000004017ac77                GetUlByByte
                0x000000004017acbc                TransHex2Tex
                0x000000004017ad4f                TransTex2Hex
                0x000000004017ae06                GetLength
                0x000000004017ae73                SetLength
                0x000000004017aed8                GetTlvByBuf
                0x000000004017b255                GetDirDataByTlv
                0x000000004017b37a                GetOdfDataByTlv
                0x000000004017b4ed                GetTokenDataByTlv
                0x000000004017b953                AddObjTblByTlv
                0x000000004017bff7                AddCertDataByBuf
                0x000000004017c0fd                AddIdPassDataByBuf
                0x000000004017c49d                GetValueData
                0x000000004017c840                AddElem
                0x000000004017c8de                SetElem
                0x000000004017c9a5                GetElem
                0x000000004017c9e1                GetAttrValType
                0x000000004017cb55                DestroyAttribute
                0x000000004017cb9f                DestroyTlvData
                0x000000004017cbb4                DestroyElem
                0x000000004017cc3a                DestroyList
                0x000000004017cc77                DestroySessionData
                0x000000004017ccb5                DestroyTokenData
                0x000000004017cd15                DestroySlotData
                0x000000004017cd51                DelElem
                0x000000004017cdc0                C_GetFunctionList
                0x000000004017cdd2                C_Initialize
                0x000000004017cf3f                C_Finalize
                0x000000004017cfda                C_GetInfo
                0x000000004017d060                C_GetSlotList
                0x000000004017d944                C_GetSlotInfo
                0x000000004017da2c                C_GetTokenInfo
                0x000000004017e263                C_GetMechanismList
                0x000000004017e334                C_GetMechanismInfo
                0x000000004017e3f0                C_OpenSession
                0x000000004017e5ab                C_CloseSession
                0x000000004017e684                C_CloseAllSessions
                0x000000004017e790                C_GetSessionInfo
                0x000000004017e80c                C_Login
                0x000000004017ec63                C_Logout
                0x000000004017ed7a                C_FindObjectsInit
                0x000000004017eff1                C_FindObjects
                0x000000004017f54a                C_FindObjectsFinal
                0x000000004017f5c0                C_GetAttributeValue
                0x000000004017f8e1                C_SignInit
                0x000000004017f9a8                C_Sign
                0x000000004017fd2f                C_DigestInit
                0x000000004017fdaa                C_DigestUpdate
                0x000000004017fe32                C_DigestFinal
                0x000000004017ff79                C_VerifyInit
                0x0000000040180040                C_Verify
                0x00000000401801b2                C_CreateObject
                0x000000004018045f                C_DestroyObject
                0x000000004018051f                C_SetAttributeValue
                0x0000000040181129                C_GetCardStatus
                0x00000000401811c0                IDMan_StFree
                0x00000000401811d0                IDMan_StMemcpy
                0x00000000401811f4                IDMan_StMemset
                0x0000000040181212                IDMan_StMalloc
                0x0000000040181259                IDMan_StMemcmp
                0x00000000401812b2                IDMan_StStrlen
                0x00000000401812cc                IDMan_StStrcat
                0x0000000040181309                IDMan_StStrchr
                0x0000000040181346                IDMan_StStrcpy
                0x000000004018136d                IDMan_StStrcmp
                0x00000000401813b8                StIsspace
                0x0000000040181435                StIsdigit
                0x0000000040181447                IDMan_StAtoi
                0x00000000401814a3                IDMan_StAtol
                0x000000004018150b                IDMan_CmMkHash
                0x00000000401816c6                IDMan_CmChgRSA
                0x000000004018188f                IDMan_CmGetDN
                0x0000000040181b36                IDMan_CmGetCertificateSign
                0x0000000040181d60                IDMan_CmGetPublicKey
                0x0000000040181f3c                IDMan_CmMakeRand
                0x0000000040181fda                IDMan_CmCheckCRL
                0x0000000040182360                IDMan_SCardEstablishContext
                0x000000004018237d                IDMan_SCardReleaseContext
                0x0000000040182388                IDMan_SCardListReaders
                0x00000000401823b8                IDMan_SCardConnect
                0x00000000401823e8                IDMan_SCardDisconnect
                0x00000000401823f3                IDMan_SCardStatus
                0x0000000040182475                IDMan_SCardSizeLongToChar
                0x00000000401824b6                IDMan_SCardSetBinay
                0x0000000040182855                IDMan_SCardTransmit
                0x00000000401828c0                EHDestroyEventHandler
                0x000000004018292d                EHInitEventHandler
                0x00000000401829e3                EHStatusHandler
                0x0000000040182b80                HPSearchHotPluggables
                0x0000000040182ed0                PHGetProtocol
                0x00000000401832ab                PHSetProtocol
                0x0000000040183314                RFAddReader
                0x000000004018342f                RFRemoveReader
                0x00000000401834e9                RFReaderInfoById
                0x0000000040183519                RFCheckReaderEventState
                0x0000000040183550                SCardEstablishContext
                0x0000000040183640                SCardListReaders
                0x00000000401836ed                SCardConnect
                0x0000000040183971                SCardDisconnect
                0x0000000040183b22                SCardBeginTransaction
                0x0000000040183b76                SCardEndTransaction
                0x0000000040183d3e                SCardStatus
                0x0000000040183f49                SCardReleaseContext
                0x000000004018400f                SCardTransmit
                0x0000000040184260                SetATR
                0x00000000401844cd                GetIFSCData
                0x0000000040184523                GetBWICWIData
                0x00000000401845c1                IFDHCloseChannel
                0x000000004018464d                IFDHGetCapabilities
                0x000000004018468c                IFDHSetProtocolParameters
                0x0000000040184d8b                IFDHPowerICC
                0x0000000040184f8a                IFDHTransmitToICC
                0x000000004018524a                IFDHControl
                0x0000000040185363                IFDHICCPresence
                0x0000000040185418                IFDHCreateChannel
                0x00000000401854cc                FindBaudRateTable
                0x000000004018550c                ExchangePPSData
                0x0000000040185bf6                InitLeaderCardProtocol
                0x0000000040185d0f                T1XfrBlockTPDU
                0x000000004018637c                T1NegociateIFSD
                0x00000000401864c4                CardStateConfirm
                0x00000000401864f9                GetCardStatus
                0x00000000401865f0                PowerOn
                0x00000000401867b0                PowerOff
                0x0000000040186918                CardMechanical
                0x0000000040186a30                TransmitPPS
                0x0000000040186bca                TransmitCommand
                0x0000000040186c97                ReceiveReply
                0x0000000040186e5c                BlockSendCardT1
                0x00000000401870b4                ReadDataT0
                0x0000000040187179                T0XfrBlockCHAR
                0x00000000401876ff                T0XfrBlockTPDU
                0x0000000040187781                T1XfrBlockExtendedAPDU
                0x0000000040187afb                OpenUSB
                0x0000000040187e95                WriteUSB
                0x0000000040187ec6                ReadUSB
                0x0000000040187f24                CloseUSB
                0x0000000040187f94                AES_set_encrypt_key
                0x00000000401883a0                AES_set_decrypt_key
                0x00000000401885c6                AES_encrypt
                0x0000000040188a7f                AES_decrypt
                0x0000000040188f20                BIO_set
                0x0000000040188ff5                BIO_new
                0x000000004018906e                BIO_free
                0x000000004018911d                BIO_vfree
                0x0000000040189128                BIO_clear_flags
                0x0000000040189133                BIO_test_flags
                0x000000004018913e                BIO_set_flags
                0x0000000040189147                BIO_get_callback
                0x0000000040189151                BIO_set_callback
                0x000000004018915b                BIO_set_callback_arg
                0x0000000040189165                BIO_get_callback_arg
                0x000000004018916f                BIO_method_name
                0x000000004018917c                BIO_method_type
                0x0000000040189187                BIO_read
                0x0000000040189282                BIO_write
                0x0000000040189386                BIO_puts
                0x0000000040189478                BIO_gets
                0x0000000040189568                BIO_indent
                0x00000000401895ad                BIO_ctrl
                0x0000000040189683                BIO_ptr_ctrl
                0x00000000401896ae                BIO_int_ctrl
                0x00000000401896c4                BIO_callback_ctrl
                0x0000000040189790                BIO_ctrl_pending
                0x00000000401897aa                BIO_ctrl_wpending
                0x00000000401897c4                BIO_push
                0x0000000040189812                BIO_pop
                0x0000000040189877                BIO_get_retry_BIO
                0x00000000401898c6                BIO_get_retry_reason
                0x00000000401898cf                BIO_find_type
                0x0000000040189904                BIO_next
                0x000000004018991a                BIO_free_all
                0x0000000040189948                BIO_dup_chain
                0x0000000040189a37                BIO_copy_next_retry
                0x0000000040189a64                BIO_get_ex_new_index
                0x0000000040189a83                BIO_set_ex_data
                0x0000000040189a92                BIO_get_ex_data
                0x0000000040189aa1                BIO_number_read
                0x0000000040189ab5                BIO_number_written
                0x0000000040189c1f                BN_set_params
                0x0000000040189cb2                BN_get_params
                0x0000000040189ce7                BN_value_one
                0x0000000040189cf2                BN_options
                0x0000000040189d34                BN_num_bits_word
                0x0000000040189d8f                BN_num_bits
                0x0000000040189db9                BN_clear_free
                0x0000000040189e20                BN_free
                0x0000000040189e69                BN_init
                0x0000000040189e7e                BN_new
                0x0000000040189ef1                bn_expand2
                0x0000000040189f49                BN_copy
                0x000000004018a037                BN_dup
                0x000000004018a08b                bn_dup_expand
                0x000000004018a10d                BN_swap
                0x000000004018a170                BN_clear
                0x000000004018a1a9                BN_get_word
                0x000000004018a1cb                BN_set_word
                0x000000004018a22e                BN_bin2bn
                0x000000004018a371                BN_bn2bin
                0x000000004018a3df                BN_ucmp
                0x000000004018a42c                BN_cmp
                0x000000004018a4e0                BN_set_bit
                0x000000004018a5a5                BN_clear_bit
                0x000000004018a623                BN_is_bit_set
                0x000000004018a660                BN_mask_bits
                0x000000004018a6fc                BN_set_negative
                0x000000004018a71c                bn_cmp_words
                0x000000004018a77e                bn_cmp_part_words
                0x000000004018a810                BN_bn2hex
                0x000000004018a8f6                BN_bn2dec
                0x000000004018ab05                BN_hex2bn
                0x000000004018ace2                BN_dec2bn
                0x000000004018ae93                BN_asc2bn
                0x000000004018af03                BN_print
                0x000000004018b3e7                BN_pseudo_rand
                0x000000004018b401                BN_rand
                0x000000004018b41b                BN_bntest_rand
                0x000000004018b435                BN_rand_range
                0x000000004018b44b                BN_pseudo_rand_range
                0x000000004018b470                BN_mod_word
                0x000000004018b4c5                BN_div_word
                0x000000004018b5ab                BN_sub_word
                0x000000004018b6aa                BN_add_word
                0x000000004018b77d                BN_mul_word
                0x000000004018bc64                BIO_s_mem
                0x000000004018bc6f                BIO_new_mem_buf
                0x000000004018bce8                BUF_MEM_new
                0x000000004018bd4f                BUF_MEM_free
                0x000000004018bd8f                BUF_MEM_grow
                0x000000004018be89                BUF_MEM_grow_clean
                0x000000004018bf9f                BUF_memdup
                0x000000004018c014                BUF_strlcpy
                0x000000004018c078                BUF_strndup
                0x000000004018c0f7                BUF_strdup
                0x000000004018c123                BUF_strlcat
                0x000000004018c15d                BUF_reverse
                0x000000004018c1b4                OpenSSL_add_all_ciphers
                0x000000004018c660                OpenSSL_add_all_digests
                0x000000004018c7d0                CRYPTO_get_new_lockid
                0x000000004018c888                CRYPTO_num_locks
                0x000000004018c893                CRYPTO_get_dynlock_create_callback
                0x000000004018c8a0                CRYPTO_get_dynlock_lock_callback
                0x000000004018c8ad                CRYPTO_get_dynlock_destroy_callback
                0x000000004018c8ba                CRYPTO_set_dynlock_create_callback
                0x000000004018c8c7                CRYPTO_set_dynlock_lock_callback
                0x000000004018c8d4                CRYPTO_set_dynlock_destroy_callback
                0x000000004018c8e1                CRYPTO_get_locking_callback
                0x000000004018c8ee                CRYPTO_get_add_lock_callback
                0x000000004018c8fb                CRYPTO_set_locking_callback
                0x000000004018c908                CRYPTO_set_add_lock_callback
                0x000000004018c915                CRYPTO_THREADID_set_numeric
                0x000000004018c948                CRYPTO_THREADID_set_pointer
                0x000000004018c97e                CRYPTO_THREADID_set_callback
                0x000000004018c99c                CRYPTO_THREADID_get_callback
                0x000000004018c9a9                CRYPTO_THREADID_current
                0x000000004018c9f3                CRYPTO_THREADID_cmp
                0x000000004018ca03                CRYPTO_THREADID_cpy
                0x000000004018ca13                CRYPTO_THREADID_hash
                0x000000004018ca1d                CRYPTO_get_id_callback
                0x000000004018ca2a                CRYPTO_set_id_callback
                0x000000004018ca37                CRYPTO_thread_id
                0x000000004018ca50                CRYPTO_get_lock_name
                0x000000004018caa3                OPENSSL_ia32cap_loc
                0x000000004018caae                OPENSSL_cpuid_setup
                0x000000004018cab4                OPENSSL_showfatal
                0x000000004018caff                OPENSSL_isservice
                0x000000004018cb0a                OpenSSLDie
                0x000000004018cb2c                CRYPTO_lock
                0x000000004018cbc3                CRYPTO_add_lock
                0x000000004018cc47                CRYPTO_get_dynlock_value
                0x000000004018cce6                CRYPTO_destroy_dynlockid
                0x000000004018cdde                CRYPTO_get_new_dynlockid
                0x000000004018cffa                OPENSSL_stderr
                0x000000004018d008                DES_encrypt1
                0x000000004018d416                DES_encrypt2
                0x000000004018d721                DES_encrypt3
                0x000000004018d87e                DES_decrypt3
                0x000000004018d9de                DES_ncbc_encrypt
                0x000000004018e01b                DES_ede3_cbc_encrypt
                0x000000004018ea76                DH_generate_key
                0x000000004018ea86                DH_compute_key
                0x000000004018ea96                DH_OpenSSL
                0x000000004018eaa4                DH_set_default_method
                0x000000004018eab1                DH_get_default_method
                0x000000004018ead4                DH_set_method
                0x000000004018eb21                DH_new_method
                0x000000004018ec37                DH_new
                0x000000004018ec47                DH_free
                0x000000004018ed27                DH_up_ref
                0x000000004018ed54                DH_get_ex_new_index
                0x000000004018ed73                DH_set_ex_data
                0x000000004018ed82                DH_get_ex_data
                0x000000004018ed91                DH_size
                0x000000004018fa9a                EVP_aes_128_cbc
                0x000000004018faa5                EVP_aes_128_cfb128
                0x000000004018fab0                EVP_aes_128_ofb
                0x000000004018fabb                EVP_aes_128_ecb
                0x000000004018fac6                EVP_aes_192_cbc
                0x000000004018fad1                EVP_aes_192_cfb128
                0x000000004018fadc                EVP_aes_192_ofb
                0x000000004018fae7                EVP_aes_192_ecb
                0x000000004018faf2                EVP_aes_256_cbc
                0x000000004018fafd                EVP_aes_256_cfb128
                0x000000004018fb08                EVP_aes_256_ofb
                0x000000004018fb13                EVP_aes_256_ecb
                0x000000004018fb1e                EVP_aes_128_cfb1
                0x000000004018fb29                EVP_aes_192_cfb1
                0x000000004018fb34                EVP_aes_256_cfb1
                0x000000004018fb3f                EVP_aes_128_cfb8
                0x000000004018fb4a                EVP_aes_192_cfb8
                0x000000004018fb55                EVP_aes_256_cfb8
                0x000000004018fe76                EVP_bf_cbc
                0x000000004018fe81                EVP_bf_cfb64
                0x000000004018fe8c                EVP_bf_ofb
                0x000000004018fe97                EVP_bf_ecb
                0x00000000401901ba                EVP_cast5_cbc
                0x00000000401901c5                EVP_cast5_cfb64
                0x00000000401901d0                EVP_cast5_ofb
                0x00000000401901db                EVP_cast5_ecb
                0x000000004019079b                EVP_des_cbc
                0x00000000401907a6                EVP_des_cfb64
                0x00000000401907b1                EVP_des_ofb
                0x00000000401907bc                EVP_des_ecb
                0x00000000401907c7                EVP_des_cfb1
                0x00000000401907d2                EVP_des_cfb8
                0x0000000040190e06                EVP_des_ede_cbc
                0x0000000040190e11                EVP_des_ede_cfb64
                0x0000000040190e1c                EVP_des_ede_ofb
                0x0000000040190e27                EVP_des_ede_ecb
                0x0000000040190e32                EVP_des_ede3_cbc
                0x0000000040190e3d                EVP_des_ede3_cfb64
                0x0000000040190e48                EVP_des_ede3_ofb
                0x0000000040190e53                EVP_des_ede3_ecb
                0x0000000040190e5e                EVP_des_ede3_cfb1
                0x0000000040190e69                EVP_des_ede3_cfb8
                0x0000000040190e74                EVP_des_ede
                0x0000000040190e7f                EVP_des_ede3
                0x0000000040191207                EVP_idea_cbc
                0x0000000040191212                EVP_idea_cfb64
                0x000000004019121d                EVP_idea_ofb
                0x0000000040191228                EVP_idea_ecb
                0x000000004019176f                EVP_rc2_cbc
                0x000000004019177a                EVP_rc2_cfb64
                0x0000000040191785                EVP_rc2_ofb
                0x0000000040191790                EVP_rc2_ecb
                0x000000004019179b                EVP_rc2_64_cbc
                0x00000000401917a6                EVP_rc2_40_cbc
                0x0000000040191809                EVP_rc4
                0x0000000040191814                EVP_rc4_40
                0x000000004019198a                EVP_desx_cbc
                0x0000000040191998                DES_ecb3_encrypt
                0x0000000040191a68                DES_options
                0x0000000040191abc                DES_ecb_encrypt
                0x0000000040192284                ERR_get_implementation
                0x0000000040192296                ERR_set_implementation
                0x00000000401922ff                ERR_load_ERR_strings
                0x0000000040192431                ERR_load_strings
                0x0000000040192461                ERR_unload_strings
                0x00000000401924b3                ERR_free_strings
                0x00000000401924c8                ERR_get_string_table
                0x00000000401924e1                ERR_get_err_state_table
                0x00000000401924fb                ERR_release_err_state_table
                0x0000000040192520                ERR_lib_error_string
                0x0000000040192560                ERR_func_error_string
                0x00000000401925a0                ERR_reason_error_string
                0x000000004019260f                ERR_error_string_n
                0x0000000040192787                ERR_error_string
                0x00000000401927b6                ERR_remove_thread_state
                0x00000000401927fb                ERR_remove_state
                0x000000004019280b                ERR_get_state
                0x0000000040192b03                ERR_peek_last_error_line_data
                0x0000000040192b24                ERR_peek_last_error_line
                0x0000000040192b4b                ERR_peek_last_error
                0x0000000040192b76                ERR_peek_error_line_data
                0x0000000040192b97                ERR_peek_error_line
                0x0000000040192bbe                ERR_peek_error
                0x0000000040192be9                ERR_get_error_line_data
                0x0000000040192c0a                ERR_get_error_line
                0x0000000040192c31                ERR_get_error
                0x0000000040192c5c                ERR_clear_error
                0x0000000040192d17                ERR_put_error
                0x0000000040192e1f                ERR_get_next_error_library
                0x0000000040192e34                ERR_set_error_data
                0x0000000040192eb1                ERR_add_error_data
                0x0000000040192fee                ERR_set_mark
                0x0000000040193019                ERR_pop_to_mark
                0x00000000401930f0                ERR_load_crypto_strings
                0x000000004019318c                ASN1_TYPE_set_octetstring
                0x0000000040193204                ASN1_TYPE_get_octetstring
                0x0000000040193260                ASN1_TYPE_set_int_octetstring
                0x000000004019338d                ASN1_TYPE_get_int_octetstring
                0x0000000040193580                EVP_CIPHER_CTX_init
                0x0000000040193595                EVP_CIPHER_CTX_new
                0x00000000401935cc                EVP_EncryptUpdate
                0x0000000040193778                EVP_EncryptFinal_ex
                0x000000004019384c                EVP_EncryptFinal
                0x0000000040193857                EVP_DecryptUpdate
                0x0000000040193986                EVP_CipherUpdate
                0x00000000401939a1                EVP_DecryptFinal_ex
                0x0000000040193b3c                EVP_DecryptFinal
                0x0000000040193b47                EVP_CipherFinal
                0x0000000040193b67                EVP_CipherFinal_ex
                0x0000000040193b87                EVP_CIPHER_CTX_cleanup
                0x0000000040193bf2                EVP_CIPHER_CTX_free
                0x0000000040193c17                EVP_CIPHER_CTX_set_padding
                0x0000000040193c38                EVP_CIPHER_CTX_ctrl
                0x0000000040193cc8                EVP_CIPHER_CTX_set_key_length
                0x0000000040193d29                EVP_CipherInit_ex
                0x0000000040193f7a                EVP_DecryptInit_ex
                0x0000000040193f8b                EVP_EncryptInit_ex
                0x0000000040193f9c                EVP_CipherInit
                0x0000000040194000                EVP_DecryptInit
                0x0000000040194011                EVP_EncryptInit
                0x0000000040194022                EVP_CIPHER_CTX_rand_key
                0x0000000040194058                EVP_CIPHER_CTX_copy
                0x0000000040194138                ERR_load_EVP_strings
                0x0000000040194170                EVP_CIPHER_param_to_asn1
                0x000000004019418b                EVP_CIPHER_asn1_to_param
                0x00000000401941a6                EVP_CIPHER_block_size
                0x00000000401941af                EVP_CIPHER_CTX_block_size
                0x00000000401941bb                EVP_Cipher
                0x00000000401941c9                EVP_CIPHER_CTX_cipher
                0x00000000401941d2                EVP_CIPHER_flags
                0x00000000401941dc                EVP_CIPHER_CTX_flags
                0x00000000401941e9                EVP_CIPHER_CTX_get_app_data
                0x00000000401941f3                EVP_CIPHER_CTX_set_app_data
                0x00000000401941fd                EVP_CIPHER_iv_length
                0x0000000040194206                EVP_CIPHER_CTX_iv_length
                0x0000000040194212                EVP_CIPHER_set_asn1_iv
                0x0000000040194274                EVP_CIPHER_get_asn1_iv
                0x000000004019430c                EVP_CIPHER_key_length
                0x0000000040194315                EVP_CIPHER_CTX_key_length
                0x000000004019431e                EVP_CIPHER_nid
                0x0000000040194326                EVP_CIPHER_type
                0x0000000040194465                EVP_CIPHER_CTX_nid
                0x0000000040194470                EVP_MD_block_size
                0x0000000040194479                EVP_MD_type
                0x0000000040194481                EVP_MD_pkey_type
                0x000000004019448a                EVP_MD_size
                0x00000000401944bc                EVP_MD_flags
                0x00000000401944c6                EVP_MD_CTX_md
                0x00000000401944db                EVP_MD_CTX_set_flags
                0x00000000401944e8                EVP_MD_CTX_clear_flags
                0x00000000401944f7                EVP_MD_CTX_test_flags
                0x0000000040194502                EVP_CIPHER_CTX_set_flags
                0x000000004019450f                EVP_CIPHER_CTX_clear_flags
                0x000000004019451e                EVP_CIPHER_CTX_test_flags
                0x0000000040194939                CRYPTO_get_ex_data_implementation
                0x0000000040194955                CRYPTO_set_ex_data_implementation
                0x00000000401949be                CRYPTO_ex_data_new_class
                0x00000000401949dc                CRYPTO_cleanup_all_ex_data
                0x00000000401949fb                CRYPTO_get_ex_new_index
                0x0000000040194a6a                CRYPTO_new_ex_data
                0x0000000040194ab7                CRYPTO_dup_ex_data
                0x0000000040194b04                CRYPTO_free_ex_data
                0x0000000040194b51                CRYPTO_set_ex_data
                0x0000000040194c0a                CRYPTO_get_ex_data
                0x0000000040195104                idea_encrypt
                0x0000000040195a48                idea_cbc_encrypt
                0x0000000040196070                idea_cfb64_encrypt
                0x0000000040196290                idea_options
                0x000000004019629b                idea_ecb_encrypt
                0x0000000040196354                idea_ofb64_encrypt
                0x000000004019658d                idea_set_encrypt_key
                0x0000000040196716                idea_set_decrypt_key
                0x000000004019690d                lh_strhash
                0x0000000040196980                lh_new
                0x0000000040196ae1                lh_free
                0x0000000040196b4c                lh_insert
                0x0000000040196cd8                lh_delete
                0x0000000040196e04                lh_retrieve
                0x0000000040196e47                lh_doall
                0x0000000040196e65                lh_doall_arg
                0x0000000040196e80                lh_num_items
                0x0000000040196ec7                EVP_dss
                0x0000000040196f07                EVP_dss1
                0x0000000040196f47                EVP_ecdsa
                0x0000000040196f87                EVP_md4
                0x0000000040196fc7                EVP_md5
                0x0000000040197007                EVP_ripemd160
                0x0000000040197047                EVP_sha
                0x000000004019710b                EVP_sha1
                0x0000000040197116                EVP_sha224
                0x0000000040197121                EVP_sha256
                0x000000004019712c                EVP_sha384
                0x0000000040197137                EVP_sha512
                0x0000000040197144                MD4_Init
                0x0000000040197186                md4_block_data_order
                0x0000000040197749                MD4_Final
                0x0000000040197816                MD4_Transform
                0x0000000040197826                MD4_Update
                0x0000000040197968                MD5_Init
                0x00000000401979aa                md5_block_data_order
                0x00000000401981ea                MD5_Final
                0x00000000401982b7                MD5_Transform
                0x00000000401982c7                MD5_Update
                0x0000000040198408                MD5
                0x00000000401984a4                CRYPTO_set_mem_functions
                0x0000000040198514                CRYPTO_set_mem_ex_functions
                0x0000000040198584                CRYPTO_set_locked_mem_functions
                0x00000000401985c4                CRYPTO_set_locked_mem_ex_functions
                0x0000000040198604                CRYPTO_set_mem_debug_functions
                0x000000004019863d                CRYPTO_get_mem_functions
                0x0000000040198692                CRYPTO_get_mem_ex_functions
                0x00000000401986e3                CRYPTO_get_locked_mem_functions
                0x0000000040198718                CRYPTO_get_locked_mem_ex_functions
                0x000000004019874b                CRYPTO_get_mem_debug_functions
                0x000000004019879c                CRYPTO_malloc_locked
                0x0000000040198858                CRYPTO_free_locked
                0x000000004019889f                CRYPTO_malloc
                0x000000004019895b                CRYPTO_strdup
                0x00000000401989aa                CRYPTO_realloc
                0x0000000040198a65                CRYPTO_realloc_clean
                0x0000000040198b40                CRYPTO_free
                0x0000000040198b87                CRYPTO_remalloc
                0x0000000040198bb4                CRYPTO_set_mem_debug_options
                0x0000000040198bc8                CRYPTO_get_mem_debug_options
                0x0000000040198be4                OPENSSL_cleanse
                0x000000004019905c                CRYPTO_mem_ctrl
                0x00000000401991e6                CRYPTO_is_mem_check_on
                0x0000000040199262                CRYPTO_dbg_set_options
                0x000000004019926f                CRYPTO_dbg_get_options
                0x000000004019927c                CRYPTO_push_info_
                0x000000004019935b                CRYPTO_pop_info
                0x000000004019939d                CRYPTO_remove_all_info
                0x00000000401993e0                CRYPTO_dbg_malloc
                0x000000004019957f                CRYPTO_dbg_free
                0x00000000401995f4                CRYPTO_dbg_realloc
                0x0000000040199694                CRYPTO_mem_leaks
                0x00000000401997b3                CRYPTO_mem_leaks_cb
                0x000000004019988e                EVP_add_cipher
                0x00000000401998da                EVP_add_digest
                0x000000004019997b                EVP_get_cipherbyname
                0x000000004019998b                EVP_get_digestbyname
                0x000000004019999b                EVP_cleanup
                0x00000000401999e1                EVP_CIPHER_do_all
                0x0000000040199a06                EVP_CIPHER_do_all_sorted
                0x0000000040199a2b                EVP_MD_do_all
                0x0000000040199a50                EVP_MD_do_all_sorted
                0x0000000040199b84                OBJ_NAME_init
                0x0000000040199bd1                OBJ_NAME_new_index
                0x0000000040199d39                OBJ_NAME_get
                0x0000000040199ddc                OBJ_NAME_add
                0x0000000040199ec3                OBJ_NAME_remove
                0x0000000040199f6e                OBJ_NAME_do_all
                0x0000000040199f98                OBJ_NAME_do_all_sorted
                0x000000004019a03b                OBJ_NAME_cleanup
                0x000000004019a30a                check_defer
                0x000000004019a32b                OBJ_cleanup
                0x000000004019a39d                OBJ_new_nid
                0x000000004019a3b1                OBJ_add_object
                0x000000004019a563                OBJ_nid2obj
                0x000000004019a61f                OBJ_nid2sn
                0x000000004019a6de                OBJ_nid2ln
                0x000000004019a79e                OBJ_bsearch_ex_
                0x000000004019a897                OBJ_bsearch_
                0x000000004019a8a8                OBJ_sn2nid
                0x000000004019a924                OBJ_ln2nid
                0x000000004019a9a0                OBJ_txt2obj
                0x000000004019aaa8                OBJ_obj2nid
                0x000000004019ab30                OBJ_txt2nid
                0x000000004019ab6d                OBJ_obj2txt
                0x000000004019aec0                OBJ_create
                0x000000004019afc5                OBJ_create_objects
                0x000000004019b118                ERR_load_OBJ_strings
                0x000000004019b150                OBJ_dup
                0x000000004019b32a                OBJ_cmp
                0x000000004019b348                ERR_load_OCSP_strings
                0x000000004019b380                DES_ede3_ofb64_encrypt
                0x000000004019b550                DES_ofb64_encrypt
                0x000000004019b871                EVP_PKEY_bits
                0x000000004019b895                EVP_PKEY_size
                0x000000004019b8b9                EVP_PKEY_save_parameters
                0x000000004019b8eb                EVP_PKEY_missing_parameters
                0x000000004019b90a                EVP_PKEY_copy_parameters
                0x000000004019b9aa                EVP_PKEY_cmp_parameters
                0x000000004019b9e0                EVP_PKEY_cmp
                0x000000004019ba3b                EVP_PKEY_new
                0x000000004019bac6                EVP_PKEY_set_type
                0x000000004019badb                EVP_PKEY_set_type_str
                0x000000004019baf0                EVP_PKEY_assign
                0x000000004019bb2d                EVP_PKEY_get0
                0x000000004019bb37                EVP_PKEY_set1_RSA
                0x000000004019bb71                EVP_PKEY_get1_RSA
                0x000000004019bbbc                EVP_PKEY_set1_DSA
                0x000000004019bbf6                EVP_PKEY_get1_DSA
                0x000000004019bc41                EVP_PKEY_set1_EC_KEY
                0x000000004019bc7b                EVP_PKEY_get1_EC_KEY
                0x000000004019bcc9                EVP_PKEY_set1_DH
                0x000000004019bd03                EVP_PKEY_get1_DH
                0x000000004019bd4e                EVP_PKEY_type
                0x000000004019bd71                EVP_PKEY_id
                0x000000004019bd79                EVP_PKEY_base_id
                0x000000004019bd86                EVP_PKEY_free
                0x000000004019bde3                EVP_PKEY_print_public
                0x000000004019be09                EVP_PKEY_print_private
                0x000000004019be31                EVP_PKEY_print_params
                0x000000004019be5a                EVP_PKEY_get_default_digest_nid
                0x000000004019be94                PEM_read_bio_X509_REQ
                0x000000004019beb5                PEM_write_bio_X509_REQ
                0x000000004019bef9                PEM_write_bio_X509_REQ_NEW
                0x000000004019bf3d                PEM_read_bio_X509_CRL
                0x000000004019bf5e                PEM_write_bio_X509_CRL
                0x000000004019bfa2                PEM_read_bio_PKCS7
                0x000000004019bfc3                PEM_write_bio_PKCS7
                0x000000004019c007                PEM_read_bio_NETSCAPE_CERT_SEQUENCE
                0x000000004019c028                PEM_write_bio_NETSCAPE_CERT_SEQUENCE
                0x000000004019c06c                PEM_read_bio_RSAPrivateKey
                0x000000004019c0d5                PEM_write_bio_RSAPrivateKey
                0x000000004019c10c                PEM_read_bio_RSAPublicKey
                0x000000004019c12d                PEM_write_bio_RSAPublicKey
                0x000000004019c171                PEM_read_bio_RSA_PUBKEY
                0x000000004019c192                PEM_write_bio_RSA_PUBKEY
                0x000000004019c1d6                PEM_read_bio_DSAPrivateKey
                0x000000004019c23f                PEM_write_bio_DSAPrivateKey
                0x000000004019c276                PEM_read_bio_DSA_PUBKEY
                0x000000004019c297                PEM_write_bio_DSA_PUBKEY
                0x000000004019c2db                PEM_read_bio_DSAparams
                0x000000004019c2fc                PEM_write_bio_DSAparams
                0x000000004019c340                PEM_read_bio_ECPrivateKey
                0x000000004019c3a9                PEM_read_bio_ECPKParameters
                0x000000004019c3ca                PEM_write_bio_ECPKParameters
                0x000000004019c40e                PEM_write_bio_ECPrivateKey
                0x000000004019c445                PEM_read_bio_EC_PUBKEY
                0x000000004019c466                PEM_write_bio_EC_PUBKEY
                0x000000004019c4aa                PEM_read_bio_DHparams
                0x000000004019c4cb                PEM_write_bio_DHparams
                0x000000004019c50f                PEM_read_bio_PUBKEY
                0x000000004019c530                PEM_write_bio_PUBKEY
                0x000000004019c574                ERR_load_PEM_strings
                0x000000004019c5b0                PEM_def_callback
                0x000000004019c5da                PEM_proc_type
                0x000000004019c642                PEM_dek_info
                0x000000004019c701                PEM_do_header
                0x000000004019c8da                PEM_get_EVP_CIPHER_INFO
                0x000000004019cb79                PEM_write_bio
                0x000000004019ce48                PEM_ASN1_write_bio
                0x000000004019d263                PEM_read_bio
                0x000000004019d94c                pem_check_suffix
                0x000000004019d9c1                PEM_bytes_read_bio
                0x000000004019dd0c                PEM_ASN1_read_bio
                0x000000004019ddb8                PEM_read_bio_PrivateKey
                0x000000004019e014                PEM_write_bio_PrivateKey
                0x000000004019e0e0                PEM_read_bio_Parameters
                0x000000004019e202                PEM_write_bio_Parameters
                0x000000004019e284                PEM_read_bio_X509
                0x000000004019e2a5                PEM_write_bio_X509
                0x000000004019e2ec                ERR_load_PKCS12_strings
                0x000000004019e3fa                d2i_PKCS7
                0x000000004019e40a                i2d_PKCS7
                0x000000004019e41a                PKCS7_new
                0x000000004019e42a                PKCS7_free
                0x000000004019e43a                i2d_PKCS7_NDEF
                0x000000004019e44a                PKCS7_dup
                0x000000004019e45d                d2i_PKCS7_SIGNED
                0x000000004019e46d                i2d_PKCS7_SIGNED
                0x000000004019e47d                PKCS7_SIGNED_new
                0x000000004019e48d                PKCS7_SIGNED_free
                0x000000004019e49d                d2i_PKCS7_SIGNER_INFO
                0x000000004019e4ad                i2d_PKCS7_SIGNER_INFO
                0x000000004019e4bd                PKCS7_SIGNER_INFO_new
                0x000000004019e4cd                PKCS7_SIGNER_INFO_free
                0x000000004019e4dd                d2i_PKCS7_ISSUER_AND_SERIAL
                0x000000004019e4ed                i2d_PKCS7_ISSUER_AND_SERIAL
                0x000000004019e4fd                PKCS7_ISSUER_AND_SERIAL_new
                0x000000004019e50d                PKCS7_ISSUER_AND_SERIAL_free
                0x000000004019e51d                d2i_PKCS7_ENVELOPE
                0x000000004019e52d                i2d_PKCS7_ENVELOPE
                0x000000004019e53d                PKCS7_ENVELOPE_new
                0x000000004019e54d                PKCS7_ENVELOPE_free
                0x000000004019e55d                d2i_PKCS7_RECIP_INFO
                0x000000004019e56d                i2d_PKCS7_RECIP_INFO
                0x000000004019e57d                PKCS7_RECIP_INFO_new
                0x000000004019e58d                PKCS7_RECIP_INFO_free
                0x000000004019e59d                d2i_PKCS7_ENC_CONTENT
                0x000000004019e5ad                i2d_PKCS7_ENC_CONTENT
                0x000000004019e5bd                PKCS7_ENC_CONTENT_new
                0x000000004019e5cd                PKCS7_ENC_CONTENT_free
                0x000000004019e5dd                d2i_PKCS7_SIGN_ENVELOPE
                0x000000004019e5ed                i2d_PKCS7_SIGN_ENVELOPE
                0x000000004019e5fd                PKCS7_SIGN_ENVELOPE_new
                0x000000004019e60d                PKCS7_SIGN_ENVELOPE_free
                0x000000004019e61d                d2i_PKCS7_ENCRYPT
                0x000000004019e62d                i2d_PKCS7_ENCRYPT
                0x000000004019e63d                PKCS7_ENCRYPT_new
                0x000000004019e64d                PKCS7_ENCRYPT_free
                0x000000004019e65d                d2i_PKCS7_DIGEST
                0x000000004019e66d                i2d_PKCS7_DIGEST
                0x000000004019e67d                PKCS7_DIGEST_new
                0x000000004019e68d                PKCS7_DIGEST_free
                0x000000004019e69d                PKCS7_print_ctx
                0x000000004019ec19                PKCS7_dataInit
                0x000000004019f2ee                PKCS7_dataDecode
                0x000000004019f995                PKCS7_SIGNER_INFO_sign
                0x000000004019fb5e                PKCS7_get_issuer_and_serial
                0x000000004019fbcd                PKCS7_get_signed_attribute
                0x000000004019fbdc                PKCS7_dataFinal
                0x00000000401a018e                PKCS7_get_attribute
                0x00000000401a019d                PKCS7_digest_from_attributes
                0x00000000401a01bd                PKCS7_signatureVerify
                0x00000000401a04c4                PKCS7_dataVerify
                0x00000000401a0642                PKCS7_set_signed_attributes
                0x00000000401a06d5                PKCS7_set_attributes
                0x00000000401a0768                PKCS7_add_signed_attribute
                0x00000000401a0777                PKCS7_add_attribute
                0x00000000401a0790                PKCS7_ctrl
                0x00000000401a08cc                PKCS7_set_content
                0x00000000401a095d                PKCS7_set_type
                0x00000000401a0b6e                PKCS7_content_new
                0x00000000401a0bda                PKCS7_set0_type_other
                0x00000000401a0c0e                PKCS7_add_signer
                0x00000000401a0d6b                PKCS7_add_certificate
                0x00000000401a0e4c                PKCS7_add_crl
                0x00000000401a0f2c                PKCS7_SIGNER_INFO_set
                0x00000000401a109c                PKCS7_add_signature
                0x00000000401a1170                PKCS7_set_digest
                0x00000000401a123c                PKCS7_get_signer_info
                0x00000000401a1285                PKCS7_SIGNER_INFO_get0_algs
                0x00000000401a12af                PKCS7_RECIP_INFO_get0_alg
                0x00000000401a12c1                PKCS7_add_recipient_info
                0x00000000401a1330                PKCS7_RECIP_INFO_set
                0x00000000401a14bb                PKCS7_add_recipient
                0x00000000401a1520                PKCS7_cert_from_signer_info
                0x00000000401a1572                PKCS7_set_cipher
                0x00000000401a160c                PKCS7_stream
                0x00000000401a16d8                ERR_load_PKCS7_strings
                0x00000000401a1710                ERR_load_RAND_strings
                0x00000000401a1748                DES_random_key
                0x00000000401a1790                RAND_set_rand_method
                0x00000000401a17a2                RAND_get_rand_method
                0x00000000401a17c5                RAND_cleanup
                0x00000000401a17ea                RAND_seed
                0x00000000401a1822                RAND_add
                0x00000000401a186b                RAND_bytes
                0x00000000401a18b2                RAND_pseudo_bytes
                0x00000000401a18f9                RAND_status
                0x00000000401a191c                RC2_encrypt
                0x00000000401a1a7a                RC2_decrypt
                0x00000000401a1be0                RC2_cbc_encrypt
                0x00000000401a2208                RC2_ecb_encrypt
                0x00000000401a22d0                RC2_set_key
                0x00000000401a2400                RC2_cfb64_encrypt
                0x00000000401a2614                RC2_ofb64_encrypt
                0x00000000401a27c8                RC4
                0x00000000401a2c64                RC4_options
                0x00000000401a2c6f                RC4_set_key
                0x00000000401a2d74                RIPEMD160_Init
                0x00000000401a2dbd                ripemd160_block_data_order
                0x00000000401a4412                RIPEMD160_Final
                0x00000000401a44e7                RIPEMD160_Transform
                0x00000000401a44f7                RIPEMD160_Update
                0x00000000401a4682                d2i_RSAPrivateKey
                0x00000000401a4692                i2d_RSAPrivateKey
                0x00000000401a46a2                d2i_RSAPublicKey
                0x00000000401a46b2                i2d_RSAPublicKey
                0x00000000401a46c2                RSAPublicKey_dup
                0x00000000401a46d5                RSAPrivateKey_dup
                0x00000000401a46f0                RSA_generate_key
                0x00000000401a47b0                ERR_load_RSA_strings
                0x00000000401a47f0                RSA_generate_key_ex
                0x00000000401a4dc0                RSA_set_default_method
                0x00000000401a4dcd                RSA_get_default_method
                0x00000000401a4df0                RSA_get_method
                0x00000000401a4dfa                RSA_set_method
                0x00000000401a4e41                RSA_new_method
                0x00000000401a4f8d                RSA_new
                0x00000000401a4f9d                RSA_free
                0x00000000401a50ad                RSA_up_ref
                0x00000000401a50da                RSA_get_ex_new_index
                0x00000000401a50f9                RSA_set_ex_data
                0x00000000401a5108                RSA_get_ex_data
                0x00000000401a5117                RSA_size
                0x00000000401a5132                RSA_public_encrypt
                0x00000000401a513f                RSA_private_encrypt
                0x00000000401a514c                RSA_private_decrypt
                0x00000000401a5159                RSA_public_decrypt
                0x00000000401a5166                RSA_flags
                0x00000000401a517d                RSA_blinding_off
                0x00000000401a51b7                RSA_setup_blinding
                0x00000000401a5460                RSA_blinding_on
                0x00000000401a54be                RSA_memory_lock
                0x00000000401a5610                RSA_sign
                0x00000000401a5875                int_rsa_verify
                0x00000000401a5c0f                RSA_verify
                0x00000000401a5c50                DES_set_odd_parity
                0x00000000401a5c73                DES_check_key_parity
                0x00000000401a5cb4                DES_is_weak_key
                0x00000000401a5d03                DES_set_key_unchecked
                0x00000000401a5fa7                DES_set_key_checked
                0x00000000401a5ff8                DES_set_key
                0x00000000401a601c                DES_key_sched
                0x00000000401a6028                SHA1
                0x00000000401a71db                SHA1_Update
                0x00000000401a731a                SHA1_Transform
                0x00000000401a732a                SHA1_Final
                0x00000000401a740d                SHA1_Init
                0x00000000401a8c70                SHA224_Init
                0x00000000401a8cd5                SHA256_Init
                0x00000000401a8d3a                SHA256_Update
                0x00000000401a8e79                SHA224_Update
                0x00000000401a8e84                SHA256_Transform
                0x00000000401a8e94                SHA256_Final
                0x00000000401a8fbe                SHA224_Final
                0x00000000401a8fc9                SHA256
                0x00000000401a9044                SHA224
                0x00000000401aa8b5                SHA384_Init
                0x00000000401aa953                SHA512_Init
                0x00000000401aa9f1                SHA512_Final
                0x00000000401aac56                SHA384_Final
                0x00000000401aac61                SHA512_Update
                0x00000000401aad71                SHA384_Update
                0x00000000401aad7c                SHA512_Transform
                0x00000000401aad8c                SHA384
                0x00000000401aae07                SHA512
                0x00000000401abe57                SHA_Update
                0x00000000401abf96                SHA_Transform
                0x00000000401abfa6                SHA_Final
                0x00000000401ac089                SHA_Init
                0x00000000401ac0e0                sk_set_cmp_func
                0x00000000401ac0fa                sk_new
                0x00000000401ac197                sk_new_null
                0x00000000401ac1a7                sk_insert
                0x00000000401ac262                sk_delete
                0x00000000401ac2be                sk_delete_ptr
                0x00000000401ac304                sk_push
                0x00000000401ac311                sk_unshift
                0x00000000401ac321                sk_shift
                0x00000000401ac347                sk_pop
                0x00000000401ac36c                sk_zero
                0x00000000401ac3a1                sk_free
                0x00000000401ac3cf                sk_pop_free
                0x00000000401ac421                sk_dup
                0x00000000401ac4a7                sk_num
                0x00000000401ac4bb                sk_value
                0x00000000401ac4ea                sk_set
                0x00000000401ac51e                sk_sort
                0x00000000401ac5fc                sk_find_ex
                0x00000000401ac60c                sk_find
                0x00000000401ac61c                sk_is_sorted
                0x00000000401acac2                ASN1_tag2bit
                0x00000000401acadd                asn1_ex_c2i
                0x00000000401ad32d                ASN1_item_ex_d2i
                0x00000000401ae20a                ASN1_template_d2i
                0x00000000401ae227                ASN1_item_d2i
                0x00000000401ae2d1                asn1_ex_i2c
                0x00000000401ae59a                ASN1_item_ex_i2d
                0x00000000401aedf9                ASN1_template_i2d
                0x00000000401aeed5                ASN1_item_i2d
                0x00000000401aeee5                ASN1_item_ndef_i2d
                0x00000000401aef00                ASN1_primitive_free
                0x00000000401af226                ASN1_template_free
                0x00000000401af2aa                ASN1_item_ex_free
                0x00000000401af2ba                ASN1_item_free
                0x00000000401af3a2                ASN1_primitive_new
                0x00000000401af7cc                ASN1_template_new
                0x00000000401af859                ASN1_item_ex_new
                0x00000000401af869                ASN1_item_new
                0x00000000401af898                d2i_ASN1_INTEGER
                0x00000000401af8a8                i2d_ASN1_INTEGER
                0x00000000401af8b8                ASN1_INTEGER_new
                0x00000000401af8c8                ASN1_INTEGER_free
                0x00000000401af8d8                d2i_ASN1_ENUMERATED
                0x00000000401af8e8                i2d_ASN1_ENUMERATED
                0x00000000401af8f8                ASN1_ENUMERATED_new
                0x00000000401af908                ASN1_ENUMERATED_free
                0x00000000401af918                d2i_ASN1_BIT_STRING
                0x00000000401af928                i2d_ASN1_BIT_STRING
                0x00000000401af938                ASN1_BIT_STRING_new
                0x00000000401af948                ASN1_BIT_STRING_free
                0x00000000401af958                d2i_ASN1_OCTET_STRING
                0x00000000401af968                i2d_ASN1_OCTET_STRING
                0x00000000401af978                ASN1_OCTET_STRING_new
                0x00000000401af988                ASN1_OCTET_STRING_free
                0x00000000401af998                d2i_ASN1_NULL
                0x00000000401af9a8                i2d_ASN1_NULL
                0x00000000401af9b8                ASN1_NULL_new
                0x00000000401af9c8                ASN1_NULL_free
                0x00000000401af9d8                d2i_ASN1_UTF8STRING
                0x00000000401af9e8                i2d_ASN1_UTF8STRING
                0x00000000401af9f8                ASN1_UTF8STRING_new
                0x00000000401afa08                ASN1_UTF8STRING_free
                0x00000000401afa18                d2i_ASN1_PRINTABLESTRING
                0x00000000401afa28                i2d_ASN1_PRINTABLESTRING
                0x00000000401afa38                ASN1_PRINTABLESTRING_new
                0x00000000401afa48                ASN1_PRINTABLESTRING_free
                0x00000000401afa58                d2i_ASN1_T61STRING
                0x00000000401afa68                i2d_ASN1_T61STRING
                0x00000000401afa78                ASN1_T61STRING_new
                0x00000000401afa88                ASN1_T61STRING_free
                0x00000000401afa98                d2i_ASN1_IA5STRING
                0x00000000401afaa8                i2d_ASN1_IA5STRING
                0x00000000401afab8                ASN1_IA5STRING_new
                0x00000000401afac8                ASN1_IA5STRING_free
                0x00000000401afad8                d2i_ASN1_GENERALSTRING
                0x00000000401afae8                i2d_ASN1_GENERALSTRING
                0x00000000401afaf8                ASN1_GENERALSTRING_new
                0x00000000401afb08                ASN1_GENERALSTRING_free
                0x00000000401afb18                d2i_ASN1_UTCTIME
                0x00000000401afb28                i2d_ASN1_UTCTIME
                0x00000000401afb38                ASN1_UTCTIME_new
                0x00000000401afb48                ASN1_UTCTIME_free
                0x00000000401afb58                d2i_ASN1_GENERALIZEDTIME
                0x00000000401afb68                i2d_ASN1_GENERALIZEDTIME
                0x00000000401afb78                ASN1_GENERALIZEDTIME_new
                0x00000000401afb88                ASN1_GENERALIZEDTIME_free
                0x00000000401afb98                d2i_ASN1_VISIBLESTRING
                0x00000000401afba8                i2d_ASN1_VISIBLESTRING
                0x00000000401afbb8                ASN1_VISIBLESTRING_new
                0x00000000401afbc8                ASN1_VISIBLESTRING_free
                0x00000000401afbd8                d2i_ASN1_UNIVERSALSTRING
                0x00000000401afbe8                i2d_ASN1_UNIVERSALSTRING
                0x00000000401afbf8                ASN1_UNIVERSALSTRING_new
                0x00000000401afc08                ASN1_UNIVERSALSTRING_free
                0x00000000401afc18                d2i_ASN1_BMPSTRING
                0x00000000401afc28                i2d_ASN1_BMPSTRING
                0x00000000401afc38                ASN1_BMPSTRING_new
                0x00000000401afc48                ASN1_BMPSTRING_free
                0x00000000401afc58                d2i_ASN1_TYPE
                0x00000000401afc68                i2d_ASN1_TYPE
                0x00000000401afc78                ASN1_TYPE_new
                0x00000000401afc88                ASN1_TYPE_free
                0x00000000401afc98                d2i_ASN1_PRINTABLE
                0x00000000401afca8                i2d_ASN1_PRINTABLE
                0x00000000401afcb8                ASN1_PRINTABLE_new
                0x00000000401afcc8                ASN1_PRINTABLE_free
                0x00000000401afcd8                d2i_DISPLAYTEXT
                0x00000000401afce8                i2d_DISPLAYTEXT
                0x00000000401afcf8                DISPLAYTEXT_new
                0x00000000401afd08                DISPLAYTEXT_free
                0x00000000401afd18                d2i_DIRECTORYSTRING
                0x00000000401afd28                i2d_DIRECTORYSTRING
                0x00000000401afd38                DIRECTORYSTRING_new
                0x00000000401afd48                DIRECTORYSTRING_free
                0x00000000401afd58                d2i_ASN1_SEQUENCE_ANY
                0x00000000401afd68                i2d_ASN1_SEQUENCE_ANY
                0x00000000401afd78                d2i_ASN1_SET_ANY
                0x00000000401afd88                i2d_ASN1_SET_ANY
                0x00000000401afde3                asn1_get_choice_selector
                0x00000000401afdf3                asn1_set_choice_selector
                0x00000000401afe07                asn1_do_lock
                0x00000000401afe61                asn1_enc_init
                0x00000000401afe87                asn1_enc_free
                0x00000000401afec7                asn1_enc_save
                0x00000000401aff51                asn1_enc_restore
                0x00000000401affcb                asn1_get_field_ptr
                0x00000000401affe3                asn1_do_adb
                0x00000000401b00a0                ERR_load_UI_strings
                0x00000000401b00d8                ERR_load_X509V3_strings
                0x00000000401b0110                X509_issuer_and_serial_hash
                0x00000000401b01df                X509_CRL_match
                0x00000000401b01f7                X509_get_issuer_name
                0x00000000401b0204                X509_get_subject_name
                0x00000000401b0211                X509_get_serialNumber
                0x00000000401b021e                X509_cmp
                0x00000000401b0278                X509_NAME_cmp
                0x00000000401b02f1                X509_CRL_cmp
                0x00000000401b030a                X509_subject_name_cmp
                0x00000000401b0323                X509_issuer_name_cmp
                0x00000000401b033c                X509_issuer_and_serial_cmp
                0x00000000401b037c                X509_NAME_hash
                0x00000000401b03e2                X509_subject_name_hash
                0x00000000401b03f4                X509_issuer_name_hash
                0x00000000401b0406                X509_NAME_hash_old
                0x00000000401b046f                X509_subject_name_hash_old
                0x00000000401b0481                X509_issuer_name_hash_old
                0x00000000401b0493                X509_find_by_issuer_and_serial
                0x00000000401b0516                X509_find_by_subject
                0x00000000401b0573                X509_get_pubkey
                0x00000000401b059b                X509_get0_pubkey_bitstr
                0x00000000401b05b8                X509_check_private_key
                0x00000000401b0674                ERR_load_X509_strings
                0x00000000401b06ac                X509_NAME_oneline
                0x00000000401b0eea                X509_time_adj_ex
                0x00000000401b0f37                X509_time_adj
                0x00000000401b0f4d                X509_gmtime_adj
                0x00000000401b0f5d                X509_cmp_time
                0x00000000401b2022                X509_cmp_current_time
                0x00000000401b2032                X509_get_pubkey_parameters
                0x00000000401b215e                X509_verify_cert
                0x00000000401b2af1                X509_STORE_CTX_get_ex_new_index
                0x00000000401b2b10                X509_STORE_CTX_set_ex_data
                0x00000000401b2b22                X509_STORE_CTX_get_ex_data
                0x00000000401b2b34                X509_STORE_CTX_get_error
                0x00000000401b2b40                X509_STORE_CTX_set_error
                0x00000000401b2b4c                X509_STORE_CTX_get_error_depth
                0x00000000401b2b58                X509_STORE_CTX_get_current_cert
                0x00000000401b2b65                X509_STORE_CTX_get_chain
                0x00000000401b2b72                X509_STORE_CTX_get1_chain
                0x00000000401b2bde                X509_STORE_CTX_get0_current_issuer
                0x00000000401b2beb                X509_STORE_CTX_get0_current_crl
                0x00000000401b2bf8                X509_STORE_CTX_get0_parent_ctx
                0x00000000401b2c05                X509_STORE_CTX_set_cert
                0x00000000401b2c0f                X509_STORE_CTX_set_chain
                0x00000000401b2c19                X509_STORE_CTX_set0_crls
                0x00000000401b2c23                X509_STORE_CTX_purpose_inherit
                0x00000000401b2d50                X509_STORE_CTX_set_trust
                0x00000000401b2d67                X509_STORE_CTX_set_purpose
                0x00000000401b2d7e                X509_STORE_CTX_new
                0x00000000401b2de0                X509_STORE_CTX_init
                0x00000000401b313f                X509_STORE_CTX_trusted_stack
                0x00000000401b3151                X509_STORE_CTX_cleanup
                0x00000000401b31f4                X509_STORE_CTX_free
                0x00000000401b3214                X509_STORE_CTX_set_depth
                0x00000000401b3223                X509_STORE_CTX_set_flags
                0x00000000401b3232                X509_STORE_CTX_set_time
                0x00000000401b3243                X509_STORE_CTX_set_verify_cb
                0x00000000401b324d                X509_STORE_CTX_get0_policy_tree
                0x00000000401b325a                X509_STORE_CTX_get_explicit_policy
                0x00000000401b3266                X509_STORE_CTX_set_default
                0x00000000401b3297                X509_STORE_CTX_get0_param
                0x00000000401b32a1                X509_STORE_CTX_set0_param
                0x00000000401b3697                X509_VERIFY_PARAM_free
                0x00000000401b36b7                X509_VERIFY_PARAM_new
                0x00000000401b36fb                X509_VERIFY_PARAM_set1_name
                0x00000000401b373c                X509_VERIFY_PARAM_set_flags
                0x00000000401b3760                X509_VERIFY_PARAM_clear_flags
                0x00000000401b3772                X509_VERIFY_PARAM_get_flags
                0x00000000401b377c                X509_VERIFY_PARAM_set_purpose
                0x00000000401b378b                X509_VERIFY_PARAM_set_trust
                0x00000000401b379a                X509_VERIFY_PARAM_set_depth
                0x00000000401b37a3                X509_VERIFY_PARAM_set_time
                0x00000000401b37b1                X509_VERIFY_PARAM_add0_policy
                0x00000000401b3802                X509_VERIFY_PARAM_set1_policies
                0x00000000401b38c9                X509_VERIFY_PARAM_inherit
                0x00000000401b39df                X509_VERIFY_PARAM_set1
                0x00000000401b3a14                X509_VERIFY_PARAM_get_depth
                0x00000000401b3a1d                X509_VERIFY_PARAM_add0_table
                0x00000000401b3aa4                X509_VERIFY_PARAM_lookup
                0x00000000401b3afa                X509_VERIFY_PARAM_table_cleanup
                0x00000000401b3b24                d2i_X509_ALGOR
                0x00000000401b3b34                i2d_X509_ALGOR
                0x00000000401b3b44                X509_ALGOR_new
                0x00000000401b3b54                X509_ALGOR_free
                0x00000000401b3b64                d2i_X509_ALGORS
                0x00000000401b3b74                i2d_X509_ALGORS
                0x00000000401b3b84                X509_ALGOR_dup
                0x00000000401b3b97                X509_ALGOR_set0
                0x00000000401b3c49                X509_ALGOR_get0
                0x00000000401b3c84                X509_verify
                0x00000000401b3ca5                X509_REQ_verify
                0x00000000401b3cc6                NETSCAPE_SPKI_verify
                0x00000000401b3ce7                X509_sign
                0x00000000401b3d21                X509_REQ_sign
                0x00000000401b3d4f                X509_CRL_sign
                0x00000000401b3d89                NETSCAPE_SPKI_sign
                0x00000000401b3db7                d2i_X509_bio
                0x00000000401b3dcd                i2d_X509_bio
                0x00000000401b3de3                d2i_X509_CRL_bio
                0x00000000401b3df9                i2d_X509_CRL_bio
                0x00000000401b3e0f                d2i_PKCS7_bio
                0x00000000401b3e25                i2d_PKCS7_bio
                0x00000000401b3e3b                d2i_X509_REQ_bio
                0x00000000401b3e51                i2d_X509_REQ_bio
                0x00000000401b3e67                d2i_RSAPrivateKey_bio
                0x00000000401b3e7d                i2d_RSAPrivateKey_bio
                0x00000000401b3e93                d2i_RSAPublicKey_bio
                0x00000000401b3ea9                d2i_RSA_PUBKEY_bio
                0x00000000401b3ec4                i2d_RSAPublicKey_bio
                0x00000000401b3eda                i2d_RSA_PUBKEY_bio
                0x00000000401b3ef0                d2i_DSAPrivateKey_bio
                0x00000000401b3f0b                i2d_DSAPrivateKey_bio
                0x00000000401b3f21                d2i_DSA_PUBKEY_bio
                0x00000000401b3f3c                i2d_DSA_PUBKEY_bio
                0x00000000401b3f52                d2i_EC_PUBKEY_bio
                0x00000000401b3f6d                i2d_EC_PUBKEY_bio
                0x00000000401b3f83                d2i_ECPrivateKey_bio
                0x00000000401b3f9e                i2d_ECPrivateKey_bio
                0x00000000401b3fb4                X509_pubkey_digest
                0x00000000401b400c                X509_digest
                0x00000000401b4025                X509_CRL_digest
                0x00000000401b403e                X509_REQ_digest
                0x00000000401b4057                X509_NAME_digest
                0x00000000401b4070                PKCS7_ISSUER_AND_SERIAL_digest
                0x00000000401b4089                d2i_PKCS8_bio
                0x00000000401b40a4                i2d_PKCS8_bio
                0x00000000401b40ba                d2i_PKCS8_PRIV_KEY_INFO_bio
                0x00000000401b40d5                i2d_PKCS8_PRIV_KEY_INFO_bio
                0x00000000401b40eb                i2d_PKCS8PrivateKeyInfo_bio
                0x00000000401b413f                i2d_PrivateKey_bio
                0x00000000401b4155                d2i_PrivateKey_bio
                0x00000000401b4170                i2d_PUBKEY_bio
                0x00000000401b4186                d2i_PUBKEY_bio
                0x00000000401b41a4                d2i_X509_ATTRIBUTE
                0x00000000401b41b4                i2d_X509_ATTRIBUTE
                0x00000000401b41c4                X509_ATTRIBUTE_new
                0x00000000401b41d4                X509_ATTRIBUTE_free
                0x00000000401b41e4                X509_ATTRIBUTE_dup
                0x00000000401b41f7                X509_ATTRIBUTE_create
                0x00000000401b4a2e                d2i_X509_REVOKED
                0x00000000401b4a3e                i2d_X509_REVOKED
                0x00000000401b4a4e                X509_REVOKED_new
                0x00000000401b4a5e                X509_REVOKED_free
                0x00000000401b4a6e                d2i_X509_CRL_INFO
                0x00000000401b4a7e                i2d_X509_CRL_INFO
                0x00000000401b4a8e                X509_CRL_INFO_new
                0x00000000401b4a9e                X509_CRL_INFO_free
                0x00000000401b4aae                d2i_X509_CRL
                0x00000000401b4abe                i2d_X509_CRL
                0x00000000401b4ace                X509_CRL_new
                0x00000000401b4ade                X509_CRL_free
                0x00000000401b4aee                X509_CRL_dup
                0x00000000401b4b01                X509_CRL_add0_revoked
                0x00000000401b4b82                X509_CRL_verify
                0x00000000401b4b9c                X509_CRL_get0_by_serial
                0x00000000401b4bbc                X509_CRL_get0_by_cert
                0x00000000401b4c2b                X509_CRL_set_default_method
                0x00000000401b4c44                X509_CRL_METHOD_new
                0x00000000401b4ca9                X509_CRL_METHOD_free
                0x00000000401b4cb9                X509_CRL_set_meth_data
                0x00000000401b4cc3                X509_CRL_get_meth_data
                0x00000000401b4cd0                d2i_X509_EXTENSION
                0x00000000401b4ce0                i2d_X509_EXTENSION
                0x00000000401b4cf0                X509_EXTENSION_new
                0x00000000401b4d00                X509_EXTENSION_free
                0x00000000401b4d10                d2i_X509_EXTENSIONS
                0x00000000401b4d20                i2d_X509_EXTENSIONS
                0x00000000401b4d30                X509_EXTENSION_dup
                0x00000000401b50cd                X509_NAME_ENTRY_free
                0x00000000401b50dd                d2i_X509_NAME_ENTRY
                0x00000000401b50ed                i2d_X509_NAME_ENTRY
                0x00000000401b50fd                X509_NAME_ENTRY_new
                0x00000000401b562c                X509_NAME_ENTRY_dup
                0x00000000401b563f                d2i_X509_NAME
                0x00000000401b564f                i2d_X509_NAME
                0x00000000401b565f                X509_NAME_new
                0x00000000401b566f                X509_NAME_free
                0x00000000401b5821                X509_NAME_dup
                0x00000000401b5834                X509_NAME_set
                0x00000000401b58ac                d2i_X509_PUBKEY
                0x00000000401b58bc                i2d_X509_PUBKEY
                0x00000000401b58cc                X509_PUBKEY_new
                0x00000000401b58dc                X509_PUBKEY_free
                0x00000000401b58ec                X509_PUBKEY_set
                0x00000000401b59dd                X509_PUBKEY_get
                0x00000000401b5b3c                d2i_PUBKEY
                0x00000000401b5ba5                i2d_PUBKEY
                0x00000000401b5bfd                d2i_RSA_PUBKEY
                0x00000000401b5c82                i2d_RSA_PUBKEY
                0x00000000401b5d0f                d2i_DSA_PUBKEY
                0x00000000401b5d94                i2d_DSA_PUBKEY
                0x00000000401b5e21                d2i_EC_PUBKEY
                0x00000000401b5ea6                i2d_EC_PUBKEY
                0x00000000401b5f33                X509_PUBKEY_set0_param
                0x00000000401b5fb0                X509_PUBKEY_get0_param
                0x00000000401b601b                d2i_X509_REQ_INFO
                0x00000000401b602b                i2d_X509_REQ_INFO
                0x00000000401b603b                X509_REQ_INFO_new
                0x00000000401b604b                X509_REQ_INFO_free
                0x00000000401b605b                d2i_X509_REQ
                0x00000000401b606b                i2d_X509_REQ
                0x00000000401b607b                X509_REQ_new
                0x00000000401b608b                X509_REQ_free
                0x00000000401b609b                X509_REQ_dup
                0x00000000401b60b0                d2i_X509_SIG
                0x00000000401b60c0                i2d_X509_SIG
                0x00000000401b60d0                X509_SIG_new
                0x00000000401b60e0                X509_SIG_free
                0x00000000401b60f0                d2i_NETSCAPE_SPKAC
                0x00000000401b6100                i2d_NETSCAPE_SPKAC
                0x00000000401b6110                NETSCAPE_SPKAC_new
                0x00000000401b6120                NETSCAPE_SPKAC_free
                0x00000000401b6130                d2i_NETSCAPE_SPKI
                0x00000000401b6140                i2d_NETSCAPE_SPKI
                0x00000000401b6150                NETSCAPE_SPKI_new
                0x00000000401b6160                NETSCAPE_SPKI_free
                0x00000000401b628c                d2i_X509_CINF
                0x00000000401b629c                i2d_X509_CINF
                0x00000000401b62ac                X509_CINF_new
                0x00000000401b62bc                X509_CINF_free
                0x00000000401b62cc                d2i_X509
                0x00000000401b62dc                i2d_X509
                0x00000000401b62ec                X509_new
                0x00000000401b62fc                X509_free
                0x00000000401b630c                X509_dup
                0x00000000401b631f                X509_get_ex_new_index
                0x00000000401b633e                X509_set_ex_data
                0x00000000401b634d                X509_get_ex_data
                0x00000000401b635c                d2i_X509_AUX
                0x00000000401b63cc                i2d_X509_AUX
                0x00000000401b6418                d2i_X509_CERT_AUX
                0x00000000401b6428                i2d_X509_CERT_AUX
                0x00000000401b6438                X509_CERT_AUX_new
                0x00000000401b6490                X509_CERT_AUX_free
                0x00000000401b64a0                X509_alias_set1
                0x00000000401b6548                X509_keyid_set1
                0x00000000401b65f0                X509_alias_get0
                0x00000000401b6631                X509_keyid_get0
                0x00000000401b6672                X509_add1_trust_object
                0x00000000401b66df                X509_add1_reject_object
                0x00000000401b6741                X509_trust_clear
                0x00000000401b6780                X509_reject_clear
                0x00000000401b67c1                d2i_X509_CERT_PAIR
                0x00000000401b67d1                i2d_X509_CERT_PAIR
                0x00000000401b67e1                X509_CERT_PAIR_new
                0x00000000401b67f1                X509_CERT_PAIR_free
                0x00000000401b6804                DES_xcbc_encrypt
                0x00000000401b6f7c                ERR_load_TS_strings
                0x00000000401b6fb4                ERR_load_CMS_strings
                0x00000000401b7036                OBJ_find_sigid_algs
                0x00000000401b70be                OBJ_find_sigid_by_algs
                0x00000000401b7146                OBJ_add_sigid
                0x00000000401b7254                OBJ_sigid_free
                0x00000000401b72cb                EVP_whirlpool
                0x00000000401b72fb                EVP_PKEY_meth_find
                0x00000000401b7374                EVP_PKEY_meth_new
                0x00000000401b7492                EVP_PKEY_meth_free
                0x00000000401b74a8                EVP_PKEY_meth_add0
                0x00000000401b750b                EVP_PKEY_CTX_free
                0x00000000401b755a                EVP_PKEY_CTX_dup
                0x00000000401b7790                EVP_PKEY_CTX_new_id
                0x00000000401b77a2                EVP_PKEY_CTX_new
                0x00000000401b77b2                EVP_PKEY_CTX_ctrl
                0x00000000401b78aa                EVP_PKEY_CTX_ctrl_str
                0x00000000401b798f                EVP_PKEY_CTX_get_operation
                0x00000000401b7998                EVP_PKEY_CTX_set0_keygen_info
                0x00000000401b79a5                EVP_PKEY_CTX_set_data
                0x00000000401b79af                EVP_PKEY_CTX_get_data
                0x00000000401b79b9                EVP_PKEY_CTX_get0_pkey
                0x00000000401b79c3                EVP_PKEY_CTX_get0_peerkey
                0x00000000401b79cd                EVP_PKEY_CTX_set_app_data
                0x00000000401b79d7                EVP_PKEY_CTX_get_app_data
                0x00000000401b79e1                EVP_PKEY_meth_set_init
                0x00000000401b79eb                EVP_PKEY_meth_set_copy
                0x00000000401b79f5                EVP_PKEY_meth_set_cleanup
                0x00000000401b79ff                EVP_PKEY_meth_set_paramgen
                0x00000000401b7a0d                EVP_PKEY_meth_set_keygen
                0x00000000401b7a1b                EVP_PKEY_meth_set_sign
                0x00000000401b7a29                EVP_PKEY_meth_set_verify
                0x00000000401b7a37                EVP_PKEY_meth_set_verify_recover
                0x00000000401b7a45                EVP_PKEY_meth_set_signctx
                0x00000000401b7a53                EVP_PKEY_meth_set_verifyctx
                0x00000000401b7a67                EVP_PKEY_meth_set_encrypt
                0x00000000401b7a7b                EVP_PKEY_meth_set_decrypt
                0x00000000401b7a8f                EVP_PKEY_meth_set_derive
                0x00000000401b7aa3                EVP_PKEY_meth_set_ctrl
                0x00000000401b7ad3                EVP_PKEY_asn1_get_count
                0x00000000401b7af2                EVP_PKEY_asn1_get0
                0x00000000401b7b22                EVP_PKEY_asn1_find
                0x00000000401b7bc5                EVP_PKEY_asn1_find_str
                0x00000000401b7c4c                EVP_PKEY_asn1_add0
                0x00000000401b7caf                EVP_PKEY_asn1_get0_info
                0x00000000401b7d01                EVP_PKEY_get0_asn1
                0x00000000401b7d0b                EVP_PKEY_asn1_copy
                0x00000000401b7dd3                EVP_PKEY_asn1_free
                0x00000000401b7e15                EVP_PKEY_asn1_new
                0x00000000401b7f8a                EVP_PKEY_asn1_add_alias
                0x00000000401b7fc7                EVP_PKEY_asn1_set_public
                0x00000000401b7fe9                EVP_PKEY_asn1_set_private
                0x00000000401b7ffb                EVP_PKEY_asn1_set_param
                0x00000000401b8026                EVP_PKEY_asn1_set_free
                0x00000000401b8033                EVP_PKEY_asn1_set_ctrl
                0x00000000401b8040                EVP_PKEY_sign_init
                0x00000000401b80af                EVP_PKEY_sign
                0x00000000401b81bb                EVP_PKEY_verify_init
                0x00000000401b822a                EVP_PKEY_verify
                0x00000000401b829a                EVP_PKEY_verify_recover_init
                0x00000000401b8309                EVP_PKEY_verify_recover
                0x00000000401b8415                EVP_PKEY_encrypt_init
                0x00000000401b848a                EVP_PKEY_encrypt
                0x00000000401b859f                EVP_PKEY_decrypt_init
                0x00000000401b8614                EVP_PKEY_decrypt
                0x00000000401b8729                EVP_PKEY_derive_init
                0x00000000401b879e                EVP_PKEY_derive_set_peer
                0x00000000401b8980                EVP_PKEY_derive
                0x00000000401b8b96                ASN1_PCTX_new
                0x00000000401b8c0d                ASN1_PCTX_free
                0x00000000401b8c18                ASN1_PCTX_get_flags
                0x00000000401b8c21                ASN1_PCTX_set_flags
                0x00000000401b8c2a                ASN1_PCTX_get_nm_flags
                0x00000000401b8c34                ASN1_PCTX_set_nm_flags
                0x00000000401b8c3e                ASN1_PCTX_get_cert_flags
                0x00000000401b8c48                ASN1_PCTX_set_cert_flags
                0x00000000401b8c52                ASN1_PCTX_get_oid_flags
                0x00000000401b8c5c                ASN1_PCTX_set_oid_flags
                0x00000000401b8c66                ASN1_PCTX_get_str_flags
                0x00000000401b8c70                ASN1_PCTX_set_str_flags
                0x00000000401b8c7a                asn1_template_print_ctx
                0x00000000401b95b5                ASN1_item_print
                0x00000000401b978f                EVP_DigestSignInit
                0x00000000401b97a0                EVP_DigestVerifyInit
                0x00000000401b97b1                EVP_DigestSignFinal
                0x00000000401b98f0                EVP_DigestVerifyFinal
                0x00000000401b99d0                WHIRLPOOL_Init
                0x00000000401b99ea                WHIRLPOOL_BitUpdate
                0x00000000401b9cf3                WHIRLPOOL_Update
                0x00000000401b9daf                WHIRLPOOL_Final
                0x00000000401b9eb6                WHIRLPOOL
                0x00000000401bd2c9                DHparams_print
                0x00000000401bf2ac                whirlpool_block
                0x00000000401bfe39                EVP_PKEY_paramgen_init
                0x00000000401bfea8                EVP_PKEY_paramgen
                0x00000000401bff61                EVP_PKEY_keygen_init
                0x00000000401bffd0                EVP_PKEY_keygen
                0x00000000401c0089                EVP_PKEY_CTX_set_cb
                0x00000000401c0093                EVP_PKEY_CTX_get_cb
                0x00000000401c009d                evp_pkey_set_cb_translate
                0x00000000401c00b5                EVP_PKEY_CTX_get_keygen_info
                0x00000000401c00dd                EVP_PKEY_new_mac_key
                0x00000000401c026c                CMS_SignedData_init
                0x00000000401c0280                cms_set1_SignerIdentifier
                0x00000000401c03a0                cms_SignerIdentifier_get0_signer_id
                0x00000000401c03f7                cms_SignerIdentifier_cert_cmp
                0x00000000401c0474                CMS_get0_SignerInfos
                0x00000000401c048f                CMS_get0_signers
                0x00000000401c0514                CMS_SignerInfo_set1_signer_cert
                0x00000000401c0575                CMS_SignerInfo_get0_signer_id
                0x00000000401c0584                CMS_SignerInfo_cert_cmp
                0x00000000401c0593                CMS_set1_signers_certs
                0x00000000401c06c5                CMS_SignerInfo_get0_algs
                0x00000000401c06fb                CMS_SignerInfo_sign
                0x00000000401c094f                cms_SignedData_final
                0x00000000401c0b70                CMS_SignerInfo_verify
                0x00000000401c0c9d                cms_SignedData_init_bio
                0x00000000401c0e6a                CMS_SignerInfo_verify_content
                0x00000000401c101e                CMS_add_smimecap
                0x00000000401c107e                CMS_add_simple_smimecap
                0x00000000401c11c6                CMS_add_standard_smimecap
                0x00000000401c1303                CMS_add1_signer
                0x00000000401c1864                CMS_get0_RecipientInfos
                0x00000000401c187f                CMS_RecipientInfo_type
                0x00000000401c1887                CMS_EnvelopedData_create
                0x00000000401c1992                CMS_add1_recipient_cert
                0x00000000401c1b76                CMS_RecipientInfo_ktri_get0_algs
                0x00000000401c1bd9                CMS_RecipientInfo_ktri_get0_signer_id
                0x00000000401c1c17                CMS_RecipientInfo_ktri_cert_cmp
                0x00000000401c1c55                CMS_RecipientInfo_set0_pkey
                0x00000000401c1c93                CMS_RecipientInfo_kekri_id_cmp
                0x00000000401c1cf2                CMS_add0_recipient_key
                0x00000000401c1f41                CMS_RecipientInfo_kekri_get0_id
                0x00000000401c1fe7                CMS_RecipientInfo_set0_key
                0x00000000401c2029                CMS_RecipientInfo_decrypt
                0x00000000401c23ff                cms_EnvelopedData_init_bio
                0x00000000401c287c                EC_KEY_print
                0x00000000401c28f7                ECParameters_print
                0x00000000401c2969                ECPKParameters_print
                0x00000000401c358c                CMS_signed_get_attr_count
                0x00000000401c359b                CMS_signed_get_attr_by_NID
                0x00000000401c35aa                CMS_signed_get_attr_by_OBJ
                0x00000000401c35b9                CMS_signed_get_attr
                0x00000000401c35c8                CMS_signed_delete_attr
                0x00000000401c35d7                CMS_signed_add1_attr
                0x00000000401c35ef                CMS_signed_add1_attr_by_OBJ
                0x00000000401c3607                CMS_signed_add1_attr_by_NID
                0x00000000401c361f                CMS_signed_add1_attr_by_txt
                0x00000000401c3637                CMS_signed_get0_data_by_OBJ
                0x00000000401c3646                CMS_unsigned_get_attr_count
                0x00000000401c3655                CMS_unsigned_get_attr_by_NID
                0x00000000401c3664                CMS_unsigned_get_attr_by_OBJ
                0x00000000401c3673                CMS_unsigned_get_attr
                0x00000000401c3682                CMS_unsigned_delete_attr
                0x00000000401c3691                CMS_unsigned_add1_attr
                0x00000000401c36a9                CMS_unsigned_add1_attr_by_OBJ
                0x00000000401c36c1                CMS_unsigned_add1_attr_by_NID
                0x00000000401c36d9                CMS_unsigned_add1_attr_by_txt
                0x00000000401c36f1                CMS_unsigned_get0_data_by_OBJ
                0x00000000401c386e                d2i_CMS_ContentInfo
                0x00000000401c387e                i2d_CMS_ContentInfo
                0x00000000401c388e                CMS_ContentInfo_new
                0x00000000401c389e                CMS_ContentInfo_free
                0x00000000401c38ae                CMS_ContentInfo_print_ctx
                0x00000000401c38c1                CMS_get0_type
                0x00000000401c38ca                CMS_get0_content
                0x00000000401c39a5                CMS_dataFinal
                0x00000000401c3b19                cms_content_bio
                0x00000000401c3b69                CMS_dataInit
                0x00000000401c3c6a                CMS_get0_eContentType
                0x00000000401c3c84                CMS_set1_eContentType
                0x00000000401c3cdf                CMS_is_detached
                0x00000000401c3d00                CMS_set_detached
                0x00000000401c3d96                cms_Data_create
                0x00000000401c3dd0                cms_DigestAlgorithm_set
                0x00000000401c3e21                cms_DigestAlgorithm_init_bio
                0x00000000401c3ef4                cms_DigestAlgorithm_find_ctx
                0x00000000401c3fd4                CMS_add0_CertificateChoices
                0x00000000401c4045                CMS_add0_cert
                0x00000000401c40ee                CMS_add1_cert
                0x00000000401c4137                CMS_add0_RevocationInfoChoice
                0x00000000401c41a8                CMS_add0_crl
                0x00000000401c41d9                CMS_add1_crl
                0x00000000401c4222                CMS_get1_certs
                0x00000000401c42df                CMS_get1_crls
                0x00000000401c44d0                cms_EncryptedContent_init_bio
                0x00000000401c48b6                cms_EncryptedContent_init
                0x00000000401c4942                CMS_EncryptedData_set1_key
                0x00000000401c4a4c                cms_EncryptedData_init_bio
                0x00000000401c4a78                AES_wrap_key
                0x00000000401c4baf                AES_unwrap_key
                0x00000000401c4d10                cms_DigestedData_create
                0x00000000401c4da7                cms_DigestedData_init_bio
                0x00000000401c4dba                cms_DigestedData_do_final
                0x00000000401c4ed8                CMS_stream
                0x00000000401c4f54                d2i_CMS_bio
                0x00000000401c4f6a                i2d_CMS_bio
                0x00000000401c4f80                PEM_read_bio_CMS
                0x00000000401c4fa1                PEM_write_bio_CMS
                0x00000000401c4fe5                BIO_new_CMS
                0x00000000401c4ff5                i2d_CMS_bio_stream
                0x00000000401c5006                PEM_write_bio_CMS_stream
                0x00000000401c501d                SMIME_write_CMS
                0x00000000401c50ad                SMIME_read_CMS
                0x00000000401c59eb                SMIME_read_ASN1
                0x00000000401c5e10                SMIME_crlf_copy
                0x00000000401c5f3b                i2d_ASN1_bio_stream
                0x00000000401c60d3                SMIME_write_ASN1
                0x00000000401c6760                PEM_write_bio_ASN1_stream
                0x00000000401c67e7                SMIME_text
                0x00000000401c6b35                BIO_new_NDEF
                0x00000000401c7351                BIO_f_asn1
                0x00000000401c735c                BIO_asn1_set_prefix
                0x00000000401c7372                BIO_asn1_get_prefix
                0x00000000401c7388                BIO_asn1_set_suffix
                0x00000000401c739e                BIO_asn1_get_suffix
                0x00000000401c73c0                chelp_snprintf
                0x00000000401c73fd                chelp_sprintf
                0x00000000401c7444                chelp_print
                0x00000000401c745c                chelp_printf
                0x00000000401c74c4                chelp_mod_64_32_32
                0x00000000401c74d9                chelp_div_64_32_64
                0x00000000401c74ec                chelp_div_64_32_32
                0x00000000401c74f7                chelp_mul_64_64_64
                0x00000000401c7504                BIO_printf
                0x00000000401c7541                BIO_snprintf
                0x00000000401c7577                chelp_abort
                0x00000000401c758a                RAND_poll
                0x00000000401c75a9                InitCryptoLibrary
                0x00000000401c7620                chelp_malloc
                0x00000000401c7637                chelp_realloc
                0x00000000401c765a                chelp_free
                0x00000000401c766a                chelp_swap
                0x00000000401c769e                chelp_qsort
                0x00000000401c79b2                chelp_bsearch
                0x00000000401c7a81                chelp_memchr
                0x00000000401c7aba                chelp_memmove
                0x00000000401c7b39                chelp_memcmp
                0x00000000401c7ba8                chelp_memcpy
                0x00000000401c7bd4                chelp_memset
                0x00000000401c7c00                chelp_isupper
                0x00000000401c7c13                chelp_islower
                0x00000000401c7c26                chelp_toupper
                0x00000000401c7c32                chelp_tolower
                0x00000000401c7c3e                chelp_isspace
                0x00000000401c7c5a                chelp_isdigit
                0x00000000401c7c6d                chelp_isxdigit
                0x00000000401c7c95                chelp_isalpha
                0x00000000401c7cb2                chelp_isalnum
                0x00000000401c7cdb                chelp_strtoul_ex
                0x00000000401c7eac                chelp_strtoul
                0x00000000401c7ebc                chelp_strtol
                0x00000000401c7ecc                chelp_strcpy
                0x00000000401c7efa                chelp_strncpy
                0x00000000401c7f67                chelp_strcat
                0x00000000401c7fa8                chelp_strcmp
                0x00000000401c8008                chelp_strncmp
                0x00000000401c818a                chelp_stricmp
                0x00000000401c81c9                chelp_strchr
                0x00000000401c8201                chelp_strrchr
                0x00000000401c8235                chelp_strlen
                0x00000000401c825c                chelp_strncasecmp
                0x00000000401c82b0                decryptcfg
                0x00000000401c8338                ASN1_BIT_STRING_set
                0x00000000401c8343                i2c_ASN1_BIT_STRING
                0x00000000401c8450                c2i_ASN1_BIT_STRING
                0x00000000401c85c9                ASN1_BIT_STRING_set_bit
                0x00000000401c8728                ASN1_BIT_STRING_get_bit
                0x00000000401c8770                ASN1_BIT_STRING_check
                0x00000000401c87d0                d2i_ASN1_type_bytes
                0x00000000401c8975                i2d_ASN1_bytes
                0x00000000401c8a2c                d2i_ASN1_bytes
                0x00000000401c907b                ASN1_d2i_bio
                0x00000000401c90ed                ASN1_item_d2i_bio
                0x00000000401c9164                ASN1_digest
                0x00000000401c922b                ASN1_item_digest
                0x00000000401c92a8                ASN1_dup
                0x00000000401c9363                ASN1_item_dup
                0x00000000401c93ec                ASN1_ENUMERATED_set
                0x00000000401c9501                ASN1_ENUMERATED_get
                0x00000000401c9579                BN_to_ASN1_ENUMERATED
                0x00000000401c9680                ASN1_ENUMERATED_to_BN
                0x00000000401c96f0                ASN1_GENERALIZEDTIME_check
                0x00000000401c9962                ASN1_GENERALIZEDTIME_set_string
                0x00000000401c99df                ASN1_GENERALIZEDTIME_adj
                0x00000000401c9b3b                ASN1_GENERALIZEDTIME_set
                0x00000000401c9b50                ASN1_i2d_bio
                0x00000000401c9c0e                ASN1_item_i2d_bio
                0x00000000401c9cb0                ASN1_INTEGER_dup
                0x00000000401c9cbb                ASN1_INTEGER_cmp
                0x00000000401c9cfb                i2c_ASN1_INTEGER
                0x00000000401c9e73                c2i_ASN1_INTEGER
                0x00000000401ca06f                d2i_ASN1_UINTEGER
                0x00000000401ca1de                ASN1_INTEGER_set
                0x00000000401ca2f3                ASN1_INTEGER_get
                0x00000000401ca36d                BN_to_ASN1_INTEGER
                0x00000000401ca485                ASN1_INTEGER_to_BN
                0x00000000401ca500                i2d_ASN1_OBJECT
                0x00000000401ca597                a2d_ASN1_OBJECT
                0x00000000401caa9e                i2t_ASN1_OBJECT
                0x00000000401caaae                i2a_ASN1_OBJECT
                0x00000000401cab94                ASN1_OBJECT_new
                0x00000000401cac10                ASN1_OBJECT_free
                0x00000000401cac89                c2i_ASN1_OBJECT
                0x00000000401cae34                d2i_ASN1_OBJECT
                0x00000000401caec0                ASN1_OBJECT_create
                0x00000000401caeec                ASN1_OCTET_STRING_dup
                0x00000000401caef7                ASN1_OCTET_STRING_cmp
                0x00000000401caf02                ASN1_OCTET_STRING_set
                0x00000000401caf10                ASN1_sign
                0x00000000401cb1ae                ASN1_item_sign
                0x00000000401cbbc2                X509_NAME_print_ex
                0x00000000401cc0a2                ASN1_STRING_print_ex
                0x00000000401cc0b8                ASN1_STRING_to_UTF8
                0x00000000401cc12c                d2i_ASN1_TIME
                0x00000000401cc13c                i2d_ASN1_TIME
                0x00000000401cc14c                ASN1_TIME_new
                0x00000000401cc15c                ASN1_TIME_free
                0x00000000401cc16c                ASN1_TIME_adj
                0x00000000401cc22f                ASN1_TIME_set
                0x00000000401cc244                ASN1_TIME_check
                0x00000000401cc268                ASN1_TIME_to_generalizedtime
                0x00000000401cc35b                ASN1_TIME_set_string
                0x00000000401cc3dc                ASN1_TYPE_get
                0x00000000401cc3f5                ASN1_TYPE_set
                0x00000000401cc456                ASN1_TYPE_set1
                0x00000000401cc4e2                ASN1_TYPE_cmp
                0x00000000401cc530                ASN1_UTCTIME_check
                0x00000000401cc754                ASN1_UTCTIME_set_string
                0x00000000401cc7d1                ASN1_UTCTIME_adj
                0x00000000401cc959                ASN1_UTCTIME_set
                0x00000000401cc96e                ASN1_UTCTIME_cmp_time_t
                0x00000000401ccae0                UTF8_getc
                0x00000000401cce6f                UTF8_putc
                0x00000000401cd098                ASN1_verify
                0x00000000401cd207                ASN1_item_verify
                0x00000000401cd400                AES_cbc_encrypt
                0x00000000401cd424                AES_cfb128_encrypt
                0x00000000401cd442                AES_cfb1_encrypt
                0x00000000401cd460                AES_cfb8_encrypt
                0x00000000401cd480                AES_ecb_encrypt
                0x00000000401cd498                AES_ofb128_encrypt
                0x00000000401cd4b0                ERR_load_ASN1_strings
                0x00000000401cd51f                ASN1_check_infinite_end
                0x00000000401cd52a                ASN1_const_check_infinite_end
                0x00000000401cd58e                ASN1_get_object
                0x00000000401cd750                ASN1_put_object
                0x00000000401cd852                ASN1_put_eoc
                0x00000000401cd86e                ASN1_object_size
                0x00000000401cd8aa                asn1_Finish
                0x00000000401cd8b5                asn1_const_Finish
                0x00000000401cd8c0                asn1_GetSequence
                0x00000000401cd96e                ASN1_STRING_set
                0x00000000401cda70                ASN1_STRING_copy
                0x00000000401cdac1                ASN1_STRING_set0
                0x00000000401cdb01                ASN1_STRING_type_new
                0x00000000401cdb78                ASN1_STRING_new
                0x00000000401cdb88                ASN1_STRING_free
                0x00000000401cdbbc                ASN1_STRING_dup
                0x00000000401cdc0f                ASN1_STRING_cmp
                0x00000000401cdc50                asn1_add_error
                0x00000000401cdcb8                ASN1_STRING_length
                0x00000000401cdcc0                ASN1_STRING_length_set
                0x00000000401cdcc8                ASN1_STRING_type
                0x00000000401cdcd1                ASN1_STRING_data
                0x00000000401cdce0                ASN1_tag2str
                0x00000000401ce8bf                ASN1_parse_dump
                0x00000000401ce8e8                ASN1_parse
                0x00000000401ce92a                BIO_dump_indent_cb
                0x00000000401ced3e                BIO_dump_cb
                0x00000000401ced4f                BIO_dump
                0x00000000401ced67                BIO_dump_indent
                0x00000000401cf73c                BIO_f_buffer
                0x00000000401cf750                BF_cfb64_encrypt
                0x00000000401cf938                BF_options
                0x00000000401cf943                BF_ecb_encrypt
                0x00000000401cf9f4                BF_encrypt
                0x00000000401cfdb5                BF_decrypt
                0x00000000401d0176                BF_cbc_encrypt
                0x00000000401d0708                BF_ofb64_encrypt
                0x00000000401d0898                BF_set_key
                0x00000000401d16c1                BIO_f_base64
                0x00000000401d1dc0                BIO_f_cipher
                0x00000000401d1dcb                BIO_set_cipher
                0x00000000401d1e80                ERR_load_BIO_strings
                0x00000000401d223a                BIO_f_md
                0x00000000401d2250                BN_uadd
                0x00000000401d2394                BN_usub
                0x00000000401d258e                BN_add
                0x00000000401d2639                BN_sub
                0x00000000401d274c                bn_mul_add_words
                0x00000000401d29b4                bn_mul_words
                0x00000000401d2c00                bn_sqr_words
                0x00000000401d2d53                bn_div_words
                0x00000000401d2ea3                bn_add_words
                0x00000000401d2f8f                bn_sub_words
                0x00000000401d3099                bn_mul_comba8
                0x00000000401d493e                bn_mul_comba4
                0x00000000401d4f5d                bn_sqr_comba8
                0x00000000401d5fa7                bn_sqr_comba4
                0x00000000401d63a0                BN_BLINDING_free
                0x00000000401d63f7                BN_BLINDING_new
                0x00000000401d64e2                BN_BLINDING_invert_ex
                0x00000000401d6545                BN_BLINDING_invert
                0x00000000401d655b                BN_BLINDING_get_thread_id
                0x00000000401d6565                BN_BLINDING_set_thread_id
                0x00000000401d656f                BN_BLINDING_thread_id
                0x00000000401d6579                BN_BLINDING_get_flags
                0x00000000401d6583                BN_BLINDING_set_flags
                0x00000000401d658d                BN_BLINDING_create_param
                0x00000000401d6721                BN_BLINDING_update
                0x00000000401d6813                BN_BLINDING_convert_ex
                0x00000000401d68ee                BN_BLINDING_convert
                0x00000000401d6904                BN_CTX_init
                0x00000000401d697f                BN_CTX_new
                0x00000000401d6a1f                BN_CTX_free
                0x00000000401d6a9f                BN_CTX_start
                0x00000000401d6b85                BN_CTX_end
                0x00000000401d6bfa                BN_CTX_get
                0x00000000401d6d60                BN_div
                0x00000000401d7884                ERR_load_BN_strings
                0x00000000401d799d                BN_exp
                0x00000000401d7b3d                BN_mod_exp_recp
                0x00000000401d7fc9                BN_mod_exp_mont_consttime
                0x00000000401d85fc                BN_mod_exp_mont
                0x00000000401d8bdb                BN_mod_exp_mont_word
                0x00000000401d901d                BN_mod_exp
                0x00000000401d9069                BN_mod_exp_simple
                0x00000000401d94e0                BN_gcd
                0x00000000401d96f6                BN_mod_inverse
                0x00000000401da170                BN_nnmod
                0x00000000401da1cc                BN_mod_add
                0x00000000401da21a                BN_mod_add_quick
                0x00000000401da26e                BN_mod_sub
                0x00000000401da2bc                BN_mod_sub_quick
                0x00000000401da304                BN_mod_mul
                0x00000000401da3bc                BN_mod_sqr
                0x00000000401da412                BN_mod_lshift1
                0x00000000401da460                BN_mod_lshift1_quick
                0x00000000401da4b4                BN_mod_lshift_quick
                0x00000000401da5af                BN_mod_lshift
                0x00000000401da9bc                BN_mod_mul_montgomery
                0x00000000401daa71                BN_from_montgomery
                0x00000000401daafb                BN_MONT_CTX_init
                0x00000000401dab44                BN_MONT_CTX_new
                0x00000000401dab82                BN_MONT_CTX_free
                0x00000000401dabc3                BN_MONT_CTX_set
                0x00000000401dadbd                BN_MONT_CTX_copy
                0x00000000401dae3d                BN_MONT_CTX_set_locked
                0x00000000401daf40                bn_sub_part_words
                0x00000000401db1d3                bn_add_part_words
                0x00000000401db591                bn_mul_normal
                0x00000000401db6f9                bn_mul_recursive
                0x00000000401dbb8b                bn_mul_high
                0x00000000401dc007                bn_mul_part_recursive
                0x00000000401dc4db                BN_mul
                0x00000000401dc82b                bn_mul_low_normal
                0x00000000401dc90d                bn_mul_low_recursive
                0x00000000401dcb47                BN_GENCB_call
                0x00000000401dcb95                BN_is_prime_fasttest_ex
                0x00000000401dd064                BN_is_prime_ex
                0x00000000401dd077                BN_generate_prime_ex
                0x00000000401dd5c8                BN_RECP_CTX_init
                0x00000000401dd5f7                BN_RECP_CTX_new
                0x00000000401dd635                BN_RECP_CTX_free
                0x00000000401dd669                BN_RECP_CTX_set
                0x00000000401dd6bf                BN_reciprocal
                0x00000000401dd758                BN_div_recp
                0x00000000401dda03                BN_mod_mul_reciprocal
                0x00000000401ddacc                BN_lshift1
                0x00000000401ddb8b                BN_rshift1
                0x00000000401ddc63                BN_lshift
                0x00000000401dddc3                BN_rshift
                0x00000000401ddf70                bn_sqr_normal
                0x00000000401de04c                bn_sqr_recursive
                0x00000000401de20a                BN_sqr
                0x00000000401de4f4                BIO_s_null
                0x00000000401de500                ERR_load_BUF_strings
                0x00000000401de540                CAST_cfb64_encrypt
                0x00000000401de728                CAST_ecb_encrypt
                0x00000000401de7d8                CAST_encrypt
                0x00000000401dec34                CAST_decrypt
                0x00000000401df0b6                CAST_cbc_encrypt
                0x00000000401df648                CAST_ofb64_encrypt
                0x00000000401df7d8                CAST_set_key
                0x00000000401e0270                DES_ede3_cfb64_encrypt
                0x00000000401e049b                DES_ede3_cfb_encrypt
                0x00000000401e0ca0                DES_cfb64_encrypt
                0x00000000401e0ec0                DES_cfb_encrypt
                0x00000000401e14ec                ERR_load_COMP_strings
                0x00000000401e1524                ERR_load_CONF_strings
                0x00000000401e155c                ERR_load_CRYPTO_strings
                0x00000000401e15a0                d2i_PrivateKey
                0x00000000401e1701                d2i_AutoPrivateKey
                0x00000000401e186e                d2i_DHparams
                0x00000000401e187e                i2d_DHparams
                0x00000000401e188e                DHparams_dup
                0x00000000401e18b0                DH_check
                0x00000000401e19e9                DH_check_pub_key
                0x00000000401e1a94                ERR_load_DH_strings
                0x00000000401e1ad0                DH_generate_parameters_ex
                0x00000000401e1cd8                EVP_MD_CTX_init
                0x00000000401e1ced                EVP_MD_CTX_create
                0x00000000401e1d24                EVP_DigestInit_ex
                0x00000000401e1e03                EVP_DigestInit
                0x00000000401e1e38                EVP_DigestUpdate
                0x00000000401e1e44                EVP_DigestFinal_ex
                0x00000000401e1edf                EVP_MD_CTX_cleanup
                0x00000000401e1f7c                EVP_MD_CTX_destroy
                0x00000000401e1f9c                EVP_Digest
                0x00000000401e2046                EVP_MD_CTX_copy_ex
                0x00000000401e2183                EVP_MD_CTX_copy
                0x00000000401e21b3                EVP_DigestFinal
                0x00000000401e229e                d2i_DSA_SIG
                0x00000000401e22ae                i2d_DSA_SIG
                0x00000000401e22be                DSA_SIG_new
                0x00000000401e22ce                DSA_SIG_free
                0x00000000401e22de                d2i_DSAPrivateKey
                0x00000000401e22ee                i2d_DSAPrivateKey
                0x00000000401e22fe                d2i_DSAparams
                0x00000000401e230e                i2d_DSAparams
                0x00000000401e231e                d2i_DSAPublicKey
                0x00000000401e232e                i2d_DSAPublicKey
                0x00000000401e233e                DSAparams_dup
                0x00000000401e2354                ERR_load_DSA_strings
                0x00000000401e2390                dsa_builtin_paramgen
                0x00000000401e2c85                DSA_generate_parameters_ex
                0x00000000401e2d30                DSA_generate_key
                0x00000000401e2e98                DSA_set_default_method
                0x00000000401e2ea5                DSA_get_default_method
                0x00000000401e2ec8                DSA_set_method
                0x00000000401e2f0f                DSA_new_method
                0x00000000401e3010                DSA_new
                0x00000000401e3020                DSA_free
                0x00000000401e30ef                DSA_up_ref
                0x00000000401e311c                DSA_size
                0x00000000401e3171                DSA_get_ex_new_index
                0x00000000401e3190                DSA_set_ex_data
                0x00000000401e319f                DSA_get_ex_data
                0x00000000401e31ae                DSA_dup_DH
                0x00000000401e3b4c                DSA_OpenSSL
                0x00000000401e3b58                DSA_do_sign
                0x00000000401e3b65                DSA_sign
                0x00000000401e3be9                DSA_sign_setup
                0x00000000401e3bf8                DSA_do_verify
                0x00000000401e3c05                DSA_verify
                0x00000000401e3c90                ERR_load_DSO_strings
                0x00000000401e45e1                EC_GROUP_get_basis_type
                0x00000000401e4646                EC_GROUP_get_trinomial_basis
                0x00000000401e46cf                EC_GROUP_get_pentanomial_basis
                0x00000000401e47a6                X9_62_PENTANOMIAL_new
                0x00000000401e47b6                X9_62_PENTANOMIAL_free
                0x00000000401e47c6                X9_62_CHARACTERISTIC_TWO_new
                0x00000000401e47d6                X9_62_CHARACTERISTIC_TWO_free
                0x00000000401e47e6                ECPARAMETERS_new
                0x00000000401e47f6                ECPARAMETERS_free
                0x00000000401e4806                d2i_ECPKPARAMETERS
                0x00000000401e4816                i2d_ECPKPARAMETERS
                0x00000000401e4826                ECPKPARAMETERS_new
                0x00000000401e4836                ECPKPARAMETERS_free
                0x00000000401e543e                d2i_EC_PRIVATEKEY
                0x00000000401e544e                i2d_EC_PRIVATEKEY
                0x00000000401e545e                EC_PRIVATEKEY_new
                0x00000000401e546e                EC_PRIVATEKEY_free
                0x00000000401e547e                d2i_ECPKParameters
                0x00000000401e553b                i2d_ECPKParameters
                0x00000000401e55c9                d2i_ECPrivateKey
                0x00000000401e5846                i2d_ECPrivateKey
                0x00000000401e5bd6                i2d_ECParameters
                0x00000000401e5c0e                d2i_ECParameters
                0x00000000401e5cf4                o2i_ECPublicKey
                0x00000000401e5dee                i2o_ECPublicKey
                0x00000000401e5f38                EC_GROUP_new_by_curve_name
                0x00000000401e644c                EC_get_builtin_curves
                0x00000000401e64a0                EC_GROUP_new_curve_GFp
                0x00000000401e6588                EC_GROUP_new_curve_GF2m
                0x00000000401e6604                ERR_load_EC_strings
                0x00000000401e6640                EC_KEY_new
                0x00000000401e66cb                EC_KEY_free
                0x00000000401e674d                EC_KEY_new_by_curve_name
                0x00000000401e6798                EC_KEY_copy
                0x00000000401e6953                EC_KEY_dup
                0x00000000401e699d                EC_KEY_up_ref
                0x00000000401e69ca                EC_KEY_generate_key
                0x00000000401e6ba9                EC_KEY_check_key
                0x00000000401e6e59                EC_KEY_get0_group
                0x00000000401e6e63                EC_KEY_set_group
                0x00000000401e6ea6                EC_KEY_get0_private_key
                0x00000000401e6eb0                EC_KEY_set_private_key
                0x00000000401e6ef3                EC_KEY_get0_public_key
                0x00000000401e6efd                EC_KEY_set_public_key
                0x00000000401e6f44                EC_KEY_get_enc_flags
                0x00000000401e6f4d                EC_KEY_set_enc_flags
                0x00000000401e6f56                EC_KEY_get_conv_form
                0x00000000401e6f5f                EC_KEY_set_conv_form
                0x00000000401e6f76                EC_KEY_get_key_method_data
                0x00000000401e6f85                EC_KEY_insert_key_method_data
                0x00000000401e7024                EC_KEY_set_asn1_flag
                0x00000000401e7038                EC_KEY_precompute_mult
                0x00000000401e7060                EC_GROUP_new
                0x00000000401e7170                EC_GROUP_method_of
                0x00000000401e7179                EC_METHOD_get_field_type
                0x00000000401e7181                EC_GROUP_get0_generator
                0x00000000401e718b                EC_GROUP_get_order
                0x00000000401e71c0                EC_GROUP_get_cofactor
                0x00000000401e71f5                EC_GROUP_set_curve_name
                0x00000000401e71fe                EC_GROUP_get_curve_name
                0x00000000401e7207                EC_GROUP_set_asn1_flag
                0x00000000401e7210                EC_GROUP_get_asn1_flag
                0x00000000401e7219                EC_GROUP_set_point_conversion_form
                0x00000000401e7222                EC_GROUP_get_point_conversion_form
                0x00000000401e722b                EC_GROUP_set_seed
                0x00000000401e72be                EC_GROUP_get0_seed
                0x00000000401e72c8                EC_GROUP_get_seed_len
                0x00000000401e72d2                EC_GROUP_set_curve_GFp
                0x00000000401e7311                EC_GROUP_get_curve_GFp
                0x00000000401e734b                EC_GROUP_set_curve_GF2m
                0x00000000401e7385                EC_GROUP_get_curve_GF2m
                0x00000000401e73c1                EC_GROUP_get_degree
                0x00000000401e73fb                EC_GROUP_check_discriminant
                0x00000000401e7435                EC_EX_DATA_set_data
                0x00000000401e7505                EC_EX_DATA_get_data
                0x00000000401e753a                EC_EX_DATA_free_data
                0x00000000401e7589                EC_EX_DATA_clear_free_data
                0x00000000401e75d8                EC_EX_DATA_free_all_data
                0x00000000401e7624                EC_EX_DATA_clear_free_all_data
                0x00000000401e7670                EC_POINT_new
                0x00000000401e773e                EC_POINT_free
                0x00000000401e776c                EC_GROUP_free
                0x00000000401e77d1                EC_POINT_clear_free
                0x00000000401e7819                EC_GROUP_clear_free
                0x00000000401e78a5                EC_POINT_copy
                0x00000000401e7911                EC_GROUP_set_generator
                0x00000000401e7a00                EC_GROUP_copy
                0x00000000401e7c2a                EC_GROUP_dup
                0x00000000401e7c80                EC_POINT_dup
                0x00000000401e7cd6                EC_POINT_method_of
                0x00000000401e7cdf                EC_POINT_set_to_infinity
                0x00000000401e7d44                EC_POINT_set_Jprojective_coordinates_GFp
                0x00000000401e7da9                EC_POINT_get_Jprojective_coordinates_GFp
                0x00000000401e7e11                EC_POINT_set_affine_coordinates_GFp
                0x00000000401e7e79                EC_POINT_set_affine_coordinates_GF2m
                0x00000000401e7ee1                EC_POINT_get_affine_coordinates_GFp
                0x00000000401e7f49                EC_POINT_get_affine_coordinates_GF2m
                0x00000000401e7fb1                EC_POINT_set_compressed_coordinates_GFp
                0x00000000401e8019                EC_POINT_set_compressed_coordinates_GF2m
                0x00000000401e8081                EC_POINT_point2oct
                0x00000000401e80e9                EC_POINT_oct2point
                0x00000000401e8151                EC_POINT_add
                0x00000000401e81c3                EC_POINT_dbl
                0x00000000401e8231                EC_POINT_invert
                0x00000000401e829b                EC_POINT_is_at_infinity
                0x00000000401e8303                EC_POINT_is_on_curve
                0x00000000401e836b                EC_POINT_cmp
                0x00000000401e83d8                EC_GROUP_cmp
                0x00000000401e865d                EC_POINT_make_affine
                0x00000000401e86c5                EC_POINTs_make_affine
                0x00000000401e8751                EC_POINTs_mul
                0x00000000401e8781                EC_POINT_mul
                0x00000000401e87b9                EC_GROUP_precompute_mult
                0x00000000401e87e6                EC_GROUP_have_precompute_mult
                0x00000000401e8c1e                ec_wNAF_mul
                0x00000000401e9aff                ec_wNAF_precompute_mult
                0x00000000401ea150                ec_wNAF_have_precompute_mult
                0x00000000401ea180                EC_POINT_point2bn
                0x00000000401ea246                EC_POINT_bn2point
                0x00000000401ea33f                EC_POINT_point2hex
                0x00000000401ea448                EC_POINT_hex2point
                0x00000000401ea4b8                ERR_load_ECDH_strings
                0x00000000401ea4f0                ECDH_compute_key
                0x00000000401ea595                ECDH_set_default_method
                0x00000000401ea5a2                ECDH_get_default_method
                0x00000000401ea659                ecdh_check
                0x00000000401ea6b9                ECDH_set_method
                0x00000000401ea6e3                ECDH_get_ex_new_index
                0x00000000401ea702                ECDH_set_ex_data
                0x00000000401ea743                ECDH_get_ex_data
                0x00000000401eab31                ECDH_OpenSSL
                0x00000000401eab3c                ec_GFp_mont_field_set_to_one
                0x00000000401eab86                ec_GFp_mont_field_decode
                0x00000000401eabc9                ec_GFp_mont_field_encode
                0x00000000401eac16                ec_GFp_mont_field_sqr
                0x00000000401eac5f                ec_GFp_mont_field_mul
                0x00000000401eaca8                ec_GFp_mont_group_set_curve
                0x00000000401eae50                ec_GFp_mont_group_copy
                0x00000000401eaf38                ec_GFp_mont_group_clear_finish
                0x00000000401eaf8b                ec_GFp_mont_group_finish
                0x00000000401eafde                ec_GFp_mont_group_init
                0x00000000401eb00c                EC_GFp_mont_method
                0x00000000401eb020                ec_GFp_nist_field_sqr
                0x00000000401eb0fb                ec_GFp_nist_field_mul
                0x00000000401eb1e4                ec_GFp_nist_group_set_curve
                0x00000000401eb36e                ec_GFp_nist_group_copy
                0x00000000401eb387                EC_GFp_nist_method
                0x00000000401eb3a0                ec_GFp_simple_is_at_infinity
                0x00000000401eb3b0                ec_GFp_simple_field_sqr
                0x00000000401eb3c8                ec_GFp_simple_field_mul
                0x00000000401eb3e3                ec_GFp_simple_point_copy
                0x00000000401eb448                ec_GFp_simple_group_copy
                0x00000000401eb4bf                ec_GFp_simple_point_set_to_infinity
                0x00000000401eb4df                ec_GFp_simple_get_Jprojective_coordinates_GFp
                0x00000000401eb666                ec_GFp_simple_group_get_curve
                0x00000000401eb7d5                ec_GFp_simple_point_clear_finish
                0x00000000401eb80a                ec_GFp_simple_group_clear_finish
                0x00000000401eb83e                ec_GFp_simple_points_make_affine
                0x00000000401ebdae                ec_GFp_simple_point_get_affine_coordinates
                0x00000000401ec0ed                ec_GFp_simple_make_affine
                0x00000000401ec204                ec_GFp_simple_cmp
                0x00000000401ec4b7                ec_GFp_simple_is_on_curve
                0x00000000401ec7bf                ec_GFp_simple_invert
                0x00000000401ec808                ec_GFp_simple_dbl
                0x00000000401eccb4                ec_GFp_simple_add
                0x00000000401ed2bb                ec_GFp_simple_group_get_degree
                0x00000000401ed2ca                ec_GFp_simple_oct2point
                0x00000000401ed657                ec_GFp_simple_point2oct
                0x00000000401ed9d6                ec_GFp_simple_set_Jprojective_coordinates_GFp
                0x00000000401edbbc                ec_GFp_simple_set_compressed_coordinates
                0x00000000401ee048                ec_GFp_simple_point_set_affine_coordinates
                0x00000000401ee0d5                ec_GFp_simple_point_finish
                0x00000000401ee103                ec_GFp_simple_group_finish
                0x00000000401ee137                ec_GFp_simple_point_init
                0x00000000401ee171                ec_GFp_simple_group_init
                0x00000000401ee1b4                ec_GFp_simple_group_check_discriminant
                0x00000000401ee3e5                ec_GFp_simple_group_set_curve
                0x00000000401ee5dd                EC_GFp_simple_method
                0x00000000401ee5e8                ERR_load_ECDSA_strings
                0x00000000401ee659                ECDSA_set_default_method
                0x00000000401ee666                ECDSA_get_default_method
                0x00000000401ee71d                ecdsa_check
                0x00000000401ee77d                ECDSA_set_method
                0x00000000401ee7a7                ECDSA_size
                0x00000000401ee869                ECDSA_get_ex_new_index
                0x00000000401ee888                ECDSA_set_ex_data
                0x00000000401ee8c9                ECDSA_get_ex_data
                0x00000000401ef5fb                ECDSA_OpenSSL
                0x00000000401ef608                ECDSA_do_sign_ex
                0x00000000401ef674                ECDSA_do_sign
                0x00000000401ef68c                ECDSA_sign_ex
                0x00000000401ef718                ECDSA_sign
                0x00000000401ef73a                ECDSA_sign_setup
                0x00000000401ef798                ECDSA_do_verify
                0x00000000401ef7f6                ECDSA_verify
                0x00000000401ef880                EVP_EncodeInit
                0x00000000401ef89a                EVP_EncodeBlock
                0x00000000401ef9d5                EVP_EncodeFinal
                0x00000000401efa32                EVP_EncodeUpdate
                0x00000000401efb62                EVP_DecodeInit
                0x00000000401efb83                EVP_DecodeBlock
                0x00000000401efce5                EVP_DecodeUpdate
                0x00000000401effbf                EVP_DecodeFinal
                0x00000000401f0020                EVP_set_pw_prompt
                0x00000000401f004d                EVP_get_pw_prompt
                0x00000000401f0068                EVP_read_pw_string_min
                0x00000000401f0142                EVP_read_pw_string
                0x00000000401f015a                EVP_BytesToKey
                0x00000000401f0425                EVP_PBE_alg_add_type
                0x00000000401f04e5                EVP_PBE_alg_add
                0x00000000401f0555                EVP_PBE_find
                0x00000000401f061c                EVP_PBE_CipherInit
                0x00000000401f07f6                EVP_PBE_cleanup
                0x00000000401f0820                EVP_PKCS82PKEY
                0x00000000401f095b                EVP_PKEY2PKCS8_broken
                0x00000000401f0a63                EVP_PKEY2PKCS8
                0x00000000401f0a73                PKCS8_set_broken
                0x00000000401f0ac5                EVP_PKEY_get_attr_count
                0x00000000401f0ad4                EVP_PKEY_get_attr_by_NID
                0x00000000401f0ae3                EVP_PKEY_get_attr_by_OBJ
                0x00000000401f0af2                EVP_PKEY_get_attr
                0x00000000401f0b01                EVP_PKEY_delete_attr
                0x00000000401f0b10                EVP_PKEY_add1_attr
                0x00000000401f0b28                EVP_PKEY_add1_attr_by_OBJ
                0x00000000401f0b40                EVP_PKEY_add1_attr_by_NID
                0x00000000401f0b58                EVP_PKEY_add1_attr_by_txt
                0x00000000401f0b70                HMAC_Init_ex
                0x00000000401f0da4                HMAC_Update
                0x00000000401f0db3                HMAC_Final
                0x00000000401f0e48                HMAC_CTX_init
                0x00000000401f0e76                HMAC_Init
                0x00000000401f0ed2                HMAC_CTX_copy
                0x00000000401f0f68                HMAC_CTX_cleanup
                0x00000000401f0fa8                HMAC
                0x00000000401f1079                HMAC_CTX_set_flags
                0x00000000401f10c0                i2d_PrivateKey
                0x00000000401f1ab0                RAND_SSLeay
                0x00000000401f1ae4                d2i_NETSCAPE_CERT_SEQUENCE
                0x00000000401f1af4                i2d_NETSCAPE_CERT_SEQUENCE
                0x00000000401f1b04                NETSCAPE_CERT_SEQUENCE_new
                0x00000000401f1b14                NETSCAPE_CERT_SEQUENCE_free
                0x00000000401f1b24                OPENSSL_gmtime
                0x00000000401f1b2f                OPENSSL_gmtime_adj
                0x00000000401f1dd8                PKCS12_PBE_add
                0x00000000401f1dde                PKCS12_PBE_keyivgen
                0x00000000401f1fec                PKCS12_key_gen_uni
                0x00000000401f2509                PKCS12_key_gen_asc
                0x00000000401f25e8                PKCS8_decrypt
                0x00000000401f260c                OPENSSL_asc2uni
                0x00000000401f269b                OPENSSL_uni2asc
                0x00000000401f271c                i2d_PKCS12_bio
                0x00000000401f2732                d2i_PKCS12_bio
                0x00000000401f2748                PKCS12_x5092certbag
                0x00000000401f2762                PKCS12_x509crl2certbag
                0x00000000401f277c                PKCS12_certbag2x509
                0x00000000401f27d3                PKCS12_certbag2x509crl
                0x00000000401f282c                PKCS5_PBE_add
                0x00000000401f2832                PKCS5_PBE_keyivgen
                0x00000000401f2b14                PKCS5_PBKDF2_HMAC
                0x00000000401f2d34                PKCS5_PBKDF2_HMAC_SHA1
                0x00000000401f2da2                PKCS5_v2_PBE_keyivgen
                0x00000000401f31a4                d2i_PBEPARAM
                0x00000000401f31b4                i2d_PBEPARAM
                0x00000000401f31c4                PBEPARAM_new
                0x00000000401f31d4                PBEPARAM_free
                0x00000000401f31e4                PKCS5_pbe_set0_algor
                0x00000000401f339f                PKCS5_pbe_set
                0x00000000401f3434                d2i_PBE2PARAM
                0x00000000401f3444                i2d_PBE2PARAM
                0x00000000401f3454                PBE2PARAM_new
                0x00000000401f3464                PBE2PARAM_free
                0x00000000401f3474                d2i_PBKDF2PARAM
                0x00000000401f3484                i2d_PBKDF2PARAM
                0x00000000401f3494                PBKDF2PARAM_new
                0x00000000401f34a4                PBKDF2PARAM_free
                0x00000000401f34b4                PKCS5_pbe2_set_iv
                0x00000000401f39cd                PKCS5_pbe2_set
                0x00000000401f3a10                d2i_PKCS8_PRIV_KEY_INFO
                0x00000000401f3a20                i2d_PKCS8_PRIV_KEY_INFO
                0x00000000401f3a30                PKCS8_PRIV_KEY_INFO_new
                0x00000000401f3a40                PKCS8_PRIV_KEY_INFO_free
                0x00000000401f3a50                PKCS8_pkey_set0
                0x00000000401f3b1b                PKCS8_pkey_get0
                0x00000000401f3bb0                EVP_SignFinal
                0x00000000401f3d90                EVP_VerifyFinal
                0x00000000401f3f81                policy_cache_free
                0x00000000401f3fc1                policy_cache_set
                0x00000000401f4315                policy_cache_find_data
                0x00000000401f4350                policy_data_free
                0x00000000401f4395                policy_data_new
                0x00000000401f4494                policy_cache_set_mapping
                0x00000000401f46fe                X509_policy_tree_free
                0x00000000401f47aa                X509_policy_check
                0x00000000401f5218                d2i_PKCS8PrivateKey_bio
                0x00000000401f532c                PEM_read_bio_PKCS8
                0x00000000401f534d                PEM_write_bio_PKCS8
                0x00000000401f5391                PEM_read_bio_PKCS8_PRIV_KEY_INFO
                0x00000000401f53b2                PEM_write_bio_PKCS8_PRIV_KEY_INFO
                0x00000000401f55f8                i2d_PKCS8PrivateKey_nid_bio
                0x00000000401f5629                i2d_PKCS8PrivateKey_bio
                0x00000000401f565a                PEM_write_bio_PKCS8PrivateKey
                0x00000000401f568b                PEM_write_bio_PKCS8PrivateKey_nid
                0x00000000401f56bc                PKCS7_add_attrib_smimecap
                0x00000000401f573f                PKCS7_get_smimecap
                0x00000000401f578e                PKCS7_simple_smimecap
                0x00000000401f58d4                PKCS7_add_attrib_content_type
                0x00000000401f5933                PKCS7_add0_attrib_signing_time
                0x00000000401f5996                PKCS7_add1_attrib_digest
                0x00000000401f7312                RSA_PKCS1_SSLeay
                0x00000000401f7320                RSA_padding_add_none
                0x00000000401f738c                RSA_padding_check_none
                0x00000000401f7414                PKCS1_MGF1
                0x00000000401f7609                RSA_padding_check_PKCS1_OAEP
                0x00000000401f788d                RSA_padding_add_PKCS1_OAEP
                0x00000000401f7a90                RSA_padding_add_PKCS1_type_1
                0x00000000401f7b2b                RSA_padding_check_PKCS1_type_1
                0x00000000401f7c74                RSA_padding_add_PKCS1_type_2
                0x00000000401f7d35                RSA_padding_check_PKCS1_type_2
                0x00000000401f7e50                RSA_verify_PKCS1_PSS
                0x00000000401f8203                RSA_padding_add_PKCS1_PSS
                0x00000000401f84dc                RSA_padding_add_SSLv23
                0x00000000401f85b0                RSA_padding_check_SSLv23
                0x00000000401f8710                RSA_padding_add_X931
                0x00000000401f87c6                RSA_padding_check_X931
                0x00000000401f88e2                RSA_X931_hash_id
                0x00000000401f8924                ASN1_bn_print
                0x00000000401f8b20                X509_ocspid_print
                0x00000000401f8ca8                X509_signature_print
                0x00000000401f8daa                ASN1_STRING_print
                0x00000000401f8e63                ASN1_GENERALIZEDTIME_print
                0x00000000401f9118                ASN1_UTCTIME_print
                0x00000000401f9284                ASN1_TIME_print
                0x00000000401f92bd                X509_print_ex
                0x00000000401f9801                X509_print
                0x00000000401f9816                X509_NAME_print
                0x00000000401f990c                X509_CERT_AUX_print
                0x00000000401f9eac                UI_free
                0x00000000401f9eeb                UI_add_input_string
                0x00000000401f9f1c                UI_dup_input_string
                0x00000000401f9fc4                UI_add_verify_string
                0x00000000401f9ff5                UI_dup_verify_string
                0x00000000401fa09d                UI_add_input_boolean
                0x00000000401fa0c7                UI_dup_input_boolean
                0x00000000401fa26f                UI_add_info_string
                0x00000000401fa2ac                UI_dup_info_string
                0x00000000401fa333                UI_add_error_string
                0x00000000401fa370                UI_dup_error_string
                0x00000000401fa3f7                UI_construct_prompt
                0x00000000401fa527                UI_add_user_data
                0x00000000401fa535                UI_get0_user_data
                0x00000000401fa53f                UI_process
                0x00000000401fa674                UI_ctrl
                0x00000000401fa701                UI_get_ex_new_index
                0x00000000401fa720                UI_set_ex_data
                0x00000000401fa72f                UI_get_ex_data
                0x00000000401fa73e                UI_set_default_method
                0x00000000401fa74b                UI_get_default_method
                0x00000000401fa76e                UI_new_method
                0x00000000401fa7fd                UI_new
                0x00000000401fa80d                UI_get_method
                0x00000000401fa816                UI_set_method
                0x00000000401fa822                UI_create_method
                0x00000000401fa87b                UI_destroy_method
                0x00000000401fa8a5                UI_method_set_opener
                0x00000000401fa8c0                UI_method_set_writer
                0x00000000401fa8db                UI_method_set_flusher
                0x00000000401fa8f6                UI_method_set_reader
                0x00000000401fa911                UI_method_set_closer
                0x00000000401fa92c                UI_method_set_prompt_constructor
                0x00000000401fa947                UI_method_get_opener
                0x00000000401fa95d                UI_method_get_writer
                0x00000000401fa973                UI_method_get_flusher
                0x00000000401fa989                UI_method_get_reader
                0x00000000401fa99f                UI_method_get_closer
                0x00000000401fa9b5                UI_method_get_prompt_constructor
                0x00000000401fa9cb                UI_get_string_type
                0x00000000401fa9dd                UI_get_input_flags
                0x00000000401fa9f0                UI_get0_output_string
                0x00000000401faa06                UI_get0_action_string
                0x00000000401faa2f                UI_get0_result_string
                0x00000000401faa54                UI_get0_result
                0x00000000401faae6                UI_get0_test_string
                0x00000000401fab06                UI_get_result_minsize
                0x00000000401fab2a                UI_get_result_maxsize
                0x00000000401fab4e                UI_set_result
                0x00000000401fb044                UI_OpenSSL
                0x00000000401fb050                d2i_AUTHORITY_KEYID
                0x00000000401fb060                i2d_AUTHORITY_KEYID
                0x00000000401fb070                AUTHORITY_KEYID_new
                0x00000000401fb080                AUTHORITY_KEYID_free
                0x00000000401fb323                POLICYINFO_free
                0x00000000401fb333                d2i_CERTIFICATEPOLICIES
                0x00000000401fb343                i2d_CERTIFICATEPOLICIES
                0x00000000401fb353                CERTIFICATEPOLICIES_new
                0x00000000401fb363                CERTIFICATEPOLICIES_free
                0x00000000401fb373                d2i_POLICYINFO
                0x00000000401fb383                i2d_POLICYINFO
                0x00000000401fb393                POLICYINFO_new
                0x00000000401fb3a3                d2i_POLICYQUALINFO
                0x00000000401fb3b3                i2d_POLICYQUALINFO
                0x00000000401fb3c3                POLICYQUALINFO_new
                0x00000000401fb3d3                POLICYQUALINFO_free
                0x00000000401fb3e3                d2i_USERNOTICE
                0x00000000401fb3f3                i2d_USERNOTICE
                0x00000000401fb403                USERNOTICE_new
                0x00000000401fb413                USERNOTICE_free
                0x00000000401fb423                d2i_NOTICEREF
                0x00000000401fb433                i2d_NOTICEREF
                0x00000000401fb443                NOTICEREF_new
                0x00000000401fbd88                NOTICEREF_free
                0x00000000401fbd98                X509_POLICY_NODE_print
                0x00000000401fc3d0                DIST_POINT_free
                0x00000000401fc3e0                d2i_DIST_POINT_NAME
                0x00000000401fc3f0                i2d_DIST_POINT_NAME
                0x00000000401fc400                DIST_POINT_NAME_new
                0x00000000401fc61a                DIST_POINT_NAME_free
                0x00000000401fc62a                d2i_DIST_POINT
                0x00000000401fc63a                i2d_DIST_POINT
                0x00000000401fc64a                DIST_POINT_new
                0x00000000401fc8ed                d2i_CRL_DIST_POINTS
                0x00000000401fc8fd                i2d_CRL_DIST_POINTS
                0x00000000401fc90d                CRL_DIST_POINTS_new
                0x00000000401fc91d                CRL_DIST_POINTS_free
                0x00000000401fc92d                d2i_ISSUING_DIST_POINT
                0x00000000401fc93d                i2d_ISSUING_DIST_POINT
                0x00000000401fc94d                ISSUING_DIST_POINT_new
                0x00000000401fc95d                ISSUING_DIST_POINT_free
                0x00000000401fcb6a                DIST_POINT_set_dpname
                0x00000000401fcc58                i2d_GENERAL_NAME
                0x00000000401fcc68                d2i_GENERAL_NAME
                0x00000000401fcc78                d2i_OTHERNAME
                0x00000000401fcc88                i2d_OTHERNAME
                0x00000000401fcc98                OTHERNAME_new
                0x00000000401fcca8                OTHERNAME_free
                0x00000000401fccb8                d2i_EDIPARTYNAME
                0x00000000401fccc8                i2d_EDIPARTYNAME
                0x00000000401fccd8                EDIPARTYNAME_new
                0x00000000401fcce8                EDIPARTYNAME_free
                0x00000000401fccf8                GENERAL_NAME_new
                0x00000000401fcd08                GENERAL_NAME_free
                0x00000000401fcd18                d2i_GENERAL_NAMES
                0x00000000401fcd28                i2d_GENERAL_NAMES
                0x00000000401fcd38                GENERAL_NAMES_new
                0x00000000401fcd48                GENERAL_NAMES_free
                0x00000000401fcd58                GENERAL_NAME_dup
                0x00000000401fcd70                OTHERNAME_cmp
                0x00000000401fcdbe                GENERAL_NAME_cmp
                0x00000000401fce46                GENERAL_NAME_set0_value
                0x00000000401fce7e                GENERAL_NAME_get0_value
                0x00000000401fcec2                GENERAL_NAME_set0_othername
                0x00000000401fcf18                GENERAL_NAME_get0_otherName
                0x00000000401fd57e                GENERAL_SUBTREE_new
                0x00000000401fd58e                GENERAL_SUBTREE_free
                0x00000000401fd59e                NAME_CONSTRAINTS_new
                0x00000000401fd5ae                NAME_CONSTRAINTS_free
                0x00000000401fd74c                NAME_CONSTRAINTS_check
                0x00000000401fd87e                POLICY_CONSTRAINTS_new
                0x00000000401fd88e                POLICY_CONSTRAINTS_free
                0x00000000401fda93                POLICY_MAPPING_free
                0x00000000401fdaa3                POLICY_MAPPING_new
                0x00000000401fdd47                X509V3_EXT_val_prn
                0x00000000401fde6e                X509V3_EXT_print
                0x00000000401fe04a                X509V3_extensions_print
                0x00000000401fe551                X509_PURPOSE_get_count
                0x00000000401fe570                X509_PURPOSE_get0
                0x00000000401fe5a6                X509_PURPOSE_get_by_sname
                0x00000000401fe5e6                X509_PURPOSE_get_by_id
                0x00000000401fe626                X509_PURPOSE_set
                0x00000000401fe680                X509_PURPOSE_add
                0x00000000401fe849                X509_PURPOSE_cleanup
                0x00000000401fe898                X509_PURPOSE_get_id
                0x00000000401fe8a0                X509_PURPOSE_get0_name
                0x00000000401fe8aa                X509_PURPOSE_get0_sname
                0x00000000401fe8b4                X509_PURPOSE_get_trust
                0x00000000401fe8bd                X509_supported_extension
                0x00000000401fee2e                X509_check_purpose
                0x00000000401feec8                X509_check_ca
                0x00000000401fef23                X509_check_akid
                0x00000000401ff000                X509_check_issued
                0x00000000401ff1e0                X509V3_conf_free
                0x00000000401ff2d9                X509V3_add_value
                0x00000000401ff40a                X509V3_add_value_uchar
                0x00000000401ff415                X509V3_add_value_bool
                0x00000000401ff435                X509V3_add_value_bool_nf
                0x00000000401ff44e                i2s_ASN1_ENUMERATED
                0x00000000401ff4c8                i2s_ASN1_INTEGER
                0x00000000401ff542                s2i_ASN1_INTEGER
                0x00000000401ff67f                X509V3_add_value_int
                0x00000000401ff6e7                X509V3_get_value_bool
                0x00000000401ff85e                X509V3_get_value_int
                0x00000000401ff8cf                X509V3_parse_list
                0x00000000401ffb02                hex_to_string
                0x00000000401ffbc9                string_to_hex
                0x00000000401ffd86                name_cmp
                0x00000000401ffde5                X509_email_free
                0x00000000401fff51                X509_REQ_get1_email
                0x00000000401fffc7                X509_get1_email
                0x0000000040200021                X509_get1_ocsp
                0x00000000402000c0                a2i_ipadd
                0x0000000040200231                a2i_IPADDRESS_NC
                0x0000000040200321                a2i_IPADDRESS
                0x000000004020037d                X509V3_NAME_from_section
                0x0000000040200470                X509at_get_attr_count
                0x000000004020047b                X509at_get_attr_by_OBJ
                0x00000000402004e9                X509at_get_attr_by_NID
                0x0000000040200528                X509at_get_attr
                0x0000000040200573                X509at_delete_attr
                0x00000000402005be                X509at_add1_attr
                0x0000000040200699                X509_ATTRIBUTE_set1_object
                0x00000000402006e2                X509_ATTRIBUTE_set1_data
                0x000000004020086a                X509_ATTRIBUTE_create_by_OBJ
                0x000000004020093e                X509_ATTRIBUTE_create_by_txt
                0x00000000402009f6                X509at_add1_attr_by_txt
                0x0000000040200a4c                X509_ATTRIBUTE_create_by_NID
                0x0000000040200ae6                X509at_add1_attr_by_NID
                0x0000000040200b3c                X509at_add1_attr_by_OBJ
                0x0000000040200b92                X509_ATTRIBUTE_count
                0x0000000040200bb4                X509_ATTRIBUTE_get0_object
                0x0000000040200bc9                X509_ATTRIBUTE_get0_type
                0x0000000040200c20                X509_ATTRIBUTE_get0_data
                0x0000000040200c86                X509at_get0_data_by_OBJ
                0x0000000040200d34                X509_CRL_get_ext_count
                0x0000000040200d46                X509_CRL_get_ext_by_NID
                0x0000000040200d58                X509_CRL_get_ext_by_OBJ
                0x0000000040200d6a                X509_CRL_get_ext_by_critical
                0x0000000040200d7c                X509_CRL_get_ext
                0x0000000040200d8e                X509_CRL_delete_ext
                0x0000000040200da0                X509_CRL_get_ext_d2i
                0x0000000040200db2                X509_CRL_add1_ext_i2d
                0x0000000040200dc4                X509_CRL_add_ext
                0x0000000040200ddf                X509_get_ext_count
                0x0000000040200df1                X509_get_ext_by_NID
                0x0000000040200e03                X509_get_ext_by_OBJ
                0x0000000040200e15                X509_get_ext_by_critical
                0x0000000040200e27                X509_get_ext
                0x0000000040200e39                X509_delete_ext
                0x0000000040200e4b                X509_add_ext
                0x0000000040200e66                X509_get_ext_d2i
                0x0000000040200e78                X509_add1_ext_i2d
                0x0000000040200e8a                X509_REVOKED_get_ext_count
                0x0000000040200e99                X509_REVOKED_get_ext_by_NID
                0x0000000040200ea8                X509_REVOKED_get_ext_by_OBJ
                0x0000000040200eb7                X509_REVOKED_get_ext_by_critical
                0x0000000040200ec6                X509_REVOKED_get_ext
                0x0000000040200ed5                X509_REVOKED_delete_ext
                0x0000000040200ee4                X509_REVOKED_add_ext
                0x0000000040200efc                X509_REVOKED_get_ext_d2i
                0x0000000040200f0b                X509_REVOKED_add1_ext_i2d
                0x000000004020108e                X509_LOOKUP_new
                0x00000000402010fd                X509_LOOKUP_free
                0x0000000040201131                X509_LOOKUP_init
                0x0000000040201152                X509_LOOKUP_shutdown
                0x0000000040201173                X509_LOOKUP_ctrl
                0x000000004020119a                X509_LOOKUP_by_subject
                0x00000000402011c1                X509_LOOKUP_by_issuer_serial
                0x00000000402011e1                X509_LOOKUP_by_fingerprint
                0x0000000040201201                X509_LOOKUP_by_alias
                0x0000000040201221                X509_STORE_new
                0x0000000040201319                X509_STORE_free
                0x00000000402013a9                X509_STORE_add_lookup
                0x0000000040201431                X509_OBJECT_up_ref_count
                0x000000004020148b                X509_OBJECT_free_contents
                0x00000000402014b3                X509_OBJECT_idx_by_subject
                0x00000000402014c3                X509_OBJECT_retrieve_by_subject
                0x00000000402014ef                X509_STORE_get_by_subject
                0x0000000040201603                X509_STORE_get1_certs
                0x00000000402017d5                X509_STORE_get1_crls
                0x0000000040201998                X509_OBJECT_retrieve_match
                0x0000000040201a6b                X509_STORE_add_crl
                0x0000000040201b7f                X509_STORE_add_cert
                0x0000000040201c93                X509_STORE_CTX_get1_issuer
                0x0000000040201e59                X509_STORE_set_flags
                0x0000000040201e68                X509_STORE_set_depth
                0x0000000040201e7c                X509_STORE_set_purpose
                0x0000000040201e8b                X509_STORE_set_trust
                0x0000000040201e9a                X509_STORE_set1_param
                0x0000000040201ea9                X509_STORE_set_verify_cb
                0x0000000040201ec0                X509_to_X509_REQ
                0x0000000040201fcc                X509_REQ_get_pubkey
                0x0000000040201ff4                X509_REQ_check_private_key
                0x0000000040202129                X509_REQ_extension_nid
                0x0000000040202168                X509_REQ_get_extension_nids
                0x0000000040202175                X509_REQ_set_extension_nids
                0x0000000040202182                X509_REQ_add_extensions_nid
                0x00000000402022a5                X509_REQ_add_extensions
                0x00000000402022b5                X509_REQ_get_attr_count
                0x00000000402022c7                X509_REQ_get_attr_by_NID
                0x00000000402022d9                X509_REQ_get_attr_by_OBJ
                0x00000000402022eb                X509_REQ_get_attr
                0x00000000402022fd                X509_REQ_get_extensions
                0x00000000402023ff                X509_REQ_delete_attr
                0x0000000040202411                X509_REQ_add1_attr
                0x000000004020242c                X509_REQ_add1_attr_by_OBJ
                0x0000000040202447                X509_REQ_add1_attr_by_NID
                0x0000000040202462                X509_REQ_add1_attr_by_txt
                0x0000000040202605                X509_TRUST_set_default
                0x0000000040202619                X509_TRUST_get_count
                0x0000000040202638                X509_TRUST_get0
                0x000000004020266c                X509_TRUST_get_by_id
                0x00000000402026ac                X509_check_trust
                0x000000004020270f                X509_TRUST_set
                0x0000000040202769                X509_TRUST_add
                0x0000000040202915                X509_TRUST_cleanup
                0x0000000040202961                X509_TRUST_get_flags
                0x000000004020296a                X509_TRUST_get0_name
                0x0000000040202974                X509_TRUST_get_trust
                0x0000000040202980                X509v3_get_ext_count
                0x0000000040202995                X509v3_get_ext_by_OBJ
                0x0000000040202a03                X509v3_get_ext_by_NID
                0x0000000040202a42                X509v3_get_ext_by_critical
                0x0000000040202ab8                X509v3_get_ext
                0x0000000040202b03                X509v3_delete_ext
                0x0000000040202b4e                X509v3_add_ext
                0x0000000040202c53                X509_EXTENSION_set_object
                0x0000000040202c9c                X509_EXTENSION_set_critical
                0x0000000040202cbb                X509_EXTENSION_set_data
                0x0000000040202ce5                X509_EXTENSION_create_by_OBJ
                0x0000000040202dbf                X509_EXTENSION_create_by_NID
                0x0000000040202e4b                X509_EXTENSION_get_object
                0x0000000040202e60                X509_EXTENSION_get_data
                0x0000000040202e76                X509_EXTENSION_get_critical
                0x0000000040202e90                X509_NAME_entry_count
                0x0000000040202ea8                X509_NAME_get_index_by_OBJ
                0x0000000040202f1b                X509_NAME_get_index_by_NID
                0x0000000040202f5a                X509_NAME_get_entry
                0x0000000040202fa8                X509_NAME_delete_entry
                0x0000000040203074                X509_NAME_add_entry
                0x00000000402031e8                X509_NAME_ENTRY_set_object
                0x0000000040203254                X509_NAME_ENTRY_set_data
                0x0000000040203339                X509_NAME_ENTRY_create_by_OBJ
                0x00000000402033ec                X509_NAME_ENTRY_create_by_NID
                0x0000000040203482                X509_NAME_add_entry_by_NID
                0x00000000402034e9                X509_NAME_ENTRY_create_by_txt
                0x00000000402035a1                X509_NAME_add_entry_by_txt
                0x0000000040203608                X509_NAME_add_entry_by_OBJ
                0x000000004020366f                X509_NAME_ENTRY_get_object
                0x0000000040203684                X509_NAME_ENTRY_get_data
                0x000000004020369a                X509_NAME_get_text_by_OBJ
                0x000000004020371c                X509_NAME_get_text_by_NID
                0x000000004020376c                X509_REQ_set_version
                0x0000000040203788                X509_REQ_set_subject_name
                0x00000000402037a9                X509_REQ_set_pubkey
                0x00000000402037cc                d2i_X509_VAL
                0x00000000402037dc                i2d_X509_VAL
                0x00000000402037ec                X509_VAL_new
                0x00000000402037fc                X509_VAL_free
                0x0000000040203810                CRYPTO_cbc128_encrypt
                0x000000004020395b                CRYPTO_cbc128_decrypt
                0x0000000040203ca4                CRYPTO_cfb128_encrypt
                0x0000000040203f55                CRYPTO_cfb128_1_encrypt
                0x000000004020401f                CRYPTO_cfb128_8_encrypt
                0x000000004020408c                CRYPTO_ofb128_encrypt
                0x00000000402041b8                i2d_ASN1_BOOLEAN
                0x0000000040204232                d2i_ASN1_BOOLEAN
                0x0000000040204570                ASN1_mbstring_ncopy
                0x0000000040204a75                ASN1_mbstring_copy
                0x0000000040204aa0                ASN1_PRINTABLE_type
                0x0000000040204b61                ASN1_UNIVERSALSTRING_to_string
                0x0000000040204c4f                ASN1_STRING_set_default_mask
                0x0000000040204c5c                ASN1_STRING_get_default_mask
                0x0000000040204c69                ASN1_STRING_set_default_mask_asc
                0x0000000040204d2c                ASN1_STRING_TABLE_get
                0x0000000040204d92                ASN1_STRING_set_by_NID
                0x0000000040204e51                ASN1_STRING_TABLE_add
                0x0000000040204f86                ASN1_STRING_TABLE_cleanup
                0x0000000040204fb0                ASN1_seq_unpack
                0x0000000040205015                ASN1_seq_pack
                0x0000000040205113                ASN1_unpack_string
                0x0000000040205166                ASN1_pack_string
                0x0000000040205268                ASN1_item_pack
                0x0000000040205361                ASN1_item_unpack
                0x00000000402053b8                BN_mod_exp2_mont
                0x0000000040205c44                BN_kronecker
                0x0000000040205f6a                BN_get0_nist_prime_192
                0x0000000040205f75                BN_get0_nist_prime_224
                0x0000000040205f80                BN_get0_nist_prime_256
                0x0000000040205f8b                BN_get0_nist_prime_384
                0x0000000040205f96                BN_get0_nist_prime_521
                0x0000000040205fa1                BN_nist_mod_192
                0x000000004020620f                BN_nist_mod_224
                0x0000000040206555                BN_nist_mod_256
                0x00000000402069ed                BN_nist_mod_384
                0x0000000040206f8d                BN_nist_mod_521
                0x0000000040207170                BN_mod_sqrt
                0x0000000040207b1b                CONF_modules_load
                0x0000000040207f9c                CONF_modules_finish
                0x0000000040208016                CONF_modules_unload
                0x00000000402080cc                CONF_module_add
                0x00000000402080ee                CONF_modules_free
                0x0000000040208103                CONF_imodule_get_name
                0x000000004020810d                CONF_imodule_get_value
                0x0000000040208117                CONF_imodule_get_usr_data
                0x0000000040208121                CONF_imodule_set_usr_data
                0x000000004020812b                CONF_imodule_get_module
                0x0000000040208134                CONF_imodule_get_flags
                0x000000004020813e                CONF_imodule_set_flags
                0x0000000040208148                CONF_module_get_usr_data
                0x0000000040208152                CONF_module_set_usr_data
                0x000000004020815c                CONF_get1_default_config_file
                0x00000000402081d7                CONF_modules_load_file
                0x00000000402082b1                CONF_parse_list
                0x00000000402083c0                DSO_set_default_method
                0x00000000402083cd                DSO_get_default_method
                0x00000000402083da                DSO_get_method
                0x00000000402083e3                DSO_set_method
                0x00000000402083ef                DSO_new_method
                0x00000000402084e2                DSO_new
                0x00000000402084f2                DSO_free
                0x0000000040208608                DSO_flags
                0x000000004020861b                DSO_up_ref
                0x000000004020866d                DSO_bind_var
                0x000000004020870b                DSO_bind_func
                0x00000000402087a9                DSO_ctrl
                0x0000000040208841                DSO_set_name_converter
                0x0000000040208885                DSO_get_filename
                0x00000000402088b8                DSO_set_filename
                0x00000000402089b5                DSO_load
                0x0000000040208b64                DSO_merge
                0x0000000040208bc7                DSO_convert_filename
                0x0000000040208cd7                DSO_get_loaded_filename
                0x0000000040208d0a                DSO_pathbyaddr
                0x0000000040208d7e                DSO_global_lookup
                0x0000000040208dd8                DSO_METHOD_openssl
                0x0000000040208df0                ec_GF2m_simple_is_at_infinity
                0x0000000040208e00                ec_GF2m_simple_points_make_affine
                0x0000000040208e69                ec_GF2m_simple_field_div
                0x0000000040208e84                ec_GF2m_simple_field_sqr
                0x0000000040208e9f                ec_GF2m_simple_field_mul
                0x0000000040208ebd                ec_GF2m_simple_point_copy
                0x0000000040208f22                ec_GF2m_simple_group_get_curve
                0x0000000040208faa                ec_GF2m_simple_point_set_to_infinity
                0x0000000040208fca                ec_GF2m_simple_make_affine
                0x00000000402090de                ec_GF2m_simple_cmp
                0x000000004020927b                ec_GF2m_simple_is_on_curve
                0x0000000040209419                ec_GF2m_simple_invert
                0x0000000040209483                ec_GF2m_simple_add
                0x000000004020989a                ec_GF2m_simple_dbl
                0x00000000402098ab                ec_GF2m_simple_oct2point
                0x0000000040209c6b                ec_GF2m_simple_group_get_degree
                0x0000000040209c7d                ec_GF2m_simple_point2oct
                0x000000004020a02e                ec_GF2m_simple_group_check_discriminant
                0x000000004020a105                ec_GF2m_simple_set_compressed_coordinates
                0x000000004020a399                ec_GF2m_simple_point_get_affine_coordinates
                0x000000004020a48d                ec_GF2m_simple_point_set_affine_coordinates
                0x000000004020a56d                ec_GF2m_simple_point_clear_finish
                0x000000004020a5a2                ec_GF2m_simple_group_clear_finish
                0x000000004020a612                ec_GF2m_simple_point_finish
                0x000000004020a640                ec_GF2m_simple_group_finish
                0x000000004020a674                ec_GF2m_simple_point_init
                0x000000004020a6a7                ec_GF2m_simple_group_init
                0x000000004020a6e0                ec_GF2m_simple_group_set_curve
                0x000000004020a88e                ec_GF2m_simple_group_copy
                0x000000004020aa2d                EC_GF2m_simple_method
                0x000000004020aa38                d2i_ECDSA_SIG
                0x000000004020aa48                i2d_ECDSA_SIG
                0x000000004020aa58                ECDSA_SIG_new
                0x000000004020aa68                ECDSA_SIG_free
                0x000000004020aa8e                ERR_print_errors_cb
                0x000000004020ab7e                ERR_print_errors
                0x000000004020ab94                PKCS12_item_pack_safebag
                0x000000004020ac90                PKCS12_MAKE_KEYBAG
                0x000000004020acef                PKCS12_MAKE_SHKEYBAG
                0x000000004020ade0                PKCS12_pack_p7data
                0x000000004020aea4                PKCS12_unpack_p7data
                0x000000004020aef9                PKCS12_pack_p7encdata
                0x000000004020b09a                PKCS12_unpack_p7encdata
                0x000000004020b104                PKCS12_decrypt_skey
                0x000000004020b113                PKCS12_pack_authsafes
                0x000000004020b13a                PKCS12_unpack_authsafes
                0x000000004020b198                d2i_PKCS12
                0x000000004020b1a8                i2d_PKCS12
                0x000000004020b1b8                PKCS12_new
                0x000000004020b1c8                PKCS12_free
                0x000000004020b1d8                d2i_PKCS12_MAC_DATA
                0x000000004020b1e8                i2d_PKCS12_MAC_DATA
                0x000000004020b1f8                PKCS12_MAC_DATA_new
                0x000000004020b208                PKCS12_MAC_DATA_free
                0x000000004020b218                d2i_PKCS12_BAGS
                0x000000004020b228                i2d_PKCS12_BAGS
                0x000000004020b238                PKCS12_BAGS_new
                0x000000004020b248                PKCS12_BAGS_free
                0x000000004020b258                d2i_PKCS12_SAFEBAG
                0x000000004020b268                i2d_PKCS12_SAFEBAG
                0x000000004020b278                PKCS12_SAFEBAG_new
                0x000000004020b288                PKCS12_SAFEBAG_free
                0x000000004020b298                PKCS12_pbe_crypt
                0x000000004020b418                PKCS12_item_decrypt_d2i
                0x000000004020b4e4                PKCS12_item_i2d_encrypt
                0x000000004020b620                PKCS8_encrypt
                0x000000004020b758                X509_policy_tree_level_count
                0x000000004020b76b                X509_policy_tree_get0_level
                0x000000004020b79a                X509_policy_tree_get0_policies
                0x000000004020b7b0                X509_policy_tree_get0_user_policies
                0x000000004020b7d2                X509_policy_level_node_count
                0x000000004020b809                X509_policy_level_get0_node
                0x000000004020b834                X509_policy_node_get0_policy
                0x000000004020b84d                X509_policy_node_get0_qualifiers
                0x000000004020b866                X509_policy_node_get0_parent
                0x000000004020b89b                policy_node_cmp_new
                0x000000004020b8ab                tree_find_sk
                0x000000004020b8e7                level_find_node
                0x000000004020b95b                policy_node_free
                0x000000004020b966                level_add_node
                0x000000004020ba62                policy_node_match
                0x000000004020bc69                i2v_GENERAL_NAME
                0x000000004020bef0                i2v_GENERAL_NAMES
                0x000000004020bf54                GENERAL_NAME_print
                0x000000004020c0f8                a2i_GENERAL_NAME
                0x000000004020c4bc                v2i_GENERAL_NAME_ex
                0x000000004020c629                v2i_GENERAL_NAME
                0x000000004020c974                v2i_GENERAL_NAMES
                0x000000004020ca6d                d2i_BASIC_CONSTRAINTS
                0x000000004020ca7d                i2d_BASIC_CONSTRAINTS
                0x000000004020ca8d                BASIC_CONSTRAINTS_new
                0x000000004020ca9d                BASIC_CONSTRAINTS_free
                0x000000004020d235                X509V3_EXT_nconf
                0x000000004020d30c                X509V3_EXT_nconf_nid
                0x000000004020d39c                X509V3_EXT_i2d
                0x000000004020d406                X509V3_EXT_add_nconf_sk
                0x000000004020d4ae                X509V3_EXT_add_nconf
                0x000000004020d4cd                X509V3_EXT_CRL_add_nconf
                0x000000004020d4ec                X509V3_EXT_REQ_add_nconf
                0x000000004020d54b                X509V3_get_string
                0x000000004020d596                X509V3_get_section
                0x000000004020d5e2                X509V3_string_free
                0x000000004020d600                X509V3_section_free
                0x000000004020d61e                X509V3_set_nconf
                0x000000004020d630                X509V3_set_ctx
                0x000000004020d649                X509V3_EXT_conf
                0x000000004020d692                X509V3_EXT_conf_nid
                0x000000004020d6db                X509V3_set_conf_lhash
                0x000000004020d6ed                X509V3_EXT_add_conf
                0x000000004020d736                X509V3_EXT_CRL_add_conf
                0x000000004020d77f                X509V3_EXT_REQ_add_conf
                0x000000004020d91f                ACCESS_DESCRIPTION_free
                0x000000004020d92f                d2i_ACCESS_DESCRIPTION
                0x000000004020d93f                i2d_ACCESS_DESCRIPTION
                0x000000004020d94f                ACCESS_DESCRIPTION_new
                0x000000004020db79                d2i_AUTHORITY_INFO_ACCESS
                0x000000004020db89                i2d_AUTHORITY_INFO_ACCESS
                0x000000004020db99                AUTHORITY_INFO_ACCESS_new
                0x000000004020dba9                AUTHORITY_INFO_ACCESS_free
                0x000000004020dbb9                i2a_ACCESS_DESCRIPTION
                0x000000004020dbfc                X509V3_EXT_add
                0x000000004020dc90                X509V3_EXT_get_nid
                0x000000004020dd08                X509V3_EXT_get
                0x000000004020dd26                X509V3_EXT_add_list
                0x000000004020dd64                X509V3_EXT_add_alias
                0x000000004020de5f                X509V3_EXT_cleanup
                0x000000004020de81                X509V3_add_standard_extensions
                0x000000004020de8c                X509V3_EXT_d2i
                0x000000004020dee7                X509V3_get_d2i
                0x000000004020e00f                X509V3_add1_i2d
                0x000000004020efd0                d2i_PROXY_POLICY
                0x000000004020efe0                i2d_PROXY_POLICY
                0x000000004020eff0                PROXY_POLICY_new
                0x000000004020f000                PROXY_POLICY_free
                0x000000004020f010                d2i_PROXY_CERT_INFO_EXTENSION
                0x000000004020f020                i2d_PROXY_CERT_INFO_EXTENSION
                0x000000004020f030                PROXY_CERT_INFO_EXTENSION_new
                0x000000004020f040                PROXY_CERT_INFO_EXTENSION_free
                0x000000004020f0e1                d2i_PKEY_USAGE_PERIOD
                0x000000004020f0f1                i2d_PKEY_USAGE_PERIOD
                0x000000004020f101                PKEY_USAGE_PERIOD_new
                0x000000004020f111                PKEY_USAGE_PERIOD_free
                0x000000004020f130                i2s_ASN1_OCTET_STRING
                0x000000004020f145                s2i_ASN1_OCTET_STRING
                0x000000004020f3f7                d2i_SXNETID
                0x000000004020f407                i2d_SXNETID
                0x000000004020f417                SXNETID_new
                0x000000004020f427                SXNETID_free
                0x000000004020f437                d2i_SXNET
                0x000000004020f447                i2d_SXNET
                0x000000004020f457                SXNET_new
                0x000000004020f467                SXNET_free
                0x000000004020f477                SXNET_get_id_INTEGER
                0x000000004020f4d6                SXNET_get_id_ulong
                0x000000004020f567                SXNET_get_id_asc
                0x000000004020f5d6                SXNET_add_id_INTEGER
                0x000000004020f796                SXNET_add_id_ulong
                0x000000004020f834                SXNET_add_id_asc
                0x000000004020f908                X509_get_default_private_dir
                0x000000004020f913                X509_get_default_cert_area
                0x000000004020f91e                X509_get_default_cert_dir
                0x000000004020f929                X509_get_default_cert_file
                0x000000004020f934                X509_get_default_cert_dir_env
                0x000000004020f93f                X509_get_default_cert_file_env
                0x000000004020f991                i2d_ASN1_SET
                0x000000004020fbfa                d2i_ASN1_SET
                0x00000000402104bf                ASN1_generate_v3
                0x0000000040210df1                ASN1_generate_nconf
                0x0000000040210ffc                BN_GF2m_add
                0x00000000402110da                BN_GF2m_mod_arr
                0x0000000040211376                BN_GF2m_mod_sqr_arr
                0x000000004021151a                BN_GF2m_mod_mul_arr
                0x0000000040211780                BN_GF2m_mod_exp_arr
                0x00000000402118b7                BN_GF2m_mod_sqrt_arr
                0x000000004021195f                BN_GF2m_mod_solve_quad_arr
                0x0000000040211d29                BN_GF2m_poly2arr
                0x0000000040211db3                BN_GF2m_mod_solve_quad
                0x0000000040211e80                BN_GF2m_mod_sqrt
                0x0000000040211f4d                BN_GF2m_mod_exp
                0x0000000040212022                BN_GF2m_mod_sqr
                0x00000000402120ef                BN_GF2m_mod_mul
                0x00000000402121c4                BN_GF2m_mod
                0x0000000040212289                BN_GF2m_mod_inv
                0x0000000040212469                BN_GF2m_mod_div
                0x0000000040212506                BN_GF2m_arr2poly
                0x000000004021256b                BN_GF2m_mod_div_arr
                0x00000000402125ff                BN_GF2m_mod_inv_arr
                0x0000000040212690                CONF_set_nconf
                0x00000000402126d7                CONF_set_default_method
                0x00000000402126e9                CONF_load
                0x0000000040212713                NCONF_new
                0x0000000040212760                NCONF_free
                0x0000000040212771                NCONF_free_data
                0x0000000040212782                CONF_free
                0x00000000402127a1                NCONF_load
                0x00000000402127d6                NCONF_load_bio
                0x000000004021280b                CONF_load_bio
                0x0000000040212855                NCONF_get_section
                0x00000000402128b2                CONF_get_section
                0x00000000402128e7                NCONF_get_string
                0x000000004021298e                CONF_get_string
                0x00000000402129d5                NCONF_get_number_e
                0x0000000040212a70                CONF_get_number
                0x0000000040212ace                NCONF_dump_bio
                0x0000000040212b03                CONF_dump_bio
                0x0000000040212b30                DSO_METHOD_null
                0x00000000402133fa                ec_GF2m_simple_mul
                0x0000000040213655                ec_GF2m_precompute_mult
                0x0000000040213660                ec_GF2m_have_precompute_mult
                0x000000004021366c                i2a_ASN1_INTEGER
                0x00000000402137ad                a2i_ASN1_INTEGER
                0x0000000040213ab0                i2a_ASN1_STRING
                0x0000000040213bc1                a2i_ASN1_STRING
                0x0000000040213e78                d2i_OCSP_SIGNATURE
                0x0000000040213e88                i2d_OCSP_SIGNATURE
                0x0000000040213e98                OCSP_SIGNATURE_new
                0x0000000040213ea8                OCSP_SIGNATURE_free
                0x0000000040213eb8                d2i_OCSP_CERTID
                0x0000000040213ec8                i2d_OCSP_CERTID
                0x0000000040213ed8                OCSP_CERTID_new
                0x0000000040213ee8                OCSP_CERTID_free
                0x0000000040213ef8                d2i_OCSP_ONEREQ
                0x0000000040213f08                i2d_OCSP_ONEREQ
                0x0000000040213f18                OCSP_ONEREQ_new
                0x0000000040213f28                OCSP_ONEREQ_free
                0x0000000040213f38                d2i_OCSP_REQINFO
                0x0000000040213f48                i2d_OCSP_REQINFO
                0x0000000040213f58                OCSP_REQINFO_new
                0x0000000040213f68                OCSP_REQINFO_free
                0x0000000040213f78                d2i_OCSP_REQUEST
                0x0000000040213f88                i2d_OCSP_REQUEST
                0x0000000040213f98                OCSP_REQUEST_new
                0x0000000040213fa8                OCSP_REQUEST_free
                0x0000000040213fb8                d2i_OCSP_RESPBYTES
                0x0000000040213fc8                i2d_OCSP_RESPBYTES
                0x0000000040213fd8                OCSP_RESPBYTES_new
                0x0000000040213fe8                OCSP_RESPBYTES_free
                0x0000000040213ff8                d2i_OCSP_RESPONSE
                0x0000000040214008                i2d_OCSP_RESPONSE
                0x0000000040214018                OCSP_RESPONSE_new
                0x0000000040214028                OCSP_RESPONSE_free
                0x0000000040214038                d2i_OCSP_RESPID
                0x0000000040214048                i2d_OCSP_RESPID
                0x0000000040214058                OCSP_RESPID_new
                0x0000000040214068                OCSP_RESPID_free
                0x0000000040214078                d2i_OCSP_REVOKEDINFO
                0x0000000040214088                i2d_OCSP_REVOKEDINFO
                0x0000000040214098                OCSP_REVOKEDINFO_new
                0x00000000402140a8                OCSP_REVOKEDINFO_free
                0x00000000402140b8                d2i_OCSP_CERTSTATUS
                0x00000000402140c8                i2d_OCSP_CERTSTATUS
                0x00000000402140d8                OCSP_CERTSTATUS_new
                0x00000000402140e8                OCSP_CERTSTATUS_free
                0x00000000402140f8                d2i_OCSP_SINGLERESP
                0x0000000040214108                i2d_OCSP_SINGLERESP
                0x0000000040214118                OCSP_SINGLERESP_new
                0x0000000040214128                OCSP_SINGLERESP_free
                0x0000000040214138                d2i_OCSP_RESPDATA
                0x0000000040214148                i2d_OCSP_RESPDATA
                0x0000000040214158                OCSP_RESPDATA_new
                0x0000000040214168                OCSP_RESPDATA_free
                0x0000000040214178                d2i_OCSP_BASICRESP
                0x0000000040214188                i2d_OCSP_BASICRESP
                0x0000000040214198                OCSP_BASICRESP_new
                0x00000000402141a8                OCSP_BASICRESP_free
                0x00000000402141b8                d2i_OCSP_CRLID
                0x00000000402141c8                i2d_OCSP_CRLID
                0x00000000402141d8                OCSP_CRLID_new
                0x00000000402141e8                OCSP_CRLID_free
                0x00000000402141f8                d2i_OCSP_SERVICELOC
                0x0000000040214208                i2d_OCSP_SERVICELOC
                0x0000000040214218                OCSP_SERVICELOC_new
                0x0000000040214228                OCSP_SERVICELOC_free
                0x00000000402145ec                v2i_ASN1_BIT_STRING
                0x000000004021476f                i2v_ASN1_BIT_STRING
                0x00000000402147c4                i2s_ASN1_ENUMERATED_TABLE
                0x0000000040214990                d2i_EXTENDED_KEY_USAGE
                0x00000000402149a0                i2d_EXTENDED_KEY_USAGE
                0x00000000402149b0                EXTENDED_KEY_USAGE_new
                0x00000000402149c0                EXTENDED_KEY_USAGE_free
                0x0000000040214c38                _CONF_get_section
                0x0000000040214c6c                _CONF_get_section_values
                0x0000000040214c87                _CONF_add_string
                0x0000000040214d12                _CONF_get_string
                0x0000000040214db0                _CONF_new_data
                0x0000000040214df2                _CONF_free_data
                0x0000000040214e43                _CONF_new_section
                0x0000000040215dd1                NCONF_default
                0x0000000040215ddc                NCONF_WIN32
                0x0000000040215de7                codeend = .

.iplt           0x0000000040215df0        0x0 load address 0x0000000000215df0
 .iplt          0x0000000000000000        0x0 output.o

.rodata         0x0000000040215e00    0x34fcc load address 0x0000000000215e00
 .rodata        0x0000000040215e00    0x34fcc output.o
                0x0000000040223fa0                BN_version
                0x00000000402243c0                DES_SPtrans
                0x00000000402253c0                DH_version
                0x00000000402268a0                OSSL_DES_version
                0x00000000402268e0                OSSL_libdes_version
                0x00000000402269c0                EVP_version
                0x0000000040226a80                IDEA_version
                0x0000000040226ac0                lh_version
                0x0000000040227100                MD4_version
                0x0000000040227140                MD5_version
                0x0000000040233cc0                PEM_version
                0x0000000040233d20                PKCS7_ATTR_VERIFY_it
                0x0000000040233d60                PKCS7_ATTR_SIGN_it
                0x0000000040233da0                PKCS7_DIGEST_it
                0x0000000040233de0                PKCS7_ENCRYPT_it
                0x0000000040233e20                PKCS7_SIGN_ENVELOPE_it
                0x0000000040233e60                PKCS7_ENC_CONTENT_it
                0x0000000040233ea0                PKCS7_RECIP_INFO_it
                0x0000000040233ee0                PKCS7_ENVELOPE_it
                0x0000000040233f20                PKCS7_ISSUER_AND_SERIAL_it
                0x0000000040233f60                PKCS7_SIGNER_INFO_it
                0x0000000040233fa0                PKCS7_SIGNED_it
                0x0000000040233fe0                PKCS7_it
                0x0000000040234aa0                RC2_version
                0x0000000040234be0                RC4_version
                0x0000000040234c20                RMD160_version
                0x0000000040234c60                RSAPublicKey_it
                0x0000000040234ca0                RSAPrivateKey_it
                0x0000000040234f40                RSA_version
                0x0000000040236140                SHA1_version
                0x0000000040236180                SHA256_version
                0x00000000402362c0                SHA512_version
                0x0000000040236580                SHA_version
                0x00000000402365c0                STACK_version
                0x0000000040236820                ASN1_SET_ANY_it
                0x0000000040236860                ASN1_SEQUENCE_ANY_it
                0x00000000402368a0                ASN1_OCTET_STRING_NDEF_it
                0x00000000402368e0                ASN1_FBOOLEAN_it
                0x0000000040236920                ASN1_TBOOLEAN_it
                0x0000000040236960                ASN1_BOOLEAN_it
                0x00000000402369a0                DIRECTORYSTRING_it
                0x00000000402369e0                DISPLAYTEXT_it
                0x0000000040236a20                ASN1_PRINTABLE_it
                0x0000000040236a60                ASN1_SEQUENCE_it
                0x0000000040236aa0                ASN1_ANY_it
                0x0000000040236ae0                ASN1_BMPSTRING_it
                0x0000000040236b20                ASN1_UNIVERSALSTRING_it
                0x0000000040236b60                ASN1_VISIBLESTRING_it
                0x0000000040236ba0                ASN1_GENERALIZEDTIME_it
                0x0000000040236be0                ASN1_UTCTIME_it
                0x0000000040236c20                ASN1_GENERALSTRING_it
                0x0000000040236c60                ASN1_IA5STRING_it
                0x0000000040236ca0                ASN1_T61STRING_it
                0x0000000040236ce0                ASN1_PRINTABLESTRING_it
                0x0000000040236d20                ASN1_UTF8STRING_it
                0x0000000040236d60                ASN1_OBJECT_it
                0x0000000040236da0                ASN1_NULL_it
                0x0000000040236de0                ASN1_OCTET_STRING_it
                0x0000000040236e20                ASN1_BIT_STRING_it
                0x0000000040236e60                ASN1_ENUMERATED_it
                0x0000000040236ea0                ASN1_INTEGER_it
                0x0000000040236f80                X509_version
                0x00000000402370e0                X509_ALGORS_it
                0x0000000040237120                X509_ALGOR_it
                0x0000000040237200                X509_ATTRIBUTE_it
                0x0000000040237240                X509_ATTRIBUTE_SET_it
                0x0000000040237340                CBIGNUM_it
                0x0000000040237380                BIGNUM_it
                0x00000000402373c0                X509_CRL_it
                0x0000000040237400                X509_CRL_INFO_it
                0x0000000040237440                X509_REVOKED_it
                0x0000000040237720                X509_EXTENSIONS_it
                0x0000000040237760                X509_EXTENSION_it
                0x0000000040237860                ZLONG_it
                0x00000000402378a0                LONG_it
                0x00000000402378e0                X509_NAME_it
                0x0000000040237920                x509_name_ff
                0x0000000040237960                X509_NAME_INTERNAL_it
                0x00000000402379a0                X509_NAME_ENTRIES_it
                0x00000000402379e0                X509_NAME_ENTRY_it
                0x0000000040237b00                X509_PUBKEY_it
                0x0000000040237be0                X509_REQ_it
                0x0000000040237c20                X509_REQ_INFO_it
                0x0000000040237e00                X509_SIG_it
                0x0000000040237ea0                NETSCAPE_SPKI_it
                0x0000000040237ee0                NETSCAPE_SPKAC_it
                0x0000000040238000                X509_it
                0x0000000040238040                X509_CINF_it
                0x0000000040238320                X509_CERT_PAIR_it
                0x0000000040238360                X509_CERT_AUX_it
                0x0000000040238960                rsa_pkey_meth
                0x0000000040238a40                dh_pkey_meth
                0x0000000040238b20                dsa_pkey_meth
                0x0000000040238c00                ec_pkey_meth
                0x0000000040238ce0                hmac_pkey_meth
                0x0000000040238e00                rsa_asn1_meths
                0x0000000040238f80                dh_asn1_meth
                0x0000000040239040                dsa_asn1_meths
                0x00000000402393e0                eckey_asn1_meth
                0x00000000402394a0                hmac_asn1_meth
                0x000000004023a5e0                CMS_Receipt_it
                0x000000004023a620                CMS_ReceiptRequest_it
                0x000000004023a660                CMS_ReceiptsFrom_it
                0x000000004023a6a0                CMS_Attributes_Verify_it
                0x000000004023a6e0                CMS_Attributes_Sign_it
                0x000000004023a720                CMS_ContentInfo_it
                0x000000004023a760                CMS_CompressedData_it
                0x000000004023a7a0                CMS_AuthenticatedData_it
                0x000000004023a7e0                CMS_EncryptedData_it
                0x000000004023a820                CMS_DigestedData_it
                0x000000004023a860                CMS_EnvelopedData_it
                0x000000004023a8a0                CMS_RecipientInfo_it
                0x000000004023a8e0                CMS_OtherRecipientInfo_it
                0x000000004023a920                CMS_PasswordRecipientInfo_it
                0x000000004023a960                CMS_KEKRecipientInfo_it
                0x000000004023a9a0                CMS_KEKIdentifier_it
                0x000000004023a9e0                CMS_KeyAgreeRecipientInfo_it
                0x000000004023aa20                CMS_OriginatorIdentifierOrKey_it
                0x000000004023aa60                CMS_OriginatorPublicKey_it
                0x000000004023aaa0                CMS_RecipientEncryptedKey_it
                0x000000004023aae0                CMS_KeyAgreeRecipientIdentifier_it
                0x000000004023ab20                CMS_RecipientKeyIdentifier_it
                0x000000004023ab60                CMS_OtherKeyAttribute_it
                0x000000004023aba0                CMS_KeyTransRecipientInfo_it
                0x000000004023abe0                CMS_EncryptedContentInfo_it
                0x000000004023ac20                CMS_OriginatorInfo_it
                0x000000004023ac60                CMS_SignedData_it
                0x000000004023aca0                CMS_RevocationInfoChoice_it
                0x000000004023ace0                CMS_OtherRevocationInfoFormat_it
                0x000000004023ad20                CMS_SignerInfo_it
                0x000000004023ad60                CMS_EncapsulatedContentInfo_it
                0x000000004023ada0                CMS_SignerIdentifier_it
                0x000000004023ade0                CMS_CertificateChoices_it
                0x000000004023ae20                CMS_OtherCertificateFormat_it
                0x000000004023ae60                CMS_IssuerAndSerialNumber_it
                0x000000004023c6a0                ASN1_TIME_it
                0x000000004023c720                ASN1_version
                0x000000004023c880                BF_version
                0x000000004023ea20                CAST_version
                0x000000004023eae0                CAST_S_table7
                0x000000004023eee0                CAST_S_table6
                0x000000004023f2e0                CAST_S_table5
                0x000000004023f6e0                CAST_S_table4
                0x000000004023fae0                CAST_S_table3
                0x000000004023fee0                CAST_S_table2
                0x00000000402402e0                CAST_S_table1
                0x00000000402406e0                CAST_S_table0
                0x0000000040240d20                DHparams_it
                0x0000000040240e20                DSAPublicKey_it
                0x0000000040240e60                dsa_pub_internal_it
                0x0000000040240ea0                DSAparams_it
                0x0000000040240ee0                DSAPrivateKey_it
                0x0000000040240f20                DSA_SIG_it
                0x0000000040241340                DSA_version
                0x0000000040241380                EC_PRIVATEKEY_it
                0x00000000402413c0                ECPKPARAMETERS_it
                0x0000000040241400                ECPARAMETERS_it
                0x0000000040241440                X9_62_CURVE_it
                0x0000000040241480                X9_62_FIELDID_it
                0x00000000402414c0                X9_62_CHARACTERISTIC_TWO_it
                0x0000000040241500                X9_62_PENTANOMIAL_it
                0x00000000402454c0                ECDH_version
                0x00000000402458c0                ECDSA_version
                0x0000000040245bc0                RAND_version
                0x0000000040245c00                NETSCAPE_CERT_SEQUENCE_it
                0x0000000040245ce0                PBEPARAM_it
                0x0000000040245d80                PBKDF2PARAM_it
                0x0000000040245dc0                PBE2PARAM_it
                0x0000000040245f00                PKCS8_PRIV_KEY_INFO_it
                0x00000000402460c0                AUTHORITY_KEYID_it
                0x0000000040246180                NOTICEREF_it
                0x00000000402461c0                USERNOTICE_it
                0x0000000040246200                POLICYQUALINFO_it
                0x0000000040246240                POLICYINFO_it
                0x0000000040246280                CERTIFICATEPOLICIES_it
                0x00000000402462c0                v3_cpols
                0x00000000402465e0                v3_idp
                0x0000000040246660                ISSUING_DIST_POINT_it
                0x00000000402466a0                CRL_DIST_POINTS_it
                0x00000000402466e0                DIST_POINT_it
                0x0000000040246720                DIST_POINT_NAME_it
                0x0000000040246760                v3_freshest_crl
                0x00000000402467e0                v3_crld
                0x0000000040246ca0                GENERAL_NAMES_it
                0x0000000040246ce0                GENERAL_NAME_it
                0x0000000040246d20                EDIPARTYNAME_it
                0x0000000040246d60                OTHERNAME_it
                0x0000000040247020                NAME_CONSTRAINTS_it
                0x0000000040247060                GENERAL_SUBTREE_it
                0x00000000402470a0                v3_name_constraints
                0x0000000040247200                POLICY_CONSTRAINTS_it
                0x0000000040247240                v3_policy_constraints
                0x0000000040247320                POLICY_MAPPINGS_it
                0x0000000040247360                POLICY_MAPPING_it
                0x00000000402473a0                v3_policy_mappings
                0x0000000040247520                X509_VAL_it
                0x0000000040247fc0                ECDSA_SIG_it
                0x0000000040248060                PKCS12_AUTHSAFES_it
                0x00000000402480a0                PKCS12_SAFEBAGS_it
                0x00000000402480e0                PKCS12_SAFEBAG_it
                0x0000000040248120                PKCS12_BAGS_it
                0x0000000040248160                PKCS12_MAC_DATA_it
                0x00000000402481a0                PKCS12_it
                0x00000000402487e0                v3_alt
                0x0000000040248920                BASIC_CONSTRAINTS_it
                0x0000000040248960                v3_bcons
                0x0000000040248a40                AUTHORITY_INFO_ACCESS_it
                0x0000000040248a80                ACCESS_DESCRIPTION_it
                0x0000000040248ac0                v3_sinfo
                0x0000000040248b40                v3_info
                0x0000000040248c60                v3_ocsp_serviceloc
                0x0000000040248ce0                v3_ocsp_nocheck
                0x0000000040248d60                v3_ocsp_nonce
                0x0000000040248de0                v3_crl_hold
                0x0000000040248e60                v3_crl_invdate
                0x0000000040248ee0                v3_ocsp_acutoff
                0x0000000040248f60                v3_ocsp_crlid
                0x0000000040248fe0                v3_pci
                0x0000000040249060                PROXY_CERT_INFO_EXTENSION_it
                0x00000000402490a0                PROXY_POLICY_it
                0x00000000402491a0                PKEY_USAGE_PERIOD_it
                0x00000000402491e0                v3_pkey_usage_period
                0x00000000402492c0                v3_skey_id
                0x0000000040249340                SXNET_it
                0x0000000040249380                SXNETID_it
                0x00000000402493c0                v3_sxnet
                0x00000000402499a0                CONF_version
                0x00000000402499e0                OCSP_SERVICELOC_it
                0x0000000040249a20                OCSP_CRLID_it
                0x0000000040249a60                OCSP_BASICRESP_it
                0x0000000040249aa0                OCSP_RESPDATA_it
                0x0000000040249ae0                OCSP_SINGLERESP_it
                0x0000000040249b20                OCSP_CERTSTATUS_it
                0x0000000040249b60                OCSP_REVOKEDINFO_it
                0x0000000040249ba0                OCSP_RESPID_it
                0x0000000040249be0                OCSP_RESPONSE_it
                0x0000000040249c20                OCSP_RESPBYTES_it
                0x0000000040249c60                OCSP_REQUEST_it
                0x0000000040249ca0                OCSP_REQINFO_it
                0x0000000040249ce0                OCSP_ONEREQ_it
                0x0000000040249d20                OCSP_CERTID_it
                0x0000000040249d60                OCSP_SIGNATURE_it
                0x000000004024a560                v3_akey_id
                0x000000004024a5e0                v3_key_usage
                0x000000004024a660                v3_nscert
                0x000000004024a6e0                v3_crl_reason
                0x000000004024a760                EXTENDED_KEY_USAGE_it
                0x000000004024a7a0                v3_ocsp_accresp
                0x000000004024a820                v3_ext_ku
                0x000000004024a8e0                v3_ns_ia5_list
                0x000000004024ac20                v3_inhibit_anyp
                0x000000004024aca0                v3_delta_crl
                0x000000004024ad20                v3_crl_num
                0x000000004024ada0                CONF_def_version

.rodata.str1.8  0x000000004024add0     0x97c0 load address 0x000000000024add0
 .rodata.str1.8
                0x000000004024add0     0x97c0 output.o
                                       0x9ae5 (size before relaxing)

.rodata.str1.1  0x0000000040254590    0x12b32 load address 0x0000000000254590
 .rodata.str1.1
                0x0000000040254590    0x12b32 output.o
                                      0x14f2f (size before relaxing)

.eh_frame       0x00000000402670c8    0x37160 load address 0x00000000002670c8
 .eh_frame      0x00000000402670c8    0x37160 output.o

.eh_frame_hdr   0x000000004029e228        0x8 load address 0x000000000029e228
 .eh_frame_hdr  0x000000004029e228        0x8 output.o

.note.gnu.build-id
                0x000000004029e230      0x288 load address 0x000000000029e230
 .note.gnu.build-id
                0x000000004029e230      0x288 output.o

.rela.dyn       0x000000004029e4b8        0x0 load address 0x000000000029e4b8
 .rela.iplt     0x0000000000000000        0x0 output.o
 .rela.text     0x0000000000000000        0x0 output.o

.data           0x000000004029f000  0x95ba000 load address 0x000000000029f000
                0x000000004029f000                data = .
 *(.data)
 .data          0x000000004029f000   0x9eda63 output.o
                0x000000004029f020                config
                0x00000000402af190                use_pae
                0x00000000402af3b0                savemsr_index
                0x00000000402b0000                vmm_pml4
                0x00000000402b1000                vmm_pdp
                0x00000000402b2000                vmm_pd
                0x00000000402b3000                vmm_pd1
                0x00000000402b4000                vmm_pd2
                0x00000000402b5000                guest_int0x15_hook
                0x00000000402b501d                guest_int0x15_e801_fake_ax
                0x00000000402b5020                guest_int0x15_e801_fake_bx
                0x00000000402b5031                guest_int0x15_orig
                0x00000000402b5046                guest_int0x15_e820_data_minus0x18
                0x00000000402b504e                guest_int0x15_e820_end
                0x00000000402b5074                guest_int0x15_hook_end
                0x00000000402b6078                wakeup_entry_start
                0x00000000402b6081                wakeup_entry_addr
                0x00000000402b60a7                wakeup_entry_cr4
                0x00000000402b60b0                wakeup_entry_cr3
                0x00000000402b60b9                wakeup_entry_cr0
                0x00000000402b60c8                wakeup_entry_gdtr
                0x00000000402b60d2                wakeup_entry_end
                0x00000000402b6160                ata_bm_handler_table
                0x00000000402b61c0                ata_ctlblk_handler_table
                0x00000000402b61e0                ata_cmdblk_handler_table
                0x00000000402b6c70                usb_log_level
                0x00000000402b7600                hSessionCnt
                0x00000000402b7608                hObjectCnt
                0x00000000402b7e00                g_rgSCardT1Pci
                0x00000000402b7e10                g_rgSCardT0Pci
                0x00000000402b7e20                FI
                0x00000000402b7e60                DI
                0x00000000402bc480                default_pctx
                0x00000000402bf720                rand_ssleay_meth
                0x0000000040c8ca68                . = ALIGN (0x8)
 *fill*         0x0000000040c8ca63        0x5 
                0x0000000040c8ca68                __initfunc_start = .
 *(.initfunc)
 .initfunc      0x0000000040c8ca68      0x640 output.o
                0x0000000040c8ca68                __initfunc_acpi_init_paral
                0x0000000040c8ca78                __initfunc_acpi_init_global
                0x0000000040c8ca88                __initfunc_beep_init_msg
                0x0000000040c8ca98                __initfunc_cache_init_pass
                0x0000000040c8caa8                __initfunc_cache_init_vcpu
                0x0000000040c8cab8                __initfunc_cache_init_pcpu
                0x0000000040c8cac8                __initfunc_callrealmode_panic
                0x0000000040c8cad8                __initfunc_callrealmode_init_global
                0x0000000040c8cae8                __initfunc_cpu_mmu_spt_init_pcpu
                0x0000000040c8caf8                __initfunc_cpu_mmu_spt_init_global
                0x0000000040c8cb08                __initfunc_cpuid_init
                0x0000000040c8cb18                __initfunc_cpuid_pass_init
                0x0000000040c8cb28                __initfunc_exint_pass_init
                0x0000000040c8cb38                __initfunc_gmm_pass_init
                0x0000000040c8cb48                __initfunc_install_int0x15_hook
                0x0000000040c8cb58                __initfunc_idman_init
                0x0000000040c8cb68                __initfunc_idman_init_global
                0x0000000040c8cb78                __initfunc_int_wakeup
                0x0000000040c8cb88                __initfunc_int_init_global
                0x0000000040c8cb98                __initfunc_io_io_init
                0x0000000040c8cba8                __initfunc_setiohooks
                0x0000000040c8cbb8                __initfunc_io_iopass_init
                0x0000000040c8cbc8                __initfunc_keyboard_init_msg
                0x0000000040c8cbd8                __initfunc_localapic_init
                0x0000000040c8cbe8                __initfunc_get_shiftflags
                0x0000000040c8cbf8                __initfunc_copy_minios
                0x0000000040c8cc08                __initfunc_print_boot_msg
                0x0000000040c8cc18                __initfunc_debug_on_shift_key
                0x0000000040c8cc28                __initfunc_create_pass_vm
                0x0000000040c8cc38                __initfunc_virtualization_init_pcpu
                0x0000000040c8cc48                __initfunc_unmap_user_area
                0x0000000040c8cc58                __initfunc_mm_init_global
                0x0000000040c8cc68                __initfunc_mmio_debug
                0x0000000040c8cc78                __initfunc_mmio_init
                0x0000000040c8cc88                __initfunc_msg_init_global
                0x0000000040c8cc98                __initfunc_msr_init
                0x0000000040c8cca8                __initfunc_msr_pass_init
                0x0000000040c8ccb8                __initfunc_nmi_pass_init_pcpu
                0x0000000040c8ccc8                __initfunc_nmi_pass_init
                0x0000000040c8ccd8                __initfunc_panic_init_pcpu
                0x0000000040c8cce8                __initfunc_panic_init_msg
                0x0000000040c8ccf8                __initfunc_panic_init_global3
                0x0000000040c8cd08                __initfunc_panic_init_global
                0x0000000040c8cd18                __initfunc_printf_init_global
                0x0000000040c8cd28                __initfunc_process_wakeup
                0x0000000040c8cd38                __initfunc_process_init_ap
                0x0000000040c8cd48                __initfunc_process_init_global
                0x0000000040c8cd58                __initfunc_random_init_config0
                0x0000000040c8cd68                __initfunc_random_init_global
                0x0000000040c8cd78                __initfunc_reboot_init_msg
                0x0000000040c8cd88                __initfunc_segment_init_global
                0x0000000040c8cd98                __initfunc_serial_init_msg
                0x0000000040c8cda8                __initfunc_sleep_init_msg
                0x0000000040c8cdb8                __initfunc_sleep_init_global
                0x0000000040c8cdc8                __initfunc_svm_panic
                0x0000000040c8cdd8                __initfunc_sx_init_pass_init
                0x0000000040c8cde8                __initfunc_thread_init_pcpu
                0x0000000040c8cdf8                __initfunc_thread_init_global
                0x0000000040c8ce08                __initfunc_time_init_msg
                0x0000000040c8ce18                __initfunc_time_init_pcpu
                0x0000000040c8ce28                __initfunc_time_init_global_status
                0x0000000040c8ce38                __initfunc_time_init_global
                0x0000000040c8ce48                __initfunc_timer_init_global
                0x0000000040c8ce58                __initfunc_tty_init_msg
                0x0000000040c8ce68                __initfunc_tty_init_global2
                0x0000000040c8ce78                __initfunc_tty_init_global
                0x0000000040c8ce88                __initfunc_vcpu_init_global
                0x0000000040c8ce98                __initfunc_vga_init
                0x0000000040c8cea8                __initfunc_vmmcall_init
                0x0000000040c8ceb8                __initfunc_vmmcall_boot_init
                0x0000000040c8cec8                __initfunc_vmmcall_dbgsh_init_pcpu
                0x0000000040c8ced8                __initfunc_vmmcall_dbgsh_init_global
                0x0000000040c8cee8                __initfunc_vmmcall_dbgsh_init
                0x0000000040c8cef8                __initfunc_vmmcall_iccard_init
                0x0000000040c8cf08                __initfunc_vmmcall_log_init
                0x0000000040c8cf18                __initfunc_vmmcall_status_init
                0x0000000040c8cf28                __initfunc_vmmcall_status_init_global
                0x0000000040c8cf38                __initfunc_vramwrite_init_bsp
                0x0000000040c8cf48                __initfunc_vramwrite_init_msg
                0x0000000040c8cf58                __initfunc_vt_register_status_callback
                0x0000000040c8cf68                __initfunc_vt_panic
                0x0000000040c8cf78                __initfunc_xsetbv_init
                0x0000000040c8cf88                __initfunc_xsetbv_pass_init
                0x0000000040c8cf98                __initfunc_core_init
                0x0000000040c8cfa8                __initfunc_ieee1394_init_boot
                0x0000000040c8cfb8                __initfunc_ieee1394_init
                0x0000000040c8cfc8                __initfunc_iommu_setup
                0x0000000040c8cfd8                __initfunc_pci_init
                0x0000000040c8cfe8                __initfunc_debug_ata_init
                0x0000000040c8cff8                __initfunc_ata_init
                0x0000000040c8d008                __initfunc_uhci_init
                0x0000000040c8d018                __initfunc_ehci_init
                0x0000000040c8d028                __initfunc_pro100_init
                0x0000000040c8d038                __initfunc_suspend_pro1000
                0x0000000040c8d048                __initfunc_resume_pro1000
                0x0000000040c8d058                __initfunc_vpn_pro1000_init
                0x0000000040c8d068                __initfunc_storage_kernel_init
                0x0000000040c8d078                __initfunc_storage_io_initfunc
                0x0000000040c8d088                __initfunc_vpn_kernel_init
                0x0000000040c8d098                __initfunc_idman_kernel_init
                0x0000000040c8d0a8                __initfunc_end = .
                0x0000000040c8d0a8                __process_builtin = .
 *(.processes)
 .processes     0x0000000040c8d0a8      0x1a0 output.o
                0x0000000040c8d248                __process_builtin_end = .
                0x0000000040c8d248                bss = .
 *(.bss)
 *fill*         0x0000000040c8d248       0x18 
 .bss           0x0000000040c8d260  0x8bca7e0 output.o
                0x0000000040c90a80                vmmsize
                0x0000000040c90a88                memorysize
                0x0000000040f14520                pcpu_default
                0x0000000040f31d44                ps2_locked
                0x0000000040f321e8                syscallHandlerAddress
                0x0000000040f32200                currentProtectedApplication
                0x0000000040f32208                numberOfVMs
                0x0000000040f32210                numberOfProtectedApplications
                0x0000000040f32218                currentRunningApplication
                0x0000000049732960                syscall_metatata_table
                0x0000000049732980                handler_descriptor
                0x0000000049732b88                drhd_list_head
                0x00000000497343c0                pci_driver_list_head
                0x00000000497343c8                pci_device_list_head
                0x0000000049734570                uhci_monitor_boost_hc
                0x0000000049734588                usb_hc_list_head
                0x0000000049734590                usb_busses_head
                0x000000004973be88                rt
                0x00000000498558b0                hContext
                0x00000000498558b8                sessionTable
                0x00000000498558c0                slotTable
                0x00000000498558c8                slotFlag
                0x00000000498558c9                libInitFlag
                0x0000000049856520                OPENSSL_NONPIC_relocated
                0x0000000049856528                OPENSSL_ia32cap_P
                0x0000000049857168                cleanse_ctr
                0x00000000498571c8                obj_cleanup_defer
                0x00000000498571e8                _shadow_DES_check_key
                0x00000000498572e8                app_pkey_methods
                0x0000000049857340                chelp_inited
 *(COMMON)
 COMMON         0x0000000049857a40     0x12c4 output.o
                0x0000000049857a40                clflush_size
                0x0000000049857a60                sReaderContext
                0x0000000049857ac0                sigx_app
                0x0000000049857ac8                num_dom
                0x0000000049857ae0                mszReaders
                0x0000000049857ee0                zero_page_pool
                0x00000000498582e0                prohibit_iccard_init
                0x00000000498582e8                curthread
                0x00000000498582f0                sig_app
                0x0000000049858300                readerState
                0x0000000049858380                dom_io
                0x0000000049858b80                acpi_dsdt_system_state
                0x0000000049858ba0                ehci_host
                0x0000000049858ba8                num_of_processors
                0x0000000049858bac                e801_fake_bx
                0x0000000049858bae                iommu_detected
                0x0000000049858bb0                dwReaders
                0x0000000049858bc0                readerTracker
                0x0000000049858d00                handler_descriptor_lock
                0x0000000049858d02                e801_fake_ax
                0x0000000049859000                . = ALIGN (0x1000)
 *fill*         0x0000000049858d04      0x2fc 

.igot.plt       0x0000000049859000        0x0 load address 0x0000000009859000
 .igot.plt      0x0000000000000000        0x0 output.o
                0x0000000049859000                . = ALIGN (0x1000)
                0x0000000049859000                PAGE_POOL_START = .
                0x0000000049c59000                . = (PAGE_POOL_START + 0x400000)
                0x0000000049c59000                end = .

/DISCARD/
 *(.gomi)
LOAD output.o
OUTPUT(bitvisor.elf elf64-x86-64)

.comment        0x0000000000000000       0x55
 .comment       0x0000000000000000       0x55 output.o
                                       0x5e74 (size before relaxing)

.note.GNU-stack
                0x0000000000000000        0x0
 .note.GNU-stack
                0x0000000000000000        0x0 output.o

.debug_aranges  0x0000000000000000     0x6a80
 .debug_aranges
                0x0000000000000000     0x6a80 output.o

.debug_info     0x0000000000000000   0x2c78f5
 .debug_info    0x0000000000000000   0x2c78f5 output.o

.debug_abbrev   0x0000000000000000    0x49b41
 .debug_abbrev  0x0000000000000000    0x49b41 output.o

.debug_line     0x0000000000000000    0x4e7b0
 .debug_line    0x0000000000000000    0x4e7b0 output.o

.debug_str      0x0000000000000000    0x37077
 .debug_str     0x0000000000000000    0x37077 output.o
                                     0x132a6b (size before relaxing)

.debug_loc      0x0000000000000000   0x244904
 .debug_loc     0x0000000000000000   0x244904 output.o

.debug_ranges   0x0000000000000000     0x6370
 .debug_ranges  0x0000000000000000     0x6370 output.o

Cross Reference Table

Symbol                                            File
ACCESS_DESCRIPTION_free                           output.o
ACCESS_DESCRIPTION_it                             output.o
ACCESS_DESCRIPTION_new                            output.o
AES_cbc_encrypt                                   output.o
AES_cfb128_encrypt                                output.o
AES_cfb1_encrypt                                  output.o
AES_cfb8_encrypt                                  output.o
AES_decrypt                                       output.o
AES_ecb_encrypt                                   output.o
AES_encrypt                                       output.o
AES_ofb128_encrypt                                output.o
AES_set_decrypt_key                               output.o
AES_set_encrypt_key                               output.o
AES_unwrap_key                                    output.o
AES_wrap_key                                      output.o
ASN1_ANY_it                                       output.o
ASN1_BIT_STRING_check                             output.o
ASN1_BIT_STRING_free                              output.o
ASN1_BIT_STRING_get_bit                           output.o
ASN1_BIT_STRING_it                                output.o
ASN1_BIT_STRING_new                               output.o
ASN1_BIT_STRING_set                               output.o
ASN1_BIT_STRING_set_bit                           output.o
ASN1_BMPSTRING_free                               output.o
ASN1_BMPSTRING_it                                 output.o
ASN1_BMPSTRING_new                                output.o
ASN1_BOOLEAN_it                                   output.o
ASN1_ENUMERATED_free                              output.o
ASN1_ENUMERATED_get                               output.o
ASN1_ENUMERATED_it                                output.o
ASN1_ENUMERATED_new                               output.o
ASN1_ENUMERATED_set                               output.o
ASN1_ENUMERATED_to_BN                             output.o
ASN1_FBOOLEAN_it                                  output.o
ASN1_GENERALIZEDTIME_adj                          output.o
ASN1_GENERALIZEDTIME_check                        output.o
ASN1_GENERALIZEDTIME_free                         output.o
ASN1_GENERALIZEDTIME_it                           output.o
ASN1_GENERALIZEDTIME_new                          output.o
ASN1_GENERALIZEDTIME_print                        output.o
ASN1_GENERALIZEDTIME_set                          output.o
ASN1_GENERALIZEDTIME_set_string                   output.o
ASN1_GENERALSTRING_free                           output.o
ASN1_GENERALSTRING_it                             output.o
ASN1_GENERALSTRING_new                            output.o
ASN1_IA5STRING_free                               output.o
ASN1_IA5STRING_it                                 output.o
ASN1_IA5STRING_new                                output.o
ASN1_INTEGER_cmp                                  output.o
ASN1_INTEGER_dup                                  output.o
ASN1_INTEGER_free                                 output.o
ASN1_INTEGER_get                                  output.o
ASN1_INTEGER_it                                   output.o
ASN1_INTEGER_new                                  output.o
ASN1_INTEGER_set                                  output.o
ASN1_INTEGER_to_BN                                output.o
ASN1_NULL_free                                    output.o
ASN1_NULL_it                                      output.o
ASN1_NULL_new                                     output.o
ASN1_OBJECT_create                                output.o
ASN1_OBJECT_free                                  output.o
ASN1_OBJECT_it                                    output.o
ASN1_OBJECT_new                                   output.o
ASN1_OCTET_STRING_NDEF_it                         output.o
ASN1_OCTET_STRING_cmp                             output.o
ASN1_OCTET_STRING_dup                             output.o
ASN1_OCTET_STRING_free                            output.o
ASN1_OCTET_STRING_it                              output.o
ASN1_OCTET_STRING_new                             output.o
ASN1_OCTET_STRING_set                             output.o
ASN1_PCTX_free                                    output.o
ASN1_PCTX_get_cert_flags                          output.o
ASN1_PCTX_get_flags                               output.o
ASN1_PCTX_get_nm_flags                            output.o
ASN1_PCTX_get_oid_flags                           output.o
ASN1_PCTX_get_str_flags                           output.o
ASN1_PCTX_new                                     output.o
ASN1_PCTX_set_cert_flags                          output.o
ASN1_PCTX_set_flags                               output.o
ASN1_PCTX_set_nm_flags                            output.o
ASN1_PCTX_set_oid_flags                           output.o
ASN1_PCTX_set_str_flags                           output.o
ASN1_PRINTABLESTRING_free                         output.o
ASN1_PRINTABLESTRING_it                           output.o
ASN1_PRINTABLESTRING_new                          output.o
ASN1_PRINTABLE_free                               output.o
ASN1_PRINTABLE_it                                 output.o
ASN1_PRINTABLE_new                                output.o
ASN1_PRINTABLE_type                               output.o
ASN1_SEQUENCE_ANY_it                              output.o
ASN1_SEQUENCE_it                                  output.o
ASN1_SET_ANY_it                                   output.o
ASN1_STRING_TABLE_add                             output.o
ASN1_STRING_TABLE_cleanup                         output.o
ASN1_STRING_TABLE_get                             output.o
ASN1_STRING_cmp                                   output.o
ASN1_STRING_copy                                  output.o
ASN1_STRING_data                                  output.o
ASN1_STRING_dup                                   output.o
ASN1_STRING_free                                  output.o
ASN1_STRING_get_default_mask                      output.o
ASN1_STRING_length                                output.o
ASN1_STRING_length_set                            output.o
ASN1_STRING_new                                   output.o
ASN1_STRING_print                                 output.o
ASN1_STRING_print_ex                              output.o
ASN1_STRING_set                                   output.o
ASN1_STRING_set0                                  output.o
ASN1_STRING_set_by_NID                            output.o
ASN1_STRING_set_default_mask                      output.o
ASN1_STRING_set_default_mask_asc                  output.o
ASN1_STRING_to_UTF8                               output.o
ASN1_STRING_type                                  output.o
ASN1_STRING_type_new                              output.o
ASN1_T61STRING_free                               output.o
ASN1_T61STRING_it                                 output.o
ASN1_T61STRING_new                                output.o
ASN1_TBOOLEAN_it                                  output.o
ASN1_TIME_adj                                     output.o
ASN1_TIME_check                                   output.o
ASN1_TIME_free                                    output.o
ASN1_TIME_it                                      output.o
ASN1_TIME_new                                     output.o
ASN1_TIME_print                                   output.o
ASN1_TIME_set                                     output.o
ASN1_TIME_set_string                              output.o
ASN1_TIME_to_generalizedtime                      output.o
ASN1_TYPE_cmp                                     output.o
ASN1_TYPE_free                                    output.o
ASN1_TYPE_get                                     output.o
ASN1_TYPE_get_int_octetstring                     output.o
ASN1_TYPE_get_octetstring                         output.o
ASN1_TYPE_new                                     output.o
ASN1_TYPE_set                                     output.o
ASN1_TYPE_set1                                    output.o
ASN1_TYPE_set_int_octetstring                     output.o
ASN1_TYPE_set_octetstring                         output.o
ASN1_UNIVERSALSTRING_free                         output.o
ASN1_UNIVERSALSTRING_it                           output.o
ASN1_UNIVERSALSTRING_new                          output.o
ASN1_UNIVERSALSTRING_to_string                    output.o
ASN1_UTCTIME_adj                                  output.o
ASN1_UTCTIME_check                                output.o
ASN1_UTCTIME_cmp_time_t                           output.o
ASN1_UTCTIME_free                                 output.o
ASN1_UTCTIME_it                                   output.o
ASN1_UTCTIME_new                                  output.o
ASN1_UTCTIME_print                                output.o
ASN1_UTCTIME_set                                  output.o
ASN1_UTCTIME_set_string                           output.o
ASN1_UTF8STRING_free                              output.o
ASN1_UTF8STRING_it                                output.o
ASN1_UTF8STRING_new                               output.o
ASN1_VISIBLESTRING_free                           output.o
ASN1_VISIBLESTRING_it                             output.o
ASN1_VISIBLESTRING_new                            output.o
ASN1_bn_print                                     output.o
ASN1_check_infinite_end                           output.o
ASN1_const_check_infinite_end                     output.o
ASN1_d2i_bio                                      output.o
ASN1_digest                                       output.o
ASN1_dup                                          output.o
ASN1_generate_nconf                               output.o
ASN1_generate_v3                                  output.o
ASN1_get_object                                   output.o
ASN1_i2d_bio                                      output.o
ASN1_item_d2i                                     output.o
ASN1_item_d2i_bio                                 output.o
ASN1_item_digest                                  output.o
ASN1_item_dup                                     output.o
ASN1_item_ex_d2i                                  output.o
ASN1_item_ex_free                                 output.o
ASN1_item_ex_i2d                                  output.o
ASN1_item_ex_new                                  output.o
ASN1_item_free                                    output.o
ASN1_item_i2d                                     output.o
ASN1_item_i2d_bio                                 output.o
ASN1_item_ndef_i2d                                output.o
ASN1_item_new                                     output.o
ASN1_item_pack                                    output.o
ASN1_item_print                                   output.o
ASN1_item_sign                                    output.o
ASN1_item_unpack                                  output.o
ASN1_item_verify                                  output.o
ASN1_mbstring_copy                                output.o
ASN1_mbstring_ncopy                               output.o
ASN1_object_size                                  output.o
ASN1_pack_string                                  output.o
ASN1_parse                                        output.o
ASN1_parse_dump                                   output.o
ASN1_primitive_free                               output.o
ASN1_primitive_new                                output.o
ASN1_put_eoc                                      output.o
ASN1_put_object                                   output.o
ASN1_seq_pack                                     output.o
ASN1_seq_unpack                                   output.o
ASN1_sign                                         output.o
ASN1_tag2bit                                      output.o
ASN1_tag2str                                      output.o
ASN1_template_d2i                                 output.o
ASN1_template_free                                output.o
ASN1_template_i2d                                 output.o
ASN1_template_new                                 output.o
ASN1_unpack_string                                output.o
ASN1_verify                                       output.o
ASN1_version                                      output.o
AUTHORITY_INFO_ACCESS_free                        output.o
AUTHORITY_INFO_ACCESS_it                          output.o
AUTHORITY_INFO_ACCESS_new                         output.o
AUTHORITY_KEYID_free                              output.o
AUTHORITY_KEYID_it                                output.o
AUTHORITY_KEYID_new                               output.o
AddCertDataByBuf                                  output.o
AddElem                                           output.o
AddIdPassDataByBuf                                output.o
AddObjTblByTlv                                    output.o
BASIC_CONSTRAINTS_free                            output.o
BASIC_CONSTRAINTS_it                              output.o
BASIC_CONSTRAINTS_new                             output.o
BF_cbc_encrypt                                    output.o
BF_cfb64_encrypt                                  output.o
BF_decrypt                                        output.o
BF_ecb_encrypt                                    output.o
BF_encrypt                                        output.o
BF_ofb64_encrypt                                  output.o
BF_options                                        output.o
BF_set_key                                        output.o
BF_version                                        output.o
BIGNUM_it                                         output.o
BIO_asn1_get_prefix                               output.o
BIO_asn1_get_suffix                               output.o
BIO_asn1_set_prefix                               output.o
BIO_asn1_set_suffix                               output.o
BIO_callback_ctrl                                 output.o
BIO_clear_flags                                   output.o
BIO_copy_next_retry                               output.o
BIO_ctrl                                          output.o
BIO_ctrl_pending                                  output.o
BIO_ctrl_wpending                                 output.o
BIO_dump                                          output.o
BIO_dump_cb                                       output.o
BIO_dump_indent                                   output.o
BIO_dump_indent_cb                                output.o
BIO_dup_chain                                     output.o
BIO_f_asn1                                        output.o
BIO_f_base64                                      output.o
BIO_f_buffer                                      output.o
BIO_f_cipher                                      output.o
BIO_f_md                                          output.o
BIO_find_type                                     output.o
BIO_free                                          output.o
BIO_free_all                                      output.o
BIO_get_callback                                  output.o
BIO_get_callback_arg                              output.o
BIO_get_ex_data                                   output.o
BIO_get_ex_new_index                              output.o
BIO_get_retry_BIO                                 output.o
BIO_get_retry_reason                              output.o
BIO_gets                                          output.o
BIO_indent                                        output.o
BIO_int_ctrl                                      output.o
BIO_method_name                                   output.o
BIO_method_type                                   output.o
BIO_new                                           output.o
BIO_new_CMS                                       output.o
BIO_new_NDEF                                      output.o
BIO_new_mem_buf                                   output.o
BIO_next                                          output.o
BIO_number_read                                   output.o
BIO_number_written                                output.o
BIO_pop                                           output.o
BIO_printf                                        output.o
BIO_ptr_ctrl                                      output.o
BIO_push                                          output.o
BIO_puts                                          output.o
BIO_read                                          output.o
BIO_s_mem                                         output.o
BIO_s_null                                        output.o
BIO_set                                           output.o
BIO_set_callback                                  output.o
BIO_set_callback_arg                              output.o
BIO_set_cipher                                    output.o
BIO_set_ex_data                                   output.o
BIO_set_flags                                     output.o
BIO_snprintf                                      output.o
BIO_test_flags                                    output.o
BIO_vfree                                         output.o
BIO_write                                         output.o
BN_BLINDING_convert                               output.o
BN_BLINDING_convert_ex                            output.o
BN_BLINDING_create_param                          output.o
BN_BLINDING_free                                  output.o
BN_BLINDING_get_flags                             output.o
BN_BLINDING_get_thread_id                         output.o
BN_BLINDING_invert                                output.o
BN_BLINDING_invert_ex                             output.o
BN_BLINDING_new                                   output.o
BN_BLINDING_set_flags                             output.o
BN_BLINDING_set_thread_id                         output.o
BN_BLINDING_thread_id                             output.o
BN_BLINDING_update                                output.o
BN_CTX_end                                        output.o
BN_CTX_free                                       output.o
BN_CTX_get                                        output.o
BN_CTX_init                                       output.o
BN_CTX_new                                        output.o
BN_CTX_start                                      output.o
BN_GENCB_call                                     output.o
BN_GF2m_add                                       output.o
BN_GF2m_arr2poly                                  output.o
BN_GF2m_mod                                       output.o
BN_GF2m_mod_arr                                   output.o
BN_GF2m_mod_div                                   output.o
BN_GF2m_mod_div_arr                               output.o
BN_GF2m_mod_exp                                   output.o
BN_GF2m_mod_exp_arr                               output.o
BN_GF2m_mod_inv                                   output.o
BN_GF2m_mod_inv_arr                               output.o
BN_GF2m_mod_mul                                   output.o
BN_GF2m_mod_mul_arr                               output.o
BN_GF2m_mod_solve_quad                            output.o
BN_GF2m_mod_solve_quad_arr                        output.o
BN_GF2m_mod_sqr                                   output.o
BN_GF2m_mod_sqr_arr                               output.o
BN_GF2m_mod_sqrt                                  output.o
BN_GF2m_mod_sqrt_arr                              output.o
BN_GF2m_poly2arr                                  output.o
BN_MONT_CTX_copy                                  output.o
BN_MONT_CTX_free                                  output.o
BN_MONT_CTX_init                                  output.o
BN_MONT_CTX_new                                   output.o
BN_MONT_CTX_set                                   output.o
BN_MONT_CTX_set_locked                            output.o
BN_RECP_CTX_free                                  output.o
BN_RECP_CTX_init                                  output.o
BN_RECP_CTX_new                                   output.o
BN_RECP_CTX_set                                   output.o
BN_add                                            output.o
BN_add_word                                       output.o
BN_asc2bn                                         output.o
BN_bin2bn                                         output.o
BN_bn2bin                                         output.o
BN_bn2dec                                         output.o
BN_bn2hex                                         output.o
BN_bntest_rand                                    output.o
BN_clear                                          output.o
BN_clear_bit                                      output.o
BN_clear_free                                     output.o
BN_cmp                                            output.o
BN_copy                                           output.o
BN_dec2bn                                         output.o
BN_div                                            output.o
BN_div_recp                                       output.o
BN_div_word                                       output.o
BN_dup                                            output.o
BN_exp                                            output.o
BN_free                                           output.o
BN_from_montgomery                                output.o
BN_gcd                                            output.o
BN_generate_prime_ex                              output.o
BN_get0_nist_prime_192                            output.o
BN_get0_nist_prime_224                            output.o
BN_get0_nist_prime_256                            output.o
BN_get0_nist_prime_384                            output.o
BN_get0_nist_prime_521                            output.o
BN_get_params                                     output.o
BN_get_word                                       output.o
BN_hex2bn                                         output.o
BN_init                                           output.o
BN_is_bit_set                                     output.o
BN_is_prime_ex                                    output.o
BN_is_prime_fasttest_ex                           output.o
BN_kronecker                                      output.o
BN_lshift                                         output.o
BN_lshift1                                        output.o
BN_mask_bits                                      output.o
BN_mod_add                                        output.o
BN_mod_add_quick                                  output.o
BN_mod_exp                                        output.o
BN_mod_exp2_mont                                  output.o
BN_mod_exp_mont                                   output.o
BN_mod_exp_mont_consttime                         output.o
BN_mod_exp_mont_word                              output.o
BN_mod_exp_recp                                   output.o
BN_mod_exp_simple                                 output.o
BN_mod_inverse                                    output.o
BN_mod_lshift                                     output.o
BN_mod_lshift1                                    output.o
BN_mod_lshift1_quick                              output.o
BN_mod_lshift_quick                               output.o
BN_mod_mul                                        output.o
BN_mod_mul_montgomery                             output.o
BN_mod_mul_reciprocal                             output.o
BN_mod_sqr                                        output.o
BN_mod_sqrt                                       output.o
BN_mod_sub                                        output.o
BN_mod_sub_quick                                  output.o
BN_mod_word                                       output.o
BN_mul                                            output.o
BN_mul_word                                       output.o
BN_new                                            output.o
BN_nist_mod_192                                   output.o
BN_nist_mod_224                                   output.o
BN_nist_mod_256                                   output.o
BN_nist_mod_384                                   output.o
BN_nist_mod_521                                   output.o
BN_nnmod                                          output.o
BN_num_bits                                       output.o
BN_num_bits_word                                  output.o
BN_options                                        output.o
BN_print                                          output.o
BN_pseudo_rand                                    output.o
BN_pseudo_rand_range                              output.o
BN_rand                                           output.o
BN_rand_range                                     output.o
BN_reciprocal                                     output.o
BN_rshift                                         output.o
BN_rshift1                                        output.o
BN_set_bit                                        output.o
BN_set_negative                                   output.o
BN_set_params                                     output.o
BN_set_word                                       output.o
BN_sqr                                            output.o
BN_sub                                            output.o
BN_sub_word                                       output.o
BN_swap                                           output.o
BN_to_ASN1_ENUMERATED                             output.o
BN_to_ASN1_INTEGER                                output.o
BN_uadd                                           output.o
BN_ucmp                                           output.o
BN_usub                                           output.o
BN_value_one                                      output.o
BN_version                                        output.o
BUF_MEM_free                                      output.o
BUF_MEM_grow                                      output.o
BUF_MEM_grow_clean                                output.o
BUF_MEM_new                                       output.o
BUF_memdup                                        output.o
BUF_reverse                                       output.o
BUF_strdup                                        output.o
BUF_strlcat                                       output.o
BUF_strlcpy                                       output.o
BUF_strndup                                       output.o
BlockSendCardT1                                   output.o
CAST_S_table0                                     output.o
CAST_S_table1                                     output.o
CAST_S_table2                                     output.o
CAST_S_table3                                     output.o
CAST_S_table4                                     output.o
CAST_S_table5                                     output.o
CAST_S_table6                                     output.o
CAST_S_table7                                     output.o
CAST_cbc_encrypt                                  output.o
CAST_cfb64_encrypt                                output.o
CAST_decrypt                                      output.o
CAST_ecb_encrypt                                  output.o
CAST_encrypt                                      output.o
CAST_ofb64_encrypt                                output.o
CAST_set_key                                      output.o
CAST_version                                      output.o
CBIGNUM_it                                        output.o
CERTIFICATEPOLICIES_free                          output.o
CERTIFICATEPOLICIES_it                            output.o
CERTIFICATEPOLICIES_new                           output.o
CMS_Attributes_Sign_it                            output.o
CMS_Attributes_Verify_it                          output.o
CMS_AuthenticatedData_it                          output.o
CMS_CertificateChoices_it                         output.o
CMS_CompressedData_it                             output.o
CMS_ContentInfo_free                              output.o
CMS_ContentInfo_it                                output.o
CMS_ContentInfo_new                               output.o
CMS_ContentInfo_print_ctx                         output.o
CMS_DigestedData_it                               output.o
CMS_EncapsulatedContentInfo_it                    output.o
CMS_EncryptedContentInfo_it                       output.o
CMS_EncryptedData_it                              output.o
CMS_EncryptedData_set1_key                        output.o
CMS_EnvelopedData_create                          output.o
CMS_EnvelopedData_it                              output.o
CMS_IssuerAndSerialNumber_it                      output.o
CMS_KEKIdentifier_it                              output.o
CMS_KEKRecipientInfo_it                           output.o
CMS_KeyAgreeRecipientIdentifier_it                output.o
CMS_KeyAgreeRecipientInfo_it                      output.o
CMS_KeyTransRecipientInfo_it                      output.o
CMS_OriginatorIdentifierOrKey_it                  output.o
CMS_OriginatorInfo_it                             output.o
CMS_OriginatorPublicKey_it                        output.o
CMS_OtherCertificateFormat_it                     output.o
CMS_OtherKeyAttribute_it                          output.o
CMS_OtherRecipientInfo_it                         output.o
CMS_OtherRevocationInfoFormat_it                  output.o
CMS_PasswordRecipientInfo_it                      output.o
CMS_ReceiptRequest_it                             output.o
CMS_Receipt_it                                    output.o
CMS_ReceiptsFrom_it                               output.o
CMS_RecipientEncryptedKey_it                      output.o
CMS_RecipientInfo_decrypt                         output.o
CMS_RecipientInfo_it                              output.o
CMS_RecipientInfo_kekri_get0_id                   output.o
CMS_RecipientInfo_kekri_id_cmp                    output.o
CMS_RecipientInfo_ktri_cert_cmp                   output.o
CMS_RecipientInfo_ktri_get0_algs                  output.o
CMS_RecipientInfo_ktri_get0_signer_id             output.o
CMS_RecipientInfo_set0_key                        output.o
CMS_RecipientInfo_set0_pkey                       output.o
CMS_RecipientInfo_type                            output.o
CMS_RecipientKeyIdentifier_it                     output.o
CMS_RevocationInfoChoice_it                       output.o
CMS_SignedData_init                               output.o
CMS_SignedData_it                                 output.o
CMS_SignerIdentifier_it                           output.o
CMS_SignerInfo_cert_cmp                           output.o
CMS_SignerInfo_get0_algs                          output.o
CMS_SignerInfo_get0_signer_id                     output.o
CMS_SignerInfo_it                                 output.o
CMS_SignerInfo_set1_signer_cert                   output.o
CMS_SignerInfo_sign                               output.o
CMS_SignerInfo_verify                             output.o
CMS_SignerInfo_verify_content                     output.o
CMS_add0_CertificateChoices                       output.o
CMS_add0_RevocationInfoChoice                     output.o
CMS_add0_cert                                     output.o
CMS_add0_crl                                      output.o
CMS_add0_recipient_key                            output.o
CMS_add1_cert                                     output.o
CMS_add1_crl                                      output.o
CMS_add1_recipient_cert                           output.o
CMS_add1_signer                                   output.o
CMS_add_simple_smimecap                           output.o
CMS_add_smimecap                                  output.o
CMS_add_standard_smimecap                         output.o
CMS_dataFinal                                     output.o
CMS_dataInit                                      output.o
CMS_get0_RecipientInfos                           output.o
CMS_get0_SignerInfos                              output.o
CMS_get0_content                                  output.o
CMS_get0_eContentType                             output.o
CMS_get0_signers                                  output.o
CMS_get0_type                                     output.o
CMS_get1_certs                                    output.o
CMS_get1_crls                                     output.o
CMS_is_detached                                   output.o
CMS_set1_eContentType                             output.o
CMS_set1_signers_certs                            output.o
CMS_set_detached                                  output.o
CMS_signed_add1_attr                              output.o
CMS_signed_add1_attr_by_NID                       output.o
CMS_signed_add1_attr_by_OBJ                       output.o
CMS_signed_add1_attr_by_txt                       output.o
CMS_signed_delete_attr                            output.o
CMS_signed_get0_data_by_OBJ                       output.o
CMS_signed_get_attr                               output.o
CMS_signed_get_attr_by_NID                        output.o
CMS_signed_get_attr_by_OBJ                        output.o
CMS_signed_get_attr_count                         output.o
CMS_stream                                        output.o
CMS_unsigned_add1_attr                            output.o
CMS_unsigned_add1_attr_by_NID                     output.o
CMS_unsigned_add1_attr_by_OBJ                     output.o
CMS_unsigned_add1_attr_by_txt                     output.o
CMS_unsigned_delete_attr                          output.o
CMS_unsigned_get0_data_by_OBJ                     output.o
CMS_unsigned_get_attr                             output.o
CMS_unsigned_get_attr_by_NID                      output.o
CMS_unsigned_get_attr_by_OBJ                      output.o
CMS_unsigned_get_attr_count                       output.o
CONF_def_version                                  output.o
CONF_dump_bio                                     output.o
CONF_free                                         output.o
CONF_get1_default_config_file                     output.o
CONF_get_number                                   output.o
CONF_get_section                                  output.o
CONF_get_string                                   output.o
CONF_imodule_get_flags                            output.o
CONF_imodule_get_module                           output.o
CONF_imodule_get_name                             output.o
CONF_imodule_get_usr_data                         output.o
CONF_imodule_get_value                            output.o
CONF_imodule_set_flags                            output.o
CONF_imodule_set_usr_data                         output.o
CONF_load                                         output.o
CONF_load_bio                                     output.o
CONF_module_add                                   output.o
CONF_module_get_usr_data                          output.o
CONF_module_set_usr_data                          output.o
CONF_modules_finish                               output.o
CONF_modules_free                                 output.o
CONF_modules_load                                 output.o
CONF_modules_load_file                            output.o
CONF_modules_unload                               output.o
CONF_parse_list                                   output.o
CONF_set_default_method                           output.o
CONF_set_nconf                                    output.o
CONF_version                                      output.o
CRL_DIST_POINTS_free                              output.o
CRL_DIST_POINTS_it                                output.o
CRL_DIST_POINTS_new                               output.o
CRYPTO_THREADID_cmp                               output.o
CRYPTO_THREADID_cpy                               output.o
CRYPTO_THREADID_current                           output.o
CRYPTO_THREADID_get_callback                      output.o
CRYPTO_THREADID_hash                              output.o
CRYPTO_THREADID_set_callback                      output.o
CRYPTO_THREADID_set_numeric                       output.o
CRYPTO_THREADID_set_pointer                       output.o
CRYPTO_add_lock                                   output.o
CRYPTO_cbc128_decrypt                             output.o
CRYPTO_cbc128_encrypt                             output.o
CRYPTO_cfb128_1_encrypt                           output.o
CRYPTO_cfb128_8_encrypt                           output.o
CRYPTO_cfb128_encrypt                             output.o
CRYPTO_cleanup_all_ex_data                        output.o
CRYPTO_dbg_free                                   output.o
CRYPTO_dbg_get_options                            output.o
CRYPTO_dbg_malloc                                 output.o
CRYPTO_dbg_realloc                                output.o
CRYPTO_dbg_set_options                            output.o
CRYPTO_destroy_dynlockid                          output.o
CRYPTO_dup_ex_data                                output.o
CRYPTO_ex_data_new_class                          output.o
CRYPTO_free                                       output.o
CRYPTO_free_ex_data                               output.o
CRYPTO_free_locked                                output.o
CRYPTO_get_add_lock_callback                      output.o
CRYPTO_get_dynlock_create_callback                output.o
CRYPTO_get_dynlock_destroy_callback               output.o
CRYPTO_get_dynlock_lock_callback                  output.o
CRYPTO_get_dynlock_value                          output.o
CRYPTO_get_ex_data                                output.o
CRYPTO_get_ex_data_implementation                 output.o
CRYPTO_get_ex_new_index                           output.o
CRYPTO_get_id_callback                            output.o
CRYPTO_get_lock_name                              output.o
CRYPTO_get_locked_mem_ex_functions                output.o
CRYPTO_get_locked_mem_functions                   output.o
CRYPTO_get_locking_callback                       output.o
CRYPTO_get_mem_debug_functions                    output.o
CRYPTO_get_mem_debug_options                      output.o
CRYPTO_get_mem_ex_functions                       output.o
CRYPTO_get_mem_functions                          output.o
CRYPTO_get_new_dynlockid                          output.o
CRYPTO_get_new_lockid                             output.o
CRYPTO_is_mem_check_on                            output.o
CRYPTO_lock                                       output.o
CRYPTO_malloc                                     output.o
CRYPTO_malloc_locked                              output.o
CRYPTO_mem_ctrl                                   output.o
CRYPTO_mem_leaks                                  output.o
CRYPTO_mem_leaks_cb                               output.o
CRYPTO_new_ex_data                                output.o
CRYPTO_num_locks                                  output.o
CRYPTO_ofb128_encrypt                             output.o
CRYPTO_pop_info                                   output.o
CRYPTO_push_info_                                 output.o
CRYPTO_realloc                                    output.o
CRYPTO_realloc_clean                              output.o
CRYPTO_remalloc                                   output.o
CRYPTO_remove_all_info                            output.o
CRYPTO_set_add_lock_callback                      output.o
CRYPTO_set_dynlock_create_callback                output.o
CRYPTO_set_dynlock_destroy_callback               output.o
CRYPTO_set_dynlock_lock_callback                  output.o
CRYPTO_set_ex_data                                output.o
CRYPTO_set_ex_data_implementation                 output.o
CRYPTO_set_id_callback                            output.o
CRYPTO_set_locked_mem_ex_functions                output.o
CRYPTO_set_locked_mem_functions                   output.o
CRYPTO_set_locking_callback                       output.o
CRYPTO_set_mem_debug_functions                    output.o
CRYPTO_set_mem_debug_options                      output.o
CRYPTO_set_mem_ex_functions                       output.o
CRYPTO_set_mem_functions                          output.o
CRYPTO_strdup                                     output.o
CRYPTO_thread_id                                  output.o
C_CloseAllSessions                                output.o
C_CloseSession                                    output.o
C_CreateObject                                    output.o
C_DestroyObject                                   output.o
C_DigestFinal                                     output.o
C_DigestInit                                      output.o
C_DigestUpdate                                    output.o
C_Finalize                                        output.o
C_FindObjects                                     output.o
C_FindObjectsFinal                                output.o
C_FindObjectsInit                                 output.o
C_GetAttributeValue                               output.o
C_GetCardStatus                                   output.o
C_GetFunctionList                                 output.o
C_GetInfo                                         output.o
C_GetMechanismInfo                                output.o
C_GetMechanismList                                output.o
C_GetSessionInfo                                  output.o
C_GetSlotInfo                                     output.o
C_GetSlotList                                     output.o
C_GetTokenInfo                                    output.o
C_Initialize                                      output.o
C_Login                                           output.o
C_Logout                                          output.o
C_OpenSession                                     output.o
C_SetAttributeValue                               output.o
C_Sign                                            output.o
C_SignInit                                        output.o
C_Verify                                          output.o
C_VerifyInit                                      output.o
CardConnect                                       output.o
CardDisconnect                                    output.o
CardEstablishContext                              output.o
CardListReaders                                   output.o
CardMechanical                                    output.o
CardReleaseContext                                output.o
CardStateConfirm                                  output.o
CardStatus                                        output.o
CardTransmit                                      output.o
CloseUSB                                          output.o
DES_SPtrans                                       output.o
DES_cfb64_encrypt                                 output.o
DES_cfb_encrypt                                   output.o
DES_check_key_parity                              output.o
DES_decrypt3                                      output.o
DES_ecb3_encrypt                                  output.o
DES_ecb_encrypt                                   output.o
DES_ede3_cbc_encrypt                              output.o
DES_ede3_cfb64_encrypt                            output.o
DES_ede3_cfb_encrypt                              output.o
DES_ede3_ofb64_encrypt                            output.o
DES_encrypt1                                      output.o
DES_encrypt2                                      output.o
DES_encrypt3                                      output.o
DES_is_weak_key                                   output.o
DES_key_sched                                     output.o
DES_ncbc_encrypt                                  output.o
DES_ofb64_encrypt                                 output.o
DES_options                                       output.o
DES_random_key                                    output.o
DES_set_key                                       output.o
DES_set_key_checked                               output.o
DES_set_key_unchecked                             output.o
DES_set_odd_parity                                output.o
DES_xcbc_encrypt                                  output.o
DH_OpenSSL                                        output.o
DH_check                                          output.o
DH_check_pub_key                                  output.o
DH_compute_key                                    output.o
DH_free                                           output.o
DH_generate_key                                   output.o
DH_generate_parameters_ex                         output.o
DH_get_default_method                             output.o
DH_get_ex_data                                    output.o
DH_get_ex_new_index                               output.o
DH_new                                            output.o
DH_new_method                                     output.o
DH_set_default_method                             output.o
DH_set_ex_data                                    output.o
DH_set_method                                     output.o
DH_size                                           output.o
DH_up_ref                                         output.o
DH_version                                        output.o
DHparams_dup                                      output.o
DHparams_it                                       output.o
DHparams_print                                    output.o
DI                                                output.o
DIRECTORYSTRING_free                              output.o
DIRECTORYSTRING_it                                output.o
DIRECTORYSTRING_new                               output.o
DISPLAYTEXT_free                                  output.o
DISPLAYTEXT_it                                    output.o
DISPLAYTEXT_new                                   output.o
DIST_POINT_NAME_free                              output.o
DIST_POINT_NAME_it                                output.o
DIST_POINT_NAME_new                               output.o
DIST_POINT_free                                   output.o
DIST_POINT_it                                     output.o
DIST_POINT_new                                    output.o
DIST_POINT_set_dpname                             output.o
DSAPrivateKey_it                                  output.o
DSAPublicKey_it                                   output.o
DSA_OpenSSL                                       output.o
DSA_SIG_free                                      output.o
DSA_SIG_it                                        output.o
DSA_SIG_new                                       output.o
DSA_do_sign                                       output.o
DSA_do_verify                                     output.o
DSA_dup_DH                                        output.o
DSA_free                                          output.o
DSA_generate_key                                  output.o
DSA_generate_parameters_ex                        output.o
DSA_get_default_method                            output.o
DSA_get_ex_data                                   output.o
DSA_get_ex_new_index                              output.o
DSA_new                                           output.o
DSA_new_method                                    output.o
DSA_set_default_method                            output.o
DSA_set_ex_data                                   output.o
DSA_set_method                                    output.o
DSA_sign                                          output.o
DSA_sign_setup                                    output.o
DSA_size                                          output.o
DSA_up_ref                                        output.o
DSA_verify                                        output.o
DSA_version                                       output.o
DSAparams_dup                                     output.o
DSAparams_it                                      output.o
DSO_METHOD_null                                   output.o
DSO_METHOD_openssl                                output.o
DSO_bind_func                                     output.o
DSO_bind_var                                      output.o
DSO_convert_filename                              output.o
DSO_ctrl                                          output.o
DSO_flags                                         output.o
DSO_free                                          output.o
DSO_get_default_method                            output.o
DSO_get_filename                                  output.o
DSO_get_loaded_filename                           output.o
DSO_get_method                                    output.o
DSO_global_lookup                                 output.o
DSO_load                                          output.o
DSO_merge                                         output.o
DSO_new                                           output.o
DSO_new_method                                    output.o
DSO_pathbyaddr                                    output.o
DSO_set_default_method                            output.o
DSO_set_filename                                  output.o
DSO_set_method                                    output.o
DSO_set_name_converter                            output.o
DSO_up_ref                                        output.o
DelElem                                           output.o
DestroyAttribute                                  output.o
DestroyElem                                       output.o
DestroyList                                       output.o
DestroySessionData                                output.o
DestroySlotData                                   output.o
DestroyTlvData                                    output.o
DestroyTokenData                                  output.o
ECDH_OpenSSL                                      output.o
ECDH_compute_key                                  output.o
ECDH_get_default_method                           output.o
ECDH_get_ex_data                                  output.o
ECDH_get_ex_new_index                             output.o
ECDH_set_default_method                           output.o
ECDH_set_ex_data                                  output.o
ECDH_set_method                                   output.o
ECDH_version                                      output.o
ECDSA_OpenSSL                                     output.o
ECDSA_SIG_free                                    output.o
ECDSA_SIG_it                                      output.o
ECDSA_SIG_new                                     output.o
ECDSA_do_sign                                     output.o
ECDSA_do_sign_ex                                  output.o
ECDSA_do_verify                                   output.o
ECDSA_get_default_method                          output.o
ECDSA_get_ex_data                                 output.o
ECDSA_get_ex_new_index                            output.o
ECDSA_set_default_method                          output.o
ECDSA_set_ex_data                                 output.o
ECDSA_set_method                                  output.o
ECDSA_sign                                        output.o
ECDSA_sign_ex                                     output.o
ECDSA_sign_setup                                  output.o
ECDSA_size                                        output.o
ECDSA_verify                                      output.o
ECDSA_version                                     output.o
ECPARAMETERS_free                                 output.o
ECPARAMETERS_it                                   output.o
ECPARAMETERS_new                                  output.o
ECPKPARAMETERS_free                               output.o
ECPKPARAMETERS_it                                 output.o
ECPKPARAMETERS_new                                output.o
ECPKParameters_print                              output.o
ECParameters_print                                output.o
EC_EX_DATA_clear_free_all_data                    output.o
EC_EX_DATA_clear_free_data                        output.o
EC_EX_DATA_free_all_data                          output.o
EC_EX_DATA_free_data                              output.o
EC_EX_DATA_get_data                               output.o
EC_EX_DATA_set_data                               output.o
EC_GF2m_simple_method                             output.o
EC_GFp_mont_method                                output.o
EC_GFp_nist_method                                output.o
EC_GFp_simple_method                              output.o
EC_GROUP_check_discriminant                       output.o
EC_GROUP_clear_free                               output.o
EC_GROUP_cmp                                      output.o
EC_GROUP_copy                                     output.o
EC_GROUP_dup                                      output.o
EC_GROUP_free                                     output.o
EC_GROUP_get0_generator                           output.o
EC_GROUP_get0_seed                                output.o
EC_GROUP_get_asn1_flag                            output.o
EC_GROUP_get_basis_type                           output.o
EC_GROUP_get_cofactor                             output.o
EC_GROUP_get_curve_GF2m                           output.o
EC_GROUP_get_curve_GFp                            output.o
EC_GROUP_get_curve_name                           output.o
EC_GROUP_get_degree                               output.o
EC_GROUP_get_order                                output.o
EC_GROUP_get_pentanomial_basis                    output.o
EC_GROUP_get_point_conversion_form                output.o
EC_GROUP_get_seed_len                             output.o
EC_GROUP_get_trinomial_basis                      output.o
EC_GROUP_have_precompute_mult                     output.o
EC_GROUP_method_of                                output.o
EC_GROUP_new                                      output.o
EC_GROUP_new_by_curve_name                        output.o
EC_GROUP_new_curve_GF2m                           output.o
EC_GROUP_new_curve_GFp                            output.o
EC_GROUP_precompute_mult                          output.o
EC_GROUP_set_asn1_flag                            output.o
EC_GROUP_set_curve_GF2m                           output.o
EC_GROUP_set_curve_GFp                            output.o
EC_GROUP_set_curve_name                           output.o
EC_GROUP_set_generator                            output.o
EC_GROUP_set_point_conversion_form                output.o
EC_GROUP_set_seed                                 output.o
EC_KEY_check_key                                  output.o
EC_KEY_copy                                       output.o
EC_KEY_dup                                        output.o
EC_KEY_free                                       output.o
EC_KEY_generate_key                               output.o
EC_KEY_get0_group                                 output.o
EC_KEY_get0_private_key                           output.o
EC_KEY_get0_public_key                            output.o
EC_KEY_get_conv_form                              output.o
EC_KEY_get_enc_flags                              output.o
EC_KEY_get_key_method_data                        output.o
EC_KEY_insert_key_method_data                     output.o
EC_KEY_new                                        output.o
EC_KEY_new_by_curve_name                          output.o
EC_KEY_precompute_mult                            output.o
EC_KEY_print                                      output.o
EC_KEY_set_asn1_flag                              output.o
EC_KEY_set_conv_form                              output.o
EC_KEY_set_enc_flags                              output.o
EC_KEY_set_group                                  output.o
EC_KEY_set_private_key                            output.o
EC_KEY_set_public_key                             output.o
EC_KEY_up_ref                                     output.o
EC_METHOD_get_field_type                          output.o
EC_POINT_add                                      output.o
EC_POINT_bn2point                                 output.o
EC_POINT_clear_free                               output.o
EC_POINT_cmp                                      output.o
EC_POINT_copy                                     output.o
EC_POINT_dbl                                      output.o
EC_POINT_dup                                      output.o
EC_POINT_free                                     output.o
EC_POINT_get_Jprojective_coordinates_GFp          output.o
EC_POINT_get_affine_coordinates_GF2m              output.o
EC_POINT_get_affine_coordinates_GFp               output.o
EC_POINT_hex2point                                output.o
EC_POINT_invert                                   output.o
EC_POINT_is_at_infinity                           output.o
EC_POINT_is_on_curve                              output.o
EC_POINT_make_affine                              output.o
EC_POINT_method_of                                output.o
EC_POINT_mul                                      output.o
EC_POINT_new                                      output.o
EC_POINT_oct2point                                output.o
EC_POINT_point2bn                                 output.o
EC_POINT_point2hex                                output.o
EC_POINT_point2oct                                output.o
EC_POINT_set_Jprojective_coordinates_GFp          output.o
EC_POINT_set_affine_coordinates_GF2m              output.o
EC_POINT_set_affine_coordinates_GFp               output.o
EC_POINT_set_compressed_coordinates_GF2m          output.o
EC_POINT_set_compressed_coordinates_GFp           output.o
EC_POINT_set_to_infinity                          output.o
EC_POINTs_make_affine                             output.o
EC_POINTs_mul                                     output.o
EC_PRIVATEKEY_free                                output.o
EC_PRIVATEKEY_it                                  output.o
EC_PRIVATEKEY_new                                 output.o
EC_get_builtin_curves                             output.o
EDIPARTYNAME_free                                 output.o
EDIPARTYNAME_it                                   output.o
EDIPARTYNAME_new                                  output.o
EHDestroyEventHandler                             output.o
EHInitEventHandler                                output.o
EHStatusHandler                                   output.o
ERR_add_error_data                                output.o
ERR_clear_error                                   output.o
ERR_error_string                                  output.o
ERR_error_string_n                                output.o
ERR_free_strings                                  output.o
ERR_func_error_string                             output.o
ERR_get_err_state_table                           output.o
ERR_get_error                                     output.o
ERR_get_error_line                                output.o
ERR_get_error_line_data                           output.o
ERR_get_implementation                            output.o
ERR_get_next_error_library                        output.o
ERR_get_state                                     output.o
ERR_get_string_table                              output.o
ERR_lib_error_string                              output.o
ERR_load_ASN1_strings                             output.o
ERR_load_BIO_strings                              output.o
ERR_load_BN_strings                               output.o
ERR_load_BUF_strings                              output.o
ERR_load_CMS_strings                              output.o
ERR_load_COMP_strings                             output.o
ERR_load_CONF_strings                             output.o
ERR_load_CRYPTO_strings                           output.o
ERR_load_DH_strings                               output.o
ERR_load_DSA_strings                              output.o
ERR_load_DSO_strings                              output.o
ERR_load_ECDH_strings                             output.o
ERR_load_ECDSA_strings                            output.o
ERR_load_EC_strings                               output.o
ERR_load_ERR_strings                              output.o
ERR_load_EVP_strings                              output.o
ERR_load_OBJ_strings                              output.o
ERR_load_OCSP_strings                             output.o
ERR_load_PEM_strings                              output.o
ERR_load_PKCS12_strings                           output.o
ERR_load_PKCS7_strings                            output.o
ERR_load_RAND_strings                             output.o
ERR_load_RSA_strings                              output.o
ERR_load_TS_strings                               output.o
ERR_load_UI_strings                               output.o
ERR_load_X509V3_strings                           output.o
ERR_load_X509_strings                             output.o
ERR_load_crypto_strings                           output.o
ERR_load_strings                                  output.o
ERR_peek_error                                    output.o
ERR_peek_error_line                               output.o
ERR_peek_error_line_data                          output.o
ERR_peek_last_error                               output.o
ERR_peek_last_error_line                          output.o
ERR_peek_last_error_line_data                     output.o
ERR_pop_to_mark                                   output.o
ERR_print_errors                                  output.o
ERR_print_errors_cb                               output.o
ERR_put_error                                     output.o
ERR_reason_error_string                           output.o
ERR_release_err_state_table                       output.o
ERR_remove_state                                  output.o
ERR_remove_thread_state                           output.o
ERR_set_error_data                                output.o
ERR_set_implementation                            output.o
ERR_set_mark                                      output.o
ERR_unload_strings                                output.o
EVP_BytesToKey                                    output.o
EVP_CIPHER_CTX_block_size                         output.o
EVP_CIPHER_CTX_cipher                             output.o
EVP_CIPHER_CTX_cleanup                            output.o
EVP_CIPHER_CTX_clear_flags                        output.o
EVP_CIPHER_CTX_copy                               output.o
EVP_CIPHER_CTX_ctrl                               output.o
EVP_CIPHER_CTX_flags                              output.o
EVP_CIPHER_CTX_free                               output.o
EVP_CIPHER_CTX_get_app_data                       output.o
EVP_CIPHER_CTX_init                               output.o
EVP_CIPHER_CTX_iv_length                          output.o
EVP_CIPHER_CTX_key_length                         output.o
EVP_CIPHER_CTX_new                                output.o
EVP_CIPHER_CTX_nid                                output.o
EVP_CIPHER_CTX_rand_key                           output.o
EVP_CIPHER_CTX_set_app_data                       output.o
EVP_CIPHER_CTX_set_flags                          output.o
EVP_CIPHER_CTX_set_key_length                     output.o
EVP_CIPHER_CTX_set_padding                        output.o
EVP_CIPHER_CTX_test_flags                         output.o
EVP_CIPHER_asn1_to_param                          output.o
EVP_CIPHER_block_size                             output.o
EVP_CIPHER_do_all                                 output.o
EVP_CIPHER_do_all_sorted                          output.o
EVP_CIPHER_flags                                  output.o
EVP_CIPHER_get_asn1_iv                            output.o
EVP_CIPHER_iv_length                              output.o
EVP_CIPHER_key_length                             output.o
EVP_CIPHER_nid                                    output.o
EVP_CIPHER_param_to_asn1                          output.o
EVP_CIPHER_set_asn1_iv                            output.o
EVP_CIPHER_type                                   output.o
EVP_Cipher                                        output.o
EVP_CipherFinal                                   output.o
EVP_CipherFinal_ex                                output.o
EVP_CipherInit                                    output.o
EVP_CipherInit_ex                                 output.o
EVP_CipherUpdate                                  output.o
EVP_DecodeBlock                                   output.o
EVP_DecodeFinal                                   output.o
EVP_DecodeInit                                    output.o
EVP_DecodeUpdate                                  output.o
EVP_DecryptFinal                                  output.o
EVP_DecryptFinal_ex                               output.o
EVP_DecryptInit                                   output.o
EVP_DecryptInit_ex                                output.o
EVP_DecryptUpdate                                 output.o
EVP_Digest                                        output.o
EVP_DigestFinal                                   output.o
EVP_DigestFinal_ex                                output.o
EVP_DigestInit                                    output.o
EVP_DigestInit_ex                                 output.o
EVP_DigestSignFinal                               output.o
EVP_DigestSignInit                                output.o
EVP_DigestUpdate                                  output.o
EVP_DigestVerifyFinal                             output.o
EVP_DigestVerifyInit                              output.o
EVP_EncodeBlock                                   output.o
EVP_EncodeFinal                                   output.o
EVP_EncodeInit                                    output.o
EVP_EncodeUpdate                                  output.o
EVP_EncryptFinal                                  output.o
EVP_EncryptFinal_ex                               output.o
EVP_EncryptInit                                   output.o
EVP_EncryptInit_ex                                output.o
EVP_EncryptUpdate                                 output.o
EVP_MD_CTX_cleanup                                output.o
EVP_MD_CTX_clear_flags                            output.o
EVP_MD_CTX_copy                                   output.o
EVP_MD_CTX_copy_ex                                output.o
EVP_MD_CTX_create                                 output.o
EVP_MD_CTX_destroy                                output.o
EVP_MD_CTX_init                                   output.o
EVP_MD_CTX_md                                     output.o
EVP_MD_CTX_set_flags                              output.o
EVP_MD_CTX_test_flags                             output.o
EVP_MD_block_size                                 output.o
EVP_MD_do_all                                     output.o
EVP_MD_do_all_sorted                              output.o
EVP_MD_flags                                      output.o
EVP_MD_pkey_type                                  output.o
EVP_MD_size                                       output.o
EVP_MD_type                                       output.o
EVP_PBE_CipherInit                                output.o
EVP_PBE_alg_add                                   output.o
EVP_PBE_alg_add_type                              output.o
EVP_PBE_cleanup                                   output.o
EVP_PBE_find                                      output.o
EVP_PKCS82PKEY                                    output.o
EVP_PKEY2PKCS8                                    output.o
EVP_PKEY2PKCS8_broken                             output.o
EVP_PKEY_CTX_ctrl                                 output.o
EVP_PKEY_CTX_ctrl_str                             output.o
EVP_PKEY_CTX_dup                                  output.o
EVP_PKEY_CTX_free                                 output.o
EVP_PKEY_CTX_get0_peerkey                         output.o
EVP_PKEY_CTX_get0_pkey                            output.o
EVP_PKEY_CTX_get_app_data                         output.o
EVP_PKEY_CTX_get_cb                               output.o
EVP_PKEY_CTX_get_data                             output.o
EVP_PKEY_CTX_get_keygen_info                      output.o
EVP_PKEY_CTX_get_operation                        output.o
EVP_PKEY_CTX_new                                  output.o
EVP_PKEY_CTX_new_id                               output.o
EVP_PKEY_CTX_set0_keygen_info                     output.o
EVP_PKEY_CTX_set_app_data                         output.o
EVP_PKEY_CTX_set_cb                               output.o
EVP_PKEY_CTX_set_data                             output.o
EVP_PKEY_add1_attr                                output.o
EVP_PKEY_add1_attr_by_NID                         output.o
EVP_PKEY_add1_attr_by_OBJ                         output.o
EVP_PKEY_add1_attr_by_txt                         output.o
EVP_PKEY_asn1_add0                                output.o
EVP_PKEY_asn1_add_alias                           output.o
EVP_PKEY_asn1_copy                                output.o
EVP_PKEY_asn1_find                                output.o
EVP_PKEY_asn1_find_str                            output.o
EVP_PKEY_asn1_free                                output.o
EVP_PKEY_asn1_get0                                output.o
EVP_PKEY_asn1_get0_info                           output.o
EVP_PKEY_asn1_get_count                           output.o
EVP_PKEY_asn1_new                                 output.o
EVP_PKEY_asn1_set_ctrl                            output.o
EVP_PKEY_asn1_set_free                            output.o
EVP_PKEY_asn1_set_param                           output.o
EVP_PKEY_asn1_set_private                         output.o
EVP_PKEY_asn1_set_public                          output.o
EVP_PKEY_assign                                   output.o
EVP_PKEY_base_id                                  output.o
EVP_PKEY_bits                                     output.o
EVP_PKEY_cmp                                      output.o
EVP_PKEY_cmp_parameters                           output.o
EVP_PKEY_copy_parameters                          output.o
EVP_PKEY_decrypt                                  output.o
EVP_PKEY_decrypt_init                             output.o
EVP_PKEY_delete_attr                              output.o
EVP_PKEY_derive                                   output.o
EVP_PKEY_derive_init                              output.o
EVP_PKEY_derive_set_peer                          output.o
EVP_PKEY_encrypt                                  output.o
EVP_PKEY_encrypt_init                             output.o
EVP_PKEY_free                                     output.o
EVP_PKEY_get0                                     output.o
EVP_PKEY_get0_asn1                                output.o
EVP_PKEY_get1_DH                                  output.o
EVP_PKEY_get1_DSA                                 output.o
EVP_PKEY_get1_EC_KEY                              output.o
EVP_PKEY_get1_RSA                                 output.o
EVP_PKEY_get_attr                                 output.o
EVP_PKEY_get_attr_by_NID                          output.o
EVP_PKEY_get_attr_by_OBJ                          output.o
EVP_PKEY_get_attr_count                           output.o
EVP_PKEY_get_default_digest_nid                   output.o
EVP_PKEY_id                                       output.o
EVP_PKEY_keygen                                   output.o
EVP_PKEY_keygen_init                              output.o
EVP_PKEY_meth_add0                                output.o
EVP_PKEY_meth_find                                output.o
EVP_PKEY_meth_free                                output.o
EVP_PKEY_meth_new                                 output.o
EVP_PKEY_meth_set_cleanup                         output.o
EVP_PKEY_meth_set_copy                            output.o
EVP_PKEY_meth_set_ctrl                            output.o
EVP_PKEY_meth_set_decrypt                         output.o
EVP_PKEY_meth_set_derive                          output.o
EVP_PKEY_meth_set_encrypt                         output.o
EVP_PKEY_meth_set_init                            output.o
EVP_PKEY_meth_set_keygen                          output.o
EVP_PKEY_meth_set_paramgen                        output.o
EVP_PKEY_meth_set_sign                            output.o
EVP_PKEY_meth_set_signctx                         output.o
EVP_PKEY_meth_set_verify                          output.o
EVP_PKEY_meth_set_verify_recover                  output.o
EVP_PKEY_meth_set_verifyctx                       output.o
EVP_PKEY_missing_parameters                       output.o
EVP_PKEY_new                                      output.o
EVP_PKEY_new_mac_key                              output.o
EVP_PKEY_paramgen                                 output.o
EVP_PKEY_paramgen_init                            output.o
EVP_PKEY_print_params                             output.o
EVP_PKEY_print_private                            output.o
EVP_PKEY_print_public                             output.o
EVP_PKEY_save_parameters                          output.o
EVP_PKEY_set1_DH                                  output.o
EVP_PKEY_set1_DSA                                 output.o
EVP_PKEY_set1_EC_KEY                              output.o
EVP_PKEY_set1_RSA                                 output.o
EVP_PKEY_set_type                                 output.o
EVP_PKEY_set_type_str                             output.o
EVP_PKEY_sign                                     output.o
EVP_PKEY_sign_init                                output.o
EVP_PKEY_size                                     output.o
EVP_PKEY_type                                     output.o
EVP_PKEY_verify                                   output.o
EVP_PKEY_verify_init                              output.o
EVP_PKEY_verify_recover                           output.o
EVP_PKEY_verify_recover_init                      output.o
EVP_SignFinal                                     output.o
EVP_VerifyFinal                                   output.o
EVP_add_cipher                                    output.o
EVP_add_digest                                    output.o
EVP_aes_128_cbc                                   output.o
EVP_aes_128_cfb1                                  output.o
EVP_aes_128_cfb128                                output.o
EVP_aes_128_cfb8                                  output.o
EVP_aes_128_ecb                                   output.o
EVP_aes_128_ofb                                   output.o
EVP_aes_192_cbc                                   output.o
EVP_aes_192_cfb1                                  output.o
EVP_aes_192_cfb128                                output.o
EVP_aes_192_cfb8                                  output.o
EVP_aes_192_ecb                                   output.o
EVP_aes_192_ofb                                   output.o
EVP_aes_256_cbc                                   output.o
EVP_aes_256_cfb1                                  output.o
EVP_aes_256_cfb128                                output.o
EVP_aes_256_cfb8                                  output.o
EVP_aes_256_ecb                                   output.o
EVP_aes_256_ofb                                   output.o
EVP_bf_cbc                                        output.o
EVP_bf_cfb64                                      output.o
EVP_bf_ecb                                        output.o
EVP_bf_ofb                                        output.o
EVP_cast5_cbc                                     output.o
EVP_cast5_cfb64                                   output.o
EVP_cast5_ecb                                     output.o
EVP_cast5_ofb                                     output.o
EVP_cleanup                                       output.o
EVP_des_cbc                                       output.o
EVP_des_cfb1                                      output.o
EVP_des_cfb64                                     output.o
EVP_des_cfb8                                      output.o
EVP_des_ecb                                       output.o
EVP_des_ede                                       output.o
EVP_des_ede3                                      output.o
EVP_des_ede3_cbc                                  output.o
EVP_des_ede3_cfb1                                 output.o
EVP_des_ede3_cfb64                                output.o
EVP_des_ede3_cfb8                                 output.o
EVP_des_ede3_ecb                                  output.o
EVP_des_ede3_ofb                                  output.o
EVP_des_ede_cbc                                   output.o
EVP_des_ede_cfb64                                 output.o
EVP_des_ede_ecb                                   output.o
EVP_des_ede_ofb                                   output.o
EVP_des_ofb                                       output.o
EVP_desx_cbc                                      output.o
EVP_dss                                           output.o
EVP_dss1                                          output.o
EVP_ecdsa                                         output.o
EVP_get_cipherbyname                              output.o
EVP_get_digestbyname                              output.o
EVP_get_pw_prompt                                 output.o
EVP_idea_cbc                                      output.o
EVP_idea_cfb64                                    output.o
EVP_idea_ecb                                      output.o
EVP_idea_ofb                                      output.o
EVP_md4                                           output.o
EVP_md5                                           output.o
EVP_rc2_40_cbc                                    output.o
EVP_rc2_64_cbc                                    output.o
EVP_rc2_cbc                                       output.o
EVP_rc2_cfb64                                     output.o
EVP_rc2_ecb                                       output.o
EVP_rc2_ofb                                       output.o
EVP_rc4                                           output.o
EVP_rc4_40                                        output.o
EVP_read_pw_string                                output.o
EVP_read_pw_string_min                            output.o
EVP_ripemd160                                     output.o
EVP_set_pw_prompt                                 output.o
EVP_sha                                           output.o
EVP_sha1                                          output.o
EVP_sha224                                        output.o
EVP_sha256                                        output.o
EVP_sha384                                        output.o
EVP_sha512                                        output.o
EVP_version                                       output.o
EVP_whirlpool                                     output.o
EXTENDED_KEY_USAGE_free                           output.o
EXTENDED_KEY_USAGE_it                             output.o
EXTENDED_KEY_USAGE_new                            output.o
ExchangePPSData                                   output.o
FI                                                output.o
FindBaudRateTable                                 output.o
GENERAL_NAMES_free                                output.o
GENERAL_NAMES_it                                  output.o
GENERAL_NAMES_new                                 output.o
GENERAL_NAME_cmp                                  output.o
GENERAL_NAME_dup                                  output.o
GENERAL_NAME_free                                 output.o
GENERAL_NAME_get0_otherName                       output.o
GENERAL_NAME_get0_value                           output.o
GENERAL_NAME_it                                   output.o
GENERAL_NAME_new                                  output.o
GENERAL_NAME_print                                output.o
GENERAL_NAME_set0_othername                       output.o
GENERAL_NAME_set0_value                           output.o
GENERAL_SUBTREE_free                              output.o
GENERAL_SUBTREE_it                                output.o
GENERAL_SUBTREE_new                               output.o
GetAttrValType                                    output.o
GetBWICWIData                                     output.o
GetCardStatus                                     output.o
GetDirDataByTlv                                   output.o
GetElem                                           output.o
GetICCardData                                     output.o
GetIFSCData                                       output.o
GetLength                                         output.o
GetOdfDataByTlv                                   output.o
GetTlvByBuf                                       output.o
GetTokenDataByTlv                                 output.o
GetUlByByte                                       output.o
GetUlByTxt                                        output.o
GetValueData                                      output.o
GetVerByTex                                       output.o
HMAC                                              output.o
HMAC_CTX_cleanup                                  output.o
HMAC_CTX_copy                                     output.o
HMAC_CTX_init                                     output.o
HMAC_CTX_set_flags                                output.o
HMAC_Final                                        output.o
HMAC_Init                                         output.o
HMAC_Init_ex                                      output.o
HMAC_Update                                       output.o
HPSearchHotPluggables                             output.o
IDEA_version                                      output.o
IDMan_CheckCardStatus                             output.o
IDMan_CmCheckCRL                                  output.o
IDMan_CmChgRSA                                    output.o
IDMan_CmGetCertificateSign                        output.o
IDMan_CmGetDN                                     output.o
IDMan_CmGetPublicKey                              output.o
IDMan_CmMakeRand                                  output.o
IDMan_CmMkHash                                    output.o
IDMan_CmPadding                                   output.o
IDMan_CmPadding2                                  output.o
IDMan_EncryptByIndex                              output.o
IDMan_IPCheckCrlPkcX                              output.o
IDMan_IPCheckPKC                                  output.o
IDMan_IPCheckSignature                            output.o
IDMan_IPCrSignature                               output.o
IDMan_IPFinalize                                  output.o
IDMan_IPFinalizeReader                            output.o
IDMan_IPIdPassListMalloc                          output.o
IDMan_IPInitialize                                output.o
IDMan_IPInitializeReader                          output.o
IDMan_IPMkPublicKeyObj                            output.o
IDMan_IPMkRandHash                                output.o
IDMan_IPRetJudgment                               output.o
IDMan_IPSignatureVerify                           output.o
IDMan_IPgCIndexParamChk                           output.o
IDMan_IPgCParamChk                                output.o
IDMan_IPgIdxSParamChk                             output.o
IDMan_IPgSParamChk                                output.o
IDMan_IPgetCertIdxPKCS                            output.o
IDMan_IPgetCertPKCS                               output.o
IDMan_IPgetCertPkeyIdxPKCSx                       output.o
IDMan_IPgetCertPkeyPKCSx                          output.o
IDMan_IPgetCertPkeyPKCSy                          output.o
IDMan_IPgetHash                                   output.o
IDMan_IPgetMakeRandData                           output.o
IDMan_IPgetPrivateKey                             output.o
IDMan_IPgetPrivateKeyPKCSx                        output.o
IDMan_IPuAPKCS11IdxParamChk                       output.o
IDMan_IPuAPKCS11ParamChk                          output.o
IDMan_IPvSIdxParamChk                             output.o
IDMan_IPvSParamChk                                output.o
IDMan_PaddingParamChk                             output.o
IDMan_SCardConnect                                output.o
IDMan_SCardDisconnect                             output.o
IDMan_SCardEstablishContext                       output.o
IDMan_SCardListReaders                            output.o
IDMan_SCardReleaseContext                         output.o
IDMan_SCardSetBinay                               output.o
IDMan_SCardSizeLongToChar                         output.o
IDMan_SCardStatus                                 output.o
IDMan_SCardTransmit                               output.o
IDMan_StAtoi                                      output.o
IDMan_StAtol                                      output.o
IDMan_StFree                                      output.o
IDMan_StMalloc                                    output.o
IDMan_StMemcmp                                    output.o
IDMan_StMemcpy                                    output.o
IDMan_StMemset                                    output.o
IDMan_StReadSetData                               output.o
IDMan_StStrcat                                    output.o
IDMan_StStrchr                                    output.o
IDMan_StStrcmp                                    output.o
IDMan_StStrcpy                                    output.o
IDMan_StStrlen                                    output.o
IDMan_generateSignature                           output.o
IDMan_generateSignatureByIndex                    output.o
IDMan_getCertificate                              output.o
IDMan_getCertificateByIndex                       output.o
IDMan_getMemoryFree                               output.o
IDMan_getStaticPassword                           output.o
IDMan_userAuthPKCS11                              output.o
IDMan_userAuthPKCS11ByIndex                       output.o
IDMan_verifySignature                             output.o
IDMan_verifySignatureByIndex                      output.o
IFDHCloseChannel                                  output.o
IFDHControl                                       output.o
IFDHCreateChannel                                 output.o
IFDHGetCapabilities                               output.o
IFDHICCPresence                                   output.o
IFDHPowerICC                                      output.o
IFDHSetProtocolParameters                         output.o
IFDHTransmitToICC                                 output.o
ISSUING_DIST_POINT_free                           output.o
ISSUING_DIST_POINT_it                             output.o
ISSUING_DIST_POINT_new                            output.o
InitCryptoLibrary                                 output.o
InitLeaderCardProtocol                            output.o
InternalAuth                                      output.o
LONG_it                                           output.o
MD4_Final                                         output.o
MD4_Init                                          output.o
MD4_Transform                                     output.o
MD4_Update                                        output.o
MD4_version                                       output.o
MD5                                               output.o
MD5_Final                                         output.o
MD5_Init                                          output.o
MD5_Transform                                     output.o
MD5_Update                                        output.o
MD5_version                                       output.o
NAME_CONSTRAINTS_check                            output.o
NAME_CONSTRAINTS_free                             output.o
NAME_CONSTRAINTS_it                               output.o
NAME_CONSTRAINTS_new                              output.o
NCONF_WIN32                                       output.o
NCONF_default                                     output.o
NCONF_dump_bio                                    output.o
NCONF_free                                        output.o
NCONF_free_data                                   output.o
NCONF_get_number_e                                output.o
NCONF_get_section                                 output.o
NCONF_get_string                                  output.o
NCONF_load                                        output.o
NCONF_load_bio                                    output.o
NCONF_new                                         output.o
NETSCAPE_CERT_SEQUENCE_free                       output.o
NETSCAPE_CERT_SEQUENCE_it                         output.o
NETSCAPE_CERT_SEQUENCE_new                        output.o
NETSCAPE_SPKAC_free                               output.o
NETSCAPE_SPKAC_it                                 output.o
NETSCAPE_SPKAC_new                                output.o
NETSCAPE_SPKI_free                                output.o
NETSCAPE_SPKI_it                                  output.o
NETSCAPE_SPKI_new                                 output.o
NETSCAPE_SPKI_sign                                output.o
NETSCAPE_SPKI_verify                              output.o
NOTICEREF_free                                    output.o
NOTICEREF_it                                      output.o
NOTICEREF_new                                     output.o
OBJ_NAME_add                                      output.o
OBJ_NAME_cleanup                                  output.o
OBJ_NAME_do_all                                   output.o
OBJ_NAME_do_all_sorted                            output.o
OBJ_NAME_get                                      output.o
OBJ_NAME_init                                     output.o
OBJ_NAME_new_index                                output.o
OBJ_NAME_remove                                   output.o
OBJ_add_object                                    output.o
OBJ_add_sigid                                     output.o
OBJ_bsearch_                                      output.o
OBJ_bsearch_ex_                                   output.o
OBJ_cleanup                                       output.o
OBJ_cmp                                           output.o
OBJ_create                                        output.o
OBJ_create_objects                                output.o
OBJ_dup                                           output.o
OBJ_find_sigid_algs                               output.o
OBJ_find_sigid_by_algs                            output.o
OBJ_ln2nid                                        output.o
OBJ_new_nid                                       output.o
OBJ_nid2ln                                        output.o
OBJ_nid2obj                                       output.o
OBJ_nid2sn                                        output.o
OBJ_obj2nid                                       output.o
OBJ_obj2txt                                       output.o
OBJ_sigid_free                                    output.o
OBJ_sn2nid                                        output.o
OBJ_txt2nid                                       output.o
OBJ_txt2obj                                       output.o
OCSP_BASICRESP_free                               output.o
OCSP_BASICRESP_it                                 output.o
OCSP_BASICRESP_new                                output.o
OCSP_CERTID_free                                  output.o
OCSP_CERTID_it                                    output.o
OCSP_CERTID_new                                   output.o
OCSP_CERTSTATUS_free                              output.o
OCSP_CERTSTATUS_it                                output.o
OCSP_CERTSTATUS_new                               output.o
OCSP_CRLID_free                                   output.o
OCSP_CRLID_it                                     output.o
OCSP_CRLID_new                                    output.o
OCSP_ONEREQ_free                                  output.o
OCSP_ONEREQ_it                                    output.o
OCSP_ONEREQ_new                                   output.o
OCSP_REQINFO_free                                 output.o
OCSP_REQINFO_it                                   output.o
OCSP_REQINFO_new                                  output.o
OCSP_REQUEST_free                                 output.o
OCSP_REQUEST_it                                   output.o
OCSP_REQUEST_new                                  output.o
OCSP_RESPBYTES_free                               output.o
OCSP_RESPBYTES_it                                 output.o
OCSP_RESPBYTES_new                                output.o
OCSP_RESPDATA_free                                output.o
OCSP_RESPDATA_it                                  output.o
OCSP_RESPDATA_new                                 output.o
OCSP_RESPID_free                                  output.o
OCSP_RESPID_it                                    output.o
OCSP_RESPID_new                                   output.o
OCSP_RESPONSE_free                                output.o
OCSP_RESPONSE_it                                  output.o
OCSP_RESPONSE_new                                 output.o
OCSP_REVOKEDINFO_free                             output.o
OCSP_REVOKEDINFO_it                               output.o
OCSP_REVOKEDINFO_new                              output.o
OCSP_SERVICELOC_free                              output.o
OCSP_SERVICELOC_it                                output.o
OCSP_SERVICELOC_new                               output.o
OCSP_SIGNATURE_free                               output.o
OCSP_SIGNATURE_it                                 output.o
OCSP_SIGNATURE_new                                output.o
OCSP_SINGLERESP_free                              output.o
OCSP_SINGLERESP_it                                output.o
OCSP_SINGLERESP_new                               output.o
OPENSSL_NONPIC_relocated                          output.o
OPENSSL_asc2uni                                   output.o
OPENSSL_cleanse                                   output.o
OPENSSL_cpuid_setup                               output.o
OPENSSL_gmtime                                    output.o
OPENSSL_gmtime_adj                                output.o
OPENSSL_ia32cap_P                                 output.o
OPENSSL_ia32cap_loc                               output.o
OPENSSL_isservice                                 output.o
OPENSSL_showfatal                                 output.o
OPENSSL_stderr                                    output.o
OPENSSL_uni2asc                                   output.o
OSSL_DES_version                                  output.o
OSSL_libdes_version                               output.o
OTHERNAME_cmp                                     output.o
OTHERNAME_free                                    output.o
OTHERNAME_it                                      output.o
OTHERNAME_new                                     output.o
OpenSSLDie                                        output.o
OpenSSL_add_all_ciphers                           output.o
OpenSSL_add_all_digests                           output.o
OpenUSB                                           output.o
PAGE_POOL_START                                   output.o
PBE2PARAM_free                                    output.o
PBE2PARAM_it                                      output.o
PBE2PARAM_new                                     output.o
PBEPARAM_free                                     output.o
PBEPARAM_it                                       output.o
PBEPARAM_new                                      output.o
PBKDF2PARAM_free                                  output.o
PBKDF2PARAM_it                                    output.o
PBKDF2PARAM_new                                   output.o
PEM_ASN1_read_bio                                 output.o
PEM_ASN1_write_bio                                output.o
PEM_bytes_read_bio                                output.o
PEM_def_callback                                  output.o
PEM_dek_info                                      output.o
PEM_do_header                                     output.o
PEM_get_EVP_CIPHER_INFO                           output.o
PEM_proc_type                                     output.o
PEM_read_bio                                      output.o
PEM_read_bio_CMS                                  output.o
PEM_read_bio_DHparams                             output.o
PEM_read_bio_DSAPrivateKey                        output.o
PEM_read_bio_DSA_PUBKEY                           output.o
PEM_read_bio_DSAparams                            output.o
PEM_read_bio_ECPKParameters                       output.o
PEM_read_bio_ECPrivateKey                         output.o
PEM_read_bio_EC_PUBKEY                            output.o
PEM_read_bio_NETSCAPE_CERT_SEQUENCE               output.o
PEM_read_bio_PKCS7                                output.o
PEM_read_bio_PKCS8                                output.o
PEM_read_bio_PKCS8_PRIV_KEY_INFO                  output.o
PEM_read_bio_PUBKEY                               output.o
PEM_read_bio_Parameters                           output.o
PEM_read_bio_PrivateKey                           output.o
PEM_read_bio_RSAPrivateKey                        output.o
PEM_read_bio_RSAPublicKey                         output.o
PEM_read_bio_RSA_PUBKEY                           output.o
PEM_read_bio_X509                                 output.o
PEM_read_bio_X509_CRL                             output.o
PEM_read_bio_X509_REQ                             output.o
PEM_version                                       output.o
PEM_write_bio                                     output.o
PEM_write_bio_ASN1_stream                         output.o
PEM_write_bio_CMS                                 output.o
PEM_write_bio_CMS_stream                          output.o
PEM_write_bio_DHparams                            output.o
PEM_write_bio_DSAPrivateKey                       output.o
PEM_write_bio_DSA_PUBKEY                          output.o
PEM_write_bio_DSAparams                           output.o
PEM_write_bio_ECPKParameters                      output.o
PEM_write_bio_ECPrivateKey                        output.o
PEM_write_bio_EC_PUBKEY                           output.o
PEM_write_bio_NETSCAPE_CERT_SEQUENCE              output.o
PEM_write_bio_PKCS7                               output.o
PEM_write_bio_PKCS8                               output.o
PEM_write_bio_PKCS8PrivateKey                     output.o
PEM_write_bio_PKCS8PrivateKey_nid                 output.o
PEM_write_bio_PKCS8_PRIV_KEY_INFO                 output.o
PEM_write_bio_PUBKEY                              output.o
PEM_write_bio_Parameters                          output.o
PEM_write_bio_PrivateKey                          output.o
PEM_write_bio_RSAPrivateKey                       output.o
PEM_write_bio_RSAPublicKey                        output.o
PEM_write_bio_RSA_PUBKEY                          output.o
PEM_write_bio_X509                                output.o
PEM_write_bio_X509_CRL                            output.o
PEM_write_bio_X509_REQ                            output.o
PEM_write_bio_X509_REQ_NEW                        output.o
PHGetProtocol                                     output.o
PHSetProtocol                                     output.o
PKCS12_AUTHSAFES_it                               output.o
PKCS12_BAGS_free                                  output.o
PKCS12_BAGS_it                                    output.o
PKCS12_BAGS_new                                   output.o
PKCS12_MAC_DATA_free                              output.o
PKCS12_MAC_DATA_it                                output.o
PKCS12_MAC_DATA_new                               output.o
PKCS12_MAKE_KEYBAG                                output.o
PKCS12_MAKE_SHKEYBAG                              output.o
PKCS12_PBE_add                                    output.o
PKCS12_PBE_keyivgen                               output.o
PKCS12_SAFEBAGS_it                                output.o
PKCS12_SAFEBAG_free                               output.o
PKCS12_SAFEBAG_it                                 output.o
PKCS12_SAFEBAG_new                                output.o
PKCS12_certbag2x509                               output.o
PKCS12_certbag2x509crl                            output.o
PKCS12_decrypt_skey                               output.o
PKCS12_free                                       output.o
PKCS12_it                                         output.o
PKCS12_item_decrypt_d2i                           output.o
PKCS12_item_i2d_encrypt                           output.o
PKCS12_item_pack_safebag                          output.o
PKCS12_key_gen_asc                                output.o
PKCS12_key_gen_uni                                output.o
PKCS12_new                                        output.o
PKCS12_pack_authsafes                             output.o
PKCS12_pack_p7data                                output.o
PKCS12_pack_p7encdata                             output.o
PKCS12_pbe_crypt                                  output.o
PKCS12_unpack_authsafes                           output.o
PKCS12_unpack_p7data                              output.o
PKCS12_unpack_p7encdata                           output.o
PKCS12_x5092certbag                               output.o
PKCS12_x509crl2certbag                            output.o
PKCS1_MGF1                                        output.o
PKCS5_PBE_add                                     output.o
PKCS5_PBE_keyivgen                                output.o
PKCS5_PBKDF2_HMAC                                 output.o
PKCS5_PBKDF2_HMAC_SHA1                            output.o
PKCS5_pbe2_set                                    output.o
PKCS5_pbe2_set_iv                                 output.o
PKCS5_pbe_set                                     output.o
PKCS5_pbe_set0_algor                              output.o
PKCS5_v2_PBE_keyivgen                             output.o
PKCS7_ATTR_SIGN_it                                output.o
PKCS7_ATTR_VERIFY_it                              output.o
PKCS7_DIGEST_free                                 output.o
PKCS7_DIGEST_it                                   output.o
PKCS7_DIGEST_new                                  output.o
PKCS7_ENCRYPT_free                                output.o
PKCS7_ENCRYPT_it                                  output.o
PKCS7_ENCRYPT_new                                 output.o
PKCS7_ENC_CONTENT_free                            output.o
PKCS7_ENC_CONTENT_it                              output.o
PKCS7_ENC_CONTENT_new                             output.o
PKCS7_ENVELOPE_free                               output.o
PKCS7_ENVELOPE_it                                 output.o
PKCS7_ENVELOPE_new                                output.o
PKCS7_ISSUER_AND_SERIAL_digest                    output.o
PKCS7_ISSUER_AND_SERIAL_free                      output.o
PKCS7_ISSUER_AND_SERIAL_it                        output.o
PKCS7_ISSUER_AND_SERIAL_new                       output.o
PKCS7_RECIP_INFO_free                             output.o
PKCS7_RECIP_INFO_get0_alg                         output.o
PKCS7_RECIP_INFO_it                               output.o
PKCS7_RECIP_INFO_new                              output.o
PKCS7_RECIP_INFO_set                              output.o
PKCS7_SIGNED_free                                 output.o
PKCS7_SIGNED_it                                   output.o
PKCS7_SIGNED_new                                  output.o
PKCS7_SIGNER_INFO_free                            output.o
PKCS7_SIGNER_INFO_get0_algs                       output.o
PKCS7_SIGNER_INFO_it                              output.o
PKCS7_SIGNER_INFO_new                             output.o
PKCS7_SIGNER_INFO_set                             output.o
PKCS7_SIGNER_INFO_sign                            output.o
PKCS7_SIGN_ENVELOPE_free                          output.o
PKCS7_SIGN_ENVELOPE_it                            output.o
PKCS7_SIGN_ENVELOPE_new                           output.o
PKCS7_add0_attrib_signing_time                    output.o
PKCS7_add1_attrib_digest                          output.o
PKCS7_add_attrib_content_type                     output.o
PKCS7_add_attrib_smimecap                         output.o
PKCS7_add_attribute                               output.o
PKCS7_add_certificate                             output.o
PKCS7_add_crl                                     output.o
PKCS7_add_recipient                               output.o
PKCS7_add_recipient_info                          output.o
PKCS7_add_signature                               output.o
PKCS7_add_signed_attribute                        output.o
PKCS7_add_signer                                  output.o
PKCS7_cert_from_signer_info                       output.o
PKCS7_content_new                                 output.o
PKCS7_ctrl                                        output.o
PKCS7_dataDecode                                  output.o
PKCS7_dataFinal                                   output.o
PKCS7_dataInit                                    output.o
PKCS7_dataVerify                                  output.o
PKCS7_digest_from_attributes                      output.o
PKCS7_dup                                         output.o
PKCS7_free                                        output.o
PKCS7_get_attribute                               output.o
PKCS7_get_issuer_and_serial                       output.o
PKCS7_get_signed_attribute                        output.o
PKCS7_get_signer_info                             output.o
PKCS7_get_smimecap                                output.o
PKCS7_it                                          output.o
PKCS7_new                                         output.o
PKCS7_print_ctx                                   output.o
PKCS7_set0_type_other                             output.o
PKCS7_set_attributes                              output.o
PKCS7_set_cipher                                  output.o
PKCS7_set_content                                 output.o
PKCS7_set_digest                                  output.o
PKCS7_set_signed_attributes                       output.o
PKCS7_set_type                                    output.o
PKCS7_signatureVerify                             output.o
PKCS7_simple_smimecap                             output.o
PKCS7_stream                                      output.o
PKCS8_PRIV_KEY_INFO_free                          output.o
PKCS8_PRIV_KEY_INFO_it                            output.o
PKCS8_PRIV_KEY_INFO_new                           output.o
PKCS8_decrypt                                     output.o
PKCS8_encrypt                                     output.o
PKCS8_pkey_get0                                   output.o
PKCS8_pkey_set0                                   output.o
PKCS8_set_broken                                  output.o
PKEY_USAGE_PERIOD_free                            output.o
PKEY_USAGE_PERIOD_it                              output.o
PKEY_USAGE_PERIOD_new                             output.o
POLICYINFO_free                                   output.o
POLICYINFO_it                                     output.o
POLICYINFO_new                                    output.o
POLICYQUALINFO_free                               output.o
POLICYQUALINFO_it                                 output.o
POLICYQUALINFO_new                                output.o
POLICY_CONSTRAINTS_free                           output.o
POLICY_CONSTRAINTS_it                             output.o
POLICY_CONSTRAINTS_new                            output.o
POLICY_MAPPINGS_it                                output.o
POLICY_MAPPING_free                               output.o
POLICY_MAPPING_it                                 output.o
POLICY_MAPPING_new                                output.o
PROXY_CERT_INFO_EXTENSION_free                    output.o
PROXY_CERT_INFO_EXTENSION_it                      output.o
PROXY_CERT_INFO_EXTENSION_new                     output.o
PROXY_POLICY_free                                 output.o
PROXY_POLICY_it                                   output.o
PROXY_POLICY_new                                  output.o
PowerOff                                          output.o
PowerOn                                           output.o
RAND_SSLeay                                       output.o
RAND_add                                          output.o
RAND_bytes                                        output.o
RAND_cleanup                                      output.o
RAND_get_rand_method                              output.o
RAND_poll                                         output.o
RAND_pseudo_bytes                                 output.o
RAND_seed                                         output.o
RAND_set_rand_method                              output.o
RAND_status                                       output.o
RAND_version                                      output.o
RC2_cbc_encrypt                                   output.o
RC2_cfb64_encrypt                                 output.o
RC2_decrypt                                       output.o
RC2_ecb_encrypt                                   output.o
RC2_encrypt                                       output.o
RC2_ofb64_encrypt                                 output.o
RC2_set_key                                       output.o
RC2_version                                       output.o
RC4                                               output.o
RC4_options                                       output.o
RC4_set_key                                       output.o
RC4_version                                       output.o
RFAddReader                                       output.o
RFCheckReaderEventState                           output.o
RFReaderInfoById                                  output.o
RFRemoveReader                                    output.o
RIPEMD160_Final                                   output.o
RIPEMD160_Init                                    output.o
RIPEMD160_Transform                               output.o
RIPEMD160_Update                                  output.o
RMD160_version                                    output.o
RSAPrivateKey_dup                                 output.o
RSAPrivateKey_it                                  output.o
RSAPublicKey_dup                                  output.o
RSAPublicKey_it                                   output.o
RSA_PKCS1_SSLeay                                  output.o
RSA_X931_hash_id                                  output.o
RSA_blinding_off                                  output.o
RSA_blinding_on                                   output.o
RSA_flags                                         output.o
RSA_free                                          output.o
RSA_generate_key                                  output.o
RSA_generate_key_ex                               output.o
RSA_get_default_method                            output.o
RSA_get_ex_data                                   output.o
RSA_get_ex_new_index                              output.o
RSA_get_method                                    output.o
RSA_memory_lock                                   output.o
RSA_new                                           output.o
RSA_new_method                                    output.o
RSA_padding_add_PKCS1_OAEP                        output.o
RSA_padding_add_PKCS1_PSS                         output.o
RSA_padding_add_PKCS1_type_1                      output.o
RSA_padding_add_PKCS1_type_2                      output.o
RSA_padding_add_SSLv23                            output.o
RSA_padding_add_X931                              output.o
RSA_padding_add_none                              output.o
RSA_padding_check_PKCS1_OAEP                      output.o
RSA_padding_check_PKCS1_type_1                    output.o
RSA_padding_check_PKCS1_type_2                    output.o
RSA_padding_check_SSLv23                          output.o
RSA_padding_check_X931                            output.o
RSA_padding_check_none                            output.o
RSA_private_decrypt                               output.o
RSA_private_encrypt                               output.o
RSA_public_decrypt                                output.o
RSA_public_encrypt                                output.o
RSA_set_default_method                            output.o
RSA_set_ex_data                                   output.o
RSA_set_method                                    output.o
RSA_setup_blinding                                output.o
RSA_sign                                          output.o
RSA_size                                          output.o
RSA_up_ref                                        output.o
RSA_verify                                        output.o
RSA_verify_PKCS1_PSS                              output.o
RSA_version                                       output.o
ReadBinary                                        output.o
ReadDataT0                                        output.o
ReadUSB                                           output.o
ReceiveReply                                      output.o
SCardBeginTransaction                             output.o
SCardConnect                                      output.o
SCardDisconnect                                   output.o
SCardEndTransaction                               output.o
SCardEstablishContext                             output.o
SCardListReaders                                  output.o
SCardReleaseContext                               output.o
SCardStatus                                       output.o
SCardTransmit                                     output.o
SHA1                                              output.o
SHA1_Final                                        output.o
SHA1_Init                                         output.o
SHA1_Transform                                    output.o
SHA1_Update                                       output.o
SHA1_version                                      output.o
SHA224                                            output.o
SHA224_Final                                      output.o
SHA224_Init                                       output.o
SHA224_Update                                     output.o
SHA256                                            output.o
SHA256_Final                                      output.o
SHA256_Init                                       output.o
SHA256_Transform                                  output.o
SHA256_Update                                     output.o
SHA256_version                                    output.o
SHA384                                            output.o
SHA384_Final                                      output.o
SHA384_Init                                       output.o
SHA384_Update                                     output.o
SHA512                                            output.o
SHA512_Final                                      output.o
SHA512_Init                                       output.o
SHA512_Transform                                  output.o
SHA512_Update                                     output.o
SHA512_version                                    output.o
SHA_Final                                         output.o
SHA_Init                                          output.o
SHA_Transform                                     output.o
SHA_Update                                        output.o
SHA_version                                       output.o
SMIME_crlf_copy                                   output.o
SMIME_read_ASN1                                   output.o
SMIME_read_CMS                                    output.o
SMIME_text                                        output.o
SMIME_write_ASN1                                  output.o
SMIME_write_CMS                                   output.o
STACK_version                                     output.o
SXNETID_free                                      output.o
SXNETID_it                                        output.o
SXNETID_new                                       output.o
SXNET_add_id_INTEGER                              output.o
SXNET_add_id_asc                                  output.o
SXNET_add_id_ulong                                output.o
SXNET_free                                        output.o
SXNET_get_id_INTEGER                              output.o
SXNET_get_id_asc                                  output.o
SXNET_get_id_ulong                                output.o
SXNET_it                                          output.o
SXNET_new                                         output.o
Se4AddArpEntryList                                output.o
Se4AdjustTcpMss                                   output.o
Se4And                                            output.o
Se4BitToHex                                       output.o
Se4BroadcastMacAddress                            output.o
Se4BuildIcmpEchoPacket                            output.o
Se4CheckUnicastAddress                            output.o
Se4Cmp                                            output.o
Se4CmpArpEntry                                    output.o
Se4CmpArpWaitEntry                                output.o
Se4CmpIpCombineList                               output.o
Se4CombineIp                                      output.o
Se4FlushArpEntryList                              output.o
Se4FlushIpCombineList                             output.o
Se4FlushIpWaitList                                output.o
Se4Free                                           output.o
Se4FreeArpEntryList                               output.o
Se4FreeArpWaitList                                output.o
Se4FreeIpCombine                                  output.o
Se4FreeIpCombineList                              output.o
Se4FreeIpFragmentList                             output.o
Se4FreeIpHeaderInfo                               output.o
Se4FreeIpWait                                     output.o
Se4FreeIpWaitList                                 output.o
Se4GenerateSubnetMask                             output.o
Se4GenerateSubnetMask32                           output.o
Se4GetBroadcastAddress                            output.o
Se4GetHostAddress                                 output.o
Se4GetNetworkAddress                              output.o
Se4IPToStr                                        output.o
Se4IPToStr32                                      output.o
Se4IPToUINT                                       output.o
Se4Init                                           output.o
Se4InitArpEntryList                               output.o
Se4InitArpWaitList                                output.o
Se4InitIpCombineList                              output.o
Se4InitIpFragmentList                             output.o
Se4InitIpWaitList                                 output.o
Se4InsertIpCombine                                output.o
Se4InsertIpWait                                   output.o
Se4IpCheckChecksum                                output.o
Se4IpChecksum                                     output.o
Se4IsBroadcastAddress                             output.o
Se4IsInSameNetwork                                output.o
Se4IsSubnetMask                                   output.o
Se4IsZeroIP                                       output.o
Se4MacIpRelationKnown                             output.o
Se4MainProc                                       output.o
Se4Not                                            output.o
Se4Or                                             output.o
Se4ParseIpPacket                                  output.o
Se4ParseIpPacketICMPv4                            output.o
Se4ParseIpPacketUDPv4                             output.o
Se4ProcessArpWaitList                             output.o
Se4RecvArp                                        output.o
Se4RecvArpRequest                                 output.o
Se4RecvArpResponse                                output.o
Se4RecvEthPacket                                  output.o
Se4RecvIp                                         output.o
Se4RecvIpComplete                                 output.o
Se4SearchArpEntryList                             output.o
Se4SearchArpWaitList                              output.o
Se4SearchIpCombineList                            output.o
Se4SendArpDoProcess                               output.o
Se4SendArpRequest                                 output.o
Se4SendArpResponse                                output.o
Se4SendEthPacket                                  output.o
Se4SendIcmp                                       output.o
Se4SendIcmpEchoRequest                            output.o
Se4SendIcmpEchoResponse                           output.o
Se4SendIp                                         output.o
Se4SendIpFragment                                 output.o
Se4SendIpFragmentNow                              output.o
Se4SendRawIp                                      output.o
Se4SendUdp                                        output.o
Se4SendWaitingIpWait                              output.o
Se4StrToIP                                        output.o
Se4StrToIP32                                      output.o
Se4Tick                                           output.o
Se4UINTToIP                                       output.o
Se4ZeroIP                                         output.o
Se6AddGuestNode                                   output.o
Se6AddNeighborEntryList                           output.o
Se6And                                            output.o
Se6BroadcastMacAddress                            output.o
Se6BuildIcmpEchoPacket                            output.o
Se6CalcChecksum                                   output.o
Se6CheckIPItemStr                                 output.o
Se6CheckSubnetLength                              output.o
Se6CheckUnicastAddress                            output.o
Se6Cmp                                            output.o
Se6CmpIpCombineList                               output.o
Se6CmpNdpWaitEntry                                output.o
Se6CmpNeighborEntry                               output.o
Se6CombineIp                                      output.o
Se6FlushIpCombineList                             output.o
Se6FlushIpWaitList                                output.o
Se6FlushNeighborEntryList                         output.o
Se6Free                                           output.o
Se6FreeIpCombine                                  output.o
Se6FreeIpCombineList                              output.o
Se6FreeIpFragmentList                             output.o
Se6FreeIpHeaderInfo                               output.o
Se6FreeIpWait                                     output.o
Se6FreeIpWaitList                                 output.o
Se6FreeNdpWaitList                                output.o
Se6FreeNeighborEntryList                          output.o
Se6GenerateEui64Address                           output.o
Se6GenerateEui64GlobalAddress                     output.o
Se6GenerateEui64LocalAddress                      output.o
Se6GenerateMulticastMacAddress                    output.o
Se6GenerateSubnetMask                             output.o
Se6GetAllNodeMulticastAddr                        output.o
Se6GetAllRouterMulticastAddr                      output.o
Se6GetHostAddress                                 output.o
Se6GetIPAddrType                                  output.o
Se6GetPrefixAddress                               output.o
Se6GetSoliciationMulticastAddr                    output.o
Se6IPItemStrToChars                               output.o
Se6IPToStr                                        output.o
Se6Init                                           output.o
Se6InitIpCombineList                              output.o
Se6InitIpFragmentList                             output.o
Se6InitIpWaitList                                 output.o
Se6InitNdpWaitList                                output.o
Se6InitNeighborEntryList                          output.o
Se6InsertIpCombine                                output.o
Se6InsertIpWait                                   output.o
Se6IpChecksum                                     output.o
Se6IsGuestNode                                    output.o
Se6IsInSameNetwork                                output.o
Se6IsNetworkPrefixAddress                         output.o
Se6IsSubnetMask                                   output.o
Se6IsZeroIP                                       output.o
Se6LocalSubnet                                    output.o
Se6MacIpRelationKnown                             output.o
Se6MainProc                                       output.o
Se6Not                                            output.o
Se6Or                                             output.o
Se6ParseIpPacket                                  output.o
Se6ParseIpPacketICMPv6                            output.o
Se6ParseIpPacketUDPv6                             output.o
Se6ProcessNdpWaitList                             output.o
Se6RecvEthPacket                                  output.o
Se6RecvIp                                         output.o
Se6RecvIpComplete                                 output.o
Se6SearchIpCombineList                            output.o
Se6SearchNdpWaitList                              output.o
Se6SearchNeighborEntryList                        output.o
Se6SendEthPacket                                  output.o
Se6SendIcmp                                       output.o
Se6SendIcmpEchoRequest                            output.o
Se6SendIcmpEchoResponse                           output.o
Se6SendIcmpNeighborAdvertisement                  output.o
Se6SendIcmpNeighborSoliciation                    output.o
Se6SendIcmpRouterAdvertisement                    output.o
Se6SendIp                                         output.o
Se6SendIpFragment                                 output.o
Se6SendIpFragmentNow                              output.o
Se6SendNeighborSoliciation                        output.o
Se6SendNeighborSoliciationDoProcess               output.o
Se6SendRawIp                                      output.o
Se6SendUdp                                        output.o
Se6SendWaitingIpWait                              output.o
Se6StrToIP                                        output.o
Se6SubnetMaskToInt                                output.o
Se6Tick                                           output.o
Se6ZeroIP                                         output.o
SeAdd                                             output.o
SeAddBufStr                                       output.o
SeAdjustBufSize                                   output.o
SeB64CharToCode                                   output.o
SeB64CodeToChar                                   output.o
SeB64Decode                                       output.o
SeB64Encode                                       output.o
SeBSearch                                         output.o
SeBigNumToBuf                                     output.o
SeBigNumToStr                                     output.o
SeBinToBigNum                                     output.o
SeBinToStr                                        output.o
SeBinToStrEx                                      output.o
SeBioToBuf                                        output.o
SeBioToCert                                       output.o
SeBioToKey                                        output.o
SeBufToBigNum                                     output.o
SeBufToBio                                        output.o
SeBufToCert                                       output.o
SeBufToKey                                        output.o
SeBuildAndAddIPv6PacketOptionHeader               output.o
SeBuildICMPv6OptionValue                          output.o
SeBuildICMPv6Options                              output.o
SeBuildIPv6Packet                                 output.o
SeBuildIPv6PacketWithFragment                     output.o
SeCalcReplaceStrEx                                output.o
SeCertToBio                                       output.o
SeCertToBuf                                       output.o
SeCheckCert                                       output.o
SeCheckCertAndKey                                 output.o
SeCheckSignature                                  output.o
SeClearBuf                                        output.o
SeClearFifo                                       output.o
SeClone                                           output.o
SeCloneBuf                                        output.o
SeCloneCert                                       output.o
SeCloneKey                                        output.o
SeCloneList                                       output.o
SeCmp                                             output.o
SeCmpBuf                                          output.o
SeCmpEx                                           output.o
SeCompareCert                                     output.o
SeCompareStr                                      output.o
SeCopy                                            output.o
SeCopyStr                                         output.o
SeCopyToArray                                     output.o
SeDebug                                           output.o
SeDebugBin                                        output.o
SeDefaultTokenSplitChars                          output.o
SeDelete                                          output.o
SeDeleteAll                                       output.o
SeDeleteLock                                      output.o
SeDes3Decrypt                                     output.o
SeDes3Encrypt                                     output.o
SeDes3FreeKey                                     output.o
SeDes3NewKey                                      output.o
SeDes3RandKey                                     output.o
SeDesFreeKey                                      output.o
SeDesFreeKeyValue                                 output.o
SeDesNewKey                                       output.o
SeDesNewKeyValue                                  output.o
SeDesRandKey                                      output.o
SeDesRandKeyValue                                 output.o
SeDhCompute                                       output.o
SeDhFree                                          output.o
SeDhNew                                           output.o
SeDhNewGroup2                                     output.o
SeDumpBuf                                         output.o
SeEndWith                                         output.o
SeEndian16                                        output.o
SeEndian32                                        output.o
SeEndian64                                        output.o
SeError                                           output.o
SeEthAddSenderMacList                             output.o
SeEthDeleteOldSenderMacList                       output.o
SeEthFree                                         output.o
SeEthGenRandMacAddress                            output.o
SeEthGetInfo                                      output.o
SeEthGetNextRecvPacket                            output.o
SeEthIsSenderMacAddressExistsInList               output.o
SeEthNew                                          output.o
SeEthNicCallback                                  output.o
SeEthParseEthernetPacket                          output.o
SeEthSend                                         output.o
SeEthSendAdd                                      output.o
SeEthSendAll                                      output.o
SeFastSwap                                        output.o
SeFatal                                           output.o
SeFifoSize                                        output.o
SeFormat                                          output.o
SeFormatArgs                                      output.o
SeFormatEx                                        output.o
SeFree                                            output.o
SeFreeBio                                         output.o
SeFreeBuf                                         output.o
SeFreeBufWithoutBuffer                            output.o
SeFreeCert                                        output.o
SeFreeConfigEntryList                             output.o
SeFreeCrypto                                      output.o
SeFreeFifo                                        output.o
SeFreeKernel                                      output.o
SeFreeKey                                         output.o
SeFreeList                                        output.o
SeFreePKey                                        output.o
SeFreePacket                                      output.o
SeFreePacketList                                  output.o
SeFreePacketListWithoutBuffer                     output.o
SeFreeQueue                                       output.o
SeFreeStack                                       output.o
SeFreeToken                                       output.o
SeFreeX509                                        output.o
SeGetCertIssuerName                               output.o
SeGetCertMd5                                      output.o
SeGetCertSha1                                     output.o
SeGetCertSubjectName                              output.o
SeGetConfigBin                                    output.o
SeGetConfigBool                                   output.o
SeGetConfigEntry                                  output.o
SeGetConfigInt                                    output.o
SeGetConfigInt64                                  output.o
SeGetConfigStr                                    output.o
SeGetCurrentCpuId                                 output.o
SeGetKeyAndValue                                  output.o
SeGetKeyFromCert                                  output.o
SeGetNext                                         output.o
SeGetNextHeaderFromQueue                          output.o
SeGetNextInt                                      output.o
SeHashForSignBySHA1                               output.o
SeHexTo4Bit                                       output.o
SeHexToInt                                        output.o
SeHexToInt64                                      output.o
SeIkeBuild                                        output.o
SeIkeBuildCertPayload                             output.o
SeIkeBuildCertRequestPayload                      output.o
SeIkeBuildDataPayload                             output.o
SeIkeBuildDeletePayload                           output.o
SeIkeBuildIdPayload                               output.o
SeIkeBuildNoticePayload                           output.o
SeIkeBuildPayload                                 output.o
SeIkeBuildPayloadList                             output.o
SeIkeBuildProposalPayload                         output.o
SeIkeBuildSaPayload                               output.o
SeIkeBuildTransformPayload                        output.o
SeIkeBuildTransformValue                          output.o
SeIkeBuildTransformValueList                      output.o
SeIkeDecrypt                                      output.o
SeIkeEncrypt                                      output.o
SeIkeEncryptWithPadding                           output.o
SeIkeFree                                         output.o
SeIkeFreeCertPayload                              output.o
SeIkeFreeCertRequestPayload                       output.o
SeIkeFreeDataPayload                              output.o
SeIkeFreeDeletePayload                            output.o
SeIkeFreeIdPayload                                output.o
SeIkeFreeNoticePayload                            output.o
SeIkeFreePayload                                  output.o
SeIkeFreePayloadList                              output.o
SeIkeFreeProposalPayload                          output.o
SeIkeFreeSaPayload                                output.o
SeIkeFreeTransformPayload                         output.o
SeIkeFreeTransformValueList                       output.o
SeIkeGetFirstPayloadType                          output.o
SeIkeGetIPv4Address                               output.o
SeIkeGetIPv6Address                               output.o
SeIkeGetPayload                                   output.o
SeIkeGetPayloadNum                                output.o
SeIkeInitIPv4Address                              output.o
SeIkeInitIPv6Address                              output.o
SeIkeIpAddressToStr                               output.o
SeIkeIsZeroIP                                     output.o
SeIkeNew                                          output.o
SeIkeNewCertPayload                               output.o
SeIkeNewCertRequestPayload                        output.o
SeIkeNewDataPayload                               output.o
SeIkeNewDeletePayload                             output.o
SeIkeNewIdPayload                                 output.o
SeIkeNewNoticePayload                             output.o
SeIkeNewPayload                                   output.o
SeIkeNewProposalPayload                           output.o
SeIkeNewSaPayload                                 output.o
SeIkeNewTransformPayload                          output.o
SeIkeNewTransformValue                            output.o
SeIkeParse                                        output.o
SeIkeParseCertPayload                             output.o
SeIkeParseCertRequestPayload                      output.o
SeIkeParseDataPayload                             output.o
SeIkeParseDeletePayload                           output.o
SeIkeParseEx                                      output.o
SeIkeParseHeader                                  output.o
SeIkeParseIdPayload                               output.o
SeIkeParseNoticePayload                           output.o
SeIkeParsePayload                                 output.o
SeIkeParsePayloadList                             output.o
SeIkeParsePayloadListEx                           output.o
SeIkeParseProposalPayload                         output.o
SeIkeParseSaPayload                               output.o
SeIkeParseTransformPayload                        output.o
SeIkeParseTransformValueList                      output.o
SeIkePhase1CryptIdToKeySize                       output.o
SeIkePhase2CryptIdToKeySize                       output.o
SeIkeStrToPassword                                output.o
SeIkeStrToPhase1CryptId                           output.o
SeIkeStrToPhase1HashId                            output.o
SeIkeStrToPhase2CryptId                           output.o
SeIkeStrToPhase2HashId                            output.o
SeInfo                                            output.o
SeInitCrypto                                      output.o
SeInitKernel                                      output.o
SeInsert                                          output.o
SeInsertQueue                                     output.o
SeInsertQueueInt                                  output.o
SeInsertStr                                       output.o
SeIntFree                                         output.o
SeIntInit                                         output.o
SeIsAllLowerStr                                   output.o
SeIsAllUpperStr                                   output.o
SeIsBase64                                        output.o
SeIsBigEndian                                     output.o
SeIsCertSignedByCert                              output.o
SeIsCharInStr                                     output.o
SeIsEmptyStr                                      output.o
SeIsInList                                        output.o
SeIsInListStr                                     output.o
SeIsLittleEndian                                  output.o
SeIsSplitChar                                     output.o
SeIsZero                                          output.o
SeKeyToBio                                        output.o
SeKeyToBuf                                        output.o
SeLoad                                            output.o
SeLoadCert                                        output.o
SeLoadConfigEntryList                             output.o
SeLoadConfigEntryListFromBuf                      output.o
SeLoadKey                                         output.o
SeLock                                            output.o
SeLog                                             output.o
SeLogArgs                                         output.o
SeMacSha1                                         output.o
SeMacSha196                                       output.o
SeMacToStr                                        output.o
SeMakeCharArray                                   output.o
SeMalloc                                          output.o
SeMd5                                             output.o
SeMemSize                                         output.o
SeMemToBuf                                        output.o
SeNewBio                                          output.o
SeNewBuf                                          output.o
SeNewFifo                                         output.o
SeNewList                                         output.o
SeNewLock                                         output.o
SeNewQueue                                        output.o
SeNewStack                                        output.o
SeNormalizeCrlf                                   output.o
SeNullTokenList                                   output.o
SePKeyPasswordCallbackFunction                    output.o
SeParseICMPv6Options                              output.o
SeParseIPv6ExtHeader                              output.o
SeParseIPv6Packet                                 output.o
SeParsePacket                                     output.o
SeParsePacketL2                                   output.o
SeParsePacketL3ARPv4                              output.o
SeParsePacketL3IPv4                               output.o
SeParsePacketL3IPv6                               output.o
SeParseToken                                      output.o
SeParseTokenWithNullStr                           output.o
SePeekFifo                                        output.o
SePeekNext                                        output.o
SePop                                             output.o
SePush                                            output.o
SeQSort                                           output.o
SeRand                                            output.o
SeRand1                                           output.o
SeRand16                                          output.o
SeRand32                                          output.o
SeRand64                                          output.o
SeRand8                                           output.o
SeRandBuf                                         output.o
SeReAlloc                                         output.o
SeReadBuf                                         output.o
SeReadBufFromBuf                                  output.o
SeReadBufInt                                      output.o
SeReadBufInt64                                    output.o
SeReadBufStr                                      output.o
SeReadDump                                        output.o
SeReadFifo                                        output.o
SeReadNextLine                                    output.o
SeReadRemainBuf                                   output.o
SeReplaceListPointer                              output.o
SeReplaceStr                                      output.o
SeReplaceStrEx                                    output.o
SeReplaceStri                                     output.o
SeRsaGen                                          output.o
SeRsaPrivateDecrypt                               output.o
SeRsaPrivateEncrypt                               output.o
SeRsaPublicDecrypt                                output.o
SeRsaPublicEncrypt                                output.o
SeRsaPublicSize                                   output.o
SeRsaPublicToBin                                  output.o
SeRsaPublicToBuf                                  output.o
SeRsaSign                                         output.o
SeRsaSignWithPadding                              output.o
SeRsaSignWithSha1                                 output.o
SeRsaVerifyWithPadding                            output.o
SeRsaVerifyWithSha1                               output.o
SeSave                                            output.o
SeSaveCert                                        output.o
SeSaveKey                                         output.o
SeSearch                                          output.o
SeSearchStr                                       output.o
SeSearchStrEx                                     output.o
SeSearchStri                                      output.o
SeSecAddTimer                                     output.o
SeSecCalcKEYMAT                                   output.o
SeSecCalcKEYMATFull                               output.o
SeSecCalcKa                                       output.o
SeSecCalcP1Iv                                     output.o
SeSecCalcP1KeySet                                 output.o
SeSecCalcP2Iv                                     output.o
SeSecCheckIPsecSaExpires                          output.o
SeSecCheckIkeSaExpires                            output.o
SeSecCmpIkeSa                                     output.o
SeSecDeleteExpiredIPsecSa                         output.o
SeSecDeleteExpiredIkeSa                           output.o
SeSecDoInterval                                   output.o
SeSecEspRecvCallback                              output.o
SeSecForceReconnect                               output.o
SeSecFree                                         output.o
SeSecFreeIPsecSa                                  output.o
SeSecFreeIkeSa                                    output.o
SeSecFreeMain                                     output.o
SeSecFreeP1KeySet                                 output.o
SeSecFreeSaList                                   output.o
SeSecGenIPsecSASpi                                output.o
SeSecGenIkeSaInitCookie                           output.o
SeSecGenIkeSaMessageId                            output.o
SeSecGetIPsecSa                                   output.o
SeSecInit                                         output.o
SeSecInitMain                                     output.o
SeSecInitSaList                                   output.o
SeSecLifeSeconds64bit                             output.o
SeSecNewIPsecSa                                   output.o
SeSecNewIkeSa                                     output.o
SeSecNewSpi                                       output.o
SeSecProcessIkeSaMsg                              output.o
SeSecProcessIkeSaMsgInfo                          output.o
SeSecProcessIkeSaMsgPhase1                        output.o
SeSecProcessIkeSaMsgPhase2                        output.o
SeSecProcessMain                                  output.o
SeSecSearchIPsecSaBySpi                           output.o
SeSecSearchIkeSa                                  output.o
SeSecSearchIkeSaBySpi                             output.o
SeSecSendEsp                                      output.o
SeSecSendIPsecSaDeleteMsg                         output.o
SeSecSendIkeSaDeleteMsg                           output.o
SeSecSendIkeSaMsgInfo                             output.o
SeSecSendIkeSaMsgInfoSimple                       output.o
SeSecSendIkeSaMsgPhase2                           output.o
SeSecSendIkeSaMsgPhase2FinalHash                  output.o
SeSecSendUdp                                      output.o
SeSecSendVirtualIp                                output.o
SeSecSetRecvEspCallback                           output.o
SeSecSetRecvUdpCallback                           output.o
SeSecSetRecvVirtualIpCallback                     output.o
SeSecSetTimerCallback                             output.o
SeSecStartVpnConnect                              output.o
SeSecStrToAuthMethod                              output.o
SeSecTick                                         output.o
SeSecTimerCallback                                output.o
SeSecUdpRecvCallback                              output.o
SeSecVirtualIpRecvCallback                        output.o
SeSeekBuf                                         output.o
SeSetCmp                                          output.o
SeSetSortFlag                                     output.o
SeSha1                                            output.o
SeSort                                            output.o
SeStartWith                                       output.o
SeStrCat                                          output.o
SeStrCheckLen                                     output.o
SeStrCheckSize                                    output.o
SeStrCmp                                          output.o
SeStrCmpi                                         output.o
SeStrCpy                                          output.o
SeStrLen                                          output.o
SeStrLower                                        output.o
SeStrSize                                         output.o
SeStrToBin                                        output.o
SeStrToBinEx                                      output.o
SeStrToMac                                        output.o
SeStrUpper                                        output.o
SeStrnCmp                                         output.o
SeStrnCmpi                                        output.o
SeSwap                                            output.o
SeSwap16                                          output.o
SeSwap32                                          output.o
SeSwap64                                          output.o
SeSysFreeData                                     output.o
SeSysFreeLock                                     output.o
SeSysFreeTimer                                    output.o
SeSysGetCurrentCpuId                              output.o
SeSysGetPhysicalNicInfo                           output.o
SeSysGetTickCount                                 output.o
SeSysGetVirtualNicInfo                            output.o
SeSysLoadData                                     output.o
SeSysLock                                         output.o
SeSysLog                                          output.o
SeSysMemoryAlloc                                  output.o
SeSysMemoryFree                                   output.o
SeSysMemoryReAlloc                                output.o
SeSysNewLock                                      output.o
SeSysNewTimer                                     output.o
SeSysRsaSign                                      output.o
SeSysSaveData                                     output.o
SeSysSendPhysicalNic                              output.o
SeSysSendVirtualNic                               output.o
SeSysSetPhysicalNicRecvCallback                   output.o
SeSysSetTimer                                     output.o
SeSysSetVirtualNicRecvCallback                    output.o
SeSysUnlock                                       output.o
SeTick                                            output.o
SeTick64                                          output.o
SeTick64Internal                                  output.o
SeTimerAdjust                                     output.o
SeTimerCallback                                   output.o
SeTimerEntryCompare                               output.o
SeTimerFree                                       output.o
SeTimerNew                                        output.o
SeTimerSet                                        output.o
SeToArray                                         output.o
SeToHex                                           output.o
SeToHex64                                         output.o
SeToInt                                           output.o
SeToInt64                                         output.o
SeToLower                                         output.o
SeToStr                                           output.o
SeToStr3                                          output.o
SeToStr64                                         output.o
SeToUpper                                         output.o
SeTrim                                            output.o
SeTrimCopy                                        output.o
SeTrimCrlf                                        output.o
SeTrimLeft                                        output.o
SeTrimRight                                       output.o
SeUniqueToken                                     output.o
SeUnlock                                          output.o
SeVpn4ClientAddTimer                              output.o
SeVpn4ClientGetTick                               output.o
SeVpn4ClientSendEsp                               output.o
SeVpn4ClientSendUdp                               output.o
SeVpn4ClientSendVirtualIp                         output.o
SeVpn4ClientSetRecvEspCallback                    output.o
SeVpn4ClientSetRecvUdpCallback                    output.o
SeVpn4ClientSetRecvVirtualIpCallback              output.o
SeVpn4ClientSetTimerCallback                      output.o
SeVpn4DhcpBuildDhcpOptionList                     output.o
SeVpn4DhcpFreeOptionList                          output.o
SeVpn4DhcpOptionsToBuf                            output.o
SeVpn4DhcpParseOptionList                         output.o
SeVpn4DhcpParseOptionListMain                     output.o
SeVpn4DhcpSearchOption                            output.o
SeVpn4DhcpSendResponse                            output.o
SeVpn4DhcpServer                                  output.o
SeVpn4DoInterval                                  output.o
SeVpn4Free                                        output.o
SeVpn4FreeIPsec                                   output.o
SeVpn4IPsecInputFromPhysical                      output.o
SeVpn4IPsecInputFromVirtual                       output.o
SeVpn4IPsecMainProc                               output.o
SeVpn4IPsecSendPing                               output.o
SeVpn4Init                                        output.o
SeVpn4InitIPsec                                   output.o
SeVpn4InitSecConfig                               output.o
SeVpn4MainProc                                    output.o
SeVpn4NewDhcpOption                               output.o
SeVpn4RecvPacketPhysical                          output.o
SeVpn4RecvPacketVirtual                           output.o
SeVpn4SetTimer                                    output.o
SeVpn4Tick                                        output.o
SeVpn6ClientAddTimer                              output.o
SeVpn6ClientGetTick                               output.o
SeVpn6ClientSendEsp                               output.o
SeVpn6ClientSendUdp                               output.o
SeVpn6ClientSendVirtualIp                         output.o
SeVpn6ClientSetRecvEspCallback                    output.o
SeVpn6ClientSetRecvUdpCallback                    output.o
SeVpn6ClientSetRecvVirtualIpCallback              output.o
SeVpn6ClientSetTimerCallback                      output.o
SeVpn6DoInterval                                  output.o
SeVpn6Free                                        output.o
SeVpn6FreeIPsec                                   output.o
SeVpn6IPsecInputFromPhysical                      output.o
SeVpn6IPsecInputFromVirtual                       output.o
SeVpn6IPsecMainProc                               output.o
SeVpn6IPsecSendPing                               output.o
SeVpn6Init                                        output.o
SeVpn6InitIPsec                                   output.o
SeVpn6InitSecConfig                               output.o
SeVpn6MainProc                                    output.o
SeVpn6RecvPacketPhysical                          output.o
SeVpn6RecvPacketVirtual                           output.o
SeVpn6SetTimer                                    output.o
SeVpn6Tick                                        output.o
SeVpn6UpdateGuestOsIpAddress                      output.o
SeVpnAddTimer                                     output.o
SeVpnDoInterval                                   output.o
SeVpnEthRecvCallback                              output.o
SeVpnFree                                         output.o
SeVpnFreeConfig                                   output.o
SeVpnFreeIpStack                                  output.o
SeVpnInit                                         output.o
SeVpnInitIpStack                                  output.o
SeVpnLoadConfig                                   output.o
SeVpnMainFree                                     output.o
SeVpnMainHandler                                  output.o
SeVpnMainInit                                     output.o
SeVpnMainProcRecvEtherPacket                      output.o
SeVpnMainProcess                                  output.o
SeVpnRecvEtherPacket                              output.o
SeVpnRecvIpV4PacketCallback                       output.o
SeVpnRecvIpV6PacketCallback                       output.o
SeVpnSendEtherPacket                              output.o
SeVpnStatusChanged                                output.o
SeVpnTick                                         output.o
SeVpnTimerCallback                                output.o
SeWarning                                         output.o
SeWriteBuf                                        output.o
SeWriteBufBuf                                     output.o
SeWriteBufInt                                     output.o
SeWriteBufInt64                                   output.o
SeWriteBufLine                                    output.o
SeWriteBufStr                                     output.o
SeWriteFifo                                       output.o
SeX509ToCert                                      output.o
SeZero                                            output.o
SeZeroMalloc                                      output.o
SelectFileDF                                      output.o
SelectFileEF                                      output.o
SetATR                                            output.o
SetElem                                           output.o
SetLength                                         output.o
StIsdigit                                         output.o
StIsspace                                         output.o
T0XfrBlockCHAR                                    output.o
T0XfrBlockTPDU                                    output.o
T1NegociateIFSD                                   output.o
T1XfrBlockExtendedAPDU                            output.o
T1XfrBlockTPDU                                    output.o
TransHex2Tex                                      output.o
TransTex2Hex                                      output.o
TransmitCommand                                   output.o
TransmitPPS                                       output.o
UI_OpenSSL                                        output.o
UI_add_error_string                               output.o
UI_add_info_string                                output.o
UI_add_input_boolean                              output.o
UI_add_input_string                               output.o
UI_add_user_data                                  output.o
UI_add_verify_string                              output.o
UI_construct_prompt                               output.o
UI_create_method                                  output.o
UI_ctrl                                           output.o
UI_destroy_method                                 output.o
UI_dup_error_string                               output.o
UI_dup_info_string                                output.o
UI_dup_input_boolean                              output.o
UI_dup_input_string                               output.o
UI_dup_verify_string                              output.o
UI_free                                           output.o
UI_get0_action_string                             output.o
UI_get0_output_string                             output.o
UI_get0_result                                    output.o
UI_get0_result_string                             output.o
UI_get0_test_string                               output.o
UI_get0_user_data                                 output.o
UI_get_default_method                             output.o
UI_get_ex_data                                    output.o
UI_get_ex_new_index                               output.o
UI_get_input_flags                                output.o
UI_get_method                                     output.o
UI_get_result_maxsize                             output.o
UI_get_result_minsize                             output.o
UI_get_string_type                                output.o
UI_method_get_closer                              output.o
UI_method_get_flusher                             output.o
UI_method_get_opener                              output.o
UI_method_get_prompt_constructor                  output.o
UI_method_get_reader                              output.o
UI_method_get_writer                              output.o
UI_method_set_closer                              output.o
UI_method_set_flusher                             output.o
UI_method_set_opener                              output.o
UI_method_set_prompt_constructor                  output.o
UI_method_set_reader                              output.o
UI_method_set_writer                              output.o
UI_new                                            output.o
UI_new_method                                     output.o
UI_process                                        output.o
UI_set_default_method                             output.o
UI_set_ex_data                                    output.o
UI_set_method                                     output.o
UI_set_result                                     output.o
USERNOTICE_free                                   output.o
USERNOTICE_it                                     output.o
USERNOTICE_new                                    output.o
UTF8_getc                                         output.o
UTF8_putc                                         output.o
UpdateBinary                                      output.o
VPN_IPsec_Client_Start                            output.o
VPN_IPsec_Client_Stop                             output.o
VPN_IPsec_Free                                    output.o
VPN_IPsec_Init                                    output.o
Verify                                            output.o
WHIRLPOOL                                         output.o
WHIRLPOOL_BitUpdate                               output.o
WHIRLPOOL_Final                                   output.o
WHIRLPOOL_Init                                    output.o
WHIRLPOOL_Update                                  output.o
WriteUSB                                          output.o
X509V3_EXT_CRL_add_conf                           output.o
X509V3_EXT_CRL_add_nconf                          output.o
X509V3_EXT_REQ_add_conf                           output.o
X509V3_EXT_REQ_add_nconf                          output.o
X509V3_EXT_add                                    output.o
X509V3_EXT_add_alias                              output.o
X509V3_EXT_add_conf                               output.o
X509V3_EXT_add_list                               output.o
X509V3_EXT_add_nconf                              output.o
X509V3_EXT_add_nconf_sk                           output.o
X509V3_EXT_cleanup                                output.o
X509V3_EXT_conf                                   output.o
X509V3_EXT_conf_nid                               output.o
X509V3_EXT_d2i                                    output.o
X509V3_EXT_get                                    output.o
X509V3_EXT_get_nid                                output.o
X509V3_EXT_i2d                                    output.o
X509V3_EXT_nconf                                  output.o
X509V3_EXT_nconf_nid                              output.o
X509V3_EXT_print                                  output.o
X509V3_EXT_val_prn                                output.o
X509V3_NAME_from_section                          output.o
X509V3_add1_i2d                                   output.o
X509V3_add_standard_extensions                    output.o
X509V3_add_value                                  output.o
X509V3_add_value_bool                             output.o
X509V3_add_value_bool_nf                          output.o
X509V3_add_value_int                              output.o
X509V3_add_value_uchar                            output.o
X509V3_conf_free                                  output.o
X509V3_extensions_print                           output.o
X509V3_get_d2i                                    output.o
X509V3_get_section                                output.o
X509V3_get_string                                 output.o
X509V3_get_value_bool                             output.o
X509V3_get_value_int                              output.o
X509V3_parse_list                                 output.o
X509V3_section_free                               output.o
X509V3_set_conf_lhash                             output.o
X509V3_set_ctx                                    output.o
X509V3_set_nconf                                  output.o
X509V3_string_free                                output.o
X509_ALGORS_it                                    output.o
X509_ALGOR_dup                                    output.o
X509_ALGOR_free                                   output.o
X509_ALGOR_get0                                   output.o
X509_ALGOR_it                                     output.o
X509_ALGOR_new                                    output.o
X509_ALGOR_set0                                   output.o
X509_ATTRIBUTE_SET_it                             output.o
X509_ATTRIBUTE_count                              output.o
X509_ATTRIBUTE_create                             output.o
X509_ATTRIBUTE_create_by_NID                      output.o
X509_ATTRIBUTE_create_by_OBJ                      output.o
X509_ATTRIBUTE_create_by_txt                      output.o
X509_ATTRIBUTE_dup                                output.o
X509_ATTRIBUTE_free                               output.o
X509_ATTRIBUTE_get0_data                          output.o
X509_ATTRIBUTE_get0_object                        output.o
X509_ATTRIBUTE_get0_type                          output.o
X509_ATTRIBUTE_it                                 output.o
X509_ATTRIBUTE_new                                output.o
X509_ATTRIBUTE_set1_data                          output.o
X509_ATTRIBUTE_set1_object                        output.o
X509_CERT_AUX_free                                output.o
X509_CERT_AUX_it                                  output.o
X509_CERT_AUX_new                                 output.o
X509_CERT_AUX_print                               output.o
X509_CERT_PAIR_free                               output.o
X509_CERT_PAIR_it                                 output.o
X509_CERT_PAIR_new                                output.o
X509_CINF_free                                    output.o
X509_CINF_it                                      output.o
X509_CINF_new                                     output.o
X509_CRL_INFO_free                                output.o
X509_CRL_INFO_it                                  output.o
X509_CRL_INFO_new                                 output.o
X509_CRL_METHOD_free                              output.o
X509_CRL_METHOD_new                               output.o
X509_CRL_add0_revoked                             output.o
X509_CRL_add1_ext_i2d                             output.o
X509_CRL_add_ext                                  output.o
X509_CRL_cmp                                      output.o
X509_CRL_delete_ext                               output.o
X509_CRL_digest                                   output.o
X509_CRL_dup                                      output.o
X509_CRL_free                                     output.o
X509_CRL_get0_by_cert                             output.o
X509_CRL_get0_by_serial                           output.o
X509_CRL_get_ext                                  output.o
X509_CRL_get_ext_by_NID                           output.o
X509_CRL_get_ext_by_OBJ                           output.o
X509_CRL_get_ext_by_critical                      output.o
X509_CRL_get_ext_count                            output.o
X509_CRL_get_ext_d2i                              output.o
X509_CRL_get_meth_data                            output.o
X509_CRL_it                                       output.o
X509_CRL_match                                    output.o
X509_CRL_new                                      output.o
X509_CRL_set_default_method                       output.o
X509_CRL_set_meth_data                            output.o
X509_CRL_sign                                     output.o
X509_CRL_verify                                   output.o
X509_EXTENSIONS_it                                output.o
X509_EXTENSION_create_by_NID                      output.o
X509_EXTENSION_create_by_OBJ                      output.o
X509_EXTENSION_dup                                output.o
X509_EXTENSION_free                               output.o
X509_EXTENSION_get_critical                       output.o
X509_EXTENSION_get_data                           output.o
X509_EXTENSION_get_object                         output.o
X509_EXTENSION_it                                 output.o
X509_EXTENSION_new                                output.o
X509_EXTENSION_set_critical                       output.o
X509_EXTENSION_set_data                           output.o
X509_EXTENSION_set_object                         output.o
X509_LOOKUP_by_alias                              output.o
X509_LOOKUP_by_fingerprint                        output.o
X509_LOOKUP_by_issuer_serial                      output.o
X509_LOOKUP_by_subject                            output.o
X509_LOOKUP_ctrl                                  output.o
X509_LOOKUP_free                                  output.o
X509_LOOKUP_init                                  output.o
X509_LOOKUP_new                                   output.o
X509_LOOKUP_shutdown                              output.o
X509_NAME_ENTRIES_it                              output.o
X509_NAME_ENTRY_create_by_NID                     output.o
X509_NAME_ENTRY_create_by_OBJ                     output.o
X509_NAME_ENTRY_create_by_txt                     output.o
X509_NAME_ENTRY_dup                               output.o
X509_NAME_ENTRY_free                              output.o
X509_NAME_ENTRY_get_data                          output.o
X509_NAME_ENTRY_get_object                        output.o
X509_NAME_ENTRY_it                                output.o
X509_NAME_ENTRY_new                               output.o
X509_NAME_ENTRY_set_data                          output.o
X509_NAME_ENTRY_set_object                        output.o
X509_NAME_INTERNAL_it                             output.o
X509_NAME_add_entry                               output.o
X509_NAME_add_entry_by_NID                        output.o
X509_NAME_add_entry_by_OBJ                        output.o
X509_NAME_add_entry_by_txt                        output.o
X509_NAME_cmp                                     output.o
X509_NAME_delete_entry                            output.o
X509_NAME_digest                                  output.o
X509_NAME_dup                                     output.o
X509_NAME_entry_count                             output.o
X509_NAME_free                                    output.o
X509_NAME_get_entry                               output.o
X509_NAME_get_index_by_NID                        output.o
X509_NAME_get_index_by_OBJ                        output.o
X509_NAME_get_text_by_NID                         output.o
X509_NAME_get_text_by_OBJ                         output.o
X509_NAME_hash                                    output.o
X509_NAME_hash_old                                output.o
X509_NAME_it                                      output.o
X509_NAME_new                                     output.o
X509_NAME_oneline                                 output.o
X509_NAME_print                                   output.o
X509_NAME_print_ex                                output.o
X509_NAME_set                                     output.o
X509_OBJECT_free_contents                         output.o
X509_OBJECT_idx_by_subject                        output.o
X509_OBJECT_retrieve_by_subject                   output.o
X509_OBJECT_retrieve_match                        output.o
X509_OBJECT_up_ref_count                          output.o
X509_POLICY_NODE_print                            output.o
X509_PUBKEY_free                                  output.o
X509_PUBKEY_get                                   output.o
X509_PUBKEY_get0_param                            output.o
X509_PUBKEY_it                                    output.o
X509_PUBKEY_new                                   output.o
X509_PUBKEY_set                                   output.o
X509_PUBKEY_set0_param                            output.o
X509_PURPOSE_add                                  output.o
X509_PURPOSE_cleanup                              output.o
X509_PURPOSE_get0                                 output.o
X509_PURPOSE_get0_name                            output.o
X509_PURPOSE_get0_sname                           output.o
X509_PURPOSE_get_by_id                            output.o
X509_PURPOSE_get_by_sname                         output.o
X509_PURPOSE_get_count                            output.o
X509_PURPOSE_get_id                               output.o
X509_PURPOSE_get_trust                            output.o
X509_PURPOSE_set                                  output.o
X509_REQ_INFO_free                                output.o
X509_REQ_INFO_it                                  output.o
X509_REQ_INFO_new                                 output.o
X509_REQ_add1_attr                                output.o
X509_REQ_add1_attr_by_NID                         output.o
X509_REQ_add1_attr_by_OBJ                         output.o
X509_REQ_add1_attr_by_txt                         output.o
X509_REQ_add_extensions                           output.o
X509_REQ_add_extensions_nid                       output.o
X509_REQ_check_private_key                        output.o
X509_REQ_delete_attr                              output.o
X509_REQ_digest                                   output.o
X509_REQ_dup                                      output.o
X509_REQ_extension_nid                            output.o
X509_REQ_free                                     output.o
X509_REQ_get1_email                               output.o
X509_REQ_get_attr                                 output.o
X509_REQ_get_attr_by_NID                          output.o
X509_REQ_get_attr_by_OBJ                          output.o
X509_REQ_get_attr_count                           output.o
X509_REQ_get_extension_nids                       output.o
X509_REQ_get_extensions                           output.o
X509_REQ_get_pubkey                               output.o
X509_REQ_it                                       output.o
X509_REQ_new                                      output.o
X509_REQ_set_extension_nids                       output.o
X509_REQ_set_pubkey                               output.o
X509_REQ_set_subject_name                         output.o
X509_REQ_set_version                              output.o
X509_REQ_sign                                     output.o
X509_REQ_verify                                   output.o
X509_REVOKED_add1_ext_i2d                         output.o
X509_REVOKED_add_ext                              output.o
X509_REVOKED_delete_ext                           output.o
X509_REVOKED_free                                 output.o
X509_REVOKED_get_ext                              output.o
X509_REVOKED_get_ext_by_NID                       output.o
X509_REVOKED_get_ext_by_OBJ                       output.o
X509_REVOKED_get_ext_by_critical                  output.o
X509_REVOKED_get_ext_count                        output.o
X509_REVOKED_get_ext_d2i                          output.o
X509_REVOKED_it                                   output.o
X509_REVOKED_new                                  output.o
X509_SIG_free                                     output.o
X509_SIG_it                                       output.o
X509_SIG_new                                      output.o
X509_STORE_CTX_cleanup                            output.o
X509_STORE_CTX_free                               output.o
X509_STORE_CTX_get0_current_crl                   output.o
X509_STORE_CTX_get0_current_issuer                output.o
X509_STORE_CTX_get0_param                         output.o
X509_STORE_CTX_get0_parent_ctx                    output.o
X509_STORE_CTX_get0_policy_tree                   output.o
X509_STORE_CTX_get1_chain                         output.o
X509_STORE_CTX_get1_issuer                        output.o
X509_STORE_CTX_get_chain                          output.o
X509_STORE_CTX_get_current_cert                   output.o
X509_STORE_CTX_get_error                          output.o
X509_STORE_CTX_get_error_depth                    output.o
X509_STORE_CTX_get_ex_data                        output.o
X509_STORE_CTX_get_ex_new_index                   output.o
X509_STORE_CTX_get_explicit_policy                output.o
X509_STORE_CTX_init                               output.o
X509_STORE_CTX_new                                output.o
X509_STORE_CTX_purpose_inherit                    output.o
X509_STORE_CTX_set0_crls                          output.o
X509_STORE_CTX_set0_param                         output.o
X509_STORE_CTX_set_cert                           output.o
X509_STORE_CTX_set_chain                          output.o
X509_STORE_CTX_set_default                        output.o
X509_STORE_CTX_set_depth                          output.o
X509_STORE_CTX_set_error                          output.o
X509_STORE_CTX_set_ex_data                        output.o
X509_STORE_CTX_set_flags                          output.o
X509_STORE_CTX_set_purpose                        output.o
X509_STORE_CTX_set_time                           output.o
X509_STORE_CTX_set_trust                          output.o
X509_STORE_CTX_set_verify_cb                      output.o
X509_STORE_CTX_trusted_stack                      output.o
X509_STORE_add_cert                               output.o
X509_STORE_add_crl                                output.o
X509_STORE_add_lookup                             output.o
X509_STORE_free                                   output.o
X509_STORE_get1_certs                             output.o
X509_STORE_get1_crls                              output.o
X509_STORE_get_by_subject                         output.o
X509_STORE_new                                    output.o
X509_STORE_set1_param                             output.o
X509_STORE_set_depth                              output.o
X509_STORE_set_flags                              output.o
X509_STORE_set_purpose                            output.o
X509_STORE_set_trust                              output.o
X509_STORE_set_verify_cb                          output.o
X509_TRUST_add                                    output.o
X509_TRUST_cleanup                                output.o
X509_TRUST_get0                                   output.o
X509_TRUST_get0_name                              output.o
X509_TRUST_get_by_id                              output.o
X509_TRUST_get_count                              output.o
X509_TRUST_get_flags                              output.o
X509_TRUST_get_trust                              output.o
X509_TRUST_set                                    output.o
X509_TRUST_set_default                            output.o
X509_VAL_free                                     output.o
X509_VAL_it                                       output.o
X509_VAL_new                                      output.o
X509_VERIFY_PARAM_add0_policy                     output.o
X509_VERIFY_PARAM_add0_table                      output.o
X509_VERIFY_PARAM_clear_flags                     output.o
X509_VERIFY_PARAM_free                            output.o
X509_VERIFY_PARAM_get_depth                       output.o
X509_VERIFY_PARAM_get_flags                       output.o
X509_VERIFY_PARAM_inherit                         output.o
X509_VERIFY_PARAM_lookup                          output.o
X509_VERIFY_PARAM_new                             output.o
X509_VERIFY_PARAM_set1                            output.o
X509_VERIFY_PARAM_set1_name                       output.o
X509_VERIFY_PARAM_set1_policies                   output.o
X509_VERIFY_PARAM_set_depth                       output.o
X509_VERIFY_PARAM_set_flags                       output.o
X509_VERIFY_PARAM_set_purpose                     output.o
X509_VERIFY_PARAM_set_time                        output.o
X509_VERIFY_PARAM_set_trust                       output.o
X509_VERIFY_PARAM_table_cleanup                   output.o
X509_add1_ext_i2d                                 output.o
X509_add1_reject_object                           output.o
X509_add1_trust_object                            output.o
X509_add_ext                                      output.o
X509_alias_get0                                   output.o
X509_alias_set1                                   output.o
X509_check_akid                                   output.o
X509_check_ca                                     output.o
X509_check_issued                                 output.o
X509_check_private_key                            output.o
X509_check_purpose                                output.o
X509_check_trust                                  output.o
X509_cmp                                          output.o
X509_cmp_current_time                             output.o
X509_cmp_time                                     output.o
X509_delete_ext                                   output.o
X509_digest                                       output.o
X509_dup                                          output.o
X509_email_free                                   output.o
X509_find_by_issuer_and_serial                    output.o
X509_find_by_subject                              output.o
X509_free                                         output.o
X509_get0_pubkey_bitstr                           output.o
X509_get1_email                                   output.o
X509_get1_ocsp                                    output.o
X509_get_default_cert_area                        output.o
X509_get_default_cert_dir                         output.o
X509_get_default_cert_dir_env                     output.o
X509_get_default_cert_file                        output.o
X509_get_default_cert_file_env                    output.o
X509_get_default_private_dir                      output.o
X509_get_ex_data                                  output.o
X509_get_ex_new_index                             output.o
X509_get_ext                                      output.o
X509_get_ext_by_NID                               output.o
X509_get_ext_by_OBJ                               output.o
X509_get_ext_by_critical                          output.o
X509_get_ext_count                                output.o
X509_get_ext_d2i                                  output.o
X509_get_issuer_name                              output.o
X509_get_pubkey                                   output.o
X509_get_pubkey_parameters                        output.o
X509_get_serialNumber                             output.o
X509_get_subject_name                             output.o
X509_gmtime_adj                                   output.o
X509_issuer_and_serial_cmp                        output.o
X509_issuer_and_serial_hash                       output.o
X509_issuer_name_cmp                              output.o
X509_issuer_name_hash                             output.o
X509_issuer_name_hash_old                         output.o
X509_it                                           output.o
X509_keyid_get0                                   output.o
X509_keyid_set1                                   output.o
X509_new                                          output.o
X509_ocspid_print                                 output.o
X509_policy_check                                 output.o
X509_policy_level_get0_node                       output.o
X509_policy_level_node_count                      output.o
X509_policy_node_get0_parent                      output.o
X509_policy_node_get0_policy                      output.o
X509_policy_node_get0_qualifiers                  output.o
X509_policy_tree_free                             output.o
X509_policy_tree_get0_level                       output.o
X509_policy_tree_get0_policies                    output.o
X509_policy_tree_get0_user_policies               output.o
X509_policy_tree_level_count                      output.o
X509_print                                        output.o
X509_print_ex                                     output.o
X509_pubkey_digest                                output.o
X509_reject_clear                                 output.o
X509_set_ex_data                                  output.o
X509_sign                                         output.o
X509_signature_print                              output.o
X509_subject_name_cmp                             output.o
X509_subject_name_hash                            output.o
X509_subject_name_hash_old                        output.o
X509_supported_extension                          output.o
X509_time_adj                                     output.o
X509_time_adj_ex                                  output.o
X509_to_X509_REQ                                  output.o
X509_trust_clear                                  output.o
X509_verify                                       output.o
X509_verify_cert                                  output.o
X509_version                                      output.o
X509at_add1_attr                                  output.o
X509at_add1_attr_by_NID                           output.o
X509at_add1_attr_by_OBJ                           output.o
X509at_add1_attr_by_txt                           output.o
X509at_delete_attr                                output.o
X509at_get0_data_by_OBJ                           output.o
X509at_get_attr                                   output.o
X509at_get_attr_by_NID                            output.o
X509at_get_attr_by_OBJ                            output.o
X509at_get_attr_count                             output.o
X509v3_add_ext                                    output.o
X509v3_delete_ext                                 output.o
X509v3_get_ext                                    output.o
X509v3_get_ext_by_NID                             output.o
X509v3_get_ext_by_OBJ                             output.o
X509v3_get_ext_by_critical                        output.o
X509v3_get_ext_count                              output.o
X9_62_CHARACTERISTIC_TWO_free                     output.o
X9_62_CHARACTERISTIC_TWO_it                       output.o
X9_62_CHARACTERISTIC_TWO_new                      output.o
X9_62_CURVE_it                                    output.o
X9_62_FIELDID_it                                  output.o
X9_62_PENTANOMIAL_free                            output.o
X9_62_PENTANOMIAL_it                              output.o
X9_62_PENTANOMIAL_new                             output.o
ZLONG_it                                          output.o
_CONF_add_string                                  output.o
_CONF_free_data                                   output.o
_CONF_get_section                                 output.o
_CONF_get_section_values                          output.o
_CONF_get_string                                  output.o
_CONF_new_data                                    output.o
_CONF_new_section                                 output.o
__initfunc_acpi_init_global                       output.o
__initfunc_acpi_init_paral                        output.o
__initfunc_ata_init                               output.o
__initfunc_beep_init_msg                          output.o
__initfunc_cache_init_pass                        output.o
__initfunc_cache_init_pcpu                        output.o
__initfunc_cache_init_vcpu                        output.o
__initfunc_callrealmode_init_global               output.o
__initfunc_callrealmode_panic                     output.o
__initfunc_copy_minios                            output.o
__initfunc_core_init                              output.o
__initfunc_cpu_mmu_spt_init_global                output.o
__initfunc_cpu_mmu_spt_init_pcpu                  output.o
__initfunc_cpuid_init                             output.o
__initfunc_cpuid_pass_init                        output.o
__initfunc_create_pass_vm                         output.o
__initfunc_debug_ata_init                         output.o
__initfunc_debug_on_shift_key                     output.o
__initfunc_ehci_init                              output.o
__initfunc_end                                    output.o
__initfunc_exint_pass_init                        output.o
__initfunc_get_shiftflags                         output.o
__initfunc_gmm_pass_init                          output.o
__initfunc_idman_init                             output.o
__initfunc_idman_init_global                      output.o
__initfunc_idman_kernel_init                      output.o
__initfunc_ieee1394_init                          output.o
__initfunc_ieee1394_init_boot                     output.o
__initfunc_install_int0x15_hook                   output.o
__initfunc_int_init_global                        output.o
__initfunc_int_wakeup                             output.o
__initfunc_io_io_init                             output.o
__initfunc_io_iopass_init                         output.o
__initfunc_iommu_setup                            output.o
__initfunc_keyboard_init_msg                      output.o
__initfunc_localapic_init                         output.o
__initfunc_mm_init_global                         output.o
__initfunc_mmio_debug                             output.o
__initfunc_mmio_init                              output.o
__initfunc_msg_init_global                        output.o
__initfunc_msr_init                               output.o
__initfunc_msr_pass_init                          output.o
__initfunc_nmi_pass_init                          output.o
__initfunc_nmi_pass_init_pcpu                     output.o
__initfunc_panic_init_global                      output.o
__initfunc_panic_init_global3                     output.o
__initfunc_panic_init_msg                         output.o
__initfunc_panic_init_pcpu                        output.o
__initfunc_pci_init                               output.o
__initfunc_print_boot_msg                         output.o
__initfunc_printf_init_global                     output.o
__initfunc_pro100_init                            output.o
__initfunc_process_init_ap                        output.o
__initfunc_process_init_global                    output.o
__initfunc_process_wakeup                         output.o
__initfunc_random_init_config0                    output.o
__initfunc_random_init_global                     output.o
__initfunc_reboot_init_msg                        output.o
__initfunc_resume_pro1000                         output.o
__initfunc_segment_init_global                    output.o
__initfunc_serial_init_msg                        output.o
__initfunc_setiohooks                             output.o
__initfunc_sleep_init_global                      output.o
__initfunc_sleep_init_msg                         output.o
__initfunc_start                                  output.o
__initfunc_storage_io_initfunc                    output.o
__initfunc_storage_kernel_init                    output.o
__initfunc_suspend_pro1000                        output.o
__initfunc_svm_panic                              output.o
__initfunc_sx_init_pass_init                      output.o
__initfunc_thread_init_global                     output.o
__initfunc_thread_init_pcpu                       output.o
__initfunc_time_init_global                       output.o
__initfunc_time_init_global_status                output.o
__initfunc_time_init_msg                          output.o
__initfunc_time_init_pcpu                         output.o
__initfunc_timer_init_global                      output.o
__initfunc_tty_init_global                        output.o
__initfunc_tty_init_global2                       output.o
__initfunc_tty_init_msg                           output.o
__initfunc_uhci_init                              output.o
__initfunc_unmap_user_area                        output.o
__initfunc_vcpu_init_global                       output.o
__initfunc_vga_init                               output.o
__initfunc_virtualization_init_pcpu               output.o
__initfunc_vmmcall_boot_init                      output.o
__initfunc_vmmcall_dbgsh_init                     output.o
__initfunc_vmmcall_dbgsh_init_global              output.o
__initfunc_vmmcall_dbgsh_init_pcpu                output.o
__initfunc_vmmcall_iccard_init                    output.o
__initfunc_vmmcall_init                           output.o
__initfunc_vmmcall_log_init                       output.o
__initfunc_vmmcall_status_init                    output.o
__initfunc_vmmcall_status_init_global             output.o
__initfunc_vpn_kernel_init                        output.o
__initfunc_vpn_pro1000_init                       output.o
__initfunc_vramwrite_init_bsp                     output.o
__initfunc_vramwrite_init_msg                     output.o
__initfunc_vt_panic                               output.o
__initfunc_vt_register_status_callback            output.o
__initfunc_xsetbv_init                            output.o
__initfunc_xsetbv_pass_init                       output.o
__process_builtin                                 output.o
__process_builtin_end                             output.o
_dprintf                                          output.o
_dprintft                                         output.o
_shadow_DES_check_key                             output.o
a2d_ASN1_OBJECT                                   output.o
a2i_ASN1_INTEGER                                  output.o
a2i_ASN1_STRING                                   output.o
a2i_GENERAL_NAME                                  output.o
a2i_IPADDRESS                                     output.o
a2i_IPADDRESS_NC                                  output.o
a2i_ipadd                                         output.o
acpi_dsdt_parse                                   output.o
acpi_dsdt_system_state                            output.o
acpi_iohook                                       output.o
acpi_poweroff                                     output.o
acpi_reset                                        output.o
acpi_smi_hook                                     output.o
add_remap                                         output.o
aes_xts_init                                      output.o
ahci_config_read                                  output.o
ahci_config_write                                 output.o
ahci_new                                          output.o
alloc                                             output.o
alloc2                                            output.o
alloc_handler_descriptor                          output.o
alloc_page                                        output.o
alloc_pages                                       output.o
alloc_realmodemem                                 output.o
allocateNewAppID                                  output.o
allocateNewApplicationIdentifiers                 output.o
allocateNewVMID                                   output.o
allocateNewZeroPage                               output.o
ap_start_addr                                     output.o
apic_available                                    output.o
apinit_lock                                       output.o
apinit_procs                                      output.o
apinitproc0                                       output.o
app_pkey_methods                                  output.o
asm_vmlaunch_regs_32                              output.o
asm_vmlaunch_regs_64                              output.o
asm_vmresume_regs_32                              output.o
asm_vmresume_regs_64                              output.o
asm_vmrun_regs_32                                 output.o
asm_vmrun_regs_64                                 output.o
asn1_Finish                                       output.o
asn1_GetSequence                                  output.o
asn1_add_error                                    output.o
asn1_const_Finish                                 output.o
asn1_do_adb                                       output.o
asn1_do_lock                                      output.o
asn1_enc_free                                     output.o
asn1_enc_init                                     output.o
asn1_enc_restore                                  output.o
asn1_enc_save                                     output.o
asn1_ex_c2i                                       output.o
asn1_ex_i2c                                       output.o
asn1_get_choice_selector                          output.o
asn1_get_field_ptr                                output.o
asn1_set_choice_selector                          output.o
asn1_template_print_ctx                           output.o
assertion_failed                                  output.o
ata_ahci_mode                                     output.o
ata_bm_handle_command                             output.o
ata_bm_handle_device_specific                     output.o
ata_bm_handle_prd_table                           output.o
ata_bm_handle_status                              output.o
ata_bm_handler                                    output.o
ata_bm_handler_table                              output.o
ata_channel_lock                                  output.o
ata_channel_unlock                                output.o
ata_cmdblk_handler                                output.o
ata_cmdblk_handler_table                          output.o
ata_config_read                                   output.o
ata_config_write                                  output.o
ata_ctlblk_handler                                output.o
ata_ctlblk_handler_table                          output.o
ata_get_cmd_type                                  output.o
ata_handle_queued_status                          output.o
ata_init_io_handler                               output.o
ata_init_vendor                                   output.o
ata_set_bm_handler                                output.o
ata_set_cmdblk_handler                            output.o
ata_set_ctlblk_handler                            output.o
atapi_handle_cmd_packet                           output.o
atapi_handle_config_data                          output.o
atapi_handle_interrupt_reason                     output.o
atapi_handle_packet_data                          output.o
atapi_handle_pio_identify_packet                  output.o
auto_reboot                                       output.o
backtrace                                         output.o
beep_off                                          output.o
beep_on                                           output.o
beep_set_freq                                     output.o
bn_add_part_words                                 output.o
bn_add_words                                      output.o
bn_cmp_part_words                                 output.o
bn_cmp_words                                      output.o
bn_div_words                                      output.o
bn_dup_expand                                     output.o
bn_expand2                                        output.o
bn_mul_add_words                                  output.o
bn_mul_comba4                                     output.o
bn_mul_comba8                                     output.o
bn_mul_high                                       output.o
bn_mul_low_normal                                 output.o
bn_mul_low_recursive                              output.o
bn_mul_normal                                     output.o
bn_mul_part_recursive                             output.o
bn_mul_recursive                                  output.o
bn_mul_words                                      output.o
bn_sqr_comba4                                     output.o
bn_sqr_comba8                                     output.o
bn_sqr_normal                                     output.o
bn_sqr_recursive                                  output.o
bn_sqr_words                                      output.o
bn_sub_part_words                                 output.o
bn_sub_words                                      output.o
bss                                               output.o
c2i_ASN1_BIT_STRING                               output.o
c2i_ASN1_INTEGER                                  output.o
c2i_ASN1_OBJECT                                   output.o
cache_get_attr                                    output.o
cache_get_gmsr_amd                                output.o
cache_get_gmtrr                                   output.o
cache_get_gmtrr_attr                              output.o
cache_get_gmtrr_type                              output.o
cache_get_gmtrrcap                                output.o
cache_get_gpat                                    output.o
cache_set_gmsr_amd                                output.o
cache_set_gmtrr                                   output.o
cache_set_gpat                                    output.o
call_cpuid                                        output.o
call_initfunc                                     output.o
call_io                                           output.o
call_read_msr                                     output.o
call_write_msr                                    output.o
call_xsetbv                                       output.o
callfunc_and_getint                               output.o
callrealmode_bootcd_getstatus                     output.o
callrealmode_disk_readlba                         output.o
callrealmode_disk_readmbr                         output.o
callrealmode_end                                  output.o
callrealmode_endofcodeaddr                        output.o
callrealmode_getfontinfo                          output.o
callrealmode_getshiftflags                        output.o
callrealmode_getsysmemmap                         output.o
callrealmode_printmsg                             output.o
callrealmode_reboot                               output.o
callrealmode_setcursorpos                         output.o
callrealmode_setvideomode                         output.o
callrealmode_start                                output.o
callrealmode_start2                               output.o
callrealmode_startkernel32                        output.o
callrealmode_tcgbios                              output.o
callrealmode_usevcpu                              output.o
cancel_sleep                                      output.o
changePageStatus                                  output.o
check_defer                                       output.o
chelp_abort                                       output.o
chelp_bsearch                                     output.o
chelp_div_64_32_32                                output.o
chelp_div_64_32_64                                output.o
chelp_free                                        output.o
chelp_inited                                      output.o
chelp_isalnum                                     output.o
chelp_isalpha                                     output.o
chelp_isdigit                                     output.o
chelp_islower                                     output.o
chelp_isspace                                     output.o
chelp_isupper                                     output.o
chelp_isxdigit                                    output.o
chelp_malloc                                      output.o
chelp_memchr                                      output.o
chelp_memcmp                                      output.o
chelp_memcpy                                      output.o
chelp_memmove                                     output.o
chelp_memset                                      output.o
chelp_mod_64_32_32                                output.o
chelp_mul_64_64_64                                output.o
chelp_print                                       output.o
chelp_printf                                      output.o
chelp_qsort                                       output.o
chelp_realloc                                     output.o
chelp_snprintf                                    output.o
chelp_sprintf                                     output.o
chelp_strcat                                      output.o
chelp_strchr                                      output.o
chelp_strcmp                                      output.o
chelp_strcpy                                      output.o
chelp_stricmp                                     output.o
chelp_strlen                                      output.o
chelp_strncasecmp                                 output.o
chelp_strncmp                                     output.o
chelp_strncpy                                     output.o
chelp_strrchr                                     output.o
chelp_strtol                                      output.o
chelp_strtoul                                     output.o
chelp_strtoul_ex                                  output.o
chelp_swap                                        output.o
chelp_tolower                                     output.o
chelp_toupper                                     output.o
cleanse_ctr                                       output.o
clear_guest_status                                output.o
clflush_size                                      output.o
closePage                                         output.o
cmpxchg_gphys_l                                   output.o
cmpxchg_gphys_q                                   output.o
cmpxchg_hphys_l                                   output.o
cmpxchg_hphys_q                                   output.o
cms_Data_create                                   output.o
cms_DigestAlgorithm_find_ctx                      output.o
cms_DigestAlgorithm_init_bio                      output.o
cms_DigestAlgorithm_set                           output.o
cms_DigestedData_create                           output.o
cms_DigestedData_do_final                         output.o
cms_DigestedData_init_bio                         output.o
cms_EncryptedContent_init                         output.o
cms_EncryptedContent_init_bio                     output.o
cms_EncryptedData_init_bio                        output.o
cms_EnvelopedData_init_bio                        output.o
cms_SignedData_final                              output.o
cms_SignedData_init_bio                           output.o
cms_SignerIdentifier_cert_cmp                     output.o
cms_SignerIdentifier_get0_signer_id               output.o
cms_content_bio                                   output.o
cms_set1_SignerIdentifier                         output.o
config                                            output.o
copy_bootsector                                   output.o
core_init                                         output.o
core_io_handle_default                            output.o
core_io_modify_handler                            output.o
core_io_register_handler                          output.o
core_io_unregister_handler                        output.o
core_mm_read_guest_phys                           output.o
core_mm_write_guest_phys                          output.o
cpu_emul_cli                                      output.o
cpu_emul_cpuid                                    output.o
cpu_emul_hlt                                      output.o
cpu_emul_rdmsr                                    output.o
cpu_emul_realmode_int                             output.o
cpu_emul_sti                                      output.o
cpu_emul_wrmsr                                    output.o
cpu_emul_xsetbv                                   output.o
cpu_interpreter                                   output.o
cpu_mmu_get_pte                                   output.o
cpu_mmu_spt_clear_all                             output.o
cpu_mmu_spt_extern_mapsearch                      output.o
cpu_mmu_spt_init                                  output.o
cpu_mmu_spt_invalidate                            output.o
cpu_mmu_spt_map_1mb                               output.o
cpu_mmu_spt_pagefault                             output.o
cpu_mmu_spt_tlbflush                              output.o
cpu_mmu_spt_updatecr3                             output.o
cpu_seg_read_b                                    output.o
cpu_seg_read_l                                    output.o
cpu_seg_read_q                                    output.o
cpu_seg_read_w                                    output.o
cpu_seg_write_b                                   output.o
cpu_seg_write_l                                   output.o
cpu_seg_write_q                                   output.o
cpu_seg_write_w                                   output.o
cpu_stack_get                                     output.o
cpu_stack_pop                                     output.o
cpu_stack_push                                    output.o
cpu_stack_set                                     output.o
cpuinit_end                                       output.o
cpuinit_start                                     output.o
create_dom                                        output.o
crypt_sys_rsa_sign                                output.o
crypto_find                                       output.o
crypto_init                                       output.o
crypto_none_init                                  output.o
crypto_register                                   output.o
currentProtectedApplication                       output.o
currentRunningApplication                         output.o
curthread                                         output.o
d2i_ACCESS_DESCRIPTION                            output.o
d2i_ASN1_BIT_STRING                               output.o
d2i_ASN1_BMPSTRING                                output.o
d2i_ASN1_BOOLEAN                                  output.o
d2i_ASN1_ENUMERATED                               output.o
d2i_ASN1_GENERALIZEDTIME                          output.o
d2i_ASN1_GENERALSTRING                            output.o
d2i_ASN1_IA5STRING                                output.o
d2i_ASN1_INTEGER                                  output.o
d2i_ASN1_NULL                                     output.o
d2i_ASN1_OBJECT                                   output.o
d2i_ASN1_OCTET_STRING                             output.o
d2i_ASN1_PRINTABLE                                output.o
d2i_ASN1_PRINTABLESTRING                          output.o
d2i_ASN1_SEQUENCE_ANY                             output.o
d2i_ASN1_SET                                      output.o
d2i_ASN1_SET_ANY                                  output.o
d2i_ASN1_T61STRING                                output.o
d2i_ASN1_TIME                                     output.o
d2i_ASN1_TYPE                                     output.o
d2i_ASN1_UINTEGER                                 output.o
d2i_ASN1_UNIVERSALSTRING                          output.o
d2i_ASN1_UTCTIME                                  output.o
d2i_ASN1_UTF8STRING                               output.o
d2i_ASN1_VISIBLESTRING                            output.o
d2i_ASN1_bytes                                    output.o
d2i_ASN1_type_bytes                               output.o
d2i_AUTHORITY_INFO_ACCESS                         output.o
d2i_AUTHORITY_KEYID                               output.o
d2i_AutoPrivateKey                                output.o
d2i_BASIC_CONSTRAINTS                             output.o
d2i_CERTIFICATEPOLICIES                           output.o
d2i_CMS_ContentInfo                               output.o
d2i_CMS_bio                                       output.o
d2i_CRL_DIST_POINTS                               output.o
d2i_DHparams                                      output.o
d2i_DIRECTORYSTRING                               output.o
d2i_DISPLAYTEXT                                   output.o
d2i_DIST_POINT                                    output.o
d2i_DIST_POINT_NAME                               output.o
d2i_DSAPrivateKey                                 output.o
d2i_DSAPrivateKey_bio                             output.o
d2i_DSAPublicKey                                  output.o
d2i_DSA_PUBKEY                                    output.o
d2i_DSA_PUBKEY_bio                                output.o
d2i_DSA_SIG                                       output.o
d2i_DSAparams                                     output.o
d2i_ECDSA_SIG                                     output.o
d2i_ECPKPARAMETERS                                output.o
d2i_ECPKParameters                                output.o
d2i_ECParameters                                  output.o
d2i_ECPrivateKey                                  output.o
d2i_ECPrivateKey_bio                              output.o
d2i_EC_PRIVATEKEY                                 output.o
d2i_EC_PUBKEY                                     output.o
d2i_EC_PUBKEY_bio                                 output.o
d2i_EDIPARTYNAME                                  output.o
d2i_EXTENDED_KEY_USAGE                            output.o
d2i_GENERAL_NAME                                  output.o
d2i_GENERAL_NAMES                                 output.o
d2i_ISSUING_DIST_POINT                            output.o
d2i_NETSCAPE_CERT_SEQUENCE                        output.o
d2i_NETSCAPE_SPKAC                                output.o
d2i_NETSCAPE_SPKI                                 output.o
d2i_NOTICEREF                                     output.o
d2i_OCSP_BASICRESP                                output.o
d2i_OCSP_CERTID                                   output.o
d2i_OCSP_CERTSTATUS                               output.o
d2i_OCSP_CRLID                                    output.o
d2i_OCSP_ONEREQ                                   output.o
d2i_OCSP_REQINFO                                  output.o
d2i_OCSP_REQUEST                                  output.o
d2i_OCSP_RESPBYTES                                output.o
d2i_OCSP_RESPDATA                                 output.o
d2i_OCSP_RESPID                                   output.o
d2i_OCSP_RESPONSE                                 output.o
d2i_OCSP_REVOKEDINFO                              output.o
d2i_OCSP_SERVICELOC                               output.o
d2i_OCSP_SIGNATURE                                output.o
d2i_OCSP_SINGLERESP                               output.o
d2i_OTHERNAME                                     output.o
d2i_PBE2PARAM                                     output.o
d2i_PBEPARAM                                      output.o
d2i_PBKDF2PARAM                                   output.o
d2i_PKCS12                                        output.o
d2i_PKCS12_BAGS                                   output.o
d2i_PKCS12_MAC_DATA                               output.o
d2i_PKCS12_SAFEBAG                                output.o
d2i_PKCS12_bio                                    output.o
d2i_PKCS7                                         output.o
d2i_PKCS7_DIGEST                                  output.o
d2i_PKCS7_ENCRYPT                                 output.o
d2i_PKCS7_ENC_CONTENT                             output.o
d2i_PKCS7_ENVELOPE                                output.o
d2i_PKCS7_ISSUER_AND_SERIAL                       output.o
d2i_PKCS7_RECIP_INFO                              output.o
d2i_PKCS7_SIGNED                                  output.o
d2i_PKCS7_SIGNER_INFO                             output.o
d2i_PKCS7_SIGN_ENVELOPE                           output.o
d2i_PKCS7_bio                                     output.o
d2i_PKCS8PrivateKey_bio                           output.o
d2i_PKCS8_PRIV_KEY_INFO                           output.o
d2i_PKCS8_PRIV_KEY_INFO_bio                       output.o
d2i_PKCS8_bio                                     output.o
d2i_PKEY_USAGE_PERIOD                             output.o
d2i_POLICYINFO                                    output.o
d2i_POLICYQUALINFO                                output.o
d2i_PROXY_CERT_INFO_EXTENSION                     output.o
d2i_PROXY_POLICY                                  output.o
d2i_PUBKEY                                        output.o
d2i_PUBKEY_bio                                    output.o
d2i_PrivateKey                                    output.o
d2i_PrivateKey_bio                                output.o
d2i_RSAPrivateKey                                 output.o
d2i_RSAPrivateKey_bio                             output.o
d2i_RSAPublicKey                                  output.o
d2i_RSAPublicKey_bio                              output.o
d2i_RSA_PUBKEY                                    output.o
d2i_RSA_PUBKEY_bio                                output.o
d2i_SXNET                                         output.o
d2i_SXNETID                                       output.o
d2i_USERNOTICE                                    output.o
d2i_X509                                          output.o
d2i_X509_ALGOR                                    output.o
d2i_X509_ALGORS                                   output.o
d2i_X509_ATTRIBUTE                                output.o
d2i_X509_AUX                                      output.o
d2i_X509_CERT_AUX                                 output.o
d2i_X509_CERT_PAIR                                output.o
d2i_X509_CINF                                     output.o
d2i_X509_CRL                                      output.o
d2i_X509_CRL_INFO                                 output.o
d2i_X509_CRL_bio                                  output.o
d2i_X509_EXTENSION                                output.o
d2i_X509_EXTENSIONS                               output.o
d2i_X509_NAME                                     output.o
d2i_X509_NAME_ENTRY                               output.o
d2i_X509_PUBKEY                                   output.o
d2i_X509_REQ                                      output.o
d2i_X509_REQ_INFO                                 output.o
d2i_X509_REQ_bio                                  output.o
d2i_X509_REVOKED                                  output.o
d2i_X509_SIG                                      output.o
d2i_X509_VAL                                      output.o
d2i_X509_bio                                      output.o
deactivate_and_delete_urb                         output.o
debug_addstr                                      output.o
debug_gdb                                         output.o
debug_iohook                                      output.o
debug_msgregister                                 output.o
debug_msgunregister                               output.o
decryptcfg                                        output.o
default_pctx                                      output.o
dh_asn1_meth                                      output.o
dh_pkey_meth                                      output.o
disable_apic                                      output.o
do_exint_pass                                     output.o
do_externalint_enable                             output.o
do_io_nothing                                     output.o
do_iopass_default                                 output.o
do_panic_reboot                                   output.o
dom_io                                            output.o
dprintf_port                                      output.o
drhd_list_head                                    output.o
dsa_asn1_meths                                    output.o
dsa_builtin_paramgen                              output.o
dsa_pkey_meth                                     output.o
dsa_pub_internal_it                               output.o
dump_frame                                        output.o
dump_qh                                           output.o
dump_td                                           output.o
dump_td_byvirt                                    output.o
dwReaders                                         output.o
e801_fake_ax                                      output.o
e801_fake_bx                                      output.o
ec_GF2m_have_precompute_mult                      output.o
ec_GF2m_precompute_mult                           output.o
ec_GF2m_simple_add                                output.o
ec_GF2m_simple_cmp                                output.o
ec_GF2m_simple_dbl                                output.o
ec_GF2m_simple_field_div                          output.o
ec_GF2m_simple_field_mul                          output.o
ec_GF2m_simple_field_sqr                          output.o
ec_GF2m_simple_group_check_discriminant           output.o
ec_GF2m_simple_group_clear_finish                 output.o
ec_GF2m_simple_group_copy                         output.o
ec_GF2m_simple_group_finish                       output.o
ec_GF2m_simple_group_get_curve                    output.o
ec_GF2m_simple_group_get_degree                   output.o
ec_GF2m_simple_group_init                         output.o
ec_GF2m_simple_group_set_curve                    output.o
ec_GF2m_simple_invert                             output.o
ec_GF2m_simple_is_at_infinity                     output.o
ec_GF2m_simple_is_on_curve                        output.o
ec_GF2m_simple_make_affine                        output.o
ec_GF2m_simple_mul                                output.o
ec_GF2m_simple_oct2point                          output.o
ec_GF2m_simple_point2oct                          output.o
ec_GF2m_simple_point_clear_finish                 output.o
ec_GF2m_simple_point_copy                         output.o
ec_GF2m_simple_point_finish                       output.o
ec_GF2m_simple_point_get_affine_coordinates       output.o
ec_GF2m_simple_point_init                         output.o
ec_GF2m_simple_point_set_affine_coordinates       output.o
ec_GF2m_simple_point_set_to_infinity              output.o
ec_GF2m_simple_points_make_affine                 output.o
ec_GF2m_simple_set_compressed_coordinates         output.o
ec_GFp_mont_field_decode                          output.o
ec_GFp_mont_field_encode                          output.o
ec_GFp_mont_field_mul                             output.o
ec_GFp_mont_field_set_to_one                      output.o
ec_GFp_mont_field_sqr                             output.o
ec_GFp_mont_group_clear_finish                    output.o
ec_GFp_mont_group_copy                            output.o
ec_GFp_mont_group_finish                          output.o
ec_GFp_mont_group_init                            output.o
ec_GFp_mont_group_set_curve                       output.o
ec_GFp_nist_field_mul                             output.o
ec_GFp_nist_field_sqr                             output.o
ec_GFp_nist_group_copy                            output.o
ec_GFp_nist_group_set_curve                       output.o
ec_GFp_simple_add                                 output.o
ec_GFp_simple_cmp                                 output.o
ec_GFp_simple_dbl                                 output.o
ec_GFp_simple_field_mul                           output.o
ec_GFp_simple_field_sqr                           output.o
ec_GFp_simple_get_Jprojective_coordinates_GFp     output.o
ec_GFp_simple_group_check_discriminant            output.o
ec_GFp_simple_group_clear_finish                  output.o
ec_GFp_simple_group_copy                          output.o
ec_GFp_simple_group_finish                        output.o
ec_GFp_simple_group_get_curve                     output.o
ec_GFp_simple_group_get_degree                    output.o
ec_GFp_simple_group_init                          output.o
ec_GFp_simple_group_set_curve                     output.o
ec_GFp_simple_invert                              output.o
ec_GFp_simple_is_at_infinity                      output.o
ec_GFp_simple_is_on_curve                         output.o
ec_GFp_simple_make_affine                         output.o
ec_GFp_simple_oct2point                           output.o
ec_GFp_simple_point2oct                           output.o
ec_GFp_simple_point_clear_finish                  output.o
ec_GFp_simple_point_copy                          output.o
ec_GFp_simple_point_finish                        output.o
ec_GFp_simple_point_get_affine_coordinates        output.o
ec_GFp_simple_point_init                          output.o
ec_GFp_simple_point_set_affine_coordinates        output.o
ec_GFp_simple_point_set_to_infinity               output.o
ec_GFp_simple_points_make_affine                  output.o
ec_GFp_simple_set_Jprojective_coordinates_GFp     output.o
ec_GFp_simple_set_compressed_coordinates          output.o
ec_pkey_meth                                      output.o
ec_wNAF_have_precompute_mult                      output.o
ec_wNAF_mul                                       output.o
ec_wNAF_precompute_mult                           output.o
ecdh_check                                        output.o
ecdsa_check                                       output.o
eckey_asn1_meth                                   output.o
ehci_check_advance                                output.o
ehci_check_urb_advance                            output.o
ehci_cleanup_urbs                                 output.o
ehci_conceal_portroute                            output.o
ehci_deactivate_urb                               output.o
ehci_dump_alist                                   output.o
ehci_dump_all                                     output.o
ehci_dump_async                                   output.o
ehci_dump_qtd                                     output.o
ehci_dump_qtdm                                    output.o
ehci_dump_urb                                     output.o
ehci_dump_urblist                                 output.o
ehci_end_monitor_async                            output.o
ehci_host                                         output.o
ehci_init                                         output.o
ehci_monitor_async_list                           output.o
ehci_shadow_async_list                            output.o
ehci_shadow_buffer                                output.o
ehci_submit_bulk                                  output.o
ehci_submit_control                               output.o
ehci_submit_interrupt                             output.o
end                                               output.o
entry                                             output.o
entry_pd                                          output.o
entry_pd0                                         output.o
entry_pdp                                         output.o
evp_pkey_set_cb_translate                         output.o
exitprocess                                       output.o
findProtectedApplicationFromRIP                   output.o
findUnmappedPage                                  output.o
free                                              output.o
free_config_descriptors                           output.o
free_device                                       output.o
free_page                                         output.o
free_page_phys                                    output.o
g_rgSCardT0Pci                                    output.o
g_rgSCardT1Pci                                    output.o
getCurrentProtectedApplication                    output.o
getGuestRSP                                       output.o
getMemoryOwnershipTableEntry                      output.o
getMemoryOwnershipTableIndex                      output.o
getSystemCallHandlerGPA                           output.o
getTSSGVA                                         output.o
get_acpi_time                                     output.o
get_acpi_time_raw                                 output.o
get_cpu_id                                        output.o
get_cpu_time                                      output.o
get_ept_base_HPA                                  output.o
get_guest_cr3_value                               output.o
get_guest_eptp_value                              output.o
get_gurb_by_address                               output.o
get_idman_session                                 output.o
get_page_table_base_GPA                           output.o
get_seg_access_rights                             output.o
get_seg_base                                      output.o
get_time                                          output.o
getfakesysmemmap                                  output.o
getsysmemmap                                      output.o
gmm_pass_gp2hp                                    output.o
gpaToHPA                                          output.o
gs_current                                        output.o
gs_currentcpu                                     output.o
gs_init_count                                     output.o
gs_inthandling                                    output.o
gs_nmi                                            output.o
gs_syscallstack                                   output.o
guest_int0x15_e801_fake_ax                        output.o
guest_int0x15_e801_fake_bx                        output.o
guest_int0x15_e820_data_minus0x18                 output.o
guest_int0x15_e820_end                            output.o
guest_int0x15_hook                                output.o
guest_int0x15_hook_end                            output.o
guest_int0x15_orig                                output.o
gvaToGPA                                          output.o
hContext                                          output.o
hObjectCnt                                        output.o
hSessionCnt                                       output.o
handleSystemCall                                  output.o
handle_connect_status                             output.o
handle_init_to_bsp                                output.o
handle_port_reset                                 output.o
handler_descriptor                                output.o
handler_descriptor_lock                           output.o
head                                              output.o
hex_to_string                                     output.o
hmac_asn1_meth                                    output.o
hmac_pkey_meth                                    output.o
hub_portdevice_register                           output.o
hypercall_handler                                 output.o
i2a_ACCESS_DESCRIPTION                            output.o
i2a_ASN1_INTEGER                                  output.o
i2a_ASN1_OBJECT                                   output.o
i2a_ASN1_STRING                                   output.o
i2c_ASN1_BIT_STRING                               output.o
i2c_ASN1_INTEGER                                  output.o
i2d_ACCESS_DESCRIPTION                            output.o
i2d_ASN1_BIT_STRING                               output.o
i2d_ASN1_BMPSTRING                                output.o
i2d_ASN1_BOOLEAN                                  output.o
i2d_ASN1_ENUMERATED                               output.o
i2d_ASN1_GENERALIZEDTIME                          output.o
i2d_ASN1_GENERALSTRING                            output.o
i2d_ASN1_IA5STRING                                output.o
i2d_ASN1_INTEGER                                  output.o
i2d_ASN1_NULL                                     output.o
i2d_ASN1_OBJECT                                   output.o
i2d_ASN1_OCTET_STRING                             output.o
i2d_ASN1_PRINTABLE                                output.o
i2d_ASN1_PRINTABLESTRING                          output.o
i2d_ASN1_SEQUENCE_ANY                             output.o
i2d_ASN1_SET                                      output.o
i2d_ASN1_SET_ANY                                  output.o
i2d_ASN1_T61STRING                                output.o
i2d_ASN1_TIME                                     output.o
i2d_ASN1_TYPE                                     output.o
i2d_ASN1_UNIVERSALSTRING                          output.o
i2d_ASN1_UTCTIME                                  output.o
i2d_ASN1_UTF8STRING                               output.o
i2d_ASN1_VISIBLESTRING                            output.o
i2d_ASN1_bio_stream                               output.o
i2d_ASN1_bytes                                    output.o
i2d_AUTHORITY_INFO_ACCESS                         output.o
i2d_AUTHORITY_KEYID                               output.o
i2d_BASIC_CONSTRAINTS                             output.o
i2d_CERTIFICATEPOLICIES                           output.o
i2d_CMS_ContentInfo                               output.o
i2d_CMS_bio                                       output.o
i2d_CMS_bio_stream                                output.o
i2d_CRL_DIST_POINTS                               output.o
i2d_DHparams                                      output.o
i2d_DIRECTORYSTRING                               output.o
i2d_DISPLAYTEXT                                   output.o
i2d_DIST_POINT                                    output.o
i2d_DIST_POINT_NAME                               output.o
i2d_DSAPrivateKey                                 output.o
i2d_DSAPrivateKey_bio                             output.o
i2d_DSAPublicKey                                  output.o
i2d_DSA_PUBKEY                                    output.o
i2d_DSA_PUBKEY_bio                                output.o
i2d_DSA_SIG                                       output.o
i2d_DSAparams                                     output.o
i2d_ECDSA_SIG                                     output.o
i2d_ECPKPARAMETERS                                output.o
i2d_ECPKParameters                                output.o
i2d_ECParameters                                  output.o
i2d_ECPrivateKey                                  output.o
i2d_ECPrivateKey_bio                              output.o
i2d_EC_PRIVATEKEY                                 output.o
i2d_EC_PUBKEY                                     output.o
i2d_EC_PUBKEY_bio                                 output.o
i2d_EDIPARTYNAME                                  output.o
i2d_EXTENDED_KEY_USAGE                            output.o
i2d_GENERAL_NAME                                  output.o
i2d_GENERAL_NAMES                                 output.o
i2d_ISSUING_DIST_POINT                            output.o
i2d_NETSCAPE_CERT_SEQUENCE                        output.o
i2d_NETSCAPE_SPKAC                                output.o
i2d_NETSCAPE_SPKI                                 output.o
i2d_NOTICEREF                                     output.o
i2d_OCSP_BASICRESP                                output.o
i2d_OCSP_CERTID                                   output.o
i2d_OCSP_CERTSTATUS                               output.o
i2d_OCSP_CRLID                                    output.o
i2d_OCSP_ONEREQ                                   output.o
i2d_OCSP_REQINFO                                  output.o
i2d_OCSP_REQUEST                                  output.o
i2d_OCSP_RESPBYTES                                output.o
i2d_OCSP_RESPDATA                                 output.o
i2d_OCSP_RESPID                                   output.o
i2d_OCSP_RESPONSE                                 output.o
i2d_OCSP_REVOKEDINFO                              output.o
i2d_OCSP_SERVICELOC                               output.o
i2d_OCSP_SIGNATURE                                output.o
i2d_OCSP_SINGLERESP                               output.o
i2d_OTHERNAME                                     output.o
i2d_PBE2PARAM                                     output.o
i2d_PBEPARAM                                      output.o
i2d_PBKDF2PARAM                                   output.o
i2d_PKCS12                                        output.o
i2d_PKCS12_BAGS                                   output.o
i2d_PKCS12_MAC_DATA                               output.o
i2d_PKCS12_SAFEBAG                                output.o
i2d_PKCS12_bio                                    output.o
i2d_PKCS7                                         output.o
i2d_PKCS7_DIGEST                                  output.o
i2d_PKCS7_ENCRYPT                                 output.o
i2d_PKCS7_ENC_CONTENT                             output.o
i2d_PKCS7_ENVELOPE                                output.o
i2d_PKCS7_ISSUER_AND_SERIAL                       output.o
i2d_PKCS7_NDEF                                    output.o
i2d_PKCS7_RECIP_INFO                              output.o
i2d_PKCS7_SIGNED                                  output.o
i2d_PKCS7_SIGNER_INFO                             output.o
i2d_PKCS7_SIGN_ENVELOPE                           output.o
i2d_PKCS7_bio                                     output.o
i2d_PKCS8PrivateKeyInfo_bio                       output.o
i2d_PKCS8PrivateKey_bio                           output.o
i2d_PKCS8PrivateKey_nid_bio                       output.o
i2d_PKCS8_PRIV_KEY_INFO                           output.o
i2d_PKCS8_PRIV_KEY_INFO_bio                       output.o
i2d_PKCS8_bio                                     output.o
i2d_PKEY_USAGE_PERIOD                             output.o
i2d_POLICYINFO                                    output.o
i2d_POLICYQUALINFO                                output.o
i2d_PROXY_CERT_INFO_EXTENSION                     output.o
i2d_PROXY_POLICY                                  output.o
i2d_PUBKEY                                        output.o
i2d_PUBKEY_bio                                    output.o
i2d_PrivateKey                                    output.o
i2d_PrivateKey_bio                                output.o
i2d_RSAPrivateKey                                 output.o
i2d_RSAPrivateKey_bio                             output.o
i2d_RSAPublicKey                                  output.o
i2d_RSAPublicKey_bio                              output.o
i2d_RSA_PUBKEY                                    output.o
i2d_RSA_PUBKEY_bio                                output.o
i2d_SXNET                                         output.o
i2d_SXNETID                                       output.o
i2d_USERNOTICE                                    output.o
i2d_X509                                          output.o
i2d_X509_ALGOR                                    output.o
i2d_X509_ALGORS                                   output.o
i2d_X509_ATTRIBUTE                                output.o
i2d_X509_AUX                                      output.o
i2d_X509_CERT_AUX                                 output.o
i2d_X509_CERT_PAIR                                output.o
i2d_X509_CINF                                     output.o
i2d_X509_CRL                                      output.o
i2d_X509_CRL_INFO                                 output.o
i2d_X509_CRL_bio                                  output.o
i2d_X509_EXTENSION                                output.o
i2d_X509_EXTENSIONS                               output.o
i2d_X509_NAME                                     output.o
i2d_X509_NAME_ENTRY                               output.o
i2d_X509_PUBKEY                                   output.o
i2d_X509_REQ                                      output.o
i2d_X509_REQ_INFO                                 output.o
i2d_X509_REQ_bio                                  output.o
i2d_X509_REVOKED                                  output.o
i2d_X509_SIG                                      output.o
i2d_X509_VAL                                      output.o
i2d_X509_bio                                      output.o
i2o_ECPublicKey                                   output.o
i2s_ASN1_ENUMERATED                               output.o
i2s_ASN1_ENUMERATED_TABLE                         output.o
i2s_ASN1_INTEGER                                  output.o
i2s_ASN1_OCTET_STRING                             output.o
i2t_ASN1_OBJECT                                   output.o
i2v_ASN1_BIT_STRING                               output.o
i2v_GENERAL_NAME                                  output.o
i2v_GENERAL_NAMES                                 output.o
idea_cbc_encrypt                                  output.o
idea_cfb64_encrypt                                output.o
idea_ecb_encrypt                                  output.o
idea_encrypt                                      output.o
idea_ofb64_encrypt                                output.o
idea_options                                      output.o
idea_set_decrypt_key                              output.o
idea_set_encrypt_key                              output.o
idman_reinit2                                     output.o
idman_reinit_session                              output.o
idman_user_init                                   output.o
ieee1394_init                                     output.o
initPagePool                                      output.o
init_hframelist                                   output.o
initfunc_init                                     output.o
initializeNewProtectedApplication                 output.o
int1a_TCG_CompactHashLogExtendEvent               output.o
int1a_TCG_HashAll                                 output.o
int1a_TCG_HashLogEvent                            output.o
int1a_TCG_HashLogExtendEvent                      output.o
int1a_TCG_PassThroughToTPM                        output.o
int1a_TCG_StatusCheck                             output.o
int1a_TCG_TSS                                     output.o
int_callfunc                                      output.o
int_exceptionHandler                              output.o
int_fatal                                         output.o
int_handler                                       output.o
int_init_ap                                       output.o
int_rsa_verify                                    output.o
iodom_init                                        output.o
iommu_detected                                    output.o
iommu_setup                                       output.o
ipchecksum                                        output.o
keyboard_flush                                    output.o
keyboard_reset                                    output.o
level_add_node                                    output.o
level_find_node                                   output.o
lh_delete                                         output.o
lh_doall                                          output.o
lh_doall_arg                                      output.o
lh_free                                           output.o
lh_insert                                         output.o
lh_new                                            output.o
lh_num_items                                      output.o
lh_retrieve                                       output.o
lh_strhash                                        output.o
lh_version                                        output.o
libInitFlag                                       output.o
load_bootsector                                   output.o
load_minios                                       output.o
load_new_vcpu                                     output.o
localapic_change_base_msr                         output.o
localapic_mmio_register                           output.o
localapic_wait_for_sipi                           output.o
mapHPAintoHVA                                     output.o
mapmem                                            output.o
mapmem_gphys                                      output.o
mapmem_hphys                                      output.o
matched_drhd_u                                    output.o
md4_block_data_order                              output.o
md5_block_data_order                              output.o
memcmp                                            output.o
memcpy                                            output.o
memorysize                                        output.o
mempool_allocmem                                  output.o
mempool_free                                      output.o
mempool_freemem                                   output.o
mempool_new                                       output.o
memset                                            output.o
message_exitcode                                  output.o
message_exitreason                                output.o
mm_flush_wb_cache                                 output.o
mm_force_unlock                                   output.o
mm_process_alloc                                  output.o
mm_process_free                                   output.o
mm_process_map_alloc                              output.o
mm_process_map_shared                             output.o
mm_process_map_shared_physpage                    output.o
mm_process_map_stack                              output.o
mm_process_switch                                 output.o
mm_process_unmap                                  output.o
mm_process_unmap_stack                            output.o
mm_process_unmapall                               output.o
mmio_access_memory                                output.o
mmio_access_page                                  output.o
mmio_lock                                         output.o
mmio_register                                     output.o
mmio_unlock                                       output.o
mmio_unregister                                   output.o
monitor_memset                                    output.o
monitor_vmcs_read                                 output.o
monitor_vmcs_write                                output.o
move_vmm_area32                                   output.o
move_vmm_area64                                   output.o
mpudiv_128_32                                     output.o
mpumul_64_64                                      output.o
msg_findname                                      output.o
msg_register                                      output.o
msg_unregister                                    output.o
msg_unregister2                                   output.o
msg_unregisterall                                 output.o
msg_usb_bulk_read                                 output.o
msg_usb_bulk_write                                output.o
msg_usb_claim_interface                           output.o
msg_usb_close                                     output.o
msg_usb_control_msg                               output.o
msg_usb_find_busses                               output.o
msg_usb_find_devices                              output.o
msg_usb_get_busses                                output.o
msg_usb_get_string_simple                         output.o
msg_usb_init                                      output.o
msg_usb_open                                      output.o
msg_usb_release_interface                         output.o
msg_usb_reset                                     output.o
msg_vpn_FreeTimer                                 output.o
msg_vpn_GetCurrentCpuId                           output.o
msg_vpn_GetPhysicalNicInfo                        output.o
msg_vpn_GetTickCount                              output.o
msg_vpn_GetVirtualNicInfo                         output.o
msg_vpn_NewTimer                                  output.o
msg_vpn_SendPhysicalNic                           output.o
msg_vpn_SendVirtualNic                            output.o
msg_vpn_SetPhysicalNicRecvCallback                output.o
msg_vpn_SetTimer                                  output.o
msg_vpn_SetVirtualNicRecvCallback                 output.o
msg_vpn_ic_rsa_sign                               output.o
msgclose                                          output.o
msgopen                                           output.o
msgpremapbuf                                      output.o
msgregister                                       output.o
msgsendbuf                                        output.o
msgsenddesc                                       output.o
msgsendint                                        output.o
msgsetfunc                                        output.o
msgunregister                                     output.o
mszReaders                                        output.o
name_cmp                                          output.o
newprocess                                        output.o
num_dom                                           output.o
num_of_available_pages                            output.o
num_of_processors                                 output.o
numberOfProtectedApplications                     output.o
numberOfVMs                                       output.o
o2i_ECPublicKey                                   output.o
obj_cleanup_defer                                 output.o
openPage                                          output.o
packet_handle_command                             output.o
packet_handle_config                              output.o
packet_handle_invalid                             output.o
packet_handle_nondata                             output.o
packet_handle_rw                                  output.o
packet_handle_through                             output.o
panic                                             output.o
panic_oom                                         output.o
panic_test                                        output.o
panic_wakeup_all                                  output.o
parse_dmar_bios_report                            output.o
pci_append_device                                 output.o
pci_conceal_config_data_handler                   output.o
pci_conceal_new_device                            output.o
pci_config_addr_handler                           output.o
pci_config_data_handler                           output.o
pci_device_list_head                              output.o
pci_driver_list_head                              output.o
pci_handle_default_config_write                   output.o
pci_possible_new_device                           output.o
pci_print_device                                  output.o
pci_read_config_data16                            output.o
pci_read_config_data32                            output.o
pci_read_config_data8                             output.o
pci_read_config_data_port                         output.o
pci_register_driver                               output.o
pci_restore_config_addr                           output.o
pci_save_config_addr                              output.o
pci_write_config_data16                           output.o
pci_write_config_data32                           output.o
pci_write_config_data8                            output.o
pci_write_config_data_port                        output.o
pcpu_default                                      output.o
pcpu_init                                         output.o
pcpu_list_add                                     output.o
pcpu_list_foreach                                 output.o
pem_check_suffix                                  output.o
phys_in_vmm                                       output.o
phys_to_virt                                      output.o
pmap_autoalloc                                    output.o
pmap_clear                                        output.o
pmap_close                                        output.o
pmap_dump                                         output.o
pmap_getreadlevel                                 output.o
pmap_open_guest                                   output.o
pmap_open_vmm                                     output.o
pmap_pointer                                      output.o
pmap_read                                         output.o
pmap_seek                                         output.o
pmap_setlevel                                     output.o
pmap_write                                        output.o
policy_cache_find_data                            output.o
policy_cache_free                                 output.o
policy_cache_set                                  output.o
policy_cache_set_mapping                          output.o
policy_data_free                                  output.o
policy_data_new                                   output.o
policy_node_cmp_new                               output.o
policy_node_free                                  output.o
policy_node_match                                 output.o
prepare_for_sleep                                 output.o
printexitcode                                     output.o
printexitreason                                   output.o
printf                                            output.o
pro100_alloc_page                                 output.o
pro100_alloc_recv_buffer                          output.o
pro100_beep                                       output.o
pro100_config_read                                output.o
pro100_config_write                               output.o
pro100_exec_cu_op                                 output.o
pro100_flush                                      output.o
pro100_free_page                                  output.o
pro100_generate_int                               output.o
pro100_get_ctx                                    output.o
pro100_get_cu_command_string                      output.o
pro100_get_int_bit_string                         output.o
pro100_get_op_size                                output.o
pro100_get_ru_command_string                      output.o
pro100_get_stat_ack_string                        output.o
pro100_hook_read                                  output.o
pro100_hook_write                                 output.o
pro100_init                                       output.o
pro100_init_cu_base_addr                          output.o
pro100_init_recv_buffer                           output.o
pro100_init_ru_base_addr                          output.o
pro100_init_vpn_client                            output.o
pro100_io_handler                                 output.o
pro100_mem_read                                   output.o
pro100_mem_write                                  output.o
pro100_mm_handler                                 output.o
pro100_new                                        output.o
pro100_poll_ru                                    output.o
pro100_proc_guest_op                              output.o
pro100_read                                       output.o
pro100_read_send_packet                           output.o
pro100_send_packet_to_line                        output.o
pro100_sleep                                      output.o
pro100_wait_cu_ru_accepable                       output.o
pro100_write                                      output.o
pro100_write_recv_packet                          output.o
process_kill                                      output.o
process_syscall                                   output.o
processuser_no_sysenter                           output.o
processuser_syscall                               output.o
processuser_sysenter                              output.o
prohibit_iccard_init                              output.o
protectCurrentApplication                         output.o
ps2_locked                                        output.o
putchar                                           output.o
putchar_set_func                                  output.o
rand_ssleay_meth                                  output.o
read_gphys_b                                      output.o
read_gphys_l                                      output.o
read_gphys_q                                      output.o
read_gphys_w                                      output.o
read_hphys_b                                      output.o
read_hphys_l                                      output.o
read_hphys_q                                      output.o
read_hphys_w                                      output.o
read_linearaddr_b                                 output.o
read_linearaddr_l                                 output.o
read_linearaddr_q                                 output.o
read_linearaddr_tss                               output.o
read_linearaddr_w                                 output.o
readerState                                       output.o
readerTracker                                     output.o
realloc                                           output.o
reboot_test                                       output.o
register_status_callback                          output.o
remapPage                                         output.o
restore_guest_status                              output.o
restore_register                                  output.o
resume_vm                                         output.o
ret_to_user32                                     output.o
ret_to_user64                                     output.o
ripemd160_block_data_order                        output.o
rsa_asn1_meths                                    output.o
rsa_pkey_meth                                     output.o
rt                                                output.o
s2i_ASN1_INTEGER                                  output.o
s2i_ASN1_OCTET_STRING                             output.o
sReaderContext                                    output.o
saveSystemCallHandlerAddress                      output.o
save_guest_status                                 output.o
savemsr_index                                     output.o
savemsr_load                                      output.o
savemsr_save                                      output.o
scan_gframelist                                   output.o
schedule                                          output.o
security_storage_check_lba                        output.o
segment_init_ap                                   output.o
segment_wakeup                                    output.o
serial_getDebugChar                               output.o
serial_init_iohook                                output.o
serial_putDebugChar                               output.o
serial_putchar                                    output.o
sessionTable                                      output.o
setCurrentProtectedApplication                    output.o
set_int_handler                                   output.o
set_iofunc                                        output.o
setkbdled                                         output.o
shadow_and_activate_urb                           output.o
sig_app                                           output.o
sigx_app                                          output.o
sk_delete                                         output.o
sk_delete_ptr                                     output.o
sk_dup                                            output.o
sk_find                                           output.o
sk_find_ex                                        output.o
sk_free                                           output.o
sk_insert                                         output.o
sk_is_sorted                                      output.o
sk_new                                            output.o
sk_new_null                                       output.o
sk_num                                            output.o
sk_pop                                            output.o
sk_pop_free                                       output.o
sk_push                                           output.o
sk_set                                            output.o
sk_set_cmp_func                                   output.o
sk_shift                                          output.o
sk_sort                                           output.o
sk_unshift                                        output.o
sk_value                                          output.o
sk_zero                                           output.o
sleep_set_timer_counter                           output.o
slotFlag                                          output.o
slotTable                                         output.o
snprintf                                          output.o
start_all_processors                              output.o
storage_free                                      output.o
storage_get_num_hc                                output.o
storage_handle_sectors                            output.o
storage_hc_close                                  output.o
storage_hc_dev_atacommand                         output.o
storage_hc_dev_close                              output.o
storage_hc_dev_open                               output.o
storage_hc_hook_register                          output.o
storage_hc_hook_unregister                        output.o
storage_hc_open                                   output.o
storage_hc_register                               output.o
storage_hc_scandev                                output.o
storage_hc_unregister                             output.o
storage_init                                      output.o
storage_io_aget_size                              output.o
storage_io_aread                                  output.o
storage_io_awrite                                 output.o
storage_io_deinit                                 output.o
storage_io_get_num_devices                        output.o
storage_io_init                                   output.o
storage_new                                       output.o
storage_premap_buf                                output.o
storage_premap_handle_sectors                     output.o
strcmp                                            output.o
string_to_hex                                     output.o
strlen                                            output.o
svm_available                                     output.o
svm_enable_resume                                 output.o
svm_extern_iopass                                 output.o
svm_init                                          output.o
svm_init_signal                                   output.o
svm_ioio                                          output.o
svm_msr_update_lma                                output.o
svm_np_clear_all                                  output.o
svm_np_extern_mapsearch                           output.o
svm_np_init                                       output.o
svm_np_map_1mb                                    output.o
svm_np_pagefault                                  output.o
svm_np_tlbflush                                   output.o
svm_np_updatecr3                                  output.o
svm_paging_apply_fixed_cr0                        output.o
svm_paging_apply_fixed_cr4                        output.o
svm_paging_clear_all                              output.o
svm_paging_extern_flush_tlb_entry                 output.o
svm_paging_flush_guest_tlb                        output.o
svm_paging_get_gpat                               output.o
svm_paging_init                                   output.o
svm_paging_invalidate                             output.o
svm_paging_map_1mb                                output.o
svm_paging_npf                                    output.o
svm_paging_pagefault                              output.o
svm_paging_pg_change                              output.o
svm_paging_set_gpat                               output.o
svm_paging_spt_setcr3                             output.o
svm_paging_start                                  output.o
svm_paging_tlbflush                               output.o
svm_paging_updatecr3                              output.o
svm_panic_dump                                    output.o
svm_read_control_reg                              output.o
svm_read_flags                                    output.o
svm_read_gdtr                                     output.o
svm_read_general_reg                              output.o
svm_read_idtr                                     output.o
svm_read_ip                                       output.o
svm_read_msr                                      output.o
svm_read_sreg_acr                                 output.o
svm_read_sreg_base                                output.o
svm_read_sreg_limit                               output.o
svm_read_sreg_sel                                 output.o
svm_reset                                         output.o
svm_resume                                        output.o
svm_start_vm                                      output.o
svm_vmexit                                        output.o
svm_vminit                                        output.o
svm_write_control_reg                             output.o
svm_write_flags                                   output.o
svm_write_gdtr                                    output.o
svm_write_general_reg                             output.o
svm_write_idtr                                    output.o
svm_write_ip                                      output.o
svm_write_msr                                     output.o
svm_write_realmode_seg                            output.o
svm_writing_sreg                                  output.o
sx_handler                                        output.o
sym_to_phys                                       output.o
sync_all_processors                               output.o
sys_exitprocess                                   output.o
sys_msgclose                                      output.o
sys_msgopen                                       output.o
sys_msgregister                                   output.o
sys_msgret                                        output.o
sys_msgsendbuf                                    output.o
sys_msgsenddesc                                   output.o
sys_msgsendint                                    output.o
sys_msgsetfunc                                    output.o
sys_msgunregister                                 output.o
sys_newprocess                                    output.o
syscallHandlerAddress                             output.o
syscall_entry_lret                                output.o
syscall_entry_sysexit                             output.o
syscall_entry_sysret64                            output.o
syscall_metatata_table                            output.o
tcg_measure                                       output.o
test_gpaToHPA                                     output.o
test_logicalCPUStatus                             output.o
test_start                                        output.o
test_traverseGuestPages                           output.o
thread_exit                                       output.o
thread_gettid                                     output.o
thread_new                                        output.o
thread_set_process_switch                         output.o
thread_start0                                     output.o
thread_start1                                     output.o
thread_switch                                     output.o
thread_wakeup                                     output.o
thread_will_stop                                  output.o
timer_free                                        output.o
timer_new                                         output.o
timer_set                                         output.o
traverseGuestPages                                output.o
traverseIA32ePDPT                                 output.o
traverseIA32ePDT                                  output.o
traverseIA32ePT                                   output.o
traverseIA32ePages                                output.o
tree_find_sk                                      output.o
tty_init_iohook                                   output.o
tty_putchar                                       output.o
tty_udp_register                                  output.o
ttylog_stop                                       output.o
uhci_activate_urb                                 output.o
uhci_check_advance                                output.o
uhci_check_urb_advance                            output.o
uhci_create_urb                                   output.o
uhci_current_frame_number                         output.o
uhci_deactivate_urb                               output.o
uhci_destroy_unlinked_urbs                        output.o
uhci_destroy_urb                                  output.o
uhci_dump_all                                     output.o
uhci_error_status_string                          output.o
uhci_framelist_monitor                            output.o
uhci_init                                         output.o
uhci_monitor_boost_hc                             output.o
uhci_reactivate_urb                               output.o
uhci_shadow_buffer                                output.o
uhci_submit_bulk                                  output.o
uhci_submit_control                               output.o
uhci_submit_interrupt                             output.o
unmapHPAintoHVA                                   output.o
unmapmem                                          output.o
update_mtrr_and_pat                               output.o
usb_bulk_read                                     output.o
usb_bulk_write                                    output.o
usb_busses_head                                   output.o
usb_claim_interface                               output.o
usb_clear_halt                                    output.o
usb_close                                         output.o
usb_control_msg                                   output.o
usb_find_busses                                   output.o
usb_find_devices                                  output.o
usb_get_bus                                       output.o
usb_get_busses                                    output.o
usb_get_descriptor                                output.o
usb_get_descriptor_by_endpoint                    output.o
usb_get_descriptor_early                          output.o
usb_get_string                                    output.o
usb_get_string_simple                             output.o
usb_hc_list_head                                  output.o
usb_hook_process                                  output.o
usb_hook_register                                 output.o
usb_hook_unregister                               output.o
usb_init                                          output.o
usb_init_device_monitor                           output.o
usb_interrupt_read                                output.o
usb_interrupt_write                               output.o
usb_log_level                                     output.o
usb_new_dev_handle                                output.o
usb_open                                          output.o
usb_register_host                                 output.o
usb_release_interface                             output.o
usb_reset                                         output.o
usb_resetep                                       output.o
usb_sc_lock                                       output.o
usb_sc_unlock                                     output.o
usb_set_altinterface                              output.o
usb_set_configuration                             output.o
usb_set_debug                                     output.o
usb_unregister_devices                            output.o
usbccid_init_handle                               output.o
usbhid_init_handle                                output.o
usbhub_init_handle                                output.o
usbmsc_init_handle                                output.o
use_pae                                           output.o
usleep                                            output.o
v2i_ASN1_BIT_STRING                               output.o
v2i_GENERAL_NAME                                  output.o
v2i_GENERAL_NAMES                                 output.o
v2i_GENERAL_NAME_ex                               output.o
v3_akey_id                                        output.o
v3_alt                                            output.o
v3_bcons                                          output.o
v3_cpols                                          output.o
v3_crl_hold                                       output.o
v3_crl_invdate                                    output.o
v3_crl_num                                        output.o
v3_crl_reason                                     output.o
v3_crld                                           output.o
v3_delta_crl                                      output.o
v3_ext_ku                                         output.o
v3_freshest_crl                                   output.o
v3_idp                                            output.o
v3_info                                           output.o
v3_inhibit_anyp                                   output.o
v3_key_usage                                      output.o
v3_name_constraints                               output.o
v3_ns_ia5_list                                    output.o
v3_nscert                                         output.o
v3_ocsp_accresp                                   output.o
v3_ocsp_acutoff                                   output.o
v3_ocsp_crlid                                     output.o
v3_ocsp_nocheck                                   output.o
v3_ocsp_nonce                                     output.o
v3_ocsp_serviceloc                                output.o
v3_pci                                            output.o
v3_pkey_usage_period                              output.o
v3_policy_constraints                             output.o
v3_policy_mappings                                output.o
v3_sinfo                                          output.o
v3_skey_id                                        output.o
v3_sxnet                                          output.o
vcpu_list_foreach                                 output.o
vga_fill_rect                                     output.o
vga_get_screen_size                               output.o
vga_is_ready                                      output.o
vga_register                                      output.o
vga_transfer_image                                output.o
virt_to_phys                                      output.o
vmctl_svm_init                                    output.o
vmctl_vt_init                                     output.o
vmm_base_cr3                                      output.o
vmm_main                                          output.o
vmm_pd                                            output.o
vmm_pd1                                           output.o
vmm_pd2                                           output.o
vmm_pdp                                           output.o
vmm_pml4                                          output.o
vmm_start_inf                                     output.o
vmm_term_inf                                      output.o
vmmcall                                           output.o
vmmcall_boot_continue                             output.o
vmmcall_boot_enable                               output.o
vmmcall_init                                      output.o
vmmcall_register                                  output.o
vmmsize                                           output.o
vpn_FreeTimer                                     output.o
vpn_GetCurrentCpuId                               output.o
vpn_GetPhysicalNicInfo                            output.o
vpn_GetTickCount                                  output.o
vpn_GetVirtualNicInfo                             output.o
vpn_NewTimer                                      output.o
vpn_SendPhysicalNic                               output.o
vpn_SendVirtualNic                                output.o
vpn_SetPhysicalNicRecvCallback                    output.o
vpn_SetTimer                                      output.o
vpn_SetVirtualNicRecvCallback                     output.o
vpn_ic_rsa_sign                                   output.o
vpn_new_nic                                       output.o
vpn_premap_PhysicalNicRecv                        output.o
vpn_premap_VirtualNicRecv                         output.o
vpn_premap_recvbuf                                output.o
vpn_start                                         output.o
vpn_user_init                                     output.o
vprintf                                           output.o
vramwrite_clearscreen                             output.o
vramwrite_exit_global                             output.o
vramwrite_get_cursor_pos                          output.o
vramwrite_init_global                             output.o
vramwrite_mark1                                   output.o
vramwrite_mark2                                   output.o
vramwrite_mark3                                   output.o
vramwrite_putchar                                 output.o
vramwrite_restore_cursor                          output.o
vramwrite_save_and_move_cursor                    output.o
vsnprintf                                         output.o
vt__vmx_init                                      output.o
vt__vmxon                                         output.o
vt_add_guest_msr                                  output.o
vt_available                                      output.o
vt_enable_resume                                  output.o
vt_ept_clear_all                                  output.o
vt_ept_extern_mapsearch                           output.o
vt_ept_init                                       output.o
vt_ept_map_1mb                                    output.o
vt_ept_tlbflush                                   output.o
vt_ept_updatecr3                                  output.o
vt_ept_violation                                  output.o
vt_extern_iopass                                  output.o
vt_generate_external_int                          output.o
vt_generate_pagefault                             output.o
vt_get_current_regs_in_vmcs                       output.o
vt_get_vmcs_regs_in_vmcs                          output.o
vt_init                                           output.o
vt_init_signal                                    output.o
vt_io                                             output.o
vt_iopass                                         output.o
vt_iopass_init                                    output.o
vt_msr_init                                       output.o
vt_msr_update_lma                                 output.o
vt_paging_apply_fixed_cr0                         output.o
vt_paging_apply_fixed_cr4                         output.o
vt_paging_clear_all                               output.o
vt_paging_extern_flush_tlb_entry                  output.o
vt_paging_flush_guest_tlb                         output.o
vt_paging_get_gpat                                output.o
vt_paging_init                                    output.o
vt_paging_invalidate                              output.o
vt_paging_map_1mb                                 output.o
vt_paging_npf                                     output.o
vt_paging_pagefault                               output.o
vt_paging_pg_change                               output.o
vt_paging_set_gpat                                output.o
vt_paging_spt_setcr3                              output.o
vt_paging_start                                   output.o
vt_paging_tlbflush                                output.o
vt_paging_updatecr3                               output.o
vt_panic_dump                                     output.o
vt_read_control_reg                               output.o
vt_read_flags                                     output.o
vt_read_gdtr                                      output.o
vt_read_general_reg                               output.o
vt_read_guest_msr                                 output.o
vt_read_idtr                                      output.o
vt_read_ip                                        output.o
vt_read_msr                                       output.o
vt_read_sreg_acr                                  output.o
vt_read_sreg_base                                 output.o
vt_read_sreg_limit                                output.o
vt_read_sreg_sel                                  output.o
vt_reset                                          output.o
vt_resume                                         output.o
vt_start_vm                                       output.o
vt_update_exception_bmp                           output.o
vt_vmexit                                         output.o
vt_vminit                                         output.o
vt_vmptrld                                        output.o
vt_write_control_reg                              output.o
vt_write_flags                                    output.o
vt_write_gdtr                                     output.o
vt_write_general_reg                              output.o
vt_write_guest_msr                                output.o
vt_write_idtr                                     output.o
vt_write_ip                                       output.o
vt_write_msr                                      output.o
vt_write_realmode_seg                             output.o
vt_writing_sreg                                   output.o
waitcycles                                        output.o
wakeup_cont                                       output.o
wakeup_entry_addr                                 output.o
wakeup_entry_cr0                                  output.o
wakeup_entry_cr3                                  output.o
wakeup_entry_cr4                                  output.o
wakeup_entry_end                                  output.o
wakeup_entry_gdtr                                 output.o
wakeup_entry_start                                output.o
wakeup_init                                       output.o
wakeup_main                                       output.o
whirlpool_block                                   output.o
write_gphys_b                                     output.o
write_gphys_l                                     output.o
write_gphys_q                                     output.o
write_gphys_w                                     output.o
write_hphys_b                                     output.o
write_hphys_l                                     output.o
write_hphys_q                                     output.o
write_hphys_w                                     output.o
write_linearaddr_b                                output.o
write_linearaddr_l                                output.o
write_linearaddr_ok_b                             output.o
write_linearaddr_ok_l                             output.o
write_linearaddr_ok_w                             output.o
write_linearaddr_q                                output.o
write_linearaddr_tss                              output.o
write_linearaddr_w                                output.o
x509_name_ff                                      output.o
zero_page_pool                                    output.o
