
Allocating common symbols
Common symbol       size              file

clflush_size        0x4               output.o
sReaderContext      0x60              output.o
sigx_app            0x8               output.o
num_dom             0x4               output.o
mszReaders          0x400             output.o
prohibit_iccard_init
                    0x4               output.o
curthread           0x8               output.o
sig_app             0x8               output.o
readerState         0x64              output.o
dom_io              0x800             output.o
acpi_dsdt_system_state
                    0x1e              output.o
ehci_host           0x8               output.o
num_of_processors   0x4               output.o
e801_fake_bx        0x2               output.o
iommu_detected      0x1               output.o
dwReaders           0x8               output.o
readerTracker       0x140             output.o
handler_descriptor_lock
                    0x1               output.o
e801_fake_ax        0x2               output.o

Discarded input sections

 .gomi          0x0000000000000000        0xe output.o

Memory Configuration

Name             Origin             Length             Attributes
*default*        0x0000000000000000 0xffffffffffffffff

Linker script and memory map

                0x0000000040100000                virt = 0x40100000
                0x0000000000100000                phys = 0x100000
                0x0000000040100000                . = virt
                0x0000000040100000                head = .
                0x00000000401000b0                . = (virt + SIZEOF_HEADERS)

.text           0x0000000040101000   0x111ba6 load address 0x0000000000101000
                0x0000000040101000                code = .
 *(.entry)
 .entry         0x0000000040101000     0x6000 output.o
                0x000000004010100c                entry
                0x000000004010109a                cpuinit_start
                0x00000000401012c8                vmm_base_cr3
                0x00000000401012e0                apinit_procs
                0x00000000401012e8                apinit_lock
                0x00000000401012f0                cpuinit_end
                0x0000000040103000                entry_pdp
                0x0000000040104000                entry_pd0
                0x0000000040105000                entry_pd
 *(.text)
 .text          0x0000000040107000   0x10bba6 output.o
                0x000000004010766c                acpi_smi_hook
                0x00000000401076ba                acpi_iohook
                0x000000004010770c                acpi_reset
                0x0000000040107808                acpi_poweroff
                0x0000000040107841                get_acpi_time_raw
                0x000000004010c811                acpi_dsdt_parse
                0x000000004010ccea                apinitproc0
                0x000000004010cd13                apic_available
                0x000000004010cd3f                ap_start_addr
                0x000000004010cf82                panic_wakeup_all
                0x000000004010d006                disable_apic
                0x000000004010d07d                sync_all_processors
                0x000000004010d10d                start_all_processors
                0x000000004010d14c                assertion_failed
                0x000000004010d185                beep_set_freq
                0x000000004010d1b6                beep_on
                0x000000004010d1c6                beep_off
                0x000000004010d80d                update_mtrr_and_pat
                0x000000004010da52                cache_get_gpat
                0x000000004010daa8                cache_set_gpat
                0x000000004010daf2                cache_get_attr
                0x000000004010db98                cache_get_gmtrr_type
                0x000000004010dba3                cache_get_gmtrr_attr
                0x000000004010dbb6                cache_get_gmtrrcap
                0x000000004010dbe4                cache_get_gmtrr
                0x000000004010dd3d                cache_set_gmtrr
                0x000000004010dd97                cache_get_gmsr_amd
                0x000000004010dde7                cache_set_gmsr_amd
                0x000000004010e22b                callrealmode_endofcodeaddr
                0x000000004010e23c                callrealmode_usevcpu
                0x000000004010e249                callrealmode_printmsg
                0x000000004010e266                callrealmode_getsysmemmap
                0x000000004010e2bd                callrealmode_getshiftflags
                0x000000004010e2db                callrealmode_setvideomode
                0x000000004010e2f9                callrealmode_reboot
                0x000000004010e313                callrealmode_tcgbios
                0x000000004010e3a7                callrealmode_disk_readmbr
                0x000000004010e3e7                callrealmode_disk_readlba
                0x000000004010e42f                callrealmode_bootcd_getstatus
                0x000000004010e484                callrealmode_setcursorpos
                0x000000004010e4a9                callrealmode_startkernel32
                0x000000004010e4c9                callrealmode_getfontinfo
                0x000000004010e539                get_cpu_id
                0x000000004010e54d                cpu_emul_cpuid
                0x000000004010e601                cpu_emul_rdmsr
                0x000000004010e67a                cpu_emul_wrmsr
                0x000000004010e6f0                cpu_emul_hlt
                0x000000004010e708                cpu_emul_cli
                0x000000004010e741                cpu_emul_sti
                0x000000004010e788                cpu_emul_realmode_int
                0x000000004010e8ea                cpu_emul_xsetbv
                0x00000000401110f8                cpu_interpreter
                0x0000000040113420                cpu_mmu_get_pte
                0x0000000040113bb5                write_linearaddr_ok_b
                0x0000000040113bd7                write_linearaddr_ok_w
                0x0000000040113be2                write_linearaddr_ok_l
                0x0000000040113bed                write_linearaddr_b
                0x0000000040113c5b                write_linearaddr_w
                0x0000000040113cf3                write_linearaddr_l
                0x0000000040113d89                write_linearaddr_q
                0x0000000040113e1d                read_linearaddr_b
                0x0000000040113e8a                read_linearaddr_w
                0x0000000040113f1b                read_linearaddr_l
                0x0000000040113fac                read_linearaddr_q
                0x000000004011403d                read_linearaddr_tss
                0x00000000401140d0                write_linearaddr_tss
                0x000000004011802f                cpu_mmu_spt_tlbflush
                0x000000004011806a                cpu_mmu_spt_updatecr3
                0x000000004011830a                cpu_mmu_spt_invalidate
                0x0000000040118392                cpu_mmu_spt_pagefault
                0x0000000040118589                cpu_mmu_spt_extern_mapsearch
                0x00000000401186c8                cpu_mmu_spt_map_1mb
                0x000000004011887c                cpu_mmu_spt_clear_all
                0x00000000401189dd                cpu_mmu_spt_init
                0x0000000040118ff1                cpu_seg_read_b
                0x000000004011905e                cpu_seg_read_w
                0x00000000401190cb                cpu_seg_read_l
                0x0000000040119138                cpu_seg_read_q
                0x00000000401191a5                cpu_seg_write_b
                0x0000000040119213                cpu_seg_write_w
                0x0000000040119281                cpu_seg_write_l
                0x00000000401192ee                cpu_seg_write_q
                0x000000004011935b                cpu_stack_get
                0x00000000401193c5                cpu_stack_set
                0x000000004011945a                cpu_stack_push
                0x0000000040119506                cpu_stack_pop
                0x00000000401195f1                call_cpuid
                0x00000000401199aa                debug_addstr
                0x00000000401199b0                debug_gdb
                0x00000000401199b6                debug_iohook
                0x00000000401199bc                debug_msgregister
                0x00000000401199ec                debug_msgunregister
                0x0000000040119a89                do_exint_pass
                0x0000000040119b1d                read_gphys_b
                0x0000000040119b8f                write_gphys_b
                0x0000000040119c12                read_gphys_w
                0x0000000040119caf                write_gphys_w
                0x0000000040119d60                read_gphys_l
                0x0000000040119dfd                write_gphys_l
                0x0000000040119eb1                read_gphys_q
                0x0000000040119f4e                write_gphys_q
                0x0000000040119fff                cmpxchg_gphys_l
                0x000000004011a0bd                cmpxchg_gphys_q
                0x000000004011a17b                gmm_pass_gp2hp
                0x000000004011a645                idman_reinit_session
                0x000000004011a6c0                idman_reinit2
                0x000000004011a6e1                get_idman_session
                0x000000004011a721                call_initfunc
                0x000000004011a786                initfunc_init
                0x000000004011c305                int_fatal
                0x000000004011c664                callfunc_and_getint
                0x000000004011c678                do_externalint_enable
                0x000000004011c68d                set_int_handler
                0x000000004011c6ac                int_exceptionHandler
                0x000000004011c6b7                int_init_ap
                0x000000004011c70d                do_io_nothing
                0x000000004011c748                set_iofunc
                0x000000004011c7ea                call_io
                0x000000004011c8d0                do_iopass_default
                0x000000004011cab6                keyboard_reset
                0x000000004011cafb                setkbdled
                0x000000004011cb4c                keyboard_flush
                0x000000004011cb66                load_bootsector
                0x000000004011cf21                copy_bootsector
                0x000000004011d1d0                localapic_wait_for_sipi
                0x000000004011d25d                localapic_change_base_msr
                0x000000004011d2a9                localapic_mmio_register
                0x000000004011dc74                resume_vm
                0x000000004011dd2e                vmm_main
                0x000000004011e0b4                getsysmemmap
                0x000000004011e13b                getfakesysmemmap
                0x000000004011e1ad                phys_to_virt
                0x000000004011e1c3                vmm_start_inf
                0x000000004011e1cf                vmm_term_inf
                0x000000004011e1e0                num_of_available_pages
                0x000000004011e253                alloc_pages
                0x000000004011e2c9                alloc_page
                0x000000004011e2d9                alloc
                0x000000004011e571                alloc2
                0x000000004011e5a9                free
                0x000000004011e6bc                realloc
                0x000000004011e808                free_page
                0x000000004011e81b                free_page_phys
                0x000000004011e83e                mempool_new
                0x000000004011e8ac                mempool_free
                0x000000004011e95d                mempool_allocmem
                0x000000004011eb42                mempool_freemem
                0x000000004011edfe                sym_to_phys
                0x000000004011ee12                phys_in_vmm
                0x000000004011ee2e                mm_force_unlock
                0x000000004011ee60                mm_process_alloc
                0x000000004011f030                mm_process_free
                0x000000004011f08d                mm_process_switch
                0x000000004011f0ab                pmap_open_vmm
                0x000000004011f0d6                pmap_open_guest
                0x000000004011f118                pmap_close
                0x000000004011f11e                pmap_getreadlevel
                0x000000004011f12a                pmap_setlevel
                0x000000004011f136                pmap_seek
                0x000000004011f1a6                pmap_read
                0x000000004011f434                pmap_write
                0x000000004011f5cc                mm_process_unmap
                0x000000004011f6b9                mm_process_unmap_stack
                0x000000004011f894                mm_process_unmapall
                0x000000004011f93b                pmap_pointer
                0x000000004011f9a6                pmap_clear
                0x000000004011fa9c                pmap_autoalloc
                0x000000004011fc49                mm_process_map_alloc
                0x000000004011fd8c                mm_process_map_shared_physpage
                0x000000004011fdf6                mm_process_map_shared
                0x0000000040120054                mm_process_map_stack
                0x00000000401208fe                pmap_dump
                0x0000000040120a16                unmapmem
                0x0000000040120af7                mapmem
                0x000000004012103e                read_hphys_b
                0x0000000040121093                write_hphys_b
                0x00000000401210c5                read_hphys_w
                0x00000000401210fc                write_hphys_w
                0x000000004012112f                read_hphys_l
                0x0000000040121164                write_hphys_l
                0x0000000040121196                read_hphys_q
                0x00000000401211cd                write_hphys_q
                0x0000000040121201                cmpxchg_hphys_l
                0x0000000040121255                cmpxchg_hphys_q
                0x00000000401212a9                alloc_realmodemem
                0x000000004012134a                mapmem_hphys
                0x0000000040121362                mapmem_gphys
                0x000000004012137a                mm_flush_wb_cache
                0x0000000040121724                mmio_access_memory
                0x0000000040121882                mmio_access_page
                0x000000004012193e                mmio_register
                0x0000000040121b8d                mmio_unregister
                0x0000000040121c14                mmio_lock
                0x0000000040121c2f                mmio_unlock
                0x0000000040121ccf                msg_findname
                0x0000000040121d3f                msg_register
                0x0000000040121e0e                msg_unregister
                0x0000000040121e89                msg_unregisterall
                0x0000000040121f14                msg_unregister2
                0x0000000040121fe1                call_read_msr
                0x0000000040121ff5                call_write_msr
                0x0000000040122291                load_minios
                0x00000000401225c2                backtrace
                0x0000000040122f18                panic
                0x000000004012341d                auto_reboot
                0x000000004012343a                panic_test
                0x000000004012345d                pcpu_list_foreach
                0x000000004012349c                pcpu_list_add
                0x00000000401234f0                pcpu_init
                0x000000004012407a                vprintf
                0x00000000401240b5                printf
                0x00000000401240f3                vsnprintf
                0x0000000040124137                snprintf
                0x0000000040124373                sys_msgsetfunc
                0x0000000040124420                sys_msgclose
                0x000000004012443d                sys_msgret
                0x0000000040124529                sys_msgregister
                0x000000004012475a                sys_msgsenddesc
                0x0000000040124f6c                sys_msgsendint
                0x000000004012529c                sys_newprocess
                0x00000000401252fd                sys_msgunregister
                0x0000000040125389                sys_exitprocess
                0x00000000401253de                sys_msgsendbuf
                0x0000000040125539                sys_msgopen
                0x000000004012559a                process_kill
                0x00000000401255fb                msgsetfunc
                0x0000000040125610                msgregister
                0x0000000040125626                msgopen
                0x0000000040125639                msgclose
                0x000000004012564b                msgsendint
                0x000000004012565f                msgsenddesc
                0x0000000040125673                newprocess
                0x0000000040125686                msgsendbuf
                0x00000000401256a0                msgunregister
                0x00000000401256d0                exitprocess
                0x00000000401256e3                msgpremapbuf
                0x00000000401257ff                process_syscall
                0x00000000401258aa                putchar
                0x00000000401258e8                putchar_set_func
                0x0000000040125bba                do_panic_reboot
                0x0000000040125c44                handle_init_to_bsp
                0x0000000040125c65                reboot_test
                0x0000000040125c94                savemsr_save
                0x0000000040125d01                savemsr_load
                0x0000000040126069                get_seg_base
                0x0000000040126125                get_seg_access_rights
                0x0000000040126145                segment_wakeup
                0x0000000040126187                segment_init_ap
                0x0000000040126426                serial_putDebugChar
                0x0000000040126438                serial_getDebugChar
                0x000000004012644d                serial_putchar
                0x00000000401264af                serial_init_iohook
                0x00000000401264f5                waitcycles
                0x0000000040126518                usleep
                0x0000000040126637                sleep_set_timer_counter
                0x000000004012679e                vmctl_svm_init
                0x0000000040126846                message_exitcode
                0x0000000040126dc9                printexitcode
                0x0000000040126df6                svm_available
                0x0000000040126ea7                svm_reset
                0x0000000040127124                svm_vminit
                0x00000000401274ce                svm_vmexit
                0x00000000401274d4                svm_init
                0x000000004012761b                svm_enable_resume
                0x0000000040127720                svm_resume
                0x0000000040127872                svm_ioio
                0x000000004012797c                svm_extern_iopass
                0x0000000040127ae4                svm_init_signal
                0x0000000040127b07                svm_start_vm
                0x0000000040128620                svm_msr_update_lma
                0x0000000040128695                svm_read_msr
                0x000000004012893a                svm_write_msr
                0x0000000040128ead                svm_np_init
                0x0000000040128fa1                svm_np_pagefault
                0x0000000040128fd9                svm_np_tlbflush
                0x0000000040128fdf                svm_np_updatecr3
                0x0000000040128fea                svm_np_clear_all
                0x000000004012907d                svm_np_extern_mapsearch
                0x0000000040129106                svm_np_map_1mb
                0x0000000040129160                svm_paging_extern_flush_tlb_entry
                0x0000000040129187                svm_paging_map_1mb
                0x00000000401291b1                svm_paging_flush_guest_tlb
                0x00000000401291f0                svm_paging_init
                0x000000004012930e                svm_paging_pagefault
                0x000000004012933a                svm_paging_tlbflush
                0x0000000040129361                svm_paging_invalidate
                0x000000004012938f                svm_paging_npf
                0x00000000401293bb                svm_paging_updatecr3
                0x00000000401293e7                svm_paging_spt_setcr3
                0x000000004012941b                svm_paging_clear_all
                0x0000000040129447                svm_paging_get_gpat
                0x0000000040129452                svm_paging_set_gpat
                0x0000000040129493                svm_paging_apply_fixed_cr0
                0x00000000401294b6                svm_paging_apply_fixed_cr4
                0x00000000401294da                svm_paging_pg_change
                0x00000000401294e0                svm_paging_start
                0x00000000401294f2                svm_panic_dump
                0x00000000401295c0                svm_read_general_reg
                0x00000000401296fc                svm_write_general_reg
                0x0000000040129808                svm_read_control_reg
                0x00000000401298a3                svm_write_control_reg
                0x000000004012997f                svm_read_sreg_sel
                0x0000000040129a40                svm_read_sreg_acr
                0x0000000040129b1b                svm_read_sreg_base
                0x0000000040129c37                svm_read_sreg_limit
                0x0000000040129d48                svm_read_ip
                0x0000000040129d67                svm_write_ip
                0x0000000040129d8d                svm_read_flags
                0x0000000040129dac                svm_write_flags
                0x0000000040129dc8                svm_read_gdtr
                0x0000000040129dff                svm_write_gdtr
                0x0000000040129e28                svm_read_idtr
                0x0000000040129e5f                svm_write_idtr
                0x0000000040129e88                svm_write_realmode_seg
                0x0000000040129fc7                svm_writing_sreg
                0x000000004012a0de                int1a_TCG_StatusCheck
                0x000000004012a191                int1a_TCG_HashLogExtendEvent
                0x000000004012a21c                int1a_TCG_PassThroughToTPM
                0x000000004012a2a7                int1a_TCG_HashLogEvent
                0x000000004012a328                int1a_TCG_HashAll
                0x000000004012a3e0                int1a_TCG_TSS
                0x000000004012a46b                int1a_TCG_CompactHashLogExtendEvent
                0x000000004012a4cc                tcg_measure
                0x000000004012a7c5                thread_gettid
                0x000000004012a7da                schedule
                0x000000004012aa20                thread_new
                0x000000004012ab4d                thread_wakeup
                0x000000004012ac32                thread_will_stop
                0x000000004012acaa                thread_exit
                0x000000004012ad4e                thread_start1
                0x000000004012ad6c                thread_set_process_switch
                0x000000004012af14                get_cpu_time
                0x000000004012afe7                get_acpi_time
                0x000000004012b098                get_time
                0x000000004012b275                timer_new
                0x000000004012b2f6                timer_set
                0x000000004012b3ec                timer_free
                0x000000004012b5de                tty_putchar
                0x000000004012b768                ttylog_stop
                0x000000004012b778                tty_udp_register
                0x000000004012b7bc                tty_init_iohook
                0x000000004012b7e3                vcpu_list_foreach
                0x000000004012b822                load_new_vcpu
                0x000000004012b8e4                vga_register
                0x000000004012b958                vga_is_ready
                0x000000004012b9b8                vga_transfer_image
                0x000000004012ba06                vga_fill_rect
                0x000000004012ba41                vga_get_screen_size
                0x000000004012bb65                vmmcall
                0x000000004012bbbe                vmmcall_register
                0x000000004012bbfb                vmmcall_init
                0x000000004012bfa5                vmmcall_boot_continue
                0x000000004012bff0                vmmcall_boot_enable
                0x000000004012c877                register_status_callback
                0x000000004012c96c                vramwrite_clearscreen
                0x000000004012c9ce                vramwrite_putchar
                0x000000004012cba5                vramwrite_mark1
                0x000000004012cbe6                vramwrite_mark2
                0x000000004012cc2e                vramwrite_mark3
                0x000000004012cc77                vramwrite_save_and_move_cursor
                0x000000004012ccae                vramwrite_restore_cursor
                0x000000004012ccc0                vramwrite_get_cursor_pos
                0x000000004012cd0e                vramwrite_init_global
                0x000000004012cd1b                vramwrite_exit_global
                0x000000004012cdce                vt_generate_pagefault
                0x000000004012ce57                vt_generate_external_int
                0x000000004012cea9                vmctl_vt_init
                0x000000004012cf51                vt_vmptrld
                0x000000004012d262                vt_ept_init
                0x000000004012d35e                vt_ept_violation
                0x000000004012d3ff                vt_ept_tlbflush
                0x000000004012d405                vt_ept_updatecr3
                0x000000004012d4f7                vt_ept_clear_all
                0x000000004012d58a                vt_ept_extern_mapsearch
                0x000000004012d613                vt_ept_map_1mb
                0x000000004012d665                message_exitreason
                0x000000004012d7cb                printexitreason
                0x000000004012e05d                vt_available
                0x000000004012e0fc                vt__vmx_init
                0x000000004012e144                vt__vmxon
                0x000000004012e1f1                vt_vminit
                0x000000004012e24d                vt_vmexit
                0x000000004012e267                vt_init
                0x000000004012e277                vt_enable_resume
                0x000000004012e3b0                vt_resume
                0x000000004012e545                vt_io
                0x000000004012e666                vt_iopass_init
                0x000000004012e7fb                vt_iopass
                0x000000004012e83e                vt_extern_iopass
                0x000000004012f46e                vt_update_exception_bmp
                0x000000004012fa99                vt_init_signal
                0x000000004012faa4                vt_start_vm
                0x000000004012fe7a                vt_add_guest_msr
                0x000000004012ffd2                vt_read_guest_msr
                0x0000000040130005                vt_write_guest_msr
                0x0000000040130035                vt_msr_update_lma
                0x000000004013010d                vt_read_msr
                0x00000000401303b3                vt_write_msr
                0x0000000040130671                vt_msr_init
                0x0000000040130873                vt_paging_extern_flush_tlb_entry
                0x00000000401308d7                vt_paging_map_1mb
                0x00000000401308f7                vt_paging_flush_guest_tlb
                0x0000000040130957                vt_paging_pagefault
                0x000000004013098c                vt_paging_tlbflush
                0x00000000401309a9                vt_paging_invalidate
                0x00000000401309dc                vt_paging_npf
                0x0000000040130a11                vt_paging_updatecr3
                0x0000000040130a41                vt_paging_spt_setcr3
                0x0000000040130a6c                vt_paging_clear_all
                0x0000000040130a9f                vt_paging_get_gpat
                0x0000000040130aaa                vt_paging_set_gpat
                0x0000000040130afe                vt_paging_apply_fixed_cr0
                0x0000000040130b66                vt_paging_apply_fixed_cr4
                0x0000000040130bae                vt_paging_pg_change
                0x0000000040130d2e                vt_paging_init
                0x0000000040130da9                vt_paging_start
                0x0000000040130dd6                vt_panic_dump
                0x0000000040130f80                vt_read_general_reg
                0x00000000401310a1                vt_write_general_reg
                0x0000000040131195                vt_read_control_reg
                0x0000000040131203                vt_read_sreg_sel
                0x000000004013130c                vt_read_sreg_acr
                0x0000000040131363                vt_read_sreg_base
                0x00000000401313e5                vt_read_sreg_limit
                0x0000000040131462                vt_read_ip
                0x0000000040131470                vt_write_ip
                0x0000000040131490                vt_read_flags
                0x00000000401314b6                vt_write_flags
                0x00000000401314e1                vt_read_gdtr
                0x00000000401314f6                vt_write_gdtr
                0x000000004013150b                vt_read_idtr
                0x000000004013154f                vt_write_idtr
                0x0000000040131585                vt_write_control_reg
                0x0000000040131a58                vt_get_current_regs_in_vmcs
                0x0000000040131ce3                vt_get_vmcs_regs_in_vmcs
                0x0000000040131e60                vt_write_realmode_seg
                0x0000000040131fa9                vt_writing_sreg
                0x0000000040132032                vt_reset
                0x0000000040132310                prepare_for_sleep
                0x00000000401323d1                cancel_sleep
                0x00000000401323f3                wakeup_main
                0x000000004013247b                wakeup_cont
                0x00000000401325b0                wakeup_init
                0x00000000401325f9                call_xsetbv
                0x0000000040132670                mpumul_64_64
                0x0000000040132690                mpudiv_128_32
                0x00000000401326b0                ipchecksum
                0x0000000040132740                asm_vmlaunch_regs_32
                0x00000000401327c0                asm_vmresume_regs_32
                0x0000000040132840                asm_vmrun_regs_32
                0x00000000401328a0                asm_vmlaunch_regs_64
                0x0000000040132980                asm_vmresume_regs_64
                0x0000000040132a60                asm_vmrun_regs_64
                0x0000000040132b01                callrealmode_start
                0x0000000040132b17                callrealmode_start2
                0x0000000040132fa3                move_vmm_area32
                0x0000000040132fa3                callrealmode_end
                0x0000000040132fc8                move_vmm_area64
                0x0000000040132ff0                int_handler
                0x0000000040133068                int_callfunc
                0x0000000040134000                syscall_entry_sysexit
                0x000000004013402c                syscall_entry_lret
                0x000000004013405c                ret_to_user32
                0x0000000040134068                syscall_entry_sysret64
                0x00000000401340b0                ret_to_user64
                0x0000000040135000                processuser_sysenter
                0x0000000040136000                processuser_no_sysenter
                0x0000000040137000                processuser_syscall
                0x0000000040138140                memset
                0x00000000401381c0                memcpy
                0x0000000040138200                strcmp
                0x0000000040138240                memcmp
                0x0000000040138280                strlen
                0x0000000040138298                sx_handler
                0x00000000401382f0                thread_switch
                0x0000000040138310                thread_start0
                0x000000004013834a                get_guest_cr3_value
                0x0000000040138358                get_guest_eptp_value
                0x0000000040138366                monitor_vmcs_read
                0x000000004013836f                monitor_vmcs_write
                0x0000000040138378                hypercall_handler
                0x0000000040138397                get_page_table_base_GPA
                0x00000000401383ad                get_ept_base_HPA
                0x00000000401383c3                traverseGuestPages
                0x00000000401383ce                saveSystemCallHandlerAddress
                0x000000004013840f                getSystemCallHandlerGPA
                0x000000004013841c                save_guest_status
                0x000000004013872f                clear_guest_status
                0x0000000040138a1d                getTSSGVA
                0x0000000040138a2d                closePage
                0x0000000040138a38                allocateNewVMID
                0x0000000040138a4e                allocateNewAppID
                0x0000000040138a66                allocateNewApplicationIdentifiers
                0x0000000040138a90                getMemoryOwnershipTableIndex
                0x0000000040138a9d                changePageStatus
                0x0000000040138b86                openPage
                0x0000000040138c06                getMemoryOwnershipTableEntry
                0x0000000040138c3e                initializeNewProtectedApplication
                0x0000000040138c74                protectCurrentApplication
                0x0000000040138cd5                getCurrentProtectedApplication
                0x0000000040138d2a                traverseIA32ePages
                0x0000000040138f69                traverseIA32ePDPT
                0x000000004013910e                traverseIA32ePDT
                0x000000004013922d                traverseIA32ePT
                0x00000000401392cd                gvaToGPA
                0x00000000401394d2                mapHPAintoHVA
                0x00000000401394f8                gpaToHPA
                0x000000004013967d                unmapHPAintoHVA
                0x0000000040139688                test_start
                0x00000000401396d4                test_gpaToHPA
                0x000000004013970d                test_traverseGuestPages
                0x000000004013974a                test_logicalCPUStatus
                0x0000000040139780                core_init
                0x0000000040139791                core_mm_read_guest_phys
                0x000000004013980b                core_mm_write_guest_phys
                0x0000000040139885                alloc_handler_descriptor
                0x0000000040139895                core_io_modify_handler
                0x0000000040139956                core_io_unregister_handler
                0x00000000401399dd                core_io_handle_default
                0x0000000040139c75                panic_oom
                0x0000000040139c88                core_io_register_handler
                0x0000000040139dd0                matched_drhd_u
                0x0000000040139e2e                parse_dmar_bios_report
                0x0000000040139e79                ieee1394_init
                0x0000000040139eb2                iommu_setup
                0x0000000040139eb8                iodom_init
                0x000000004013a088                add_remap
                0x000000004013a112                create_dom
                0x000000004013a441                pci_conceal_new_device
                0x000000004013a817                pci_conceal_config_data_handler
                0x000000004013a83c                pci_save_config_addr
                0x000000004013a84e                pci_restore_config_addr
                0x000000004013a860                pci_append_device
                0x000000004013a892                pci_config_data_handler
                0x000000004013abc5                pci_config_addr_handler
                0x000000004013ac0e                pci_register_driver
                0x000000004013acad                pci_read_config_data8
                0x000000004013acf3                pci_read_config_data16
                0x000000004013ad3a                pci_read_config_data32
                0x000000004013ad80                pci_write_config_data8
                0x000000004013adc6                pci_write_config_data16
                0x000000004013ae0d                pci_write_config_data32
                0x000000004013ae53                pci_read_config_data_port
                0x000000004013ae85                pci_write_config_data_port
                0x000000004013aebb                pci_handle_default_config_write
                0x000000004013aeee                pci_print_device
                0x000000004013b259                pci_possible_new_device
                0x000000004013b281                security_storage_check_lba
                0x000000004013e5b6                ahci_new
                0x000000004013e840                ahci_config_read
                0x000000004013e8a7                ahci_config_write
                0x000000004013eb5f                ata_bm_handle_command
                0x000000004013ec96                ata_bm_handle_status
                0x000000004013ed47                ata_bm_handle_prd_table
                0x000000004013ee46                ata_bm_handler
                0x000000004013ef49                ata_get_cmd_type
                0x000000004013f2b3                ata_handle_queued_status
                0x000000004013fc79                ata_channel_lock
                0x000000004013fcf5                ata_channel_unlock
                0x000000004013fd1c                ata_cmdblk_handler
                0x000000004013fe2e                ata_ctlblk_handler
                0x0000000040140a5f                ata_ahci_mode
                0x0000000040140f65                ata_init_io_handler
                0x000000004014100a                ata_set_bm_handler
                0x0000000040141061                ata_set_cmdblk_handler
                0x000000004014109a                ata_set_ctlblk_handler
                0x00000000401410d5                ata_config_read
                0x000000004014117b                ata_config_write
                0x00000000401412f5                ata_init_vendor
                0x000000004014131c                ata_bm_handle_device_specific
                0x0000000040141420                atapi_handle_config_data
                0x0000000040141660                atapi_handle_interrupt_reason
                0x00000000401416a6                atapi_handle_pio_identify_packet
                0x0000000040141840                atapi_handle_packet_data
                0x000000004014184b                atapi_handle_cmd_packet
                0x00000000401418c9                packet_handle_through
                0x00000000401418fc                packet_handle_nondata
                0x0000000040141916                packet_handle_config
                0x0000000040141960                packet_handle_rw
                0x00000000401419e1                packet_handle_invalid
                0x00000000401419fb                packet_handle_command
                0x0000000040141a30                uhci_init
                0x00000000401422af                uhci_current_frame_number
                0x00000000401422d0                dump_td_byvirt
                0x00000000401424a9                dump_td
                0x000000004014257b                dump_qh
                0x0000000040142750                dump_frame
                0x000000004014285a                uhci_dump_all
                0x0000000040142a1c                uhci_error_status_string
                0x0000000040142cfb                uhci_shadow_buffer
                0x0000000040142f7e                uhci_framelist_monitor
                0x0000000040144efe                scan_gframelist
                0x00000000401457ab                uhci_create_urb
                0x000000004014590f                uhci_destroy_urb
                0x0000000040145a3c                uhci_destroy_unlinked_urbs
                0x0000000040145b11                uhci_deactivate_urb
                0x0000000040145e9e                uhci_activate_urb
                0x000000004014645a                uhci_reactivate_urb
                0x0000000040146500                uhci_submit_control
                0x0000000040146b34                uhci_submit_interrupt
                0x0000000040146b9c                uhci_submit_bulk
                0x0000000040146c04                uhci_check_urb_advance
                0x0000000040146c3f                uhci_check_advance
                0x0000000040146e45                init_hframelist
                0x0000000040147121                ehci_conceal_portroute
                0x0000000040147169                ehci_init
                0x0000000040148f27                ehci_dump_qtd
                0x0000000040148f9a                ehci_dump_qtdm
                0x0000000040148fcf                ehci_dump_alist
                0x0000000040149092                ehci_dump_urblist
                0x0000000040149128                ehci_dump_urb
                0x00000000401495e5                ehci_dump_async
                0x0000000040149a66                ehci_dump_all
                0x000000004014afe3                ehci_shadow_buffer
                0x000000004014b29f                get_gurb_by_address
                0x000000004014b335                shadow_and_activate_urb
                0x000000004014b619                ehci_deactivate_urb
                0x000000004014b7b3                deactivate_and_delete_urb
                0x000000004014ba1c                ehci_check_urb_advance
                0x000000004014bbe6                ehci_check_advance
                0x000000004014be34                ehci_shadow_async_list
                0x000000004014bf4e                ehci_cleanup_urbs
                0x000000004014c0bb                ehci_end_monitor_async
                0x000000004014c124                ehci_monitor_async_list
                0x000000004014c7e3                ehci_submit_control
                0x000000004014cd73                ehci_submit_bulk
                0x000000004014cd7e                ehci_submit_interrupt
                0x000000004014e923                usbmsc_init_handle
                0x000000004014ecfe                usbhub_init_handle
                0x000000004014ed77                hub_portdevice_register
                0x000000004014f440                usbccid_init_handle
                0x000000004014f560                usb_set_debug
                0x000000004014f56c                usb_init
                0x000000004014f572                usb_find_busses
                0x000000004014f653                usb_get_busses
                0x000000004014f660                usb_get_bus
                0x000000004014f68f                usb_find_devices
                0x000000004014f6df                usb_open
                0x000000004014f749                usb_close
                0x000000004014f759                usb_resetep
                0x000000004014f764                usb_clear_halt
                0x000000004014f76f                usb_reset
                0x000000004014f77a                usb_claim_interface
                0x000000004014f788                usb_release_interface
                0x000000004014f79a                usb_set_configuration
                0x000000004014fa45                usb_set_altinterface
                0x000000004014fcf2                usb_control_msg
                0x0000000040150041                usb_get_string
                0x000000004015037c                usb_get_string_simple
                0x000000004015057c                usb_get_descriptor
                0x00000000401508bd                usb_get_descriptor_early
                0x0000000040150c06                usb_get_descriptor_by_endpoint
                0x0000000040150f4c                usb_bulk_write
                0x0000000040151180                usb_interrupt_write
                0x00000000401513b2                usb_bulk_read
                0x000000004015166e                usb_interrupt_read
                0x000000004015192d                usb_register_host
                0x0000000040151a48                usb_unregister_devices
                0x0000000040151a7a                usb_sc_lock
                0x0000000040151af2                usb_sc_unlock
                0x0000000040152208                free_config_descriptors
                0x0000000040152359                free_device
                0x00000000401524c5                handle_connect_status
                0x00000000401525c0                handle_port_reset
                0x00000000401526a1                dprintf_port
                0x0000000040153649                usb_init_device_monitor
                0x00000000401536b3                usb_new_dev_handle
                0x0000000040153764                usbhid_init_handle
                0x000000004015389a                usb_hook_process
                0x0000000040153b9a                usb_hook_register
                0x0000000040153c74                usb_hook_unregister
                0x0000000040153cf8                _dprintf
                0x0000000040153d45                _dprintft
                0x0000000040153df8                pro100_io_handler
                0x0000000040153e03                pro100_config_read
                0x0000000040153e18                pro100_config_write
                0x0000000040153f42                pro100_init
                0x0000000040153f5c                pro100_init_vpn_client
                0x0000000040153f9b                pro100_sleep
                0x0000000040153fcb                pro100_beep
                0x0000000040153ff5                pro100_get_ctx
                0x0000000040154098                pro100_alloc_page
                0x00000000401540d2                pro100_free_page
                0x00000000401540f7                pro100_get_op_size
                0x000000004015413a                pro100_mem_read
                0x00000000401541b0                pro100_read_send_packet
                0x00000000401543c2                pro100_mem_write
                0x0000000040154436                pro100_write
                0x00000000401544a9                pro100_read
                0x0000000040154528                pro100_wait_cu_ru_accepable
                0x0000000040154563                pro100_init_cu_base_addr
                0x00000000401545c3                pro100_init_ru_base_addr
                0x0000000040154623                pro100_flush
                0x000000004015463e                pro100_exec_cu_op
                0x0000000040154782                pro100_send_packet_to_line
                0x00000000401548bf                pro100_generate_int
                0x00000000401548ef                pro100_write_recv_packet
                0x0000000040154a6b                pro100_proc_guest_op
                0x0000000040154c76                pro100_get_int_bit_string
                0x0000000040154cec                pro100_get_stat_ack_string
                0x0000000040154d57                pro100_get_cu_command_string
                0x0000000040154dd9                pro100_get_ru_command_string
                0x0000000040154e23                pro100_init_recv_buffer
                0x0000000040154f5a                pro100_poll_ru
                0x0000000040155055                pro100_hook_write
                0x000000004015531b                pro100_hook_read
                0x00000000401554d2                pro100_mm_handler
                0x0000000040155626                pro100_alloc_recv_buffer
                0x0000000040155693                pro100_new
                0x00000000401578e3                storage_premap_buf
                0x00000000401578ee                storage_premap_handle_sectors
                0x0000000040157c22                storage_get_num_hc
                0x0000000040157c54                storage_hc_open
                0x0000000040157d48                storage_hc_close
                0x0000000040157d92                storage_hc_hook_register
                0x0000000040157e09                storage_hc_hook_unregister
                0x0000000040157ea3                storage_hc_register
                0x0000000040158081                storage_hc_unregister
                0x000000004015818a                storage_hc_scandev
                0x00000000401581d1                storage_hc_dev_open
                0x000000004015830e                storage_hc_dev_atacommand
                0x00000000401584e5                storage_hc_dev_close
                0x00000000401585ad                storage_io_init
                0x00000000401585c2                storage_io_deinit
                0x00000000401585cd                storage_io_get_num_devices
                0x000000004015868b                storage_io_aget_size
                0x00000000401587fd                storage_io_aread
                0x0000000040158a3e                storage_io_awrite
                0x00000000401591db                storage_handle_sectors
                0x00000000401593ed                storage_new
                0x000000004015983a                storage_free
                0x0000000040159845                storage_init
                0x0000000040159a69                aes_xts_init
                0x0000000040159aa0                crypto_find
                0x0000000040159af7                crypto_register
                0x0000000040159b47                crypto_init
                0x0000000040159b95                crypto_none_init
                0x0000000040159bca                vpn_GetCurrentCpuId
                0x0000000040159bd5                vpn_GetTickCount
                0x0000000040159c05                vpn_NewTimer
                0x0000000040159c1f                vpn_SetTimer
                0x0000000040159c33                vpn_FreeTimer
                0x0000000040159c3e                vpn_GetPhysicalNicInfo
                0x0000000040159c4d                vpn_SendPhysicalNic
                0x0000000040159c5c                vpn_SetPhysicalNicRecvCallback
                0x0000000040159c6b                vpn_GetVirtualNicInfo
                0x0000000040159c7b                vpn_SendVirtualNic
                0x0000000040159c8b                vpn_SetVirtualNicRecvCallback
                0x0000000040159c9b                vpn_premap_PhysicalNicRecv
                0x0000000040159cb4                vpn_premap_VirtualNicRecv
                0x0000000040159ccd                vpn_premap_recvbuf
                0x0000000040159cd8                vpn_ic_rsa_sign
                0x0000000040159d71                vpn_new_nic
                0x000000004015a389                msg_vpn_GetCurrentCpuId
                0x000000004015a3a3                msg_vpn_ic_rsa_sign
                0x000000004015a44f                msg_vpn_GetTickCount
                0x000000004015a48d                msg_vpn_GetPhysicalNicInfo
                0x000000004015a4f1                msg_vpn_SendPhysicalNic
                0x000000004015a5a6                msg_vpn_SetPhysicalNicRecvCallback
                0x000000004015a5f2                msg_vpn_GetVirtualNicInfo
                0x000000004015a656                msg_vpn_SendVirtualNic
                0x000000004015a70b                msg_vpn_SetVirtualNicRecvCallback
                0x000000004015a757                msg_vpn_NewTimer
                0x000000004015a7b9                msg_vpn_SetTimer
                0x000000004015a88e                msg_vpn_FreeTimer
                0x000000004015a8f7                vpn_start
                0x000000004015ac70                vpn_user_init
                0x000000004015acd0                SeFreeConfigEntryList
                0x000000004015ad2d                SeGetConfigEntry
                0x000000004015ad9e                SeGetConfigStr
                0x000000004015adc9                SeGetConfigBin
                0x000000004015adf1                SeGetConfigInt64
                0x000000004015ae16                SeGetConfigInt
                0x000000004015ae41                SeGetConfigBool
                0x000000004015aef0                SeIsSplitChar
                0x000000004015af6b                SeGetKeyAndValue
                0x000000004015b101                SeLoadConfigEntryListFromBuf
                0x000000004015b279                SeLoadConfigEntryList
                0x000000004015b2b0                SePKeyPasswordCallbackFunction
                0x000000004015b2e2                SeDhFree
                0x000000004015b31c                SeRsaVerifyWithPadding
                0x000000004015b3ee                SeRsaSignWithPadding
                0x000000004015b4a8                SeRsaPublicDecrypt
                0x000000004015b53f                SeRsaPrivateEncrypt
                0x000000004015b5d6                SeRsaPrivateDecrypt
                0x000000004015b665                SeRsaPublicEncrypt
                0x000000004015b6f4                SeGetCertSha1
                0x000000004015b736                SeGetCertMd5
                0x000000004015b778                SeBinToBigNum
                0x000000004015b7bb                SeDhCompute
                0x000000004015b841                SeBufToBigNum
                0x000000004015b861                SeBigNumToBuf
                0x000000004015b8ea                SeDhNew
                0x000000004015b9a7                SeDhNewGroup2
                0x000000004015b9bc                SeRsaPublicToBuf
                0x000000004015ba01                SeRsaPublicToBin
                0x000000004015ba58                SeRsaPublicSize
                0x000000004015babd                SeCheckSignature
                0x000000004015bae8                SeGetKeyFromCert
                0x000000004015bb27                SeCompareCert
                0x000000004015bb52                SeCheckCertAndKey
                0x000000004015bb7d                SeIsBase64
                0x000000004015bc04                SeFreePKey
                0x000000004015bc15                SeFreeKey
                0x000000004015bc3d                SeCheckCert
                0x000000004015bc89                SeIsCertSignedByCert
                0x000000004015bce8                SeBioToKey
                0x000000004015bde9                SeGetCertIssuerName
                0x000000004015be79                SeGetCertSubjectName
                0x000000004015bf09                SeFreeX509
                0x000000004015bf1a                SeFreeCert
                0x000000004015bf48                SeFreeBio
                0x000000004015bf59                SeNewBio
                0x000000004015bf6c                SeRsaGen
                0x000000004015c0c5                SeKeyToBio
                0x000000004015c1c0                SeCertToBio
                0x000000004015c21a                SeBioToBuf
                0x000000004015c2aa                SeBigNumToStr
                0x000000004015c317                SeKeyToBuf
                0x000000004015c36a                SeX509ToCert
                0x000000004015c413                SeBioToCert
                0x000000004015c45c                SeSaveKey
                0x000000004015c4b1                SeCertToBuf
                0x000000004015c504                SeSaveCert
                0x000000004015c555                SeBufToBio
                0x000000004015c5b2                SeBufToCert
                0x000000004015c5f9                SeCloneCert
                0x000000004015c644                SeLoadCert
                0x000000004015c685                SeBufToKey
                0x000000004015c6d6                SeCloneKey
                0x000000004015c732                SeLoadKey
                0x000000004015c7d3                SeSha1
                0x000000004015c7f4                SeMacSha1
                0x000000004015c95c                SeMacSha196
                0x000000004015c9a3                SeHashForSignBySHA1
                0x000000004015ca43                SeRsaVerifyWithSha1
                0x000000004015caee                SeRsaSignWithSha1
                0x000000004015cb84                SeMd5
                0x000000004015cba5                SeDes3Encrypt
                0x000000004015cc2e                SeDes3Decrypt
                0x000000004015ccb7                SeDesNewKeyValue
                0x000000004015cd0c                SeDes3NewKey
                0x000000004015cd79                SeDesNewKey
                0x000000004015cd8a                SeDesRandKeyValue
                0x000000004015cda6                SeDes3RandKey
                0x000000004015cdef                SeDesRandKey
                0x000000004015ce39                SeDesFreeKeyValue
                0x000000004015ce61                SeDes3FreeKey
                0x000000004015ce9b                SeDesFreeKey
                0x000000004015cea6                SeRand
                0x000000004015cebb                SeRand64
                0x000000004015ced7                SeRand32
                0x000000004015cef2                SeRand16
                0x000000004015cf0e                SeRand8
                0x000000004015cf2a                SeRand1
                0x000000004015cf3d                SeInitCrypto
                0x000000004015cf7c                SeFreeCrypto
                0x000000004015cf90                SeIkeStrToPassword
                0x000000004015cfe9                SeIkePhase1CryptIdToKeySize
                0x000000004015d008                SeIkePhase2CryptIdToKeySize
                0x000000004015d027                SeIkeStrToPhase1CryptId
                0x000000004015d08d                SeIkeStrToPhase1HashId
                0x000000004015d0cc                SeIkeStrToPhase2CryptId
                0x000000004015d137                SeIkeStrToPhase2HashId
                0x000000004015d176                SeIkeIsZeroIP
                0x000000004015d1a7                SeIkeInitIPv6Address
                0x000000004015d1e4                SeIkeInitIPv4Address
                0x000000004015d217                SeIkeGetIPv6Address
                0x000000004015d236                SeIkeGetIPv4Address
                0x000000004015d251                SeIkeIpAddressToStr
                0x000000004015d29b                SeIkeBuildDataPayload
                0x000000004015d2d7                SeIkeBuildTransformValue
                0x000000004015d395                SeIkeBuildTransformValueList
                0x000000004015d3fd                SeIkeBuildTransformPayload
                0x000000004015d47b                SeIkeBuildIdPayload
                0x000000004015d4f3                SeIkeBuildCertPayload
                0x000000004015d557                SeIkeBuildCertRequestPayload
                0x000000004015d5bb                SeIkeBuildNoticePayload
                0x000000004015d649                SeIkeBuildDeletePayload
                0x000000004015d721                SeIkeGetFirstPayloadType
                0x000000004015d747                SeIkeBuildPayloadList
                0x000000004015d853                SeIkeBuildSaPayload
                0x000000004015d8de                SeIkeBuildProposalPayload
                0x000000004015d98c                SeIkeBuildPayload
                0x000000004015da69                SeIkeGetPayload
                0x000000004015dab7                SeIkeGetPayloadNum
                0x000000004015dafa                SeIkeNewPayload
                0x000000004015db18                SeIkeNewDeletePayload
                0x000000004015db48                SeIkeNewNoticePayload
                0x000000004015dbd3                SeIkeNewCertRequestPayload
                0x000000004015dc21                SeIkeNewCertPayload
                0x000000004015dc6f                SeIkeNewIdPayload
                0x000000004015dcdc                SeIkeNewTransformPayload
                0x000000004015dd1f                SeIkeNewProposalPayload
                0x000000004015dd96                SeIkeNewSaPayload
                0x000000004015ddc3                SeIkeNewDataPayload
                0x000000004015de0c                SeIkeNewTransformValue
                0x000000004015de2d                SeIkeFreeTransformValueList
                0x000000004015de69                SeIkeParseTransformValueList
                0x000000004015dfe0                SeIkeParseTransformPayload
                0x000000004015e046                SeIkeFreeTransformPayload
                0x000000004015e074                SeIkeParseIdPayload
                0x000000004015e0eb                SeIkeFreeIdPayload
                0x000000004015e119                SeIkeParseCertPayload
                0x000000004015e17c                SeIkeFreeCertPayload
                0x000000004015e1aa                SeIkeParseCertRequestPayload
                0x000000004015e20d                SeIkeFreeCertRequestPayload
                0x000000004015e23b                SeIkeParseNoticePayload
                0x000000004015e2f9                SeIkeFreeNoticePayload
                0x000000004015e33d                SeIkeFreeDeletePayload
                0x000000004015e38f                SeIkeParseDeletePayload
                0x000000004015e488                SeIkeParseDataPayload
                0x000000004015e4c2                SeIkeFreeDataPayload
                0x000000004015e4d6                SeIkeFreePayloadList
                0x000000004015e512                SeIkeFreeSaPayload
                0x000000004015e53e                SeIkeFreeProposalPayload
                0x000000004015e582                SeIkeFreePayload
                0x000000004015e628                SeIkeParsePayloadListEx
                0x000000004015e7ae                SeIkeParsePayloadList
                0x000000004015e7c1                SeIkeParseSaPayload
                0x000000004015e884                SeIkeParseProposalPayload
                0x000000004015e91d                SeIkeParsePayload
                0x000000004015ea15                SeIkeEncrypt
                0x000000004015eab0                SeIkeEncryptWithPadding
                0x000000004015eb61                SeIkeBuild
                0x000000004015ecb6                SeIkeDecrypt
                0x000000004015ed51                SeIkeFree
                0x000000004015ed8d                SeIkeParseEx
                0x000000004015ef6e                SeIkeParseHeader
                0x000000004015ef7e                SeIkeParse
                0x000000004015ef8e                SeIkeNew
                0x000000004015f000                VPN_IPsec_Client_Start
                0x000000004015f028                VPN_IPsec_Client_Stop
                0x000000004015f039                SeIntInit
                0x000000004015f05c                SeIntFree
                0x000000004015f076                VPN_IPsec_Init
                0x000000004015f0c4                VPN_IPsec_Free
                0x000000004015f0f7                SeSysMemoryAlloc
                0x000000004015f113                SeSysMemoryReAlloc
                0x000000004015f141                SeSysMemoryFree
                0x000000004015f15a                SeSysGetCurrentCpuId
                0x000000004015f172                SeSysNewLock
                0x000000004015f18a                SeSysLock
                0x000000004015f1a3                SeSysUnlock
                0x000000004015f1bc                SeSysFreeLock
                0x000000004015f1d5                SeSysGetTickCount
                0x000000004015f1ed                SeSysNewTimer
                0x000000004015f212                SeSysSetTimer
                0x000000004015f22b                SeSysFreeTimer
                0x000000004015f244                SeSysGetPhysicalNicInfo
                0x000000004015f262                SeSysSendPhysicalNic
                0x000000004015f288                SeSysSetPhysicalNicRecvCallback
                0x000000004015f2ab                SeSysGetVirtualNicInfo
                0x000000004015f2c9                SeSysSendVirtualNic
                0x000000004015f2f2                SeSysSetVirtualNicRecvCallback
                0x000000004015f318                SeSysSaveData
                0x000000004015f341                SeSysLoadData
                0x000000004015f369                SeSysFreeData
                0x000000004015f385                SeSysRsaSign
                0x000000004015f3bd                SeSysLog
                0x000000004015f3eb                SeRsaSign
                0x000000004015f480                Se4ParseIpPacketUDPv4
                0x000000004015f562                Se4FreeIpHeaderInfo
                0x000000004015f596                Se4IpChecksum
                0x000000004015f60a                Se4AdjustTcpMss
                0x000000004015f79f                Se4BuildIcmpEchoPacket
                0x000000004015f847                Se4ParseIpPacketICMPv4
                0x000000004015f969                Se4IpCheckChecksum
                0x000000004015f9aa                Se4Tick
                0x000000004015f9c3                Se4BroadcastMacAddress
                0x000000004015f9ce                Se4SendEthPacket
                0x000000004015fa87                Se4SendIpFragmentNow
                0x000000004015fab0                Se4InitArpEntryList
                0x000000004015fac0                Se4FreeArpEntryList
                0x000000004015fafc                Se4FlushArpEntryList
                0x000000004015fba9                Se4SearchArpEntryList
                0x000000004015fc2f                Se4AddArpEntryList
                0x000000004015fcff                Se4SearchArpWaitList
                0x000000004015fd43                Se4InitArpWaitList
                0x000000004015fd53                Se4FreeArpWaitList
                0x000000004015fd8f                Se4InsertIpWait
                0x000000004015fdff                Se4InitIpWaitList
                0x000000004015fe0f                Se4FreeIpWait
                0x000000004015fe38                Se4FlushIpWaitList
                0x000000004015fef6                Se4FreeIpWaitList
                0x000000004015ff32                Se4InitIpCombineList
                0x000000004015ff42                Se4SearchIpCombineList
                0x000000004015ffa8                Se4InitIpFragmentList
                0x000000004015ffb8                Se4InsertIpCombine
                0x00000000401600a7                Se4FreeIpFragmentList
                0x00000000401600e3                Se4FreeIpCombine
                0x000000004016011b                Se4FreeIpCombineList
                0x0000000040160169                Se4FlushIpCombineList
                0x000000004016024e                Se4Free
                0x0000000040160292                Se4And
                0x00000000401602c1                Se4GetNetworkAddress
                0x00000000401602cc                Se4Or
                0x00000000401602fb                Se4Not
                0x0000000040160325                Se4GetHostAddress
                0x000000004016033f                Se4GetBroadcastAddress
                0x0000000040160372                Se4GenerateSubnetMask32
                0x0000000040160391                Se4IPToStr
                0x00000000401603d3                Se4ZeroIP
                0x00000000401603ee                Se4StrToIP
                0x000000004016048f                Se4IPToUINT
                0x00000000401604b1                Se4SendArpDoProcess
                0x00000000401605b2                Se4SendArpRequest
                0x000000004016061d                Se4ProcessArpWaitList
                0x00000000401606cd                Se4MainProc
                0x00000000401606fe                Se4SendArpResponse
                0x00000000401607d7                Se4IsBroadcastAddress
                0x00000000401607eb                Se4Cmp
                0x0000000040160816                Se4CmpArpEntry
                0x000000004016084d                Se4CmpArpWaitEntry
                0x0000000040160884                Se4SendWaitingIpWait
                0x0000000040160965                Se4CmpIpCombineList
                0x00000000401609e2                Se4IsInSameNetwork
                0x0000000040160a27                Se4MacIpRelationKnown
                0x0000000040160abd                Se4ParseIpPacket
                0x0000000040160c00                Se4IsZeroIP
                0x0000000040160c13                Se4Init
                0x0000000040160d19                Se4CheckUnicastAddress
                0x0000000040160d5c                Se4StrToIP32
                0x0000000040160d6e                Se4UINTToIP
                0x0000000040160d90                Se4SendRawIp
                0x0000000040160ee0                Se4SendIpFragment
                0x0000000040160ffe                Se4SendIp
                0x00000000401610ec                Se4SendIcmpEchoRequest
                0x0000000040161174                Se4SendIcmpEchoResponse
                0x00000000401611fc                Se4RecvIpComplete
                0x00000000401612b9                Se4CombineIp
                0x00000000401614b5                Se4SendIcmp
                0x000000004016155e                Se4SendUdp
                0x000000004016167b                Se4RecvIp
                0x0000000040161910                Se4RecvArpRequest
                0x0000000040161a24                Se4RecvArpResponse
                0x0000000040161a5b                Se4RecvArp
                0x0000000040161b0e                Se4RecvEthPacket
                0x0000000040161b8a                Se4GenerateSubnetMask
                0x0000000040161b9c                Se4IsSubnetMask
                0x0000000040161bdb                Se4IPToStr32
                0x0000000040161c00                Se6CmpIpCombineList
                0x0000000040161cc9                Se6CmpNdpWaitEntry
                0x0000000040161d2b                Se6CmpNeighborEntry
                0x0000000040161d8d                Se6IsGuestNode
                0x0000000040161e6c                Se6FreeIpHeaderInfo
                0x0000000040161ea0                Se6IpChecksum
                0x0000000040161f14                Se6CalcChecksum
                0x0000000040161fb9                Se6BuildIcmpEchoPacket
                0x000000004016208f                Se6ParseIpPacketUDPv6
                0x00000000401621c3                Se6ParseIpPacketICMPv6
                0x00000000401623ea                Se6BroadcastMacAddress
                0x00000000401623f5                Se6SendEthPacket
                0x00000000401624ae                Se6SendIpFragmentNow
                0x00000000401624d8                Se6InitNeighborEntryList
                0x00000000401624e8                Se6FreeNeighborEntryList
                0x0000000040162524                Se6FlushNeighborEntryList
                0x00000000401625d1                Se6SearchNeighborEntryList
                0x0000000040162628                Se6AddNeighborEntryList
                0x00000000401626fa                Se6SearchNdpWaitList
                0x0000000040162749                Se6InitNdpWaitList
                0x0000000040162759                Se6FreeNdpWaitList
                0x0000000040162795                Se6InsertIpWait
                0x0000000040162816                Se6InitIpWaitList
                0x0000000040162826                Se6FreeIpWait
                0x000000004016284f                Se6SendWaitingIpWait
                0x000000004016295e                Se6FreeIpWaitList
                0x000000004016299a                Se6InitIpCombineList
                0x00000000401629aa                Se6SearchIpCombineList
                0x0000000040162a3e                Se6InitIpFragmentList
                0x0000000040162a4e                Se6FreeIpFragmentList
                0x0000000040162a8a                Se6FreeIpCombine
                0x0000000040162ac5                Se6FreeIpCombineList
                0x0000000040162b13                Se6Free
                0x0000000040162b63                Se6Tick
                0x0000000040162b7c                Se6FlushIpWaitList
                0x0000000040162c40                Se6FlushIpCombineList
                0x0000000040162d28                Se6InsertIpCombine
                0x0000000040162e4b                Se6GenerateEui64Address
                0x0000000040162e9e                Se6GenerateMulticastMacAddress
                0x0000000040162ed5                Se6GetAllNodeMulticastAddr
                0x0000000040162f01                Se6GetAllRouterMulticastAddr
                0x0000000040162f2d                Se6GetIPAddrType
                0x0000000040163077                Se6CheckUnicastAddress
                0x00000000401630c2                Se6And
                0x0000000040163100                Se6GetPrefixAddress
                0x000000004016310b                Se6IsInSameNetwork
                0x000000004016318f                Se6ParseIpPacket
                0x000000004016335a                Se6Or
                0x0000000040163398                Se6Not
                0x00000000401633cc                Se6GetHostAddress
                0x00000000401633fa                Se6IsNetworkPrefixAddress
                0x0000000040163427                Se6GenerateSubnetMask
                0x000000004016348e                Se6LocalSubnet
                0x000000004016349e                Se6MacIpRelationKnown
                0x00000000401635a2                Se6AddGuestNode
                0x000000004016365e                Se6GetSoliciationMulticastAddr
                0x00000000401636f2                Se6SendIcmpNeighborSoliciation
                0x0000000040163832                Se6SendNeighborSoliciationDoProcess
                0x00000000401638c2                Se6ProcessNdpWaitList
                0x0000000040163978                Se6SendNeighborSoliciation
                0x00000000401639ec                Se6SendRawIp
                0x0000000040163b70                Se6SendIpFragment
                0x0000000040163b89                Se6SendIp
                0x0000000040163ce8                Se6SendIcmpEchoRequest
                0x0000000040163db1                Se6SendIcmpEchoResponse
                0x0000000040163e7a                Se6SendIcmp
                0x0000000040163f62                Se6SendIcmpNeighborAdvertisement
                0x000000004016409b                Se6SendUdp
                0x00000000401641aa                Se6SubnetMaskToInt
                0x0000000040164210                Se6SendIcmpRouterAdvertisement
                0x00000000401643c9                Se6MainProc
                0x0000000040164423                Se6RecvIpComplete
                0x0000000040164747                Se6CombineIp
                0x000000004016495f                Se6RecvIp
                0x0000000040164b7c                Se6RecvEthPacket
                0x0000000040164be0                Se6IsSubnetMask
                0x0000000040164c49                Se6Cmp
                0x0000000040164c75                Se6IsZeroIP
                0x0000000040164c95                Se6IPToStr
                0x0000000040164dec                Se6IPItemStrToChars
                0x0000000040164ee0                Se6CheckIPItemStr
                0x0000000040164f4e                Se6ZeroIP
                0x0000000040164f6e                Se6GenerateEui64GlobalAddress
                0x0000000040165020                Se6GenerateEui64LocalAddress
                0x000000004016507b                Se6Init
                0x00000000401651e4                Se6StrToIP
                0x0000000040165372                Se6CheckSubnetLength
                0x0000000040165390                SeTimerEntryCompare
                0x00000000401653d0                SeEthGetInfo
                0x00000000401653f5                SeEthSendAdd
                0x0000000040165428                SeEthParseEthernetPacket
                0x0000000040165531                SeEthGenRandMacAddress
                0x0000000040165583                SeLoad
                0x00000000401655ef                SeSave
                0x0000000040165611                SeTick
                0x0000000040165621                SeGetCurrentCpuId
                0x0000000040165631                SeNewLock
                0x000000004016566c                SeTimerNew
                0x00000000401656da                SeEthNew
                0x00000000401657e1                SeLock
                0x000000004016581d                SeUnlock
                0x0000000040165845                SeEthGetNextRecvPacket
                0x0000000040165881                SeTick64Internal
                0x00000000401658d6                SeInitKernel
                0x0000000040165910                SeTick64
                0x000000004016592f                SeTimerAdjust
                0x00000000401659a3                SeTimerCallback
                0x0000000040165aae                SeTimerSet
                0x0000000040165b34                SeEthDeleteOldSenderMacList
                0x0000000040165c04                SeEthAddSenderMacList
                0x0000000040165ceb                SeEthSend
                0x0000000040165d7e                SeEthSendAll
                0x0000000040165e54                SeEthIsSenderMacAddressExistsInList
                0x0000000040165efa                SeEthNicCallback
                0x0000000040165ff6                SeDeleteLock
                0x000000004016601e                SeFreeKernel
                0x0000000040166034                SeTimerFree
                0x000000004016608e                SeEthFree
                0x0000000040166135                SeLogArgs
                0x0000000040166165                SeDebug
                0x00000000401661ab                SeDebugBin
                0x0000000040166203                SeFatal
                0x0000000040166249                SeInfo
                0x000000004016628f                SeError
                0x00000000401662d5                SeWarning
                0x000000004016631b                SeLog
                0x0000000040166360                SeB64CodeToChar
                0x00000000401663a6                SeB64CharToCode
                0x00000000401663ea                SeIsZero
                0x000000004016643a                SeReplaceListPointer
                0x000000004016649b                SeIsInListStr
                0x000000004016650b                SeIsInList
                0x0000000040166556                SeCompareStr
                0x0000000040166579                SeSetSortFlag
                0x0000000040166587                SeSetCmp
                0x00000000401665a8                SeFastSwap
                0x00000000401665da                SeQSort
                0x00000000401669ba                SeSort
                0x00000000401669f2                SeBSearch
                0x0000000040166ac9                SeSearch
                0x0000000040166b31                SeFifoSize
                0x0000000040166b46                SeDumpBuf
                0x0000000040166b71                SeSeekBuf
                0x0000000040166ba5                SeClearBuf
                0x0000000040166bbe                SeEndian16
                0x0000000040166be3                SeSwap16
                0x0000000040166bfe                SeSwap32
                0x0000000040166c28                SeEndian32
                0x0000000040166c3f                SeSwap64
                0x0000000040166c96                SeEndian64
                0x0000000040166cae                SeMalloc
                0x0000000040166cf0                SeNewFifo
                0x0000000040166d32                SeNewBuf
                0x0000000040166d74                SeReAlloc
                0x0000000040166de9                SePush
                0x0000000040166e42                SePop
                0x0000000040166e9f                SeDeleteAll
                0x0000000040166ed6                SeDelete
                0x0000000040166f9a                SeAdd
                0x0000000040166ffa                SeInsert
                0x000000004016713c                SeInsertStr
                0x0000000040167181                SeClearFifo
                0x00000000401671be                SeAdjustBufSize
                0x00000000401671f3                SeMemSize
                0x0000000040167227                SeFree
                0x0000000040167256                SeFreeStack
                0x000000004016727f                SeFreeList
                0x00000000401672a8                SeFreeFifo
                0x00000000401672d0                SeFreeQueue
                0x00000000401672f9                SeFreeBufWithoutBuffer
                0x000000004016730a                SeFreeBuf
                0x0000000040167332                SeIsLittleEndian
                0x0000000040167345                SeIsBigEndian
                0x0000000040167358                SeCmp
                0x00000000401673c8                SeCmpBuf
                0x0000000040167409                SeCmpEx
                0x0000000040167440                SeCopy
                0x0000000040167468                SeCopyToArray
                0x0000000040167491                SeToArray
                0x00000000401674cb                SeWriteFifo
                0x000000004016754e                SeInsertQueue
                0x0000000040167584                SeReadFifo
                0x000000004016766a                SeGetNext
                0x00000000401676b4                SeGetNextInt
                0x00000000401676eb                SePeekFifo
                0x0000000040167731                SePeekNext
                0x000000004016776f                SeWriteBuf
                0x00000000401677d0                SeReadDump
                0x0000000040167836                SeAddBufStr
                0x0000000040167867                SeWriteBufInt64
                0x00000000401678aa                SeWriteBufInt
                0x00000000401678ea                SeWriteBufStr
                0x000000004016794d                SeWriteBufBuf
                0x0000000040167969                SeWriteBufLine
                0x00000000401679b3                SeMemToBuf
                0x0000000040167a0e                SeCloneBuf
                0x0000000040167a31                SeRandBuf
                0x0000000040167a6c                SeSwap
                0x0000000040167ac8                SeClone
                0x0000000040167b0d                SeInsertQueueInt
                0x0000000040167b41                SeZero
                0x0000000040167b65                SeReadBuf
                0x0000000040167bf7                SeReadBufInt64
                0x0000000040167c33                SeReadBufInt
                0x0000000040167c6b                SeReadBufStr
                0x0000000040167d25                SeReadBufFromBuf
                0x0000000040167dad                SeReadRemainBuf
                0x0000000040167dd7                SeZeroMalloc
                0x0000000040167e01                SeB64Encode
                0x0000000040167fe2                SeB64Decode
                0x00000000401681c0                SeNewStack
                0x00000000401681fb                SeNewQueue
                0x000000004016822f                SeNewList
                0x0000000040168274                SeCloneList
                0x00000000401682d0                SeBuildICMPv6OptionValue
                0x000000004016834b                SeBuildICMPv6Options
                0x00000000401683f7                SeParseICMPv6Options
                0x00000000401684d7                SeFreePacketList
                0x0000000040168513                SeFreePacketListWithoutBuffer
                0x000000004016854f                SeGetNextHeaderFromQueue
                0x000000004016857b                SeBuildAndAddIPv6PacketOptionHeader
                0x0000000040168607                SeBuildIPv6Packet
                0x00000000401687db                SeBuildIPv6PacketWithFragment
                0x00000000401689a4                SeParseIPv6ExtHeader
                0x0000000040168a93                SeParseIPv6Packet
                0x0000000040168b01                SeParsePacketL3IPv6
                0x0000000040168b42                SeParsePacketL3IPv4
                0x0000000040168bf1                SeParsePacketL3ARPv4
                0x0000000040168c1b                SeParsePacketL2
                0x0000000040168cb3                SeFreePacket
                0x0000000040168cc4                SeParsePacket
                0x0000000040168d50                SeSecCmpIkeSa
                0x0000000040168e2f                SeSecCalcP2Iv
                0x0000000040168ecf                SeSecCalcP1Iv
                0x0000000040168f6b                SeSecCalcKEYMATFull
                0x0000000040169071                SeSecCalcKEYMAT
                0x0000000040169125                SeSecCalcKa
                0x00000000401691f6                SeSecCalcP1KeySet
                0x00000000401693fe                SeSecForceReconnect
                0x0000000040169437                SeSecLifeSeconds64bit
                0x0000000040169457                SeSecGetIPsecSa
                0x00000000401694a3                SeSecNewIkeSa
                0x0000000040169544                SeSecFreeP1KeySet
                0x0000000040169592                SeSecGenIkeSaMessageId
                0x0000000040169603                SeSecGenIkeSaInitCookie
                0x0000000040169674                SeSecInitSaList
                0x00000000401696ae                SeSecSearchIPsecSaBySpi
                0x000000004016973c                SeSecSearchIkeSaBySpi
                0x0000000040169806                SeSecSearchIkeSa
                0x00000000401698c9                SeSecNewSpi
                0x00000000401698e0                SeSecGenIPsecSASpi
                0x0000000040169951                SeSecStrToAuthMethod
                0x00000000401699bc                SeSecTick
                0x00000000401699d7                SeSecCheckIkeSaExpires
                0x0000000040169a8c                SeSecCheckIPsecSaExpires
                0x0000000040169b45                SeSecSetTimerCallback
                0x0000000040169b66                SeSecAddTimer
                0x0000000040169b87                SeSecNewIPsecSa
                0x0000000040169ce4                SeSecDoInterval
                0x0000000040169d4b                SeSecSetRecvUdpCallback
                0x0000000040169d6c                SeSecSetRecvEspCallback
                0x0000000040169d8d                SeSecSetRecvVirtualIpCallback
                0x0000000040169dae                SeSecSendUdp
                0x0000000040169df5                SeSecSendIkeSaMsgInfo
                0x000000004016a057                SeSecSendIkeSaMsgInfoSimple
                0x000000004016a0a9                SeSecSendIkeSaDeleteMsg
                0x000000004016a13c                SeSecSendIPsecSaDeleteMsg
                0x000000004016a1a9                SeSecFreeIPsecSa
                0x000000004016a21b                SeSecProcessIkeSaMsgInfo
                0x000000004016a534                SeSecDeleteExpiredIPsecSa
                0x000000004016a5da                SeSecFreeIkeSa
                0x000000004016a7a0                SeSecDeleteExpiredIkeSa
                0x000000004016a908                SeSecFreeSaList
                0x000000004016a987                SeSecFreeMain
                0x000000004016a998                SeSecFree
                0x000000004016a9c7                SeSecSendIkeSaMsgPhase2FinalHash
                0x000000004016ab58                SeSecProcessIkeSaMsgPhase2
                0x000000004016aff5                SeSecSendIkeSaMsgPhase2
                0x000000004016b51a                SeSecProcessIkeSaMsgPhase1
                0x000000004016bda2                SeSecProcessIkeSaMsg
                0x000000004016bdf9                SeSecUdpRecvCallback
                0x000000004016c04b                SeSecStartVpnConnect
                0x000000004016c67a                SeSecProcessMain
                0x000000004016c76d                SeSecInitMain
                0x000000004016c792                SeSecInit
                0x000000004016c8b6                SeSecTimerCallback
                0x000000004016c8ca                SeSecSendEsp
                0x000000004016c903                SeSecVirtualIpRecvCallback
                0x000000004016cb07                SeSecSendVirtualIp
                0x000000004016cb2f                SeSecEspRecvCallback
                0x000000004016ccd0                SeMakeCharArray
                0x000000004016cd04                SeFreeToken
                0x000000004016cd52                SeNullTokenList
                0x000000004016cd86                SeDefaultTokenSplitChars
                0x000000004016cd91                Se4BitToHex
                0x000000004016cda6                SeHexTo4Bit
                0x000000004016cde0                SeStrCmp
                0x000000004016ce8d                SeStrnCmp
                0x000000004016cf5a                SeToUpper
                0x000000004016cf6c                SeStrCmpi
                0x000000004016d01f                SeStrnCmpi
                0x000000004016d0f8                SeToLower
                0x000000004016d10a                SeStrCheckLen
                0x000000004016d155                SeStrCheckSize
                0x000000004016d174                SeStrLen
                0x000000004016d1a8                SeReadNextLine
                0x000000004016d269                SeIsAllLowerStr
                0x000000004016d2dc                SeIsAllUpperStr
                0x000000004016d34f                SeIsCharInStr
                0x000000004016d3b5                SeNormalizeCrlf
                0x000000004016d458                SeEndWith
                0x000000004016d4b2                SeTrimCrlf
                0x000000004016d4f9                SeHexToInt64
                0x000000004016d588                SeHexToInt
                0x000000004016d614                SeToInt
                0x000000004016d670                SeToInt64
                0x000000004016d6d8                SeStrLower
                0x000000004016d713                SeStrUpper
                0x000000004016d74e                SeStrCat
                0x000000004016d7de                SeStrCpy
                0x000000004016d88c                SeStrToBin
                0x000000004016d987                SeStrToBinEx
                0x000000004016d9eb                SeStrToMac
                0x000000004016d9fe                SeSearchStrEx
                0x000000004016db43                SeSearchStr
                0x000000004016db53                SeSearchStri
                0x000000004016db63                SeCalcReplaceStrEx
                0x000000004016dc07                SeReplaceStrEx
                0x000000004016dd5b                SeReplaceStri
                0x000000004016dd6c                SeReplaceStr
                0x000000004016dd7d                SeCopyStr
                0x000000004016ddc9                SeUniqueToken
                0x000000004016df25                SeParseTokenWithNullStr
                0x000000004016e07e                SeParseToken
                0x000000004016e213                SeStartWith
                0x000000004016e2ad                SeTrimRight
                0x000000004016e3af                SeTrimLeft
                0x000000004016e455                SeTrim
                0x000000004016e47a                SeTrimCopy
                0x000000004016e4aa                SeIsEmptyStr
                0x000000004016e4f5                SeToHex64
                0x000000004016e5b0                SeToHex
                0x000000004016e66b                SeToStr
                0x000000004016e723                SeToStr64
                0x000000004016e7ec                SeToStr3
                0x000000004016e934                SeStrSize
                0x000000004016e94d                SeFormatEx
                0x000000004016ee45                SeFormatArgs
                0x000000004016ee9b                SeFormat
                0x000000004016eed1                SeMacToStr
                0x000000004016ef22                SeBinToStrEx
                0x000000004016efb9                SeBinToStr
                0x000000004016f060                SeVpnRecvIpV4PacketCallback
                0x000000004016f0b1                SeVpnRecvIpV6PacketCallback
                0x000000004016f102                SeVpnInitIpStack
                0x000000004016f420                SeVpnFreeIpStack
                0x000000004016f4c0                SeVpnMainInit
                0x000000004016f5cf                SeVpnMainFree
                0x000000004016f5f3                SeVpnRecvEtherPacket
                0x000000004016f66d                SeVpnSendEtherPacket
                0x000000004016f693                SeVpnMainProcRecvEtherPacket
                0x000000004016f73c                SeVpnStatusChanged
                0x000000004016f74e                SeVpnMainProcess
                0x000000004016f84c                SeVpnMainHandler
                0x000000004016f899                SeVpnTimerCallback
                0x000000004016f8b2                SeVpnEthRecvCallback
                0x000000004016f8cb                SeVpnTick
                0x000000004016f8e1                SeVpnAddTimer
                0x000000004016f8f6                SeVpnDoInterval
                0x000000004016f947                SeVpnFreeConfig
                0x000000004016f958                SeVpnFree
                0x000000004016f9a9                SeVpnLoadConfig
                0x0000000040170cf5                SeVpnInit
                0x0000000040170e10                SeVpn4ClientSetTimerCallback
                0x0000000040170e23                SeVpn4ClientSetRecvUdpCallback
                0x0000000040170e36                SeVpn4ClientSetRecvEspCallback
                0x0000000040170e49                SeVpn4ClientSetRecvVirtualIpCallback
                0x0000000040170e5c                SeVpn4ClientSendUdp
                0x0000000040170ed4                SeVpn4ClientSendEsp
                0x0000000040170f45                SeVpn4ClientSendVirtualIp
                0x0000000040170f77                SeVpn4IPsecSendPing
                0x00000000401710b8                SeVpn4IPsecInputFromPhysical
                0x0000000040171176                SeVpn4IPsecInputFromVirtual
                0x00000000401711e0                SeVpn4FreeIPsec
                0x00000000401711f5                SeVpn4InitSecConfig
                0x00000000401713cc                SeVpn4InitIPsec
                0x000000004017149d                SeVpn4DoInterval
                0x00000000401714b6                SeVpn4Tick
                0x00000000401714cf                SeVpn4IPsecMainProc
                0x000000004017153f                SeVpn4MainProc
                0x000000004017155b                SeVpn4ClientGetTick
                0x0000000040171571                SeVpn4SetTimer
                0x0000000040171585                SeVpn4ClientAddTimer
                0x000000004017159e                SeVpn4DhcpSendResponse
                0x00000000401716a8                SeVpn4DhcpOptionsToBuf
                0x0000000040171766                SeVpn4NewDhcpOption
                0x00000000401717b7                SeVpn4DhcpBuildDhcpOptionList
                0x0000000040171999                SeVpn4DhcpSearchOption
                0x00000000401719d5                SeVpn4DhcpFreeOptionList
                0x0000000040171a29                SeVpn4DhcpParseOptionListMain
                0x0000000040171b14                SeVpn4DhcpParseOptionList
                0x0000000040171bf9                SeVpn4DhcpServer
                0x0000000040171ebd                SeVpn4RecvPacketPhysical
                0x0000000040171f80                SeVpn4RecvPacketVirtual
                0x00000000401720d9                SeVpn4Init
                0x000000004017213f                SeVpn4Free
                0x0000000040172170                SeVpn6ClientSetTimerCallback
                0x0000000040172183                SeVpn6ClientSetRecvUdpCallback
                0x0000000040172196                SeVpn6ClientSetRecvEspCallback
                0x00000000401721a9                SeVpn6ClientSetRecvVirtualIpCallback
                0x00000000401721bc                SeVpn6ClientSendUdp
                0x0000000040172241                SeVpn6ClientSendEsp
                0x00000000401722c3                SeVpn6ClientSendVirtualIp
                0x00000000401722f5                SeVpn6IPsecSendPing
                0x00000000401724e2                SeVpn6UpdateGuestOsIpAddress
                0x000000004017259e                SeVpn6IPsecInputFromPhysical
                0x000000004017265c                SeVpn6IPsecInputFromVirtual
                0x0000000040172692                SeVpn6InitSecConfig
                0x000000004017287b                SeVpn6InitIPsec
                0x0000000040172955                SeVpn6FreeIPsec
                0x000000004017296a                SeVpn6DoInterval
                0x0000000040172983                SeVpn6Tick
                0x000000004017299c                SeVpn6IPsecMainProc
                0x0000000040172a16                SeVpn6MainProc
                0x0000000040172a32                SeVpn6ClientGetTick
                0x0000000040172a48                SeVpn6SetTimer
                0x0000000040172a5c                SeVpn6ClientAddTimer
                0x0000000040172a75                SeVpn6RecvPacketPhysical
                0x0000000040172b01                SeVpn6RecvPacketVirtual
                0x0000000040172c22                SeVpn6Init
                0x0000000040172c99                SeVpn6Free
                0x0000000040172cc9                crypt_sys_rsa_sign
                0x0000000040173052                msg_usb_bulk_read
                0x00000000401730b2                msg_usb_bulk_write
                0x0000000040173112                msg_usb_claim_interface
                0x0000000040173158                msg_usb_close
                0x00000000401731b2                msg_usb_control_msg
                0x0000000040173227                msg_usb_find_busses
                0x0000000040173265                msg_usb_find_devices
                0x00000000401732a3                msg_usb_get_busses
                0x000000004017330d                msg_usb_get_string_simple
                0x0000000040173369                msg_usb_init
                0x000000004017337e                msg_usb_open
                0x00000000401733fe                msg_usb_release_interface
                0x0000000040173444                msg_usb_reset
                0x0000000040173487                IDMan_StReadSetData
                0x0000000040173b6b                idman_user_init
                0x0000000040173bc0                IDMan_IPIdPassListMalloc
                0x0000000040173c96                IDMan_IPRetJudgment
                0x0000000040173d12                IDMan_IPInitializeReader
                0x0000000040173d43                IDMan_IPInitialize
                0x0000000040173e4c                IDMan_IPFinalize
                0x0000000040173e94                IDMan_IPFinalizeReader
                0x0000000040173eb6                IDMan_getMemoryFree
                0x0000000040173efe                IDMan_PaddingParamChk
                0x0000000040174014                IDMan_CmPadding
                0x00000000401741c5                IDMan_CmPadding2
                0x0000000040174338                IDMan_IPgetCertPKCS
                0x000000004017499f                IDMan_IPgetCertIdxPKCS
                0x0000000040174ea3                IDMan_IPCheckPKC
                0x00000000401750be                IDMan_CheckCardStatus
                0x00000000401750f0                IDMan_IPgSParamChk
                0x0000000040175239                IDMan_IPgIdxSParamChk
                0x0000000040175278                IDMan_IPgetPrivateKey
                0x000000004017545a                IDMan_IPgetHash
                0x000000004017553c                IDMan_IPCrSignature
                0x000000004017569c                IDMan_generateSignature
                0x00000000401757c1                IDMan_generateSignatureByIndex
                0x00000000401758d3                IDMan_EncryptByIndex
                0x00000000401759f0                IDMan_IPgCParamChk
                0x0000000040175af9                IDMan_getCertificate
                0x0000000040175e20                IDMan_IPgCIndexParamChk
                0x0000000040175e50                IDMan_getCertificateByIndex
                0x00000000401761d0                IDMan_getStaticPassword
                0x0000000040176500                IDMan_IPuAPKCS11ParamChk
                0x000000004017661f                IDMan_IPuAPKCS11IdxParamChk
                0x0000000040176646                IDMan_IPgetCertPkeyPKCSx
                0x0000000040176af9                IDMan_IPgetCertPkeyIdxPKCSx
                0x0000000040176f1d                IDMan_IPgetCertPkeyPKCSy
                0x0000000040177068                IDMan_IPCheckCrlPkcX
                0x00000000401771a2                IDMan_IPgetMakeRandData
                0x000000004017721b                IDMan_IPMkRandHash
                0x00000000401772c5                IDMan_IPgetPrivateKeyPKCSx
                0x00000000401774a3                IDMan_IPSignatureVerify
                0x000000004017761c                IDMan_userAuthPKCS11
                0x0000000040177a97                IDMan_userAuthPKCS11ByIndex
                0x0000000040177f20                IDMan_IPvSParamChk
                0x00000000401780c6                IDMan_IPvSIdxParamChk
                0x000000004017813e                IDMan_IPMkPublicKeyObj
                0x0000000040178282                IDMan_IPCheckSignature
                0x000000004017842d                IDMan_verifySignature
                0x00000000401785f4                IDMan_verifySignatureByIndex
                0x00000000401787a0                CardEstablishContext
                0x00000000401787b8                CardReleaseContext
                0x00000000401787e9                CardListReaders
                0x0000000040178801                CardConnect
                0x000000004017883f                CardDisconnect
                0x000000004017885c                CardStatus
                0x00000000401788ad                CardTransmit
                0x00000000401788e9                SelectFileDF
                0x00000000401789cd                SelectFileEF
                0x0000000040178aa8                Verify
                0x0000000040178b9c                InternalAuth
                0x0000000040178cd3                ReadBinary
                0x00000000401792c0                UpdateBinary
                0x00000000401793d9                GetICCardData
                0x00000000401797c0                GetUlByTxt
                0x00000000401797ff                GetVerByTex
                0x00000000401798df                GetUlByByte
                0x000000004017992d                TransHex2Tex
                0x00000000401799c7                TransTex2Hex
                0x0000000040179a90                GetLength
                0x0000000040179af7                SetLength
                0x0000000040179b5c                GetTlvByBuf
                0x0000000040179ec8                GetDirDataByTlv
                0x0000000040179ffa                GetOdfDataByTlv
                0x000000004017a16d                GetTokenDataByTlv
                0x000000004017a5d4                AddObjTblByTlv
                0x000000004017ac0d                AddCertDataByBuf
                0x000000004017ad06                AddIdPassDataByBuf
                0x000000004017b0dd                GetValueData
                0x000000004017b460                AddElem
                0x000000004017b4e8                SetElem
                0x000000004017b5a8                GetElem
                0x000000004017b5e4                GetAttrValType
                0x000000004017b756                DestroyAttribute
                0x000000004017b7a0                DestroyTlvData
                0x000000004017b7bb                DestroyElem
                0x000000004017b844                DestroyList
                0x000000004017b881                DestroyTokenData
                0x000000004017b8e1                DestroySlotData
                0x000000004017b91d                DestroySessionData
                0x000000004017b95b                DelElem
                0x000000004017b9d0                C_GetFunctionList
                0x000000004017b9e2                C_Initialize
                0x000000004017bb50                C_Finalize
                0x000000004017bbec                C_GetInfo
                0x000000004017bc72                C_GetSlotList
                0x000000004017c53c                C_GetSlotInfo
                0x000000004017c624                C_GetTokenInfo
                0x000000004017cee6                C_GetMechanismList
                0x000000004017cfb1                C_GetMechanismInfo
                0x000000004017d06b                C_OpenSession
                0x000000004017d229                C_CloseSession
                0x000000004017d303                C_CloseAllSessions
                0x000000004017d413                C_GetSessionInfo
                0x000000004017d48f                C_Login
                0x000000004017d8f0                C_Logout
                0x000000004017d9fd                C_FindObjectsInit
                0x000000004017dc5e                C_FindObjects
                0x000000004017e193                C_FindObjectsFinal
                0x000000004017e209                C_GetAttributeValue
                0x000000004017e508                C_SignInit
                0x000000004017e5cf                C_Sign
                0x000000004017e945                C_DigestInit
                0x000000004017e9c0                C_DigestUpdate
                0x000000004017ea42                C_DigestFinal
                0x000000004017eb82                C_VerifyInit
                0x000000004017ec49                C_Verify
                0x000000004017edb0                C_CreateObject
                0x000000004017f06a                C_DestroyObject
                0x000000004017f12a                C_SetAttributeValue
                0x000000004017fcca                C_GetCardStatus
                0x000000004017fd60                IDMan_StFree
                0x000000004017fd71                IDMan_StMemcpy
                0x000000004017fd99                IDMan_StMemset
                0x000000004017fdb9                IDMan_StMalloc
                0x000000004017fdf2                IDMan_StMemcmp
                0x000000004017fe42                IDMan_StStrlen
                0x000000004017fe63                IDMan_StStrcat
                0x000000004017fea2                IDMan_StStrchr
                0x000000004017fedd                IDMan_StStrcpy
                0x000000004017ff09                IDMan_StStrcmp
                0x000000004017ff4c                StIsspace
                0x000000004017ffbb                StIsdigit
                0x000000004017ffcd                IDMan_StAtoi
                0x000000004018001f                IDMan_StAtol
                0x000000004018007b                IDMan_CmMkHash
                0x000000004018022d                IDMan_CmChgRSA
                0x00000000401803e7                IDMan_CmGetDN
                0x0000000040180683                IDMan_CmGetCertificateSign
                0x00000000401808a7                IDMan_CmGetPublicKey
                0x0000000040180a77                IDMan_CmMakeRand
                0x0000000040180b15                IDMan_CmCheckCRL
                0x0000000040180e90                IDMan_SCardEstablishContext
                0x0000000040180ead                IDMan_SCardReleaseContext
                0x0000000040180eb8                IDMan_SCardListReaders
                0x0000000040180ee8                IDMan_SCardConnect
                0x0000000040180f18                IDMan_SCardDisconnect
                0x0000000040180f23                IDMan_SCardStatus
                0x0000000040180f97                IDMan_SCardSizeLongToChar
                0x0000000040180fd8                IDMan_SCardSetBinay
                0x000000004018136b                IDMan_SCardTransmit
                0x00000000401813e0                EHDestroyEventHandler
                0x000000004018144d                EHInitEventHandler
                0x000000004018151d                EHStatusHandler
                0x00000000401816b9                HPSearchHotPluggables
                0x0000000040181a20                PHGetProtocol
                0x0000000040181dea                PHSetProtocol
                0x0000000040181e4e                RFAddReader
                0x0000000040181f65                RFRemoveReader
                0x0000000040182020                RFReaderInfoById
                0x0000000040182050                RFCheckReaderEventState
                0x0000000040182090                SCardEstablishContext
                0x0000000040182180                SCardListReaders
                0x000000004018221d                SCardConnect
                0x00000000401824b4                SCardDisconnect
                0x0000000040182662                SCardBeginTransaction
                0x00000000401826b9                SCardEndTransaction
                0x000000004018288f                SCardStatus
                0x0000000040182aa2                SCardReleaseContext
                0x0000000040182b6a                SCardTransmit
                0x0000000040182db0                SetATR
                0x0000000040182ff9                GetIFSCData
                0x0000000040183056                GetBWICWIData
                0x0000000040183103                IFDHCloseChannel
                0x0000000040183180                IFDHGetCapabilities
                0x00000000401831c6                IFDHSetProtocolParameters
                0x00000000401838d0                IFDHPowerICC
                0x0000000040183abf                IFDHTransmitToICC
                0x0000000040183d85                IFDHControl
                0x0000000040183e96                IFDHICCPresence
                0x0000000040183f38                IFDHCreateChannel
                0x0000000040183fd8                FindBaudRateTable
                0x0000000040184021                ExchangePPSData
                0x00000000401846ec                InitLeaderCardProtocol
                0x0000000040184806                T1XfrBlockTPDU
                0x0000000040184e3d                T1NegociateIFSD
                0x0000000040184f8b                CardStateConfirm
                0x0000000040184fc0                GetCardStatus
                0x00000000401850c5                PowerOn
                0x0000000040185270                PowerOff
                0x00000000401853c0                CardMechanical
                0x00000000401854cd                TransmitPPS
                0x0000000040185646                TransmitCommand
                0x0000000040185716                ReceiveReply
                0x00000000401858c5                ReadDataT0
                0x0000000040185970                BlockSendCardT1
                0x0000000040185b8d                T0XfrBlockCHAR
                0x0000000040186091                T0XfrBlockTPDU
                0x000000004018610a                T1XfrBlockExtendedAPDU
                0x0000000040186453                OpenUSB
                0x0000000040186808                WriteUSB
                0x0000000040186837                ReadUSB
                0x0000000040186895                CloseUSB
                0x0000000040186903                AES_set_encrypt_key
                0x0000000040186d11                AES_set_decrypt_key
                0x0000000040186f3c                AES_encrypt
                0x00000000401873c7                AES_decrypt
                0x0000000040187830                BIO_set
                0x00000000401878fe                BIO_new
                0x0000000040187971                BIO_free
                0x0000000040187a29                BIO_vfree
                0x0000000040187a34                BIO_clear_flags
                0x0000000040187a3f                BIO_test_flags
                0x0000000040187a4a                BIO_set_flags
                0x0000000040187a53                BIO_get_callback
                0x0000000040187a5d                BIO_set_callback
                0x0000000040187a67                BIO_set_callback_arg
                0x0000000040187a71                BIO_get_callback_arg
                0x0000000040187a7b                BIO_method_name
                0x0000000040187a88                BIO_method_type
                0x0000000040187a93                BIO_read
                0x0000000040187b7d                BIO_write
                0x0000000040187c72                BIO_puts
                0x0000000040187d5f                BIO_gets
                0x0000000040187e43                BIO_indent
                0x0000000040187e88                BIO_ctrl
                0x0000000040187f4e                BIO_int_ctrl
                0x0000000040187f64                BIO_ptr_ctrl
                0x0000000040187f8f                BIO_callback_ctrl
                0x0000000040188053                BIO_ctrl_pending
                0x000000004018806d                BIO_ctrl_wpending
                0x0000000040188087                BIO_push
                0x00000000401880d7                BIO_pop
                0x000000004018813d                BIO_get_retry_BIO
                0x000000004018816a                BIO_get_retry_reason
                0x0000000040188173                BIO_find_type
                0x00000000401881be                BIO_next
                0x00000000401881d4                BIO_free_all
                0x0000000040188203                BIO_dup_chain
                0x00000000401882fb                BIO_copy_next_retry
                0x0000000040188314                BIO_get_ex_new_index
                0x0000000040188333                BIO_set_ex_data
                0x0000000040188342                BIO_get_ex_data
                0x0000000040188351                BIO_number_read
                0x0000000040188367                BIO_number_written
                0x00000000401884c0                BN_set_params
                0x0000000040188550                BN_get_params
                0x0000000040188585                BN_value_one
                0x0000000040188590                BN_options
                0x00000000401885d8                BN_num_bits_word
                0x0000000040188636                BN_num_bits
                0x000000004018865c                BN_clear_free
                0x00000000401886b5                BN_free
                0x00000000401886fe                BN_init
                0x0000000040188713                BN_new
                0x000000004018877b                bn_expand2
                0x00000000401887cc                BN_copy
                0x00000000401888b8                BN_dup
                0x000000004018890a                bn_dup_expand
                0x000000004018897b                BN_swap
                0x00000000401889de                BN_clear
                0x0000000040188a1b                BN_get_word
                0x0000000040188a3d                BN_set_word
                0x0000000040188a92                BN_bin2bn
                0x0000000040188bd1                BN_bn2bin
                0x0000000040188c40                BN_ucmp
                0x0000000040188c9d                BN_cmp
                0x0000000040188d5d                BN_set_bit
                0x0000000040188e0c                BN_clear_bit
                0x0000000040188e95                BN_is_bit_set
                0x0000000040188ed9                BN_mask_bits
                0x0000000040188f6e                BN_set_negative
                0x0000000040188f8e                bn_cmp_words
                0x0000000040188ff4                bn_cmp_part_words
                0x0000000040189080                BN_bn2hex
                0x0000000040189162                BN_bn2dec
                0x000000004018937a                BN_hex2bn
                0x000000004018955d                BN_dec2bn
                0x000000004018970a                BN_asc2bn
                0x0000000040189771                BN_print
                0x0000000040189a47                BN_rand
                0x0000000040189a61                BN_pseudo_rand
                0x0000000040189c4e                BN_bntest_rand
                0x0000000040189c68                BN_rand_range
                0x0000000040189c7e                BN_pseudo_rand_range
                0x0000000040189ca0                BN_mod_word
                0x0000000040189cfa                BN_div_word
                0x0000000040189dd2                BN_sub_word
                0x0000000040189ecc                BN_add_word
                0x0000000040189fba                BN_mul_word
                0x000000004018a45c                BIO_s_mem
                0x000000004018a467                BIO_new_mem_buf
                0x000000004018a4e0                BUF_MEM_new
                0x000000004018a53c                BUF_MEM_free
                0x000000004018a57b                BUF_MEM_grow
                0x000000004018a670                BUF_MEM_grow_clean
                0x000000004018a77f                BUF_memdup
                0x000000004018a7e8                BUF_strlcpy
                0x000000004018a858                BUF_strndup
                0x000000004018a8d4                BUF_strdup
                0x000000004018a902                BUF_strlcat
                0x000000004018a94a                BUF_reverse
                0x000000004018a99f                OpenSSL_add_all_ciphers
                0x000000004018ae40                OpenSSL_add_all_digests
                0x000000004018afb0                CRYPTO_get_new_lockid
                0x000000004018b05f                CRYPTO_num_locks
                0x000000004018b06a                CRYPTO_get_dynlock_create_callback
                0x000000004018b077                CRYPTO_get_dynlock_lock_callback
                0x000000004018b084                CRYPTO_get_dynlock_destroy_callback
                0x000000004018b091                CRYPTO_set_dynlock_create_callback
                0x000000004018b09e                CRYPTO_set_dynlock_lock_callback
                0x000000004018b0ab                CRYPTO_set_dynlock_destroy_callback
                0x000000004018b0b8                CRYPTO_get_locking_callback
                0x000000004018b0c5                CRYPTO_get_add_lock_callback
                0x000000004018b0d2                CRYPTO_set_locking_callback
                0x000000004018b0df                CRYPTO_set_add_lock_callback
                0x000000004018b0ec                CRYPTO_THREADID_set_numeric
                0x000000004018b111                CRYPTO_THREADID_set_pointer
                0x000000004018b139                CRYPTO_THREADID_set_callback
                0x000000004018b157                CRYPTO_THREADID_get_callback
                0x000000004018b164                CRYPTO_THREADID_current
                0x000000004018b1ac                CRYPTO_THREADID_cmp
                0x000000004018b1bc                CRYPTO_THREADID_cpy
                0x000000004018b1cc                CRYPTO_THREADID_hash
                0x000000004018b1d6                CRYPTO_get_id_callback
                0x000000004018b1e3                CRYPTO_set_id_callback
                0x000000004018b1f0                CRYPTO_thread_id
                0x000000004018b20a                CRYPTO_get_lock_name
                0x000000004018b25f                OPENSSL_ia32cap_loc
                0x000000004018b26a                OPENSSL_cpuid_setup
                0x000000004018b270                OPENSSL_showfatal
                0x000000004018b2bb                OPENSSL_isservice
                0x000000004018b2c6                OpenSSLDie
                0x000000004018b2e8                CRYPTO_lock
                0x000000004018b36d                CRYPTO_get_new_dynlockid
                0x000000004018b589                CRYPTO_destroy_dynlockid
                0x000000004018b681                CRYPTO_get_dynlock_value
                0x000000004018b720                CRYPTO_add_lock
                0x000000004018b78e                OPENSSL_stderr
                0x000000004018b799                DES_encrypt1
                0x000000004018bbae                DES_encrypt2
                0x000000004018bec6                DES_encrypt3
                0x000000004018c020                DES_decrypt3
                0x000000004018c17d                DES_ncbc_encrypt
                0x000000004018c7b9                DES_ede3_cbc_encrypt
                0x000000004018d1da                DH_generate_key
                0x000000004018d1ea                DH_compute_key
                0x000000004018d1fa                DH_OpenSSL
                0x000000004018d205                DH_set_default_method
                0x000000004018d212                DH_get_default_method
                0x000000004018d23d                DH_set_method
                0x000000004018d27c                DH_new_method
                0x000000004018d39d                DH_new
                0x000000004018d3ad                DH_free
                0x000000004018d48d                DH_up_ref
                0x000000004018d4ba                DH_get_ex_new_index
                0x000000004018d4d9                DH_set_ex_data
                0x000000004018d4e8                DH_get_ex_data
                0x000000004018d4f7                DH_size
                0x000000004018e25a                EVP_aes_128_cbc
                0x000000004018e265                EVP_aes_128_cfb128
                0x000000004018e270                EVP_aes_128_ofb
                0x000000004018e27b                EVP_aes_128_ecb
                0x000000004018e286                EVP_aes_192_cbc
                0x000000004018e291                EVP_aes_192_cfb128
                0x000000004018e29c                EVP_aes_192_ofb
                0x000000004018e2a7                EVP_aes_192_ecb
                0x000000004018e2b2                EVP_aes_256_cbc
                0x000000004018e2bd                EVP_aes_256_cfb128
                0x000000004018e2c8                EVP_aes_256_ofb
                0x000000004018e2d3                EVP_aes_256_ecb
                0x000000004018e2de                EVP_aes_128_cfb1
                0x000000004018e2e9                EVP_aes_192_cfb1
                0x000000004018e2f4                EVP_aes_256_cfb1
                0x000000004018e2ff                EVP_aes_128_cfb8
                0x000000004018e30a                EVP_aes_192_cfb8
                0x000000004018e315                EVP_aes_256_cfb8
                0x000000004018e638                EVP_bf_cbc
                0x000000004018e643                EVP_bf_cfb64
                0x000000004018e64e                EVP_bf_ofb
                0x000000004018e659                EVP_bf_ecb
                0x000000004018e97c                EVP_cast5_cbc
                0x000000004018e987                EVP_cast5_cfb64
                0x000000004018e992                EVP_cast5_ofb
                0x000000004018e99d                EVP_cast5_ecb
                0x000000004018ef85                EVP_des_cbc
                0x000000004018ef90                EVP_des_cfb64
                0x000000004018ef9b                EVP_des_ofb
                0x000000004018efa6                EVP_des_ecb
                0x000000004018efb1                EVP_des_cfb1
                0x000000004018efbc                EVP_des_cfb8
                0x000000004018f5aa                EVP_des_ede_cbc
                0x000000004018f5b5                EVP_des_ede_cfb64
                0x000000004018f5c0                EVP_des_ede_ofb
                0x000000004018f5cb                EVP_des_ede_ecb
                0x000000004018f5d6                EVP_des_ede3_cbc
                0x000000004018f5e1                EVP_des_ede3_cfb64
                0x000000004018f5ec                EVP_des_ede3_ofb
                0x000000004018f5f7                EVP_des_ede3_ecb
                0x000000004018f602                EVP_des_ede3_cfb1
                0x000000004018f60d                EVP_des_ede3_cfb8
                0x000000004018f618                EVP_des_ede
                0x000000004018f623                EVP_des_ede3
                0x000000004018f9a2                EVP_idea_cbc
                0x000000004018f9ad                EVP_idea_cfb64
                0x000000004018f9b8                EVP_idea_ofb
                0x000000004018f9c3                EVP_idea_ecb
                0x000000004018ff0e                EVP_rc2_cbc
                0x000000004018ff19                EVP_rc2_cfb64
                0x000000004018ff24                EVP_rc2_ofb
                0x000000004018ff2f                EVP_rc2_ecb
                0x000000004018ff3a                EVP_rc2_64_cbc
                0x000000004018ff45                EVP_rc2_40_cbc
                0x000000004018ff97                EVP_rc4
                0x000000004018ffa2                EVP_rc4_40
                0x000000004019011d                EVP_desx_cbc
                0x0000000040190128                DES_ecb3_encrypt
                0x00000000401901f8                DES_options
                0x0000000040190252                DES_ecb_encrypt
                0x00000000401909dd                ERR_get_implementation
                0x00000000401909ef                ERR_set_implementation
                0x0000000040190a4a                ERR_load_ERR_strings
                0x0000000040190b77                ERR_load_strings
                0x0000000040190b97                ERR_unload_strings
                0x0000000040190be9                ERR_free_strings
                0x0000000040190bfe                ERR_get_string_table
                0x0000000040190c17                ERR_get_err_state_table
                0x0000000040190c31                ERR_release_err_state_table
                0x0000000040190c56                ERR_lib_error_string
                0x0000000040190c96                ERR_func_error_string
                0x0000000040190cd6                ERR_reason_error_string
                0x0000000040190d3f                ERR_error_string_n
                0x0000000040190ea1                ERR_error_string
                0x0000000040190ed0                ERR_remove_thread_state
                0x0000000040190f15                ERR_remove_state
                0x0000000040190f25                ERR_get_state
                0x000000004019103b                ERR_put_error
                0x000000004019112e                ERR_clear_error
                0x00000000401913da                ERR_get_error
                0x0000000040191405                ERR_get_error_line
                0x000000004019142c                ERR_get_error_line_data
                0x000000004019144d                ERR_peek_error
                0x0000000040191478                ERR_peek_error_line
                0x000000004019149f                ERR_peek_error_line_data
                0x00000000401914c0                ERR_peek_last_error
                0x00000000401914eb                ERR_peek_last_error_line
                0x0000000040191512                ERR_peek_last_error_line_data
                0x0000000040191533                ERR_get_next_error_library
                0x0000000040191548                ERR_set_error_data
                0x00000000401915bb                ERR_add_error_data
                0x00000000401916e4                ERR_set_mark
                0x0000000040191711                ERR_pop_to_mark
                0x00000000401917e0                ERR_load_crypto_strings
                0x0000000040191880                ASN1_TYPE_set_octetstring
                0x00000000401918db                ASN1_TYPE_get_octetstring
                0x0000000040191937                ASN1_TYPE_set_int_octetstring
                0x0000000040191a60                ASN1_TYPE_get_int_octetstring
                0x0000000040191c30                EVP_CIPHER_CTX_init
                0x0000000040191c45                EVP_CIPHER_CTX_new
                0x0000000040191c7c                EVP_EncryptUpdate
                0x0000000040191dff                EVP_EncryptFinal_ex
                0x0000000040191ed5                EVP_EncryptFinal
                0x0000000040191ee0                EVP_DecryptUpdate
                0x0000000040191ff1                EVP_CipherUpdate
                0x0000000040192009                EVP_DecryptFinal_ex
                0x000000004019219a                EVP_CipherFinal_ex
                0x00000000401921b7                EVP_DecryptFinal
                0x00000000401921c2                EVP_CipherFinal
                0x00000000401921e1                EVP_CIPHER_CTX_cleanup
                0x0000000040192245                EVP_CIPHER_CTX_free
                0x000000004019226a                EVP_CIPHER_CTX_set_padding
                0x000000004019228b                EVP_CIPHER_CTX_ctrl
                0x000000004019231b                EVP_CipherInit_ex
                0x000000004019255b                EVP_CipherInit
                0x00000000401925ad                EVP_EncryptInit
                0x00000000401925be                EVP_DecryptInit
                0x00000000401925cf                EVP_EncryptInit_ex
                0x00000000401925e0                EVP_DecryptInit_ex
                0x00000000401925f1                EVP_CIPHER_CTX_set_key_length
                0x000000004019265d                EVP_CIPHER_CTX_rand_key
                0x0000000040192693                EVP_CIPHER_CTX_copy
                0x0000000040192773                ERR_load_EVP_strings
                0x00000000401927b0                EVP_CIPHER_param_to_asn1
                0x00000000401927d1                EVP_CIPHER_asn1_to_param
                0x00000000401927f1                EVP_CIPHER_get_asn1_iv
                0x000000004019286d                EVP_CIPHER_set_asn1_iv
                0x00000000401928c8                EVP_CIPHER_type
                0x0000000040192a15                EVP_CIPHER_block_size
                0x0000000040192a1e                EVP_CIPHER_CTX_block_size
                0x0000000040192a2a                EVP_Cipher
                0x0000000040192a38                EVP_CIPHER_CTX_cipher
                0x0000000040192a41                EVP_CIPHER_flags
                0x0000000040192a4b                EVP_CIPHER_CTX_flags
                0x0000000040192a58                EVP_CIPHER_CTX_get_app_data
                0x0000000040192a62                EVP_CIPHER_CTX_set_app_data
                0x0000000040192a6c                EVP_CIPHER_iv_length
                0x0000000040192a75                EVP_CIPHER_CTX_iv_length
                0x0000000040192a81                EVP_CIPHER_key_length
                0x0000000040192a8a                EVP_CIPHER_CTX_key_length
                0x0000000040192a93                EVP_CIPHER_nid
                0x0000000040192a9b                EVP_CIPHER_CTX_nid
                0x0000000040192aa6                EVP_MD_block_size
                0x0000000040192aaf                EVP_MD_type
                0x0000000040192ab7                EVP_MD_pkey_type
                0x0000000040192ac0                EVP_MD_size
                0x0000000040192af3                EVP_MD_flags
                0x0000000040192afd                EVP_MD_CTX_md
                0x0000000040192b12                EVP_MD_CTX_set_flags
                0x0000000040192b1f                EVP_MD_CTX_clear_flags
                0x0000000040192b2e                EVP_MD_CTX_test_flags
                0x0000000040192b39                EVP_CIPHER_CTX_set_flags
                0x0000000040192b46                EVP_CIPHER_CTX_clear_flags
                0x0000000040192b55                EVP_CIPHER_CTX_test_flags
                0x0000000040192f68                CRYPTO_get_ex_data_implementation
                0x0000000040192f8c                CRYPTO_set_ex_data_implementation
                0x0000000040192fe7                CRYPTO_ex_data_new_class
                0x0000000040193005                CRYPTO_cleanup_all_ex_data
                0x0000000040193024                CRYPTO_get_ex_new_index
                0x0000000040193081                CRYPTO_new_ex_data
                0x00000000401930c2                CRYPTO_dup_ex_data
                0x0000000040193103                CRYPTO_free_ex_data
                0x0000000040193144                CRYPTO_set_ex_data
                0x000000004019320e                CRYPTO_get_ex_data
                0x0000000040193732                idea_encrypt
                0x0000000040194035                idea_cbc_encrypt
                0x0000000040194670                idea_cfb64_encrypt
                0x0000000040194891                idea_options
                0x000000004019489c                idea_ecb_encrypt
                0x0000000040194955                idea_ofb64_encrypt
                0x0000000040194b82                idea_set_encrypt_key
                0x0000000040194d0c                idea_set_decrypt_key
                0x0000000040194e7f                lh_strhash
                0x0000000040194ef6                lh_new
                0x000000004019505f                lh_free
                0x00000000401950c9                lh_insert
                0x0000000040195256                lh_delete
                0x0000000040195399                lh_retrieve
                0x00000000401953dc                lh_doall
                0x000000004019542e                lh_doall_arg
                0x0000000040195492                lh_num_items
                0x00000000401954db                EVP_dss
                0x0000000040195519                EVP_dss1
                0x0000000040195557                EVP_ecdsa
                0x0000000040195595                EVP_md4
                0x00000000401955d3                EVP_md5
                0x0000000040195611                EVP_ripemd160
                0x000000004019564f                EVP_sha
                0x0000000040195711                EVP_sha1
                0x000000004019571c                EVP_sha224
                0x0000000040195727                EVP_sha256
                0x0000000040195732                EVP_sha384
                0x000000004019573d                EVP_sha512
                0x0000000040195748                MD4_Init
                0x000000004019578a                md4_block_data_order
                0x0000000040195d28                MD4_Update
                0x0000000040195e44                MD4_Transform
                0x0000000040195e54                MD4_Final
                0x0000000040195f21                MD5_Init
                0x0000000040195f63                md5_block_data_order
                0x000000004019675e                MD5_Update
                0x000000004019687a                MD5_Transform
                0x000000004019688a                MD5_Final
                0x0000000040196957                MD5
                0x00000000401969f4                CRYPTO_set_mem_functions
                0x0000000040196a6b                CRYPTO_set_mem_ex_functions
                0x0000000040196ae2                CRYPTO_set_locked_mem_functions
                0x0000000040196b22                CRYPTO_set_locked_mem_ex_functions
                0x0000000040196b62                CRYPTO_set_mem_debug_functions
                0x0000000040196b9b                CRYPTO_get_mem_functions
                0x0000000040196bf0                CRYPTO_get_mem_ex_functions
                0x0000000040196c41                CRYPTO_get_locked_mem_functions
                0x0000000040196c76                CRYPTO_get_locked_mem_ex_functions
                0x0000000040196ca9                CRYPTO_get_mem_debug_functions
                0x0000000040196cfa                CRYPTO_malloc_locked
                0x0000000040196daa                CRYPTO_free_locked
                0x0000000040196df1                CRYPTO_malloc
                0x0000000040196ea1                CRYPTO_strdup
                0x0000000040196ee6                CRYPTO_realloc
                0x0000000040196f8e                CRYPTO_realloc_clean
                0x000000004019705d                CRYPTO_free
                0x00000000401970a4                CRYPTO_remalloc
                0x00000000401970d1                CRYPTO_set_mem_debug_options
                0x00000000401970e6                CRYPTO_get_mem_debug_options
                0x0000000040197100                OPENSSL_cleanse
                0x0000000040197588                CRYPTO_mem_ctrl
                0x0000000040197719                CRYPTO_is_mem_check_on
                0x0000000040197795                CRYPTO_dbg_set_options
                0x00000000401977a2                CRYPTO_dbg_get_options
                0x00000000401977af                CRYPTO_push_info_
                0x0000000040197878                CRYPTO_pop_info
                0x00000000401978ba                CRYPTO_remove_all_info
                0x00000000401978fd                CRYPTO_dbg_malloc
                0x0000000040197a8b                CRYPTO_dbg_free
                0x0000000040197b01                CRYPTO_dbg_realloc
                0x0000000040197ba1                CRYPTO_mem_leaks
                0x0000000040197cc0                CRYPTO_mem_leaks_cb
                0x0000000040197d8d                EVP_add_cipher
                0x0000000040197de2                EVP_add_digest
                0x0000000040197e8a                EVP_get_cipherbyname
                0x0000000040197e9a                EVP_get_digestbyname
                0x0000000040197eaa                EVP_cleanup
                0x0000000040197ef0                EVP_CIPHER_do_all
                0x0000000040197f15                EVP_CIPHER_do_all_sorted
                0x0000000040197f3a                EVP_MD_do_all
                0x0000000040197f5f                EVP_MD_do_all_sorted
                0x0000000040198084                OBJ_NAME_init
                0x00000000401980d2                OBJ_NAME_new_index
                0x000000004019823b                OBJ_NAME_get
                0x00000000401982de                OBJ_NAME_add
                0x00000000401983ba                OBJ_NAME_remove
                0x0000000040198468                OBJ_NAME_do_all
                0x0000000040198492                OBJ_NAME_do_all_sorted
                0x0000000040198535                OBJ_NAME_cleanup
                0x00000000401987fc                check_defer
                0x000000004019881d                OBJ_cleanup
                0x000000004019888f                OBJ_new_nid
                0x00000000401988a3                OBJ_add_object
                0x0000000040198a6d                OBJ_nid2obj
                0x0000000040198b2b                OBJ_nid2sn
                0x0000000040198bec                OBJ_nid2ln
                0x0000000040198cae                OBJ_bsearch_ex_
                0x0000000040198dc9                OBJ_bsearch_
                0x0000000040198dda                OBJ_obj2nid
                0x0000000040198e64                OBJ_obj2txt
                0x00000000401991c0                OBJ_ln2nid
                0x000000004019923b                OBJ_sn2nid
                0x00000000401992b6                OBJ_txt2obj
                0x00000000401993ab                OBJ_txt2nid
                0x00000000401993da                OBJ_create
                0x00000000401994ce                OBJ_create_objects
                0x0000000040199620                ERR_load_OBJ_strings
                0x0000000040199660                OBJ_dup
                0x0000000040199839                OBJ_cmp
                0x000000004019985b                ERR_load_OCSP_strings
                0x0000000040199890                DES_ede3_ofb64_encrypt
                0x0000000040199a5f                DES_ofb64_encrypt
                0x0000000040199d6a                EVP_PKEY_bits
                0x0000000040199d9d                EVP_PKEY_size
                0x0000000040199dd2                EVP_PKEY_save_parameters
                0x0000000040199e04                EVP_PKEY_missing_parameters
                0x0000000040199e32                EVP_PKEY_copy_parameters
                0x0000000040199ebf                EVP_PKEY_cmp_parameters
                0x0000000040199ef6                EVP_PKEY_cmp
                0x0000000040199f51                EVP_PKEY_new
                0x0000000040199fd1                EVP_PKEY_set_type
                0x0000000040199fe6                EVP_PKEY_set_type_str
                0x0000000040199ffb                EVP_PKEY_assign
                0x000000004019a023                EVP_PKEY_get0
                0x000000004019a02d                EVP_PKEY_set1_RSA
                0x000000004019a059                EVP_PKEY_get1_RSA
                0x000000004019a0a4                EVP_PKEY_set1_DSA
                0x000000004019a0d0                EVP_PKEY_get1_DSA
                0x000000004019a11b                EVP_PKEY_set1_EC_KEY
                0x000000004019a147                EVP_PKEY_get1_EC_KEY
                0x000000004019a195                EVP_PKEY_set1_DH
                0x000000004019a1c1                EVP_PKEY_get1_DH
                0x000000004019a20c                EVP_PKEY_type
                0x000000004019a22f                EVP_PKEY_id
                0x000000004019a237                EVP_PKEY_base_id
                0x000000004019a244                EVP_PKEY_free
                0x000000004019a2a1                EVP_PKEY_print_public
                0x000000004019a2c7                EVP_PKEY_print_private
                0x000000004019a2ee                EVP_PKEY_print_params
                0x000000004019a317                EVP_PKEY_get_default_digest_nid
                0x000000004019a351                PEM_read_bio_X509_REQ
                0x000000004019a372                PEM_write_bio_X509_REQ
                0x000000004019a3b6                PEM_write_bio_X509_REQ_NEW
                0x000000004019a3fa                PEM_read_bio_X509_CRL
                0x000000004019a41b                PEM_write_bio_X509_CRL
                0x000000004019a45f                PEM_read_bio_PKCS7
                0x000000004019a480                PEM_write_bio_PKCS7
                0x000000004019a4c4                PEM_read_bio_NETSCAPE_CERT_SEQUENCE
                0x000000004019a4e5                PEM_write_bio_NETSCAPE_CERT_SEQUENCE
                0x000000004019a529                PEM_read_bio_RSAPrivateKey
                0x000000004019a594                PEM_write_bio_RSAPrivateKey
                0x000000004019a5cb                PEM_read_bio_RSAPublicKey
                0x000000004019a5ec                PEM_write_bio_RSAPublicKey
                0x000000004019a630                PEM_read_bio_RSA_PUBKEY
                0x000000004019a651                PEM_write_bio_RSA_PUBKEY
                0x000000004019a695                PEM_read_bio_DSAPrivateKey
                0x000000004019a700                PEM_write_bio_DSAPrivateKey
                0x000000004019a737                PEM_read_bio_DSA_PUBKEY
                0x000000004019a758                PEM_write_bio_DSA_PUBKEY
                0x000000004019a79c                PEM_read_bio_DSAparams
                0x000000004019a7bd                PEM_write_bio_DSAparams
                0x000000004019a801                PEM_read_bio_ECPrivateKey
                0x000000004019a86c                PEM_read_bio_ECPKParameters
                0x000000004019a88d                PEM_write_bio_ECPKParameters
                0x000000004019a8d1                PEM_write_bio_ECPrivateKey
                0x000000004019a908                PEM_read_bio_EC_PUBKEY
                0x000000004019a929                PEM_write_bio_EC_PUBKEY
                0x000000004019a96d                PEM_read_bio_DHparams
                0x000000004019a98e                PEM_write_bio_DHparams
                0x000000004019a9d2                PEM_read_bio_PUBKEY
                0x000000004019a9f3                PEM_write_bio_PUBKEY
                0x000000004019aa37                ERR_load_PEM_strings
                0x000000004019aa70                PEM_def_callback
                0x000000004019aa9a                PEM_proc_type
                0x000000004019ab09                PEM_dek_info
                0x000000004019abce                PEM_do_header
                0x000000004019ad9a                PEM_get_EVP_CIPHER_INFO
                0x000000004019b04a                PEM_write_bio
                0x000000004019b2fd                PEM_ASN1_write_bio
                0x000000004019b718                PEM_read_bio
                0x000000004019be38                pem_check_suffix
                0x000000004019bea5                PEM_bytes_read_bio
                0x000000004019c1f9                PEM_ASN1_read_bio
                0x000000004019c296                PEM_read_bio_PrivateKey
                0x000000004019c4ed                PEM_write_bio_PrivateKey
                0x000000004019c5a4                PEM_read_bio_Parameters
                0x000000004019c6ca                PEM_write_bio_Parameters
                0x000000004019c753                PEM_read_bio_X509
                0x000000004019c774                PEM_write_bio_X509
                0x000000004019c7b8                ERR_load_PKCS12_strings
                0x000000004019c8b9                d2i_PKCS7
                0x000000004019c8c9                i2d_PKCS7
                0x000000004019c8d9                PKCS7_new
                0x000000004019c8e9                PKCS7_free
                0x000000004019c8f9                i2d_PKCS7_NDEF
                0x000000004019c909                PKCS7_dup
                0x000000004019c91c                d2i_PKCS7_SIGNED
                0x000000004019c92c                i2d_PKCS7_SIGNED
                0x000000004019c93c                PKCS7_SIGNED_new
                0x000000004019c94c                PKCS7_SIGNED_free
                0x000000004019c95c                d2i_PKCS7_SIGNER_INFO
                0x000000004019c96c                i2d_PKCS7_SIGNER_INFO
                0x000000004019c97c                PKCS7_SIGNER_INFO_new
                0x000000004019c98c                PKCS7_SIGNER_INFO_free
                0x000000004019c99c                d2i_PKCS7_ISSUER_AND_SERIAL
                0x000000004019c9ac                i2d_PKCS7_ISSUER_AND_SERIAL
                0x000000004019c9bc                PKCS7_ISSUER_AND_SERIAL_new
                0x000000004019c9cc                PKCS7_ISSUER_AND_SERIAL_free
                0x000000004019c9dc                d2i_PKCS7_ENVELOPE
                0x000000004019c9ec                i2d_PKCS7_ENVELOPE
                0x000000004019c9fc                PKCS7_ENVELOPE_new
                0x000000004019ca0c                PKCS7_ENVELOPE_free
                0x000000004019ca1c                d2i_PKCS7_RECIP_INFO
                0x000000004019ca2c                i2d_PKCS7_RECIP_INFO
                0x000000004019ca3c                PKCS7_RECIP_INFO_new
                0x000000004019ca4c                PKCS7_RECIP_INFO_free
                0x000000004019ca5c                d2i_PKCS7_ENC_CONTENT
                0x000000004019ca6c                i2d_PKCS7_ENC_CONTENT
                0x000000004019ca7c                PKCS7_ENC_CONTENT_new
                0x000000004019ca8c                PKCS7_ENC_CONTENT_free
                0x000000004019ca9c                d2i_PKCS7_SIGN_ENVELOPE
                0x000000004019caac                i2d_PKCS7_SIGN_ENVELOPE
                0x000000004019cabc                PKCS7_SIGN_ENVELOPE_new
                0x000000004019cacc                PKCS7_SIGN_ENVELOPE_free
                0x000000004019cadc                d2i_PKCS7_ENCRYPT
                0x000000004019caec                i2d_PKCS7_ENCRYPT
                0x000000004019cafc                PKCS7_ENCRYPT_new
                0x000000004019cb0c                PKCS7_ENCRYPT_free
                0x000000004019cb1c                d2i_PKCS7_DIGEST
                0x000000004019cb2c                i2d_PKCS7_DIGEST
                0x000000004019cb3c                PKCS7_DIGEST_new
                0x000000004019cb4c                PKCS7_DIGEST_free
                0x000000004019cb5c                PKCS7_print_ctx
                0x000000004019d0cd                PKCS7_dataInit
                0x000000004019d7bd                PKCS7_dataDecode
                0x000000004019ddf8                PKCS7_SIGNER_INFO_sign
                0x000000004019dfc1                PKCS7_get_issuer_and_serial
                0x000000004019e037                PKCS7_get_signed_attribute
                0x000000004019e046                PKCS7_dataFinal
                0x000000004019e5f9                PKCS7_get_attribute
                0x000000004019e608                PKCS7_digest_from_attributes
                0x000000004019e628                PKCS7_signatureVerify
                0x000000004019e93f                PKCS7_dataVerify
                0x000000004019eab1                PKCS7_set_signed_attributes
                0x000000004019eb41                PKCS7_set_attributes
                0x000000004019ebd1                PKCS7_add_signed_attribute
                0x000000004019ebe0                PKCS7_add_attribute
                0x000000004019ebf0                PKCS7_ctrl
                0x000000004019ed28                PKCS7_set_content
                0x000000004019edb5                PKCS7_set_type
                0x000000004019efb4                PKCS7_content_new
                0x000000004019f016                PKCS7_set0_type_other
                0x000000004019f03c                PKCS7_add_signer
                0x000000004019f1a0                PKCS7_add_certificate
                0x000000004019f27b                PKCS7_add_crl
                0x000000004019f35b                PKCS7_SIGNER_INFO_set
                0x000000004019f4b6                PKCS7_add_signature
                0x000000004019f57a                PKCS7_set_digest
                0x000000004019f639                PKCS7_get_signer_info
                0x000000004019f682                PKCS7_SIGNER_INFO_get0_algs
                0x000000004019f6ac                PKCS7_RECIP_INFO_get0_alg
                0x000000004019f6be                PKCS7_add_recipient_info
                0x000000004019f72d                PKCS7_RECIP_INFO_set
                0x000000004019f8c6                PKCS7_add_recipient
                0x000000004019f926                PKCS7_cert_from_signer_info
                0x000000004019f96a                PKCS7_set_cipher
                0x000000004019fa04                PKCS7_stream
                0x000000004019faca                ERR_load_PKCS7_strings
                0x000000004019faff                ERR_load_RAND_strings
                0x000000004019fb40                DES_random_key
                0x000000004019fb80                RAND_set_rand_method
                0x000000004019fb92                RAND_get_rand_method
                0x000000004019fbbd                RAND_cleanup
                0x000000004019fbe3                RAND_seed
                0x000000004019fc0f                RAND_add
                0x000000004019fc4e                RAND_bytes
                0x000000004019fc89                RAND_pseudo_bytes
                0x000000004019fcc4                RAND_status
                0x000000004019fceb                RC2_encrypt
                0x000000004019fe3e                RC2_decrypt
                0x000000004019ffa2                RC2_cbc_encrypt
                0x00000000401a05ca                RC2_ecb_encrypt
                0x00000000401a0691                RC2_set_key
                0x00000000401a07c0                RC2_cfb64_encrypt
                0x00000000401a09d5                RC2_ofb64_encrypt
                0x00000000401a0b88                RC4
                0x00000000401a0fe3                RC4_options
                0x00000000401a0fee                RC4_set_key
                0x00000000401a10f1                RIPEMD160_Init
                0x00000000401a113a                ripemd160_block_data_order
                0x00000000401a27db                RIPEMD160_Update
                0x00000000401a28f7                RIPEMD160_Transform
                0x00000000401a2907                RIPEMD160_Final
                0x00000000401a2a26                d2i_RSAPrivateKey
                0x00000000401a2a36                i2d_RSAPrivateKey
                0x00000000401a2a46                d2i_RSAPublicKey
                0x00000000401a2a56                i2d_RSAPublicKey
                0x00000000401a2a66                RSAPublicKey_dup
                0x00000000401a2a79                RSAPrivateKey_dup
                0x00000000401a2a8c                RSA_generate_key
                0x00000000401a2b4e                ERR_load_RSA_strings
                0x00000000401a2b90                RSA_generate_key_ex
                0x00000000401a3199                RSA_set_default_method
                0x00000000401a31a6                RSA_get_default_method
                0x00000000401a31d1                RSA_get_method
                0x00000000401a31db                RSA_set_method
                0x00000000401a3214                RSA_new_method
                0x00000000401a336b                RSA_new
                0x00000000401a337b                RSA_free
                0x00000000401a348b                RSA_up_ref
                0x00000000401a34b8                RSA_get_ex_new_index
                0x00000000401a34d7                RSA_set_ex_data
                0x00000000401a34e6                RSA_get_ex_data
                0x00000000401a34f5                RSA_size
                0x00000000401a3510                RSA_public_encrypt
                0x00000000401a351d                RSA_private_encrypt
                0x00000000401a352a                RSA_private_decrypt
                0x00000000401a3537                RSA_public_decrypt
                0x00000000401a3544                RSA_flags
                0x00000000401a355d                RSA_blinding_off
                0x00000000401a3597                RSA_setup_blinding
                0x00000000401a3833                RSA_blinding_on
                0x00000000401a3882                RSA_memory_lock
                0x00000000401a39d0                RSA_sign
                0x00000000401a3c2a                int_rsa_verify
                0x00000000401a3fc7                RSA_verify
                0x00000000401a4010                DES_set_odd_parity
                0x00000000401a4033                DES_check_key_parity
                0x00000000401a407b                DES_is_weak_key
                0x00000000401a40cc                DES_set_key_unchecked
                0x00000000401a436c                DES_set_key_checked
                0x00000000401a43ba                DES_set_key
                0x00000000401a43dc                DES_key_sched
                0x00000000401a43e7                SHA1
                0x00000000401a560e                SHA1_Update
                0x00000000401a572a                SHA1_Transform
                0x00000000401a573a                SHA1_Final
                0x00000000401a581d                SHA1_Init
                0x00000000401a6ffe                SHA224_Init
                0x00000000401a7063                SHA256_Init
                0x00000000401a70c8                SHA256_Update
                0x00000000401a71e4                SHA224_Update
                0x00000000401a71ef                SHA256_Transform
                0x00000000401a71ff                SHA256_Final
                0x00000000401a733b                SHA224
                0x00000000401a73a9                SHA256
                0x00000000401a7417                SHA224_Final
                0x00000000401a8b63                SHA384_Init
                0x00000000401a8c01                SHA512_Init
                0x00000000401a8c9f                SHA512_Final
                0x00000000401a8f07                SHA384_Final
                0x00000000401a8f12                SHA512_Update
                0x00000000401a900b                SHA384_Update
                0x00000000401a9016                SHA512_Transform
                0x00000000401a9026                SHA384
                0x00000000401a909a                SHA512
                0x00000000401aa164                SHA_Update
                0x00000000401aa280                SHA_Transform
                0x00000000401aa290                SHA_Final
                0x00000000401aa373                SHA_Init
                0x00000000401aa3c0                sk_set_cmp_func
                0x00000000401aa3da                sk_new
                0x00000000401aa46c                sk_new_null
                0x00000000401aa47c                sk_insert
                0x00000000401aa532                sk_delete
                0x00000000401aa590                sk_delete_ptr
                0x00000000401aa5de                sk_push
                0x00000000401aa5eb                sk_unshift
                0x00000000401aa5fb                sk_shift
                0x00000000401aa623                sk_pop
                0x00000000401aa64a                sk_zero
                0x00000000401aa67f                sk_free
                0x00000000401aa6ad                sk_dup
                0x00000000401aa743                sk_pop_free
                0x00000000401aa795                sk_num
                0x00000000401aa7a9                sk_value
                0x00000000401aa7da                sk_set
                0x00000000401aa80e                sk_sort
                0x00000000401aa8f8                sk_find
                0x00000000401aa908                sk_find_ex
                0x00000000401aa918                sk_is_sorted
                0x00000000401aadd5                ASN1_tag2bit
                0x00000000401aadf0                asn1_ex_c2i
                0x00000000401ab630                ASN1_item_ex_d2i
                0x00000000401abfd6                ASN1_item_d2i
                0x00000000401ac54d                ASN1_template_d2i
                0x00000000401ac5a5                asn1_ex_i2c
                0x00000000401ac895                ASN1_item_ex_i2d
                0x00000000401accf6                ASN1_item_ndef_i2d
                0x00000000401acd06                ASN1_item_i2d
                0x00000000401ad1c3                ASN1_template_i2d
                0x00000000401ad1e0                ASN1_primitive_free
                0x00000000401ad4fa                ASN1_item_free
                0x00000000401ad516                ASN1_item_ex_free
                0x00000000401ad526                ASN1_template_free
                0x00000000401ad662                ASN1_primitive_new
                0x00000000401ada8d                ASN1_item_ex_new
                0x00000000401ada9d                ASN1_item_new
                0x00000000401adaca                ASN1_template_new
                0x00000000401adb6e                d2i_ASN1_INTEGER
                0x00000000401adb7e                i2d_ASN1_INTEGER
                0x00000000401adb8e                ASN1_INTEGER_new
                0x00000000401adb9e                ASN1_INTEGER_free
                0x00000000401adbae                d2i_ASN1_ENUMERATED
                0x00000000401adbbe                i2d_ASN1_ENUMERATED
                0x00000000401adbce                ASN1_ENUMERATED_new
                0x00000000401adbde                ASN1_ENUMERATED_free
                0x00000000401adbee                d2i_ASN1_BIT_STRING
                0x00000000401adbfe                i2d_ASN1_BIT_STRING
                0x00000000401adc0e                ASN1_BIT_STRING_new
                0x00000000401adc1e                ASN1_BIT_STRING_free
                0x00000000401adc2e                d2i_ASN1_OCTET_STRING
                0x00000000401adc3e                i2d_ASN1_OCTET_STRING
                0x00000000401adc4e                ASN1_OCTET_STRING_new
                0x00000000401adc5e                ASN1_OCTET_STRING_free
                0x00000000401adc6e                d2i_ASN1_NULL
                0x00000000401adc7e                i2d_ASN1_NULL
                0x00000000401adc8e                ASN1_NULL_new
                0x00000000401adc9e                ASN1_NULL_free
                0x00000000401adcae                d2i_ASN1_UTF8STRING
                0x00000000401adcbe                i2d_ASN1_UTF8STRING
                0x00000000401adcce                ASN1_UTF8STRING_new
                0x00000000401adcde                ASN1_UTF8STRING_free
                0x00000000401adcee                d2i_ASN1_PRINTABLESTRING
                0x00000000401adcfe                i2d_ASN1_PRINTABLESTRING
                0x00000000401add0e                ASN1_PRINTABLESTRING_new
                0x00000000401add1e                ASN1_PRINTABLESTRING_free
                0x00000000401add2e                d2i_ASN1_T61STRING
                0x00000000401add3e                i2d_ASN1_T61STRING
                0x00000000401add4e                ASN1_T61STRING_new
                0x00000000401add5e                ASN1_T61STRING_free
                0x00000000401add6e                d2i_ASN1_IA5STRING
                0x00000000401add7e                i2d_ASN1_IA5STRING
                0x00000000401add8e                ASN1_IA5STRING_new
                0x00000000401add9e                ASN1_IA5STRING_free
                0x00000000401addae                d2i_ASN1_GENERALSTRING
                0x00000000401addbe                i2d_ASN1_GENERALSTRING
                0x00000000401addce                ASN1_GENERALSTRING_new
                0x00000000401addde                ASN1_GENERALSTRING_free
                0x00000000401addee                d2i_ASN1_UTCTIME
                0x00000000401addfe                i2d_ASN1_UTCTIME
                0x00000000401ade0e                ASN1_UTCTIME_new
                0x00000000401ade1e                ASN1_UTCTIME_free
                0x00000000401ade2e                d2i_ASN1_GENERALIZEDTIME
                0x00000000401ade3e                i2d_ASN1_GENERALIZEDTIME
                0x00000000401ade4e                ASN1_GENERALIZEDTIME_new
                0x00000000401ade5e                ASN1_GENERALIZEDTIME_free
                0x00000000401ade6e                d2i_ASN1_VISIBLESTRING
                0x00000000401ade7e                i2d_ASN1_VISIBLESTRING
                0x00000000401ade8e                ASN1_VISIBLESTRING_new
                0x00000000401ade9e                ASN1_VISIBLESTRING_free
                0x00000000401adeae                d2i_ASN1_UNIVERSALSTRING
                0x00000000401adebe                i2d_ASN1_UNIVERSALSTRING
                0x00000000401adece                ASN1_UNIVERSALSTRING_new
                0x00000000401adede                ASN1_UNIVERSALSTRING_free
                0x00000000401adeee                d2i_ASN1_BMPSTRING
                0x00000000401adefe                i2d_ASN1_BMPSTRING
                0x00000000401adf0e                ASN1_BMPSTRING_new
                0x00000000401adf1e                ASN1_BMPSTRING_free
                0x00000000401adf2e                d2i_ASN1_TYPE
                0x00000000401adf3e                i2d_ASN1_TYPE
                0x00000000401adf4e                ASN1_TYPE_new
                0x00000000401adf5e                ASN1_TYPE_free
                0x00000000401adf6e                d2i_ASN1_PRINTABLE
                0x00000000401adf7e                i2d_ASN1_PRINTABLE
                0x00000000401adf8e                ASN1_PRINTABLE_new
                0x00000000401adf9e                ASN1_PRINTABLE_free
                0x00000000401adfae                d2i_DISPLAYTEXT
                0x00000000401adfbe                i2d_DISPLAYTEXT
                0x00000000401adfce                DISPLAYTEXT_new
                0x00000000401adfde                DISPLAYTEXT_free
                0x00000000401adfee                d2i_DIRECTORYSTRING
                0x00000000401adffe                i2d_DIRECTORYSTRING
                0x00000000401ae00e                DIRECTORYSTRING_new
                0x00000000401ae01e                DIRECTORYSTRING_free
                0x00000000401ae02e                d2i_ASN1_SEQUENCE_ANY
                0x00000000401ae03e                i2d_ASN1_SEQUENCE_ANY
                0x00000000401ae04e                d2i_ASN1_SET_ANY
                0x00000000401ae05e                i2d_ASN1_SET_ANY
                0x00000000401ae0b5                asn1_get_choice_selector
                0x00000000401ae0c5                asn1_set_choice_selector
                0x00000000401ae0d9                asn1_do_lock
                0x00000000401ae138                asn1_enc_init
                0x00000000401ae15e                asn1_enc_free
                0x00000000401ae19e                asn1_enc_save
                0x00000000401ae220                asn1_enc_restore
                0x00000000401ae298                asn1_get_field_ptr
                0x00000000401ae2b1                asn1_do_adb
                0x00000000401ae370                ERR_load_UI_strings
                0x00000000401ae3a5                ERR_load_X509V3_strings
                0x00000000401ae3e0                X509_issuer_and_serial_hash
                0x00000000401ae4b1                X509_CRL_match
                0x00000000401ae4c9                X509_get_issuer_name
                0x00000000401ae4d6                X509_get_subject_name
                0x00000000401ae4e3                X509_get_serialNumber
                0x00000000401ae4f0                X509_cmp
                0x00000000401ae53c                X509_NAME_cmp
                0x00000000401ae5b9                X509_issuer_and_serial_cmp
                0x00000000401ae5ed                X509_issuer_name_cmp
                0x00000000401ae606                X509_subject_name_cmp
                0x00000000401ae61f                X509_CRL_cmp
                0x00000000401ae638                X509_NAME_hash
                0x00000000401ae69e                X509_issuer_name_hash
                0x00000000401ae6b0                X509_subject_name_hash
                0x00000000401ae6c2                X509_NAME_hash_old
                0x00000000401ae72b                X509_issuer_name_hash_old
                0x00000000401ae73d                X509_subject_name_hash_old
                0x00000000401ae74f                X509_find_by_issuer_and_serial
                0x00000000401ae7d2                X509_find_by_subject
                0x00000000401ae82c                X509_get_pubkey
                0x00000000401ae856                X509_get0_pubkey_bitstr
                0x00000000401ae873                X509_check_private_key
                0x00000000401ae92a                ERR_load_X509_strings
                0x00000000401ae95f                X509_NAME_oneline
                0x00000000401af142                X509_time_adj_ex
                0x00000000401af193                X509_time_adj
                0x00000000401af1a9                X509_cmp_time
                0x00000000401af65e                X509_cmp_current_time
                0x00000000401b01dc                X509_gmtime_adj
                0x00000000401b01ec                X509_get_pubkey_parameters
                0x00000000401b0323                X509_verify_cert
                0x00000000401b0caf                X509_STORE_CTX_get_ex_new_index
                0x00000000401b0cce                X509_STORE_CTX_set_ex_data
                0x00000000401b0ce0                X509_STORE_CTX_get_ex_data
                0x00000000401b0cf2                X509_STORE_CTX_get_error
                0x00000000401b0cfe                X509_STORE_CTX_set_error
                0x00000000401b0d0a                X509_STORE_CTX_get_error_depth
                0x00000000401b0d16                X509_STORE_CTX_get_current_cert
                0x00000000401b0d23                X509_STORE_CTX_get_chain
                0x00000000401b0d30                X509_STORE_CTX_get1_chain
                0x00000000401b0da1                X509_STORE_CTX_get0_current_issuer
                0x00000000401b0dae                X509_STORE_CTX_get0_current_crl
                0x00000000401b0dbb                X509_STORE_CTX_get0_parent_ctx
                0x00000000401b0dc8                X509_STORE_CTX_set_cert
                0x00000000401b0dd2                X509_STORE_CTX_set_chain
                0x00000000401b0ddc                X509_STORE_CTX_set0_crls
                0x00000000401b0de6                X509_STORE_CTX_purpose_inherit
                0x00000000401b0efd                X509_STORE_CTX_set_purpose
                0x00000000401b0f14                X509_STORE_CTX_set_trust
                0x00000000401b0f2b                X509_STORE_CTX_new
                0x00000000401b0f92                X509_STORE_CTX_init
                0x00000000401b12f4                X509_STORE_CTX_trusted_stack
                0x00000000401b1306                X509_STORE_CTX_cleanup
                0x00000000401b13a9                X509_STORE_CTX_free
                0x00000000401b13c9                X509_STORE_CTX_set_depth
                0x00000000401b13d8                X509_STORE_CTX_set_flags
                0x00000000401b13e7                X509_STORE_CTX_set_time
                0x00000000401b13f8                X509_STORE_CTX_set_verify_cb
                0x00000000401b1402                X509_STORE_CTX_get0_policy_tree
                0x00000000401b140f                X509_STORE_CTX_get_explicit_policy
                0x00000000401b141b                X509_STORE_CTX_set_default
                0x00000000401b144c                X509_STORE_CTX_get0_param
                0x00000000401b1456                X509_STORE_CTX_set0_param
                0x00000000401b1780                X509_VERIFY_PARAM_free
                0x00000000401b180f                X509_VERIFY_PARAM_new
                0x00000000401b1897                X509_VERIFY_PARAM_set1_name
                0x00000000401b18ca                X509_VERIFY_PARAM_set_flags
                0x00000000401b18f0                X509_VERIFY_PARAM_clear_flags
                0x00000000401b1902                X509_VERIFY_PARAM_get_flags
                0x00000000401b190c                X509_VERIFY_PARAM_set_purpose
                0x00000000401b191b                X509_VERIFY_PARAM_set_trust
                0x00000000401b192a                X509_VERIFY_PARAM_set_depth
                0x00000000401b1933                X509_VERIFY_PARAM_set_time
                0x00000000401b1941                X509_VERIFY_PARAM_add0_policy
                0x00000000401b1983                X509_VERIFY_PARAM_set1_policies
                0x00000000401b1a61                X509_VERIFY_PARAM_inherit
                0x00000000401b1bb5                X509_VERIFY_PARAM_set1
                0x00000000401b1bdc                X509_VERIFY_PARAM_get_depth
                0x00000000401b1be5                X509_VERIFY_PARAM_add0_table
                0x00000000401b1c6b                X509_VERIFY_PARAM_lookup
                0x00000000401b1cc1                X509_VERIFY_PARAM_table_cleanup
                0x00000000401b1cf4                d2i_X509_ALGOR
                0x00000000401b1d04                i2d_X509_ALGOR
                0x00000000401b1d14                X509_ALGOR_new
                0x00000000401b1d24                X509_ALGOR_free
                0x00000000401b1d34                d2i_X509_ALGORS
                0x00000000401b1d44                i2d_X509_ALGORS
                0x00000000401b1d54                X509_ALGOR_dup
                0x00000000401b1d67                X509_ALGOR_set0
                0x00000000401b1e0b                X509_ALGOR_get0
                0x00000000401b1e46                X509_verify
                0x00000000401b1e64                X509_REQ_verify
                0x00000000401b1e82                NETSCAPE_SPKI_verify
                0x00000000401b1ea0                X509_sign
                0x00000000401b1ed7                X509_REQ_sign
                0x00000000401b1f02                X509_CRL_sign
                0x00000000401b1f39                NETSCAPE_SPKI_sign
                0x00000000401b1f64                d2i_X509_bio
                0x00000000401b1f7a                i2d_X509_bio
                0x00000000401b1f90                d2i_X509_CRL_bio
                0x00000000401b1fa6                i2d_X509_CRL_bio
                0x00000000401b1fbc                d2i_PKCS7_bio
                0x00000000401b1fd2                i2d_PKCS7_bio
                0x00000000401b1fe8                d2i_X509_REQ_bio
                0x00000000401b1ffe                i2d_X509_REQ_bio
                0x00000000401b2014                d2i_RSAPrivateKey_bio
                0x00000000401b202a                i2d_RSAPrivateKey_bio
                0x00000000401b2040                d2i_RSAPublicKey_bio
                0x00000000401b2056                d2i_RSA_PUBKEY_bio
                0x00000000401b2071                i2d_RSAPublicKey_bio
                0x00000000401b2087                i2d_RSA_PUBKEY_bio
                0x00000000401b209d                d2i_DSAPrivateKey_bio
                0x00000000401b20b8                i2d_DSAPrivateKey_bio
                0x00000000401b20ce                d2i_DSA_PUBKEY_bio
                0x00000000401b20e9                i2d_DSA_PUBKEY_bio
                0x00000000401b20ff                d2i_EC_PUBKEY_bio
                0x00000000401b211a                i2d_EC_PUBKEY_bio
                0x00000000401b2130                d2i_ECPrivateKey_bio
                0x00000000401b214b                i2d_ECPrivateKey_bio
                0x00000000401b2161                X509_pubkey_digest
                0x00000000401b21af                X509_digest
                0x00000000401b21c8                X509_CRL_digest
                0x00000000401b21e1                X509_REQ_digest
                0x00000000401b21fa                X509_NAME_digest
                0x00000000401b2213                PKCS7_ISSUER_AND_SERIAL_digest
                0x00000000401b222c                d2i_PKCS8_bio
                0x00000000401b2247                i2d_PKCS8_bio
                0x00000000401b225d                d2i_PKCS8_PRIV_KEY_INFO_bio
                0x00000000401b2278                i2d_PKCS8_PRIV_KEY_INFO_bio
                0x00000000401b228e                i2d_PKCS8PrivateKeyInfo_bio
                0x00000000401b22cb                i2d_PrivateKey_bio
                0x00000000401b22e1                d2i_PrivateKey_bio
                0x00000000401b22fc                i2d_PUBKEY_bio
                0x00000000401b2312                d2i_PUBKEY_bio
                0x00000000401b232d                d2i_X509_ATTRIBUTE
                0x00000000401b233d                i2d_X509_ATTRIBUTE
                0x00000000401b234d                X509_ATTRIBUTE_new
                0x00000000401b235d                X509_ATTRIBUTE_free
                0x00000000401b236d                X509_ATTRIBUTE_dup
                0x00000000401b2380                X509_ATTRIBUTE_create
                0x00000000401b2b3d                d2i_X509_REVOKED
                0x00000000401b2b4d                i2d_X509_REVOKED
                0x00000000401b2b5d                X509_REVOKED_new
                0x00000000401b2b6d                X509_REVOKED_free
                0x00000000401b2b7d                d2i_X509_CRL_INFO
                0x00000000401b2b8d                i2d_X509_CRL_INFO
                0x00000000401b2b9d                X509_CRL_INFO_new
                0x00000000401b2bad                X509_CRL_INFO_free
                0x00000000401b2bbd                d2i_X509_CRL
                0x00000000401b2bcd                i2d_X509_CRL
                0x00000000401b2bdd                X509_CRL_new
                0x00000000401b2bed                X509_CRL_free
                0x00000000401b2bfd                X509_CRL_dup
                0x00000000401b2c10                X509_CRL_add0_revoked
                0x00000000401b2c7f                X509_CRL_verify
                0x00000000401b2c9a                X509_CRL_get0_by_serial
                0x00000000401b2cbb                X509_CRL_get0_by_cert
                0x00000000401b2d17                X509_CRL_set_default_method
                0x00000000401b2d30                X509_CRL_METHOD_new
                0x00000000401b2d7f                X509_CRL_METHOD_free
                0x00000000401b2d90                X509_CRL_set_meth_data
                0x00000000401b2d9a                X509_CRL_get_meth_data
                0x00000000401b2da4                d2i_X509_EXTENSION
                0x00000000401b2db4                i2d_X509_EXTENSION
                0x00000000401b2dc4                X509_EXTENSION_new
                0x00000000401b2dd4                X509_EXTENSION_free
                0x00000000401b2de4                d2i_X509_EXTENSIONS
                0x00000000401b2df4                i2d_X509_EXTENSIONS
                0x00000000401b2e04                X509_EXTENSION_dup
                0x00000000401b2fe0                X509_NAME_ENTRY_free
                0x00000000401b31af                d2i_X509_NAME_ENTRY
                0x00000000401b31bf                i2d_X509_NAME_ENTRY
                0x00000000401b31cf                X509_NAME_ENTRY_new
                0x00000000401b36cd                X509_NAME_ENTRY_dup
                0x00000000401b36e0                d2i_X509_NAME
                0x00000000401b36f0                i2d_X509_NAME
                0x00000000401b3700                X509_NAME_new
                0x00000000401b3710                X509_NAME_free
                0x00000000401b38b0                X509_NAME_dup
                0x00000000401b38c3                X509_NAME_set
                0x00000000401b3932                d2i_X509_PUBKEY
                0x00000000401b3942                i2d_X509_PUBKEY
                0x00000000401b3952                X509_PUBKEY_new
                0x00000000401b3962                X509_PUBKEY_free
                0x00000000401b3972                X509_PUBKEY_set
                0x00000000401b3a5d                X509_PUBKEY_get
                0x00000000401b3bc1                d2i_PUBKEY
                0x00000000401b3c2c                i2d_PUBKEY
                0x00000000401b3c7a                d2i_RSA_PUBKEY
                0x00000000401b3cfe                i2d_RSA_PUBKEY
                0x00000000401b3d7d                d2i_DSA_PUBKEY
                0x00000000401b3e01                i2d_DSA_PUBKEY
                0x00000000401b3e80                d2i_EC_PUBKEY
                0x00000000401b3f04                i2d_EC_PUBKEY
                0x00000000401b3f83                X509_PUBKEY_set0_param
                0x00000000401b3ff4                X509_PUBKEY_get0_param
                0x00000000401b405f                d2i_X509_REQ_INFO
                0x00000000401b406f                i2d_X509_REQ_INFO
                0x00000000401b407f                X509_REQ_INFO_new
                0x00000000401b408f                X509_REQ_INFO_free
                0x00000000401b409f                d2i_X509_REQ
                0x00000000401b40af                i2d_X509_REQ
                0x00000000401b40bf                X509_REQ_new
                0x00000000401b40cf                X509_REQ_free
                0x00000000401b40df                X509_REQ_dup
                0x00000000401b40f2                d2i_X509_SIG
                0x00000000401b4102                i2d_X509_SIG
                0x00000000401b4112                X509_SIG_new
                0x00000000401b4122                X509_SIG_free
                0x00000000401b4132                d2i_NETSCAPE_SPKAC
                0x00000000401b4142                i2d_NETSCAPE_SPKAC
                0x00000000401b4152                NETSCAPE_SPKAC_new
                0x00000000401b4162                NETSCAPE_SPKAC_free
                0x00000000401b4172                d2i_NETSCAPE_SPKI
                0x00000000401b4182                i2d_NETSCAPE_SPKI
                0x00000000401b4192                NETSCAPE_SPKI_new
                0x00000000401b41a2                NETSCAPE_SPKI_free
                0x00000000401b42ce                d2i_X509_CINF
                0x00000000401b42de                i2d_X509_CINF
                0x00000000401b42ee                X509_CINF_new
                0x00000000401b42fe                X509_CINF_free
                0x00000000401b430e                d2i_X509
                0x00000000401b431e                i2d_X509
                0x00000000401b432e                X509_new
                0x00000000401b433e                X509_free
                0x00000000401b434e                X509_dup
                0x00000000401b4361                X509_get_ex_new_index
                0x00000000401b4380                X509_set_ex_data
                0x00000000401b438f                X509_get_ex_data
                0x00000000401b439e                d2i_X509_AUX
                0x00000000401b4400                i2d_X509_AUX
                0x00000000401b4440                d2i_X509_CERT_AUX
                0x00000000401b4450                i2d_X509_CERT_AUX
                0x00000000401b4460                X509_CERT_AUX_new
                0x00000000401b44b1                X509_CERT_AUX_free
                0x00000000401b44c1                X509_alias_set1
                0x00000000401b456e                X509_keyid_set1
                0x00000000401b461b                X509_alias_get0
                0x00000000401b465c                X509_keyid_get0
                0x00000000401b469d                X509_add1_trust_object
                0x00000000401b46fd                X509_add1_reject_object
                0x00000000401b4760                X509_trust_clear
                0x00000000401b479f                X509_reject_clear
                0x00000000401b47e0                d2i_X509_CERT_PAIR
                0x00000000401b47f0                i2d_X509_CERT_PAIR
                0x00000000401b4800                X509_CERT_PAIR_new
                0x00000000401b4810                X509_CERT_PAIR_free
                0x00000000401b4820                DES_xcbc_encrypt
                0x00000000401b4f82                ERR_load_TS_strings
                0x00000000401b4fb7                ERR_load_CMS_strings
                0x00000000401b503e                OBJ_find_sigid_algs
                0x00000000401b50c2                OBJ_find_sigid_by_algs
                0x00000000401b514b                OBJ_add_sigid
                0x00000000401b5250                OBJ_sigid_free
                0x00000000401b52c6                EVP_whirlpool
                0x00000000401b52f1                EVP_PKEY_meth_find
                0x00000000401b536a                EVP_PKEY_meth_new
                0x00000000401b5487                EVP_PKEY_meth_free
                0x00000000401b549e                EVP_PKEY_meth_add0
                0x00000000401b54fc                EVP_PKEY_CTX_free
                0x00000000401b5682                EVP_PKEY_CTX_new
                0x00000000401b5692                EVP_PKEY_CTX_new_id
                0x00000000401b56a4                EVP_PKEY_CTX_dup
                0x00000000401b57a2                EVP_PKEY_CTX_ctrl
                0x00000000401b5896                EVP_PKEY_CTX_ctrl_str
                0x00000000401b5978                EVP_PKEY_CTX_get_operation
                0x00000000401b5981                EVP_PKEY_CTX_set0_keygen_info
                0x00000000401b598e                EVP_PKEY_CTX_set_data
                0x00000000401b5998                EVP_PKEY_CTX_get_data
                0x00000000401b59a2                EVP_PKEY_CTX_get0_pkey
                0x00000000401b59ac                EVP_PKEY_CTX_get0_peerkey
                0x00000000401b59b6                EVP_PKEY_CTX_set_app_data
                0x00000000401b59c0                EVP_PKEY_CTX_get_app_data
                0x00000000401b59ca                EVP_PKEY_meth_set_init
                0x00000000401b59d4                EVP_PKEY_meth_set_copy
                0x00000000401b59de                EVP_PKEY_meth_set_cleanup
                0x00000000401b59e8                EVP_PKEY_meth_set_paramgen
                0x00000000401b59f6                EVP_PKEY_meth_set_keygen
                0x00000000401b5a04                EVP_PKEY_meth_set_sign
                0x00000000401b5a12                EVP_PKEY_meth_set_verify
                0x00000000401b5a20                EVP_PKEY_meth_set_verify_recover
                0x00000000401b5a2e                EVP_PKEY_meth_set_signctx
                0x00000000401b5a3c                EVP_PKEY_meth_set_verifyctx
                0x00000000401b5a50                EVP_PKEY_meth_set_encrypt
                0x00000000401b5a64                EVP_PKEY_meth_set_decrypt
                0x00000000401b5a78                EVP_PKEY_meth_set_derive
                0x00000000401b5a8c                EVP_PKEY_meth_set_ctrl
                0x00000000401b5ac0                EVP_PKEY_asn1_get_count
                0x00000000401b5ae0                EVP_PKEY_asn1_get0
                0x00000000401b5b12                EVP_PKEY_asn1_find
                0x00000000401b5bba                EVP_PKEY_asn1_find_str
                0x00000000401b5c42                EVP_PKEY_asn1_add0
                0x00000000401b5ca0                EVP_PKEY_asn1_get0_info
                0x00000000401b5cf6                EVP_PKEY_get0_asn1
                0x00000000401b5d00                EVP_PKEY_asn1_copy
                0x00000000401b5dc8                EVP_PKEY_asn1_free
                0x00000000401b5e0a                EVP_PKEY_asn1_new
                0x00000000401b5f74                EVP_PKEY_asn1_add_alias
                0x00000000401b5fb1                EVP_PKEY_asn1_set_public
                0x00000000401b5fd3                EVP_PKEY_asn1_set_private
                0x00000000401b5fe5                EVP_PKEY_asn1_set_param
                0x00000000401b6010                EVP_PKEY_asn1_set_free
                0x00000000401b601d                EVP_PKEY_asn1_set_ctrl
                0x00000000401b6030                EVP_PKEY_sign_init
                0x00000000401b60a3                EVP_PKEY_sign
                0x00000000401b619d                EVP_PKEY_verify_init
                0x00000000401b6210                EVP_PKEY_verify
                0x00000000401b6281                EVP_PKEY_verify_recover_init
                0x00000000401b62f4                EVP_PKEY_verify_recover
                0x00000000401b63ee                EVP_PKEY_encrypt_init
                0x00000000401b6467                EVP_PKEY_encrypt
                0x00000000401b656a                EVP_PKEY_decrypt_init
                0x00000000401b65e3                EVP_PKEY_decrypt
                0x00000000401b66e6                EVP_PKEY_derive_init
                0x00000000401b675f                EVP_PKEY_derive_set_peer
                0x00000000401b693f                EVP_PKEY_derive
                0x00000000401b6b7c                ASN1_PCTX_new
                0x00000000401b6be8                ASN1_PCTX_free
                0x00000000401b6bf3                ASN1_PCTX_get_flags
                0x00000000401b6bfc                ASN1_PCTX_set_flags
                0x00000000401b6c05                ASN1_PCTX_get_nm_flags
                0x00000000401b6c0f                ASN1_PCTX_set_nm_flags
                0x00000000401b6c19                ASN1_PCTX_get_cert_flags
                0x00000000401b6c23                ASN1_PCTX_set_cert_flags
                0x00000000401b6c2d                ASN1_PCTX_get_oid_flags
                0x00000000401b6c37                ASN1_PCTX_set_oid_flags
                0x00000000401b6c41                ASN1_PCTX_get_str_flags
                0x00000000401b6c4b                ASN1_PCTX_set_str_flags
                0x00000000401b6c55                asn1_template_print_ctx
                0x00000000401b7577                ASN1_item_print
                0x00000000401b774a                EVP_DigestSignInit
                0x00000000401b775b                EVP_DigestVerifyInit
                0x00000000401b776c                EVP_DigestSignFinal
                0x00000000401b78b0                EVP_DigestVerifyFinal
                0x00000000401b7980                WHIRLPOOL_Init
                0x00000000401b799a                WHIRLPOOL_BitUpdate
                0x00000000401b7ca5                WHIRLPOOL_Update
                0x00000000401b7d6d                WHIRLPOOL_Final
                0x00000000401b7e77                WHIRLPOOL
                0x00000000401bb06c                DHparams_print
                0x00000000401bcebe                whirlpool_block
                0x00000000401bd9df                EVP_PKEY_paramgen_init
                0x00000000401bda52                EVP_PKEY_paramgen
                0x00000000401bdb0b                EVP_PKEY_keygen_init
                0x00000000401bdb7e                EVP_PKEY_keygen
                0x00000000401bdc37                EVP_PKEY_CTX_set_cb
                0x00000000401bdc41                EVP_PKEY_CTX_get_cb
                0x00000000401bdc4b                evp_pkey_set_cb_translate
                0x00000000401bdc63                EVP_PKEY_CTX_get_keygen_info
                0x00000000401bdc92                EVP_PKEY_new_mac_key
                0x00000000401bde09                CMS_SignedData_init
                0x00000000401bde1d                cms_set1_SignerIdentifier
                0x00000000401bdf32                cms_SignerIdentifier_get0_signer_id
                0x00000000401bdf83                cms_SignerIdentifier_cert_cmp
                0x00000000401be002                CMS_get0_SignerInfos
                0x00000000401be01d                CMS_get0_signers
                0x00000000401be0a5                CMS_SignerInfo_set1_signer_cert
                0x00000000401be106                CMS_SignerInfo_get0_signer_id
                0x00000000401be115                CMS_SignerInfo_cert_cmp
                0x00000000401be124                CMS_set1_signers_certs
                0x00000000401be251                CMS_SignerInfo_get0_algs
                0x00000000401be287                CMS_SignerInfo_sign
                0x00000000401be4e7                cms_SignedData_final
                0x00000000401be71e                CMS_SignerInfo_verify
                0x00000000401be849                cms_SignedData_init_bio
                0x00000000401bea0f                CMS_SignerInfo_verify_content
                0x00000000401bebe5                CMS_add_smimecap
                0x00000000401bec3c                CMS_add_simple_smimecap
                0x00000000401bed80                CMS_add_standard_smimecap
                0x00000000401bee97                CMS_add1_signer
                0x00000000401bf3da                CMS_get0_RecipientInfos
                0x00000000401bf3f5                CMS_RecipientInfo_type
                0x00000000401bf3fd                CMS_EnvelopedData_create
                0x00000000401bf4fb                CMS_add1_recipient_cert
                0x00000000401bf6f2                CMS_RecipientInfo_ktri_get0_algs
                0x00000000401bf757                CMS_RecipientInfo_ktri_get0_signer_id
                0x00000000401bf795                CMS_RecipientInfo_ktri_cert_cmp
                0x00000000401bf7d3                CMS_RecipientInfo_set0_pkey
                0x00000000401bf812                CMS_RecipientInfo_kekri_id_cmp
                0x00000000401bf871                CMS_add0_recipient_key
                0x00000000401bfaef                CMS_RecipientInfo_kekri_get0_id
                0x00000000401bfb96                CMS_RecipientInfo_set0_key
                0x00000000401bfbd9                CMS_RecipientInfo_decrypt
                0x00000000401bffad                cms_EnvelopedData_init_bio
                0x00000000401c0450                EC_KEY_print
                0x00000000401c04af                ECParameters_print
                0x00000000401c0511                ECPKParameters_print
                0x00000000401c1105                CMS_signed_get_attr_count
                0x00000000401c1114                CMS_signed_get_attr_by_NID
                0x00000000401c1123                CMS_signed_get_attr_by_OBJ
                0x00000000401c1132                CMS_signed_get_attr
                0x00000000401c1141                CMS_signed_delete_attr
                0x00000000401c1150                CMS_signed_add1_attr
                0x00000000401c1168                CMS_signed_add1_attr_by_OBJ
                0x00000000401c1180                CMS_signed_add1_attr_by_NID
                0x00000000401c1198                CMS_signed_add1_attr_by_txt
                0x00000000401c11b0                CMS_signed_get0_data_by_OBJ
                0x00000000401c11bf                CMS_unsigned_get_attr_count
                0x00000000401c11ce                CMS_unsigned_get_attr_by_NID
                0x00000000401c11dd                CMS_unsigned_get_attr_by_OBJ
                0x00000000401c11ec                CMS_unsigned_get_attr
                0x00000000401c11fb                CMS_unsigned_delete_attr
                0x00000000401c120a                CMS_unsigned_add1_attr
                0x00000000401c1222                CMS_unsigned_add1_attr_by_OBJ
                0x00000000401c123a                CMS_unsigned_add1_attr_by_NID
                0x00000000401c1252                CMS_unsigned_add1_attr_by_txt
                0x00000000401c126a                CMS_unsigned_get0_data_by_OBJ
                0x00000000401c13eb                d2i_CMS_ContentInfo
                0x00000000401c13fb                i2d_CMS_ContentInfo
                0x00000000401c140b                CMS_ContentInfo_new
                0x00000000401c141b                CMS_ContentInfo_free
                0x00000000401c142b                CMS_ContentInfo_print_ctx
                0x00000000401c143e                CMS_get0_type
                0x00000000401c1447                CMS_get0_content
                0x00000000401c1523                cms_content_bio
                0x00000000401c1573                CMS_dataInit
                0x00000000401c1665                CMS_dataFinal
                0x00000000401c17c9                CMS_get0_eContentType
                0x00000000401c17e3                CMS_set1_eContentType
                0x00000000401c1835                CMS_is_detached
                0x00000000401c1856                CMS_set_detached
                0x00000000401c18e3                cms_Data_create
                0x00000000401c191d                cms_DigestAlgorithm_set
                0x00000000401c1960                cms_DigestAlgorithm_init_bio
                0x00000000401c1a59                cms_DigestAlgorithm_find_ctx
                0x00000000401c1b39                CMS_add0_CertificateChoices
                0x00000000401c1bb1                CMS_add0_cert
                0x00000000401c1c6f                CMS_add1_cert
                0x00000000401c1caa                CMS_add0_RevocationInfoChoice
                0x00000000401c1d22                CMS_add0_crl
                0x00000000401c1d55                CMS_add1_crl
                0x00000000401c1d90                CMS_get1_certs
                0x00000000401c1e50                CMS_get1_crls
                0x00000000401c2049                cms_EncryptedContent_init_bio
                0x00000000401c2438                cms_EncryptedContent_init
                0x00000000401c24ae                CMS_EncryptedData_set1_key
                0x00000000401c25a2                cms_EncryptedData_init_bio
                0x00000000401c25ca                AES_wrap_key
                0x00000000401c26f4                AES_unwrap_key
                0x00000000401c284b                cms_DigestedData_create
                0x00000000401c28d1                cms_DigestedData_init_bio
                0x00000000401c28e4                cms_DigestedData_do_final
                0x00000000401c29f8                CMS_stream
                0x00000000401c2a76                d2i_CMS_bio
                0x00000000401c2a8c                i2d_CMS_bio
                0x00000000401c2aa2                PEM_read_bio_CMS
                0x00000000401c2ac3                PEM_write_bio_CMS
                0x00000000401c2b07                BIO_new_CMS
                0x00000000401c2b17                i2d_CMS_bio_stream
                0x00000000401c2b28                PEM_write_bio_CMS_stream
                0x00000000401c2b3f                SMIME_write_CMS
                0x00000000401c2bbd                SMIME_read_CMS
                0x00000000401c34d9                SMIME_read_ASN1
                0x00000000401c38f9                SMIME_crlf_copy
                0x00000000401c3a47                i2d_ASN1_bio_stream
                0x00000000401c3bb6                PEM_write_bio_ASN1_stream
                0x00000000401c3c2b                SMIME_write_ASN1
                0x00000000401c42d0                SMIME_text
                0x00000000401c4604                BIO_new_NDEF
                0x00000000401c4d7e                BIO_f_asn1
                0x00000000401c4d89                BIO_asn1_set_prefix
                0x00000000401c4dae                BIO_asn1_get_prefix
                0x00000000401c4dee                BIO_asn1_set_suffix
                0x00000000401c4e13                BIO_asn1_get_suffix
                0x00000000401c4e60                chelp_snprintf
                0x00000000401c4e9d                chelp_sprintf
                0x00000000401c4ee4                chelp_print
                0x00000000401c4efc                chelp_printf
                0x00000000401c4f64                chelp_mod_64_32_32
                0x00000000401c4f79                chelp_div_64_32_32
                0x00000000401c4f8c                chelp_div_64_32_64
                0x00000000401c4f9f                chelp_mul_64_64_64
                0x00000000401c4fac                BIO_printf
                0x00000000401c4fe9                BIO_snprintf
                0x00000000401c501f                chelp_abort
                0x00000000401c5032                RAND_poll
                0x00000000401c5051                InitCryptoLibrary
                0x00000000401c50d0                chelp_malloc
                0x00000000401c50e7                chelp_realloc
                0x00000000401c5111                chelp_free
                0x00000000401c5122                chelp_swap
                0x00000000401c5154                chelp_qsort
                0x00000000401c5533                chelp_bsearch
                0x00000000401c560a                chelp_memchr
                0x00000000401c564f                chelp_memmove
                0x00000000401c56d6                chelp_memcmp
                0x00000000401c5746                chelp_memcpy
                0x00000000401c5773                chelp_memset
                0x00000000401c57a0                chelp_isupper
                0x00000000401c57b3                chelp_islower
                0x00000000401c57c6                chelp_toupper
                0x00000000401c57d2                chelp_tolower
                0x00000000401c57de                chelp_isspace
                0x00000000401c57fc                chelp_isdigit
                0x00000000401c580f                chelp_isxdigit
                0x00000000401c5832                chelp_isalpha
                0x00000000401c5848                chelp_isalnum
                0x00000000401c5869                chelp_strtoul_ex
                0x00000000401c5a53                chelp_strtol
                0x00000000401c5a63                chelp_strtoul
                0x00000000401c5a73                chelp_strcpy
                0x00000000401c5aa3                chelp_strncpy
                0x00000000401c5b17                chelp_strcat
                0x00000000401c5b5c                chelp_strcmp
                0x00000000401c5bc0                chelp_strncmp
                0x00000000401c5d19                chelp_stricmp
                0x00000000401c5d59                chelp_strchr
                0x00000000401c5d97                chelp_strrchr
                0x00000000401c5dc7                chelp_strlen
                0x00000000401c5dfb                chelp_strncasecmp
                0x00000000401c5e52                decryptcfg
                0x00000000401c5ed1                ASN1_BIT_STRING_set
                0x00000000401c5edc                i2c_ASN1_BIT_STRING
                0x00000000401c5fdb                c2i_ASN1_BIT_STRING
                0x00000000401c614e                ASN1_BIT_STRING_set_bit
                0x00000000401c62bf                ASN1_BIT_STRING_get_bit
                0x00000000401c6315                ASN1_BIT_STRING_check
                0x00000000401c6380                d2i_ASN1_type_bytes
                0x00000000401c6527                i2d_ASN1_bytes
                0x00000000401c65cf                d2i_ASN1_bytes
                0x00000000401c6c1d                ASN1_d2i_bio
                0x00000000401c6c82                ASN1_item_d2i_bio
                0x00000000401c6ced                ASN1_digest
                0x00000000401c6da2                ASN1_item_digest
                0x00000000401c6e15                ASN1_dup
                0x00000000401c6ec4                ASN1_item_dup
                0x00000000401c6f50                ASN1_ENUMERATED_set
                0x00000000401c706b                ASN1_ENUMERATED_get
                0x00000000401c70f3                BN_to_ASN1_ENUMERATED
                0x00000000401c71f3                ASN1_ENUMERATED_to_BN
                0x00000000401c7260                ASN1_GENERALIZEDTIME_check
                0x00000000401c74e0                ASN1_GENERALIZEDTIME_set_string
                0x00000000401c754d                ASN1_GENERALIZEDTIME_adj
                0x00000000401c769c                ASN1_GENERALIZEDTIME_set
                0x00000000401c76c0                ASN1_i2d_bio
                0x00000000401c777e                ASN1_item_i2d_bio
                0x00000000401c7830                ASN1_INTEGER_dup
                0x00000000401c783b                ASN1_INTEGER_cmp
                0x00000000401c787b                i2c_ASN1_INTEGER
                0x00000000401c7a18                c2i_ASN1_INTEGER
                0x00000000401c7c01                d2i_ASN1_UINTEGER
                0x00000000401c7d6f                ASN1_INTEGER_set
                0x00000000401c7e8a                ASN1_INTEGER_get
                0x00000000401c7f16                BN_to_ASN1_INTEGER
                0x00000000401c802c                ASN1_INTEGER_to_BN
                0x00000000401c8090                i2d_ASN1_OBJECT
                0x00000000401c8123                a2d_ASN1_OBJECT
                0x00000000401c8634                i2t_ASN1_OBJECT
                0x00000000401c8644                i2a_ASN1_OBJECT
                0x00000000401c8716                ASN1_OBJECT_new
                0x00000000401c8787                ASN1_OBJECT_free
                0x00000000401c8800                c2i_ASN1_OBJECT
                0x00000000401c89a8                d2i_ASN1_OBJECT
                0x00000000401c8a34                ASN1_OBJECT_create
                0x00000000401c8a60                ASN1_OCTET_STRING_dup
                0x00000000401c8a6b                ASN1_OCTET_STRING_cmp
                0x00000000401c8a76                ASN1_OCTET_STRING_set
                0x00000000401c8a90                ASN1_sign
                0x00000000401c8d30                ASN1_item_sign
                0x00000000401c973c                X509_NAME_print_ex
                0x00000000401c9c13                ASN1_STRING_print_ex
                0x00000000401c9c29                ASN1_STRING_to_UTF8
                0x00000000401c9cb0                d2i_ASN1_TIME
                0x00000000401c9cc0                i2d_ASN1_TIME
                0x00000000401c9cd0                ASN1_TIME_new
                0x00000000401c9ce0                ASN1_TIME_free
                0x00000000401c9cf0                ASN1_TIME_adj
                0x00000000401c9da5                ASN1_TIME_set
                0x00000000401c9dba                ASN1_TIME_check
                0x00000000401c9dde                ASN1_TIME_to_generalizedtime
                0x00000000401c9ee6                ASN1_TIME_set_string
                0x00000000401c9f60                ASN1_TYPE_get
                0x00000000401c9f79                ASN1_TYPE_set
                0x00000000401c9fd2                ASN1_TYPE_set1
                0x00000000401ca050                ASN1_TYPE_cmp
                0x00000000401ca0b0                ASN1_UTCTIME_check
                0x00000000401ca2dc                ASN1_UTCTIME_set_string
                0x00000000401ca349                ASN1_UTCTIME_adj
                0x00000000401ca4c3                ASN1_UTCTIME_set
                0x00000000401ca4d8                ASN1_UTCTIME_cmp_time_t
                0x00000000401ca660                UTF8_getc
                0x00000000401ca9c0                UTF8_putc
                0x00000000401cac30                ASN1_verify
                0x00000000401cad8e                ASN1_item_verify
                0x00000000401caf80                AES_cbc_encrypt
                0x00000000401cafa3                AES_cfb128_encrypt
                0x00000000401cafc1                AES_cfb1_encrypt
                0x00000000401cafdf                AES_cfb8_encrypt
                0x00000000401cb000                AES_ecb_encrypt
                0x00000000401cb017                AES_ofb128_encrypt
                0x00000000401cb02e                ERR_load_ASN1_strings
                0x00000000401cb104                ASN1_check_infinite_end
                0x00000000401cb10f                ASN1_const_check_infinite_end
                0x00000000401cb11a                ASN1_get_object
                0x00000000401cb2be                ASN1_put_object
                0x00000000401cb3ed                ASN1_put_eoc
                0x00000000401cb409                ASN1_object_size
                0x00000000401cb43d                asn1_Finish
                0x00000000401cb448                asn1_const_Finish
                0x00000000401cb453                asn1_GetSequence
                0x00000000401cb4f0                ASN1_STRING_set
                0x00000000401cb5dc                ASN1_STRING_copy
                0x00000000401cb61b                ASN1_STRING_set0
                0x00000000401cb651                ASN1_STRING_type_new
                0x00000000401cb6bb                ASN1_STRING_new
                0x00000000401cb6cb                ASN1_STRING_free
                0x00000000401cb6ff                ASN1_STRING_dup
                0x00000000401cb750                ASN1_STRING_cmp
                0x00000000401cb789                asn1_add_error
                0x00000000401cb7f1                ASN1_STRING_length
                0x00000000401cb7f9                ASN1_STRING_length_set
                0x00000000401cb801                ASN1_STRING_type
                0x00000000401cb80a                ASN1_STRING_data
                0x00000000401cb820                ASN1_tag2str
                0x00000000401cc3e9                ASN1_parse
                0x00000000401cc415                ASN1_parse_dump
                0x00000000401cc454                BIO_dump_indent_cb
                0x00000000401cc84c                BIO_dump_cb
                0x00000000401cc85d                BIO_dump
                0x00000000401cc875                BIO_dump_indent
                0x00000000401cd248                BIO_f_buffer
                0x00000000401cd260                BF_cfb64_encrypt
                0x00000000401cd449                BF_options
                0x00000000401cd454                BF_ecb_encrypt
                0x00000000401cd503                BF_encrypt
                0x00000000401cd901                BF_decrypt
                0x00000000401cdcff                BF_cbc_encrypt
                0x00000000401ce2b2                BF_ofb64_encrypt
                0x00000000401ce442                BF_set_key
                0x00000000401cf1d4                BIO_f_base64
                0x00000000401cf892                BIO_f_cipher
                0x00000000401cf89d                BIO_set_cipher
                0x00000000401cf940                ERR_load_BIO_strings
                0x00000000401cfcd7                BIO_f_md
                0x00000000401cfcf0                BN_uadd
                0x00000000401cfe36                BN_usub
                0x00000000401d003d                BN_add
                0x00000000401d00ca                BN_sub
                0x00000000401d01af                bn_mul_add_words
                0x00000000401d03fa                bn_mul_words
                0x00000000401d0606                bn_sqr_words
                0x00000000401d0748                bn_div_words
                0x00000000401d0877                bn_add_words
                0x00000000401d0969                bn_sub_words
                0x00000000401d0a7a                bn_mul_comba8
                0x00000000401d243c                bn_mul_comba4
                0x00000000401d2a91                bn_sqr_comba8
                0x00000000401d3b8e                bn_sqr_comba4
                0x00000000401d3fc0                BN_BLINDING_free
                0x00000000401d4017                BN_BLINDING_new
                0x00000000401d40f1                BN_BLINDING_invert_ex
                0x00000000401d414e                BN_BLINDING_invert
                0x00000000401d4164                BN_BLINDING_get_thread_id
                0x00000000401d416e                BN_BLINDING_set_thread_id
                0x00000000401d4178                BN_BLINDING_thread_id
                0x00000000401d4182                BN_BLINDING_get_flags
                0x00000000401d418c                BN_BLINDING_set_flags
                0x00000000401d4196                BN_BLINDING_create_param
                0x00000000401d4327                BN_BLINDING_update
                0x00000000401d4419                BN_BLINDING_convert_ex
                0x00000000401d44d3                BN_BLINDING_convert
                0x00000000401d44e9                BN_CTX_init
                0x00000000401d4564                BN_CTX_new
                0x00000000401d45f9                BN_CTX_free
                0x00000000401d467b                BN_CTX_start
                0x00000000401d474b                BN_CTX_end
                0x00000000401d47ba                BN_CTX_get
                0x00000000401d4901                BN_div
                0x00000000401d5379                ERR_load_BN_strings
                0x00000000401d548e                BN_exp
                0x00000000401d5615                BN_mod_exp_recp
                0x00000000401d5ad4                BN_mod_exp_mont_consttime
                0x00000000401d60a1                BN_mod_exp_mont
                0x00000000401d665f                BN_mod_exp_mont_word
                0x00000000401d6ae3                BN_mod_exp
                0x00000000401d6b31                BN_mod_exp_simple
                0x00000000401d6fd0                BN_gcd
                0x00000000401d71e5                BN_mod_inverse
                0x00000000401d7bf0                BN_nnmod
                0x00000000401d7c46                BN_mod_add
                0x00000000401d7c81                BN_mod_add_quick
                0x00000000401d7cc0                BN_mod_sub
                0x00000000401d7cfb                BN_mod_sub_quick
                0x00000000401d7d2f                BN_mod_mul
                0x00000000401d7de0                BN_mod_sqr
                0x00000000401d7e23                BN_mod_lshift1
                0x00000000401d7e5e                BN_mod_lshift1_quick
                0x00000000401d7e9d                BN_mod_lshift_quick
                0x00000000401d7f8a                BN_mod_lshift
                0x00000000401d837e                BN_mod_mul_montgomery
                0x00000000401d842c                BN_from_montgomery
                0x00000000401d84a4                BN_MONT_CTX_init
                0x00000000401d84ed                BN_MONT_CTX_new
                0x00000000401d852b                BN_MONT_CTX_free
                0x00000000401d856c                BN_MONT_CTX_set
                0x00000000401d8756                BN_MONT_CTX_copy
                0x00000000401d87d6                BN_MONT_CTX_set_locked
                0x00000000401d88c0                bn_sub_part_words
                0x00000000401d8b18                bn_add_part_words
                0x00000000401d8e95                bn_mul_normal
                0x00000000401d8fd1                bn_mul_recursive
                0x00000000401d9455                bn_mul_high
                0x00000000401d98f5                bn_mul_part_recursive
                0x00000000401d9dbd                BN_mul
                0x00000000401da0f0                bn_mul_low_normal
                0x00000000401da1c1                bn_mul_low_recursive
                0x00000000401da3e9                BN_GENCB_call
                0x00000000401da439                BN_is_prime_fasttest_ex
                0x00000000401da938                BN_generate_prime_ex
                0x00000000401daf10                BN_is_prime_ex
                0x00000000401daf23                BN_RECP_CTX_init
                0x00000000401daf52                BN_RECP_CTX_new
                0x00000000401daf90                BN_RECP_CTX_free
                0x00000000401dafc4                BN_RECP_CTX_set
                0x00000000401db00c                BN_reciprocal
                0x00000000401db09b                BN_div_recp
                0x00000000401db341                BN_mod_mul_reciprocal
                0x00000000401db3fa                BN_lshift1
                0x00000000401db4c4                BN_rshift1
                0x00000000401db59b                BN_lshift
                0x00000000401db6fe                BN_rshift
                0x00000000401db880                bn_sqr_normal
                0x00000000401db95e                bn_sqr_recursive
                0x00000000401dbb1a                BN_sqr
                0x00000000401dbdd6                BIO_s_null
                0x00000000401dbde1                ERR_load_BUF_strings
                0x00000000401dbe20                CAST_cfb64_encrypt
                0x00000000401dc009                CAST_ecb_encrypt
                0x00000000401dc0b8                CAST_encrypt
                0x00000000401dc520                CAST_decrypt
                0x00000000401dc96f                CAST_cbc_encrypt
                0x00000000401dcf22                CAST_ofb64_encrypt
                0x00000000401dd0b2                CAST_set_key
                0x00000000401ddb30                DES_ede3_cfb64_encrypt
                0x00000000401ddd64                DES_ede3_cfb_encrypt
                0x00000000401de576                DES_cfb64_encrypt
                0x00000000401de79b                DES_cfb_encrypt
                0x00000000401dedc9                ERR_load_COMP_strings
                0x00000000401dedfe                ERR_load_CONF_strings
                0x00000000401dee33                ERR_load_CRYPTO_strings
                0x00000000401dee68                d2i_PrivateKey
                0x00000000401defc8                d2i_AutoPrivateKey
                0x00000000401df124                d2i_DHparams
                0x00000000401df134                i2d_DHparams
                0x00000000401df144                DHparams_dup
                0x00000000401df160                DH_check
                0x00000000401df28b                DH_check_pub_key
                0x00000000401df31b                ERR_load_DH_strings
                0x00000000401df350                DH_generate_parameters_ex
                0x00000000401df54d                EVP_MD_CTX_init
                0x00000000401df562                EVP_MD_CTX_create
                0x00000000401df599                EVP_DigestInit_ex
                0x00000000401df678                EVP_DigestInit
                0x00000000401df69f                EVP_DigestUpdate
                0x00000000401df6ab                EVP_DigestFinal_ex
                0x00000000401df73c                EVP_MD_CTX_cleanup
                0x00000000401df7d9                EVP_DigestFinal
                0x00000000401df7fb                EVP_MD_CTX_copy_ex
                0x00000000401df938                EVP_MD_CTX_copy
                0x00000000401df95a                EVP_Digest
                0x00000000401df9f2                EVP_MD_CTX_destroy
                0x00000000401dfacd                d2i_DSA_SIG
                0x00000000401dfadd                i2d_DSA_SIG
                0x00000000401dfaed                DSA_SIG_new
                0x00000000401dfafd                DSA_SIG_free
                0x00000000401dfb0d                d2i_DSAPrivateKey
                0x00000000401dfb1d                i2d_DSAPrivateKey
                0x00000000401dfb2d                d2i_DSAparams
                0x00000000401dfb3d                i2d_DSAparams
                0x00000000401dfb4d                d2i_DSAPublicKey
                0x00000000401dfb5d                i2d_DSAPublicKey
                0x00000000401dfb6d                DSAparams_dup
                0x00000000401dfb80                ERR_load_DSA_strings
                0x00000000401dfbc0                dsa_builtin_paramgen
                0x00000000401e0487                DSA_generate_parameters_ex
                0x00000000401e0520                DSA_generate_key
                0x00000000401e067c                DSA_set_default_method
                0x00000000401e0689                DSA_get_default_method
                0x00000000401e06b4                DSA_set_method
                0x00000000401e06ed                DSA_new_method
                0x00000000401e07f9                DSA_new
                0x00000000401e0809                DSA_free
                0x00000000401e08d8                DSA_up_ref
                0x00000000401e0905                DSA_size
                0x00000000401e095a                DSA_get_ex_new_index
                0x00000000401e0979                DSA_set_ex_data
                0x00000000401e0988                DSA_get_ex_data
                0x00000000401e0997                DSA_dup_DH
                0x00000000401e1347                DSA_OpenSSL
                0x00000000401e1352                DSA_do_sign
                0x00000000401e135f                DSA_sign
                0x00000000401e13d5                DSA_sign_setup
                0x00000000401e13e2                DSA_do_verify
                0x00000000401e13ef                DSA_verify
                0x00000000401e1469                ERR_load_DSO_strings
                0x00000000401e1dc3                EC_GROUP_get_basis_type
                0x00000000401e1e2a                EC_GROUP_get_trinomial_basis
                0x00000000401e1eac                EC_GROUP_get_pentanomial_basis
                0x00000000401e1f6f                X9_62_PENTANOMIAL_new
                0x00000000401e1f7f                X9_62_PENTANOMIAL_free
                0x00000000401e1f8f                X9_62_CHARACTERISTIC_TWO_new
                0x00000000401e1f9f                X9_62_CHARACTERISTIC_TWO_free
                0x00000000401e1faf                ECPARAMETERS_new
                0x00000000401e1fbf                ECPARAMETERS_free
                0x00000000401e1fcf                d2i_ECPKPARAMETERS
                0x00000000401e1fdf                i2d_ECPKPARAMETERS
                0x00000000401e1fef                ECPKPARAMETERS_new
                0x00000000401e1fff                ECPKPARAMETERS_free
                0x00000000401e2be9                d2i_EC_PRIVATEKEY
                0x00000000401e2bf9                i2d_EC_PRIVATEKEY
                0x00000000401e2c09                EC_PRIVATEKEY_new
                0x00000000401e2c19                EC_PRIVATEKEY_free
                0x00000000401e2c29                d2i_ECPKParameters
                0x00000000401e2ce4                i2d_ECPKParameters
                0x00000000401e2d76                d2i_ECPrivateKey
                0x00000000401e302d                i2d_ECPrivateKey
                0x00000000401e33a9                i2d_ECParameters
                0x00000000401e33e1                d2i_ECParameters
                0x00000000401e34d0                o2i_ECPublicKey
                0x00000000401e35c0                i2o_ECPublicKey
                0x00000000401e3720                EC_GROUP_new_by_curve_name
                0x00000000401e3c32                EC_get_builtin_curves
                0x00000000401e3c83                EC_GROUP_new_curve_GFp
                0x00000000401e3d71                EC_GROUP_new_curve_GF2m
                0x00000000401e3de4                ERR_load_EC_strings
                0x00000000401e3e20                EC_KEY_new
                0x00000000401e3ea0                EC_KEY_free
                0x00000000401e3f22                EC_KEY_new_by_curve_name
                0x00000000401e3f68                EC_KEY_copy
                0x00000000401e410f                EC_KEY_dup
                0x00000000401e4156                EC_KEY_up_ref
                0x00000000401e4183                EC_KEY_generate_key
                0x00000000401e4362                EC_KEY_check_key
                0x00000000401e4603                EC_KEY_get0_group
                0x00000000401e460d                EC_KEY_set_group
                0x00000000401e4642                EC_KEY_get0_private_key
                0x00000000401e464c                EC_KEY_set_private_key
                0x00000000401e4681                EC_KEY_get0_public_key
                0x00000000401e468b                EC_KEY_set_public_key
                0x00000000401e46c4                EC_KEY_get_enc_flags
                0x00000000401e46cd                EC_KEY_set_enc_flags
                0x00000000401e46d6                EC_KEY_get_conv_form
                0x00000000401e46df                EC_KEY_set_conv_form
                0x00000000401e46f7                EC_KEY_get_key_method_data
                0x00000000401e4706                EC_KEY_insert_key_method_data
                0x00000000401e4793                EC_KEY_set_asn1_flag
                0x00000000401e47a8                EC_KEY_precompute_mult
                0x00000000401e47d0                EC_GROUP_new
                0x00000000401e48e8                EC_GROUP_method_of
                0x00000000401e48f1                EC_METHOD_get_field_type
                0x00000000401e48f9                EC_GROUP_get0_generator
                0x00000000401e4903                EC_GROUP_get_order
                0x00000000401e4938                EC_GROUP_get_cofactor
                0x00000000401e496d                EC_GROUP_set_curve_name
                0x00000000401e4976                EC_GROUP_get_curve_name
                0x00000000401e497f                EC_GROUP_set_asn1_flag
                0x00000000401e4988                EC_GROUP_get_asn1_flag
                0x00000000401e4991                EC_GROUP_set_point_conversion_form
                0x00000000401e499a                EC_GROUP_get_point_conversion_form
                0x00000000401e49a3                EC_GROUP_set_seed
                0x00000000401e4a28                EC_GROUP_get0_seed
                0x00000000401e4a32                EC_GROUP_get_seed_len
                0x00000000401e4a3c                EC_GROUP_set_curve_GFp
                0x00000000401e4a76                EC_GROUP_get_curve_GFp
                0x00000000401e4ab1                EC_GROUP_set_curve_GF2m
                0x00000000401e4aeb                EC_GROUP_get_curve_GF2m
                0x00000000401e4b25                EC_GROUP_get_degree
                0x00000000401e4b61                EC_GROUP_check_discriminant
                0x00000000401e4b9b                EC_EX_DATA_set_data
                0x00000000401e4c6c                EC_EX_DATA_get_data
                0x00000000401e4ca5                EC_EX_DATA_free_data
                0x00000000401e4cf4                EC_EX_DATA_clear_free_data
                0x00000000401e4d43                EC_EX_DATA_free_all_data
                0x00000000401e4d8f                EC_EX_DATA_clear_free_all_data
                0x00000000401e4ddb                EC_POINT_new
                0x00000000401e4eae                EC_POINT_free
                0x00000000401e4edc                EC_GROUP_free
                0x00000000401e4f41                EC_POINT_clear_free
                0x00000000401e4f89                EC_GROUP_clear_free
                0x00000000401e5015                EC_POINT_copy
                0x00000000401e5081                EC_GROUP_copy
                0x00000000401e528d                EC_GROUP_dup
                0x00000000401e52e1                EC_GROUP_set_generator
                0x00000000401e53b7                EC_POINT_dup
                0x00000000401e540b                EC_POINT_method_of
                0x00000000401e5414                EC_POINT_set_to_infinity
                0x00000000401e5476                EC_POINT_set_Jprojective_coordinates_GFp
                0x00000000401e54dc                EC_POINT_get_Jprojective_coordinates_GFp
                0x00000000401e5542                EC_POINT_set_affine_coordinates_GFp
                0x00000000401e55ab                EC_POINT_set_affine_coordinates_GF2m
                0x00000000401e5614                EC_POINT_get_affine_coordinates_GFp
                0x00000000401e5681                EC_POINT_get_affine_coordinates_GF2m
                0x00000000401e56ea                EC_POINT_set_compressed_coordinates_GFp
                0x00000000401e5753                EC_POINT_set_compressed_coordinates_GF2m
                0x00000000401e57bc                EC_POINT_point2oct
                0x00000000401e5825                EC_POINT_oct2point
                0x00000000401e5891                EC_POINT_add
                0x00000000401e5904                EC_POINT_dbl
                0x00000000401e5971                EC_POINT_invert
                0x00000000401e59db                EC_POINT_is_at_infinity
                0x00000000401e5a41                EC_POINT_is_on_curve
                0x00000000401e5aa9                EC_POINT_cmp
                0x00000000401e5b16                EC_GROUP_cmp
                0x00000000401e5d81                EC_POINT_make_affine
                0x00000000401e5de9                EC_POINTs_make_affine
                0x00000000401e5e73                EC_POINTs_mul
                0x00000000401e5ea5                EC_POINT_mul
                0x00000000401e5eda                EC_GROUP_precompute_mult
                0x00000000401e5f07                EC_GROUP_have_precompute_mult
                0x00000000401e633c                ec_wNAF_mul
                0x00000000401e7189                ec_wNAF_precompute_mult
                0x00000000401e778b                ec_wNAF_have_precompute_mult
                0x00000000401e77b2                EC_POINT_point2bn
                0x00000000401e786b                EC_POINT_bn2point
                0x00000000401e797a                EC_POINT_point2hex
                0x00000000401e7a98                EC_POINT_hex2point
                0x00000000401e7af7                ERR_load_ECDH_strings
                0x00000000401e7b2c                ECDH_compute_key
                0x00000000401e7bc9                ECDH_set_default_method
                0x00000000401e7bd6                ECDH_get_default_method
                0x00000000401e7ca1                ecdh_check
                0x00000000401e7cfa                ECDH_set_method
                0x00000000401e7d27                ECDH_get_ex_new_index
                0x00000000401e7d46                ECDH_set_ex_data
                0x00000000401e7d77                ECDH_get_ex_data
                0x00000000401e816c                ECDH_OpenSSL
                0x00000000401e8177                ec_GFp_mont_group_init
                0x00000000401e81a5                ec_GFp_mont_group_finish
                0x00000000401e81f8                ec_GFp_mont_group_clear_finish
                0x00000000401e824b                ec_GFp_mont_group_copy
                0x00000000401e832f                ec_GFp_mont_field_mul
                0x00000000401e8378                ec_GFp_mont_field_sqr
                0x00000000401e83c1                ec_GFp_mont_field_encode
                0x00000000401e840e                ec_GFp_mont_group_set_curve
                0x00000000401e85af                ec_GFp_mont_field_decode
                0x00000000401e85f2                ec_GFp_mont_field_set_to_one
                0x00000000401e863c                EC_GFp_mont_method
                0x00000000401e8647                ec_GFp_nist_group_copy
                0x00000000401e8660                ec_GFp_nist_group_set_curve
                0x00000000401e87dc                ec_GFp_nist_field_mul
                0x00000000401e88b4                ec_GFp_nist_field_sqr
                0x00000000401e8974                EC_GFp_nist_method
                0x00000000401e8980                ec_GFp_simple_is_at_infinity
                0x00000000401e8990                ec_GFp_simple_group_init
                0x00000000401e89d3                ec_GFp_simple_point_init
                0x00000000401e8a0d                ec_GFp_simple_group_finish
                0x00000000401e8a41                ec_GFp_simple_point_finish
                0x00000000401e8a6f                ec_GFp_simple_group_clear_finish
                0x00000000401e8aa3                ec_GFp_simple_point_clear_finish
                0x00000000401e8ad8                ec_GFp_simple_group_copy
                0x00000000401e8b54                ec_GFp_simple_point_copy
                0x00000000401e8bbe                ec_GFp_simple_group_get_degree
                0x00000000401e8bcd                ec_GFp_simple_group_set_curve
                0x00000000401e8db1                ec_GFp_simple_group_get_curve
                0x00000000401e8f0c                ec_GFp_simple_set_Jprojective_coordinates_GFp
                0x00000000401e9109                ec_GFp_simple_get_Jprojective_coordinates_GFp
                0x00000000401e926f                ec_GFp_simple_field_sqr
                0x00000000401e9287                ec_GFp_simple_field_mul
                0x00000000401e92a2                ec_GFp_simple_group_check_discriminant
                0x00000000401e94e3                ec_GFp_simple_point_set_to_infinity
                0x00000000401e9503                ec_GFp_simple_point_set_affine_coordinates
                0x00000000401e957e                ec_GFp_simple_cmp
                0x00000000401e984b                ec_GFp_simple_point_get_affine_coordinates
                0x00000000401e9ba1                ec_GFp_simple_invert
                0x00000000401e9bdc                ec_GFp_simple_set_compressed_coordinates
                0x00000000401ea075                ec_GFp_simple_make_affine
                0x00000000401ea18b                ec_GFp_simple_point2oct
                0x00000000401ea4f4                ec_GFp_simple_is_on_curve
                0x00000000401ea81a                ec_GFp_simple_oct2point
                0x00000000401eab8f                ec_GFp_simple_add
                0x00000000401eb282                ec_GFp_simple_dbl
                0x00000000401eb80c                ec_GFp_simple_points_make_affine
                0x00000000401ebd92                EC_GFp_simple_method
                0x00000000401ebd9d                ERR_load_ECDSA_strings
                0x00000000401ebe19                ECDSA_set_default_method
                0x00000000401ebe26                ECDSA_get_default_method
                0x00000000401ebef1                ecdsa_check
                0x00000000401ebf4a                ECDSA_set_method
                0x00000000401ebf77                ECDSA_size
                0x00000000401ec031                ECDSA_get_ex_new_index
                0x00000000401ec050                ECDSA_set_ex_data
                0x00000000401ec081                ECDSA_get_ex_data
                0x00000000401ecdb6                ECDSA_OpenSSL
                0x00000000401ecdc1                ECDSA_do_sign_ex
                0x00000000401ece1a                ECDSA_do_sign
                0x00000000401ece32                ECDSA_sign_ex
                0x00000000401eceb0                ECDSA_sign
                0x00000000401eced2                ECDSA_sign_setup
                0x00000000401ecf17                ECDSA_do_verify
                0x00000000401ecf5f                ECDSA_verify
                0x00000000401ecfe0                EVP_EncodeInit
                0x00000000401ecffa                EVP_EncodeBlock
                0x00000000401ed13e                EVP_EncodeUpdate
                0x00000000401ed26a                EVP_EncodeFinal
                0x00000000401ed2b5                EVP_DecodeInit
                0x00000000401ed2d6                EVP_DecodeBlock
                0x00000000401ed483                EVP_DecodeUpdate
                0x00000000401ed79a                EVP_DecodeFinal
                0x00000000401ed7f0                EVP_set_pw_prompt
                0x00000000401ed81c                EVP_get_pw_prompt
                0x00000000401ed837                EVP_read_pw_string_min
                0x00000000401ed907                EVP_read_pw_string
                0x00000000401ed91f                EVP_BytesToKey
                0x00000000401edbfd                EVP_PBE_alg_add_type
                0x00000000401edcad                EVP_PBE_alg_add
                0x00000000401edd07                EVP_PBE_find
                0x00000000401eddc3                EVP_PBE_CipherInit
                0x00000000401edf92                EVP_PBE_cleanup
                0x00000000401edfb4                EVP_PKCS82PKEY
                0x00000000401ee0f7                EVP_PKEY2PKCS8_broken
                0x00000000401ee1fa                EVP_PKEY2PKCS8
                0x00000000401ee20a                PKCS8_set_broken
                0x00000000401ee25d                EVP_PKEY_get_attr_count
                0x00000000401ee26c                EVP_PKEY_get_attr_by_NID
                0x00000000401ee27b                EVP_PKEY_get_attr_by_OBJ
                0x00000000401ee28a                EVP_PKEY_get_attr
                0x00000000401ee299                EVP_PKEY_delete_attr
                0x00000000401ee2a8                EVP_PKEY_add1_attr
                0x00000000401ee2c0                EVP_PKEY_add1_attr_by_OBJ
                0x00000000401ee2d8                EVP_PKEY_add1_attr_by_NID
                0x00000000401ee2f0                EVP_PKEY_add1_attr_by_txt
                0x00000000401ee310                HMAC_Init_ex
                0x00000000401ee512                HMAC_Update
                0x00000000401ee521                HMAC_Final
                0x00000000401ee598                HMAC_CTX_init
                0x00000000401ee5c6                HMAC_Init
                0x00000000401ee60c                HMAC_CTX_copy
                0x00000000401ee686                HMAC_CTX_cleanup
                0x00000000401ee6c6                HMAC
                0x00000000401ee785                HMAC_CTX_set_flags
                0x00000000401ee7c0                i2d_PrivateKey
                0x00000000401ef1b5                RAND_SSLeay
                0x00000000401ef1ee                d2i_NETSCAPE_CERT_SEQUENCE
                0x00000000401ef1fe                i2d_NETSCAPE_CERT_SEQUENCE
                0x00000000401ef20e                NETSCAPE_CERT_SEQUENCE_new
                0x00000000401ef21e                NETSCAPE_CERT_SEQUENCE_free
                0x00000000401ef22e                OPENSSL_gmtime
                0x00000000401ef239                OPENSSL_gmtime_adj
                0x00000000401ef4d9                PKCS12_PBE_add
                0x00000000401ef4df                PKCS12_PBE_keyivgen
                0x00000000401ef6f0                PKCS12_key_gen_uni
                0x00000000401efc07                PKCS12_key_gen_asc
                0x00000000401efcd7                PKCS8_decrypt
                0x00000000401efcf9                OPENSSL_asc2uni
                0x00000000401efd8e                OPENSSL_uni2asc
                0x00000000401efe14                i2d_PKCS12_bio
                0x00000000401efe2a                d2i_PKCS12_bio
                0x00000000401efe40                PKCS12_x5092certbag
                0x00000000401efe5a                PKCS12_x509crl2certbag
                0x00000000401efe74                PKCS12_certbag2x509
                0x00000000401efecb                PKCS12_certbag2x509crl
                0x00000000401eff22                PKCS5_PBE_add
                0x00000000401eff28                PKCS5_PBE_keyivgen
                0x00000000401f0208                PKCS5_PBKDF2_HMAC
                0x00000000401f0407                PKCS5_PBKDF2_HMAC_SHA1
                0x00000000401f0462                PKCS5_v2_PBE_keyivgen
                0x00000000401f0852                d2i_PBEPARAM
                0x00000000401f0862                i2d_PBEPARAM
                0x00000000401f0872                PBEPARAM_new
                0x00000000401f0882                PBEPARAM_free
                0x00000000401f0892                PKCS5_pbe_set0_algor
                0x00000000401f0a3d                PKCS5_pbe_set
                0x00000000401f0ac7                d2i_PBE2PARAM
                0x00000000401f0ad7                i2d_PBE2PARAM
                0x00000000401f0ae7                PBE2PARAM_new
                0x00000000401f0af7                PBE2PARAM_free
                0x00000000401f0b07                d2i_PBKDF2PARAM
                0x00000000401f0b17                i2d_PBKDF2PARAM
                0x00000000401f0b27                PBKDF2PARAM_new
                0x00000000401f0b37                PBKDF2PARAM_free
                0x00000000401f0b47                PKCS5_pbe2_set_iv
                0x00000000401f1063                PKCS5_pbe2_set
                0x00000000401f10b2                d2i_PKCS8_PRIV_KEY_INFO
                0x00000000401f10c2                i2d_PKCS8_PRIV_KEY_INFO
                0x00000000401f10d2                PKCS8_PRIV_KEY_INFO_new
                0x00000000401f10e2                PKCS8_PRIV_KEY_INFO_free
                0x00000000401f10f2                PKCS8_pkey_set0
                0x00000000401f11ab                PKCS8_pkey_get0
                0x00000000401f1236                EVP_SignFinal
                0x00000000401f13fd                EVP_VerifyFinal
                0x00000000401f15a9                policy_cache_free
                0x00000000401f15e9                policy_cache_set
                0x00000000401f1978                policy_cache_find_data
                0x00000000401f19b3                policy_data_free
                0x00000000401f19f8                policy_data_new
                0x00000000401f1af3                policy_cache_set_mapping
                0x00000000401f1d42                X509_policy_tree_free
                0x00000000401f1dee                X509_policy_check
                0x00000000401f2791                d2i_PKCS8PrivateKey_bio
                0x00000000401f28a8                PEM_read_bio_PKCS8
                0x00000000401f28c9                PEM_write_bio_PKCS8
                0x00000000401f290d                PEM_read_bio_PKCS8_PRIV_KEY_INFO
                0x00000000401f292e                PEM_write_bio_PKCS8_PRIV_KEY_INFO
                0x00000000401f2b5c                PEM_write_bio_PKCS8PrivateKey_nid
                0x00000000401f2b8d                PEM_write_bio_PKCS8PrivateKey
                0x00000000401f2bbe                i2d_PKCS8PrivateKey_bio
                0x00000000401f2bef                i2d_PKCS8PrivateKey_nid_bio
                0x00000000401f2c20                PKCS7_add_attrib_smimecap
                0x00000000401f2c99                PKCS7_get_smimecap
                0x00000000401f2ce8                PKCS7_simple_smimecap
                0x00000000401f2e1d                PKCS7_add_attrib_content_type
                0x00000000401f2e6e                PKCS7_add0_attrib_signing_time
                0x00000000401f2ed1                PKCS7_add1_attrib_digest
                0x00000000401f47b2                RSA_PKCS1_SSLeay
                0x00000000401f47bd                RSA_padding_add_none
                0x00000000401f4829                RSA_padding_check_none
                0x00000000401f4899                PKCS1_MGF1
                0x00000000401f4a3e                RSA_padding_check_PKCS1_OAEP
                0x00000000401f4ccc                RSA_padding_add_PKCS1_OAEP
                0x00000000401f4ee0                RSA_padding_add_PKCS1_type_1
                0x00000000401f4f66                RSA_padding_check_PKCS1_type_1
                0x00000000401f50c3                RSA_padding_add_PKCS1_type_2
                0x00000000401f5182                RSA_padding_check_PKCS1_type_2
                0x00000000401f52b0                RSA_verify_PKCS1_PSS
                0x00000000401f563d                RSA_padding_add_PKCS1_PSS
                0x00000000401f5900                RSA_padding_add_SSLv23
                0x00000000401f59d0                RSA_padding_check_SSLv23
                0x00000000401f5b3e                RSA_padding_add_X931
                0x00000000401f5be0                RSA_padding_check_X931
                0x00000000401f5cfe                RSA_X931_hash_id
                0x00000000401f5d43                ASN1_bn_print
                0x00000000401f5f50                X509_ocspid_print
                0x00000000401f60c0                X509_signature_print
                0x00000000401f61c7                ASN1_STRING_print
                0x00000000401f628b                ASN1_GENERALIZEDTIME_print
                0x00000000401f650f                ASN1_UTCTIME_print
                0x00000000401f6684                ASN1_TIME_print
                0x00000000401f66bd                X509_print_ex
                0x00000000401f6c02                X509_print
                0x00000000401f6c17                X509_NAME_print
                0x00000000401f6d0c                X509_CERT_AUX_print
                0x00000000401f7283                UI_free
                0x00000000401f72c2                UI_add_input_string
                0x00000000401f72f3                UI_dup_input_string
                0x00000000401f738a                UI_add_verify_string
                0x00000000401f73bb                UI_dup_verify_string
                0x00000000401f7452                UI_add_input_boolean
                0x00000000401f747c                UI_dup_input_boolean
                0x00000000401f7607                UI_add_info_string
                0x00000000401f7644                UI_dup_info_string
                0x00000000401f76cb                UI_add_error_string
                0x00000000401f7708                UI_dup_error_string
                0x00000000401f778f                UI_construct_prompt
                0x00000000401f78b4                UI_add_user_data
                0x00000000401f78c2                UI_get0_user_data
                0x00000000401f78cc                UI_process
                0x00000000401f7a03                UI_ctrl
                0x00000000401f7a8a                UI_get_ex_new_index
                0x00000000401f7aa9                UI_set_ex_data
                0x00000000401f7ab8                UI_get_ex_data
                0x00000000401f7ac7                UI_set_default_method
                0x00000000401f7ad4                UI_get_default_method
                0x00000000401f7aff                UI_new_method
                0x00000000401f7b8d                UI_new
                0x00000000401f7b9d                UI_get_method
                0x00000000401f7ba6                UI_set_method
                0x00000000401f7bb2                UI_create_method
                0x00000000401f7bfd                UI_destroy_method
                0x00000000401f7c27                UI_method_set_opener
                0x00000000401f7c42                UI_method_set_writer
                0x00000000401f7c5d                UI_method_set_flusher
                0x00000000401f7c78                UI_method_set_reader
                0x00000000401f7c93                UI_method_set_closer
                0x00000000401f7cae                UI_method_set_prompt_constructor
                0x00000000401f7cc9                UI_method_get_opener
                0x00000000401f7cdf                UI_method_get_writer
                0x00000000401f7cf5                UI_method_get_flusher
                0x00000000401f7d0b                UI_method_get_reader
                0x00000000401f7d21                UI_method_get_closer
                0x00000000401f7d37                UI_method_get_prompt_constructor
                0x00000000401f7d4d                UI_get_string_type
                0x00000000401f7d61                UI_get_input_flags
                0x00000000401f7d76                UI_get0_output_string
                0x00000000401f7d8c                UI_get0_action_string
                0x00000000401f7db5                UI_get0_result_string
                0x00000000401f7ddc                UI_get0_result
                0x00000000401f7e5e                UI_get0_test_string
                0x00000000401f7e80                UI_get_result_minsize
                0x00000000401f7ea6                UI_get_result_maxsize
                0x00000000401f7ecc                UI_set_result
                0x00000000401f8395                UI_OpenSSL
                0x00000000401f83a0                d2i_AUTHORITY_KEYID
                0x00000000401f83b0                i2d_AUTHORITY_KEYID
                0x00000000401f83c0                AUTHORITY_KEYID_new
                0x00000000401f83d0                AUTHORITY_KEYID_free
                0x00000000401f866d                POLICYINFO_free
                0x00000000401f867d                d2i_CERTIFICATEPOLICIES
                0x00000000401f868d                i2d_CERTIFICATEPOLICIES
                0x00000000401f869d                CERTIFICATEPOLICIES_new
                0x00000000401f86ad                CERTIFICATEPOLICIES_free
                0x00000000401f86bd                d2i_POLICYINFO
                0x00000000401f86cd                i2d_POLICYINFO
                0x00000000401f86dd                POLICYINFO_new
                0x00000000401f86ed                d2i_POLICYQUALINFO
                0x00000000401f86fd                i2d_POLICYQUALINFO
                0x00000000401f870d                POLICYQUALINFO_new
                0x00000000401f871d                POLICYQUALINFO_free
                0x00000000401f872d                d2i_USERNOTICE
                0x00000000401f873d                i2d_USERNOTICE
                0x00000000401f874d                USERNOTICE_new
                0x00000000401f875d                USERNOTICE_free
                0x00000000401f876d                d2i_NOTICEREF
                0x00000000401f877d                i2d_NOTICEREF
                0x00000000401f878d                NOTICEREF_new
                0x00000000401f90c9                NOTICEREF_free
                0x00000000401f90d9                X509_POLICY_NODE_print
                0x00000000401f96ed                DIST_POINT_free
                0x00000000401f96fd                d2i_DIST_POINT_NAME
                0x00000000401f970d                i2d_DIST_POINT_NAME
                0x00000000401f971d                DIST_POINT_NAME_new
                0x00000000401f9925                DIST_POINT_NAME_free
                0x00000000401f9935                d2i_DIST_POINT
                0x00000000401f9945                i2d_DIST_POINT
                0x00000000401f9955                DIST_POINT_new
                0x00000000401f9c0a                d2i_CRL_DIST_POINTS
                0x00000000401f9c1a                i2d_CRL_DIST_POINTS
                0x00000000401f9c2a                CRL_DIST_POINTS_new
                0x00000000401f9c3a                CRL_DIST_POINTS_free
                0x00000000401f9c4a                d2i_ISSUING_DIST_POINT
                0x00000000401f9c5a                i2d_ISSUING_DIST_POINT
                0x00000000401f9c6a                ISSUING_DIST_POINT_new
                0x00000000401f9c7a                ISSUING_DIST_POINT_free
                0x00000000401f9e86                DIST_POINT_set_dpname
                0x00000000401f9f80                d2i_GENERAL_NAME
                0x00000000401f9f90                i2d_GENERAL_NAME
                0x00000000401f9fa0                d2i_OTHERNAME
                0x00000000401f9fb0                i2d_OTHERNAME
                0x00000000401f9fc0                OTHERNAME_new
                0x00000000401f9fd0                OTHERNAME_free
                0x00000000401f9fe0                d2i_EDIPARTYNAME
                0x00000000401f9ff0                i2d_EDIPARTYNAME
                0x00000000401fa000                EDIPARTYNAME_new
                0x00000000401fa010                EDIPARTYNAME_free
                0x00000000401fa020                GENERAL_NAME_new
                0x00000000401fa030                GENERAL_NAME_free
                0x00000000401fa040                d2i_GENERAL_NAMES
                0x00000000401fa050                i2d_GENERAL_NAMES
                0x00000000401fa060                GENERAL_NAMES_new
                0x00000000401fa070                GENERAL_NAMES_free
                0x00000000401fa080                GENERAL_NAME_dup
                0x00000000401fa098                OTHERNAME_cmp
                0x00000000401fa0da                GENERAL_NAME_cmp
                0x00000000401fa164                GENERAL_NAME_set0_value
                0x00000000401fa19c                GENERAL_NAME_get0_value
                0x00000000401fa1e2                GENERAL_NAME_set0_othername
                0x00000000401fa228                GENERAL_NAME_get0_otherName
                0x00000000401fa85b                GENERAL_SUBTREE_new
                0x00000000401fa86b                GENERAL_SUBTREE_free
                0x00000000401fa87b                NAME_CONSTRAINTS_new
                0x00000000401fa88b                NAME_CONSTRAINTS_free
                0x00000000401faa48                NAME_CONSTRAINTS_check
                0x00000000401fab72                POLICY_CONSTRAINTS_new
                0x00000000401fab82                POLICY_CONSTRAINTS_free
                0x00000000401fad89                POLICY_MAPPING_free
                0x00000000401fad99                POLICY_MAPPING_new
                0x00000000401fb038                X509V3_EXT_val_prn
                0x00000000401fb15f                X509V3_EXT_print
                0x00000000401fb32d                X509V3_extensions_print
                0x00000000401fb838                X509_PURPOSE_get_count
                0x00000000401fb858                X509_PURPOSE_get0
                0x00000000401fb891                X509_PURPOSE_get_by_sname
                0x00000000401fb8d3                X509_PURPOSE_get_by_id
                0x00000000401fb914                X509_PURPOSE_set
                0x00000000401fb960                X509_PURPOSE_add
                0x00000000401fbb1b                X509_PURPOSE_cleanup
                0x00000000401fbb5f                X509_PURPOSE_get_id
                0x00000000401fbb67                X509_PURPOSE_get0_name
                0x00000000401fbb71                X509_PURPOSE_get0_sname
                0x00000000401fbb7b                X509_PURPOSE_get_trust
                0x00000000401fbb84                X509_supported_extension
                0x00000000401fc0cf                X509_check_purpose
                0x00000000401fc162                X509_check_ca
                0x00000000401fc1bd                X509_check_akid
                0x00000000401fc2a0                X509_check_issued
                0x00000000401fc418                X509V3_conf_free
                0x00000000401fc517                X509V3_add_value
                0x00000000401fc63c                X509V3_add_value_uchar
                0x00000000401fc647                X509V3_add_value_bool
                0x00000000401fc667                X509V3_add_value_bool_nf
                0x00000000401fc681                i2s_ASN1_ENUMERATED
                0x00000000401fc6f1                i2s_ASN1_INTEGER
                0x00000000401fc761                s2i_ASN1_INTEGER
                0x00000000401fc8c2                X509V3_add_value_int
                0x00000000401fc91e                X509V3_get_value_bool
                0x00000000401fca8b                X509V3_get_value_int
                0x00000000401fcaf6                X509V3_parse_list
                0x00000000401fcd34                hex_to_string
                0x00000000401fcdef                string_to_hex
                0x00000000401fcfaf                name_cmp
                0x00000000401fd006                X509_email_free
                0x00000000401fd16b                X509_get1_email
                0x00000000401fd1b7                X509_REQ_get1_email
                0x00000000401fd224                X509_get1_ocsp
                0x00000000401fd2c0                a2i_ipadd
                0x00000000401fd403                a2i_IPADDRESS
                0x00000000401fd469                a2i_IPADDRESS_NC
                0x00000000401fd54e                X509V3_NAME_from_section
                0x00000000401fd640                X509at_get_attr_count
                0x00000000401fd64b                X509at_get_attr_by_OBJ
                0x00000000401fd6c0                X509at_get_attr_by_NID
                0x00000000401fd6f3                X509at_get_attr
                0x00000000401fd739                X509at_delete_attr
                0x00000000401fd77f                X509at_add1_attr
                0x00000000401fd86f                X509_ATTRIBUTE_set1_object
                0x00000000401fd8aa                X509_ATTRIBUTE_set1_data
                0x00000000401fda25                X509_ATTRIBUTE_create_by_OBJ
                0x00000000401fdaf1                X509at_add1_attr_by_OBJ
                0x00000000401fdb32                X509_ATTRIBUTE_create_by_NID
                0x00000000401fdbba                X509at_add1_attr_by_NID
                0x00000000401fdbfb                X509_ATTRIBUTE_create_by_txt
                0x00000000401fdca0                X509at_add1_attr_by_txt
                0x00000000401fdce1                X509_ATTRIBUTE_count
                0x00000000401fdd04                X509_ATTRIBUTE_get0_object
                0x00000000401fdd19                X509_ATTRIBUTE_get0_type
                0x00000000401fdd60                X509_ATTRIBUTE_get0_data
                0x00000000401fddba                X509at_get0_data_by_OBJ
                0x00000000401fde55                X509_CRL_get_ext_count
                0x00000000401fde67                X509_CRL_get_ext_by_NID
                0x00000000401fde79                X509_CRL_get_ext_by_OBJ
                0x00000000401fde8b                X509_CRL_get_ext_by_critical
                0x00000000401fde9d                X509_CRL_get_ext
                0x00000000401fdeaf                X509_CRL_delete_ext
                0x00000000401fdec1                X509_CRL_get_ext_d2i
                0x00000000401fded3                X509_CRL_add1_ext_i2d
                0x00000000401fdee5                X509_CRL_add_ext
                0x00000000401fdf00                X509_get_ext_count
                0x00000000401fdf12                X509_get_ext_by_NID
                0x00000000401fdf24                X509_get_ext_by_OBJ
                0x00000000401fdf36                X509_get_ext_by_critical
                0x00000000401fdf48                X509_get_ext
                0x00000000401fdf5a                X509_delete_ext
                0x00000000401fdf6c                X509_add_ext
                0x00000000401fdf87                X509_get_ext_d2i
                0x00000000401fdf99                X509_add1_ext_i2d
                0x00000000401fdfab                X509_REVOKED_get_ext_count
                0x00000000401fdfba                X509_REVOKED_get_ext_by_NID
                0x00000000401fdfc9                X509_REVOKED_get_ext_by_OBJ
                0x00000000401fdfd8                X509_REVOKED_get_ext_by_critical
                0x00000000401fdfe7                X509_REVOKED_get_ext
                0x00000000401fdff6                X509_REVOKED_delete_ext
                0x00000000401fe005                X509_REVOKED_add_ext
                0x00000000401fe01d                X509_REVOKED_get_ext_d2i
                0x00000000401fe02c                X509_REVOKED_add1_ext_i2d
                0x00000000401fe1ba                X509_LOOKUP_new
                0x00000000401fe236                X509_LOOKUP_free
                0x00000000401fe26a                X509_LOOKUP_init
                0x00000000401fe294                X509_LOOKUP_shutdown
                0x00000000401fe2c2                X509_LOOKUP_ctrl
                0x00000000401fe2eb                X509_LOOKUP_by_subject
                0x00000000401fe322                X509_LOOKUP_by_issuer_serial
                0x00000000401fe34b                X509_LOOKUP_by_fingerprint
                0x00000000401fe374                X509_LOOKUP_by_alias
                0x00000000401fe3a2                X509_STORE_new
                0x00000000401fe4a1                X509_STORE_free
                0x00000000401fe531                X509_STORE_add_lookup
                0x00000000401fe5b2                X509_OBJECT_up_ref_count
                0x00000000401fe60c                X509_OBJECT_free_contents
                0x00000000401fe634                X509_OBJECT_idx_by_subject
                0x00000000401fe644                X509_OBJECT_retrieve_by_subject
                0x00000000401fe672                X509_STORE_get_by_subject
                0x00000000401fe789                X509_STORE_get1_certs
                0x00000000401fe94c                X509_STORE_get1_crls
                0x00000000401feb08                X509_OBJECT_retrieve_match
                0x00000000401febde                X509_STORE_add_cert
                0x00000000401feced                X509_STORE_add_crl
                0x00000000401fedfc                X509_STORE_CTX_get1_issuer
                0x00000000401fefb4                X509_STORE_set_flags
                0x00000000401fefc3                X509_STORE_set_depth
                0x00000000401fefd7                X509_STORE_set_purpose
                0x00000000401fefe6                X509_STORE_set_trust
                0x00000000401feff5                X509_STORE_set1_param
                0x00000000401ff004                X509_STORE_set_verify_cb
                0x00000000401ff010                X509_to_X509_REQ
                0x00000000401ff111                X509_REQ_get_pubkey
                0x00000000401ff13b                X509_REQ_check_private_key
                0x00000000401ff273                X509_REQ_extension_nid
                0x00000000401ff2bc                X509_REQ_get_extension_nids
                0x00000000401ff2c9                X509_REQ_set_extension_nids
                0x00000000401ff2d6                X509_REQ_add_extensions_nid
                0x00000000401ff3e9                X509_REQ_add_extensions
                0x00000000401ff3f9                X509_REQ_get_attr_count
                0x00000000401ff40b                X509_REQ_get_attr_by_NID
                0x00000000401ff41d                X509_REQ_get_attr_by_OBJ
                0x00000000401ff42f                X509_REQ_get_attr
                0x00000000401ff441                X509_REQ_get_extensions
                0x00000000401ff53d                X509_REQ_delete_attr
                0x00000000401ff54f                X509_REQ_add1_attr
                0x00000000401ff56a                X509_REQ_add1_attr_by_OBJ
                0x00000000401ff585                X509_REQ_add1_attr_by_NID
                0x00000000401ff5a0                X509_REQ_add1_attr_by_txt
                0x00000000401ff745                X509_TRUST_set_default
                0x00000000401ff759                X509_TRUST_get_count
                0x00000000401ff779                X509_TRUST_get0
                0x00000000401ff7b1                X509_TRUST_get_by_id
                0x00000000401ff7f2                X509_check_trust
                0x00000000401ff84b                X509_TRUST_set
                0x00000000401ff897                X509_TRUST_add
                0x00000000401ffa35                X509_TRUST_cleanup
                0x00000000401ffa79                X509_TRUST_get_flags
                0x00000000401ffa82                X509_TRUST_get0_name
                0x00000000401ffa8c                X509_TRUST_get_trust
                0x00000000401ffaa0                X509v3_get_ext_count
                0x00000000401ffab6                X509v3_get_ext_by_OBJ
                0x00000000401ffb27                X509v3_get_ext_by_NID
                0x00000000401ffb5a                X509v3_get_ext_by_critical
                0x00000000401ffbd6                X509v3_get_ext
                0x00000000401ffc1c                X509v3_delete_ext
                0x00000000401ffc62                X509v3_add_ext
                0x00000000401ffd7b                X509_EXTENSION_set_object
                0x00000000401ffdb6                X509_EXTENSION_set_critical
                0x00000000401ffdd7                X509_EXTENSION_set_data
                0x00000000401ffe02                X509_EXTENSION_create_by_OBJ
                0x00000000401ffed4                X509_EXTENSION_create_by_NID
                0x00000000401fff4a                X509_EXTENSION_get_object
                0x00000000401fff5f                X509_EXTENSION_get_data
                0x00000000401fff75                X509_EXTENSION_get_critical
                0x00000000401fffa0                X509_NAME_entry_count
                0x00000000401fffb9                X509_NAME_get_index_by_OBJ
                0x0000000040200030                X509_NAME_get_index_by_NID
                0x0000000040200063                X509_NAME_get_entry
                0x00000000402000ac                X509_NAME_get_text_by_OBJ
                0x0000000040200127                X509_NAME_get_text_by_NID
                0x000000004020016c                X509_NAME_delete_entry
                0x000000004020024e                X509_NAME_add_entry
                0x00000000402003e6                X509_NAME_ENTRY_set_object
                0x0000000040200444                X509_NAME_ENTRY_set_data
                0x000000004020051f                X509_NAME_ENTRY_create_by_OBJ
                0x00000000402005cc                X509_NAME_add_entry_by_OBJ
                0x0000000040200620                X509_NAME_ENTRY_create_by_txt
                0x00000000402006c5                X509_NAME_add_entry_by_txt
                0x0000000040200719                X509_NAME_ENTRY_create_by_NID
                0x000000004020079c                X509_NAME_add_entry_by_NID
                0x00000000402007f0                X509_NAME_ENTRY_get_object
                0x0000000040200805                X509_NAME_ENTRY_get_data
                0x0000000040200820                X509_REQ_set_version
                0x000000004020083d                X509_REQ_set_subject_name
                0x0000000040200867                X509_REQ_set_pubkey
                0x0000000040200892                d2i_X509_VAL
                0x00000000402008a2                i2d_X509_VAL
                0x00000000402008b2                X509_VAL_new
                0x00000000402008c2                X509_VAL_free
                0x00000000402008d2                CRYPTO_cbc128_encrypt
                0x0000000040200a18                CRYPTO_cbc128_decrypt
                0x0000000040200d64                CRYPTO_cfb128_encrypt
                0x0000000040201013                CRYPTO_cfb128_1_encrypt
                0x00000000402010de                CRYPTO_cfb128_8_encrypt
                0x0000000040201149                CRYPTO_ofb128_encrypt
                0x0000000040201282                i2d_ASN1_BOOLEAN
                0x00000000402012fa                d2i_ASN1_BOOLEAN
                0x0000000040201625                ASN1_mbstring_ncopy
                0x0000000040201b43                ASN1_mbstring_copy
                0x0000000040201b60                ASN1_PRINTABLE_type
                0x0000000040201bef                ASN1_UNIVERSALSTRING_to_string
                0x0000000040201cf6                ASN1_STRING_set_default_mask
                0x0000000040201d03                ASN1_STRING_get_default_mask
                0x0000000040201d10                ASN1_STRING_set_default_mask_asc
                0x0000000040201dd7                ASN1_STRING_TABLE_get
                0x0000000040201e3d                ASN1_STRING_set_by_NID
                0x0000000040201eed                ASN1_STRING_TABLE_add
                0x0000000040202010                ASN1_STRING_TABLE_cleanup
                0x0000000040202040                ASN1_seq_unpack
                0x00000000402020a5                ASN1_seq_pack
                0x0000000040202199                ASN1_unpack_string
                0x00000000402021ec                ASN1_pack_string
                0x0000000040202309                ASN1_item_pack
                0x0000000040202418                ASN1_item_unpack
                0x0000000040202470                BN_mod_exp2_mont
                0x0000000040202d20                BN_kronecker
                0x0000000040202ffa                BN_get0_nist_prime_192
                0x0000000040203005                BN_get0_nist_prime_224
                0x0000000040203010                BN_get0_nist_prime_256
                0x000000004020301b                BN_get0_nist_prime_384
                0x0000000040203026                BN_get0_nist_prime_521
                0x0000000040203031                BN_nist_mod_192
                0x00000000402032a4                BN_nist_mod_224
                0x00000000402035df                BN_nist_mod_256
                0x0000000040203a74                BN_nist_mod_384
                0x000000004020400e                BN_nist_mod_521
                0x00000000402041f0                BN_mod_sqrt
                0x0000000040204b33                CONF_modules_load
                0x0000000040204fe0                CONF_modules_finish
                0x000000004020505a                CONF_modules_unload
                0x000000004020510c                CONF_module_add
                0x000000004020512e                CONF_modules_free
                0x0000000040205143                CONF_imodule_get_name
                0x000000004020514d                CONF_imodule_get_value
                0x0000000040205157                CONF_imodule_get_usr_data
                0x0000000040205161                CONF_imodule_set_usr_data
                0x000000004020516b                CONF_imodule_get_module
                0x0000000040205174                CONF_imodule_get_flags
                0x000000004020517e                CONF_imodule_set_flags
                0x0000000040205188                CONF_module_get_usr_data
                0x0000000040205192                CONF_module_set_usr_data
                0x000000004020519c                CONF_get1_default_config_file
                0x0000000040205219                CONF_modules_load_file
                0x00000000402052e1                CONF_parse_list
                0x0000000040205400                DSO_set_default_method
                0x000000004020540d                DSO_get_default_method
                0x000000004020541a                DSO_get_method
                0x0000000040205423                DSO_set_method
                0x000000004020542f                DSO_new_method
                0x000000004020552d                DSO_new
                0x000000004020553d                DSO_free
                0x000000004020564f                DSO_flags
                0x0000000040205664                DSO_up_ref
                0x00000000402056b6                DSO_bind_var
                0x0000000040205756                DSO_bind_func
                0x00000000402057f6                DSO_ctrl
                0x000000004020588b                DSO_set_name_converter
                0x00000000402058d0                DSO_get_filename
                0x0000000040205904                DSO_set_filename
                0x00000000402059f7                DSO_load
                0x0000000040205b96                DSO_merge
                0x0000000040205bf7                DSO_convert_filename
                0x0000000040205cf6                DSO_get_loaded_filename
                0x0000000040205d2a                DSO_pathbyaddr
                0x0000000040205d96                DSO_global_lookup
                0x0000000040205dee                DSO_METHOD_openssl
                0x0000000040205e00                ec_GF2m_simple_is_at_infinity
                0x0000000040205e10                ec_GF2m_simple_points_make_affine
                0x0000000040205e75                ec_GF2m_simple_group_init
                0x0000000040205eae                ec_GF2m_simple_point_init
                0x0000000040205ee1                ec_GF2m_simple_group_finish
                0x0000000040205f15                ec_GF2m_simple_point_finish
                0x0000000040205f43                ec_GF2m_simple_group_clear_finish
                0x0000000040205fb3                ec_GF2m_simple_point_clear_finish
                0x0000000040205fe8                ec_GF2m_simple_group_get_curve
                0x0000000040206068                ec_GF2m_simple_point_copy
                0x00000000402060d2                ec_GF2m_simple_group_copy
                0x000000004020627b                ec_GF2m_simple_group_set_curve
                0x0000000040206422                ec_GF2m_simple_group_get_degree
                0x0000000040206434                ec_GF2m_simple_group_check_discriminant
                0x00000000402064fe                ec_GF2m_simple_point_set_to_infinity
                0x000000004020651e                ec_GF2m_simple_point_set_affine_coordinates
                0x00000000402065f4                ec_GF2m_simple_point_get_affine_coordinates
                0x00000000402066e6                ec_GF2m_simple_is_on_curve
                0x0000000040206882                ec_GF2m_simple_set_compressed_coordinates
                0x0000000040206b11                ec_GF2m_simple_cmp
                0x0000000040206cab                ec_GF2m_simple_make_affine
                0x0000000040206dbe                ec_GF2m_simple_point2oct
                0x0000000040207168                ec_GF2m_simple_oct2point
                0x0000000040207512                ec_GF2m_simple_add
                0x00000000402079ac                ec_GF2m_simple_dbl
                0x00000000402079bd                ec_GF2m_simple_invert
                0x0000000040207a1a                ec_GF2m_simple_field_mul
                0x0000000040207a38                ec_GF2m_simple_field_sqr
                0x0000000040207a53                ec_GF2m_simple_field_div
                0x0000000040207a6e                EC_GF2m_simple_method
                0x0000000040207a79                d2i_ECDSA_SIG
                0x0000000040207a89                i2d_ECDSA_SIG
                0x0000000040207a99                ECDSA_SIG_new
                0x0000000040207aa9                ECDSA_SIG_free
                0x0000000040207acf                ERR_print_errors_cb
                0x0000000040207bc1                ERR_print_errors
                0x0000000040207bd4                PKCS12_item_pack_safebag
                0x0000000040207cc1                PKCS12_MAKE_KEYBAG
                0x0000000040207d17                PKCS12_MAKE_SHKEYBAG
                0x0000000040207e00                PKCS12_pack_p7data
                0x0000000040207ecb                PKCS12_unpack_p7data
                0x0000000040207f20                PKCS12_pack_p7encdata
                0x00000000402080b6                PKCS12_unpack_p7encdata
                0x0000000040208116                PKCS12_decrypt_skey
                0x0000000040208125                PKCS12_pack_authsafes
                0x000000004020814c                PKCS12_unpack_authsafes
                0x00000000402081a9                d2i_PKCS12
                0x00000000402081b9                i2d_PKCS12
                0x00000000402081c9                PKCS12_new
                0x00000000402081d9                PKCS12_free
                0x00000000402081e9                d2i_PKCS12_MAC_DATA
                0x00000000402081f9                i2d_PKCS12_MAC_DATA
                0x0000000040208209                PKCS12_MAC_DATA_new
                0x0000000040208219                PKCS12_MAC_DATA_free
                0x0000000040208229                d2i_PKCS12_BAGS
                0x0000000040208239                i2d_PKCS12_BAGS
                0x0000000040208249                PKCS12_BAGS_new
                0x0000000040208259                PKCS12_BAGS_free
                0x0000000040208269                d2i_PKCS12_SAFEBAG
                0x0000000040208279                i2d_PKCS12_SAFEBAG
                0x0000000040208289                PKCS12_SAFEBAG_new
                0x0000000040208299                PKCS12_SAFEBAG_free
                0x00000000402082a9                PKCS12_pbe_crypt
                0x0000000040208419                PKCS12_item_decrypt_d2i
                0x00000000402084e8                PKCS12_item_i2d_encrypt
                0x0000000040208614                PKCS8_encrypt
                0x000000004020873c                X509_policy_tree_level_count
                0x0000000040208751                X509_policy_tree_get0_level
                0x0000000040208782                X509_policy_tree_get0_policies
                0x0000000040208798                X509_policy_tree_get0_user_policies
                0x00000000402087ba                X509_policy_level_node_count
                0x00000000402087f3                X509_policy_level_get0_node
                0x000000004020881e                X509_policy_node_get0_policy
                0x0000000040208837                X509_policy_node_get0_qualifiers
                0x0000000040208850                X509_policy_node_get0_parent
                0x0000000040208885                policy_node_cmp_new
                0x0000000040208895                tree_find_sk
                0x00000000402088d3                level_find_node
                0x0000000040208946                level_add_node
                0x0000000040208a3c                policy_node_free
                0x0000000040208a47                policy_node_match
                0x0000000040208c52                i2v_GENERAL_NAME
                0x0000000040208ebe                i2v_GENERAL_NAMES
                0x0000000040208f19                GENERAL_NAME_print
                0x00000000402090b3                a2i_GENERAL_NAME
                0x0000000040209455                v2i_GENERAL_NAME_ex
                0x00000000402095b4                v2i_GENERAL_NAME
                0x0000000040209903                v2i_GENERAL_NAMES
                0x00000000402099f1                d2i_BASIC_CONSTRAINTS
                0x0000000040209a01                i2d_BASIC_CONSTRAINTS
                0x0000000040209a11                BASIC_CONSTRAINTS_new
                0x0000000040209a21                BASIC_CONSTRAINTS_free
                0x000000004020a198                X509V3_EXT_nconf
                0x000000004020a25d                X509V3_EXT_nconf_nid
                0x000000004020a2db                X509V3_EXT_i2d
                0x000000004020a33b                X509V3_EXT_add_nconf_sk
                0x000000004020a3e1                X509V3_EXT_add_nconf
                0x000000004020a3ff                X509V3_EXT_CRL_add_nconf
                0x000000004020a41d                X509V3_EXT_REQ_add_nconf
                0x000000004020a476                X509V3_get_string
                0x000000004020a4c1                X509V3_get_section
                0x000000004020a511                X509V3_string_free
                0x000000004020a530                X509V3_section_free
                0x000000004020a54f                X509V3_set_nconf
                0x000000004020a561                X509V3_set_ctx
                0x000000004020a57a                X509V3_EXT_conf
                0x000000004020a5b9                X509V3_EXT_conf_nid
                0x000000004020a5f8                X509V3_set_conf_lhash
                0x000000004020a60a                X509V3_EXT_add_conf
                0x000000004020a649                X509V3_EXT_CRL_add_conf
                0x000000004020a688                X509V3_EXT_REQ_add_conf
                0x000000004020a81b                ACCESS_DESCRIPTION_free
                0x000000004020a82b                d2i_ACCESS_DESCRIPTION
                0x000000004020a83b                i2d_ACCESS_DESCRIPTION
                0x000000004020a84b                ACCESS_DESCRIPTION_new
                0x000000004020aa6f                d2i_AUTHORITY_INFO_ACCESS
                0x000000004020aa7f                i2d_AUTHORITY_INFO_ACCESS
                0x000000004020aa8f                AUTHORITY_INFO_ACCESS_new
                0x000000004020aa9f                AUTHORITY_INFO_ACCESS_free
                0x000000004020aaaf                i2a_ACCESS_DESCRIPTION
                0x000000004020ab02                X509V3_EXT_add
                0x000000004020ab98                X509V3_EXT_get_nid
                0x000000004020ac16                X509V3_EXT_get
                0x000000004020ac34                X509V3_EXT_add_list
                0x000000004020ac6f                X509V3_EXT_add_alias
                0x000000004020ad6a                X509V3_EXT_cleanup
                0x000000004020ad8c                X509V3_add_standard_extensions
                0x000000004020ad97                X509V3_EXT_d2i
                0x000000004020adf2                X509V3_get_d2i
                0x000000004020af31                X509V3_add1_i2d
                0x000000004020bed2                d2i_PROXY_POLICY
                0x000000004020bee2                i2d_PROXY_POLICY
                0x000000004020bef2                PROXY_POLICY_new
                0x000000004020bf02                PROXY_POLICY_free
                0x000000004020bf12                d2i_PROXY_CERT_INFO_EXTENSION
                0x000000004020bf22                i2d_PROXY_CERT_INFO_EXTENSION
                0x000000004020bf32                PROXY_CERT_INFO_EXTENSION_new
                0x000000004020bf42                PROXY_CERT_INFO_EXTENSION_free
                0x000000004020bfe8                d2i_PKEY_USAGE_PERIOD
                0x000000004020bff8                i2d_PKEY_USAGE_PERIOD
                0x000000004020c008                PKEY_USAGE_PERIOD_new
                0x000000004020c018                PKEY_USAGE_PERIOD_free
                0x000000004020c028                i2s_ASN1_OCTET_STRING
                0x000000004020c03d                s2i_ASN1_OCTET_STRING
                0x000000004020c2de                d2i_SXNETID
                0x000000004020c2ee                i2d_SXNETID
                0x000000004020c2fe                SXNETID_new
                0x000000004020c30e                SXNETID_free
                0x000000004020c31e                d2i_SXNET
                0x000000004020c32e                i2d_SXNET
                0x000000004020c33e                SXNET_new
                0x000000004020c34e                SXNET_free
                0x000000004020c35e                SXNET_get_id_INTEGER
                0x000000004020c3b9                SXNET_add_id_INTEGER
                0x000000004020c569                SXNET_add_id_asc
                0x000000004020c634                SXNET_add_id_ulong
                0x000000004020c6c0                SXNET_get_id_asc
                0x000000004020c720                SXNET_get_id_ulong
                0x000000004020c7a6                X509_get_default_private_dir
                0x000000004020c7b1                X509_get_default_cert_area
                0x000000004020c7bc                X509_get_default_cert_dir
                0x000000004020c7c7                X509_get_default_cert_file
                0x000000004020c7d2                X509_get_default_cert_dir_env
                0x000000004020c7dd                X509_get_default_cert_file_env
                0x000000004020c825                i2d_ASN1_SET
                0x000000004020ca96                d2i_ASN1_SET
                0x000000004020d358                ASN1_generate_v3
                0x000000004020dc9a                ASN1_generate_nconf
                0x000000004020de9c                BN_GF2m_add
                0x000000004020df85                BN_GF2m_mod_arr
                0x000000004020e239                BN_GF2m_mod_sqr_arr
                0x000000004020e3d6                BN_GF2m_mod_mul_arr
                0x000000004020e644                BN_GF2m_mod_exp_arr
                0x000000004020e767                BN_GF2m_mod_sqrt_arr
                0x000000004020e7fe                BN_GF2m_mod_solve_quad_arr
                0x000000004020ebbb                BN_GF2m_poly2arr
                0x000000004020ec56                BN_GF2m_mod
                0x000000004020ed05                BN_GF2m_mod_inv
                0x000000004020eee7                BN_GF2m_mod_mul
                0x000000004020efa6                BN_GF2m_mod_div
                0x000000004020f035                BN_GF2m_mod_sqr
                0x000000004020f0ec                BN_GF2m_mod_exp
                0x000000004020f1ab                BN_GF2m_mod_sqrt
                0x000000004020f262                BN_GF2m_mod_solve_quad
                0x000000004020f319                BN_GF2m_arr2poly
                0x000000004020f37c                BN_GF2m_mod_inv_arr
                0x000000004020f3f6                BN_GF2m_mod_div_arr
                0x000000004020f480                CONF_set_nconf
                0x000000004020f4b9                CONF_set_default_method
                0x000000004020f4cb                CONF_load
                0x000000004020f4f5                NCONF_new
                0x000000004020f542                NCONF_free
                0x000000004020f554                NCONF_free_data
                0x000000004020f566                CONF_free
                0x000000004020f585                NCONF_load
                0x000000004020f5ba                NCONF_load_bio
                0x000000004020f5ef                CONF_load_bio
                0x000000004020f633                NCONF_get_section
                0x000000004020f691                CONF_get_section
                0x000000004020f6c9                NCONF_get_string
                0x000000004020f765                CONF_get_string
                0x000000004020f7a6                NCONF_get_number_e
                0x000000004020f843                CONF_get_number
                0x000000004020f8a1                NCONF_dump_bio
                0x000000004020f8d6                CONF_dump_bio
                0x000000004020f901                DSO_METHOD_null
                0x00000000402101d5                ec_GF2m_simple_mul
                0x0000000040210427                ec_GF2m_precompute_mult
                0x0000000040210432                ec_GF2m_have_precompute_mult
                0x0000000040210440                i2a_ASN1_INTEGER
                0x0000000040210586                a2i_ASN1_INTEGER
                0x000000004021086c                i2a_ASN1_STRING
                0x0000000040210985                a2i_ASN1_STRING
                0x0000000040210c34                d2i_OCSP_SIGNATURE
                0x0000000040210c44                i2d_OCSP_SIGNATURE
                0x0000000040210c54                OCSP_SIGNATURE_new
                0x0000000040210c64                OCSP_SIGNATURE_free
                0x0000000040210c74                d2i_OCSP_CERTID
                0x0000000040210c84                i2d_OCSP_CERTID
                0x0000000040210c94                OCSP_CERTID_new
                0x0000000040210ca4                OCSP_CERTID_free
                0x0000000040210cb4                d2i_OCSP_ONEREQ
                0x0000000040210cc4                i2d_OCSP_ONEREQ
                0x0000000040210cd4                OCSP_ONEREQ_new
                0x0000000040210ce4                OCSP_ONEREQ_free
                0x0000000040210cf4                d2i_OCSP_REQINFO
                0x0000000040210d04                i2d_OCSP_REQINFO
                0x0000000040210d14                OCSP_REQINFO_new
                0x0000000040210d24                OCSP_REQINFO_free
                0x0000000040210d34                d2i_OCSP_REQUEST
                0x0000000040210d44                i2d_OCSP_REQUEST
                0x0000000040210d54                OCSP_REQUEST_new
                0x0000000040210d64                OCSP_REQUEST_free
                0x0000000040210d74                d2i_OCSP_RESPBYTES
                0x0000000040210d84                i2d_OCSP_RESPBYTES
                0x0000000040210d94                OCSP_RESPBYTES_new
                0x0000000040210da4                OCSP_RESPBYTES_free
                0x0000000040210db4                d2i_OCSP_RESPONSE
                0x0000000040210dc4                i2d_OCSP_RESPONSE
                0x0000000040210dd4                OCSP_RESPONSE_new
                0x0000000040210de4                OCSP_RESPONSE_free
                0x0000000040210df4                d2i_OCSP_RESPID
                0x0000000040210e04                i2d_OCSP_RESPID
                0x0000000040210e14                OCSP_RESPID_new
                0x0000000040210e24                OCSP_RESPID_free
                0x0000000040210e34                d2i_OCSP_REVOKEDINFO
                0x0000000040210e44                i2d_OCSP_REVOKEDINFO
                0x0000000040210e54                OCSP_REVOKEDINFO_new
                0x0000000040210e64                OCSP_REVOKEDINFO_free
                0x0000000040210e74                d2i_OCSP_CERTSTATUS
                0x0000000040210e84                i2d_OCSP_CERTSTATUS
                0x0000000040210e94                OCSP_CERTSTATUS_new
                0x0000000040210ea4                OCSP_CERTSTATUS_free
                0x0000000040210eb4                d2i_OCSP_SINGLERESP
                0x0000000040210ec4                i2d_OCSP_SINGLERESP
                0x0000000040210ed4                OCSP_SINGLERESP_new
                0x0000000040210ee4                OCSP_SINGLERESP_free
                0x0000000040210ef4                d2i_OCSP_RESPDATA
                0x0000000040210f04                i2d_OCSP_RESPDATA
                0x0000000040210f14                OCSP_RESPDATA_new
                0x0000000040210f24                OCSP_RESPDATA_free
                0x0000000040210f34                d2i_OCSP_BASICRESP
                0x0000000040210f44                i2d_OCSP_BASICRESP
                0x0000000040210f54                OCSP_BASICRESP_new
                0x0000000040210f64                OCSP_BASICRESP_free
                0x0000000040210f74                d2i_OCSP_CRLID
                0x0000000040210f84                i2d_OCSP_CRLID
                0x0000000040210f94                OCSP_CRLID_new
                0x0000000040210fa4                OCSP_CRLID_free
                0x0000000040210fb4                d2i_OCSP_SERVICELOC
                0x0000000040210fc4                i2d_OCSP_SERVICELOC
                0x0000000040210fd4                OCSP_SERVICELOC_new
                0x0000000040210fe4                OCSP_SERVICELOC_free
                0x00000000402113aa                i2v_ASN1_BIT_STRING
                0x00000000402113ff                v2i_ASN1_BIT_STRING
                0x0000000040211580                i2s_ASN1_ENUMERATED_TABLE
                0x0000000040211747                d2i_EXTENDED_KEY_USAGE
                0x0000000040211757                i2d_EXTENDED_KEY_USAGE
                0x0000000040211767                EXTENDED_KEY_USAGE_new
                0x0000000040211777                EXTENDED_KEY_USAGE_free
                0x00000000402119c9                _CONF_get_section
                0x0000000040211a01                _CONF_get_section_values
                0x0000000040211a1c                _CONF_add_string
                0x0000000040211a96                _CONF_get_string
                0x0000000040211b2b                _CONF_new_data
                0x0000000040211b72                _CONF_free_data
                0x0000000040211bc3                _CONF_new_section
                0x0000000040212b90                NCONF_default
                0x0000000040212b9b                NCONF_WIN32
                0x0000000040212ba6                codeend = .

.iplt           0x0000000040212bb0        0x0 load address 0x0000000000212bb0
 .iplt          0x0000000000000000        0x0 output.o

.rodata         0x0000000040212bc0    0x3534c load address 0x0000000000212bc0
 .rodata        0x0000000040212bc0    0x3534c output.o
                0x00000000402211c0                BN_version
                0x00000000402214a0                DES_SPtrans
                0x00000000402224a0                DH_version
                0x0000000040223980                OSSL_DES_version
                0x00000000402239c0                OSSL_libdes_version
                0x0000000040223aa0                EVP_version
                0x0000000040223b60                IDEA_version
                0x0000000040223ba0                lh_version
                0x00000000402241e0                MD4_version
                0x0000000040224220                MD5_version
                0x0000000040230dc0                PEM_version
                0x0000000040230e00                PKCS7_ATTR_VERIFY_it
                0x0000000040230e80                PKCS7_ATTR_SIGN_it
                0x0000000040230f00                PKCS7_DIGEST_it
                0x0000000040230fe0                PKCS7_ENCRYPT_it
                0x0000000040231080                PKCS7_SIGN_ENVELOPE_it
                0x00000000402311e0                PKCS7_ENC_CONTENT_it
                0x00000000402312a0                PKCS7_RECIP_INFO_it
                0x00000000402313c0                PKCS7_ENVELOPE_it
                0x0000000040231480                PKCS7_ISSUER_AND_SERIAL_it
                0x0000000040231520                PKCS7_SIGNER_INFO_it
                0x00000000402316c0                PKCS7_SIGNED_it
                0x0000000040231800                PKCS7_it
                0x0000000040231b80                RC2_version
                0x0000000040231cc0                RC4_version
                0x0000000040231d00                RMD160_version
                0x0000000040231d40                RSAPublicKey_it
                0x0000000040231e20                RSAPrivateKey_it
                0x0000000040232020                RSA_version
                0x0000000040233220                SHA1_version
                0x0000000040233360                SHA256_version
                0x0000000040233620                SHA512_version
                0x0000000040233660                SHA_version
                0x00000000402336a0                STACK_version
                0x0000000040233900                ASN1_SET_ANY_it
                0x0000000040233980                ASN1_SEQUENCE_ANY_it
                0x0000000040233a00                ASN1_OCTET_STRING_NDEF_it
                0x0000000040233a40                ASN1_FBOOLEAN_it
                0x0000000040233a80                ASN1_TBOOLEAN_it
                0x0000000040233ac0                ASN1_BOOLEAN_it
                0x0000000040233b00                DIRECTORYSTRING_it
                0x0000000040233b40                DISPLAYTEXT_it
                0x0000000040233b80                ASN1_PRINTABLE_it
                0x0000000040233bc0                ASN1_SEQUENCE_it
                0x0000000040233c00                ASN1_ANY_it
                0x0000000040233c40                ASN1_BMPSTRING_it
                0x0000000040233c80                ASN1_UNIVERSALSTRING_it
                0x0000000040233cc0                ASN1_VISIBLESTRING_it
                0x0000000040233d00                ASN1_GENERALIZEDTIME_it
                0x0000000040233d40                ASN1_UTCTIME_it
                0x0000000040233d80                ASN1_GENERALSTRING_it
                0x0000000040233dc0                ASN1_IA5STRING_it
                0x0000000040233e00                ASN1_T61STRING_it
                0x0000000040233e40                ASN1_PRINTABLESTRING_it
                0x0000000040233e80                ASN1_UTF8STRING_it
                0x0000000040233ec0                ASN1_OBJECT_it
                0x0000000040233f00                ASN1_NULL_it
                0x0000000040233f40                ASN1_OCTET_STRING_it
                0x0000000040233f80                ASN1_BIT_STRING_it
                0x0000000040233fc0                ASN1_ENUMERATED_it
                0x0000000040234000                ASN1_INTEGER_it
                0x0000000040234060                X509_version
                0x00000000402341c0                X509_ALGORS_it
                0x0000000040234240                X509_ALGOR_it
                0x00000000402342e0                X509_ATTRIBUTE_it
                0x0000000040234380                X509_ATTRIBUTE_SET_it
                0x0000000040234420                CBIGNUM_it
                0x0000000040234460                BIGNUM_it
                0x00000000402344a0                X509_CRL_it
                0x00000000402345a0                X509_CRL_INFO_it
                0x0000000040234740                X509_REVOKED_it
                0x0000000040234800                X509_EXTENSIONS_it
                0x0000000040234880                X509_EXTENSION_it
                0x0000000040234940                ZLONG_it
                0x0000000040234980                LONG_it
                0x00000000402349c0                X509_NAME_it
                0x0000000040234a00                x509_name_ff
                0x0000000040234a40                X509_NAME_INTERNAL_it
                0x0000000040234ac0                X509_NAME_ENTRIES_it
                0x0000000040234b40                X509_NAME_ENTRY_it
                0x0000000040234be0                X509_PUBKEY_it
                0x0000000040234cc0                X509_REQ_it
                0x0000000040234dc0                X509_REQ_INFO_it
                0x0000000040234ee0                X509_SIG_it
                0x0000000040234f80                NETSCAPE_SPKI_it
                0x0000000040235040                NETSCAPE_SPKAC_it
                0x00000000402350e0                X509_it
                0x00000000402351e0                X509_CINF_it
                0x0000000040235400                X509_CERT_PAIR_it
                0x00000000402354a0                X509_CERT_AUX_it
                0x0000000040235a40                rsa_pkey_meth
                0x0000000040235b20                dh_pkey_meth
                0x0000000040235c00                dsa_pkey_meth
                0x0000000040235ce0                ec_pkey_meth
                0x0000000040235dc0                hmac_pkey_meth
                0x0000000040235ee0                rsa_asn1_meths
                0x0000000040236060                dh_asn1_meth
                0x0000000040236120                dsa_asn1_meths
                0x00000000402364c0                eckey_asn1_meth
                0x0000000040236580                hmac_asn1_meth
                0x00000000402376c0                CMS_Receipt_it
                0x00000000402377a0                CMS_ReceiptRequest_it
                0x0000000040237860                CMS_ReceiptsFrom_it
                0x0000000040237900                CMS_Attributes_Verify_it
                0x0000000040237980                CMS_Attributes_Sign_it
                0x0000000040237a00                CMS_ContentInfo_it
                0x0000000040237cc0                CMS_CompressedData_it
                0x0000000040237d80                CMS_AuthenticatedData_it
                0x0000000040237f40                CMS_EncryptedData_it
                0x0000000040238000                CMS_DigestedData_it
                0x00000000402380e0                CMS_EnvelopedData_it
                0x0000000040238200                CMS_RecipientInfo_it
                0x0000000040238360                CMS_OtherRecipientInfo_it
                0x0000000040238400                CMS_PasswordRecipientInfo_it
                0x00000000402384e0                CMS_KEKRecipientInfo_it
                0x00000000402385c0                CMS_KEKIdentifier_it
                0x0000000040238680                CMS_KeyAgreeRecipientInfo_it
                0x00000000402387a0                CMS_OriginatorIdentifierOrKey_it
                0x0000000040238860                CMS_OriginatorPublicKey_it
                0x0000000040238900                CMS_RecipientEncryptedKey_it
                0x00000000402389a0                CMS_KeyAgreeRecipientIdentifier_it
                0x0000000040238a40                CMS_RecipientKeyIdentifier_it
                0x0000000040238b00                CMS_OtherKeyAttribute_it
                0x0000000040238ba0                CMS_KeyTransRecipientInfo_it
                0x0000000040238c80                CMS_EncryptedContentInfo_it
                0x0000000040238d40                CMS_OriginatorInfo_it
                0x0000000040238de0                CMS_SignedData_it
                0x0000000040238f20                CMS_RevocationInfoChoice_it
                0x0000000040238fc0                CMS_OtherRevocationInfoFormat_it
                0x0000000040239060                CMS_SignerInfo_it
                0x0000000040239200                CMS_EncapsulatedContentInfo_it
                0x00000000402392a0                CMS_SignerIdentifier_it
                0x0000000040239340                CMS_CertificateChoices_it
                0x0000000040239460                CMS_OtherCertificateFormat_it
                0x0000000040239500                CMS_IssuerAndSerialNumber_it
                0x0000000040239780                ASN1_TIME_it
                0x0000000040239800                ASN1_version
                0x0000000040239940                BF_version
                0x000000004023bb60                CAST_version
                0x000000004023bc20                CAST_S_table7
                0x000000004023c020                CAST_S_table6
                0x000000004023c420                CAST_S_table5
                0x000000004023c820                CAST_S_table4
                0x000000004023cc20                CAST_S_table3
                0x000000004023d020                CAST_S_table2
                0x000000004023d420                CAST_S_table1
                0x000000004023d820                CAST_S_table0
                0x000000004023de60                DHparams_it
                0x000000004023df60                DSAPublicKey_it
                0x000000004023e040                dsa_pub_internal_it
                0x000000004023e120                DSAparams_it
                0x000000004023e220                DSAPrivateKey_it
                0x000000004023e3a0                DSA_SIG_it
                0x000000004023e480                DSA_version
                0x000000004023e4c0                EC_PRIVATEKEY_it
                0x000000004023e5a0                ECPKPARAMETERS_it
                0x000000004023e660                ECPARAMETERS_it
                0x000000004023e7a0                X9_62_CURVE_it
                0x000000004023e860                X9_62_FIELDID_it
                0x000000004023e9e0                X9_62_CHARACTERISTIC_TWO_it
                0x000000004023ebc0                X9_62_PENTANOMIAL_it
                0x0000000040242600                ECDH_version
                0x0000000040242a00                ECDSA_version
                0x0000000040242d00                RAND_version
                0x0000000040242d40                NETSCAPE_CERT_SEQUENCE_it
                0x0000000040242e20                PBEPARAM_it
                0x0000000040242ec0                PBKDF2PARAM_it
                0x0000000040242fa0                PBE2PARAM_it
                0x0000000040243040                PKCS8_PRIV_KEY_INFO_it
                0x0000000040243200                AUTHORITY_KEYID_it
                0x00000000402432c0                NOTICEREF_it
                0x0000000040243360                USERNOTICE_it
                0x0000000040243400                POLICYQUALINFO_it
                0x0000000040243580                POLICYINFO_it
                0x0000000040243620                CERTIFICATEPOLICIES_it
                0x00000000402436a0                v3_cpols
                0x0000000040243720                v3_idp
                0x00000000402437a0                ISSUING_DIST_POINT_it
                0x00000000402438e0                CRL_DIST_POINTS_it
                0x0000000040243960                DIST_POINT_it
                0x0000000040243a20                DIST_POINT_NAME_it
                0x0000000040243c00                v3_freshest_crl
                0x0000000040243c80                v3_crld
                0x0000000040243de0                GENERAL_NAMES_it
                0x0000000040243e60                GENERAL_NAME_it
                0x0000000040244020                EDIPARTYNAME_it
                0x00000000402440c0                OTHERNAME_it
                0x0000000040244160                NAME_CONSTRAINTS_it
                0x0000000040244200                GENERAL_SUBTREE_it
                0x00000000402442c0                v3_name_constraints
                0x0000000040244340                POLICY_CONSTRAINTS_it
                0x00000000402443e0                v3_policy_constraints
                0x0000000040244460                POLICY_MAPPINGS_it
                0x00000000402444e0                POLICY_MAPPING_it
                0x0000000040244580                v3_policy_mappings
                0x0000000040244660                X509_VAL_it
                0x0000000040245100                ECDSA_SIG_it
                0x00000000402451a0                PKCS12_AUTHSAFES_it
                0x0000000040245220                PKCS12_SAFEBAGS_it
                0x00000000402452a0                PKCS12_SAFEBAG_it
                0x0000000040245500                PKCS12_BAGS_it
                0x00000000402456c0                PKCS12_MAC_DATA_it
                0x0000000040245780                PKCS12_it
                0x0000000040245920                v3_alt
                0x0000000040245a60                BASIC_CONSTRAINTS_it
                0x0000000040245b00                v3_bcons
                0x0000000040245b80                AUTHORITY_INFO_ACCESS_it
                0x0000000040245c00                ACCESS_DESCRIPTION_it
                0x0000000040245ca0                v3_sinfo
                0x0000000040245d20                v3_info
                0x0000000040245da0                v3_ocsp_serviceloc
                0x0000000040245e20                v3_ocsp_nocheck
                0x0000000040245ea0                v3_ocsp_nonce
                0x0000000040245f20                v3_crl_hold
                0x0000000040245fa0                v3_crl_invdate
                0x0000000040246020                v3_ocsp_acutoff
                0x00000000402460a0                v3_ocsp_crlid
                0x0000000040246120                v3_pci
                0x00000000402461a0                PROXY_CERT_INFO_EXTENSION_it
                0x0000000040246240                PROXY_POLICY_it
                0x00000000402462e0                PKEY_USAGE_PERIOD_it
                0x0000000040246380                v3_pkey_usage_period
                0x0000000040246400                v3_skey_id
                0x0000000040246480                SXNET_it
                0x0000000040246520                SXNETID_it
                0x00000000402465c0                v3_sxnet
                0x0000000040246ae0                CONF_version
                0x0000000040246b20                OCSP_SERVICELOC_it
                0x0000000040246bc0                OCSP_CRLID_it
                0x0000000040246c80                OCSP_BASICRESP_it
                0x0000000040246d60                OCSP_RESPDATA_it
                0x0000000040246e80                OCSP_SINGLERESP_it
                0x0000000040246fa0                OCSP_CERTSTATUS_it
                0x0000000040247060                OCSP_REVOKEDINFO_it
                0x0000000040247100                OCSP_RESPID_it
                0x00000000402471a0                OCSP_RESPONSE_it
                0x0000000040247240                OCSP_RESPBYTES_it
                0x00000000402472e0                OCSP_REQUEST_it
                0x0000000040247380                OCSP_REQINFO_it
                0x0000000040247460                OCSP_ONEREQ_it
                0x0000000040247500                OCSP_CERTID_it
                0x00000000402475e0                OCSP_SIGNATURE_it
                0x00000000402476a0                v3_akey_id
                0x0000000040247720                v3_key_usage
                0x00000000402477a0                v3_nscert
                0x0000000040247820                v3_crl_reason
                0x00000000402478a0                EXTENDED_KEY_USAGE_it
                0x0000000040247920                v3_ocsp_accresp
                0x00000000402479a0                v3_ext_ku
                0x0000000040247a20                v3_ns_ia5_list
                0x0000000040247d60                v3_inhibit_anyp
                0x0000000040247de0                v3_delta_crl
                0x0000000040247e60                v3_crl_num
                0x0000000040247ee0                CONF_def_version

.rodata.str1.8  0x0000000040247f10     0x97c0 load address 0x0000000000247f10
 .rodata.str1.8
                0x0000000040247f10     0x97c0 output.o
                                       0x9ae5 (size before relaxing)

.rodata.str1.1  0x00000000402516d0    0x12b41 load address 0x00000000002516d0
 .rodata.str1.1
                0x00000000402516d0    0x12b41 output.o
                                      0x14f44 (size before relaxing)

.eh_frame       0x0000000040264218    0x37fe8 load address 0x0000000000264218
 .eh_frame      0x0000000040264218    0x37fe8 output.o

.eh_frame_hdr   0x000000004029c200        0x8 load address 0x000000000029c200
 .eh_frame_hdr  0x000000004029c200        0x8 output.o

.note.gnu.build-id
                0x000000004029c208      0x288 load address 0x000000000029c208
 .note.gnu.build-id
                0x000000004029c208      0x288 output.o

.rela.dyn       0x000000004029c490        0x0 load address 0x000000000029c490
 .rela.iplt     0x0000000000000000        0x0 output.o
 .rela.text     0x0000000000000000        0x0 output.o

.data           0x000000004029d000  0x974e000 load address 0x000000000029d000
                0x000000004029d000                data = .
 *(.data)
 .data          0x000000004029d000   0xb81688 output.o
                0x000000004029d020                config
                0x00000000402ad190                use_pae
                0x00000000402ad3b0                savemsr_index
                0x00000000402ae000                vmm_pml4
                0x00000000402af000                vmm_pdp
                0x00000000402b0000                vmm_pd
                0x00000000402b1000                vmm_pd1
                0x00000000402b2000                vmm_pd2
                0x00000000402b3000                guest_int0x15_hook
                0x00000000402b301d                guest_int0x15_e801_fake_ax
                0x00000000402b3020                guest_int0x15_e801_fake_bx
                0x00000000402b3031                guest_int0x15_orig
                0x00000000402b3046                guest_int0x15_e820_data_minus0x18
                0x00000000402b304e                guest_int0x15_e820_end
                0x00000000402b3074                guest_int0x15_hook_end
                0x00000000402b4078                wakeup_entry_start
                0x00000000402b4081                wakeup_entry_addr
                0x00000000402b40a7                wakeup_entry_cr4
                0x00000000402b40b0                wakeup_entry_cr3
                0x00000000402b40b9                wakeup_entry_cr0
                0x00000000402b40c8                wakeup_entry_gdtr
                0x00000000402b40d2                wakeup_entry_end
                0x00000000402b4160                ata_bm_handler_table
                0x00000000402b41c0                ata_ctlblk_handler_table
                0x00000000402b41e0                ata_cmdblk_handler_table
                0x00000000402b4c70                usb_log_level
                0x00000000402b5600                hSessionCnt
                0x00000000402b5608                hObjectCnt
                0x00000000402b5e00                g_rgSCardT1Pci
                0x00000000402b5e10                g_rgSCardT0Pci
                0x00000000402b5e20                FI
                0x00000000402b5e60                DI
                0x00000000402ba4a0                default_pctx
                0x00000000402bd720                rand_ssleay_meth
                0x0000000040e1e688                . = ALIGN (0x8)
                0x0000000040e1e688                __initfunc_start = .
 *(.initfunc)
 .initfunc      0x0000000040e1e688      0x640 output.o
                0x0000000040e1e688                __initfunc_acpi_init_paral
                0x0000000040e1e698                __initfunc_acpi_init_global
                0x0000000040e1e6a8                __initfunc_beep_init_msg
                0x0000000040e1e6b8                __initfunc_cache_init_pass
                0x0000000040e1e6c8                __initfunc_cache_init_vcpu
                0x0000000040e1e6d8                __initfunc_cache_init_pcpu
                0x0000000040e1e6e8                __initfunc_callrealmode_panic
                0x0000000040e1e6f8                __initfunc_callrealmode_init_global
                0x0000000040e1e708                __initfunc_cpu_mmu_spt_init_pcpu
                0x0000000040e1e718                __initfunc_cpu_mmu_spt_init_global
                0x0000000040e1e728                __initfunc_cpuid_init
                0x0000000040e1e738                __initfunc_cpuid_pass_init
                0x0000000040e1e748                __initfunc_exint_pass_init
                0x0000000040e1e758                __initfunc_gmm_pass_init
                0x0000000040e1e768                __initfunc_install_int0x15_hook
                0x0000000040e1e778                __initfunc_idman_init
                0x0000000040e1e788                __initfunc_idman_init_global
                0x0000000040e1e798                __initfunc_int_wakeup
                0x0000000040e1e7a8                __initfunc_int_init_global
                0x0000000040e1e7b8                __initfunc_io_io_init
                0x0000000040e1e7c8                __initfunc_setiohooks
                0x0000000040e1e7d8                __initfunc_io_iopass_init
                0x0000000040e1e7e8                __initfunc_keyboard_init_msg
                0x0000000040e1e7f8                __initfunc_localapic_init
                0x0000000040e1e808                __initfunc_get_shiftflags
                0x0000000040e1e818                __initfunc_copy_minios
                0x0000000040e1e828                __initfunc_print_boot_msg
                0x0000000040e1e838                __initfunc_debug_on_shift_key
                0x0000000040e1e848                __initfunc_create_pass_vm
                0x0000000040e1e858                __initfunc_virtualization_init_pcpu
                0x0000000040e1e868                __initfunc_unmap_user_area
                0x0000000040e1e878                __initfunc_mm_init_global
                0x0000000040e1e888                __initfunc_mmio_debug
                0x0000000040e1e898                __initfunc_mmio_init
                0x0000000040e1e8a8                __initfunc_msg_init_global
                0x0000000040e1e8b8                __initfunc_msr_init
                0x0000000040e1e8c8                __initfunc_msr_pass_init
                0x0000000040e1e8d8                __initfunc_nmi_pass_init_pcpu
                0x0000000040e1e8e8                __initfunc_nmi_pass_init
                0x0000000040e1e8f8                __initfunc_panic_init_pcpu
                0x0000000040e1e908                __initfunc_panic_init_msg
                0x0000000040e1e918                __initfunc_panic_init_global3
                0x0000000040e1e928                __initfunc_panic_init_global
                0x0000000040e1e938                __initfunc_printf_init_global
                0x0000000040e1e948                __initfunc_process_wakeup
                0x0000000040e1e958                __initfunc_process_init_ap
                0x0000000040e1e968                __initfunc_process_init_global
                0x0000000040e1e978                __initfunc_random_init_config0
                0x0000000040e1e988                __initfunc_random_init_global
                0x0000000040e1e998                __initfunc_reboot_init_msg
                0x0000000040e1e9a8                __initfunc_segment_init_global
                0x0000000040e1e9b8                __initfunc_serial_init_msg
                0x0000000040e1e9c8                __initfunc_sleep_init_msg
                0x0000000040e1e9d8                __initfunc_sleep_init_global
                0x0000000040e1e9e8                __initfunc_svm_panic
                0x0000000040e1e9f8                __initfunc_sx_init_pass_init
                0x0000000040e1ea08                __initfunc_thread_init_pcpu
                0x0000000040e1ea18                __initfunc_thread_init_global
                0x0000000040e1ea28                __initfunc_time_init_msg
                0x0000000040e1ea38                __initfunc_time_init_pcpu
                0x0000000040e1ea48                __initfunc_time_init_global_status
                0x0000000040e1ea58                __initfunc_time_init_global
                0x0000000040e1ea68                __initfunc_timer_init_global
                0x0000000040e1ea78                __initfunc_tty_init_msg
                0x0000000040e1ea88                __initfunc_tty_init_global2
                0x0000000040e1ea98                __initfunc_tty_init_global
                0x0000000040e1eaa8                __initfunc_vcpu_init_global
                0x0000000040e1eab8                __initfunc_vga_init
                0x0000000040e1eac8                __initfunc_vmmcall_init
                0x0000000040e1ead8                __initfunc_vmmcall_boot_init
                0x0000000040e1eae8                __initfunc_vmmcall_dbgsh_init_pcpu
                0x0000000040e1eaf8                __initfunc_vmmcall_dbgsh_init_global
                0x0000000040e1eb08                __initfunc_vmmcall_dbgsh_init
                0x0000000040e1eb18                __initfunc_vmmcall_iccard_init
                0x0000000040e1eb28                __initfunc_vmmcall_log_init
                0x0000000040e1eb38                __initfunc_vmmcall_status_init
                0x0000000040e1eb48                __initfunc_vmmcall_status_init_global
                0x0000000040e1eb58                __initfunc_vramwrite_init_bsp
                0x0000000040e1eb68                __initfunc_vramwrite_init_msg
                0x0000000040e1eb78                __initfunc_vt_register_status_callback
                0x0000000040e1eb88                __initfunc_vt_panic
                0x0000000040e1eb98                __initfunc_xsetbv_init
                0x0000000040e1eba8                __initfunc_xsetbv_pass_init
                0x0000000040e1ebb8                __initfunc_core_init
                0x0000000040e1ebc8                __initfunc_ieee1394_init_boot
                0x0000000040e1ebd8                __initfunc_ieee1394_init
                0x0000000040e1ebe8                __initfunc_iommu_setup
                0x0000000040e1ebf8                __initfunc_pci_init
                0x0000000040e1ec08                __initfunc_debug_ata_init
                0x0000000040e1ec18                __initfunc_ata_init
                0x0000000040e1ec28                __initfunc_uhci_init
                0x0000000040e1ec38                __initfunc_ehci_init
                0x0000000040e1ec48                __initfunc_pro100_init
                0x0000000040e1ec58                __initfunc_suspend_pro1000
                0x0000000040e1ec68                __initfunc_resume_pro1000
                0x0000000040e1ec78                __initfunc_vpn_pro1000_init
                0x0000000040e1ec88                __initfunc_storage_kernel_init
                0x0000000040e1ec98                __initfunc_storage_io_initfunc
                0x0000000040e1eca8                __initfunc_vpn_kernel_init
                0x0000000040e1ecb8                __initfunc_idman_kernel_init
                0x0000000040e1ecc8                __initfunc_end = .
                0x0000000040e1ecc8                __process_builtin = .
 *(.processes)
 .processes     0x0000000040e1ecc8      0x1a0 output.o
                0x0000000040e1ee68                __process_builtin_end = .
                0x0000000040e1ee68                bss = .
 *(.bss)
 *fill*         0x0000000040e1ee68       0x18 
 .bss           0x0000000040e1ee80  0x8bca7a8 output.o
                0x0000000040e226a0                vmmsize
                0x0000000040e226a8                memorysize
                0x00000000410a6140                pcpu_default
                0x00000000410c3964                ps2_locked
                0x00000000410c3e08                syscallHandlerAddress
                0x00000000410c3e20                numberOfVMs
                0x00000000410c3e28                numberOfProtectedApplications
                0x00000000410c3e30                currentRunningApplication
                0x00000000498c4560                handler_descriptor
                0x00000000498c4768                drhd_list_head
                0x00000000498c5fa0                pci_driver_list_head
                0x00000000498c5fa8                pci_device_list_head
                0x00000000498c6150                uhci_monitor_boost_hc
                0x00000000498c6168                usb_hc_list_head
                0x00000000498c6170                usb_busses_head
                0x00000000498cda68                rt
                0x00000000499e7490                hContext
                0x00000000499e7498                sessionTable
                0x00000000499e74a0                slotTable
                0x00000000499e74a8                slotFlag
                0x00000000499e74a9                libInitFlag
                0x00000000499e80f8                OPENSSL_NONPIC_relocated
                0x00000000499e8100                OPENSSL_ia32cap_P
                0x00000000499e8d48                cleanse_ctr
                0x00000000499e8da8                obj_cleanup_defer
                0x00000000499e8dc8                _shadow_DES_check_key
                0x00000000499e8eb8                app_pkey_methods
                0x00000000499e8f20                chelp_inited
 *(COMMON)
 *fill*         0x00000000499e9628       0x18 
 COMMON         0x00000000499e9640      0xec4 output.o
                0x00000000499e9640                clflush_size
                0x00000000499e9660                sReaderContext
                0x00000000499e96c0                sigx_app
                0x00000000499e96c8                num_dom
                0x00000000499e96e0                mszReaders
                0x00000000499e9ae0                prohibit_iccard_init
                0x00000000499e9ae8                curthread
                0x00000000499e9af0                sig_app
                0x00000000499e9b00                readerState
                0x00000000499e9b80                dom_io
                0x00000000499ea380                acpi_dsdt_system_state
                0x00000000499ea3a0                ehci_host
                0x00000000499ea3a8                num_of_processors
                0x00000000499ea3ac                e801_fake_bx
                0x00000000499ea3ae                iommu_detected
                0x00000000499ea3b0                dwReaders
                0x00000000499ea3c0                readerTracker
                0x00000000499ea500                handler_descriptor_lock
                0x00000000499ea502                e801_fake_ax
                0x00000000499eb000                . = ALIGN (0x1000)
 *fill*         0x00000000499ea504      0xafc 
                0x00000000499eb000                end = .

.igot.plt       0x00000000499eb000        0x0 load address 0x00000000099eb000
 .igot.plt      0x0000000000000000        0x0 output.o

/DISCARD/
 *(.gomi)
LOAD output.o
OUTPUT(bitvisor.elf elf64-x86-64)

.comment        0x0000000000000000       0x2b
 .comment       0x0000000000000000       0x2b output.o
                                       0x5fbc (size before relaxing)

.note.GNU-stack
                0x0000000000000000        0x0
 .note.GNU-stack
                0x0000000000000000        0x0 output.o

.debug_aranges  0x0000000000000000     0x6a20
 .debug_aranges
                0x0000000000000000     0x6a20 output.o

.debug_info     0x0000000000000000   0x35cfac
 .debug_info    0x0000000000000000   0x35cfac output.o

.debug_abbrev   0x0000000000000000    0x5691c
 .debug_abbrev  0x0000000000000000    0x5691c output.o

.debug_line     0x0000000000000000    0x4f6c4
 .debug_line    0x0000000000000000    0x4f6c4 output.o

.debug_str      0x0000000000000000    0x36dcc
 .debug_str     0x0000000000000000    0x36dcc output.o
                                     0x157c1b (size before relaxing)

.debug_loc      0x0000000000000000   0x27a0a6
 .debug_loc     0x0000000000000000   0x27a0a6 output.o

.debug_ranges   0x0000000000000000     0x5fa0
 .debug_ranges  0x0000000000000000     0x5fa0 output.o

Cross Reference Table

Symbol                                            File
ACCESS_DESCRIPTION_free                           output.o
ACCESS_DESCRIPTION_it                             output.o
ACCESS_DESCRIPTION_new                            output.o
AES_cbc_encrypt                                   output.o
AES_cfb128_encrypt                                output.o
AES_cfb1_encrypt                                  output.o
AES_cfb8_encrypt                                  output.o
AES_decrypt                                       output.o
AES_ecb_encrypt                                   output.o
AES_encrypt                                       output.o
AES_ofb128_encrypt                                output.o
AES_set_decrypt_key                               output.o
AES_set_encrypt_key                               output.o
AES_unwrap_key                                    output.o
AES_wrap_key                                      output.o
ASN1_ANY_it                                       output.o
ASN1_BIT_STRING_check                             output.o
ASN1_BIT_STRING_free                              output.o
ASN1_BIT_STRING_get_bit                           output.o
ASN1_BIT_STRING_it                                output.o
ASN1_BIT_STRING_new                               output.o
ASN1_BIT_STRING_set                               output.o
ASN1_BIT_STRING_set_bit                           output.o
ASN1_BMPSTRING_free                               output.o
ASN1_BMPSTRING_it                                 output.o
ASN1_BMPSTRING_new                                output.o
ASN1_BOOLEAN_it                                   output.o
ASN1_ENUMERATED_free                              output.o
ASN1_ENUMERATED_get                               output.o
ASN1_ENUMERATED_it                                output.o
ASN1_ENUMERATED_new                               output.o
ASN1_ENUMERATED_set                               output.o
ASN1_ENUMERATED_to_BN                             output.o
ASN1_FBOOLEAN_it                                  output.o
ASN1_GENERALIZEDTIME_adj                          output.o
ASN1_GENERALIZEDTIME_check                        output.o
ASN1_GENERALIZEDTIME_free                         output.o
ASN1_GENERALIZEDTIME_it                           output.o
ASN1_GENERALIZEDTIME_new                          output.o
ASN1_GENERALIZEDTIME_print                        output.o
ASN1_GENERALIZEDTIME_set                          output.o
ASN1_GENERALIZEDTIME_set_string                   output.o
ASN1_GENERALSTRING_free                           output.o
ASN1_GENERALSTRING_it                             output.o
ASN1_GENERALSTRING_new                            output.o
ASN1_IA5STRING_free                               output.o
ASN1_IA5STRING_it                                 output.o
ASN1_IA5STRING_new                                output.o
ASN1_INTEGER_cmp                                  output.o
ASN1_INTEGER_dup                                  output.o
ASN1_INTEGER_free                                 output.o
ASN1_INTEGER_get                                  output.o
ASN1_INTEGER_it                                   output.o
ASN1_INTEGER_new                                  output.o
ASN1_INTEGER_set                                  output.o
ASN1_INTEGER_to_BN                                output.o
ASN1_NULL_free                                    output.o
ASN1_NULL_it                                      output.o
ASN1_NULL_new                                     output.o
ASN1_OBJECT_create                                output.o
ASN1_OBJECT_free                                  output.o
ASN1_OBJECT_it                                    output.o
ASN1_OBJECT_new                                   output.o
ASN1_OCTET_STRING_NDEF_it                         output.o
ASN1_OCTET_STRING_cmp                             output.o
ASN1_OCTET_STRING_dup                             output.o
ASN1_OCTET_STRING_free                            output.o
ASN1_OCTET_STRING_it                              output.o
ASN1_OCTET_STRING_new                             output.o
ASN1_OCTET_STRING_set                             output.o
ASN1_PCTX_free                                    output.o
ASN1_PCTX_get_cert_flags                          output.o
ASN1_PCTX_get_flags                               output.o
ASN1_PCTX_get_nm_flags                            output.o
ASN1_PCTX_get_oid_flags                           output.o
ASN1_PCTX_get_str_flags                           output.o
ASN1_PCTX_new                                     output.o
ASN1_PCTX_set_cert_flags                          output.o
ASN1_PCTX_set_flags                               output.o
ASN1_PCTX_set_nm_flags                            output.o
ASN1_PCTX_set_oid_flags                           output.o
ASN1_PCTX_set_str_flags                           output.o
ASN1_PRINTABLESTRING_free                         output.o
ASN1_PRINTABLESTRING_it                           output.o
ASN1_PRINTABLESTRING_new                          output.o
ASN1_PRINTABLE_free                               output.o
ASN1_PRINTABLE_it                                 output.o
ASN1_PRINTABLE_new                                output.o
ASN1_PRINTABLE_type                               output.o
ASN1_SEQUENCE_ANY_it                              output.o
ASN1_SEQUENCE_it                                  output.o
ASN1_SET_ANY_it                                   output.o
ASN1_STRING_TABLE_add                             output.o
ASN1_STRING_TABLE_cleanup                         output.o
ASN1_STRING_TABLE_get                             output.o
ASN1_STRING_cmp                                   output.o
ASN1_STRING_copy                                  output.o
ASN1_STRING_data                                  output.o
ASN1_STRING_dup                                   output.o
ASN1_STRING_free                                  output.o
ASN1_STRING_get_default_mask                      output.o
ASN1_STRING_length                                output.o
ASN1_STRING_length_set                            output.o
ASN1_STRING_new                                   output.o
ASN1_STRING_print                                 output.o
ASN1_STRING_print_ex                              output.o
ASN1_STRING_set                                   output.o
ASN1_STRING_set0                                  output.o
ASN1_STRING_set_by_NID                            output.o
ASN1_STRING_set_default_mask                      output.o
ASN1_STRING_set_default_mask_asc                  output.o
ASN1_STRING_to_UTF8                               output.o
ASN1_STRING_type                                  output.o
ASN1_STRING_type_new                              output.o
ASN1_T61STRING_free                               output.o
ASN1_T61STRING_it                                 output.o
ASN1_T61STRING_new                                output.o
ASN1_TBOOLEAN_it                                  output.o
ASN1_TIME_adj                                     output.o
ASN1_TIME_check                                   output.o
ASN1_TIME_free                                    output.o
ASN1_TIME_it                                      output.o
ASN1_TIME_new                                     output.o
ASN1_TIME_print                                   output.o
ASN1_TIME_set                                     output.o
ASN1_TIME_set_string                              output.o
ASN1_TIME_to_generalizedtime                      output.o
ASN1_TYPE_cmp                                     output.o
ASN1_TYPE_free                                    output.o
ASN1_TYPE_get                                     output.o
ASN1_TYPE_get_int_octetstring                     output.o
ASN1_TYPE_get_octetstring                         output.o
ASN1_TYPE_new                                     output.o
ASN1_TYPE_set                                     output.o
ASN1_TYPE_set1                                    output.o
ASN1_TYPE_set_int_octetstring                     output.o
ASN1_TYPE_set_octetstring                         output.o
ASN1_UNIVERSALSTRING_free                         output.o
ASN1_UNIVERSALSTRING_it                           output.o
ASN1_UNIVERSALSTRING_new                          output.o
ASN1_UNIVERSALSTRING_to_string                    output.o
ASN1_UTCTIME_adj                                  output.o
ASN1_UTCTIME_check                                output.o
ASN1_UTCTIME_cmp_time_t                           output.o
ASN1_UTCTIME_free                                 output.o
ASN1_UTCTIME_it                                   output.o
ASN1_UTCTIME_new                                  output.o
ASN1_UTCTIME_print                                output.o
ASN1_UTCTIME_set                                  output.o
ASN1_UTCTIME_set_string                           output.o
ASN1_UTF8STRING_free                              output.o
ASN1_UTF8STRING_it                                output.o
ASN1_UTF8STRING_new                               output.o
ASN1_VISIBLESTRING_free                           output.o
ASN1_VISIBLESTRING_it                             output.o
ASN1_VISIBLESTRING_new                            output.o
ASN1_bn_print                                     output.o
ASN1_check_infinite_end                           output.o
ASN1_const_check_infinite_end                     output.o
ASN1_d2i_bio                                      output.o
ASN1_digest                                       output.o
ASN1_dup                                          output.o
ASN1_generate_nconf                               output.o
ASN1_generate_v3                                  output.o
ASN1_get_object                                   output.o
ASN1_i2d_bio                                      output.o
ASN1_item_d2i                                     output.o
ASN1_item_d2i_bio                                 output.o
ASN1_item_digest                                  output.o
ASN1_item_dup                                     output.o
ASN1_item_ex_d2i                                  output.o
ASN1_item_ex_free                                 output.o
ASN1_item_ex_i2d                                  output.o
ASN1_item_ex_new                                  output.o
ASN1_item_free                                    output.o
ASN1_item_i2d                                     output.o
ASN1_item_i2d_bio                                 output.o
ASN1_item_ndef_i2d                                output.o
ASN1_item_new                                     output.o
ASN1_item_pack                                    output.o
ASN1_item_print                                   output.o
ASN1_item_sign                                    output.o
ASN1_item_unpack                                  output.o
ASN1_item_verify                                  output.o
ASN1_mbstring_copy                                output.o
ASN1_mbstring_ncopy                               output.o
ASN1_object_size                                  output.o
ASN1_pack_string                                  output.o
ASN1_parse                                        output.o
ASN1_parse_dump                                   output.o
ASN1_primitive_free                               output.o
ASN1_primitive_new                                output.o
ASN1_put_eoc                                      output.o
ASN1_put_object                                   output.o
ASN1_seq_pack                                     output.o
ASN1_seq_unpack                                   output.o
ASN1_sign                                         output.o
ASN1_tag2bit                                      output.o
ASN1_tag2str                                      output.o
ASN1_template_d2i                                 output.o
ASN1_template_free                                output.o
ASN1_template_i2d                                 output.o
ASN1_template_new                                 output.o
ASN1_unpack_string                                output.o
ASN1_verify                                       output.o
ASN1_version                                      output.o
AUTHORITY_INFO_ACCESS_free                        output.o
AUTHORITY_INFO_ACCESS_it                          output.o
AUTHORITY_INFO_ACCESS_new                         output.o
AUTHORITY_KEYID_free                              output.o
AUTHORITY_KEYID_it                                output.o
AUTHORITY_KEYID_new                               output.o
AddCertDataByBuf                                  output.o
AddElem                                           output.o
AddIdPassDataByBuf                                output.o
AddObjTblByTlv                                    output.o
BASIC_CONSTRAINTS_free                            output.o
BASIC_CONSTRAINTS_it                              output.o
BASIC_CONSTRAINTS_new                             output.o
BF_cbc_encrypt                                    output.o
BF_cfb64_encrypt                                  output.o
BF_decrypt                                        output.o
BF_ecb_encrypt                                    output.o
BF_encrypt                                        output.o
BF_ofb64_encrypt                                  output.o
BF_options                                        output.o
BF_set_key                                        output.o
BF_version                                        output.o
BIGNUM_it                                         output.o
BIO_asn1_get_prefix                               output.o
BIO_asn1_get_suffix                               output.o
BIO_asn1_set_prefix                               output.o
BIO_asn1_set_suffix                               output.o
BIO_callback_ctrl                                 output.o
BIO_clear_flags                                   output.o
BIO_copy_next_retry                               output.o
BIO_ctrl                                          output.o
BIO_ctrl_pending                                  output.o
BIO_ctrl_wpending                                 output.o
BIO_dump                                          output.o
BIO_dump_cb                                       output.o
BIO_dump_indent                                   output.o
BIO_dump_indent_cb                                output.o
BIO_dup_chain                                     output.o
BIO_f_asn1                                        output.o
BIO_f_base64                                      output.o
BIO_f_buffer                                      output.o
BIO_f_cipher                                      output.o
BIO_f_md                                          output.o
BIO_find_type                                     output.o
BIO_free                                          output.o
BIO_free_all                                      output.o
BIO_get_callback                                  output.o
BIO_get_callback_arg                              output.o
BIO_get_ex_data                                   output.o
BIO_get_ex_new_index                              output.o
BIO_get_retry_BIO                                 output.o
BIO_get_retry_reason                              output.o
BIO_gets                                          output.o
BIO_indent                                        output.o
BIO_int_ctrl                                      output.o
BIO_method_name                                   output.o
BIO_method_type                                   output.o
BIO_new                                           output.o
BIO_new_CMS                                       output.o
BIO_new_NDEF                                      output.o
BIO_new_mem_buf                                   output.o
BIO_next                                          output.o
BIO_number_read                                   output.o
BIO_number_written                                output.o
BIO_pop                                           output.o
BIO_printf                                        output.o
BIO_ptr_ctrl                                      output.o
BIO_push                                          output.o
BIO_puts                                          output.o
BIO_read                                          output.o
BIO_s_mem                                         output.o
BIO_s_null                                        output.o
BIO_set                                           output.o
BIO_set_callback                                  output.o
BIO_set_callback_arg                              output.o
BIO_set_cipher                                    output.o
BIO_set_ex_data                                   output.o
BIO_set_flags                                     output.o
BIO_snprintf                                      output.o
BIO_test_flags                                    output.o
BIO_vfree                                         output.o
BIO_write                                         output.o
BN_BLINDING_convert                               output.o
BN_BLINDING_convert_ex                            output.o
BN_BLINDING_create_param                          output.o
BN_BLINDING_free                                  output.o
BN_BLINDING_get_flags                             output.o
BN_BLINDING_get_thread_id                         output.o
BN_BLINDING_invert                                output.o
BN_BLINDING_invert_ex                             output.o
BN_BLINDING_new                                   output.o
BN_BLINDING_set_flags                             output.o
BN_BLINDING_set_thread_id                         output.o
BN_BLINDING_thread_id                             output.o
BN_BLINDING_update                                output.o
BN_CTX_end                                        output.o
BN_CTX_free                                       output.o
BN_CTX_get                                        output.o
BN_CTX_init                                       output.o
BN_CTX_new                                        output.o
BN_CTX_start                                      output.o
BN_GENCB_call                                     output.o
BN_GF2m_add                                       output.o
BN_GF2m_arr2poly                                  output.o
BN_GF2m_mod                                       output.o
BN_GF2m_mod_arr                                   output.o
BN_GF2m_mod_div                                   output.o
BN_GF2m_mod_div_arr                               output.o
BN_GF2m_mod_exp                                   output.o
BN_GF2m_mod_exp_arr                               output.o
BN_GF2m_mod_inv                                   output.o
BN_GF2m_mod_inv_arr                               output.o
BN_GF2m_mod_mul                                   output.o
BN_GF2m_mod_mul_arr                               output.o
BN_GF2m_mod_solve_quad                            output.o
BN_GF2m_mod_solve_quad_arr                        output.o
BN_GF2m_mod_sqr                                   output.o
BN_GF2m_mod_sqr_arr                               output.o
BN_GF2m_mod_sqrt                                  output.o
BN_GF2m_mod_sqrt_arr                              output.o
BN_GF2m_poly2arr                                  output.o
BN_MONT_CTX_copy                                  output.o
BN_MONT_CTX_free                                  output.o
BN_MONT_CTX_init                                  output.o
BN_MONT_CTX_new                                   output.o
BN_MONT_CTX_set                                   output.o
BN_MONT_CTX_set_locked                            output.o
BN_RECP_CTX_free                                  output.o
BN_RECP_CTX_init                                  output.o
BN_RECP_CTX_new                                   output.o
BN_RECP_CTX_set                                   output.o
BN_add                                            output.o
BN_add_word                                       output.o
BN_asc2bn                                         output.o
BN_bin2bn                                         output.o
BN_bn2bin                                         output.o
BN_bn2dec                                         output.o
BN_bn2hex                                         output.o
BN_bntest_rand                                    output.o
BN_clear                                          output.o
BN_clear_bit                                      output.o
BN_clear_free                                     output.o
BN_cmp                                            output.o
BN_copy                                           output.o
BN_dec2bn                                         output.o
BN_div                                            output.o
BN_div_recp                                       output.o
BN_div_word                                       output.o
BN_dup                                            output.o
BN_exp                                            output.o
BN_free                                           output.o
BN_from_montgomery                                output.o
BN_gcd                                            output.o
BN_generate_prime_ex                              output.o
BN_get0_nist_prime_192                            output.o
BN_get0_nist_prime_224                            output.o
BN_get0_nist_prime_256                            output.o
BN_get0_nist_prime_384                            output.o
BN_get0_nist_prime_521                            output.o
BN_get_params                                     output.o
BN_get_word                                       output.o
BN_hex2bn                                         output.o
BN_init                                           output.o
BN_is_bit_set                                     output.o
BN_is_prime_ex                                    output.o
BN_is_prime_fasttest_ex                           output.o
BN_kronecker                                      output.o
BN_lshift                                         output.o
BN_lshift1                                        output.o
BN_mask_bits                                      output.o
BN_mod_add                                        output.o
BN_mod_add_quick                                  output.o
BN_mod_exp                                        output.o
BN_mod_exp2_mont                                  output.o
BN_mod_exp_mont                                   output.o
BN_mod_exp_mont_consttime                         output.o
BN_mod_exp_mont_word                              output.o
BN_mod_exp_recp                                   output.o
BN_mod_exp_simple                                 output.o
BN_mod_inverse                                    output.o
BN_mod_lshift                                     output.o
BN_mod_lshift1                                    output.o
BN_mod_lshift1_quick                              output.o
BN_mod_lshift_quick                               output.o
BN_mod_mul                                        output.o
BN_mod_mul_montgomery                             output.o
BN_mod_mul_reciprocal                             output.o
BN_mod_sqr                                        output.o
BN_mod_sqrt                                       output.o
BN_mod_sub                                        output.o
BN_mod_sub_quick                                  output.o
BN_mod_word                                       output.o
BN_mul                                            output.o
BN_mul_word                                       output.o
BN_new                                            output.o
BN_nist_mod_192                                   output.o
BN_nist_mod_224                                   output.o
BN_nist_mod_256                                   output.o
BN_nist_mod_384                                   output.o
BN_nist_mod_521                                   output.o
BN_nnmod                                          output.o
BN_num_bits                                       output.o
BN_num_bits_word                                  output.o
BN_options                                        output.o
BN_print                                          output.o
BN_pseudo_rand                                    output.o
BN_pseudo_rand_range                              output.o
BN_rand                                           output.o
BN_rand_range                                     output.o
BN_reciprocal                                     output.o
BN_rshift                                         output.o
BN_rshift1                                        output.o
BN_set_bit                                        output.o
BN_set_negative                                   output.o
BN_set_params                                     output.o
BN_set_word                                       output.o
BN_sqr                                            output.o
BN_sub                                            output.o
BN_sub_word                                       output.o
BN_swap                                           output.o
BN_to_ASN1_ENUMERATED                             output.o
BN_to_ASN1_INTEGER                                output.o
BN_uadd                                           output.o
BN_ucmp                                           output.o
BN_usub                                           output.o
BN_value_one                                      output.o
BN_version                                        output.o
BUF_MEM_free                                      output.o
BUF_MEM_grow                                      output.o
BUF_MEM_grow_clean                                output.o
BUF_MEM_new                                       output.o
BUF_memdup                                        output.o
BUF_reverse                                       output.o
BUF_strdup                                        output.o
BUF_strlcat                                       output.o
BUF_strlcpy                                       output.o
BUF_strndup                                       output.o
BlockSendCardT1                                   output.o
CAST_S_table0                                     output.o
CAST_S_table1                                     output.o
CAST_S_table2                                     output.o
CAST_S_table3                                     output.o
CAST_S_table4                                     output.o
CAST_S_table5                                     output.o
CAST_S_table6                                     output.o
CAST_S_table7                                     output.o
CAST_cbc_encrypt                                  output.o
CAST_cfb64_encrypt                                output.o
CAST_decrypt                                      output.o
CAST_ecb_encrypt                                  output.o
CAST_encrypt                                      output.o
CAST_ofb64_encrypt                                output.o
CAST_set_key                                      output.o
CAST_version                                      output.o
CBIGNUM_it                                        output.o
CERTIFICATEPOLICIES_free                          output.o
CERTIFICATEPOLICIES_it                            output.o
CERTIFICATEPOLICIES_new                           output.o
CMS_Attributes_Sign_it                            output.o
CMS_Attributes_Verify_it                          output.o
CMS_AuthenticatedData_it                          output.o
CMS_CertificateChoices_it                         output.o
CMS_CompressedData_it                             output.o
CMS_ContentInfo_free                              output.o
CMS_ContentInfo_it                                output.o
CMS_ContentInfo_new                               output.o
CMS_ContentInfo_print_ctx                         output.o
CMS_DigestedData_it                               output.o
CMS_EncapsulatedContentInfo_it                    output.o
CMS_EncryptedContentInfo_it                       output.o
CMS_EncryptedData_it                              output.o
CMS_EncryptedData_set1_key                        output.o
CMS_EnvelopedData_create                          output.o
CMS_EnvelopedData_it                              output.o
CMS_IssuerAndSerialNumber_it                      output.o
CMS_KEKIdentifier_it                              output.o
CMS_KEKRecipientInfo_it                           output.o
CMS_KeyAgreeRecipientIdentifier_it                output.o
CMS_KeyAgreeRecipientInfo_it                      output.o
CMS_KeyTransRecipientInfo_it                      output.o
CMS_OriginatorIdentifierOrKey_it                  output.o
CMS_OriginatorInfo_it                             output.o
CMS_OriginatorPublicKey_it                        output.o
CMS_OtherCertificateFormat_it                     output.o
CMS_OtherKeyAttribute_it                          output.o
CMS_OtherRecipientInfo_it                         output.o
CMS_OtherRevocationInfoFormat_it                  output.o
CMS_PasswordRecipientInfo_it                      output.o
CMS_ReceiptRequest_it                             output.o
CMS_Receipt_it                                    output.o
CMS_ReceiptsFrom_it                               output.o
CMS_RecipientEncryptedKey_it                      output.o
CMS_RecipientInfo_decrypt                         output.o
CMS_RecipientInfo_it                              output.o
CMS_RecipientInfo_kekri_get0_id                   output.o
CMS_RecipientInfo_kekri_id_cmp                    output.o
CMS_RecipientInfo_ktri_cert_cmp                   output.o
CMS_RecipientInfo_ktri_get0_algs                  output.o
CMS_RecipientInfo_ktri_get0_signer_id             output.o
CMS_RecipientInfo_set0_key                        output.o
CMS_RecipientInfo_set0_pkey                       output.o
CMS_RecipientInfo_type                            output.o
CMS_RecipientKeyIdentifier_it                     output.o
CMS_RevocationInfoChoice_it                       output.o
CMS_SignedData_init                               output.o
CMS_SignedData_it                                 output.o
CMS_SignerIdentifier_it                           output.o
CMS_SignerInfo_cert_cmp                           output.o
CMS_SignerInfo_get0_algs                          output.o
CMS_SignerInfo_get0_signer_id                     output.o
CMS_SignerInfo_it                                 output.o
CMS_SignerInfo_set1_signer_cert                   output.o
CMS_SignerInfo_sign                               output.o
CMS_SignerInfo_verify                             output.o
CMS_SignerInfo_verify_content                     output.o
CMS_add0_CertificateChoices                       output.o
CMS_add0_RevocationInfoChoice                     output.o
CMS_add0_cert                                     output.o
CMS_add0_crl                                      output.o
CMS_add0_recipient_key                            output.o
CMS_add1_cert                                     output.o
CMS_add1_crl                                      output.o
CMS_add1_recipient_cert                           output.o
CMS_add1_signer                                   output.o
CMS_add_simple_smimecap                           output.o
CMS_add_smimecap                                  output.o
CMS_add_standard_smimecap                         output.o
CMS_dataFinal                                     output.o
CMS_dataInit                                      output.o
CMS_get0_RecipientInfos                           output.o
CMS_get0_SignerInfos                              output.o
CMS_get0_content                                  output.o
CMS_get0_eContentType                             output.o
CMS_get0_signers                                  output.o
CMS_get0_type                                     output.o
CMS_get1_certs                                    output.o
CMS_get1_crls                                     output.o
CMS_is_detached                                   output.o
CMS_set1_eContentType                             output.o
CMS_set1_signers_certs                            output.o
CMS_set_detached                                  output.o
CMS_signed_add1_attr                              output.o
CMS_signed_add1_attr_by_NID                       output.o
CMS_signed_add1_attr_by_OBJ                       output.o
CMS_signed_add1_attr_by_txt                       output.o
CMS_signed_delete_attr                            output.o
CMS_signed_get0_data_by_OBJ                       output.o
CMS_signed_get_attr                               output.o
CMS_signed_get_attr_by_NID                        output.o
CMS_signed_get_attr_by_OBJ                        output.o
CMS_signed_get_attr_count                         output.o
CMS_stream                                        output.o
CMS_unsigned_add1_attr                            output.o
CMS_unsigned_add1_attr_by_NID                     output.o
CMS_unsigned_add1_attr_by_OBJ                     output.o
CMS_unsigned_add1_attr_by_txt                     output.o
CMS_unsigned_delete_attr                          output.o
CMS_unsigned_get0_data_by_OBJ                     output.o
CMS_unsigned_get_attr                             output.o
CMS_unsigned_get_attr_by_NID                      output.o
CMS_unsigned_get_attr_by_OBJ                      output.o
CMS_unsigned_get_attr_count                       output.o
CONF_def_version                                  output.o
CONF_dump_bio                                     output.o
CONF_free                                         output.o
CONF_get1_default_config_file                     output.o
CONF_get_number                                   output.o
CONF_get_section                                  output.o
CONF_get_string                                   output.o
CONF_imodule_get_flags                            output.o
CONF_imodule_get_module                           output.o
CONF_imodule_get_name                             output.o
CONF_imodule_get_usr_data                         output.o
CONF_imodule_get_value                            output.o
CONF_imodule_set_flags                            output.o
CONF_imodule_set_usr_data                         output.o
CONF_load                                         output.o
CONF_load_bio                                     output.o
CONF_module_add                                   output.o
CONF_module_get_usr_data                          output.o
CONF_module_set_usr_data                          output.o
CONF_modules_finish                               output.o
CONF_modules_free                                 output.o
CONF_modules_load                                 output.o
CONF_modules_load_file                            output.o
CONF_modules_unload                               output.o
CONF_parse_list                                   output.o
CONF_set_default_method                           output.o
CONF_set_nconf                                    output.o
CONF_version                                      output.o
CRL_DIST_POINTS_free                              output.o
CRL_DIST_POINTS_it                                output.o
CRL_DIST_POINTS_new                               output.o
CRYPTO_THREADID_cmp                               output.o
CRYPTO_THREADID_cpy                               output.o
CRYPTO_THREADID_current                           output.o
CRYPTO_THREADID_get_callback                      output.o
CRYPTO_THREADID_hash                              output.o
CRYPTO_THREADID_set_callback                      output.o
CRYPTO_THREADID_set_numeric                       output.o
CRYPTO_THREADID_set_pointer                       output.o
CRYPTO_add_lock                                   output.o
CRYPTO_cbc128_decrypt                             output.o
CRYPTO_cbc128_encrypt                             output.o
CRYPTO_cfb128_1_encrypt                           output.o
CRYPTO_cfb128_8_encrypt                           output.o
CRYPTO_cfb128_encrypt                             output.o
CRYPTO_cleanup_all_ex_data                        output.o
CRYPTO_dbg_free                                   output.o
CRYPTO_dbg_get_options                            output.o
CRYPTO_dbg_malloc                                 output.o
CRYPTO_dbg_realloc                                output.o
CRYPTO_dbg_set_options                            output.o
CRYPTO_destroy_dynlockid                          output.o
CRYPTO_dup_ex_data                                output.o
CRYPTO_ex_data_new_class                          output.o
CRYPTO_free                                       output.o
CRYPTO_free_ex_data                               output.o
CRYPTO_free_locked                                output.o
CRYPTO_get_add_lock_callback                      output.o
CRYPTO_get_dynlock_create_callback                output.o
CRYPTO_get_dynlock_destroy_callback               output.o
CRYPTO_get_dynlock_lock_callback                  output.o
CRYPTO_get_dynlock_value                          output.o
CRYPTO_get_ex_data                                output.o
CRYPTO_get_ex_data_implementation                 output.o
CRYPTO_get_ex_new_index                           output.o
CRYPTO_get_id_callback                            output.o
CRYPTO_get_lock_name                              output.o
CRYPTO_get_locked_mem_ex_functions                output.o
CRYPTO_get_locked_mem_functions                   output.o
CRYPTO_get_locking_callback                       output.o
CRYPTO_get_mem_debug_functions                    output.o
CRYPTO_get_mem_debug_options                      output.o
CRYPTO_get_mem_ex_functions                       output.o
CRYPTO_get_mem_functions                          output.o
CRYPTO_get_new_dynlockid                          output.o
CRYPTO_get_new_lockid                             output.o
CRYPTO_is_mem_check_on                            output.o
CRYPTO_lock                                       output.o
CRYPTO_malloc                                     output.o
CRYPTO_malloc_locked                              output.o
CRYPTO_mem_ctrl                                   output.o
CRYPTO_mem_leaks                                  output.o
CRYPTO_mem_leaks_cb                               output.o
CRYPTO_new_ex_data                                output.o
CRYPTO_num_locks                                  output.o
CRYPTO_ofb128_encrypt                             output.o
CRYPTO_pop_info                                   output.o
CRYPTO_push_info_                                 output.o
CRYPTO_realloc                                    output.o
CRYPTO_realloc_clean                              output.o
CRYPTO_remalloc                                   output.o
CRYPTO_remove_all_info                            output.o
CRYPTO_set_add_lock_callback                      output.o
CRYPTO_set_dynlock_create_callback                output.o
CRYPTO_set_dynlock_destroy_callback               output.o
CRYPTO_set_dynlock_lock_callback                  output.o
CRYPTO_set_ex_data                                output.o
CRYPTO_set_ex_data_implementation                 output.o
CRYPTO_set_id_callback                            output.o
CRYPTO_set_locked_mem_ex_functions                output.o
CRYPTO_set_locked_mem_functions                   output.o
CRYPTO_set_locking_callback                       output.o
CRYPTO_set_mem_debug_functions                    output.o
CRYPTO_set_mem_debug_options                      output.o
CRYPTO_set_mem_ex_functions                       output.o
CRYPTO_set_mem_functions                          output.o
CRYPTO_strdup                                     output.o
CRYPTO_thread_id                                  output.o
C_CloseAllSessions                                output.o
C_CloseSession                                    output.o
C_CreateObject                                    output.o
C_DestroyObject                                   output.o
C_DigestFinal                                     output.o
C_DigestInit                                      output.o
C_DigestUpdate                                    output.o
C_Finalize                                        output.o
C_FindObjects                                     output.o
C_FindObjectsFinal                                output.o
C_FindObjectsInit                                 output.o
C_GetAttributeValue                               output.o
C_GetCardStatus                                   output.o
C_GetFunctionList                                 output.o
C_GetInfo                                         output.o
C_GetMechanismInfo                                output.o
C_GetMechanismList                                output.o
C_GetSessionInfo                                  output.o
C_GetSlotInfo                                     output.o
C_GetSlotList                                     output.o
C_GetTokenInfo                                    output.o
C_Initialize                                      output.o
C_Login                                           output.o
C_Logout                                          output.o
C_OpenSession                                     output.o
C_SetAttributeValue                               output.o
C_Sign                                            output.o
C_SignInit                                        output.o
C_Verify                                          output.o
C_VerifyInit                                      output.o
CardConnect                                       output.o
CardDisconnect                                    output.o
CardEstablishContext                              output.o
CardListReaders                                   output.o
CardMechanical                                    output.o
CardReleaseContext                                output.o
CardStateConfirm                                  output.o
CardStatus                                        output.o
CardTransmit                                      output.o
CloseUSB                                          output.o
DES_SPtrans                                       output.o
DES_cfb64_encrypt                                 output.o
DES_cfb_encrypt                                   output.o
DES_check_key_parity                              output.o
DES_decrypt3                                      output.o
DES_ecb3_encrypt                                  output.o
DES_ecb_encrypt                                   output.o
DES_ede3_cbc_encrypt                              output.o
DES_ede3_cfb64_encrypt                            output.o
DES_ede3_cfb_encrypt                              output.o
DES_ede3_ofb64_encrypt                            output.o
DES_encrypt1                                      output.o
DES_encrypt2                                      output.o
DES_encrypt3                                      output.o
DES_is_weak_key                                   output.o
DES_key_sched                                     output.o
DES_ncbc_encrypt                                  output.o
DES_ofb64_encrypt                                 output.o
DES_options                                       output.o
DES_random_key                                    output.o
DES_set_key                                       output.o
DES_set_key_checked                               output.o
DES_set_key_unchecked                             output.o
DES_set_odd_parity                                output.o
DES_xcbc_encrypt                                  output.o
DH_OpenSSL                                        output.o
DH_check                                          output.o
DH_check_pub_key                                  output.o
DH_compute_key                                    output.o
DH_free                                           output.o
DH_generate_key                                   output.o
DH_generate_parameters_ex                         output.o
DH_get_default_method                             output.o
DH_get_ex_data                                    output.o
DH_get_ex_new_index                               output.o
DH_new                                            output.o
DH_new_method                                     output.o
DH_set_default_method                             output.o
DH_set_ex_data                                    output.o
DH_set_method                                     output.o
DH_size                                           output.o
DH_up_ref                                         output.o
DH_version                                        output.o
DHparams_dup                                      output.o
DHparams_it                                       output.o
DHparams_print                                    output.o
DI                                                output.o
DIRECTORYSTRING_free                              output.o
DIRECTORYSTRING_it                                output.o
DIRECTORYSTRING_new                               output.o
DISPLAYTEXT_free                                  output.o
DISPLAYTEXT_it                                    output.o
DISPLAYTEXT_new                                   output.o
DIST_POINT_NAME_free                              output.o
DIST_POINT_NAME_it                                output.o
DIST_POINT_NAME_new                               output.o
DIST_POINT_free                                   output.o
DIST_POINT_it                                     output.o
DIST_POINT_new                                    output.o
DIST_POINT_set_dpname                             output.o
DSAPrivateKey_it                                  output.o
DSAPublicKey_it                                   output.o
DSA_OpenSSL                                       output.o
DSA_SIG_free                                      output.o
DSA_SIG_it                                        output.o
DSA_SIG_new                                       output.o
DSA_do_sign                                       output.o
DSA_do_verify                                     output.o
DSA_dup_DH                                        output.o
DSA_free                                          output.o
DSA_generate_key                                  output.o
DSA_generate_parameters_ex                        output.o
DSA_get_default_method                            output.o
DSA_get_ex_data                                   output.o
DSA_get_ex_new_index                              output.o
DSA_new                                           output.o
DSA_new_method                                    output.o
DSA_set_default_method                            output.o
DSA_set_ex_data                                   output.o
DSA_set_method                                    output.o
DSA_sign                                          output.o
DSA_sign_setup                                    output.o
DSA_size                                          output.o
DSA_up_ref                                        output.o
DSA_verify                                        output.o
DSA_version                                       output.o
DSAparams_dup                                     output.o
DSAparams_it                                      output.o
DSO_METHOD_null                                   output.o
DSO_METHOD_openssl                                output.o
DSO_bind_func                                     output.o
DSO_bind_var                                      output.o
DSO_convert_filename                              output.o
DSO_ctrl                                          output.o
DSO_flags                                         output.o
DSO_free                                          output.o
DSO_get_default_method                            output.o
DSO_get_filename                                  output.o
DSO_get_loaded_filename                           output.o
DSO_get_method                                    output.o
DSO_global_lookup                                 output.o
DSO_load                                          output.o
DSO_merge                                         output.o
DSO_new                                           output.o
DSO_new_method                                    output.o
DSO_pathbyaddr                                    output.o
DSO_set_default_method                            output.o
DSO_set_filename                                  output.o
DSO_set_method                                    output.o
DSO_set_name_converter                            output.o
DSO_up_ref                                        output.o
DelElem                                           output.o
DestroyAttribute                                  output.o
DestroyElem                                       output.o
DestroyList                                       output.o
DestroySessionData                                output.o
DestroySlotData                                   output.o
DestroyTlvData                                    output.o
DestroyTokenData                                  output.o
ECDH_OpenSSL                                      output.o
ECDH_compute_key                                  output.o
ECDH_get_default_method                           output.o
ECDH_get_ex_data                                  output.o
ECDH_get_ex_new_index                             output.o
ECDH_set_default_method                           output.o
ECDH_set_ex_data                                  output.o
ECDH_set_method                                   output.o
ECDH_version                                      output.o
ECDSA_OpenSSL                                     output.o
ECDSA_SIG_free                                    output.o
ECDSA_SIG_it                                      output.o
ECDSA_SIG_new                                     output.o
ECDSA_do_sign                                     output.o
ECDSA_do_sign_ex                                  output.o
ECDSA_do_verify                                   output.o
ECDSA_get_default_method                          output.o
ECDSA_get_ex_data                                 output.o
ECDSA_get_ex_new_index                            output.o
ECDSA_set_default_method                          output.o
ECDSA_set_ex_data                                 output.o
ECDSA_set_method                                  output.o
ECDSA_sign                                        output.o
ECDSA_sign_ex                                     output.o
ECDSA_sign_setup                                  output.o
ECDSA_size                                        output.o
ECDSA_verify                                      output.o
ECDSA_version                                     output.o
ECPARAMETERS_free                                 output.o
ECPARAMETERS_it                                   output.o
ECPARAMETERS_new                                  output.o
ECPKPARAMETERS_free                               output.o
ECPKPARAMETERS_it                                 output.o
ECPKPARAMETERS_new                                output.o
ECPKParameters_print                              output.o
ECParameters_print                                output.o
EC_EX_DATA_clear_free_all_data                    output.o
EC_EX_DATA_clear_free_data                        output.o
EC_EX_DATA_free_all_data                          output.o
EC_EX_DATA_free_data                              output.o
EC_EX_DATA_get_data                               output.o
EC_EX_DATA_set_data                               output.o
EC_GF2m_simple_method                             output.o
EC_GFp_mont_method                                output.o
EC_GFp_nist_method                                output.o
EC_GFp_simple_method                              output.o
EC_GROUP_check_discriminant                       output.o
EC_GROUP_clear_free                               output.o
EC_GROUP_cmp                                      output.o
EC_GROUP_copy                                     output.o
EC_GROUP_dup                                      output.o
EC_GROUP_free                                     output.o
EC_GROUP_get0_generator                           output.o
EC_GROUP_get0_seed                                output.o
EC_GROUP_get_asn1_flag                            output.o
EC_GROUP_get_basis_type                           output.o
EC_GROUP_get_cofactor                             output.o
EC_GROUP_get_curve_GF2m                           output.o
EC_GROUP_get_curve_GFp                            output.o
EC_GROUP_get_curve_name                           output.o
EC_GROUP_get_degree                               output.o
EC_GROUP_get_order                                output.o
EC_GROUP_get_pentanomial_basis                    output.o
EC_GROUP_get_point_conversion_form                output.o
EC_GROUP_get_seed_len                             output.o
EC_GROUP_get_trinomial_basis                      output.o
EC_GROUP_have_precompute_mult                     output.o
EC_GROUP_method_of                                output.o
EC_GROUP_new                                      output.o
EC_GROUP_new_by_curve_name                        output.o
EC_GROUP_new_curve_GF2m                           output.o
EC_GROUP_new_curve_GFp                            output.o
EC_GROUP_precompute_mult                          output.o
EC_GROUP_set_asn1_flag                            output.o
EC_GROUP_set_curve_GF2m                           output.o
EC_GROUP_set_curve_GFp                            output.o
EC_GROUP_set_curve_name                           output.o
EC_GROUP_set_generator                            output.o
EC_GROUP_set_point_conversion_form                output.o
EC_GROUP_set_seed                                 output.o
EC_KEY_check_key                                  output.o
EC_KEY_copy                                       output.o
EC_KEY_dup                                        output.o
EC_KEY_free                                       output.o
EC_KEY_generate_key                               output.o
EC_KEY_get0_group                                 output.o
EC_KEY_get0_private_key                           output.o
EC_KEY_get0_public_key                            output.o
EC_KEY_get_conv_form                              output.o
EC_KEY_get_enc_flags                              output.o
EC_KEY_get_key_method_data                        output.o
EC_KEY_insert_key_method_data                     output.o
EC_KEY_new                                        output.o
EC_KEY_new_by_curve_name                          output.o
EC_KEY_precompute_mult                            output.o
EC_KEY_print                                      output.o
EC_KEY_set_asn1_flag                              output.o
EC_KEY_set_conv_form                              output.o
EC_KEY_set_enc_flags                              output.o
EC_KEY_set_group                                  output.o
EC_KEY_set_private_key                            output.o
EC_KEY_set_public_key                             output.o
EC_KEY_up_ref                                     output.o
EC_METHOD_get_field_type                          output.o
EC_POINT_add                                      output.o
EC_POINT_bn2point                                 output.o
EC_POINT_clear_free                               output.o
EC_POINT_cmp                                      output.o
EC_POINT_copy                                     output.o
EC_POINT_dbl                                      output.o
EC_POINT_dup                                      output.o
EC_POINT_free                                     output.o
EC_POINT_get_Jprojective_coordinates_GFp          output.o
EC_POINT_get_affine_coordinates_GF2m              output.o
EC_POINT_get_affine_coordinates_GFp               output.o
EC_POINT_hex2point                                output.o
EC_POINT_invert                                   output.o
EC_POINT_is_at_infinity                           output.o
EC_POINT_is_on_curve                              output.o
EC_POINT_make_affine                              output.o
EC_POINT_method_of                                output.o
EC_POINT_mul                                      output.o
EC_POINT_new                                      output.o
EC_POINT_oct2point                                output.o
EC_POINT_point2bn                                 output.o
EC_POINT_point2hex                                output.o
EC_POINT_point2oct                                output.o
EC_POINT_set_Jprojective_coordinates_GFp          output.o
EC_POINT_set_affine_coordinates_GF2m              output.o
EC_POINT_set_affine_coordinates_GFp               output.o
EC_POINT_set_compressed_coordinates_GF2m          output.o
EC_POINT_set_compressed_coordinates_GFp           output.o
EC_POINT_set_to_infinity                          output.o
EC_POINTs_make_affine                             output.o
EC_POINTs_mul                                     output.o
EC_PRIVATEKEY_free                                output.o
EC_PRIVATEKEY_it                                  output.o
EC_PRIVATEKEY_new                                 output.o
EC_get_builtin_curves                             output.o
EDIPARTYNAME_free                                 output.o
EDIPARTYNAME_it                                   output.o
EDIPARTYNAME_new                                  output.o
EHDestroyEventHandler                             output.o
EHInitEventHandler                                output.o
EHStatusHandler                                   output.o
ERR_add_error_data                                output.o
ERR_clear_error                                   output.o
ERR_error_string                                  output.o
ERR_error_string_n                                output.o
ERR_free_strings                                  output.o
ERR_func_error_string                             output.o
ERR_get_err_state_table                           output.o
ERR_get_error                                     output.o
ERR_get_error_line                                output.o
ERR_get_error_line_data                           output.o
ERR_get_implementation                            output.o
ERR_get_next_error_library                        output.o
ERR_get_state                                     output.o
ERR_get_string_table                              output.o
ERR_lib_error_string                              output.o
ERR_load_ASN1_strings                             output.o
ERR_load_BIO_strings                              output.o
ERR_load_BN_strings                               output.o
ERR_load_BUF_strings                              output.o
ERR_load_CMS_strings                              output.o
ERR_load_COMP_strings                             output.o
ERR_load_CONF_strings                             output.o
ERR_load_CRYPTO_strings                           output.o
ERR_load_DH_strings                               output.o
ERR_load_DSA_strings                              output.o
ERR_load_DSO_strings                              output.o
ERR_load_ECDH_strings                             output.o
ERR_load_ECDSA_strings                            output.o
ERR_load_EC_strings                               output.o
ERR_load_ERR_strings                              output.o
ERR_load_EVP_strings                              output.o
ERR_load_OBJ_strings                              output.o
ERR_load_OCSP_strings                             output.o
ERR_load_PEM_strings                              output.o
ERR_load_PKCS12_strings                           output.o
ERR_load_PKCS7_strings                            output.o
ERR_load_RAND_strings                             output.o
ERR_load_RSA_strings                              output.o
ERR_load_TS_strings                               output.o
ERR_load_UI_strings                               output.o
ERR_load_X509V3_strings                           output.o
ERR_load_X509_strings                             output.o
ERR_load_crypto_strings                           output.o
ERR_load_strings                                  output.o
ERR_peek_error                                    output.o
ERR_peek_error_line                               output.o
ERR_peek_error_line_data                          output.o
ERR_peek_last_error                               output.o
ERR_peek_last_error_line                          output.o
ERR_peek_last_error_line_data                     output.o
ERR_pop_to_mark                                   output.o
ERR_print_errors                                  output.o
ERR_print_errors_cb                               output.o
ERR_put_error                                     output.o
ERR_reason_error_string                           output.o
ERR_release_err_state_table                       output.o
ERR_remove_state                                  output.o
ERR_remove_thread_state                           output.o
ERR_set_error_data                                output.o
ERR_set_implementation                            output.o
ERR_set_mark                                      output.o
ERR_unload_strings                                output.o
EVP_BytesToKey                                    output.o
EVP_CIPHER_CTX_block_size                         output.o
EVP_CIPHER_CTX_cipher                             output.o
EVP_CIPHER_CTX_cleanup                            output.o
EVP_CIPHER_CTX_clear_flags                        output.o
EVP_CIPHER_CTX_copy                               output.o
EVP_CIPHER_CTX_ctrl                               output.o
EVP_CIPHER_CTX_flags                              output.o
EVP_CIPHER_CTX_free                               output.o
EVP_CIPHER_CTX_get_app_data                       output.o
EVP_CIPHER_CTX_init                               output.o
EVP_CIPHER_CTX_iv_length                          output.o
EVP_CIPHER_CTX_key_length                         output.o
EVP_CIPHER_CTX_new                                output.o
EVP_CIPHER_CTX_nid                                output.o
EVP_CIPHER_CTX_rand_key                           output.o
EVP_CIPHER_CTX_set_app_data                       output.o
EVP_CIPHER_CTX_set_flags                          output.o
EVP_CIPHER_CTX_set_key_length                     output.o
EVP_CIPHER_CTX_set_padding                        output.o
EVP_CIPHER_CTX_test_flags                         output.o
EVP_CIPHER_asn1_to_param                          output.o
EVP_CIPHER_block_size                             output.o
EVP_CIPHER_do_all                                 output.o
EVP_CIPHER_do_all_sorted                          output.o
EVP_CIPHER_flags                                  output.o
EVP_CIPHER_get_asn1_iv                            output.o
EVP_CIPHER_iv_length                              output.o
EVP_CIPHER_key_length                             output.o
EVP_CIPHER_nid                                    output.o
EVP_CIPHER_param_to_asn1                          output.o
EVP_CIPHER_set_asn1_iv                            output.o
EVP_CIPHER_type                                   output.o
EVP_Cipher                                        output.o
EVP_CipherFinal                                   output.o
EVP_CipherFinal_ex                                output.o
EVP_CipherInit                                    output.o
EVP_CipherInit_ex                                 output.o
EVP_CipherUpdate                                  output.o
EVP_DecodeBlock                                   output.o
EVP_DecodeFinal                                   output.o
EVP_DecodeInit                                    output.o
EVP_DecodeUpdate                                  output.o
EVP_DecryptFinal                                  output.o
EVP_DecryptFinal_ex                               output.o
EVP_DecryptInit                                   output.o
EVP_DecryptInit_ex                                output.o
EVP_DecryptUpdate                                 output.o
EVP_Digest                                        output.o
EVP_DigestFinal                                   output.o
EVP_DigestFinal_ex                                output.o
EVP_DigestInit                                    output.o
EVP_DigestInit_ex                                 output.o
EVP_DigestSignFinal                               output.o
EVP_DigestSignInit                                output.o
EVP_DigestUpdate                                  output.o
EVP_DigestVerifyFinal                             output.o
EVP_DigestVerifyInit                              output.o
EVP_EncodeBlock                                   output.o
EVP_EncodeFinal                                   output.o
EVP_EncodeInit                                    output.o
EVP_EncodeUpdate                                  output.o
EVP_EncryptFinal                                  output.o
EVP_EncryptFinal_ex                               output.o
EVP_EncryptInit                                   output.o
EVP_EncryptInit_ex                                output.o
EVP_EncryptUpdate                                 output.o
EVP_MD_CTX_cleanup                                output.o
EVP_MD_CTX_clear_flags                            output.o
EVP_MD_CTX_copy                                   output.o
EVP_MD_CTX_copy_ex                                output.o
EVP_MD_CTX_create                                 output.o
EVP_MD_CTX_destroy                                output.o
EVP_MD_CTX_init                                   output.o
EVP_MD_CTX_md                                     output.o
EVP_MD_CTX_set_flags                              output.o
EVP_MD_CTX_test_flags                             output.o
EVP_MD_block_size                                 output.o
EVP_MD_do_all                                     output.o
EVP_MD_do_all_sorted                              output.o
EVP_MD_flags                                      output.o
EVP_MD_pkey_type                                  output.o
EVP_MD_size                                       output.o
EVP_MD_type                                       output.o
EVP_PBE_CipherInit                                output.o
EVP_PBE_alg_add                                   output.o
EVP_PBE_alg_add_type                              output.o
EVP_PBE_cleanup                                   output.o
EVP_PBE_find                                      output.o
EVP_PKCS82PKEY                                    output.o
EVP_PKEY2PKCS8                                    output.o
EVP_PKEY2PKCS8_broken                             output.o
EVP_PKEY_CTX_ctrl                                 output.o
EVP_PKEY_CTX_ctrl_str                             output.o
EVP_PKEY_CTX_dup                                  output.o
EVP_PKEY_CTX_free                                 output.o
EVP_PKEY_CTX_get0_peerkey                         output.o
EVP_PKEY_CTX_get0_pkey                            output.o
EVP_PKEY_CTX_get_app_data                         output.o
EVP_PKEY_CTX_get_cb                               output.o
EVP_PKEY_CTX_get_data                             output.o
EVP_PKEY_CTX_get_keygen_info                      output.o
EVP_PKEY_CTX_get_operation                        output.o
EVP_PKEY_CTX_new                                  output.o
EVP_PKEY_CTX_new_id                               output.o
EVP_PKEY_CTX_set0_keygen_info                     output.o
EVP_PKEY_CTX_set_app_data                         output.o
EVP_PKEY_CTX_set_cb                               output.o
EVP_PKEY_CTX_set_data                             output.o
EVP_PKEY_add1_attr                                output.o
EVP_PKEY_add1_attr_by_NID                         output.o
EVP_PKEY_add1_attr_by_OBJ                         output.o
EVP_PKEY_add1_attr_by_txt                         output.o
EVP_PKEY_asn1_add0                                output.o
EVP_PKEY_asn1_add_alias                           output.o
EVP_PKEY_asn1_copy                                output.o
EVP_PKEY_asn1_find                                output.o
EVP_PKEY_asn1_find_str                            output.o
EVP_PKEY_asn1_free                                output.o
EVP_PKEY_asn1_get0                                output.o
EVP_PKEY_asn1_get0_info                           output.o
EVP_PKEY_asn1_get_count                           output.o
EVP_PKEY_asn1_new                                 output.o
EVP_PKEY_asn1_set_ctrl                            output.o
EVP_PKEY_asn1_set_free                            output.o
EVP_PKEY_asn1_set_param                           output.o
EVP_PKEY_asn1_set_private                         output.o
EVP_PKEY_asn1_set_public                          output.o
EVP_PKEY_assign                                   output.o
EVP_PKEY_base_id                                  output.o
EVP_PKEY_bits                                     output.o
EVP_PKEY_cmp                                      output.o
EVP_PKEY_cmp_parameters                           output.o
EVP_PKEY_copy_parameters                          output.o
EVP_PKEY_decrypt                                  output.o
EVP_PKEY_decrypt_init                             output.o
EVP_PKEY_delete_attr                              output.o
EVP_PKEY_derive                                   output.o
EVP_PKEY_derive_init                              output.o
EVP_PKEY_derive_set_peer                          output.o
EVP_PKEY_encrypt                                  output.o
EVP_PKEY_encrypt_init                             output.o
EVP_PKEY_free                                     output.o
EVP_PKEY_get0                                     output.o
EVP_PKEY_get0_asn1                                output.o
EVP_PKEY_get1_DH                                  output.o
EVP_PKEY_get1_DSA                                 output.o
EVP_PKEY_get1_EC_KEY                              output.o
EVP_PKEY_get1_RSA                                 output.o
EVP_PKEY_get_attr                                 output.o
EVP_PKEY_get_attr_by_NID                          output.o
EVP_PKEY_get_attr_by_OBJ                          output.o
EVP_PKEY_get_attr_count                           output.o
EVP_PKEY_get_default_digest_nid                   output.o
EVP_PKEY_id                                       output.o
EVP_PKEY_keygen                                   output.o
EVP_PKEY_keygen_init                              output.o
EVP_PKEY_meth_add0                                output.o
EVP_PKEY_meth_find                                output.o
EVP_PKEY_meth_free                                output.o
EVP_PKEY_meth_new                                 output.o
EVP_PKEY_meth_set_cleanup                         output.o
EVP_PKEY_meth_set_copy                            output.o
EVP_PKEY_meth_set_ctrl                            output.o
EVP_PKEY_meth_set_decrypt                         output.o
EVP_PKEY_meth_set_derive                          output.o
EVP_PKEY_meth_set_encrypt                         output.o
EVP_PKEY_meth_set_init                            output.o
EVP_PKEY_meth_set_keygen                          output.o
EVP_PKEY_meth_set_paramgen                        output.o
EVP_PKEY_meth_set_sign                            output.o
EVP_PKEY_meth_set_signctx                         output.o
EVP_PKEY_meth_set_verify                          output.o
EVP_PKEY_meth_set_verify_recover                  output.o
EVP_PKEY_meth_set_verifyctx                       output.o
EVP_PKEY_missing_parameters                       output.o
EVP_PKEY_new                                      output.o
EVP_PKEY_new_mac_key                              output.o
EVP_PKEY_paramgen                                 output.o
EVP_PKEY_paramgen_init                            output.o
EVP_PKEY_print_params                             output.o
EVP_PKEY_print_private                            output.o
EVP_PKEY_print_public                             output.o
EVP_PKEY_save_parameters                          output.o
EVP_PKEY_set1_DH                                  output.o
EVP_PKEY_set1_DSA                                 output.o
EVP_PKEY_set1_EC_KEY                              output.o
EVP_PKEY_set1_RSA                                 output.o
EVP_PKEY_set_type                                 output.o
EVP_PKEY_set_type_str                             output.o
EVP_PKEY_sign                                     output.o
EVP_PKEY_sign_init                                output.o
EVP_PKEY_size                                     output.o
EVP_PKEY_type                                     output.o
EVP_PKEY_verify                                   output.o
EVP_PKEY_verify_init                              output.o
EVP_PKEY_verify_recover                           output.o
EVP_PKEY_verify_recover_init                      output.o
EVP_SignFinal                                     output.o
EVP_VerifyFinal                                   output.o
EVP_add_cipher                                    output.o
EVP_add_digest                                    output.o
EVP_aes_128_cbc                                   output.o
EVP_aes_128_cfb1                                  output.o
EVP_aes_128_cfb128                                output.o
EVP_aes_128_cfb8                                  output.o
EVP_aes_128_ecb                                   output.o
EVP_aes_128_ofb                                   output.o
EVP_aes_192_cbc                                   output.o
EVP_aes_192_cfb1                                  output.o
EVP_aes_192_cfb128                                output.o
EVP_aes_192_cfb8                                  output.o
EVP_aes_192_ecb                                   output.o
EVP_aes_192_ofb                                   output.o
EVP_aes_256_cbc                                   output.o
EVP_aes_256_cfb1                                  output.o
EVP_aes_256_cfb128                                output.o
EVP_aes_256_cfb8                                  output.o
EVP_aes_256_ecb                                   output.o
EVP_aes_256_ofb                                   output.o
EVP_bf_cbc                                        output.o
EVP_bf_cfb64                                      output.o
EVP_bf_ecb                                        output.o
EVP_bf_ofb                                        output.o
EVP_cast5_cbc                                     output.o
EVP_cast5_cfb64                                   output.o
EVP_cast5_ecb                                     output.o
EVP_cast5_ofb                                     output.o
EVP_cleanup                                       output.o
EVP_des_cbc                                       output.o
EVP_des_cfb1                                      output.o
EVP_des_cfb64                                     output.o
EVP_des_cfb8                                      output.o
EVP_des_ecb                                       output.o
EVP_des_ede                                       output.o
EVP_des_ede3                                      output.o
EVP_des_ede3_cbc                                  output.o
EVP_des_ede3_cfb1                                 output.o
EVP_des_ede3_cfb64                                output.o
EVP_des_ede3_cfb8                                 output.o
EVP_des_ede3_ecb                                  output.o
EVP_des_ede3_ofb                                  output.o
EVP_des_ede_cbc                                   output.o
EVP_des_ede_cfb64                                 output.o
EVP_des_ede_ecb                                   output.o
EVP_des_ede_ofb                                   output.o
EVP_des_ofb                                       output.o
EVP_desx_cbc                                      output.o
EVP_dss                                           output.o
EVP_dss1                                          output.o
EVP_ecdsa                                         output.o
EVP_get_cipherbyname                              output.o
EVP_get_digestbyname                              output.o
EVP_get_pw_prompt                                 output.o
EVP_idea_cbc                                      output.o
EVP_idea_cfb64                                    output.o
EVP_idea_ecb                                      output.o
EVP_idea_ofb                                      output.o
EVP_md4                                           output.o
EVP_md5                                           output.o
EVP_rc2_40_cbc                                    output.o
EVP_rc2_64_cbc                                    output.o
EVP_rc2_cbc                                       output.o
EVP_rc2_cfb64                                     output.o
EVP_rc2_ecb                                       output.o
EVP_rc2_ofb                                       output.o
EVP_rc4                                           output.o
EVP_rc4_40                                        output.o
EVP_read_pw_string                                output.o
EVP_read_pw_string_min                            output.o
EVP_ripemd160                                     output.o
EVP_set_pw_prompt                                 output.o
EVP_sha                                           output.o
EVP_sha1                                          output.o
EVP_sha224                                        output.o
EVP_sha256                                        output.o
EVP_sha384                                        output.o
EVP_sha512                                        output.o
EVP_version                                       output.o
EVP_whirlpool                                     output.o
EXTENDED_KEY_USAGE_free                           output.o
EXTENDED_KEY_USAGE_it                             output.o
EXTENDED_KEY_USAGE_new                            output.o
ExchangePPSData                                   output.o
FI                                                output.o
FindBaudRateTable                                 output.o
GENERAL_NAMES_free                                output.o
GENERAL_NAMES_it                                  output.o
GENERAL_NAMES_new                                 output.o
GENERAL_NAME_cmp                                  output.o
GENERAL_NAME_dup                                  output.o
GENERAL_NAME_free                                 output.o
GENERAL_NAME_get0_otherName                       output.o
GENERAL_NAME_get0_value                           output.o
GENERAL_NAME_it                                   output.o
GENERAL_NAME_new                                  output.o
GENERAL_NAME_print                                output.o
GENERAL_NAME_set0_othername                       output.o
GENERAL_NAME_set0_value                           output.o
GENERAL_SUBTREE_free                              output.o
GENERAL_SUBTREE_it                                output.o
GENERAL_SUBTREE_new                               output.o
GetAttrValType                                    output.o
GetBWICWIData                                     output.o
GetCardStatus                                     output.o
GetDirDataByTlv                                   output.o
GetElem                                           output.o
GetICCardData                                     output.o
GetIFSCData                                       output.o
GetLength                                         output.o
GetOdfDataByTlv                                   output.o
GetTlvByBuf                                       output.o
GetTokenDataByTlv                                 output.o
GetUlByByte                                       output.o
GetUlByTxt                                        output.o
GetValueData                                      output.o
GetVerByTex                                       output.o
HMAC                                              output.o
HMAC_CTX_cleanup                                  output.o
HMAC_CTX_copy                                     output.o
HMAC_CTX_init                                     output.o
HMAC_CTX_set_flags                                output.o
HMAC_Final                                        output.o
HMAC_Init                                         output.o
HMAC_Init_ex                                      output.o
HMAC_Update                                       output.o
HPSearchHotPluggables                             output.o
IDEA_version                                      output.o
IDMan_CheckCardStatus                             output.o
IDMan_CmCheckCRL                                  output.o
IDMan_CmChgRSA                                    output.o
IDMan_CmGetCertificateSign                        output.o
IDMan_CmGetDN                                     output.o
IDMan_CmGetPublicKey                              output.o
IDMan_CmMakeRand                                  output.o
IDMan_CmMkHash                                    output.o
IDMan_CmPadding                                   output.o
IDMan_CmPadding2                                  output.o
IDMan_EncryptByIndex                              output.o
IDMan_IPCheckCrlPkcX                              output.o
IDMan_IPCheckPKC                                  output.o
IDMan_IPCheckSignature                            output.o
IDMan_IPCrSignature                               output.o
IDMan_IPFinalize                                  output.o
IDMan_IPFinalizeReader                            output.o
IDMan_IPIdPassListMalloc                          output.o
IDMan_IPInitialize                                output.o
IDMan_IPInitializeReader                          output.o
IDMan_IPMkPublicKeyObj                            output.o
IDMan_IPMkRandHash                                output.o
IDMan_IPRetJudgment                               output.o
IDMan_IPSignatureVerify                           output.o
IDMan_IPgCIndexParamChk                           output.o
IDMan_IPgCParamChk                                output.o
IDMan_IPgIdxSParamChk                             output.o
IDMan_IPgSParamChk                                output.o
IDMan_IPgetCertIdxPKCS                            output.o
IDMan_IPgetCertPKCS                               output.o
IDMan_IPgetCertPkeyIdxPKCSx                       output.o
IDMan_IPgetCertPkeyPKCSx                          output.o
IDMan_IPgetCertPkeyPKCSy                          output.o
IDMan_IPgetHash                                   output.o
IDMan_IPgetMakeRandData                           output.o
IDMan_IPgetPrivateKey                             output.o
IDMan_IPgetPrivateKeyPKCSx                        output.o
IDMan_IPuAPKCS11IdxParamChk                       output.o
IDMan_IPuAPKCS11ParamChk                          output.o
IDMan_IPvSIdxParamChk                             output.o
IDMan_IPvSParamChk                                output.o
IDMan_PaddingParamChk                             output.o
IDMan_SCardConnect                                output.o
IDMan_SCardDisconnect                             output.o
IDMan_SCardEstablishContext                       output.o
IDMan_SCardListReaders                            output.o
IDMan_SCardReleaseContext                         output.o
IDMan_SCardSetBinay                               output.o
IDMan_SCardSizeLongToChar                         output.o
IDMan_SCardStatus                                 output.o
IDMan_SCardTransmit                               output.o
IDMan_StAtoi                                      output.o
IDMan_StAtol                                      output.o
IDMan_StFree                                      output.o
IDMan_StMalloc                                    output.o
IDMan_StMemcmp                                    output.o
IDMan_StMemcpy                                    output.o
IDMan_StMemset                                    output.o
IDMan_StReadSetData                               output.o
IDMan_StStrcat                                    output.o
IDMan_StStrchr                                    output.o
IDMan_StStrcmp                                    output.o
IDMan_StStrcpy                                    output.o
IDMan_StStrlen                                    output.o
IDMan_generateSignature                           output.o
IDMan_generateSignatureByIndex                    output.o
IDMan_getCertificate                              output.o
IDMan_getCertificateByIndex                       output.o
IDMan_getMemoryFree                               output.o
IDMan_getStaticPassword                           output.o
IDMan_userAuthPKCS11                              output.o
IDMan_userAuthPKCS11ByIndex                       output.o
IDMan_verifySignature                             output.o
IDMan_verifySignatureByIndex                      output.o
IFDHCloseChannel                                  output.o
IFDHControl                                       output.o
IFDHCreateChannel                                 output.o
IFDHGetCapabilities                               output.o
IFDHICCPresence                                   output.o
IFDHPowerICC                                      output.o
IFDHSetProtocolParameters                         output.o
IFDHTransmitToICC                                 output.o
ISSUING_DIST_POINT_free                           output.o
ISSUING_DIST_POINT_it                             output.o
ISSUING_DIST_POINT_new                            output.o
InitCryptoLibrary                                 output.o
InitLeaderCardProtocol                            output.o
InternalAuth                                      output.o
LONG_it                                           output.o
MD4_Final                                         output.o
MD4_Init                                          output.o
MD4_Transform                                     output.o
MD4_Update                                        output.o
MD4_version                                       output.o
MD5                                               output.o
MD5_Final                                         output.o
MD5_Init                                          output.o
MD5_Transform                                     output.o
MD5_Update                                        output.o
MD5_version                                       output.o
NAME_CONSTRAINTS_check                            output.o
NAME_CONSTRAINTS_free                             output.o
NAME_CONSTRAINTS_it                               output.o
NAME_CONSTRAINTS_new                              output.o
NCONF_WIN32                                       output.o
NCONF_default                                     output.o
NCONF_dump_bio                                    output.o
NCONF_free                                        output.o
NCONF_free_data                                   output.o
NCONF_get_number_e                                output.o
NCONF_get_section                                 output.o
NCONF_get_string                                  output.o
NCONF_load                                        output.o
NCONF_load_bio                                    output.o
NCONF_new                                         output.o
NETSCAPE_CERT_SEQUENCE_free                       output.o
NETSCAPE_CERT_SEQUENCE_it                         output.o
NETSCAPE_CERT_SEQUENCE_new                        output.o
NETSCAPE_SPKAC_free                               output.o
NETSCAPE_SPKAC_it                                 output.o
NETSCAPE_SPKAC_new                                output.o
NETSCAPE_SPKI_free                                output.o
NETSCAPE_SPKI_it                                  output.o
NETSCAPE_SPKI_new                                 output.o
NETSCAPE_SPKI_sign                                output.o
NETSCAPE_SPKI_verify                              output.o
NOTICEREF_free                                    output.o
NOTICEREF_it                                      output.o
NOTICEREF_new                                     output.o
OBJ_NAME_add                                      output.o
OBJ_NAME_cleanup                                  output.o
OBJ_NAME_do_all                                   output.o
OBJ_NAME_do_all_sorted                            output.o
OBJ_NAME_get                                      output.o
OBJ_NAME_init                                     output.o
OBJ_NAME_new_index                                output.o
OBJ_NAME_remove                                   output.o
OBJ_add_object                                    output.o
OBJ_add_sigid                                     output.o
OBJ_bsearch_                                      output.o
OBJ_bsearch_ex_                                   output.o
OBJ_cleanup                                       output.o
OBJ_cmp                                           output.o
OBJ_create                                        output.o
OBJ_create_objects                                output.o
OBJ_dup                                           output.o
OBJ_find_sigid_algs                               output.o
OBJ_find_sigid_by_algs                            output.o
OBJ_ln2nid                                        output.o
OBJ_new_nid                                       output.o
OBJ_nid2ln                                        output.o
OBJ_nid2obj                                       output.o
OBJ_nid2sn                                        output.o
OBJ_obj2nid                                       output.o
OBJ_obj2txt                                       output.o
OBJ_sigid_free                                    output.o
OBJ_sn2nid                                        output.o
OBJ_txt2nid                                       output.o
OBJ_txt2obj                                       output.o
OCSP_BASICRESP_free                               output.o
OCSP_BASICRESP_it                                 output.o
OCSP_BASICRESP_new                                output.o
OCSP_CERTID_free                                  output.o
OCSP_CERTID_it                                    output.o
OCSP_CERTID_new                                   output.o
OCSP_CERTSTATUS_free                              output.o
OCSP_CERTSTATUS_it                                output.o
OCSP_CERTSTATUS_new                               output.o
OCSP_CRLID_free                                   output.o
OCSP_CRLID_it                                     output.o
OCSP_CRLID_new                                    output.o
OCSP_ONEREQ_free                                  output.o
OCSP_ONEREQ_it                                    output.o
OCSP_ONEREQ_new                                   output.o
OCSP_REQINFO_free                                 output.o
OCSP_REQINFO_it                                   output.o
OCSP_REQINFO_new                                  output.o
OCSP_REQUEST_free                                 output.o
OCSP_REQUEST_it                                   output.o
OCSP_REQUEST_new                                  output.o
OCSP_RESPBYTES_free                               output.o
OCSP_RESPBYTES_it                                 output.o
OCSP_RESPBYTES_new                                output.o
OCSP_RESPDATA_free                                output.o
OCSP_RESPDATA_it                                  output.o
OCSP_RESPDATA_new                                 output.o
OCSP_RESPID_free                                  output.o
OCSP_RESPID_it                                    output.o
OCSP_RESPID_new                                   output.o
OCSP_RESPONSE_free                                output.o
OCSP_RESPONSE_it                                  output.o
OCSP_RESPONSE_new                                 output.o
OCSP_REVOKEDINFO_free                             output.o
OCSP_REVOKEDINFO_it                               output.o
OCSP_REVOKEDINFO_new                              output.o
OCSP_SERVICELOC_free                              output.o
OCSP_SERVICELOC_it                                output.o
OCSP_SERVICELOC_new                               output.o
OCSP_SIGNATURE_free                               output.o
OCSP_SIGNATURE_it                                 output.o
OCSP_SIGNATURE_new                                output.o
OCSP_SINGLERESP_free                              output.o
OCSP_SINGLERESP_it                                output.o
OCSP_SINGLERESP_new                               output.o
OPENSSL_NONPIC_relocated                          output.o
OPENSSL_asc2uni                                   output.o
OPENSSL_cleanse                                   output.o
OPENSSL_cpuid_setup                               output.o
OPENSSL_gmtime                                    output.o
OPENSSL_gmtime_adj                                output.o
OPENSSL_ia32cap_P                                 output.o
OPENSSL_ia32cap_loc                               output.o
OPENSSL_isservice                                 output.o
OPENSSL_showfatal                                 output.o
OPENSSL_stderr                                    output.o
OPENSSL_uni2asc                                   output.o
OSSL_DES_version                                  output.o
OSSL_libdes_version                               output.o
OTHERNAME_cmp                                     output.o
OTHERNAME_free                                    output.o
OTHERNAME_it                                      output.o
OTHERNAME_new                                     output.o
OpenSSLDie                                        output.o
OpenSSL_add_all_ciphers                           output.o
OpenSSL_add_all_digests                           output.o
OpenUSB                                           output.o
PBE2PARAM_free                                    output.o
PBE2PARAM_it                                      output.o
PBE2PARAM_new                                     output.o
PBEPARAM_free                                     output.o
PBEPARAM_it                                       output.o
PBEPARAM_new                                      output.o
PBKDF2PARAM_free                                  output.o
PBKDF2PARAM_it                                    output.o
PBKDF2PARAM_new                                   output.o
PEM_ASN1_read_bio                                 output.o
PEM_ASN1_write_bio                                output.o
PEM_bytes_read_bio                                output.o
PEM_def_callback                                  output.o
PEM_dek_info                                      output.o
PEM_do_header                                     output.o
PEM_get_EVP_CIPHER_INFO                           output.o
PEM_proc_type                                     output.o
PEM_read_bio                                      output.o
PEM_read_bio_CMS                                  output.o
PEM_read_bio_DHparams                             output.o
PEM_read_bio_DSAPrivateKey                        output.o
PEM_read_bio_DSA_PUBKEY                           output.o
PEM_read_bio_DSAparams                            output.o
PEM_read_bio_ECPKParameters                       output.o
PEM_read_bio_ECPrivateKey                         output.o
PEM_read_bio_EC_PUBKEY                            output.o
PEM_read_bio_NETSCAPE_CERT_SEQUENCE               output.o
PEM_read_bio_PKCS7                                output.o
PEM_read_bio_PKCS8                                output.o
PEM_read_bio_PKCS8_PRIV_KEY_INFO                  output.o
PEM_read_bio_PUBKEY                               output.o
PEM_read_bio_Parameters                           output.o
PEM_read_bio_PrivateKey                           output.o
PEM_read_bio_RSAPrivateKey                        output.o
PEM_read_bio_RSAPublicKey                         output.o
PEM_read_bio_RSA_PUBKEY                           output.o
PEM_read_bio_X509                                 output.o
PEM_read_bio_X509_CRL                             output.o
PEM_read_bio_X509_REQ                             output.o
PEM_version                                       output.o
PEM_write_bio                                     output.o
PEM_write_bio_ASN1_stream                         output.o
PEM_write_bio_CMS                                 output.o
PEM_write_bio_CMS_stream                          output.o
PEM_write_bio_DHparams                            output.o
PEM_write_bio_DSAPrivateKey                       output.o
PEM_write_bio_DSA_PUBKEY                          output.o
PEM_write_bio_DSAparams                           output.o
PEM_write_bio_ECPKParameters                      output.o
PEM_write_bio_ECPrivateKey                        output.o
PEM_write_bio_EC_PUBKEY                           output.o
PEM_write_bio_NETSCAPE_CERT_SEQUENCE              output.o
PEM_write_bio_PKCS7                               output.o
PEM_write_bio_PKCS8                               output.o
PEM_write_bio_PKCS8PrivateKey                     output.o
PEM_write_bio_PKCS8PrivateKey_nid                 output.o
PEM_write_bio_PKCS8_PRIV_KEY_INFO                 output.o
PEM_write_bio_PUBKEY                              output.o
PEM_write_bio_Parameters                          output.o
PEM_write_bio_PrivateKey                          output.o
PEM_write_bio_RSAPrivateKey                       output.o
PEM_write_bio_RSAPublicKey                        output.o
PEM_write_bio_RSA_PUBKEY                          output.o
PEM_write_bio_X509                                output.o
PEM_write_bio_X509_CRL                            output.o
PEM_write_bio_X509_REQ                            output.o
PEM_write_bio_X509_REQ_NEW                        output.o
PHGetProtocol                                     output.o
PHSetProtocol                                     output.o
PKCS12_AUTHSAFES_it                               output.o
PKCS12_BAGS_free                                  output.o
PKCS12_BAGS_it                                    output.o
PKCS12_BAGS_new                                   output.o
PKCS12_MAC_DATA_free                              output.o
PKCS12_MAC_DATA_it                                output.o
PKCS12_MAC_DATA_new                               output.o
PKCS12_MAKE_KEYBAG                                output.o
PKCS12_MAKE_SHKEYBAG                              output.o
PKCS12_PBE_add                                    output.o
PKCS12_PBE_keyivgen                               output.o
PKCS12_SAFEBAGS_it                                output.o
PKCS12_SAFEBAG_free                               output.o
PKCS12_SAFEBAG_it                                 output.o
PKCS12_SAFEBAG_new                                output.o
PKCS12_certbag2x509                               output.o
PKCS12_certbag2x509crl                            output.o
PKCS12_decrypt_skey                               output.o
PKCS12_free                                       output.o
PKCS12_it                                         output.o
PKCS12_item_decrypt_d2i                           output.o
PKCS12_item_i2d_encrypt                           output.o
PKCS12_item_pack_safebag                          output.o
PKCS12_key_gen_asc                                output.o
PKCS12_key_gen_uni                                output.o
PKCS12_new                                        output.o
PKCS12_pack_authsafes                             output.o
PKCS12_pack_p7data                                output.o
PKCS12_pack_p7encdata                             output.o
PKCS12_pbe_crypt                                  output.o
PKCS12_unpack_authsafes                           output.o
PKCS12_unpack_p7data                              output.o
PKCS12_unpack_p7encdata                           output.o
PKCS12_x5092certbag                               output.o
PKCS12_x509crl2certbag                            output.o
PKCS1_MGF1                                        output.o
PKCS5_PBE_add                                     output.o
PKCS5_PBE_keyivgen                                output.o
PKCS5_PBKDF2_HMAC                                 output.o
PKCS5_PBKDF2_HMAC_SHA1                            output.o
PKCS5_pbe2_set                                    output.o
PKCS5_pbe2_set_iv                                 output.o
PKCS5_pbe_set                                     output.o
PKCS5_pbe_set0_algor                              output.o
PKCS5_v2_PBE_keyivgen                             output.o
PKCS7_ATTR_SIGN_it                                output.o
PKCS7_ATTR_VERIFY_it                              output.o
PKCS7_DIGEST_free                                 output.o
PKCS7_DIGEST_it                                   output.o
PKCS7_DIGEST_new                                  output.o
PKCS7_ENCRYPT_free                                output.o
PKCS7_ENCRYPT_it                                  output.o
PKCS7_ENCRYPT_new                                 output.o
PKCS7_ENC_CONTENT_free                            output.o
PKCS7_ENC_CONTENT_it                              output.o
PKCS7_ENC_CONTENT_new                             output.o
PKCS7_ENVELOPE_free                               output.o
PKCS7_ENVELOPE_it                                 output.o
PKCS7_ENVELOPE_new                                output.o
PKCS7_ISSUER_AND_SERIAL_digest                    output.o
PKCS7_ISSUER_AND_SERIAL_free                      output.o
PKCS7_ISSUER_AND_SERIAL_it                        output.o
PKCS7_ISSUER_AND_SERIAL_new                       output.o
PKCS7_RECIP_INFO_free                             output.o
PKCS7_RECIP_INFO_get0_alg                         output.o
PKCS7_RECIP_INFO_it                               output.o
PKCS7_RECIP_INFO_new                              output.o
PKCS7_RECIP_INFO_set                              output.o
PKCS7_SIGNED_free                                 output.o
PKCS7_SIGNED_it                                   output.o
PKCS7_SIGNED_new                                  output.o
PKCS7_SIGNER_INFO_free                            output.o
PKCS7_SIGNER_INFO_get0_algs                       output.o
PKCS7_SIGNER_INFO_it                              output.o
PKCS7_SIGNER_INFO_new                             output.o
PKCS7_SIGNER_INFO_set                             output.o
PKCS7_SIGNER_INFO_sign                            output.o
PKCS7_SIGN_ENVELOPE_free                          output.o
PKCS7_SIGN_ENVELOPE_it                            output.o
PKCS7_SIGN_ENVELOPE_new                           output.o
PKCS7_add0_attrib_signing_time                    output.o
PKCS7_add1_attrib_digest                          output.o
PKCS7_add_attrib_content_type                     output.o
PKCS7_add_attrib_smimecap                         output.o
PKCS7_add_attribute                               output.o
PKCS7_add_certificate                             output.o
PKCS7_add_crl                                     output.o
PKCS7_add_recipient                               output.o
PKCS7_add_recipient_info                          output.o
PKCS7_add_signature                               output.o
PKCS7_add_signed_attribute                        output.o
PKCS7_add_signer                                  output.o
PKCS7_cert_from_signer_info                       output.o
PKCS7_content_new                                 output.o
PKCS7_ctrl                                        output.o
PKCS7_dataDecode                                  output.o
PKCS7_dataFinal                                   output.o
PKCS7_dataInit                                    output.o
PKCS7_dataVerify                                  output.o
PKCS7_digest_from_attributes                      output.o
PKCS7_dup                                         output.o
PKCS7_free                                        output.o
PKCS7_get_attribute                               output.o
PKCS7_get_issuer_and_serial                       output.o
PKCS7_get_signed_attribute                        output.o
PKCS7_get_signer_info                             output.o
PKCS7_get_smimecap                                output.o
PKCS7_it                                          output.o
PKCS7_new                                         output.o
PKCS7_print_ctx                                   output.o
PKCS7_set0_type_other                             output.o
PKCS7_set_attributes                              output.o
PKCS7_set_cipher                                  output.o
PKCS7_set_content                                 output.o
PKCS7_set_digest                                  output.o
PKCS7_set_signed_attributes                       output.o
PKCS7_set_type                                    output.o
PKCS7_signatureVerify                             output.o
PKCS7_simple_smimecap                             output.o
PKCS7_stream                                      output.o
PKCS8_PRIV_KEY_INFO_free                          output.o
PKCS8_PRIV_KEY_INFO_it                            output.o
PKCS8_PRIV_KEY_INFO_new                           output.o
PKCS8_decrypt                                     output.o
PKCS8_encrypt                                     output.o
PKCS8_pkey_get0                                   output.o
PKCS8_pkey_set0                                   output.o
PKCS8_set_broken                                  output.o
PKEY_USAGE_PERIOD_free                            output.o
PKEY_USAGE_PERIOD_it                              output.o
PKEY_USAGE_PERIOD_new                             output.o
POLICYINFO_free                                   output.o
POLICYINFO_it                                     output.o
POLICYINFO_new                                    output.o
POLICYQUALINFO_free                               output.o
POLICYQUALINFO_it                                 output.o
POLICYQUALINFO_new                                output.o
POLICY_CONSTRAINTS_free                           output.o
POLICY_CONSTRAINTS_it                             output.o
POLICY_CONSTRAINTS_new                            output.o
POLICY_MAPPINGS_it                                output.o
POLICY_MAPPING_free                               output.o
POLICY_MAPPING_it                                 output.o
POLICY_MAPPING_new                                output.o
PROXY_CERT_INFO_EXTENSION_free                    output.o
PROXY_CERT_INFO_EXTENSION_it                      output.o
PROXY_CERT_INFO_EXTENSION_new                     output.o
PROXY_POLICY_free                                 output.o
PROXY_POLICY_it                                   output.o
PROXY_POLICY_new                                  output.o
PowerOff                                          output.o
PowerOn                                           output.o
RAND_SSLeay                                       output.o
RAND_add                                          output.o
RAND_bytes                                        output.o
RAND_cleanup                                      output.o
RAND_get_rand_method                              output.o
RAND_poll                                         output.o
RAND_pseudo_bytes                                 output.o
RAND_seed                                         output.o
RAND_set_rand_method                              output.o
RAND_status                                       output.o
RAND_version                                      output.o
RC2_cbc_encrypt                                   output.o
RC2_cfb64_encrypt                                 output.o
RC2_decrypt                                       output.o
RC2_ecb_encrypt                                   output.o
RC2_encrypt                                       output.o
RC2_ofb64_encrypt                                 output.o
RC2_set_key                                       output.o
RC2_version                                       output.o
RC4                                               output.o
RC4_options                                       output.o
RC4_set_key                                       output.o
RC4_version                                       output.o
RFAddReader                                       output.o
RFCheckReaderEventState                           output.o
RFReaderInfoById                                  output.o
RFRemoveReader                                    output.o
RIPEMD160_Final                                   output.o
RIPEMD160_Init                                    output.o
RIPEMD160_Transform                               output.o
RIPEMD160_Update                                  output.o
RMD160_version                                    output.o
RSAPrivateKey_dup                                 output.o
RSAPrivateKey_it                                  output.o
RSAPublicKey_dup                                  output.o
RSAPublicKey_it                                   output.o
RSA_PKCS1_SSLeay                                  output.o
RSA_X931_hash_id                                  output.o
RSA_blinding_off                                  output.o
RSA_blinding_on                                   output.o
RSA_flags                                         output.o
RSA_free                                          output.o
RSA_generate_key                                  output.o
RSA_generate_key_ex                               output.o
RSA_get_default_method                            output.o
RSA_get_ex_data                                   output.o
RSA_get_ex_new_index                              output.o
RSA_get_method                                    output.o
RSA_memory_lock                                   output.o
RSA_new                                           output.o
RSA_new_method                                    output.o
RSA_padding_add_PKCS1_OAEP                        output.o
RSA_padding_add_PKCS1_PSS                         output.o
RSA_padding_add_PKCS1_type_1                      output.o
RSA_padding_add_PKCS1_type_2                      output.o
RSA_padding_add_SSLv23                            output.o
RSA_padding_add_X931                              output.o
RSA_padding_add_none                              output.o
RSA_padding_check_PKCS1_OAEP                      output.o
RSA_padding_check_PKCS1_type_1                    output.o
RSA_padding_check_PKCS1_type_2                    output.o
RSA_padding_check_SSLv23                          output.o
RSA_padding_check_X931                            output.o
RSA_padding_check_none                            output.o
RSA_private_decrypt                               output.o
RSA_private_encrypt                               output.o
RSA_public_decrypt                                output.o
RSA_public_encrypt                                output.o
RSA_set_default_method                            output.o
RSA_set_ex_data                                   output.o
RSA_set_method                                    output.o
RSA_setup_blinding                                output.o
RSA_sign                                          output.o
RSA_size                                          output.o
RSA_up_ref                                        output.o
RSA_verify                                        output.o
RSA_verify_PKCS1_PSS                              output.o
RSA_version                                       output.o
ReadBinary                                        output.o
ReadDataT0                                        output.o
ReadUSB                                           output.o
ReceiveReply                                      output.o
SCardBeginTransaction                             output.o
SCardConnect                                      output.o
SCardDisconnect                                   output.o
SCardEndTransaction                               output.o
SCardEstablishContext                             output.o
SCardListReaders                                  output.o
SCardReleaseContext                               output.o
SCardStatus                                       output.o
SCardTransmit                                     output.o
SHA1                                              output.o
SHA1_Final                                        output.o
SHA1_Init                                         output.o
SHA1_Transform                                    output.o
SHA1_Update                                       output.o
SHA1_version                                      output.o
SHA224                                            output.o
SHA224_Final                                      output.o
SHA224_Init                                       output.o
SHA224_Update                                     output.o
SHA256                                            output.o
SHA256_Final                                      output.o
SHA256_Init                                       output.o
SHA256_Transform                                  output.o
SHA256_Update                                     output.o
SHA256_version                                    output.o
SHA384                                            output.o
SHA384_Final                                      output.o
SHA384_Init                                       output.o
SHA384_Update                                     output.o
SHA512                                            output.o
SHA512_Final                                      output.o
SHA512_Init                                       output.o
SHA512_Transform                                  output.o
SHA512_Update                                     output.o
SHA512_version                                    output.o
SHA_Final                                         output.o
SHA_Init                                          output.o
SHA_Transform                                     output.o
SHA_Update                                        output.o
SHA_version                                       output.o
SMIME_crlf_copy                                   output.o
SMIME_read_ASN1                                   output.o
SMIME_read_CMS                                    output.o
SMIME_text                                        output.o
SMIME_write_ASN1                                  output.o
SMIME_write_CMS                                   output.o
STACK_version                                     output.o
SXNETID_free                                      output.o
SXNETID_it                                        output.o
SXNETID_new                                       output.o
SXNET_add_id_INTEGER                              output.o
SXNET_add_id_asc                                  output.o
SXNET_add_id_ulong                                output.o
SXNET_free                                        output.o
SXNET_get_id_INTEGER                              output.o
SXNET_get_id_asc                                  output.o
SXNET_get_id_ulong                                output.o
SXNET_it                                          output.o
SXNET_new                                         output.o
Se4AddArpEntryList                                output.o
Se4AdjustTcpMss                                   output.o
Se4And                                            output.o
Se4BitToHex                                       output.o
Se4BroadcastMacAddress                            output.o
Se4BuildIcmpEchoPacket                            output.o
Se4CheckUnicastAddress                            output.o
Se4Cmp                                            output.o
Se4CmpArpEntry                                    output.o
Se4CmpArpWaitEntry                                output.o
Se4CmpIpCombineList                               output.o
Se4CombineIp                                      output.o
Se4FlushArpEntryList                              output.o
Se4FlushIpCombineList                             output.o
Se4FlushIpWaitList                                output.o
Se4Free                                           output.o
Se4FreeArpEntryList                               output.o
Se4FreeArpWaitList                                output.o
Se4FreeIpCombine                                  output.o
Se4FreeIpCombineList                              output.o
Se4FreeIpFragmentList                             output.o
Se4FreeIpHeaderInfo                               output.o
Se4FreeIpWait                                     output.o
Se4FreeIpWaitList                                 output.o
Se4GenerateSubnetMask                             output.o
Se4GenerateSubnetMask32                           output.o
Se4GetBroadcastAddress                            output.o
Se4GetHostAddress                                 output.o
Se4GetNetworkAddress                              output.o
Se4IPToStr                                        output.o
Se4IPToStr32                                      output.o
Se4IPToUINT                                       output.o
Se4Init                                           output.o
Se4InitArpEntryList                               output.o
Se4InitArpWaitList                                output.o
Se4InitIpCombineList                              output.o
Se4InitIpFragmentList                             output.o
Se4InitIpWaitList                                 output.o
Se4InsertIpCombine                                output.o
Se4InsertIpWait                                   output.o
Se4IpCheckChecksum                                output.o
Se4IpChecksum                                     output.o
Se4IsBroadcastAddress                             output.o
Se4IsInSameNetwork                                output.o
Se4IsSubnetMask                                   output.o
Se4IsZeroIP                                       output.o
Se4MacIpRelationKnown                             output.o
Se4MainProc                                       output.o
Se4Not                                            output.o
Se4Or                                             output.o
Se4ParseIpPacket                                  output.o
Se4ParseIpPacketICMPv4                            output.o
Se4ParseIpPacketUDPv4                             output.o
Se4ProcessArpWaitList                             output.o
Se4RecvArp                                        output.o
Se4RecvArpRequest                                 output.o
Se4RecvArpResponse                                output.o
Se4RecvEthPacket                                  output.o
Se4RecvIp                                         output.o
Se4RecvIpComplete                                 output.o
Se4SearchArpEntryList                             output.o
Se4SearchArpWaitList                              output.o
Se4SearchIpCombineList                            output.o
Se4SendArpDoProcess                               output.o
Se4SendArpRequest                                 output.o
Se4SendArpResponse                                output.o
Se4SendEthPacket                                  output.o
Se4SendIcmp                                       output.o
Se4SendIcmpEchoRequest                            output.o
Se4SendIcmpEchoResponse                           output.o
Se4SendIp                                         output.o
Se4SendIpFragment                                 output.o
Se4SendIpFragmentNow                              output.o
Se4SendRawIp                                      output.o
Se4SendUdp                                        output.o
Se4SendWaitingIpWait                              output.o
Se4StrToIP                                        output.o
Se4StrToIP32                                      output.o
Se4Tick                                           output.o
Se4UINTToIP                                       output.o
Se4ZeroIP                                         output.o
Se6AddGuestNode                                   output.o
Se6AddNeighborEntryList                           output.o
Se6And                                            output.o
Se6BroadcastMacAddress                            output.o
Se6BuildIcmpEchoPacket                            output.o
Se6CalcChecksum                                   output.o
Se6CheckIPItemStr                                 output.o
Se6CheckSubnetLength                              output.o
Se6CheckUnicastAddress                            output.o
Se6Cmp                                            output.o
Se6CmpIpCombineList                               output.o
Se6CmpNdpWaitEntry                                output.o
Se6CmpNeighborEntry                               output.o
Se6CombineIp                                      output.o
Se6FlushIpCombineList                             output.o
Se6FlushIpWaitList                                output.o
Se6FlushNeighborEntryList                         output.o
Se6Free                                           output.o
Se6FreeIpCombine                                  output.o
Se6FreeIpCombineList                              output.o
Se6FreeIpFragmentList                             output.o
Se6FreeIpHeaderInfo                               output.o
Se6FreeIpWait                                     output.o
Se6FreeIpWaitList                                 output.o
Se6FreeNdpWaitList                                output.o
Se6FreeNeighborEntryList                          output.o
Se6GenerateEui64Address                           output.o
Se6GenerateEui64GlobalAddress                     output.o
Se6GenerateEui64LocalAddress                      output.o
Se6GenerateMulticastMacAddress                    output.o
Se6GenerateSubnetMask                             output.o
Se6GetAllNodeMulticastAddr                        output.o
Se6GetAllRouterMulticastAddr                      output.o
Se6GetHostAddress                                 output.o
Se6GetIPAddrType                                  output.o
Se6GetPrefixAddress                               output.o
Se6GetSoliciationMulticastAddr                    output.o
Se6IPItemStrToChars                               output.o
Se6IPToStr                                        output.o
Se6Init                                           output.o
Se6InitIpCombineList                              output.o
Se6InitIpFragmentList                             output.o
Se6InitIpWaitList                                 output.o
Se6InitNdpWaitList                                output.o
Se6InitNeighborEntryList                          output.o
Se6InsertIpCombine                                output.o
Se6InsertIpWait                                   output.o
Se6IpChecksum                                     output.o
Se6IsGuestNode                                    output.o
Se6IsInSameNetwork                                output.o
Se6IsNetworkPrefixAddress                         output.o
Se6IsSubnetMask                                   output.o
Se6IsZeroIP                                       output.o
Se6LocalSubnet                                    output.o
Se6MacIpRelationKnown                             output.o
Se6MainProc                                       output.o
Se6Not                                            output.o
Se6Or                                             output.o
Se6ParseIpPacket                                  output.o
Se6ParseIpPacketICMPv6                            output.o
Se6ParseIpPacketUDPv6                             output.o
Se6ProcessNdpWaitList                             output.o
Se6RecvEthPacket                                  output.o
Se6RecvIp                                         output.o
Se6RecvIpComplete                                 output.o
Se6SearchIpCombineList                            output.o
Se6SearchNdpWaitList                              output.o
Se6SearchNeighborEntryList                        output.o
Se6SendEthPacket                                  output.o
Se6SendIcmp                                       output.o
Se6SendIcmpEchoRequest                            output.o
Se6SendIcmpEchoResponse                           output.o
Se6SendIcmpNeighborAdvertisement                  output.o
Se6SendIcmpNeighborSoliciation                    output.o
Se6SendIcmpRouterAdvertisement                    output.o
Se6SendIp                                         output.o
Se6SendIpFragment                                 output.o
Se6SendIpFragmentNow                              output.o
Se6SendNeighborSoliciation                        output.o
Se6SendNeighborSoliciationDoProcess               output.o
Se6SendRawIp                                      output.o
Se6SendUdp                                        output.o
Se6SendWaitingIpWait                              output.o
Se6StrToIP                                        output.o
Se6SubnetMaskToInt                                output.o
Se6Tick                                           output.o
Se6ZeroIP                                         output.o
SeAdd                                             output.o
SeAddBufStr                                       output.o
SeAdjustBufSize                                   output.o
SeB64CharToCode                                   output.o
SeB64CodeToChar                                   output.o
SeB64Decode                                       output.o
SeB64Encode                                       output.o
SeBSearch                                         output.o
SeBigNumToBuf                                     output.o
SeBigNumToStr                                     output.o
SeBinToBigNum                                     output.o
SeBinToStr                                        output.o
SeBinToStrEx                                      output.o
SeBioToBuf                                        output.o
SeBioToCert                                       output.o
SeBioToKey                                        output.o
SeBufToBigNum                                     output.o
SeBufToBio                                        output.o
SeBufToCert                                       output.o
SeBufToKey                                        output.o
SeBuildAndAddIPv6PacketOptionHeader               output.o
SeBuildICMPv6OptionValue                          output.o
SeBuildICMPv6Options                              output.o
SeBuildIPv6Packet                                 output.o
SeBuildIPv6PacketWithFragment                     output.o
SeCalcReplaceStrEx                                output.o
SeCertToBio                                       output.o
SeCertToBuf                                       output.o
SeCheckCert                                       output.o
SeCheckCertAndKey                                 output.o
SeCheckSignature                                  output.o
SeClearBuf                                        output.o
SeClearFifo                                       output.o
SeClone                                           output.o
SeCloneBuf                                        output.o
SeCloneCert                                       output.o
SeCloneKey                                        output.o
SeCloneList                                       output.o
SeCmp                                             output.o
SeCmpBuf                                          output.o
SeCmpEx                                           output.o
SeCompareCert                                     output.o
SeCompareStr                                      output.o
SeCopy                                            output.o
SeCopyStr                                         output.o
SeCopyToArray                                     output.o
SeDebug                                           output.o
SeDebugBin                                        output.o
SeDefaultTokenSplitChars                          output.o
SeDelete                                          output.o
SeDeleteAll                                       output.o
SeDeleteLock                                      output.o
SeDes3Decrypt                                     output.o
SeDes3Encrypt                                     output.o
SeDes3FreeKey                                     output.o
SeDes3NewKey                                      output.o
SeDes3RandKey                                     output.o
SeDesFreeKey                                      output.o
SeDesFreeKeyValue                                 output.o
SeDesNewKey                                       output.o
SeDesNewKeyValue                                  output.o
SeDesRandKey                                      output.o
SeDesRandKeyValue                                 output.o
SeDhCompute                                       output.o
SeDhFree                                          output.o
SeDhNew                                           output.o
SeDhNewGroup2                                     output.o
SeDumpBuf                                         output.o
SeEndWith                                         output.o
SeEndian16                                        output.o
SeEndian32                                        output.o
SeEndian64                                        output.o
SeError                                           output.o
SeEthAddSenderMacList                             output.o
SeEthDeleteOldSenderMacList                       output.o
SeEthFree                                         output.o
SeEthGenRandMacAddress                            output.o
SeEthGetInfo                                      output.o
SeEthGetNextRecvPacket                            output.o
SeEthIsSenderMacAddressExistsInList               output.o
SeEthNew                                          output.o
SeEthNicCallback                                  output.o
SeEthParseEthernetPacket                          output.o
SeEthSend                                         output.o
SeEthSendAdd                                      output.o
SeEthSendAll                                      output.o
SeFastSwap                                        output.o
SeFatal                                           output.o
SeFifoSize                                        output.o
SeFormat                                          output.o
SeFormatArgs                                      output.o
SeFormatEx                                        output.o
SeFree                                            output.o
SeFreeBio                                         output.o
SeFreeBuf                                         output.o
SeFreeBufWithoutBuffer                            output.o
SeFreeCert                                        output.o
SeFreeConfigEntryList                             output.o
SeFreeCrypto                                      output.o
SeFreeFifo                                        output.o
SeFreeKernel                                      output.o
SeFreeKey                                         output.o
SeFreeList                                        output.o
SeFreePKey                                        output.o
SeFreePacket                                      output.o
SeFreePacketList                                  output.o
SeFreePacketListWithoutBuffer                     output.o
SeFreeQueue                                       output.o
SeFreeStack                                       output.o
SeFreeToken                                       output.o
SeFreeX509                                        output.o
SeGetCertIssuerName                               output.o
SeGetCertMd5                                      output.o
SeGetCertSha1                                     output.o
SeGetCertSubjectName                              output.o
SeGetConfigBin                                    output.o
SeGetConfigBool                                   output.o
SeGetConfigEntry                                  output.o
SeGetConfigInt                                    output.o
SeGetConfigInt64                                  output.o
SeGetConfigStr                                    output.o
SeGetCurrentCpuId                                 output.o
SeGetKeyAndValue                                  output.o
SeGetKeyFromCert                                  output.o
SeGetNext                                         output.o
SeGetNextHeaderFromQueue                          output.o
SeGetNextInt                                      output.o
SeHashForSignBySHA1                               output.o
SeHexTo4Bit                                       output.o
SeHexToInt                                        output.o
SeHexToInt64                                      output.o
SeIkeBuild                                        output.o
SeIkeBuildCertPayload                             output.o
SeIkeBuildCertRequestPayload                      output.o
SeIkeBuildDataPayload                             output.o
SeIkeBuildDeletePayload                           output.o
SeIkeBuildIdPayload                               output.o
SeIkeBuildNoticePayload                           output.o
SeIkeBuildPayload                                 output.o
SeIkeBuildPayloadList                             output.o
SeIkeBuildProposalPayload                         output.o
SeIkeBuildSaPayload                               output.o
SeIkeBuildTransformPayload                        output.o
SeIkeBuildTransformValue                          output.o
SeIkeBuildTransformValueList                      output.o
SeIkeDecrypt                                      output.o
SeIkeEncrypt                                      output.o
SeIkeEncryptWithPadding                           output.o
SeIkeFree                                         output.o
SeIkeFreeCertPayload                              output.o
SeIkeFreeCertRequestPayload                       output.o
SeIkeFreeDataPayload                              output.o
SeIkeFreeDeletePayload                            output.o
SeIkeFreeIdPayload                                output.o
SeIkeFreeNoticePayload                            output.o
SeIkeFreePayload                                  output.o
SeIkeFreePayloadList                              output.o
SeIkeFreeProposalPayload                          output.o
SeIkeFreeSaPayload                                output.o
SeIkeFreeTransformPayload                         output.o
SeIkeFreeTransformValueList                       output.o
SeIkeGetFirstPayloadType                          output.o
SeIkeGetIPv4Address                               output.o
SeIkeGetIPv6Address                               output.o
SeIkeGetPayload                                   output.o
SeIkeGetPayloadNum                                output.o
SeIkeInitIPv4Address                              output.o
SeIkeInitIPv6Address                              output.o
SeIkeIpAddressToStr                               output.o
SeIkeIsZeroIP                                     output.o
SeIkeNew                                          output.o
SeIkeNewCertPayload                               output.o
SeIkeNewCertRequestPayload                        output.o
SeIkeNewDataPayload                               output.o
SeIkeNewDeletePayload                             output.o
SeIkeNewIdPayload                                 output.o
SeIkeNewNoticePayload                             output.o
SeIkeNewPayload                                   output.o
SeIkeNewProposalPayload                           output.o
SeIkeNewSaPayload                                 output.o
SeIkeNewTransformPayload                          output.o
SeIkeNewTransformValue                            output.o
SeIkeParse                                        output.o
SeIkeParseCertPayload                             output.o
SeIkeParseCertRequestPayload                      output.o
SeIkeParseDataPayload                             output.o
SeIkeParseDeletePayload                           output.o
SeIkeParseEx                                      output.o
SeIkeParseHeader                                  output.o
SeIkeParseIdPayload                               output.o
SeIkeParseNoticePayload                           output.o
SeIkeParsePayload                                 output.o
SeIkeParsePayloadList                             output.o
SeIkeParsePayloadListEx                           output.o
SeIkeParseProposalPayload                         output.o
SeIkeParseSaPayload                               output.o
SeIkeParseTransformPayload                        output.o
SeIkeParseTransformValueList                      output.o
SeIkePhase1CryptIdToKeySize                       output.o
SeIkePhase2CryptIdToKeySize                       output.o
SeIkeStrToPassword                                output.o
SeIkeStrToPhase1CryptId                           output.o
SeIkeStrToPhase1HashId                            output.o
SeIkeStrToPhase2CryptId                           output.o
SeIkeStrToPhase2HashId                            output.o
SeInfo                                            output.o
SeInitCrypto                                      output.o
SeInitKernel                                      output.o
SeInsert                                          output.o
SeInsertQueue                                     output.o
SeInsertQueueInt                                  output.o
SeInsertStr                                       output.o
SeIntFree                                         output.o
SeIntInit                                         output.o
SeIsAllLowerStr                                   output.o
SeIsAllUpperStr                                   output.o
SeIsBase64                                        output.o
SeIsBigEndian                                     output.o
SeIsCertSignedByCert                              output.o
SeIsCharInStr                                     output.o
SeIsEmptyStr                                      output.o
SeIsInList                                        output.o
SeIsInListStr                                     output.o
SeIsLittleEndian                                  output.o
SeIsSplitChar                                     output.o
SeIsZero                                          output.o
SeKeyToBio                                        output.o
SeKeyToBuf                                        output.o
SeLoad                                            output.o
SeLoadCert                                        output.o
SeLoadConfigEntryList                             output.o
SeLoadConfigEntryListFromBuf                      output.o
SeLoadKey                                         output.o
SeLock                                            output.o
SeLog                                             output.o
SeLogArgs                                         output.o
SeMacSha1                                         output.o
SeMacSha196                                       output.o
SeMacToStr                                        output.o
SeMakeCharArray                                   output.o
SeMalloc                                          output.o
SeMd5                                             output.o
SeMemSize                                         output.o
SeMemToBuf                                        output.o
SeNewBio                                          output.o
SeNewBuf                                          output.o
SeNewFifo                                         output.o
SeNewList                                         output.o
SeNewLock                                         output.o
SeNewQueue                                        output.o
SeNewStack                                        output.o
SeNormalizeCrlf                                   output.o
SeNullTokenList                                   output.o
SePKeyPasswordCallbackFunction                    output.o
SeParseICMPv6Options                              output.o
SeParseIPv6ExtHeader                              output.o
SeParseIPv6Packet                                 output.o
SeParsePacket                                     output.o
SeParsePacketL2                                   output.o
SeParsePacketL3ARPv4                              output.o
SeParsePacketL3IPv4                               output.o
SeParsePacketL3IPv6                               output.o
SeParseToken                                      output.o
SeParseTokenWithNullStr                           output.o
SePeekFifo                                        output.o
SePeekNext                                        output.o
SePop                                             output.o
SePush                                            output.o
SeQSort                                           output.o
SeRand                                            output.o
SeRand1                                           output.o
SeRand16                                          output.o
SeRand32                                          output.o
SeRand64                                          output.o
SeRand8                                           output.o
SeRandBuf                                         output.o
SeReAlloc                                         output.o
SeReadBuf                                         output.o
SeReadBufFromBuf                                  output.o
SeReadBufInt                                      output.o
SeReadBufInt64                                    output.o
SeReadBufStr                                      output.o
SeReadDump                                        output.o
SeReadFifo                                        output.o
SeReadNextLine                                    output.o
SeReadRemainBuf                                   output.o
SeReplaceListPointer                              output.o
SeReplaceStr                                      output.o
SeReplaceStrEx                                    output.o
SeReplaceStri                                     output.o
SeRsaGen                                          output.o
SeRsaPrivateDecrypt                               output.o
SeRsaPrivateEncrypt                               output.o
SeRsaPublicDecrypt                                output.o
SeRsaPublicEncrypt                                output.o
SeRsaPublicSize                                   output.o
SeRsaPublicToBin                                  output.o
SeRsaPublicToBuf                                  output.o
SeRsaSign                                         output.o
SeRsaSignWithPadding                              output.o
SeRsaSignWithSha1                                 output.o
SeRsaVerifyWithPadding                            output.o
SeRsaVerifyWithSha1                               output.o
SeSave                                            output.o
SeSaveCert                                        output.o
SeSaveKey                                         output.o
SeSearch                                          output.o
SeSearchStr                                       output.o
SeSearchStrEx                                     output.o
SeSearchStri                                      output.o
SeSecAddTimer                                     output.o
SeSecCalcKEYMAT                                   output.o
SeSecCalcKEYMATFull                               output.o
SeSecCalcKa                                       output.o
SeSecCalcP1Iv                                     output.o
SeSecCalcP1KeySet                                 output.o
SeSecCalcP2Iv                                     output.o
SeSecCheckIPsecSaExpires                          output.o
SeSecCheckIkeSaExpires                            output.o
SeSecCmpIkeSa                                     output.o
SeSecDeleteExpiredIPsecSa                         output.o
SeSecDeleteExpiredIkeSa                           output.o
SeSecDoInterval                                   output.o
SeSecEspRecvCallback                              output.o
SeSecForceReconnect                               output.o
SeSecFree                                         output.o
SeSecFreeIPsecSa                                  output.o
SeSecFreeIkeSa                                    output.o
SeSecFreeMain                                     output.o
SeSecFreeP1KeySet                                 output.o
SeSecFreeSaList                                   output.o
SeSecGenIPsecSASpi                                output.o
SeSecGenIkeSaInitCookie                           output.o
SeSecGenIkeSaMessageId                            output.o
SeSecGetIPsecSa                                   output.o
SeSecInit                                         output.o
SeSecInitMain                                     output.o
SeSecInitSaList                                   output.o
SeSecLifeSeconds64bit                             output.o
SeSecNewIPsecSa                                   output.o
SeSecNewIkeSa                                     output.o
SeSecNewSpi                                       output.o
SeSecProcessIkeSaMsg                              output.o
SeSecProcessIkeSaMsgInfo                          output.o
SeSecProcessIkeSaMsgPhase1                        output.o
SeSecProcessIkeSaMsgPhase2                        output.o
SeSecProcessMain                                  output.o
SeSecSearchIPsecSaBySpi                           output.o
SeSecSearchIkeSa                                  output.o
SeSecSearchIkeSaBySpi                             output.o
SeSecSendEsp                                      output.o
SeSecSendIPsecSaDeleteMsg                         output.o
SeSecSendIkeSaDeleteMsg                           output.o
SeSecSendIkeSaMsgInfo                             output.o
SeSecSendIkeSaMsgInfoSimple                       output.o
SeSecSendIkeSaMsgPhase2                           output.o
SeSecSendIkeSaMsgPhase2FinalHash                  output.o
SeSecSendUdp                                      output.o
SeSecSendVirtualIp                                output.o
SeSecSetRecvEspCallback                           output.o
SeSecSetRecvUdpCallback                           output.o
SeSecSetRecvVirtualIpCallback                     output.o
SeSecSetTimerCallback                             output.o
SeSecStartVpnConnect                              output.o
SeSecStrToAuthMethod                              output.o
SeSecTick                                         output.o
SeSecTimerCallback                                output.o
SeSecUdpRecvCallback                              output.o
SeSecVirtualIpRecvCallback                        output.o
SeSeekBuf                                         output.o
SeSetCmp                                          output.o
SeSetSortFlag                                     output.o
SeSha1                                            output.o
SeSort                                            output.o
SeStartWith                                       output.o
SeStrCat                                          output.o
SeStrCheckLen                                     output.o
SeStrCheckSize                                    output.o
SeStrCmp                                          output.o
SeStrCmpi                                         output.o
SeStrCpy                                          output.o
SeStrLen                                          output.o
SeStrLower                                        output.o
SeStrSize                                         output.o
SeStrToBin                                        output.o
SeStrToBinEx                                      output.o
SeStrToMac                                        output.o
SeStrUpper                                        output.o
SeStrnCmp                                         output.o
SeStrnCmpi                                        output.o
SeSwap                                            output.o
SeSwap16                                          output.o
SeSwap32                                          output.o
SeSwap64                                          output.o
SeSysFreeData                                     output.o
SeSysFreeLock                                     output.o
SeSysFreeTimer                                    output.o
SeSysGetCurrentCpuId                              output.o
SeSysGetPhysicalNicInfo                           output.o
SeSysGetTickCount                                 output.o
SeSysGetVirtualNicInfo                            output.o
SeSysLoadData                                     output.o
SeSysLock                                         output.o
SeSysLog                                          output.o
SeSysMemoryAlloc                                  output.o
SeSysMemoryFree                                   output.o
SeSysMemoryReAlloc                                output.o
SeSysNewLock                                      output.o
SeSysNewTimer                                     output.o
SeSysRsaSign                                      output.o
SeSysSaveData                                     output.o
SeSysSendPhysicalNic                              output.o
SeSysSendVirtualNic                               output.o
SeSysSetPhysicalNicRecvCallback                   output.o
SeSysSetTimer                                     output.o
SeSysSetVirtualNicRecvCallback                    output.o
SeSysUnlock                                       output.o
SeTick                                            output.o
SeTick64                                          output.o
SeTick64Internal                                  output.o
SeTimerAdjust                                     output.o
SeTimerCallback                                   output.o
SeTimerEntryCompare                               output.o
SeTimerFree                                       output.o
SeTimerNew                                        output.o
SeTimerSet                                        output.o
SeToArray                                         output.o
SeToHex                                           output.o
SeToHex64                                         output.o
SeToInt                                           output.o
SeToInt64                                         output.o
SeToLower                                         output.o
SeToStr                                           output.o
SeToStr3                                          output.o
SeToStr64                                         output.o
SeToUpper                                         output.o
SeTrim                                            output.o
SeTrimCopy                                        output.o
SeTrimCrlf                                        output.o
SeTrimLeft                                        output.o
SeTrimRight                                       output.o
SeUniqueToken                                     output.o
SeUnlock                                          output.o
SeVpn4ClientAddTimer                              output.o
SeVpn4ClientGetTick                               output.o
SeVpn4ClientSendEsp                               output.o
SeVpn4ClientSendUdp                               output.o
SeVpn4ClientSendVirtualIp                         output.o
SeVpn4ClientSetRecvEspCallback                    output.o
SeVpn4ClientSetRecvUdpCallback                    output.o
SeVpn4ClientSetRecvVirtualIpCallback              output.o
SeVpn4ClientSetTimerCallback                      output.o
SeVpn4DhcpBuildDhcpOptionList                     output.o
SeVpn4DhcpFreeOptionList                          output.o
SeVpn4DhcpOptionsToBuf                            output.o
SeVpn4DhcpParseOptionList                         output.o
SeVpn4DhcpParseOptionListMain                     output.o
SeVpn4DhcpSearchOption                            output.o
SeVpn4DhcpSendResponse                            output.o
SeVpn4DhcpServer                                  output.o
SeVpn4DoInterval                                  output.o
SeVpn4Free                                        output.o
SeVpn4FreeIPsec                                   output.o
SeVpn4IPsecInputFromPhysical                      output.o
SeVpn4IPsecInputFromVirtual                       output.o
SeVpn4IPsecMainProc                               output.o
SeVpn4IPsecSendPing                               output.o
SeVpn4Init                                        output.o
SeVpn4InitIPsec                                   output.o
SeVpn4InitSecConfig                               output.o
SeVpn4MainProc                                    output.o
SeVpn4NewDhcpOption                               output.o
SeVpn4RecvPacketPhysical                          output.o
SeVpn4RecvPacketVirtual                           output.o
SeVpn4SetTimer                                    output.o
SeVpn4Tick                                        output.o
SeVpn6ClientAddTimer                              output.o
SeVpn6ClientGetTick                               output.o
SeVpn6ClientSendEsp                               output.o
SeVpn6ClientSendUdp                               output.o
SeVpn6ClientSendVirtualIp                         output.o
SeVpn6ClientSetRecvEspCallback                    output.o
SeVpn6ClientSetRecvUdpCallback                    output.o
SeVpn6ClientSetRecvVirtualIpCallback              output.o
SeVpn6ClientSetTimerCallback                      output.o
SeVpn6DoInterval                                  output.o
SeVpn6Free                                        output.o
SeVpn6FreeIPsec                                   output.o
SeVpn6IPsecInputFromPhysical                      output.o
SeVpn6IPsecInputFromVirtual                       output.o
SeVpn6IPsecMainProc                               output.o
SeVpn6IPsecSendPing                               output.o
SeVpn6Init                                        output.o
SeVpn6InitIPsec                                   output.o
SeVpn6InitSecConfig                               output.o
SeVpn6MainProc                                    output.o
SeVpn6RecvPacketPhysical                          output.o
SeVpn6RecvPacketVirtual                           output.o
SeVpn6SetTimer                                    output.o
SeVpn6Tick                                        output.o
SeVpn6UpdateGuestOsIpAddress                      output.o
SeVpnAddTimer                                     output.o
SeVpnDoInterval                                   output.o
SeVpnEthRecvCallback                              output.o
SeVpnFree                                         output.o
SeVpnFreeConfig                                   output.o
SeVpnFreeIpStack                                  output.o
SeVpnInit                                         output.o
SeVpnInitIpStack                                  output.o
SeVpnLoadConfig                                   output.o
SeVpnMainFree                                     output.o
SeVpnMainHandler                                  output.o
SeVpnMainInit                                     output.o
SeVpnMainProcRecvEtherPacket                      output.o
SeVpnMainProcess                                  output.o
SeVpnRecvEtherPacket                              output.o
SeVpnRecvIpV4PacketCallback                       output.o
SeVpnRecvIpV6PacketCallback                       output.o
SeVpnSendEtherPacket                              output.o
SeVpnStatusChanged                                output.o
SeVpnTick                                         output.o
SeVpnTimerCallback                                output.o
SeWarning                                         output.o
SeWriteBuf                                        output.o
SeWriteBufBuf                                     output.o
SeWriteBufInt                                     output.o
SeWriteBufInt64                                   output.o
SeWriteBufLine                                    output.o
SeWriteBufStr                                     output.o
SeWriteFifo                                       output.o
SeX509ToCert                                      output.o
SeZero                                            output.o
SeZeroMalloc                                      output.o
SelectFileDF                                      output.o
SelectFileEF                                      output.o
SetATR                                            output.o
SetElem                                           output.o
SetLength                                         output.o
StIsdigit                                         output.o
StIsspace                                         output.o
T0XfrBlockCHAR                                    output.o
T0XfrBlockTPDU                                    output.o
T1NegociateIFSD                                   output.o
T1XfrBlockExtendedAPDU                            output.o
T1XfrBlockTPDU                                    output.o
TransHex2Tex                                      output.o
TransTex2Hex                                      output.o
TransmitCommand                                   output.o
TransmitPPS                                       output.o
UI_OpenSSL                                        output.o
UI_add_error_string                               output.o
UI_add_info_string                                output.o
UI_add_input_boolean                              output.o
UI_add_input_string                               output.o
UI_add_user_data                                  output.o
UI_add_verify_string                              output.o
UI_construct_prompt                               output.o
UI_create_method                                  output.o
UI_ctrl                                           output.o
UI_destroy_method                                 output.o
UI_dup_error_string                               output.o
UI_dup_info_string                                output.o
UI_dup_input_boolean                              output.o
UI_dup_input_string                               output.o
UI_dup_verify_string                              output.o
UI_free                                           output.o
UI_get0_action_string                             output.o
UI_get0_output_string                             output.o
UI_get0_result                                    output.o
UI_get0_result_string                             output.o
UI_get0_test_string                               output.o
UI_get0_user_data                                 output.o
UI_get_default_method                             output.o
UI_get_ex_data                                    output.o
UI_get_ex_new_index                               output.o
UI_get_input_flags                                output.o
UI_get_method                                     output.o
UI_get_result_maxsize                             output.o
UI_get_result_minsize                             output.o
UI_get_string_type                                output.o
UI_method_get_closer                              output.o
UI_method_get_flusher                             output.o
UI_method_get_opener                              output.o
UI_method_get_prompt_constructor                  output.o
UI_method_get_reader                              output.o
UI_method_get_writer                              output.o
UI_method_set_closer                              output.o
UI_method_set_flusher                             output.o
UI_method_set_opener                              output.o
UI_method_set_prompt_constructor                  output.o
UI_method_set_reader                              output.o
UI_method_set_writer                              output.o
UI_new                                            output.o
UI_new_method                                     output.o
UI_process                                        output.o
UI_set_default_method                             output.o
UI_set_ex_data                                    output.o
UI_set_method                                     output.o
UI_set_result                                     output.o
USERNOTICE_free                                   output.o
USERNOTICE_it                                     output.o
USERNOTICE_new                                    output.o
UTF8_getc                                         output.o
UTF8_putc                                         output.o
UpdateBinary                                      output.o
VPN_IPsec_Client_Start                            output.o
VPN_IPsec_Client_Stop                             output.o
VPN_IPsec_Free                                    output.o
VPN_IPsec_Init                                    output.o
Verify                                            output.o
WHIRLPOOL                                         output.o
WHIRLPOOL_BitUpdate                               output.o
WHIRLPOOL_Final                                   output.o
WHIRLPOOL_Init                                    output.o
WHIRLPOOL_Update                                  output.o
WriteUSB                                          output.o
X509V3_EXT_CRL_add_conf                           output.o
X509V3_EXT_CRL_add_nconf                          output.o
X509V3_EXT_REQ_add_conf                           output.o
X509V3_EXT_REQ_add_nconf                          output.o
X509V3_EXT_add                                    output.o
X509V3_EXT_add_alias                              output.o
X509V3_EXT_add_conf                               output.o
X509V3_EXT_add_list                               output.o
X509V3_EXT_add_nconf                              output.o
X509V3_EXT_add_nconf_sk                           output.o
X509V3_EXT_cleanup                                output.o
X509V3_EXT_conf                                   output.o
X509V3_EXT_conf_nid                               output.o
X509V3_EXT_d2i                                    output.o
X509V3_EXT_get                                    output.o
X509V3_EXT_get_nid                                output.o
X509V3_EXT_i2d                                    output.o
X509V3_EXT_nconf                                  output.o
X509V3_EXT_nconf_nid                              output.o
X509V3_EXT_print                                  output.o
X509V3_EXT_val_prn                                output.o
X509V3_NAME_from_section                          output.o
X509V3_add1_i2d                                   output.o
X509V3_add_standard_extensions                    output.o
X509V3_add_value                                  output.o
X509V3_add_value_bool                             output.o
X509V3_add_value_bool_nf                          output.o
X509V3_add_value_int                              output.o
X509V3_add_value_uchar                            output.o
X509V3_conf_free                                  output.o
X509V3_extensions_print                           output.o
X509V3_get_d2i                                    output.o
X509V3_get_section                                output.o
X509V3_get_string                                 output.o
X509V3_get_value_bool                             output.o
X509V3_get_value_int                              output.o
X509V3_parse_list                                 output.o
X509V3_section_free                               output.o
X509V3_set_conf_lhash                             output.o
X509V3_set_ctx                                    output.o
X509V3_set_nconf                                  output.o
X509V3_string_free                                output.o
X509_ALGORS_it                                    output.o
X509_ALGOR_dup                                    output.o
X509_ALGOR_free                                   output.o
X509_ALGOR_get0                                   output.o
X509_ALGOR_it                                     output.o
X509_ALGOR_new                                    output.o
X509_ALGOR_set0                                   output.o
X509_ATTRIBUTE_SET_it                             output.o
X509_ATTRIBUTE_count                              output.o
X509_ATTRIBUTE_create                             output.o
X509_ATTRIBUTE_create_by_NID                      output.o
X509_ATTRIBUTE_create_by_OBJ                      output.o
X509_ATTRIBUTE_create_by_txt                      output.o
X509_ATTRIBUTE_dup                                output.o
X509_ATTRIBUTE_free                               output.o
X509_ATTRIBUTE_get0_data                          output.o
X509_ATTRIBUTE_get0_object                        output.o
X509_ATTRIBUTE_get0_type                          output.o
X509_ATTRIBUTE_it                                 output.o
X509_ATTRIBUTE_new                                output.o
X509_ATTRIBUTE_set1_data                          output.o
X509_ATTRIBUTE_set1_object                        output.o
X509_CERT_AUX_free                                output.o
X509_CERT_AUX_it                                  output.o
X509_CERT_AUX_new                                 output.o
X509_CERT_AUX_print                               output.o
X509_CERT_PAIR_free                               output.o
X509_CERT_PAIR_it                                 output.o
X509_CERT_PAIR_new                                output.o
X509_CINF_free                                    output.o
X509_CINF_it                                      output.o
X509_CINF_new                                     output.o
X509_CRL_INFO_free                                output.o
X509_CRL_INFO_it                                  output.o
X509_CRL_INFO_new                                 output.o
X509_CRL_METHOD_free                              output.o
X509_CRL_METHOD_new                               output.o
X509_CRL_add0_revoked                             output.o
X509_CRL_add1_ext_i2d                             output.o
X509_CRL_add_ext                                  output.o
X509_CRL_cmp                                      output.o
X509_CRL_delete_ext                               output.o
X509_CRL_digest                                   output.o
X509_CRL_dup                                      output.o
X509_CRL_free                                     output.o
X509_CRL_get0_by_cert                             output.o
X509_CRL_get0_by_serial                           output.o
X509_CRL_get_ext                                  output.o
X509_CRL_get_ext_by_NID                           output.o
X509_CRL_get_ext_by_OBJ                           output.o
X509_CRL_get_ext_by_critical                      output.o
X509_CRL_get_ext_count                            output.o
X509_CRL_get_ext_d2i                              output.o
X509_CRL_get_meth_data                            output.o
X509_CRL_it                                       output.o
X509_CRL_match                                    output.o
X509_CRL_new                                      output.o
X509_CRL_set_default_method                       output.o
X509_CRL_set_meth_data                            output.o
X509_CRL_sign                                     output.o
X509_CRL_verify                                   output.o
X509_EXTENSIONS_it                                output.o
X509_EXTENSION_create_by_NID                      output.o
X509_EXTENSION_create_by_OBJ                      output.o
X509_EXTENSION_dup                                output.o
X509_EXTENSION_free                               output.o
X509_EXTENSION_get_critical                       output.o
X509_EXTENSION_get_data                           output.o
X509_EXTENSION_get_object                         output.o
X509_EXTENSION_it                                 output.o
X509_EXTENSION_new                                output.o
X509_EXTENSION_set_critical                       output.o
X509_EXTENSION_set_data                           output.o
X509_EXTENSION_set_object                         output.o
X509_LOOKUP_by_alias                              output.o
X509_LOOKUP_by_fingerprint                        output.o
X509_LOOKUP_by_issuer_serial                      output.o
X509_LOOKUP_by_subject                            output.o
X509_LOOKUP_ctrl                                  output.o
X509_LOOKUP_free                                  output.o
X509_LOOKUP_init                                  output.o
X509_LOOKUP_new                                   output.o
X509_LOOKUP_shutdown                              output.o
X509_NAME_ENTRIES_it                              output.o
X509_NAME_ENTRY_create_by_NID                     output.o
X509_NAME_ENTRY_create_by_OBJ                     output.o
X509_NAME_ENTRY_create_by_txt                     output.o
X509_NAME_ENTRY_dup                               output.o
X509_NAME_ENTRY_free                              output.o
X509_NAME_ENTRY_get_data                          output.o
X509_NAME_ENTRY_get_object                        output.o
X509_NAME_ENTRY_it                                output.o
X509_NAME_ENTRY_new                               output.o
X509_NAME_ENTRY_set_data                          output.o
X509_NAME_ENTRY_set_object                        output.o
X509_NAME_INTERNAL_it                             output.o
X509_NAME_add_entry                               output.o
X509_NAME_add_entry_by_NID                        output.o
X509_NAME_add_entry_by_OBJ                        output.o
X509_NAME_add_entry_by_txt                        output.o
X509_NAME_cmp                                     output.o
X509_NAME_delete_entry                            output.o
X509_NAME_digest                                  output.o
X509_NAME_dup                                     output.o
X509_NAME_entry_count                             output.o
X509_NAME_free                                    output.o
X509_NAME_get_entry                               output.o
X509_NAME_get_index_by_NID                        output.o
X509_NAME_get_index_by_OBJ                        output.o
X509_NAME_get_text_by_NID                         output.o
X509_NAME_get_text_by_OBJ                         output.o
X509_NAME_hash                                    output.o
X509_NAME_hash_old                                output.o
X509_NAME_it                                      output.o
X509_NAME_new                                     output.o
X509_NAME_oneline                                 output.o
X509_NAME_print                                   output.o
X509_NAME_print_ex                                output.o
X509_NAME_set                                     output.o
X509_OBJECT_free_contents                         output.o
X509_OBJECT_idx_by_subject                        output.o
X509_OBJECT_retrieve_by_subject                   output.o
X509_OBJECT_retrieve_match                        output.o
X509_OBJECT_up_ref_count                          output.o
X509_POLICY_NODE_print                            output.o
X509_PUBKEY_free                                  output.o
X509_PUBKEY_get                                   output.o
X509_PUBKEY_get0_param                            output.o
X509_PUBKEY_it                                    output.o
X509_PUBKEY_new                                   output.o
X509_PUBKEY_set                                   output.o
X509_PUBKEY_set0_param                            output.o
X509_PURPOSE_add                                  output.o
X509_PURPOSE_cleanup                              output.o
X509_PURPOSE_get0                                 output.o
X509_PURPOSE_get0_name                            output.o
X509_PURPOSE_get0_sname                           output.o
X509_PURPOSE_get_by_id                            output.o
X509_PURPOSE_get_by_sname                         output.o
X509_PURPOSE_get_count                            output.o
X509_PURPOSE_get_id                               output.o
X509_PURPOSE_get_trust                            output.o
X509_PURPOSE_set                                  output.o
X509_REQ_INFO_free                                output.o
X509_REQ_INFO_it                                  output.o
X509_REQ_INFO_new                                 output.o
X509_REQ_add1_attr                                output.o
X509_REQ_add1_attr_by_NID                         output.o
X509_REQ_add1_attr_by_OBJ                         output.o
X509_REQ_add1_attr_by_txt                         output.o
X509_REQ_add_extensions                           output.o
X509_REQ_add_extensions_nid                       output.o
X509_REQ_check_private_key                        output.o
X509_REQ_delete_attr                              output.o
X509_REQ_digest                                   output.o
X509_REQ_dup                                      output.o
X509_REQ_extension_nid                            output.o
X509_REQ_free                                     output.o
X509_REQ_get1_email                               output.o
X509_REQ_get_attr                                 output.o
X509_REQ_get_attr_by_NID                          output.o
X509_REQ_get_attr_by_OBJ                          output.o
X509_REQ_get_attr_count                           output.o
X509_REQ_get_extension_nids                       output.o
X509_REQ_get_extensions                           output.o
X509_REQ_get_pubkey                               output.o
X509_REQ_it                                       output.o
X509_REQ_new                                      output.o
X509_REQ_set_extension_nids                       output.o
X509_REQ_set_pubkey                               output.o
X509_REQ_set_subject_name                         output.o
X509_REQ_set_version                              output.o
X509_REQ_sign                                     output.o
X509_REQ_verify                                   output.o
X509_REVOKED_add1_ext_i2d                         output.o
X509_REVOKED_add_ext                              output.o
X509_REVOKED_delete_ext                           output.o
X509_REVOKED_free                                 output.o
X509_REVOKED_get_ext                              output.o
X509_REVOKED_get_ext_by_NID                       output.o
X509_REVOKED_get_ext_by_OBJ                       output.o
X509_REVOKED_get_ext_by_critical                  output.o
X509_REVOKED_get_ext_count                        output.o
X509_REVOKED_get_ext_d2i                          output.o
X509_REVOKED_it                                   output.o
X509_REVOKED_new                                  output.o
X509_SIG_free                                     output.o
X509_SIG_it                                       output.o
X509_SIG_new                                      output.o
X509_STORE_CTX_cleanup                            output.o
X509_STORE_CTX_free                               output.o
X509_STORE_CTX_get0_current_crl                   output.o
X509_STORE_CTX_get0_current_issuer                output.o
X509_STORE_CTX_get0_param                         output.o
X509_STORE_CTX_get0_parent_ctx                    output.o
X509_STORE_CTX_get0_policy_tree                   output.o
X509_STORE_CTX_get1_chain                         output.o
X509_STORE_CTX_get1_issuer                        output.o
X509_STORE_CTX_get_chain                          output.o
X509_STORE_CTX_get_current_cert                   output.o
X509_STORE_CTX_get_error                          output.o
X509_STORE_CTX_get_error_depth                    output.o
X509_STORE_CTX_get_ex_data                        output.o
X509_STORE_CTX_get_ex_new_index                   output.o
X509_STORE_CTX_get_explicit_policy                output.o
X509_STORE_CTX_init                               output.o
X509_STORE_CTX_new                                output.o
X509_STORE_CTX_purpose_inherit                    output.o
X509_STORE_CTX_set0_crls                          output.o
X509_STORE_CTX_set0_param                         output.o
X509_STORE_CTX_set_cert                           output.o
X509_STORE_CTX_set_chain                          output.o
X509_STORE_CTX_set_default                        output.o
X509_STORE_CTX_set_depth                          output.o
X509_STORE_CTX_set_error                          output.o
X509_STORE_CTX_set_ex_data                        output.o
X509_STORE_CTX_set_flags                          output.o
X509_STORE_CTX_set_purpose                        output.o
X509_STORE_CTX_set_time                           output.o
X509_STORE_CTX_set_trust                          output.o
X509_STORE_CTX_set_verify_cb                      output.o
X509_STORE_CTX_trusted_stack                      output.o
X509_STORE_add_cert                               output.o
X509_STORE_add_crl                                output.o
X509_STORE_add_lookup                             output.o
X509_STORE_free                                   output.o
X509_STORE_get1_certs                             output.o
X509_STORE_get1_crls                              output.o
X509_STORE_get_by_subject                         output.o
X509_STORE_new                                    output.o
X509_STORE_set1_param                             output.o
X509_STORE_set_depth                              output.o
X509_STORE_set_flags                              output.o
X509_STORE_set_purpose                            output.o
X509_STORE_set_trust                              output.o
X509_STORE_set_verify_cb                          output.o
X509_TRUST_add                                    output.o
X509_TRUST_cleanup                                output.o
X509_TRUST_get0                                   output.o
X509_TRUST_get0_name                              output.o
X509_TRUST_get_by_id                              output.o
X509_TRUST_get_count                              output.o
X509_TRUST_get_flags                              output.o
X509_TRUST_get_trust                              output.o
X509_TRUST_set                                    output.o
X509_TRUST_set_default                            output.o
X509_VAL_free                                     output.o
X509_VAL_it                                       output.o
X509_VAL_new                                      output.o
X509_VERIFY_PARAM_add0_policy                     output.o
X509_VERIFY_PARAM_add0_table                      output.o
X509_VERIFY_PARAM_clear_flags                     output.o
X509_VERIFY_PARAM_free                            output.o
X509_VERIFY_PARAM_get_depth                       output.o
X509_VERIFY_PARAM_get_flags                       output.o
X509_VERIFY_PARAM_inherit                         output.o
X509_VERIFY_PARAM_lookup                          output.o
X509_VERIFY_PARAM_new                             output.o
X509_VERIFY_PARAM_set1                            output.o
X509_VERIFY_PARAM_set1_name                       output.o
X509_VERIFY_PARAM_set1_policies                   output.o
X509_VERIFY_PARAM_set_depth                       output.o
X509_VERIFY_PARAM_set_flags                       output.o
X509_VERIFY_PARAM_set_purpose                     output.o
X509_VERIFY_PARAM_set_time                        output.o
X509_VERIFY_PARAM_set_trust                       output.o
X509_VERIFY_PARAM_table_cleanup                   output.o
X509_add1_ext_i2d                                 output.o
X509_add1_reject_object                           output.o
X509_add1_trust_object                            output.o
X509_add_ext                                      output.o
X509_alias_get0                                   output.o
X509_alias_set1                                   output.o
X509_check_akid                                   output.o
X509_check_ca                                     output.o
X509_check_issued                                 output.o
X509_check_private_key                            output.o
X509_check_purpose                                output.o
X509_check_trust                                  output.o
X509_cmp                                          output.o
X509_cmp_current_time                             output.o
X509_cmp_time                                     output.o
X509_delete_ext                                   output.o
X509_digest                                       output.o
X509_dup                                          output.o
X509_email_free                                   output.o
X509_find_by_issuer_and_serial                    output.o
X509_find_by_subject                              output.o
X509_free                                         output.o
X509_get0_pubkey_bitstr                           output.o
X509_get1_email                                   output.o
X509_get1_ocsp                                    output.o
X509_get_default_cert_area                        output.o
X509_get_default_cert_dir                         output.o
X509_get_default_cert_dir_env                     output.o
X509_get_default_cert_file                        output.o
X509_get_default_cert_file_env                    output.o
X509_get_default_private_dir                      output.o
X509_get_ex_data                                  output.o
X509_get_ex_new_index                             output.o
X509_get_ext                                      output.o
X509_get_ext_by_NID                               output.o
X509_get_ext_by_OBJ                               output.o
X509_get_ext_by_critical                          output.o
X509_get_ext_count                                output.o
X509_get_ext_d2i                                  output.o
X509_get_issuer_name                              output.o
X509_get_pubkey                                   output.o
X509_get_pubkey_parameters                        output.o
X509_get_serialNumber                             output.o
X509_get_subject_name                             output.o
X509_gmtime_adj                                   output.o
X509_issuer_and_serial_cmp                        output.o
X509_issuer_and_serial_hash                       output.o
X509_issuer_name_cmp                              output.o
X509_issuer_name_hash                             output.o
X509_issuer_name_hash_old                         output.o
X509_it                                           output.o
X509_keyid_get0                                   output.o
X509_keyid_set1                                   output.o
X509_new                                          output.o
X509_ocspid_print                                 output.o
X509_policy_check                                 output.o
X509_policy_level_get0_node                       output.o
X509_policy_level_node_count                      output.o
X509_policy_node_get0_parent                      output.o
X509_policy_node_get0_policy                      output.o
X509_policy_node_get0_qualifiers                  output.o
X509_policy_tree_free                             output.o
X509_policy_tree_get0_level                       output.o
X509_policy_tree_get0_policies                    output.o
X509_policy_tree_get0_user_policies               output.o
X509_policy_tree_level_count                      output.o
X509_print                                        output.o
X509_print_ex                                     output.o
X509_pubkey_digest                                output.o
X509_reject_clear                                 output.o
X509_set_ex_data                                  output.o
X509_sign                                         output.o
X509_signature_print                              output.o
X509_subject_name_cmp                             output.o
X509_subject_name_hash                            output.o
X509_subject_name_hash_old                        output.o
X509_supported_extension                          output.o
X509_time_adj                                     output.o
X509_time_adj_ex                                  output.o
X509_to_X509_REQ                                  output.o
X509_trust_clear                                  output.o
X509_verify                                       output.o
X509_verify_cert                                  output.o
X509_version                                      output.o
X509at_add1_attr                                  output.o
X509at_add1_attr_by_NID                           output.o
X509at_add1_attr_by_OBJ                           output.o
X509at_add1_attr_by_txt                           output.o
X509at_delete_attr                                output.o
X509at_get0_data_by_OBJ                           output.o
X509at_get_attr                                   output.o
X509at_get_attr_by_NID                            output.o
X509at_get_attr_by_OBJ                            output.o
X509at_get_attr_count                             output.o
X509v3_add_ext                                    output.o
X509v3_delete_ext                                 output.o
X509v3_get_ext                                    output.o
X509v3_get_ext_by_NID                             output.o
X509v3_get_ext_by_OBJ                             output.o
X509v3_get_ext_by_critical                        output.o
X509v3_get_ext_count                              output.o
X9_62_CHARACTERISTIC_TWO_free                     output.o
X9_62_CHARACTERISTIC_TWO_it                       output.o
X9_62_CHARACTERISTIC_TWO_new                      output.o
X9_62_CURVE_it                                    output.o
X9_62_FIELDID_it                                  output.o
X9_62_PENTANOMIAL_free                            output.o
X9_62_PENTANOMIAL_it                              output.o
X9_62_PENTANOMIAL_new                             output.o
ZLONG_it                                          output.o
_CONF_add_string                                  output.o
_CONF_free_data                                   output.o
_CONF_get_section                                 output.o
_CONF_get_section_values                          output.o
_CONF_get_string                                  output.o
_CONF_new_data                                    output.o
_CONF_new_section                                 output.o
__initfunc_acpi_init_global                       output.o
__initfunc_acpi_init_paral                        output.o
__initfunc_ata_init                               output.o
__initfunc_beep_init_msg                          output.o
__initfunc_cache_init_pass                        output.o
__initfunc_cache_init_pcpu                        output.o
__initfunc_cache_init_vcpu                        output.o
__initfunc_callrealmode_init_global               output.o
__initfunc_callrealmode_panic                     output.o
__initfunc_copy_minios                            output.o
__initfunc_core_init                              output.o
__initfunc_cpu_mmu_spt_init_global                output.o
__initfunc_cpu_mmu_spt_init_pcpu                  output.o
__initfunc_cpuid_init                             output.o
__initfunc_cpuid_pass_init                        output.o
__initfunc_create_pass_vm                         output.o
__initfunc_debug_ata_init                         output.o
__initfunc_debug_on_shift_key                     output.o
__initfunc_ehci_init                              output.o
__initfunc_end                                    output.o
__initfunc_exint_pass_init                        output.o
__initfunc_get_shiftflags                         output.o
__initfunc_gmm_pass_init                          output.o
__initfunc_idman_init                             output.o
__initfunc_idman_init_global                      output.o
__initfunc_idman_kernel_init                      output.o
__initfunc_ieee1394_init                          output.o
__initfunc_ieee1394_init_boot                     output.o
__initfunc_install_int0x15_hook                   output.o
__initfunc_int_init_global                        output.o
__initfunc_int_wakeup                             output.o
__initfunc_io_io_init                             output.o
__initfunc_io_iopass_init                         output.o
__initfunc_iommu_setup                            output.o
__initfunc_keyboard_init_msg                      output.o
__initfunc_localapic_init                         output.o
__initfunc_mm_init_global                         output.o
__initfunc_mmio_debug                             output.o
__initfunc_mmio_init                              output.o
__initfunc_msg_init_global                        output.o
__initfunc_msr_init                               output.o
__initfunc_msr_pass_init                          output.o
__initfunc_nmi_pass_init                          output.o
__initfunc_nmi_pass_init_pcpu                     output.o
__initfunc_panic_init_global                      output.o
__initfunc_panic_init_global3                     output.o
__initfunc_panic_init_msg                         output.o
__initfunc_panic_init_pcpu                        output.o
__initfunc_pci_init                               output.o
__initfunc_print_boot_msg                         output.o
__initfunc_printf_init_global                     output.o
__initfunc_pro100_init                            output.o
__initfunc_process_init_ap                        output.o
__initfunc_process_init_global                    output.o
__initfunc_process_wakeup                         output.o
__initfunc_random_init_config0                    output.o
__initfunc_random_init_global                     output.o
__initfunc_reboot_init_msg                        output.o
__initfunc_resume_pro1000                         output.o
__initfunc_segment_init_global                    output.o
__initfunc_serial_init_msg                        output.o
__initfunc_setiohooks                             output.o
__initfunc_sleep_init_global                      output.o
__initfunc_sleep_init_msg                         output.o
__initfunc_start                                  output.o
__initfunc_storage_io_initfunc                    output.o
__initfunc_storage_kernel_init                    output.o
__initfunc_suspend_pro1000                        output.o
__initfunc_svm_panic                              output.o
__initfunc_sx_init_pass_init                      output.o
__initfunc_thread_init_global                     output.o
__initfunc_thread_init_pcpu                       output.o
__initfunc_time_init_global                       output.o
__initfunc_time_init_global_status                output.o
__initfunc_time_init_msg                          output.o
__initfunc_time_init_pcpu                         output.o
__initfunc_timer_init_global                      output.o
__initfunc_tty_init_global                        output.o
__initfunc_tty_init_global2                       output.o
__initfunc_tty_init_msg                           output.o
__initfunc_uhci_init                              output.o
__initfunc_unmap_user_area                        output.o
__initfunc_vcpu_init_global                       output.o
__initfunc_vga_init                               output.o
__initfunc_virtualization_init_pcpu               output.o
__initfunc_vmmcall_boot_init                      output.o
__initfunc_vmmcall_dbgsh_init                     output.o
__initfunc_vmmcall_dbgsh_init_global              output.o
__initfunc_vmmcall_dbgsh_init_pcpu                output.o
__initfunc_vmmcall_iccard_init                    output.o
__initfunc_vmmcall_init                           output.o
__initfunc_vmmcall_log_init                       output.o
__initfunc_vmmcall_status_init                    output.o
__initfunc_vmmcall_status_init_global             output.o
__initfunc_vpn_kernel_init                        output.o
__initfunc_vpn_pro1000_init                       output.o
__initfunc_vramwrite_init_bsp                     output.o
__initfunc_vramwrite_init_msg                     output.o
__initfunc_vt_panic                               output.o
__initfunc_vt_register_status_callback            output.o
__initfunc_xsetbv_init                            output.o
__initfunc_xsetbv_pass_init                       output.o
__process_builtin                                 output.o
__process_builtin_end                             output.o
_dprintf                                          output.o
_dprintft                                         output.o
_shadow_DES_check_key                             output.o
a2d_ASN1_OBJECT                                   output.o
a2i_ASN1_INTEGER                                  output.o
a2i_ASN1_STRING                                   output.o
a2i_GENERAL_NAME                                  output.o
a2i_IPADDRESS                                     output.o
a2i_IPADDRESS_NC                                  output.o
a2i_ipadd                                         output.o
acpi_dsdt_parse                                   output.o
acpi_dsdt_system_state                            output.o
acpi_iohook                                       output.o
acpi_poweroff                                     output.o
acpi_reset                                        output.o
acpi_smi_hook                                     output.o
add_remap                                         output.o
aes_xts_init                                      output.o
ahci_config_read                                  output.o
ahci_config_write                                 output.o
ahci_new                                          output.o
alloc                                             output.o
alloc2                                            output.o
alloc_handler_descriptor                          output.o
alloc_page                                        output.o
alloc_pages                                       output.o
alloc_realmodemem                                 output.o
allocateNewAppID                                  output.o
allocateNewApplicationIdentifiers                 output.o
allocateNewVMID                                   output.o
ap_start_addr                                     output.o
apic_available                                    output.o
apinit_lock                                       output.o
apinit_procs                                      output.o
apinitproc0                                       output.o
app_pkey_methods                                  output.o
asm_vmlaunch_regs_32                              output.o
asm_vmlaunch_regs_64                              output.o
asm_vmresume_regs_32                              output.o
asm_vmresume_regs_64                              output.o
asm_vmrun_regs_32                                 output.o
asm_vmrun_regs_64                                 output.o
asn1_Finish                                       output.o
asn1_GetSequence                                  output.o
asn1_add_error                                    output.o
asn1_const_Finish                                 output.o
asn1_do_adb                                       output.o
asn1_do_lock                                      output.o
asn1_enc_free                                     output.o
asn1_enc_init                                     output.o
asn1_enc_restore                                  output.o
asn1_enc_save                                     output.o
asn1_ex_c2i                                       output.o
asn1_ex_i2c                                       output.o
asn1_get_choice_selector                          output.o
asn1_get_field_ptr                                output.o
asn1_set_choice_selector                          output.o
asn1_template_print_ctx                           output.o
assertion_failed                                  output.o
ata_ahci_mode                                     output.o
ata_bm_handle_command                             output.o
ata_bm_handle_device_specific                     output.o
ata_bm_handle_prd_table                           output.o
ata_bm_handle_status                              output.o
ata_bm_handler                                    output.o
ata_bm_handler_table                              output.o
ata_channel_lock                                  output.o
ata_channel_unlock                                output.o
ata_cmdblk_handler                                output.o
ata_cmdblk_handler_table                          output.o
ata_config_read                                   output.o
ata_config_write                                  output.o
ata_ctlblk_handler                                output.o
ata_ctlblk_handler_table                          output.o
ata_get_cmd_type                                  output.o
ata_handle_queued_status                          output.o
ata_init_io_handler                               output.o
ata_init_vendor                                   output.o
ata_set_bm_handler                                output.o
ata_set_cmdblk_handler                            output.o
ata_set_ctlblk_handler                            output.o
atapi_handle_cmd_packet                           output.o
atapi_handle_config_data                          output.o
atapi_handle_interrupt_reason                     output.o
atapi_handle_packet_data                          output.o
atapi_handle_pio_identify_packet                  output.o
auto_reboot                                       output.o
backtrace                                         output.o
beep_off                                          output.o
beep_on                                           output.o
beep_set_freq                                     output.o
bn_add_part_words                                 output.o
bn_add_words                                      output.o
bn_cmp_part_words                                 output.o
bn_cmp_words                                      output.o
bn_div_words                                      output.o
bn_dup_expand                                     output.o
bn_expand2                                        output.o
bn_mul_add_words                                  output.o
bn_mul_comba4                                     output.o
bn_mul_comba8                                     output.o
bn_mul_high                                       output.o
bn_mul_low_normal                                 output.o
bn_mul_low_recursive                              output.o
bn_mul_normal                                     output.o
bn_mul_part_recursive                             output.o
bn_mul_recursive                                  output.o
bn_mul_words                                      output.o
bn_sqr_comba4                                     output.o
bn_sqr_comba8                                     output.o
bn_sqr_normal                                     output.o
bn_sqr_recursive                                  output.o
bn_sqr_words                                      output.o
bn_sub_part_words                                 output.o
bn_sub_words                                      output.o
bss                                               output.o
c2i_ASN1_BIT_STRING                               output.o
c2i_ASN1_INTEGER                                  output.o
c2i_ASN1_OBJECT                                   output.o
cache_get_attr                                    output.o
cache_get_gmsr_amd                                output.o
cache_get_gmtrr                                   output.o
cache_get_gmtrr_attr                              output.o
cache_get_gmtrr_type                              output.o
cache_get_gmtrrcap                                output.o
cache_get_gpat                                    output.o
cache_set_gmsr_amd                                output.o
cache_set_gmtrr                                   output.o
cache_set_gpat                                    output.o
call_cpuid                                        output.o
call_initfunc                                     output.o
call_io                                           output.o
call_read_msr                                     output.o
call_write_msr                                    output.o
call_xsetbv                                       output.o
callfunc_and_getint                               output.o
callrealmode_bootcd_getstatus                     output.o
callrealmode_disk_readlba                         output.o
callrealmode_disk_readmbr                         output.o
callrealmode_end                                  output.o
callrealmode_endofcodeaddr                        output.o
callrealmode_getfontinfo                          output.o
callrealmode_getshiftflags                        output.o
callrealmode_getsysmemmap                         output.o
callrealmode_printmsg                             output.o
callrealmode_reboot                               output.o
callrealmode_setcursorpos                         output.o
callrealmode_setvideomode                         output.o
callrealmode_start                                output.o
callrealmode_start2                               output.o
callrealmode_startkernel32                        output.o
callrealmode_tcgbios                              output.o
callrealmode_usevcpu                              output.o
cancel_sleep                                      output.o
changePageStatus                                  output.o
check_defer                                       output.o
chelp_abort                                       output.o
chelp_bsearch                                     output.o
chelp_div_64_32_32                                output.o
chelp_div_64_32_64                                output.o
chelp_free                                        output.o
chelp_inited                                      output.o
chelp_isalnum                                     output.o
chelp_isalpha                                     output.o
chelp_isdigit                                     output.o
chelp_islower                                     output.o
chelp_isspace                                     output.o
chelp_isupper                                     output.o
chelp_isxdigit                                    output.o
chelp_malloc                                      output.o
chelp_memchr                                      output.o
chelp_memcmp                                      output.o
chelp_memcpy                                      output.o
chelp_memmove                                     output.o
chelp_memset                                      output.o
chelp_mod_64_32_32                                output.o
chelp_mul_64_64_64                                output.o
chelp_print                                       output.o
chelp_printf                                      output.o
chelp_qsort                                       output.o
chelp_realloc                                     output.o
chelp_snprintf                                    output.o
chelp_sprintf                                     output.o
chelp_strcat                                      output.o
chelp_strchr                                      output.o
chelp_strcmp                                      output.o
chelp_strcpy                                      output.o
chelp_stricmp                                     output.o
chelp_strlen                                      output.o
chelp_strncasecmp                                 output.o
chelp_strncmp                                     output.o
chelp_strncpy                                     output.o
chelp_strrchr                                     output.o
chelp_strtol                                      output.o
chelp_strtoul                                     output.o
chelp_strtoul_ex                                  output.o
chelp_swap                                        output.o
chelp_tolower                                     output.o
chelp_toupper                                     output.o
cleanse_ctr                                       output.o
clear_guest_status                                output.o
clflush_size                                      output.o
closePage                                         output.o
cmpxchg_gphys_l                                   output.o
cmpxchg_gphys_q                                   output.o
cmpxchg_hphys_l                                   output.o
cmpxchg_hphys_q                                   output.o
cms_Data_create                                   output.o
cms_DigestAlgorithm_find_ctx                      output.o
cms_DigestAlgorithm_init_bio                      output.o
cms_DigestAlgorithm_set                           output.o
cms_DigestedData_create                           output.o
cms_DigestedData_do_final                         output.o
cms_DigestedData_init_bio                         output.o
cms_EncryptedContent_init                         output.o
cms_EncryptedContent_init_bio                     output.o
cms_EncryptedData_init_bio                        output.o
cms_EnvelopedData_init_bio                        output.o
cms_SignedData_final                              output.o
cms_SignedData_init_bio                           output.o
cms_SignerIdentifier_cert_cmp                     output.o
cms_SignerIdentifier_get0_signer_id               output.o
cms_content_bio                                   output.o
cms_set1_SignerIdentifier                         output.o
config                                            output.o
copy_bootsector                                   output.o
core_init                                         output.o
core_io_handle_default                            output.o
core_io_modify_handler                            output.o
core_io_register_handler                          output.o
core_io_unregister_handler                        output.o
core_mm_read_guest_phys                           output.o
core_mm_write_guest_phys                          output.o
cpu_emul_cli                                      output.o
cpu_emul_cpuid                                    output.o
cpu_emul_hlt                                      output.o
cpu_emul_rdmsr                                    output.o
cpu_emul_realmode_int                             output.o
cpu_emul_sti                                      output.o
cpu_emul_wrmsr                                    output.o
cpu_emul_xsetbv                                   output.o
cpu_interpreter                                   output.o
cpu_mmu_get_pte                                   output.o
cpu_mmu_spt_clear_all                             output.o
cpu_mmu_spt_extern_mapsearch                      output.o
cpu_mmu_spt_init                                  output.o
cpu_mmu_spt_invalidate                            output.o
cpu_mmu_spt_map_1mb                               output.o
cpu_mmu_spt_pagefault                             output.o
cpu_mmu_spt_tlbflush                              output.o
cpu_mmu_spt_updatecr3                             output.o
cpu_seg_read_b                                    output.o
cpu_seg_read_l                                    output.o
cpu_seg_read_q                                    output.o
cpu_seg_read_w                                    output.o
cpu_seg_write_b                                   output.o
cpu_seg_write_l                                   output.o
cpu_seg_write_q                                   output.o
cpu_seg_write_w                                   output.o
cpu_stack_get                                     output.o
cpu_stack_pop                                     output.o
cpu_stack_push                                    output.o
cpu_stack_set                                     output.o
cpuinit_end                                       output.o
cpuinit_start                                     output.o
create_dom                                        output.o
crypt_sys_rsa_sign                                output.o
crypto_find                                       output.o
crypto_init                                       output.o
crypto_none_init                                  output.o
crypto_register                                   output.o
currentRunningApplication                         output.o
curthread                                         output.o
d2i_ACCESS_DESCRIPTION                            output.o
d2i_ASN1_BIT_STRING                               output.o
d2i_ASN1_BMPSTRING                                output.o
d2i_ASN1_BOOLEAN                                  output.o
d2i_ASN1_ENUMERATED                               output.o
d2i_ASN1_GENERALIZEDTIME                          output.o
d2i_ASN1_GENERALSTRING                            output.o
d2i_ASN1_IA5STRING                                output.o
d2i_ASN1_INTEGER                                  output.o
d2i_ASN1_NULL                                     output.o
d2i_ASN1_OBJECT                                   output.o
d2i_ASN1_OCTET_STRING                             output.o
d2i_ASN1_PRINTABLE                                output.o
d2i_ASN1_PRINTABLESTRING                          output.o
d2i_ASN1_SEQUENCE_ANY                             output.o
d2i_ASN1_SET                                      output.o
d2i_ASN1_SET_ANY                                  output.o
d2i_ASN1_T61STRING                                output.o
d2i_ASN1_TIME                                     output.o
d2i_ASN1_TYPE                                     output.o
d2i_ASN1_UINTEGER                                 output.o
d2i_ASN1_UNIVERSALSTRING                          output.o
d2i_ASN1_UTCTIME                                  output.o
d2i_ASN1_UTF8STRING                               output.o
d2i_ASN1_VISIBLESTRING                            output.o
d2i_ASN1_bytes                                    output.o
d2i_ASN1_type_bytes                               output.o
d2i_AUTHORITY_INFO_ACCESS                         output.o
d2i_AUTHORITY_KEYID                               output.o
d2i_AutoPrivateKey                                output.o
d2i_BASIC_CONSTRAINTS                             output.o
d2i_CERTIFICATEPOLICIES                           output.o
d2i_CMS_ContentInfo                               output.o
d2i_CMS_bio                                       output.o
d2i_CRL_DIST_POINTS                               output.o
d2i_DHparams                                      output.o
d2i_DIRECTORYSTRING                               output.o
d2i_DISPLAYTEXT                                   output.o
d2i_DIST_POINT                                    output.o
d2i_DIST_POINT_NAME                               output.o
d2i_DSAPrivateKey                                 output.o
d2i_DSAPrivateKey_bio                             output.o
d2i_DSAPublicKey                                  output.o
d2i_DSA_PUBKEY                                    output.o
d2i_DSA_PUBKEY_bio                                output.o
d2i_DSA_SIG                                       output.o
d2i_DSAparams                                     output.o
d2i_ECDSA_SIG                                     output.o
d2i_ECPKPARAMETERS                                output.o
d2i_ECPKParameters                                output.o
d2i_ECParameters                                  output.o
d2i_ECPrivateKey                                  output.o
d2i_ECPrivateKey_bio                              output.o
d2i_EC_PRIVATEKEY                                 output.o
d2i_EC_PUBKEY                                     output.o
d2i_EC_PUBKEY_bio                                 output.o
d2i_EDIPARTYNAME                                  output.o
d2i_EXTENDED_KEY_USAGE                            output.o
d2i_GENERAL_NAME                                  output.o
d2i_GENERAL_NAMES                                 output.o
d2i_ISSUING_DIST_POINT                            output.o
d2i_NETSCAPE_CERT_SEQUENCE                        output.o
d2i_NETSCAPE_SPKAC                                output.o
d2i_NETSCAPE_SPKI                                 output.o
d2i_NOTICEREF                                     output.o
d2i_OCSP_BASICRESP                                output.o
d2i_OCSP_CERTID                                   output.o
d2i_OCSP_CERTSTATUS                               output.o
d2i_OCSP_CRLID                                    output.o
d2i_OCSP_ONEREQ                                   output.o
d2i_OCSP_REQINFO                                  output.o
d2i_OCSP_REQUEST                                  output.o
d2i_OCSP_RESPBYTES                                output.o
d2i_OCSP_RESPDATA                                 output.o
d2i_OCSP_RESPID                                   output.o
d2i_OCSP_RESPONSE                                 output.o
d2i_OCSP_REVOKEDINFO                              output.o
d2i_OCSP_SERVICELOC                               output.o
d2i_OCSP_SIGNATURE                                output.o
d2i_OCSP_SINGLERESP                               output.o
d2i_OTHERNAME                                     output.o
d2i_PBE2PARAM                                     output.o
d2i_PBEPARAM                                      output.o
d2i_PBKDF2PARAM                                   output.o
d2i_PKCS12                                        output.o
d2i_PKCS12_BAGS                                   output.o
d2i_PKCS12_MAC_DATA                               output.o
d2i_PKCS12_SAFEBAG                                output.o
d2i_PKCS12_bio                                    output.o
d2i_PKCS7                                         output.o
d2i_PKCS7_DIGEST                                  output.o
d2i_PKCS7_ENCRYPT                                 output.o
d2i_PKCS7_ENC_CONTENT                             output.o
d2i_PKCS7_ENVELOPE                                output.o
d2i_PKCS7_ISSUER_AND_SERIAL                       output.o
d2i_PKCS7_RECIP_INFO                              output.o
d2i_PKCS7_SIGNED                                  output.o
d2i_PKCS7_SIGNER_INFO                             output.o
d2i_PKCS7_SIGN_ENVELOPE                           output.o
d2i_PKCS7_bio                                     output.o
d2i_PKCS8PrivateKey_bio                           output.o
d2i_PKCS8_PRIV_KEY_INFO                           output.o
d2i_PKCS8_PRIV_KEY_INFO_bio                       output.o
d2i_PKCS8_bio                                     output.o
d2i_PKEY_USAGE_PERIOD                             output.o
d2i_POLICYINFO                                    output.o
d2i_POLICYQUALINFO                                output.o
d2i_PROXY_CERT_INFO_EXTENSION                     output.o
d2i_PROXY_POLICY                                  output.o
d2i_PUBKEY                                        output.o
d2i_PUBKEY_bio                                    output.o
d2i_PrivateKey                                    output.o
d2i_PrivateKey_bio                                output.o
d2i_RSAPrivateKey                                 output.o
d2i_RSAPrivateKey_bio                             output.o
d2i_RSAPublicKey                                  output.o
d2i_RSAPublicKey_bio                              output.o
d2i_RSA_PUBKEY                                    output.o
d2i_RSA_PUBKEY_bio                                output.o
d2i_SXNET                                         output.o
d2i_SXNETID                                       output.o
d2i_USERNOTICE                                    output.o
d2i_X509                                          output.o
d2i_X509_ALGOR                                    output.o
d2i_X509_ALGORS                                   output.o
d2i_X509_ATTRIBUTE                                output.o
d2i_X509_AUX                                      output.o
d2i_X509_CERT_AUX                                 output.o
d2i_X509_CERT_PAIR                                output.o
d2i_X509_CINF                                     output.o
d2i_X509_CRL                                      output.o
d2i_X509_CRL_INFO                                 output.o
d2i_X509_CRL_bio                                  output.o
d2i_X509_EXTENSION                                output.o
d2i_X509_EXTENSIONS                               output.o
d2i_X509_NAME                                     output.o
d2i_X509_NAME_ENTRY                               output.o
d2i_X509_PUBKEY                                   output.o
d2i_X509_REQ                                      output.o
d2i_X509_REQ_INFO                                 output.o
d2i_X509_REQ_bio                                  output.o
d2i_X509_REVOKED                                  output.o
d2i_X509_SIG                                      output.o
d2i_X509_VAL                                      output.o
d2i_X509_bio                                      output.o
deactivate_and_delete_urb                         output.o
debug_addstr                                      output.o
debug_gdb                                         output.o
debug_iohook                                      output.o
debug_msgregister                                 output.o
debug_msgunregister                               output.o
decryptcfg                                        output.o
default_pctx                                      output.o
dh_asn1_meth                                      output.o
dh_pkey_meth                                      output.o
disable_apic                                      output.o
do_exint_pass                                     output.o
do_externalint_enable                             output.o
do_io_nothing                                     output.o
do_iopass_default                                 output.o
do_panic_reboot                                   output.o
dom_io                                            output.o
dprintf_port                                      output.o
drhd_list_head                                    output.o
dsa_asn1_meths                                    output.o
dsa_builtin_paramgen                              output.o
dsa_pkey_meth                                     output.o
dsa_pub_internal_it                               output.o
dump_frame                                        output.o
dump_qh                                           output.o
dump_td                                           output.o
dump_td_byvirt                                    output.o
dwReaders                                         output.o
e801_fake_ax                                      output.o
e801_fake_bx                                      output.o
ec_GF2m_have_precompute_mult                      output.o
ec_GF2m_precompute_mult                           output.o
ec_GF2m_simple_add                                output.o
ec_GF2m_simple_cmp                                output.o
ec_GF2m_simple_dbl                                output.o
ec_GF2m_simple_field_div                          output.o
ec_GF2m_simple_field_mul                          output.o
ec_GF2m_simple_field_sqr                          output.o
ec_GF2m_simple_group_check_discriminant           output.o
ec_GF2m_simple_group_clear_finish                 output.o
ec_GF2m_simple_group_copy                         output.o
ec_GF2m_simple_group_finish                       output.o
ec_GF2m_simple_group_get_curve                    output.o
ec_GF2m_simple_group_get_degree                   output.o
ec_GF2m_simple_group_init                         output.o
ec_GF2m_simple_group_set_curve                    output.o
ec_GF2m_simple_invert                             output.o
ec_GF2m_simple_is_at_infinity                     output.o
ec_GF2m_simple_is_on_curve                        output.o
ec_GF2m_simple_make_affine                        output.o
ec_GF2m_simple_mul                                output.o
ec_GF2m_simple_oct2point                          output.o
ec_GF2m_simple_point2oct                          output.o
ec_GF2m_simple_point_clear_finish                 output.o
ec_GF2m_simple_point_copy                         output.o
ec_GF2m_simple_point_finish                       output.o
ec_GF2m_simple_point_get_affine_coordinates       output.o
ec_GF2m_simple_point_init                         output.o
ec_GF2m_simple_point_set_affine_coordinates       output.o
ec_GF2m_simple_point_set_to_infinity              output.o
ec_GF2m_simple_points_make_affine                 output.o
ec_GF2m_simple_set_compressed_coordinates         output.o
ec_GFp_mont_field_decode                          output.o
ec_GFp_mont_field_encode                          output.o
ec_GFp_mont_field_mul                             output.o
ec_GFp_mont_field_set_to_one                      output.o
ec_GFp_mont_field_sqr                             output.o
ec_GFp_mont_group_clear_finish                    output.o
ec_GFp_mont_group_copy                            output.o
ec_GFp_mont_group_finish                          output.o
ec_GFp_mont_group_init                            output.o
ec_GFp_mont_group_set_curve                       output.o
ec_GFp_nist_field_mul                             output.o
ec_GFp_nist_field_sqr                             output.o
ec_GFp_nist_group_copy                            output.o
ec_GFp_nist_group_set_curve                       output.o
ec_GFp_simple_add                                 output.o
ec_GFp_simple_cmp                                 output.o
ec_GFp_simple_dbl                                 output.o
ec_GFp_simple_field_mul                           output.o
ec_GFp_simple_field_sqr                           output.o
ec_GFp_simple_get_Jprojective_coordinates_GFp     output.o
ec_GFp_simple_group_check_discriminant            output.o
ec_GFp_simple_group_clear_finish                  output.o
ec_GFp_simple_group_copy                          output.o
ec_GFp_simple_group_finish                        output.o
ec_GFp_simple_group_get_curve                     output.o
ec_GFp_simple_group_get_degree                    output.o
ec_GFp_simple_group_init                          output.o
ec_GFp_simple_group_set_curve                     output.o
ec_GFp_simple_invert                              output.o
ec_GFp_simple_is_at_infinity                      output.o
ec_GFp_simple_is_on_curve                         output.o
ec_GFp_simple_make_affine                         output.o
ec_GFp_simple_oct2point                           output.o
ec_GFp_simple_point2oct                           output.o
ec_GFp_simple_point_clear_finish                  output.o
ec_GFp_simple_point_copy                          output.o
ec_GFp_simple_point_finish                        output.o
ec_GFp_simple_point_get_affine_coordinates        output.o
ec_GFp_simple_point_init                          output.o
ec_GFp_simple_point_set_affine_coordinates        output.o
ec_GFp_simple_point_set_to_infinity               output.o
ec_GFp_simple_points_make_affine                  output.o
ec_GFp_simple_set_Jprojective_coordinates_GFp     output.o
ec_GFp_simple_set_compressed_coordinates          output.o
ec_pkey_meth                                      output.o
ec_wNAF_have_precompute_mult                      output.o
ec_wNAF_mul                                       output.o
ec_wNAF_precompute_mult                           output.o
ecdh_check                                        output.o
ecdsa_check                                       output.o
eckey_asn1_meth                                   output.o
ehci_check_advance                                output.o
ehci_check_urb_advance                            output.o
ehci_cleanup_urbs                                 output.o
ehci_conceal_portroute                            output.o
ehci_deactivate_urb                               output.o
ehci_dump_alist                                   output.o
ehci_dump_all                                     output.o
ehci_dump_async                                   output.o
ehci_dump_qtd                                     output.o
ehci_dump_qtdm                                    output.o
ehci_dump_urb                                     output.o
ehci_dump_urblist                                 output.o
ehci_end_monitor_async                            output.o
ehci_host                                         output.o
ehci_init                                         output.o
ehci_monitor_async_list                           output.o
ehci_shadow_async_list                            output.o
ehci_shadow_buffer                                output.o
ehci_submit_bulk                                  output.o
ehci_submit_control                               output.o
ehci_submit_interrupt                             output.o
end                                               output.o
entry                                             output.o
entry_pd                                          output.o
entry_pd0                                         output.o
entry_pdp                                         output.o
evp_pkey_set_cb_translate                         output.o
exitprocess                                       output.o
free                                              output.o
free_config_descriptors                           output.o
free_device                                       output.o
free_page                                         output.o
free_page_phys                                    output.o
g_rgSCardT0Pci                                    output.o
g_rgSCardT1Pci                                    output.o
getCurrentProtectedApplication                    output.o
getMemoryOwnershipTableEntry                      output.o
getMemoryOwnershipTableIndex                      output.o
getSystemCallHandlerGPA                           output.o
getTSSGVA                                         output.o
get_acpi_time                                     output.o
get_acpi_time_raw                                 output.o
get_cpu_id                                        output.o
get_cpu_time                                      output.o
get_ept_base_HPA                                  output.o
get_guest_cr3_value                               output.o
get_guest_eptp_value                              output.o
get_gurb_by_address                               output.o
get_idman_session                                 output.o
get_page_table_base_GPA                           output.o
get_seg_access_rights                             output.o
get_seg_base                                      output.o
get_time                                          output.o
getfakesysmemmap                                  output.o
getsysmemmap                                      output.o
gmm_pass_gp2hp                                    output.o
gpaToHPA                                          output.o
gs_current                                        output.o
gs_currentcpu                                     output.o
gs_init_count                                     output.o
gs_inthandling                                    output.o
gs_nmi                                            output.o
gs_syscallstack                                   output.o
guest_int0x15_e801_fake_ax                        output.o
guest_int0x15_e801_fake_bx                        output.o
guest_int0x15_e820_data_minus0x18                 output.o
guest_int0x15_e820_end                            output.o
guest_int0x15_hook                                output.o
guest_int0x15_hook_end                            output.o
guest_int0x15_orig                                output.o
gvaToGPA                                          output.o
hContext                                          output.o
hObjectCnt                                        output.o
hSessionCnt                                       output.o
handle_connect_status                             output.o
handle_init_to_bsp                                output.o
handle_port_reset                                 output.o
handler_descriptor                                output.o
handler_descriptor_lock                           output.o
head                                              output.o
hex_to_string                                     output.o
hmac_asn1_meth                                    output.o
hmac_pkey_meth                                    output.o
hub_portdevice_register                           output.o
hypercall_handler                                 output.o
i2a_ACCESS_DESCRIPTION                            output.o
i2a_ASN1_INTEGER                                  output.o
i2a_ASN1_OBJECT                                   output.o
i2a_ASN1_STRING                                   output.o
i2c_ASN1_BIT_STRING                               output.o
i2c_ASN1_INTEGER                                  output.o
i2d_ACCESS_DESCRIPTION                            output.o
i2d_ASN1_BIT_STRING                               output.o
i2d_ASN1_BMPSTRING                                output.o
i2d_ASN1_BOOLEAN                                  output.o
i2d_ASN1_ENUMERATED                               output.o
i2d_ASN1_GENERALIZEDTIME                          output.o
i2d_ASN1_GENERALSTRING                            output.o
i2d_ASN1_IA5STRING                                output.o
i2d_ASN1_INTEGER                                  output.o
i2d_ASN1_NULL                                     output.o
i2d_ASN1_OBJECT                                   output.o
i2d_ASN1_OCTET_STRING                             output.o
i2d_ASN1_PRINTABLE                                output.o
i2d_ASN1_PRINTABLESTRING                          output.o
i2d_ASN1_SEQUENCE_ANY                             output.o
i2d_ASN1_SET                                      output.o
i2d_ASN1_SET_ANY                                  output.o
i2d_ASN1_T61STRING                                output.o
i2d_ASN1_TIME                                     output.o
i2d_ASN1_TYPE                                     output.o
i2d_ASN1_UNIVERSALSTRING                          output.o
i2d_ASN1_UTCTIME                                  output.o
i2d_ASN1_UTF8STRING                               output.o
i2d_ASN1_VISIBLESTRING                            output.o
i2d_ASN1_bio_stream                               output.o
i2d_ASN1_bytes                                    output.o
i2d_AUTHORITY_INFO_ACCESS                         output.o
i2d_AUTHORITY_KEYID                               output.o
i2d_BASIC_CONSTRAINTS                             output.o
i2d_CERTIFICATEPOLICIES                           output.o
i2d_CMS_ContentInfo                               output.o
i2d_CMS_bio                                       output.o
i2d_CMS_bio_stream                                output.o
i2d_CRL_DIST_POINTS                               output.o
i2d_DHparams                                      output.o
i2d_DIRECTORYSTRING                               output.o
i2d_DISPLAYTEXT                                   output.o
i2d_DIST_POINT                                    output.o
i2d_DIST_POINT_NAME                               output.o
i2d_DSAPrivateKey                                 output.o
i2d_DSAPrivateKey_bio                             output.o
i2d_DSAPublicKey                                  output.o
i2d_DSA_PUBKEY                                    output.o
i2d_DSA_PUBKEY_bio                                output.o
i2d_DSA_SIG                                       output.o
i2d_DSAparams                                     output.o
i2d_ECDSA_SIG                                     output.o
i2d_ECPKPARAMETERS                                output.o
i2d_ECPKParameters                                output.o
i2d_ECParameters                                  output.o
i2d_ECPrivateKey                                  output.o
i2d_ECPrivateKey_bio                              output.o
i2d_EC_PRIVATEKEY                                 output.o
i2d_EC_PUBKEY                                     output.o
i2d_EC_PUBKEY_bio                                 output.o
i2d_EDIPARTYNAME                                  output.o
i2d_EXTENDED_KEY_USAGE                            output.o
i2d_GENERAL_NAME                                  output.o
i2d_GENERAL_NAMES                                 output.o
i2d_ISSUING_DIST_POINT                            output.o
i2d_NETSCAPE_CERT_SEQUENCE                        output.o
i2d_NETSCAPE_SPKAC                                output.o
i2d_NETSCAPE_SPKI                                 output.o
i2d_NOTICEREF                                     output.o
i2d_OCSP_BASICRESP                                output.o
i2d_OCSP_CERTID                                   output.o
i2d_OCSP_CERTSTATUS                               output.o
i2d_OCSP_CRLID                                    output.o
i2d_OCSP_ONEREQ                                   output.o
i2d_OCSP_REQINFO                                  output.o
i2d_OCSP_REQUEST                                  output.o
i2d_OCSP_RESPBYTES                                output.o
i2d_OCSP_RESPDATA                                 output.o
i2d_OCSP_RESPID                                   output.o
i2d_OCSP_RESPONSE                                 output.o
i2d_OCSP_REVOKEDINFO                              output.o
i2d_OCSP_SERVICELOC                               output.o
i2d_OCSP_SIGNATURE                                output.o
i2d_OCSP_SINGLERESP                               output.o
i2d_OTHERNAME                                     output.o
i2d_PBE2PARAM                                     output.o
i2d_PBEPARAM                                      output.o
i2d_PBKDF2PARAM                                   output.o
i2d_PKCS12                                        output.o
i2d_PKCS12_BAGS                                   output.o
i2d_PKCS12_MAC_DATA                               output.o
i2d_PKCS12_SAFEBAG                                output.o
i2d_PKCS12_bio                                    output.o
i2d_PKCS7                                         output.o
i2d_PKCS7_DIGEST                                  output.o
i2d_PKCS7_ENCRYPT                                 output.o
i2d_PKCS7_ENC_CONTENT                             output.o
i2d_PKCS7_ENVELOPE                                output.o
i2d_PKCS7_ISSUER_AND_SERIAL                       output.o
i2d_PKCS7_NDEF                                    output.o
i2d_PKCS7_RECIP_INFO                              output.o
i2d_PKCS7_SIGNED                                  output.o
i2d_PKCS7_SIGNER_INFO                             output.o
i2d_PKCS7_SIGN_ENVELOPE                           output.o
i2d_PKCS7_bio                                     output.o
i2d_PKCS8PrivateKeyInfo_bio                       output.o
i2d_PKCS8PrivateKey_bio                           output.o
i2d_PKCS8PrivateKey_nid_bio                       output.o
i2d_PKCS8_PRIV_KEY_INFO                           output.o
i2d_PKCS8_PRIV_KEY_INFO_bio                       output.o
i2d_PKCS8_bio                                     output.o
i2d_PKEY_USAGE_PERIOD                             output.o
i2d_POLICYINFO                                    output.o
i2d_POLICYQUALINFO                                output.o
i2d_PROXY_CERT_INFO_EXTENSION                     output.o
i2d_PROXY_POLICY                                  output.o
i2d_PUBKEY                                        output.o
i2d_PUBKEY_bio                                    output.o
i2d_PrivateKey                                    output.o
i2d_PrivateKey_bio                                output.o
i2d_RSAPrivateKey                                 output.o
i2d_RSAPrivateKey_bio                             output.o
i2d_RSAPublicKey                                  output.o
i2d_RSAPublicKey_bio                              output.o
i2d_RSA_PUBKEY                                    output.o
i2d_RSA_PUBKEY_bio                                output.o
i2d_SXNET                                         output.o
i2d_SXNETID                                       output.o
i2d_USERNOTICE                                    output.o
i2d_X509                                          output.o
i2d_X509_ALGOR                                    output.o
i2d_X509_ALGORS                                   output.o
i2d_X509_ATTRIBUTE                                output.o
i2d_X509_AUX                                      output.o
i2d_X509_CERT_AUX                                 output.o
i2d_X509_CERT_PAIR                                output.o
i2d_X509_CINF                                     output.o
i2d_X509_CRL                                      output.o
i2d_X509_CRL_INFO                                 output.o
i2d_X509_CRL_bio                                  output.o
i2d_X509_EXTENSION                                output.o
i2d_X509_EXTENSIONS                               output.o
i2d_X509_NAME                                     output.o
i2d_X509_NAME_ENTRY                               output.o
i2d_X509_PUBKEY                                   output.o
i2d_X509_REQ                                      output.o
i2d_X509_REQ_INFO                                 output.o
i2d_X509_REQ_bio                                  output.o
i2d_X509_REVOKED                                  output.o
i2d_X509_SIG                                      output.o
i2d_X509_VAL                                      output.o
i2d_X509_bio                                      output.o
i2o_ECPublicKey                                   output.o
i2s_ASN1_ENUMERATED                               output.o
i2s_ASN1_ENUMERATED_TABLE                         output.o
i2s_ASN1_INTEGER                                  output.o
i2s_ASN1_OCTET_STRING                             output.o
i2t_ASN1_OBJECT                                   output.o
i2v_ASN1_BIT_STRING                               output.o
i2v_GENERAL_NAME                                  output.o
i2v_GENERAL_NAMES                                 output.o
idea_cbc_encrypt                                  output.o
idea_cfb64_encrypt                                output.o
idea_ecb_encrypt                                  output.o
idea_encrypt                                      output.o
idea_ofb64_encrypt                                output.o
idea_options                                      output.o
idea_set_decrypt_key                              output.o
idea_set_encrypt_key                              output.o
idman_reinit2                                     output.o
idman_reinit_session                              output.o
idman_user_init                                   output.o
ieee1394_init                                     output.o
init_hframelist                                   output.o
initfunc_init                                     output.o
initializeNewProtectedApplication                 output.o
int1a_TCG_CompactHashLogExtendEvent               output.o
int1a_TCG_HashAll                                 output.o
int1a_TCG_HashLogEvent                            output.o
int1a_TCG_HashLogExtendEvent                      output.o
int1a_TCG_PassThroughToTPM                        output.o
int1a_TCG_StatusCheck                             output.o
int1a_TCG_TSS                                     output.o
int_callfunc                                      output.o
int_exceptionHandler                              output.o
int_fatal                                         output.o
int_handler                                       output.o
int_init_ap                                       output.o
int_rsa_verify                                    output.o
iodom_init                                        output.o
iommu_detected                                    output.o
iommu_setup                                       output.o
ipchecksum                                        output.o
keyboard_flush                                    output.o
keyboard_reset                                    output.o
level_add_node                                    output.o
level_find_node                                   output.o
lh_delete                                         output.o
lh_doall                                          output.o
lh_doall_arg                                      output.o
lh_free                                           output.o
lh_insert                                         output.o
lh_new                                            output.o
lh_num_items                                      output.o
lh_retrieve                                       output.o
lh_strhash                                        output.o
lh_version                                        output.o
libInitFlag                                       output.o
load_bootsector                                   output.o
load_minios                                       output.o
load_new_vcpu                                     output.o
localapic_change_base_msr                         output.o
localapic_mmio_register                           output.o
localapic_wait_for_sipi                           output.o
mapHPAintoHVA                                     output.o
mapmem                                            output.o
mapmem_gphys                                      output.o
mapmem_hphys                                      output.o
matched_drhd_u                                    output.o
md4_block_data_order                              output.o
md5_block_data_order                              output.o
memcmp                                            output.o
memcpy                                            output.o
memorysize                                        output.o
mempool_allocmem                                  output.o
mempool_free                                      output.o
mempool_freemem                                   output.o
mempool_new                                       output.o
memset                                            output.o
message_exitcode                                  output.o
message_exitreason                                output.o
mm_flush_wb_cache                                 output.o
mm_force_unlock                                   output.o
mm_process_alloc                                  output.o
mm_process_free                                   output.o
mm_process_map_alloc                              output.o
mm_process_map_shared                             output.o
mm_process_map_shared_physpage                    output.o
mm_process_map_stack                              output.o
mm_process_switch                                 output.o
mm_process_unmap                                  output.o
mm_process_unmap_stack                            output.o
mm_process_unmapall                               output.o
mmio_access_memory                                output.o
mmio_access_page                                  output.o
mmio_lock                                         output.o
mmio_register                                     output.o
mmio_unlock                                       output.o
mmio_unregister                                   output.o
monitor_vmcs_read                                 output.o
monitor_vmcs_write                                output.o
move_vmm_area32                                   output.o
move_vmm_area64                                   output.o
mpudiv_128_32                                     output.o
mpumul_64_64                                      output.o
msg_findname                                      output.o
msg_register                                      output.o
msg_unregister                                    output.o
msg_unregister2                                   output.o
msg_unregisterall                                 output.o
msg_usb_bulk_read                                 output.o
msg_usb_bulk_write                                output.o
msg_usb_claim_interface                           output.o
msg_usb_close                                     output.o
msg_usb_control_msg                               output.o
msg_usb_find_busses                               output.o
msg_usb_find_devices                              output.o
msg_usb_get_busses                                output.o
msg_usb_get_string_simple                         output.o
msg_usb_init                                      output.o
msg_usb_open                                      output.o
msg_usb_release_interface                         output.o
msg_usb_reset                                     output.o
msg_vpn_FreeTimer                                 output.o
msg_vpn_GetCurrentCpuId                           output.o
msg_vpn_GetPhysicalNicInfo                        output.o
msg_vpn_GetTickCount                              output.o
msg_vpn_GetVirtualNicInfo                         output.o
msg_vpn_NewTimer                                  output.o
msg_vpn_SendPhysicalNic                           output.o
msg_vpn_SendVirtualNic                            output.o
msg_vpn_SetPhysicalNicRecvCallback                output.o
msg_vpn_SetTimer                                  output.o
msg_vpn_SetVirtualNicRecvCallback                 output.o
msg_vpn_ic_rsa_sign                               output.o
msgclose                                          output.o
msgopen                                           output.o
msgpremapbuf                                      output.o
msgregister                                       output.o
msgsendbuf                                        output.o
msgsenddesc                                       output.o
msgsendint                                        output.o
msgsetfunc                                        output.o
msgunregister                                     output.o
mszReaders                                        output.o
name_cmp                                          output.o
newprocess                                        output.o
num_dom                                           output.o
num_of_available_pages                            output.o
num_of_processors                                 output.o
numberOfProtectedApplications                     output.o
numberOfVMs                                       output.o
o2i_ECPublicKey                                   output.o
obj_cleanup_defer                                 output.o
openPage                                          output.o
packet_handle_command                             output.o
packet_handle_config                              output.o
packet_handle_invalid                             output.o
packet_handle_nondata                             output.o
packet_handle_rw                                  output.o
packet_handle_through                             output.o
panic                                             output.o
panic_oom                                         output.o
panic_test                                        output.o
panic_wakeup_all                                  output.o
parse_dmar_bios_report                            output.o
pci_append_device                                 output.o
pci_conceal_config_data_handler                   output.o
pci_conceal_new_device                            output.o
pci_config_addr_handler                           output.o
pci_config_data_handler                           output.o
pci_device_list_head                              output.o
pci_driver_list_head                              output.o
pci_handle_default_config_write                   output.o
pci_possible_new_device                           output.o
pci_print_device                                  output.o
pci_read_config_data16                            output.o
pci_read_config_data32                            output.o
pci_read_config_data8                             output.o
pci_read_config_data_port                         output.o
pci_register_driver                               output.o
pci_restore_config_addr                           output.o
pci_save_config_addr                              output.o
pci_write_config_data16                           output.o
pci_write_config_data32                           output.o
pci_write_config_data8                            output.o
pci_write_config_data_port                        output.o
pcpu_default                                      output.o
pcpu_init                                         output.o
pcpu_list_add                                     output.o
pcpu_list_foreach                                 output.o
pem_check_suffix                                  output.o
phys_in_vmm                                       output.o
phys_to_virt                                      output.o
pmap_autoalloc                                    output.o
pmap_clear                                        output.o
pmap_close                                        output.o
pmap_dump                                         output.o
pmap_getreadlevel                                 output.o
pmap_open_guest                                   output.o
pmap_open_vmm                                     output.o
pmap_pointer                                      output.o
pmap_read                                         output.o
pmap_seek                                         output.o
pmap_setlevel                                     output.o
pmap_write                                        output.o
policy_cache_find_data                            output.o
policy_cache_free                                 output.o
policy_cache_set                                  output.o
policy_cache_set_mapping                          output.o
policy_data_free                                  output.o
policy_data_new                                   output.o
policy_node_cmp_new                               output.o
policy_node_free                                  output.o
policy_node_match                                 output.o
prepare_for_sleep                                 output.o
printexitcode                                     output.o
printexitreason                                   output.o
printf                                            output.o
pro100_alloc_page                                 output.o
pro100_alloc_recv_buffer                          output.o
pro100_beep                                       output.o
pro100_config_read                                output.o
pro100_config_write                               output.o
pro100_exec_cu_op                                 output.o
pro100_flush                                      output.o
pro100_free_page                                  output.o
pro100_generate_int                               output.o
pro100_get_ctx                                    output.o
pro100_get_cu_command_string                      output.o
pro100_get_int_bit_string                         output.o
pro100_get_op_size                                output.o
pro100_get_ru_command_string                      output.o
pro100_get_stat_ack_string                        output.o
pro100_hook_read                                  output.o
pro100_hook_write                                 output.o
pro100_init                                       output.o
pro100_init_cu_base_addr                          output.o
pro100_init_recv_buffer                           output.o
pro100_init_ru_base_addr                          output.o
pro100_init_vpn_client                            output.o
pro100_io_handler                                 output.o
pro100_mem_read                                   output.o
pro100_mem_write                                  output.o
pro100_mm_handler                                 output.o
pro100_new                                        output.o
pro100_poll_ru                                    output.o
pro100_proc_guest_op                              output.o
pro100_read                                       output.o
pro100_read_send_packet                           output.o
pro100_send_packet_to_line                        output.o
pro100_sleep                                      output.o
pro100_wait_cu_ru_accepable                       output.o
pro100_write                                      output.o
pro100_write_recv_packet                          output.o
process_kill                                      output.o
process_syscall                                   output.o
processuser_no_sysenter                           output.o
processuser_syscall                               output.o
processuser_sysenter                              output.o
prohibit_iccard_init                              output.o
protectCurrentApplication                         output.o
ps2_locked                                        output.o
putchar                                           output.o
putchar_set_func                                  output.o
rand_ssleay_meth                                  output.o
read_gphys_b                                      output.o
read_gphys_l                                      output.o
read_gphys_q                                      output.o
read_gphys_w                                      output.o
read_hphys_b                                      output.o
read_hphys_l                                      output.o
read_hphys_q                                      output.o
read_hphys_w                                      output.o
read_linearaddr_b                                 output.o
read_linearaddr_l                                 output.o
read_linearaddr_q                                 output.o
read_linearaddr_tss                               output.o
read_linearaddr_w                                 output.o
readerState                                       output.o
readerTracker                                     output.o
realloc                                           output.o
reboot_test                                       output.o
register_status_callback                          output.o
resume_vm                                         output.o
ret_to_user32                                     output.o
ret_to_user64                                     output.o
ripemd160_block_data_order                        output.o
rsa_asn1_meths                                    output.o
rsa_pkey_meth                                     output.o
rt                                                output.o
s2i_ASN1_INTEGER                                  output.o
s2i_ASN1_OCTET_STRING                             output.o
sReaderContext                                    output.o
saveSystemCallHandlerAddress                      output.o
save_guest_status                                 output.o
savemsr_index                                     output.o
savemsr_load                                      output.o
savemsr_save                                      output.o
scan_gframelist                                   output.o
schedule                                          output.o
security_storage_check_lba                        output.o
segment_init_ap                                   output.o
segment_wakeup                                    output.o
serial_getDebugChar                               output.o
serial_init_iohook                                output.o
serial_putDebugChar                               output.o
serial_putchar                                    output.o
sessionTable                                      output.o
set_int_handler                                   output.o
set_iofunc                                        output.o
setkbdled                                         output.o
shadow_and_activate_urb                           output.o
sig_app                                           output.o
sigx_app                                          output.o
sk_delete                                         output.o
sk_delete_ptr                                     output.o
sk_dup                                            output.o
sk_find                                           output.o
sk_find_ex                                        output.o
sk_free                                           output.o
sk_insert                                         output.o
sk_is_sorted                                      output.o
sk_new                                            output.o
sk_new_null                                       output.o
sk_num                                            output.o
sk_pop                                            output.o
sk_pop_free                                       output.o
sk_push                                           output.o
sk_set                                            output.o
sk_set_cmp_func                                   output.o
sk_shift                                          output.o
sk_sort                                           output.o
sk_unshift                                        output.o
sk_value                                          output.o
sk_zero                                           output.o
sleep_set_timer_counter                           output.o
slotFlag                                          output.o
slotTable                                         output.o
snprintf                                          output.o
start_all_processors                              output.o
storage_free                                      output.o
storage_get_num_hc                                output.o
storage_handle_sectors                            output.o
storage_hc_close                                  output.o
storage_hc_dev_atacommand                         output.o
storage_hc_dev_close                              output.o
storage_hc_dev_open                               output.o
storage_hc_hook_register                          output.o
storage_hc_hook_unregister                        output.o
storage_hc_open                                   output.o
storage_hc_register                               output.o
storage_hc_scandev                                output.o
storage_hc_unregister                             output.o
storage_init                                      output.o
storage_io_aget_size                              output.o
storage_io_aread                                  output.o
storage_io_awrite                                 output.o
storage_io_deinit                                 output.o
storage_io_get_num_devices                        output.o
storage_io_init                                   output.o
storage_new                                       output.o
storage_premap_buf                                output.o
storage_premap_handle_sectors                     output.o
strcmp                                            output.o
string_to_hex                                     output.o
strlen                                            output.o
svm_available                                     output.o
svm_enable_resume                                 output.o
svm_extern_iopass                                 output.o
svm_init                                          output.o
svm_init_signal                                   output.o
svm_ioio                                          output.o
svm_msr_update_lma                                output.o
svm_np_clear_all                                  output.o
svm_np_extern_mapsearch                           output.o
svm_np_init                                       output.o
svm_np_map_1mb                                    output.o
svm_np_pagefault                                  output.o
svm_np_tlbflush                                   output.o
svm_np_updatecr3                                  output.o
svm_paging_apply_fixed_cr0                        output.o
svm_paging_apply_fixed_cr4                        output.o
svm_paging_clear_all                              output.o
svm_paging_extern_flush_tlb_entry                 output.o
svm_paging_flush_guest_tlb                        output.o
svm_paging_get_gpat                               output.o
svm_paging_init                                   output.o
svm_paging_invalidate                             output.o
svm_paging_map_1mb                                output.o
svm_paging_npf                                    output.o
svm_paging_pagefault                              output.o
svm_paging_pg_change                              output.o
svm_paging_set_gpat                               output.o
svm_paging_spt_setcr3                             output.o
svm_paging_start                                  output.o
svm_paging_tlbflush                               output.o
svm_paging_updatecr3                              output.o
svm_panic_dump                                    output.o
svm_read_control_reg                              output.o
svm_read_flags                                    output.o
svm_read_gdtr                                     output.o
svm_read_general_reg                              output.o
svm_read_idtr                                     output.o
svm_read_ip                                       output.o
svm_read_msr                                      output.o
svm_read_sreg_acr                                 output.o
svm_read_sreg_base                                output.o
svm_read_sreg_limit                               output.o
svm_read_sreg_sel                                 output.o
svm_reset                                         output.o
svm_resume                                        output.o
svm_start_vm                                      output.o
svm_vmexit                                        output.o
svm_vminit                                        output.o
svm_write_control_reg                             output.o
svm_write_flags                                   output.o
svm_write_gdtr                                    output.o
svm_write_general_reg                             output.o
svm_write_idtr                                    output.o
svm_write_ip                                      output.o
svm_write_msr                                     output.o
svm_write_realmode_seg                            output.o
svm_writing_sreg                                  output.o
sx_handler                                        output.o
sym_to_phys                                       output.o
sync_all_processors                               output.o
sys_exitprocess                                   output.o
sys_msgclose                                      output.o
sys_msgopen                                       output.o
sys_msgregister                                   output.o
sys_msgret                                        output.o
sys_msgsendbuf                                    output.o
sys_msgsenddesc                                   output.o
sys_msgsendint                                    output.o
sys_msgsetfunc                                    output.o
sys_msgunregister                                 output.o
sys_newprocess                                    output.o
syscallHandlerAddress                             output.o
syscall_entry_lret                                output.o
syscall_entry_sysexit                             output.o
syscall_entry_sysret64                            output.o
tcg_measure                                       output.o
test_gpaToHPA                                     output.o
test_logicalCPUStatus                             output.o
test_start                                        output.o
test_traverseGuestPages                           output.o
thread_exit                                       output.o
thread_gettid                                     output.o
thread_new                                        output.o
thread_set_process_switch                         output.o
thread_start0                                     output.o
thread_start1                                     output.o
thread_switch                                     output.o
thread_wakeup                                     output.o
thread_will_stop                                  output.o
timer_free                                        output.o
timer_new                                         output.o
timer_set                                         output.o
traverseGuestPages                                output.o
traverseIA32ePDPT                                 output.o
traverseIA32ePDT                                  output.o
traverseIA32ePT                                   output.o
traverseIA32ePages                                output.o
tree_find_sk                                      output.o
tty_init_iohook                                   output.o
tty_putchar                                       output.o
tty_udp_register                                  output.o
ttylog_stop                                       output.o
uhci_activate_urb                                 output.o
uhci_check_advance                                output.o
uhci_check_urb_advance                            output.o
uhci_create_urb                                   output.o
uhci_current_frame_number                         output.o
uhci_deactivate_urb                               output.o
uhci_destroy_unlinked_urbs                        output.o
uhci_destroy_urb                                  output.o
uhci_dump_all                                     output.o
uhci_error_status_string                          output.o
uhci_framelist_monitor                            output.o
uhci_init                                         output.o
uhci_monitor_boost_hc                             output.o
uhci_reactivate_urb                               output.o
uhci_shadow_buffer                                output.o
uhci_submit_bulk                                  output.o
uhci_submit_control                               output.o
uhci_submit_interrupt                             output.o
unmapHPAintoHVA                                   output.o
unmapmem                                          output.o
update_mtrr_and_pat                               output.o
usb_bulk_read                                     output.o
usb_bulk_write                                    output.o
usb_busses_head                                   output.o
usb_claim_interface                               output.o
usb_clear_halt                                    output.o
usb_close                                         output.o
usb_control_msg                                   output.o
usb_find_busses                                   output.o
usb_find_devices                                  output.o
usb_get_bus                                       output.o
usb_get_busses                                    output.o
usb_get_descriptor                                output.o
usb_get_descriptor_by_endpoint                    output.o
usb_get_descriptor_early                          output.o
usb_get_string                                    output.o
usb_get_string_simple                             output.o
usb_hc_list_head                                  output.o
usb_hook_process                                  output.o
usb_hook_register                                 output.o
usb_hook_unregister                               output.o
usb_init                                          output.o
usb_init_device_monitor                           output.o
usb_interrupt_read                                output.o
usb_interrupt_write                               output.o
usb_log_level                                     output.o
usb_new_dev_handle                                output.o
usb_open                                          output.o
usb_register_host                                 output.o
usb_release_interface                             output.o
usb_reset                                         output.o
usb_resetep                                       output.o
usb_sc_lock                                       output.o
usb_sc_unlock                                     output.o
usb_set_altinterface                              output.o
usb_set_configuration                             output.o
usb_set_debug                                     output.o
usb_unregister_devices                            output.o
usbccid_init_handle                               output.o
usbhid_init_handle                                output.o
usbhub_init_handle                                output.o
usbmsc_init_handle                                output.o
use_pae                                           output.o
usleep                                            output.o
v2i_ASN1_BIT_STRING                               output.o
v2i_GENERAL_NAME                                  output.o
v2i_GENERAL_NAMES                                 output.o
v2i_GENERAL_NAME_ex                               output.o
v3_akey_id                                        output.o
v3_alt                                            output.o
v3_bcons                                          output.o
v3_cpols                                          output.o
v3_crl_hold                                       output.o
v3_crl_invdate                                    output.o
v3_crl_num                                        output.o
v3_crl_reason                                     output.o
v3_crld                                           output.o
v3_delta_crl                                      output.o
v3_ext_ku                                         output.o
v3_freshest_crl                                   output.o
v3_idp                                            output.o
v3_info                                           output.o
v3_inhibit_anyp                                   output.o
v3_key_usage                                      output.o
v3_name_constraints                               output.o
v3_ns_ia5_list                                    output.o
v3_nscert                                         output.o
v3_ocsp_accresp                                   output.o
v3_ocsp_acutoff                                   output.o
v3_ocsp_crlid                                     output.o
v3_ocsp_nocheck                                   output.o
v3_ocsp_nonce                                     output.o
v3_ocsp_serviceloc                                output.o
v3_pci                                            output.o
v3_pkey_usage_period                              output.o
v3_policy_constraints                             output.o
v3_policy_mappings                                output.o
v3_sinfo                                          output.o
v3_skey_id                                        output.o
v3_sxnet                                          output.o
vcpu_list_foreach                                 output.o
vga_fill_rect                                     output.o
vga_get_screen_size                               output.o
vga_is_ready                                      output.o
vga_register                                      output.o
vga_transfer_image                                output.o
vmctl_svm_init                                    output.o
vmctl_vt_init                                     output.o
vmm_base_cr3                                      output.o
vmm_main                                          output.o
vmm_pd                                            output.o
vmm_pd1                                           output.o
vmm_pd2                                           output.o
vmm_pdp                                           output.o
vmm_pml4                                          output.o
vmm_start_inf                                     output.o
vmm_term_inf                                      output.o
vmmcall                                           output.o
vmmcall_boot_continue                             output.o
vmmcall_boot_enable                               output.o
vmmcall_init                                      output.o
vmmcall_register                                  output.o
vmmsize                                           output.o
vpn_FreeTimer                                     output.o
vpn_GetCurrentCpuId                               output.o
vpn_GetPhysicalNicInfo                            output.o
vpn_GetTickCount                                  output.o
vpn_GetVirtualNicInfo                             output.o
vpn_NewTimer                                      output.o
vpn_SendPhysicalNic                               output.o
vpn_SendVirtualNic                                output.o
vpn_SetPhysicalNicRecvCallback                    output.o
vpn_SetTimer                                      output.o
vpn_SetVirtualNicRecvCallback                     output.o
vpn_ic_rsa_sign                                   output.o
vpn_new_nic                                       output.o
vpn_premap_PhysicalNicRecv                        output.o
vpn_premap_VirtualNicRecv                         output.o
vpn_premap_recvbuf                                output.o
vpn_start                                         output.o
vpn_user_init                                     output.o
vprintf                                           output.o
vramwrite_clearscreen                             output.o
vramwrite_exit_global                             output.o
vramwrite_get_cursor_pos                          output.o
vramwrite_init_global                             output.o
vramwrite_mark1                                   output.o
vramwrite_mark2                                   output.o
vramwrite_mark3                                   output.o
vramwrite_putchar                                 output.o
vramwrite_restore_cursor                          output.o
vramwrite_save_and_move_cursor                    output.o
vsnprintf                                         output.o
vt__vmx_init                                      output.o
vt__vmxon                                         output.o
vt_add_guest_msr                                  output.o
vt_available                                      output.o
vt_enable_resume                                  output.o
vt_ept_clear_all                                  output.o
vt_ept_extern_mapsearch                           output.o
vt_ept_init                                       output.o
vt_ept_map_1mb                                    output.o
vt_ept_tlbflush                                   output.o
vt_ept_updatecr3                                  output.o
vt_ept_violation                                  output.o
vt_extern_iopass                                  output.o
vt_generate_external_int                          output.o
vt_generate_pagefault                             output.o
vt_get_current_regs_in_vmcs                       output.o
vt_get_vmcs_regs_in_vmcs                          output.o
vt_init                                           output.o
vt_init_signal                                    output.o
vt_io                                             output.o
vt_iopass                                         output.o
vt_iopass_init                                    output.o
vt_msr_init                                       output.o
vt_msr_update_lma                                 output.o
vt_paging_apply_fixed_cr0                         output.o
vt_paging_apply_fixed_cr4                         output.o
vt_paging_clear_all                               output.o
vt_paging_extern_flush_tlb_entry                  output.o
vt_paging_flush_guest_tlb                         output.o
vt_paging_get_gpat                                output.o
vt_paging_init                                    output.o
vt_paging_invalidate                              output.o
vt_paging_map_1mb                                 output.o
vt_paging_npf                                     output.o
vt_paging_pagefault                               output.o
vt_paging_pg_change                               output.o
vt_paging_set_gpat                                output.o
vt_paging_spt_setcr3                              output.o
vt_paging_start                                   output.o
vt_paging_tlbflush                                output.o
vt_paging_updatecr3                               output.o
vt_panic_dump                                     output.o
vt_read_control_reg                               output.o
vt_read_flags                                     output.o
vt_read_gdtr                                      output.o
vt_read_general_reg                               output.o
vt_read_guest_msr                                 output.o
vt_read_idtr                                      output.o
vt_read_ip                                        output.o
vt_read_msr                                       output.o
vt_read_sreg_acr                                  output.o
vt_read_sreg_base                                 output.o
vt_read_sreg_limit                                output.o
vt_read_sreg_sel                                  output.o
vt_reset                                          output.o
vt_resume                                         output.o
vt_start_vm                                       output.o
vt_update_exception_bmp                           output.o
vt_vmexit                                         output.o
vt_vminit                                         output.o
vt_vmptrld                                        output.o
vt_write_control_reg                              output.o
vt_write_flags                                    output.o
vt_write_gdtr                                     output.o
vt_write_general_reg                              output.o
vt_write_guest_msr                                output.o
vt_write_idtr                                     output.o
vt_write_ip                                       output.o
vt_write_msr                                      output.o
vt_write_realmode_seg                             output.o
vt_writing_sreg                                   output.o
waitcycles                                        output.o
wakeup_cont                                       output.o
wakeup_entry_addr                                 output.o
wakeup_entry_cr0                                  output.o
wakeup_entry_cr3                                  output.o
wakeup_entry_cr4                                  output.o
wakeup_entry_end                                  output.o
wakeup_entry_gdtr                                 output.o
wakeup_entry_start                                output.o
wakeup_init                                       output.o
wakeup_main                                       output.o
whirlpool_block                                   output.o
write_gphys_b                                     output.o
write_gphys_l                                     output.o
write_gphys_q                                     output.o
write_gphys_w                                     output.o
write_hphys_b                                     output.o
write_hphys_l                                     output.o
write_hphys_q                                     output.o
write_hphys_w                                     output.o
write_linearaddr_b                                output.o
write_linearaddr_l                                output.o
write_linearaddr_ok_b                             output.o
write_linearaddr_ok_l                             output.o
write_linearaddr_ok_w                             output.o
write_linearaddr_q                                output.o
write_linearaddr_tss                              output.o
write_linearaddr_w                                output.o
x509_name_ff                                      output.o
