
Allocating common symbols
Common symbol       size              file

clflush_size        0x4               output.o
sReaderContext      0x60              output.o
sigx_app            0x8               output.o
num_dom             0x4               output.o
mszReaders          0x400             output.o
prohibit_iccard_init
                    0x4               output.o
curthread           0x8               output.o
sig_app             0x8               output.o
readerState         0x64              output.o
dom_io              0x800             output.o
acpi_dsdt_system_state
                    0x1e              output.o
ehci_host           0x8               output.o
num_of_processors   0x4               output.o
e801_fake_bx        0x2               output.o
iommu_detected      0x1               output.o
dwReaders           0x8               output.o
readerTracker       0x140             output.o
handler_descriptor_lock
                    0x1               output.o
e801_fake_ax        0x2               output.o

Discarded input sections

 .gomi          0x0000000000000000        0xe output.o

Memory Configuration

Name             Origin             Length             Attributes
*default*        0x0000000000000000 0xffffffffffffffff

Linker script and memory map

                0x0000000040100000                virt = 0x40100000
                0x0000000000100000                phys = 0x100000
                0x0000000040100000                . = virt
                0x0000000040100000                head = .
                0x00000000401000b0                . = (virt + SIZEOF_HEADERS)

.text           0x0000000040101000   0x1145f8 load address 0x0000000000101000
                0x0000000040101000                code = .
 *(.entry)
 .entry         0x0000000040101000     0x6000 output.o
                0x000000004010100c                entry
                0x000000004010109a                cpuinit_start
                0x00000000401012c8                vmm_base_cr3
                0x00000000401012e0                apinit_procs
                0x00000000401012e8                apinit_lock
                0x00000000401012f0                cpuinit_end
                0x0000000040103000                entry_pdp
                0x0000000040104000                entry_pd0
                0x0000000040105000                entry_pd
 *(.text)
 .text          0x0000000040107000   0x10e5f8 output.o
                0x0000000040107654                acpi_smi_hook
                0x00000000401076a1                acpi_iohook
                0x00000000401076f3                acpi_reset
                0x00000000401077f1                acpi_poweroff
                0x000000004010782a                get_acpi_time_raw
                0x000000004010cbef                acpi_dsdt_parse
                0x000000004010cd9a                apinitproc0
                0x000000004010cdc3                apic_available
                0x000000004010cdf1                ap_start_addr
                0x000000004010d04b                panic_wakeup_all
                0x000000004010d0db                disable_apic
                0x000000004010d14f                sync_all_processors
                0x000000004010d1df                start_all_processors
                0x000000004010d220                assertion_failed
                0x000000004010d255                beep_set_freq
                0x000000004010d283                beep_on
                0x000000004010d293                beep_off
                0x000000004010d8e2                update_mtrr_and_pat
                0x000000004010db31                cache_get_gpat
                0x000000004010db84                cache_set_gpat
                0x000000004010dbcd                cache_get_attr
                0x000000004010dc82                cache_get_gmtrr_type
                0x000000004010dc8d                cache_get_gmtrr_attr
                0x000000004010dca0                cache_get_gmtrrcap
                0x000000004010dcce                cache_get_gmtrr
                0x000000004010de2b                cache_set_gmtrr
                0x000000004010de85                cache_get_gmsr_amd
                0x000000004010ded5                cache_set_gmsr_amd
                0x000000004010e311                callrealmode_endofcodeaddr
                0x000000004010e322                callrealmode_usevcpu
                0x000000004010e32f                callrealmode_printmsg
                0x000000004010e34c                callrealmode_getsysmemmap
                0x000000004010e3a9                callrealmode_getshiftflags
                0x000000004010e3c7                callrealmode_setvideomode
                0x000000004010e3e5                callrealmode_reboot
                0x000000004010e3ff                callrealmode_tcgbios
                0x000000004010e493                callrealmode_disk_readmbr
                0x000000004010e4d2                callrealmode_disk_readlba
                0x000000004010e519                callrealmode_bootcd_getstatus
                0x000000004010e56e                callrealmode_setcursorpos
                0x000000004010e593                callrealmode_startkernel32
                0x000000004010e5b3                callrealmode_getfontinfo
                0x000000004010e634                get_cpu_id
                0x000000004010e650                cpu_emul_cpuid
                0x000000004010e704                cpu_emul_rdmsr
                0x000000004010e77d                cpu_emul_wrmsr
                0x000000004010e7f3                cpu_emul_hlt
                0x000000004010e80b                cpu_emul_cli
                0x000000004010e844                cpu_emul_sti
                0x000000004010e88b                cpu_emul_realmode_int
                0x000000004010ea07                cpu_emul_xsetbv
                0x0000000040111250                cpu_interpreter
                0x000000004011358c                cpu_mmu_get_pte
                0x0000000040113f35                write_linearaddr_ok_b
                0x0000000040113f57                write_linearaddr_ok_w
                0x0000000040113f62                write_linearaddr_ok_l
                0x0000000040113f6d                write_linearaddr_b
                0x0000000040113fe5                write_linearaddr_w
                0x0000000040114088                write_linearaddr_l
                0x0000000040114129                write_linearaddr_q
                0x00000000401141c8                read_linearaddr_b
                0x000000004011423f                read_linearaddr_w
                0x00000000401142db                read_linearaddr_l
                0x0000000040114378                read_linearaddr_q
                0x0000000040114415                read_linearaddr_tss
                0x00000000401144ba                write_linearaddr_tss
                0x000000004011854d                cpu_mmu_spt_tlbflush
                0x0000000040118588                cpu_mmu_spt_updatecr3
                0x0000000040118821                cpu_mmu_spt_invalidate
                0x00000000401188a9                cpu_mmu_spt_pagefault
                0x0000000040118a99                cpu_mmu_spt_extern_mapsearch
                0x0000000040118bda                cpu_mmu_spt_map_1mb
                0x0000000040118d36                cpu_mmu_spt_clear_all
                0x0000000040118e95                cpu_mmu_spt_init
                0x0000000040119504                cpu_seg_read_b
                0x000000004011957b                cpu_seg_read_w
                0x00000000401195f2                cpu_seg_read_l
                0x0000000040119669                cpu_seg_read_q
                0x00000000401196e0                cpu_seg_write_b
                0x0000000040119758                cpu_seg_write_w
                0x00000000401197d0                cpu_seg_write_l
                0x0000000040119847                cpu_seg_write_q
                0x00000000401198c0                cpu_stack_get
                0x000000004011992a                cpu_stack_set
                0x00000000401199bf                cpu_stack_push
                0x0000000040119a71                cpu_stack_pop
                0x0000000040119b60                call_cpuid
                0x0000000040119f39                debug_addstr
                0x0000000040119f3f                debug_gdb
                0x0000000040119f45                debug_iohook
                0x0000000040119f4b                debug_msgregister
                0x0000000040119f7b                debug_msgunregister
                0x000000004011a019                do_exint_pass
                0x000000004011a0b0                read_gphys_b
                0x000000004011a12c                write_gphys_b
                0x000000004011a1af                read_gphys_w
                0x000000004011a255                write_gphys_w
                0x000000004011a306                read_gphys_l
                0x000000004011a3ac                write_gphys_l
                0x000000004011a460                read_gphys_q
                0x000000004011a506                write_gphys_q
                0x000000004011a5b7                cmpxchg_gphys_l
                0x000000004011a683                cmpxchg_gphys_q
                0x000000004011aab1                gmm_pass_gp2hp
                0x000000004011ac22                idman_reinit_session
                0x000000004011ac9d                idman_reinit2
                0x000000004011acbe                get_idman_session
                0x000000004011ad00                call_initfunc
                0x000000004011ad64                initfunc_init
                0x000000004011c8ee                int_fatal
                0x000000004011cc6f                callfunc_and_getint
                0x000000004011cc83                do_externalint_enable
                0x000000004011cc98                set_int_handler
                0x000000004011ccb7                int_exceptionHandler
                0x000000004011ccc2                int_init_ap
                0x000000004011cd16                do_io_nothing
                0x000000004011cd52                set_iofunc
                0x000000004011cdf3                call_io
                0x000000004011cf3c                do_iopass_default
                0x000000004011d0d3                keyboard_reset
                0x000000004011d118                setkbdled
                0x000000004011d179                keyboard_flush
                0x000000004011d1a0                load_bootsector
                0x000000004011d569                copy_bootsector
                0x000000004011d80a                localapic_wait_for_sipi
                0x000000004011d897                localapic_change_base_msr
                0x000000004011d8e3                localapic_mmio_register
                0x000000004011e2ba                resume_vm
                0x000000004011e375                vmm_main
                0x000000004011e760                getsysmemmap
                0x000000004011e7e8                getfakesysmemmap
                0x000000004011e86c                phys_to_virt
                0x000000004011e882                vmm_start_inf
                0x000000004011e88e                vmm_term_inf
                0x000000004011e89f                num_of_available_pages
                0x000000004011e90b                alloc_pages
                0x000000004011e994                alloc_page
                0x000000004011e9a4                alloc
                0x000000004011ec21                alloc2
                0x000000004011ec6e                free
                0x000000004011ed8d                realloc
                0x000000004011eede                free_page
                0x000000004011eef1                free_page_phys
                0x000000004011ef0c                mempool_new
                0x000000004011ef77                mempool_free
                0x000000004011f027                mempool_allocmem
                0x000000004011f20a                mempool_freemem
                0x000000004011f4c0                sym_to_phys
                0x000000004011f4d4                phys_in_vmm
                0x000000004011f4f0                mm_force_unlock
                0x000000004011f519                mm_process_alloc
                0x000000004011f6e9                mm_process_free
                0x000000004011f730                mm_process_switch
                0x000000004011f74e                pmap_open_vmm
                0x000000004011f779                pmap_open_guest
                0x000000004011f7bb                pmap_close
                0x000000004011f7c1                pmap_getreadlevel
                0x000000004011f7cd                pmap_setlevel
                0x000000004011f7d9                pmap_seek
                0x000000004011f846                pmap_read
                0x000000004011fa71                pmap_write
                0x000000004011fc08                mm_process_unmap_stack
                0x000000004011fdef                mm_process_unmap
                0x000000004011fed1                mm_process_unmapall
                0x000000004011ff78                pmap_pointer
                0x000000004011ffd9                pmap_clear
                0x00000000401200c6                pmap_autoalloc
                0x00000000401207fd                mm_process_map_stack
                0x0000000040120b62                mm_process_map_shared_physpage
                0x0000000040120bd6                mm_process_map_shared
                0x0000000040120e00                mm_process_map_alloc
                0x0000000040120f32                pmap_dump
                0x000000004012104a                unmapmem
                0x000000004012112b                mapmem
                0x00000000401215fe                cmpxchg_hphys_q
                0x000000004012165c                cmpxchg_hphys_l
                0x00000000401216ba                write_hphys_q
                0x00000000401216ee                read_hphys_q
                0x0000000040121725                write_hphys_l
                0x0000000040121757                read_hphys_l
                0x000000004012178c                write_hphys_w
                0x00000000401217bf                read_hphys_w
                0x00000000401217f6                write_hphys_b
                0x0000000040121828                read_hphys_b
                0x000000004012188b                mapmem_hphys
                0x00000000401218a3                alloc_realmodemem
                0x0000000040121946                mapmem_gphys
                0x000000004012195e                mm_flush_wb_cache
                0x0000000040121d7f                mmio_access_memory
                0x0000000040121ed6                mmio_access_page
                0x0000000040121f97                mmio_register
                0x000000004012219a                mmio_unregister
                0x0000000040122221                mmio_lock
                0x000000004012223c                mmio_unlock
                0x00000000401222ce                msg_findname
                0x0000000040122348                msg_register
                0x000000004012242a                msg_unregister
                0x00000000401224a5                msg_unregisterall
                0x0000000040122531                msg_unregister2
                0x00000000401225fe                call_read_msr
                0x0000000040122612                call_write_msr
                0x00000000401228f0                load_minios
                0x0000000040123110                backtrace
                0x00000000401236ac                panic
                0x0000000040123c24                auto_reboot
                0x0000000040123c41                panic_test
                0x0000000040123c64                pcpu_list_foreach
                0x0000000040123ca3                pcpu_list_add
                0x0000000040123cf5                pcpu_init
                0x0000000040124755                vprintf
                0x0000000040124790                printf
                0x00000000401247ce                vsnprintf
                0x0000000040124812                snprintf
                0x0000000040124a79                sys_msgsetfunc
                0x0000000040124b1e                sys_msgclose
                0x0000000040124b3b                sys_msgret
                0x0000000040124b4d                sys_exitprocess
                0x0000000040124dfd                sys_msgsenddesc
                0x0000000040124eb5                sys_msgunregister
                0x00000000401255d1                sys_msgsendbuf
                0x0000000040125783                sys_msgsendint
                0x0000000040125a22                sys_newprocess
                0x0000000040125ac3                sys_msgopen
                0x0000000040125c03                sys_msgregister
                0x0000000040125c81                process_kill
                0x0000000040125cd8                msgsetfunc
                0x0000000040125ced                msgregister
                0x0000000040125d03                msgopen
                0x0000000040125d16                msgclose
                0x0000000040125d28                msgsendint
                0x0000000040125d3c                msgsenddesc
                0x0000000040125d50                newprocess
                0x0000000040125d63                msgsendbuf
                0x0000000040125d7d                msgunregister
                0x0000000040125d8f                exitprocess
                0x0000000040125da2                msgpremapbuf
                0x0000000040125ecc                process_syscall
                0x0000000040125f78                putchar
                0x0000000040125fb6                putchar_set_func
                0x00000000401262b7                do_panic_reboot
                0x0000000040126341                handle_init_to_bsp
                0x0000000040126362                reboot_test
                0x0000000040126392                savemsr_save
                0x000000004012640e                savemsr_load
                0x0000000040126a36                get_seg_base
                0x0000000040126af4                get_seg_access_rights
                0x0000000040126b14                segment_wakeup
                0x0000000040126b56                segment_init_ap
                0x0000000040126e1b                serial_putDebugChar
                0x0000000040126e2d                serial_getDebugChar
                0x0000000040126e42                serial_putchar
                0x0000000040126e96                serial_init_iohook
                0x0000000040126f04                waitcycles
                0x0000000040126f26                usleep
                0x0000000040126ffb                sleep_set_timer_counter
                0x0000000040127162                vmctl_svm_init
                0x000000004012720c                message_exitcode
                0x000000004012778f                printexitcode
                0x0000000040127948                svm_available
                0x0000000040127a06                svm_reset
                0x0000000040127b0a                svm_vminit
                0x0000000040127d45                svm_vmexit
                0x0000000040127d4b                svm_init
                0x0000000040127e95                svm_enable_resume
                0x0000000040127f9a                svm_resume
                0x00000000401280f0                svm_ioio
                0x00000000401281f0                svm_extern_iopass
                0x0000000040128363                svm_init_signal
                0x0000000040128386                svm_start_vm
                0x0000000040128e40                svm_msr_update_lma
                0x0000000040128eb5                svm_read_msr
                0x000000004012915a                svm_write_msr
                0x00000000401296aa                svm_np_init
                0x0000000040129792                svm_np_pagefault
                0x00000000401297d8                svm_np_tlbflush
                0x00000000401297de                svm_np_updatecr3
                0x00000000401297e9                svm_np_clear_all
                0x000000004012987c                svm_np_extern_mapsearch
                0x0000000040129907                svm_np_map_1mb
                0x0000000040129960                svm_paging_extern_flush_tlb_entry
                0x0000000040129987                svm_paging_map_1mb
                0x00000000401299b1                svm_paging_flush_guest_tlb
                0x00000000401299f0                svm_paging_init
                0x0000000040129b0e                svm_paging_pagefault
                0x0000000040129b3a                svm_paging_tlbflush
                0x0000000040129b61                svm_paging_invalidate
                0x0000000040129b8d                svm_paging_npf
                0x0000000040129bb9                svm_paging_updatecr3
                0x0000000040129be1                svm_paging_spt_setcr3
                0x0000000040129c16                svm_paging_clear_all
                0x0000000040129c41                svm_paging_get_gpat
                0x0000000040129c4c                svm_paging_set_gpat
                0x0000000040129c99                svm_paging_apply_fixed_cr0
                0x0000000040129cbc                svm_paging_apply_fixed_cr4
                0x0000000040129ce0                svm_paging_pg_change
                0x0000000040129ce6                svm_paging_start
                0x0000000040129cf8                svm_panic_dump
                0x0000000040129dd0                svm_read_general_reg
                0x0000000040129f39                svm_write_general_reg
                0x000000004012a06f                svm_read_control_reg
                0x000000004012a105                svm_write_control_reg
                0x000000004012a1f1                svm_read_sreg_sel
                0x000000004012a2bd                svm_read_sreg_acr
                0x000000004012a39c                svm_read_sreg_base
                0x000000004012a4be                svm_read_sreg_limit
                0x000000004012a5d5                svm_read_ip
                0x000000004012a5f4                svm_write_ip
                0x000000004012a61a                svm_read_flags
                0x000000004012a639                svm_write_flags
                0x000000004012a655                svm_read_gdtr
                0x000000004012a68c                svm_write_gdtr
                0x000000004012a6b5                svm_read_idtr
                0x000000004012a6ec                svm_write_idtr
                0x000000004012a715                svm_write_realmode_seg
                0x000000004012a865                svm_writing_sreg
                0x000000004012a987                int1a_TCG_StatusCheck
                0x000000004012aa4c                int1a_TCG_HashLogExtendEvent
                0x000000004012aadd                int1a_TCG_PassThroughToTPM
                0x000000004012ab6e                int1a_TCG_HashLogEvent
                0x000000004012abef                int1a_TCG_HashAll
                0x000000004012aca7                int1a_TCG_TSS
                0x000000004012ad38                int1a_TCG_CompactHashLogExtendEvent
                0x000000004012ad99                tcg_measure
                0x000000004012b0dd                thread_gettid
                0x000000004012b0f2                schedule
                0x000000004012b303                thread_new
                0x000000004012b426                thread_wakeup
                0x000000004012b503                thread_will_stop
                0x000000004012b57b                thread_exit
                0x000000004012b61f                thread_start1
                0x000000004012b64f                thread_set_process_switch
                0x000000004012b800                get_cpu_time
                0x000000004012b8d3                get_acpi_time
                0x000000004012b983                get_time
                0x000000004012bb65                timer_new
                0x000000004012bbe6                timer_set
                0x000000004012bcdc                timer_free
                0x000000004012bee2                tty_putchar
                0x000000004012c096                ttylog_stop
                0x000000004012c0a6                tty_udp_register
                0x000000004012c0f8                tty_init_iohook
                0x000000004012c11c                vcpu_list_foreach
                0x000000004012c15b                load_new_vcpu
                0x000000004012c215                vga_register
                0x000000004012c297                vga_is_ready
                0x000000004012c2f7                vga_transfer_image
                0x000000004012c344                vga_fill_rect
                0x000000004012c37e                vga_get_screen_size
                0x000000004012c4a8                vmmcall
                0x000000004012c501                vmmcall_register
                0x000000004012c53f                vmmcall_init
                0x000000004012c900                vmmcall_boot_continue
                0x000000004012c94b                vmmcall_boot_enable
                0x000000004012d1a7                register_status_callback
                0x000000004012d2bf                vramwrite_clearscreen
                0x000000004012d316                vramwrite_putchar
                0x000000004012d4ee                vramwrite_mark1
                0x000000004012d540                vramwrite_mark2
                0x000000004012d5a0                vramwrite_mark3
                0x000000004012d600                vramwrite_save_and_move_cursor
                0x000000004012d645                vramwrite_restore_cursor
                0x000000004012d657                vramwrite_get_cursor_pos
                0x000000004012d6b7                vramwrite_init_global
                0x000000004012d6c4                vramwrite_exit_global
                0x000000004012d74e                vt_generate_external_int
                0x000000004012d7a1                vt_generate_pagefault
                0x000000004012d857                vmctl_vt_init
                0x000000004012d8ff                vt_vmptrld
                0x000000004012dbec                vt_ept_init
                0x000000004012dcdc                vt_ept_violation
                0x000000004012dd86                vt_ept_tlbflush
                0x000000004012dd8c                vt_ept_updatecr3
                0x000000004012de7e                vt_ept_clear_all
                0x000000004012df11                vt_ept_extern_mapsearch
                0x000000004012df9c                vt_ept_map_1mb
                0x000000004012dff0                message_exitreason
                0x000000004012e159                printexitreason
                0x000000004012ead0                vt_available
                0x000000004012eb6a                vt__vmx_init
                0x000000004012ebb2                vt__vmxon
                0x000000004012ec5f                vt_vminit
                0x000000004012ecbb                vt_vmexit
                0x000000004012ecd5                vt_init
                0x000000004012ece5                vt_enable_resume
                0x000000004012ee1e                vt_resume
                0x000000004012efb7                vt_io
                0x000000004012f0e8                vt_iopass_init
                0x000000004012f27d                vt_iopass
                0x000000004012f2ce                vt_extern_iopass
                0x000000004012fee3                vt_update_exception_bmp
                0x00000000401304a0                vt_init_signal
                0x00000000401304ab                vt_start_vm
                0x0000000040130891                vt_add_guest_msr
                0x00000000401309d4                vt_read_guest_msr
                0x0000000040130a05                vt_write_guest_msr
                0x0000000040130a33                vt_msr_update_lma
                0x0000000040130b0b                vt_read_msr
                0x0000000040130daf                vt_write_msr
                0x0000000040131077                vt_msr_init
                0x0000000040131273                vt_paging_extern_flush_tlb_entry
                0x00000000401312e1                vt_paging_map_1mb
                0x0000000040131301                vt_paging_flush_guest_tlb
                0x0000000040131361                vt_paging_pagefault
                0x00000000401313a4                vt_paging_tlbflush
                0x00000000401313c7                vt_paging_invalidate
                0x00000000401313fa                vt_paging_npf
                0x000000004013143d                vt_paging_updatecr3
                0x0000000040131471                vt_paging_spt_setcr3
                0x000000004013149c                vt_paging_clear_all
                0x00000000401314cf                vt_paging_get_gpat
                0x00000000401314da                vt_paging_set_gpat
                0x000000004013153a                vt_paging_apply_fixed_cr0
                0x00000000401315a2                vt_paging_apply_fixed_cr4
                0x00000000401315ea                vt_paging_pg_change
                0x000000004013176d                vt_paging_init
                0x00000000401317e8                vt_paging_start
                0x0000000040131817                vt_panic_dump
                0x00000000401319c0                vt_read_general_reg
                0x0000000040131b0e                vt_write_general_reg
                0x0000000040131c2c                vt_read_control_reg
                0x0000000040131c9c                vt_read_sreg_sel
                0x0000000040131db6                vt_read_sreg_acr
                0x0000000040131e15                vt_read_sreg_base
                0x0000000040131ecd                vt_read_sreg_limit
                0x0000000040131f80                vt_read_ip
                0x0000000040131f8e                vt_write_ip
                0x0000000040131fae                vt_read_flags
                0x0000000040131fd4                vt_write_flags
                0x0000000040131fff                vt_read_gdtr
                0x0000000040132014                vt_write_gdtr
                0x0000000040132029                vt_read_idtr
                0x000000004013206d                vt_write_idtr
                0x00000000401320a3                vt_write_control_reg
                0x000000004013257f                vt_get_current_regs_in_vmcs
                0x0000000040132827                vt_get_vmcs_regs_in_vmcs
                0x00000000401329a4                vt_write_realmode_seg
                0x0000000040132ae7                vt_writing_sreg
                0x0000000040132b70                vt_reset
                0x0000000040132e4f                prepare_for_sleep
                0x0000000040132f26                cancel_sleep
                0x0000000040132f48                wakeup_main
                0x0000000040132fd0                wakeup_cont
                0x00000000401330fa                wakeup_init
                0x0000000040133144                call_xsetbv
                0x00000000401331b0                mpumul_64_64
                0x00000000401331d0                mpudiv_128_32
                0x00000000401331f0                ipchecksum
                0x0000000040133280                asm_vmlaunch_regs_32
                0x0000000040133300                asm_vmresume_regs_32
                0x0000000040133380                asm_vmrun_regs_32
                0x00000000401333e0                asm_vmlaunch_regs_64
                0x00000000401334c0                asm_vmresume_regs_64
                0x00000000401335a0                asm_vmrun_regs_64
                0x0000000040133644                callrealmode_start
                0x000000004013365a                callrealmode_start2
                0x0000000040133ae6                callrealmode_end
                0x0000000040133ae8                move_vmm_area32
                0x0000000040133b0d                move_vmm_area64
                0x0000000040133b38                int_handler
                0x0000000040133bb0                int_callfunc
                0x0000000040134000                syscall_entry_sysexit
                0x000000004013402c                syscall_entry_lret
                0x000000004013405c                ret_to_user32
                0x0000000040134068                syscall_entry_sysret64
                0x00000000401340b0                ret_to_user64
                0x0000000040135000                processuser_sysenter
                0x0000000040136000                processuser_no_sysenter
                0x0000000040137000                processuser_syscall
                0x0000000040138140                memset
                0x00000000401381c0                memcpy
                0x0000000040138200                strcmp
                0x0000000040138240                memcmp
                0x0000000040138280                strlen
                0x0000000040138298                sx_handler
                0x00000000401382f0                thread_switch
                0x0000000040138310                thread_start0
                0x000000004013834c                monitor_vmcs_read
                0x0000000040138355                get_guest_eptp_value
                0x0000000040138365                get_guest_cr3_value
                0x0000000040138378                hypercall_handler
                0x0000000040138398                get_page_table_base_GPA
                0x00000000401383ae                get_ept_base_HPA
                0x00000000401383c4                traverseGuestPages
                0x00000000401383cf                saveSystemCallHandlerAddress
                0x0000000040138410                getSystemCallHandlerGPA
                0x0000000040138420                initializeNewProtectedApplication
                0x0000000040138426                allocateNewVMID
                0x000000004013843c                allocateNewAppID
                0x0000000040138454                allocateNewApplicationIdentifiers
                0x000000004013848f                protectCurrentApplication
                0x00000000401384d7                getMemoryOwnershipTableIndex
                0x00000000401384e4                changePageStatus
                0x0000000040138621                openPage
                0x00000000401386c0                closePage
                0x0000000040138787                getMemoryOwnershipTableEntry
                0x00000000401387c0                traverseIA32ePages
                0x0000000040138a04                traverseIA32ePDPT
                0x0000000040138bad                traverseIA32ePDT
                0x0000000040138cca                traverseIA32ePT
                0x0000000040138d6a                gvaToGPA
                0x0000000040138f74                mapHPAintoHVA
                0x0000000040138f9b                unmapHPAintoHVA
                0x0000000040138fa6                gpaToHPA
                0x0000000040139140                test_start
                0x000000004013918c                test_gpaToHPA
                0x00000000401391c6                test_traverseGuestPages
                0x0000000040139203                test_logicalCPUStatus
                0x0000000040139230                core_init
                0x00000000401392ea                core_mm_read_guest_phys
                0x00000000401392ff                core_mm_write_guest_phys
                0x0000000040139314                alloc_handler_descriptor
                0x0000000040139324                core_io_modify_handler
                0x00000000401393e2                core_io_unregister_handler
                0x0000000040139469                core_io_handle_default
                0x00000000401396f1                panic_oom
                0x0000000040139704                core_io_register_handler
                0x0000000040139838                matched_drhd_u
                0x000000004013988d                parse_dmar_bios_report
                0x00000000401398d8                ieee1394_init
                0x0000000040139910                iommu_setup
                0x0000000040139916                iodom_init
                0x0000000040139ad7                add_remap
                0x0000000040139b64                create_dom
                0x0000000040139e87                pci_conceal_new_device
                0x000000004013a245                pci_conceal_config_data_handler
                0x000000004013a25c                pci_save_config_addr
                0x000000004013a26e                pci_restore_config_addr
                0x000000004013a280                pci_append_device
                0x000000004013a2b2                pci_config_data_handler
                0x000000004013a5db                pci_config_addr_handler
                0x000000004013a623                pci_register_driver
                0x000000004013a6c2                pci_read_config_data8
                0x000000004013a708                pci_read_config_data16
                0x000000004013a74f                pci_read_config_data32
                0x000000004013a795                pci_write_config_data8
                0x000000004013a7d9                pci_write_config_data16
                0x000000004013a81e                pci_write_config_data32
                0x000000004013a862                pci_read_config_data_port
                0x000000004013a894                pci_write_config_data_port
                0x000000004013a8ca                pci_handle_default_config_write
                0x000000004013a90c                pci_print_device
                0x000000004013ac6c                pci_possible_new_device
                0x000000004013ac90                security_storage_check_lba
                0x000000004013e20a                ahci_new
                0x000000004013e4a0                ahci_config_read
                0x000000004013e4fe                ahci_config_write
                0x000000004013e694                ata_bm_handle_prd_table
                0x000000004013e8dd                ata_bm_handle_status
                0x000000004013e99d                ata_bm_handle_command
                0x000000004013eae0                ata_bm_handler
                0x000000004013ebf8                ata_get_cmd_type
                0x000000004013f1b2                ata_handle_queued_status
                0x000000004013f9e7                ata_channel_lock
                0x000000004013fa63                ata_channel_unlock
                0x00000000401405eb                ata_ctlblk_handler
                0x00000000401406f3                ata_cmdblk_handler
                0x000000004014081c                ata_ahci_mode
                0x0000000040140d1f                ata_init_io_handler
                0x0000000040140dc2                ata_set_bm_handler
                0x0000000040140e27                ata_set_cmdblk_handler
                0x0000000040140e6d                ata_set_ctlblk_handler
                0x0000000040140eb5                ata_config_read
                0x0000000040140f77                ata_config_write
                0x0000000040141110                ata_init_vendor
                0x0000000040141137                ata_bm_handle_device_specific
                0x0000000040141230                atapi_handle_config_data
                0x0000000040141477                atapi_handle_interrupt_reason
                0x00000000401414d0                atapi_handle_pio_identify_packet
                0x000000004014165f                atapi_handle_packet_data
                0x000000004014166a                atapi_handle_cmd_packet
                0x00000000401416e4                packet_handle_through
                0x0000000040141719                packet_handle_nondata
                0x0000000040141733                packet_handle_config
                0x000000004014177f                packet_handle_rw
                0x0000000040141801                packet_handle_invalid
                0x000000004014181b                packet_handle_command
                0x0000000040141850                uhci_init
                0x00000000401420f7                uhci_current_frame_number
                0x0000000040142110                dump_td_byvirt
                0x00000000401422dd                dump_td
                0x00000000401423bd                dump_qh
                0x0000000040142585                dump_frame
                0x000000004014268a                uhci_dump_all
                0x000000004014284c                uhci_error_status_string
                0x0000000040142b2d                uhci_shadow_buffer
                0x0000000040142db2                uhci_framelist_monitor
                0x0000000040144d20                scan_gframelist
                0x00000000401455f3                uhci_create_urb
                0x000000004014574c                uhci_destroy_urb
                0x0000000040145879                uhci_destroy_unlinked_urbs
                0x000000004014593b                uhci_deactivate_urb
                0x0000000040145cc4                uhci_activate_urb
                0x0000000040146218                uhci_reactivate_urb
                0x00000000401462be                uhci_submit_control
                0x00000000401468c2                uhci_submit_interrupt
                0x0000000040146926                uhci_submit_bulk
                0x000000004014698a                uhci_check_urb_advance
                0x00000000401469cf                uhci_check_advance
                0x0000000040146bda                init_hframelist
                0x0000000040146e5c                ehci_init
                0x00000000401486e9                ehci_conceal_portroute
                0x0000000040148d0d                ehci_dump_qtd
                0x0000000040148d93                ehci_dump_qtdm
                0x0000000040148dc8                ehci_dump_alist
                0x0000000040148e8b                ehci_dump_urblist
                0x0000000040148f20                ehci_dump_urb
                0x00000000401493dd                ehci_dump_async
                0x000000004014986c                ehci_dump_all
                0x000000004014ae4a                ehci_shadow_buffer
                0x000000004014b104                get_gurb_by_address
                0x000000004014b198                shadow_and_activate_urb
                0x000000004014b448                ehci_deactivate_urb
                0x000000004014b5e0                deactivate_and_delete_urb
                0x000000004014b857                ehci_check_urb_advance
                0x000000004014ba27                ehci_check_advance
                0x000000004014bc5b                ehci_shadow_async_list
                0x000000004014bd75                ehci_cleanup_urbs
                0x000000004014beca                ehci_end_monitor_async
                0x000000004014bf33                ehci_monitor_async_list
                0x000000004014c5dc                ehci_submit_control
                0x000000004014cb55                ehci_submit_bulk
                0x000000004014cb60                ehci_submit_interrupt
                0x000000004014e72a                usbmsc_init_handle
                0x000000004014eb09                usbhub_init_handle
                0x000000004014eb82                hub_portdevice_register
                0x000000004014f245                usbccid_init_handle
                0x000000004014f370                usb_set_debug
                0x000000004014f37c                usb_init
                0x000000004014f382                usb_find_busses
                0x000000004014f462                usb_get_busses
                0x000000004014f46f                usb_get_bus
                0x000000004014f497                usb_find_devices
                0x000000004014f4e0                usb_open
                0x000000004014f54a                usb_close
                0x000000004014f55a                usb_resetep
                0x000000004014f565                usb_clear_halt
                0x000000004014f570                usb_reset
                0x000000004014f57b                usb_claim_interface
                0x000000004014f589                usb_release_interface
                0x000000004014f59b                usb_set_configuration
                0x000000004014f846                usb_set_altinterface
                0x000000004014faf3                usb_control_msg
                0x000000004014fe4f                usb_get_string
                0x000000004015019c                usb_get_string_simple
                0x0000000040150391                usb_get_descriptor
                0x00000000401506e1                usb_get_descriptor_early
                0x0000000040150a3c                usb_get_descriptor_by_endpoint
                0x0000000040150d8e                usb_bulk_write
                0x0000000040150fe4                usb_interrupt_write
                0x000000004015123a                usb_bulk_read
                0x0000000040151515                usb_interrupt_read
                0x00000000401517f0                usb_register_host
                0x0000000040151902                usb_unregister_devices
                0x0000000040151934                usb_sc_lock
                0x00000000401519ac                usb_sc_unlock
                0x0000000040151cd3                free_config_descriptors
                0x00000000401526dc                free_device
                0x000000004015284a                handle_connect_status
                0x000000004015295e                handle_port_reset
                0x0000000040152a3f                dprintf_port
                0x0000000040153511                usb_init_device_monitor
                0x000000004015357b                usb_new_dev_handle
                0x0000000040153614                usbhid_init_handle
                0x0000000040153750                usb_hook_process
                0x0000000040153a3b                usb_hook_register
                0x0000000040153b1f                usb_hook_unregister
                0x0000000040153ba0                _dprintf
                0x0000000040153bed                _dprintft
                0x0000000040153ca8                pro100_io_handler
                0x0000000040153cb3                pro100_init
                0x0000000040153ccc                pro100_config_write
                0x0000000040153e11                pro100_config_read
                0x0000000040153f5a                pro100_init_vpn_client
                0x0000000040153f99                pro100_sleep
                0x0000000040153fd7                pro100_beep
                0x000000004015400f                pro100_get_ctx
                0x00000000401540b2                pro100_alloc_page
                0x00000000401540ec                pro100_free_page
                0x0000000040154111                pro100_get_op_size
                0x0000000040154154                pro100_mem_read
                0x0000000040154183                pro100_read_send_packet
                0x0000000040154395                pro100_mem_write
                0x00000000401543be                pro100_write
                0x00000000401543ed                pro100_read
                0x000000004015442a                pro100_flush
                0x0000000040154444                pro100_wait_cu_ru_accepable
                0x000000004015447f                pro100_init_ru_base_addr
                0x00000000401544df                pro100_init_cu_base_addr
                0x000000004015453f                pro100_send_packet_to_line
                0x0000000040154693                pro100_exec_cu_op
                0x00000000401547ec                pro100_generate_int
                0x000000004015481b                pro100_proc_guest_op
                0x0000000040154a16                pro100_write_recv_packet
                0x0000000040154baa                pro100_get_int_bit_string
                0x0000000040154c22                pro100_get_stat_ack_string
                0x0000000040154c8f                pro100_get_cu_command_string
                0x0000000040154d11                pro100_get_ru_command_string
                0x0000000040154d5b                pro100_init_recv_buffer
                0x0000000040154e92                pro100_alloc_recv_buffer
                0x0000000040154f01                pro100_new
                0x0000000040154fce                pro100_poll_ru
                0x00000000401550c7                pro100_hook_read
                0x0000000040155286                pro100_hook_write
                0x000000004015555c                pro100_mm_handler
                0x00000000401578e3                storage_premap_buf
                0x00000000401578ee                storage_premap_handle_sectors
                0x0000000040157c42                storage_get_num_hc
                0x0000000040157c74                storage_hc_open
                0x0000000040157d54                storage_hc_close
                0x0000000040157d9e                storage_hc_hook_register
                0x0000000040157e23                storage_hc_hook_unregister
                0x0000000040157ebd                storage_hc_register
                0x0000000040158088                storage_hc_unregister
                0x000000004015818d                storage_hc_scandev
                0x00000000401581d1                storage_hc_dev_open
                0x000000004015830f                storage_hc_dev_atacommand
                0x00000000401584e2                storage_hc_dev_close
                0x00000000401585aa                storage_io_init
                0x00000000401585bf                storage_io_deinit
                0x00000000401585ca                storage_io_get_num_devices
                0x0000000040158688                storage_io_aget_size
                0x00000000401587ef                storage_io_aread
                0x0000000040158a0b                storage_io_awrite
                0x0000000040159182                storage_handle_sectors
                0x00000000401593cb                storage_new
                0x0000000040159612                storage_free
                0x0000000040159811                storage_init
                0x0000000040159a45                aes_xts_init
                0x0000000040159a78                crypto_find
                0x0000000040159acb                crypto_register
                0x0000000040159b1b                crypto_init
                0x0000000040159b72                crypto_none_init
                0x0000000040159baa                vpn_GetCurrentCpuId
                0x0000000040159bb5                vpn_GetTickCount
                0x0000000040159be5                vpn_NewTimer
                0x0000000040159bff                vpn_SetTimer
                0x0000000040159c13                vpn_FreeTimer
                0x0000000040159c1e                vpn_GetPhysicalNicInfo
                0x0000000040159c2d                vpn_SendPhysicalNic
                0x0000000040159c3c                vpn_SetPhysicalNicRecvCallback
                0x0000000040159c4b                vpn_GetVirtualNicInfo
                0x0000000040159c5b                vpn_SendVirtualNic
                0x0000000040159c6b                vpn_SetVirtualNicRecvCallback
                0x0000000040159c7b                vpn_premap_PhysicalNicRecv
                0x0000000040159c94                vpn_premap_VirtualNicRecv
                0x0000000040159cad                vpn_premap_recvbuf
                0x0000000040159cb8                vpn_ic_rsa_sign
                0x0000000040159d5f                vpn_new_nic
                0x000000004015a381                msg_vpn_GetCurrentCpuId
                0x000000004015a39b                msg_vpn_ic_rsa_sign
                0x000000004015a447                msg_vpn_GetTickCount
                0x000000004015a485                msg_vpn_GetPhysicalNicInfo
                0x000000004015a4e9                msg_vpn_SendPhysicalNic
                0x000000004015a5a3                msg_vpn_SetPhysicalNicRecvCallback
                0x000000004015a5ef                msg_vpn_GetVirtualNicInfo
                0x000000004015a653                msg_vpn_SendVirtualNic
                0x000000004015a70d                msg_vpn_SetVirtualNicRecvCallback
                0x000000004015a759                msg_vpn_NewTimer
                0x000000004015a7c9                msg_vpn_SetTimer
                0x000000004015a89c                msg_vpn_FreeTimer
                0x000000004015a902                vpn_start
                0x000000004015ac8c                vpn_user_init
                0x000000004015acf0                SeFreeConfigEntryList
                0x000000004015ad4e                SeGetConfigEntry
                0x000000004015adbf                SeGetConfigStr
                0x000000004015adec                SeGetConfigBool
                0x000000004015ae98                SeGetConfigInt
                0x000000004015aebc                SeGetConfigInt64
                0x000000004015aee0                SeGetConfigBin
                0x000000004015af04                SeIsSplitChar
                0x000000004015af77                SeGetKeyAndValue
                0x000000004015b107                SeLoadConfigEntryListFromBuf
                0x000000004015b27f                SeLoadConfigEntryList
                0x000000004015b2d0                SePKeyPasswordCallbackFunction
                0x000000004015b2fd                SeDhFree
                0x000000004015b337                SeRsaVerifyWithPadding
                0x000000004015b411                SeRsaSignWithPadding
                0x000000004015b4d5                SeRsaPublicDecrypt
                0x000000004015b57e                SeRsaPrivateEncrypt
                0x000000004015b627                SeRsaPrivateDecrypt
                0x000000004015b6c8                SeRsaPublicEncrypt
                0x000000004015b769                SeGetCertSha1
                0x000000004015b7b1                SeGetCertMd5
                0x000000004015b7f9                SeBinToBigNum
                0x000000004015b844                SeBufToBigNum
                0x000000004015b85f                SeDhCompute
                0x000000004015b8eb                SeBigNumToBuf
                0x000000004015b984                SeRsaPublicSize
                0x000000004015b9cf                SeRsaPublicToBin
                0x000000004015ba33                SeRsaPublicToBuf
                0x000000004015ba77                SeDhNew
                0x000000004015bb4d                SeDhNewGroup2
                0x000000004015bb62                SeCheckSignature
                0x000000004015bb8c                SeGetKeyFromCert
                0x000000004015bbc8                SeCompareCert
                0x000000004015bbf2                SeCheckCertAndKey
                0x000000004015bc1c                SeIsBase64
                0x000000004015bcdd                SeFreePKey
                0x000000004015bced                SeFreeKey
                0x000000004015bd15                SeIsCertSignedByCert
                0x000000004015bd85                SeCheckCert
                0x000000004015bdeb                SeBioToKey
                0x000000004015bef9                SeGetCertIssuerName
                0x000000004015bf85                SeGetCertSubjectName
                0x000000004015c00f                SeFreeX509
                0x000000004015c01f                SeFreeCert
                0x000000004015c04d                SeFreeBio
                0x000000004015c05d                SeNewBio
                0x000000004015c070                SeCertToBio
                0x000000004015c0d1                SeKeyToBio
                0x000000004015c1cd                SeRsaGen
                0x000000004015c338                SeBioToBuf
                0x000000004015c3d9                SeCertToBuf
                0x000000004015c424                SeSaveCert
                0x000000004015c485                SeKeyToBuf
                0x000000004015c4d0                SeSaveKey
                0x000000004015c534                SeX509ToCert
                0x000000004015c5ec                SeBioToCert
                0x000000004015c637                SeBigNumToStr
                0x000000004015c6a3                SeBufToBio
                0x000000004015c6fc                SeBufToKey
                0x000000004015c768                SeLoadKey
                0x000000004015c813                SeCloneKey
                0x000000004015c87d                SeBufToCert
                0x000000004015c8d2                SeLoadCert
                0x000000004015c91f                SeCloneCert
                0x000000004015c970                SeSha1
                0x000000004015c990                SeHashForSignBySHA1
                0x000000004015ca3a                SeRsaSignWithSha1
                0x000000004015cadd                SeRsaVerifyWithSha1
                0x000000004015cb7f                SeMacSha1
                0x000000004015ccd6                SeMacSha196
                0x000000004015cd1d                SeMd5
                0x000000004015cd3d                SeDes3Encrypt
                0x000000004015cdd5                SeDes3Decrypt
                0x000000004015ce6f                SeDesNewKeyValue
                0x000000004015cec1                SeDes3NewKey
                0x000000004015cf42                SeDesNewKey
                0x000000004015cf53                SeDesRandKeyValue
                0x000000004015cf6f                SeDesRandKey
                0x000000004015cfb9                SeDes3RandKey
                0x000000004015d002                SeDesFreeKeyValue
                0x000000004015d02a                SeDes3FreeKey
                0x000000004015d064                SeDesFreeKey
                0x000000004015d06f                SeRand
                0x000000004015d083                SeRand64
                0x000000004015d09f                SeRand32
                0x000000004015d0ba                SeRand16
                0x000000004015d0d6                SeRand8
                0x000000004015d0f2                SeRand1
                0x000000004015d105                SeInitCrypto
                0x000000004015d148                SeFreeCrypto
                0x000000004015d160                SeIkeStrToPassword
                0x000000004015d1cd                SeIkePhase1CryptIdToKeySize
                0x000000004015d1ec                SeIkePhase2CryptIdToKeySize
                0x000000004015d20b                SeIkeStrToPhase1CryptId
                0x000000004015d271                SeIkeStrToPhase1HashId
                0x000000004015d2b0                SeIkeStrToPhase2CryptId
                0x000000004015d31b                SeIkeStrToPhase2HashId
                0x000000004015d35a                SeIkeIsZeroIP
                0x000000004015d388                SeIkeInitIPv6Address
                0x000000004015d3d5                SeIkeInitIPv4Address
                0x000000004015d418                SeIkeGetIPv6Address
                0x000000004015d452                SeIkeGetIPv4Address
                0x000000004015d46b                SeIkeIpAddressToStr
                0x000000004015d4c5                SeIkeBuildDataPayload
                0x000000004015d50e                SeIkeBuildTransformValue
                0x000000004015d5c8                SeIkeBuildTransformValueList
                0x000000004015d630                SeIkeBuildTransformPayload
                0x000000004015d6ad                SeIkeBuildIdPayload
                0x000000004015d724                SeIkeBuildCertPayload
                0x000000004015d787                SeIkeBuildCertRequestPayload
                0x000000004015d7ea                SeIkeBuildNoticePayload
                0x000000004015d877                SeIkeBuildDeletePayload
                0x000000004015d947                SeIkeGetFirstPayloadType
                0x000000004015d966                SeIkeBuildPayloadList
                0x000000004015da71                SeIkeBuildProposalPayload
                0x000000004015db1c                SeIkeBuildSaPayload
                0x000000004015dba5                SeIkeBuildPayload
                0x000000004015dc7e                SeIkeGetPayload
                0x000000004015dccc                SeIkeGetPayloadNum
                0x000000004015dd08                SeIkeNewPayload
                0x000000004015dd26                SeIkeNewDataPayload
                0x000000004015dd76                SeIkeNewSaPayload
                0x000000004015dda1                SeIkeNewProposalPayload
                0x000000004015de2b                SeIkeNewTransformPayload
                0x000000004015de76                SeIkeNewIdPayload
                0x000000004015def6                SeIkeNewCertPayload
                0x000000004015df5a                SeIkeNewCertRequestPayload
                0x000000004015dfbe                SeIkeNewNoticePayload
                0x000000004015e05a                SeIkeNewDeletePayload
                0x000000004015e096                SeIkeNewTransformValue
                0x000000004015e0c5                SeIkeFreeTransformValueList
                0x000000004015e101                SeIkeParseTransformValueList
                0x000000004015e26d                SeIkeParseTransformPayload
                0x000000004015e2d9                SeIkeFreeTransformPayload
                0x000000004015e307                SeIkeParseIdPayload
                0x000000004015e384                SeIkeFreeIdPayload
                0x000000004015e3b2                SeIkeParseCertPayload
                0x000000004015e41b                SeIkeFreeCertPayload
                0x000000004015e449                SeIkeParseCertRequestPayload
                0x000000004015e4b2                SeIkeFreeCertRequestPayload
                0x000000004015e4e0                SeIkeParseNoticePayload
                0x000000004015e5a4                SeIkeFreeNoticePayload
                0x000000004015e5e8                SeIkeFreeDeletePayload
                0x000000004015e647                SeIkeParseDeletePayload
                0x000000004015e755                SeIkeParseDataPayload
                0x000000004015e78f                SeIkeFreeDataPayload
                0x000000004015e7a2                SeIkeFreePayloadList
                0x000000004015e7de                SeIkeParsePayloadListEx
                0x000000004015e961                SeIkeParsePayloadList
                0x000000004015e974                SeIkeParseProposalPayload
                0x000000004015ea24                SeIkeParseSaPayload
                0x000000004015eaf1                SeIkeParsePayload
                0x000000004015ebf1                SeIkeFreeProposalPayload
                0x000000004015ec35                SeIkeFreeSaPayload
                0x000000004015ec61                SeIkeFreePayload
                0x000000004015ed08                SeIkeEncrypt
                0x000000004015edc3                SeIkeEncryptWithPadding
                0x000000004015ee73                SeIkeBuild
                0x000000004015efcc                SeIkeDecrypt
                0x000000004015f087                SeIkeFree
                0x000000004015f0c3                SeIkeParseEx
                0x000000004015f2ab                SeIkeParse
                0x000000004015f2bb                SeIkeParseHeader
                0x000000004015f2cb                SeIkeNew
                0x000000004015f350                VPN_IPsec_Client_Start
                0x000000004015f376                VPN_IPsec_Client_Stop
                0x000000004015f386                SeIntInit
                0x000000004015f3a9                SeIntFree
                0x000000004015f3c3                VPN_IPsec_Init
                0x000000004015f41f                VPN_IPsec_Free
                0x000000004015f451                SeSysMemoryAlloc
                0x000000004015f46d                SeSysMemoryReAlloc
                0x000000004015f496                SeSysMemoryFree
                0x000000004015f4ae                SeSysGetCurrentCpuId
                0x000000004015f4c6                SeSysNewLock
                0x000000004015f4de                SeSysLock
                0x000000004015f4f6                SeSysUnlock
                0x000000004015f50e                SeSysFreeLock
                0x000000004015f526                SeSysGetTickCount
                0x000000004015f53e                SeSysNewTimer
                0x000000004015f562                SeSysSetTimer
                0x000000004015f57a                SeSysFreeTimer
                0x000000004015f592                SeSysGetPhysicalNicInfo
                0x000000004015f5af                SeSysSendPhysicalNic
                0x000000004015f5d5                SeSysSetPhysicalNicRecvCallback
                0x000000004015f5f7                SeSysGetVirtualNicInfo
                0x000000004015f614                SeSysSendVirtualNic
                0x000000004015f63d                SeSysSetVirtualNicRecvCallback
                0x000000004015f662                SeSysSaveData
                0x000000004015f689                SeSysLoadData
                0x000000004015f6b0                SeSysFreeData
                0x000000004015f6cb                SeSysRsaSign
                0x000000004015f703                SeSysLog
                0x000000004015f731                SeRsaSign
                0x000000004015f7d0                Se4ParseIpPacketUDPv4
                0x000000004015f8cb                Se4FreeIpHeaderInfo
                0x000000004015f8ff                Se4IpChecksum
                0x000000004015f972                Se4IpCheckChecksum
                0x000000004015f9c1                Se4ParseIpPacketICMPv4
                0x000000004015faf0                Se4BuildIcmpEchoPacket
                0x000000004015fbac                Se4AdjustTcpMss
                0x000000004015fd51                Se4Tick
                0x000000004015fd69                Se4BroadcastMacAddress
                0x000000004015fd74                Se4SendEthPacket
                0x000000004015fe4b                Se4SendIpFragmentNow
                0x000000004015fe74                Se4InitArpEntryList
                0x000000004015fe84                Se4FreeArpEntryList
                0x000000004015fec0                Se4FlushArpEntryList
                0x000000004015ff6d                Se4SearchArpEntryList
                0x000000004015fff9                Se4AddArpEntryList
                0x00000000401600e6                Se4SearchArpWaitList
                0x000000004016012e                Se4InitArpWaitList
                0x000000004016013e                Se4FreeArpWaitList
                0x000000004016017a                Se4InsertIpWait
                0x00000000401601fc                Se4InitIpWaitList
                0x000000004016020c                Se4FreeIpWait
                0x0000000040160235                Se4FlushIpWaitList
                0x00000000401602f7                Se4FreeIpWaitList
                0x0000000040160333                Se4InitIpCombineList
                0x0000000040160343                Se4SearchIpCombineList
                0x00000000401603b9                Se4InitIpFragmentList
                0x00000000401603c9                Se4InsertIpCombine
                0x00000000401604c8                Se4FreeIpFragmentList
                0x0000000040160504                Se4FreeIpCombine
                0x000000004016053c                Se4FlushIpCombineList
                0x0000000040160625                Se4FreeIpCombineList
                0x0000000040160673                Se4Free
                0x00000000401606b7                Se4And
                0x00000000401606e6                Se4GetNetworkAddress
                0x00000000401606f1                Se4Or
                0x0000000040160720                Se4Not
                0x000000004016074a                Se4GetBroadcastAddress
                0x000000004016078f                Se4GetHostAddress
                0x00000000401607a9                Se4GenerateSubnetMask32
                0x00000000401607ca                Se4IPToStr
                0x000000004016080d                Se4ZeroIP
                0x0000000040160828                Se4StrToIP
                0x00000000401608c9                Se4IPToUINT
                0x00000000401608eb                Se4StrToIP32
                0x00000000401608fd                Se4IsZeroIP
                0x0000000040160910                Se4Init
                0x0000000040160a26                Se4Cmp
                0x0000000040160a5f                Se4CheckUnicastAddress
                0x0000000040160ab0                Se4IsInSameNetwork
                0x0000000040160aff                Se4CmpIpCombineList
                0x0000000040160b9d                Se4SendWaitingIpWait
                0x0000000040160c7e                Se4MacIpRelationKnown
                0x0000000040160d2a                Se4CmpArpWaitEntry
                0x0000000040160d61                Se4CmpArpEntry
                0x0000000040160d98                Se4ParseIpPacket
                0x0000000040160eee                Se4IsBroadcastAddress
                0x0000000040160f02                Se4SendArpResponse
                0x0000000040160fe9                Se4SendArpDoProcess
                0x00000000401610ef                Se4ProcessArpWaitList
                0x00000000401611a3                Se4MainProc
                0x00000000401611d4                Se4SendArpRequest
                0x0000000040161249                Se4UINTToIP
                0x000000004016126b                Se4IPToStr32
                0x000000004016128f                Se4GenerateSubnetMask
                0x00000000401612a1                Se4IsSubnetMask
                0x00000000401612de                Se4RecvArpResponse
                0x0000000040161323                Se4RecvArpRequest
                0x000000004016144d                Se4RecvArp
                0x000000004016150a                Se4SendRawIp
                0x000000004016166d                Se4SendIpFragment
                0x00000000401617a0                Se4SendIp
                0x0000000040161882                Se4SendUdp
                0x00000000401619b4                Se4SendIcmp
                0x0000000040161a6d                Se4SendIcmpEchoResponse
                0x0000000040161b02                Se4RecvIpComplete
                0x0000000040161bcf                Se4CombineIp
                0x0000000040161dcd                Se4SendIcmpEchoRequest
                0x0000000040161e62                Se4RecvIp
                0x00000000401620fc                Se4RecvEthPacket
                0x0000000040162190                Se6FreeIpHeaderInfo
                0x00000000401621c4                Se6IpChecksum
                0x0000000040162237                Se6CalcChecksum
                0x00000000401622f8                Se6ParseIpPacketICMPv6
                0x0000000040162536                Se6ParseIpPacketUDPv6
                0x0000000040162685                Se6BuildIcmpEchoPacket
                0x000000004016276e                Se6BroadcastMacAddress
                0x0000000040162779                Se6SendEthPacket
                0x0000000040162850                Se6SendIpFragmentNow
                0x0000000040162879                Se6InitNeighborEntryList
                0x0000000040162889                Se6FreeNeighborEntryList
                0x00000000401628c5                Se6FlushNeighborEntryList
                0x0000000040162972                Se6SearchNeighborEntryList
                0x00000000401629c9                Se6AddNeighborEntryList
                0x0000000040162ab3                Se6SearchNdpWaitList
                0x0000000040162b02                Se6InitNdpWaitList
                0x0000000040162b12                Se6FreeNdpWaitList
                0x0000000040162b4e                Se6InsertIpWait
                0x0000000040162bdd                Se6InitIpWaitList
                0x0000000040162bed                Se6FreeIpWait
                0x0000000040162c16                Se6FreeIpWaitList
                0x0000000040162c52                Se6InitIpCombineList
                0x0000000040162c62                Se6SearchIpCombineList
                0x0000000040162d06                Se6InitIpFragmentList
                0x0000000040162d16                Se6FreeIpFragmentList
                0x0000000040162d52                Se6FreeIpCombine
                0x0000000040162d8d                Se6FreeIpCombineList
                0x0000000040162ddb                Se6Free
                0x0000000040162e2b                Se6Tick
                0x0000000040162e43                Se6InsertIpCombine
                0x0000000040162f7a                Se6FlushIpCombineList
                0x0000000040163066                Se6FlushIpWaitList
                0x000000004016312e                Se6GenerateEui64Address
                0x000000004016318f                Se6GenerateMulticastMacAddress
                0x00000000401631c5                Se6GetAllNodeMulticastAddr
                0x00000000401631f1                Se6GetAllRouterMulticastAddr
                0x000000004016321d                Se6And
                0x000000004016325b                Se6GetPrefixAddress
                0x000000004016326a                Se6Or
                0x00000000401632a8                Se6Not
                0x00000000401632dc                Se6GetHostAddress
                0x0000000040163318                Se6GenerateSubnetMask
                0x000000004016337d                Se6GetSoliciationMulticastAddr
                0x000000004016342e                Se6LocalSubnet
                0x0000000040163442                Se6Cmp
                0x000000004016346e                Se6GetIPAddrType
                0x000000004016357c                Se6IsInSameNetwork
                0x0000000040163643                Se6SendRawIp
                0x00000000401637b5                Se6SendIpFragment
                0x00000000401637d1                Se6SendIp
                0x000000004016394e                Se6SendUdp
                0x0000000040163a7a                Se6SendIcmp
                0x0000000040163b76                Se6SendIcmpNeighborSoliciation
                0x0000000040163cec                Se6SendNeighborSoliciationDoProcess
                0x0000000040163da6                Se6SendNeighborSoliciation
                0x0000000040163e2e                Se6ProcessNdpWaitList
                0x0000000040163ee8                Se6SendIcmpNeighborAdvertisement
                0x000000004016402c                Se6SendIcmpEchoResponse
                0x00000000401640f1                Se6SendIcmpEchoRequest
                0x00000000401641b6                Se6IsSubnetMask
                0x0000000040164218                Se6SubnetMaskToInt
                0x0000000040164272                Se6SendIcmpRouterAdvertisement
                0x000000004016444a                Se6MainProc
                0x00000000401644a4                Se6CmpIpCombineList
                0x0000000040164535                Se6SendWaitingIpWait
                0x000000004016462c                Se6MacIpRelationKnown
                0x000000004016474e                Se6CmpNdpWaitEntry
                0x000000004016478f                Se6CmpNeighborEntry
                0x00000000401647d0                Se6ParseIpPacket
                0x0000000040164972                Se6IsZeroIP
                0x0000000040164992                Se6CheckUnicastAddress
                0x00000000401649c6                Se6IsNetworkPrefixAddress
                0x0000000040164a08                Se6IsGuestNode
                0x0000000040164aac                Se6AddGuestNode
                0x0000000040164b80                Se6RecvIpComplete
                0x0000000040164e37                Se6CombineIp
                0x000000004016504d                Se6RecvIp
                0x000000004016528a                Se6RecvEthPacket
                0x00000000401652fc                Se6IPToStr
                0x000000004016545a                Se6IPItemStrToChars
                0x000000004016553a                Se6CheckIPItemStr
                0x00000000401655a3                Se6ZeroIP
                0x00000000401655c3                Se6StrToIP
                0x000000004016578f                Se6GenerateEui64LocalAddress
                0x0000000040165802                Se6Init
                0x0000000040165961                Se6GenerateEui64GlobalAddress
                0x0000000040165a62                Se6CheckSubnetLength
                0x0000000040165a80                SeTimerEntryCompare
                0x0000000040165ac0                SeEthGetInfo
                0x0000000040165ae4                SeEthSendAdd
                0x0000000040165b17                SeEthParseEthernetPacket
                0x0000000040165c18                SeEthGenRandMacAddress
                0x0000000040165c6a                SeLoad
                0x0000000040165ccf                SeSave
                0x0000000040165ceb                SeTick
                0x0000000040165cfb                SeGetCurrentCpuId
                0x0000000040165d0b                SeNewLock
                0x0000000040165d46                SeEthNew
                0x0000000040165e5c                SeTimerNew
                0x0000000040165ed2                SeLock
                0x0000000040165f1c                SeUnlock
                0x0000000040165f43                SeTick64Internal
                0x0000000040165f99                SeTick64
                0x0000000040165fb8                SeInitKernel
                0x0000000040165ff2                SeEthGetNextRecvPacket
                0x000000004016603b                SeEthDeleteOldSenderMacList
                0x000000004016610f                SeEthIsSenderMacAddressExistsInList
                0x00000000401661b6                SeEthNicCallback
                0x00000000401662b7                SeEthAddSenderMacList
                0x00000000401663b1                SeEthSend
                0x0000000040166437                SeEthSendAll
                0x0000000040166508                SeTimerAdjust
                0x000000004016658e                SeTimerSet
                0x0000000040166614                SeTimerCallback
                0x0000000040166724                SeDeleteLock
                0x000000004016674c                SeEthFree
                0x00000000401667f5                SeTimerFree
                0x000000004016684f                SeFreeKernel
                0x0000000040166865                SeLogArgs
                0x00000000401668a3                SeWarning
                0x00000000401668e9                SeError
                0x000000004016692f                SeInfo
                0x0000000040166975                SeFatal
                0x00000000401669bb                SeDebug
                0x0000000040166a01                SeDebugBin
                0x0000000040166a6f                SeLog
                0x0000000040166ab0                SeB64CodeToChar
                0x0000000040166af6                SeB64CharToCode
                0x0000000040166b3d                SeIsZero
                0x0000000040166b86                SeReplaceListPointer
                0x0000000040166be2                SeIsInListStr
                0x0000000040166c53                SeIsInList
                0x0000000040166c9e                SeCompareStr
                0x0000000040166cc0                SeSetSortFlag
                0x0000000040166cce                SeSetCmp
                0x0000000040166cef                SeFastSwap
                0x0000000040166d23                SeQSort
                0x000000004016703b                SeSort
                0x0000000040167073                SeBSearch
                0x0000000040167142                SeSearch
                0x00000000401671aa                SeFifoSize
                0x00000000401671bd                SeDumpBuf
                0x00000000401671e5                SeSeekBuf
                0x000000004016721b                SeClearBuf
                0x0000000040167234                SeSwap16
                0x000000004016724f                SeSwap32
                0x0000000040167279                SeSwap64
                0x00000000401672d0                SeMalloc
                0x0000000040167312                SeNewBuf
                0x0000000040167354                SeNewFifo
                0x0000000040167396                SeReAlloc
                0x0000000040167407                SeAdjustBufSize
                0x000000004016743c                SeClearFifo
                0x0000000040167479                SeAdd
                0x00000000401674e3                SeInsert
                0x0000000040167611                SeInsertStr
                0x0000000040167664                SeDelete
                0x000000004016771f                SeDeleteAll
                0x0000000040167756                SePop
                0x00000000401677bd                SePush
                0x0000000040167820                SeMemSize
                0x0000000040167852                SeFree
                0x0000000040167881                SeFreeBuf
                0x00000000401678a9                SeFreeBufWithoutBuffer
                0x00000000401678b9                SeFreeFifo
                0x00000000401678e1                SeFreeList
                0x000000004016790a                SeFreeQueue
                0x0000000040167933                SeFreeStack
                0x000000004016795c                SeIsLittleEndian
                0x000000004016796f                SeEndian16
                0x0000000040167993                SeEndian32
                0x00000000401679b6                SeEndian64
                0x00000000401679dd                SeIsBigEndian
                0x00000000401679f5                SeCmp
                0x0000000040167a64                SeCmpEx
                0x0000000040167a99                SeCmpBuf
                0x0000000040167ada                SeCopy
                0x0000000040167b02                SeClone
                0x0000000040167b4f                SeSwap
                0x0000000040167ba9                SeWriteBuf
                0x0000000040167c20                SeMemToBuf
                0x0000000040167c86                SeRandBuf
                0x0000000040167ccc                SeCloneBuf
                0x0000000040167ce7                SeWriteBufLine
                0x0000000040167d3f                SeWriteBufBuf
                0x0000000040167d5a                SeWriteBufInt
                0x0000000040167d9a                SeWriteBufInt64
                0x0000000040167ddd                SeWriteBufStr
                0x0000000040167e4b                SeAddBufStr
                0x0000000040167e8a                SeReadDump
                0x0000000040167eef                SePeekFifo
                0x0000000040167f2d                SePeekNext
                0x0000000040167f6b                SeReadFifo
                0x0000000040168058                SeGetNext
                0x00000000401680a2                SeGetNextInt
                0x00000000401680d8                SeWriteFifo
                0x000000004016816c                SeInsertQueue
                0x00000000401681a2                SeInsertQueueInt
                0x00000000401681d6                SeCopyToArray
                0x00000000401681fa                SeToArray
                0x000000004016823f                SeZero
                0x0000000040168261                SeZeroMalloc
                0x0000000040168299                SeNewList
                0x00000000401682ec                SeCloneList
                0x000000004016833a                SeNewQueue
                0x000000004016836e                SeNewStack
                0x00000000401683a9                SeB64Decode
                0x0000000040168578                SeB64Encode
                0x0000000040168731                SeReadBuf
                0x00000000401687cb                SeReadBufFromBuf
                0x0000000040168867                SeReadRemainBuf
                0x000000004016888f                SeReadBufInt
                0x00000000401688c4                SeReadBufInt64
                0x00000000401688fc                SeReadBufStr
                0x00000000401689b0                SeBuildICMPv6OptionValue
                0x0000000040168a3f                SeBuildICMPv6Options
                0x0000000040168aea                SeParseICMPv6Options
                0x0000000040168bc3                SeFreePacketList
                0x0000000040168bff                SeFreePacketListWithoutBuffer
                0x0000000040168c3b                SeGetNextHeaderFromQueue
                0x0000000040168c67                SeBuildAndAddIPv6PacketOptionHeader
                0x0000000040168d04                SeBuildIPv6Packet
                0x0000000040168ee9                SeBuildIPv6PacketWithFragment
                0x00000000401690a5                SeParseIPv6ExtHeader
                0x0000000040169192                SeParseIPv6Packet
                0x000000004016920d                SeParsePacketL3IPv6
                0x000000004016924e                SeParsePacketL3IPv4
                0x0000000040169307                SeParsePacketL3ARPv4
                0x0000000040169331                SeParsePacketL2
                0x00000000401693d3                SeFreePacket
                0x00000000401693e3                SeParsePacket
                0x0000000040169480                SeSecCmpIkeSa
                0x0000000040169558                SeSecCalcP2Iv
                0x000000004016960c                SeSecCalcP1Iv
                0x00000000401696b9                SeSecCalcKEYMATFull
                0x00000000401697c3                SeSecCalcKEYMAT
                0x000000004016988a                SeSecCalcKa
                0x000000004016995f                SeSecCalcP1KeySet
                0x0000000040169b76                SeSecForceReconnect
                0x0000000040169baf                SeSecLifeSeconds64bit
                0x0000000040169bcf                SeSecGetIPsecSa
                0x0000000040169c1b                SeSecNewIkeSa
                0x0000000040169ccc                SeSecFreeP1KeySet
                0x0000000040169d1a                SeSecGenIkeSaMessageId
                0x0000000040169d89                SeSecGenIkeSaInitCookie
                0x0000000040169df8                SeSecInitSaList
                0x0000000040169e32                SeSecSearchIPsecSaBySpi
                0x0000000040169ec1                SeSecSearchIkeSaBySpi
                0x0000000040169f8c                SeSecSearchIkeSa
                0x000000004016a058                SeSecNewSpi
                0x000000004016a06f                SeSecGenIPsecSASpi
                0x000000004016a0de                SeSecStrToAuthMethod
                0x000000004016a149                SeSecTick
                0x000000004016a163                SeSecCheckIPsecSaExpires
                0x000000004016a226                SeSecCheckIkeSaExpires
                0x000000004016a2e5                SeSecSetTimerCallback
                0x000000004016a305                SeSecAddTimer
                0x000000004016a325                SeSecDoInterval
                0x000000004016a396                SeSecNewIPsecSa
                0x000000004016a503                SeSecSetRecvUdpCallback
                0x000000004016a523                SeSecSetRecvEspCallback
                0x000000004016a543                SeSecSetRecvVirtualIpCallback
                0x000000004016a563                SeSecSendUdp
                0x000000004016a5ac                SeSecProcessIkeSaMsgPhase1
                0x000000004016aeb5                SeSecSendIkeSaMsgPhase2
                0x000000004016b3d7                SeSecSendIkeSaMsgPhase2FinalHash
                0x000000004016b577                SeSecProcessIkeSaMsgPhase2
                0x000000004016b9d6                SeSecSendIkeSaMsgInfo
                0x000000004016bc3e                SeSecSendIkeSaMsgInfoSimple
                0x000000004016bca6                SeSecSendIPsecSaDeleteMsg
                0x000000004016bd2a                SeSecFreeIPsecSa
                0x000000004016bdaa                SeSecDeleteExpiredIPsecSa
                0x000000004016be50                SeSecProcessIkeSaMsgInfo
                0x000000004016c175                SeSecProcessIkeSaMsg
                0x000000004016c1c9                SeSecUdpRecvCallback
                0x000000004016c435                SeSecSendIkeSaDeleteMsg
                0x000000004016c4d2                SeSecFreeIkeSa
                0x000000004016c68b                SeSecFreeSaList
                0x000000004016c704                SeSecFreeMain
                0x000000004016c714                SeSecFree
                0x000000004016c743                SeSecDeleteExpiredIkeSa
                0x000000004016c8a6                SeSecStartVpnConnect
                0x000000004016ceda                SeSecProcessMain
                0x000000004016cfcc                SeSecTimerCallback
                0x000000004016cfdf                SeSecInitMain
                0x000000004016d004                SeSecInit
                0x000000004016d138                SeSecSendEsp
                0x000000004016d171                SeSecVirtualIpRecvCallback
                0x000000004016d37a                SeSecSendVirtualIp
                0x000000004016d3a2                SeSecEspRecvCallback
                0x000000004016d550                SeMakeCharArray
                0x000000004016d584                SeFreeToken
                0x000000004016d5d2                SeNullTokenList
                0x000000004016d606                SeDefaultTokenSplitChars
                0x000000004016d611                Se4BitToHex
                0x000000004016d626                SeHexTo4Bit
                0x000000004016d662                SeStrCmp
                0x000000004016d6f6                SeStrnCmp
                0x000000004016d7c3                SeToUpper
                0x000000004016d7d7                SeStrnCmpi
                0x000000004016d8a2                SeStrCmpi
                0x000000004016d952                SeToLower
                0x000000004016d966                SeStrCheckLen
                0x000000004016d9a2                SeStrCheckSize
                0x000000004016d9c0                SeStrLen
                0x000000004016d9e7                SeStrSize
                0x000000004016d9ff                SeStrCpy
                0x000000004016daca                SeStrCat
                0x000000004016db6c                SeStrUpper
                0x000000004016dbac                SeStrLower
                0x000000004016dbec                SeToInt64
                0x000000004016dc42                SeToInt
                0x000000004016dc90                SeToStr64
                0x000000004016dd57                SeToStr
                0x000000004016de11                SeToHex
                0x000000004016dec5                SeToHex64
                0x000000004016df79                SeHexToInt
                0x000000004016e001                SeHexToInt64
                0x000000004016e08b                SeTrimLeft
                0x000000004016e138                SeTrimRight
                0x000000004016e24a                SeTrim
                0x000000004016e26f                SeCopyStr
                0x000000004016e2c4                SeTrimCopy
                0x000000004016e2f1                SeUniqueToken
                0x000000004016e44b                SeSearchStrEx
                0x000000004016e59f                SeSearchStri
                0x000000004016e5af                SeSearchStr
                0x000000004016e5bf                SeCalcReplaceStrEx
                0x000000004016e67a                SeReplaceStrEx
                0x000000004016e7cf                SeReplaceStr
                0x000000004016e7e0                SeReplaceStri
                0x000000004016e7f1                SeTrimCrlf
                0x000000004016e838                SeStartWith
                0x000000004016e8de                SeEndWith
                0x000000004016e947                SeIsEmptyStr
                0x000000004016e991                SeNormalizeCrlf
                0x000000004016ea24                SeIsCharInStr
                0x000000004016ea7c                SeParseToken
                0x000000004016ec17                SeParseTokenWithNullStr
                0x000000004016ed74                SeToStr3
                0x000000004016eec2                SeIsAllUpperStr
                0x000000004016ef34                SeIsAllLowerStr
                0x000000004016efa6                SeFormatEx
                0x000000004016f4b9                SeFormatArgs
                0x000000004016f519                SeFormat
                0x000000004016f54f                SeBinToStr
                0x000000004016f5f6                SeBinToStrEx
                0x000000004016f69f                SeMacToStr
                0x000000004016f6f0                SeStrToBin
                0x000000004016f7df                SeStrToBinEx
                0x000000004016f852                SeStrToMac
                0x000000004016f865                SeReadNextLine
                0x000000004016f930                SeVpnRecvIpV6PacketCallback
                0x000000004016f980                SeVpnRecvIpV4PacketCallback
                0x000000004016f9d0                SeVpnInitIpStack
                0x000000004016fd32                SeVpnFreeIpStack
                0x000000004016fdd2                SeVpnMainInit
                0x000000004016feeb                SeVpnMainFree
                0x000000004016ff0f                SeVpnRecvEtherPacket
                0x000000004016ff76                SeVpnSendEtherPacket
                0x000000004016ff9b                SeVpnMainProcRecvEtherPacket
                0x000000004017004a                SeVpnStatusChanged
                0x000000004017005c                SeVpnMainProcess
                0x000000004017015a                SeVpnMainHandler
                0x00000000401701a7                SeVpnEthRecvCallback
                0x00000000401701bf                SeVpnTimerCallback
                0x00000000401701d7                SeVpnTick
                0x00000000401701eb                SeVpnAddTimer
                0x00000000401701ff                SeVpnDoInterval
                0x000000004017026f                SeVpnFreeConfig
                0x000000004017027f                SeVpnFree
                0x00000000401702d0                SeVpnLoadConfig
                0x000000004017162e                SeVpnInit
                0x0000000040171750                SeVpn4ClientSetTimerCallback
                0x0000000040171763                SeVpn4ClientSetRecvUdpCallback
                0x0000000040171776                SeVpn4ClientSetRecvEspCallback
                0x0000000040171789                SeVpn4ClientSetRecvVirtualIpCallback
                0x000000004017179c                SeVpn4ClientSendVirtualIp
                0x00000000401717db                SeVpn4ClientSendEsp
                0x000000004017185b                SeVpn4ClientSendUdp
                0x00000000401718e6                SeVpn4IPsecSendPing
                0x0000000040171a2e                SeVpn4IPsecInputFromPhysical
                0x0000000040171af9                SeVpn4IPsecInputFromVirtual
                0x0000000040171b6d                SeVpn4FreeIPsec
                0x0000000040171b81                SeVpn4InitSecConfig
                0x0000000040171d62                SeVpn4InitIPsec
                0x0000000040171e33                SeVpn4DoInterval
                0x0000000040171e4b                SeVpn4Tick
                0x0000000040171e63                SeVpn4ClientGetTick
                0x0000000040171e78                SeVpn4IPsecMainProc
                0x0000000040171f00                SeVpn4MainProc
                0x0000000040171f1b                SeVpn4SetTimer
                0x0000000040171f2e                SeVpn4ClientAddTimer
                0x0000000040171f46                SeVpn4DhcpSendResponse
                0x000000004017205b                SeVpn4DhcpOptionsToBuf
                0x0000000040172119                SeVpn4NewDhcpOption
                0x0000000040172180                SeVpn4DhcpBuildDhcpOptionList
                0x000000004017235e                SeVpn4DhcpSearchOption
                0x000000004017239a                SeVpn4DhcpFreeOptionList
                0x00000000401723f0                SeVpn4DhcpParseOptionListMain
                0x00000000401724de                SeVpn4DhcpParseOptionList
                0x00000000401725d1                SeVpn4DhcpServer
                0x000000004017289c                SeVpn4RecvPacketPhysical
                0x0000000040172971                SeVpn4RecvPacketVirtual
                0x0000000040172ad3                SeVpn4Init
                0x0000000040172b38                SeVpn4Free
                0x0000000040172b70                SeVpn6ClientSetTimerCallback
                0x0000000040172b83                SeVpn6ClientSetRecvUdpCallback
                0x0000000040172b96                SeVpn6ClientSetRecvEspCallback
                0x0000000040172ba9                SeVpn6ClientSetRecvVirtualIpCallback
                0x0000000040172bbc                SeVpn6ClientSendVirtualIp
                0x0000000040172bfb                SeVpn6ClientSendEsp
                0x0000000040172c9b                SeVpn6ClientSendUdp
                0x0000000040172d50                SeVpn6IPsecSendPing
                0x0000000040172f36                SeVpn6UpdateGuestOsIpAddress
                0x000000004017300a                SeVpn6IPsecInputFromPhysical
                0x00000000401730d5                SeVpn6IPsecInputFromVirtual
                0x0000000040173109                SeVpn6InitSecConfig
                0x00000000401732fb                SeVpn6InitIPsec
                0x00000000401733dc                SeVpn6FreeIPsec
                0x00000000401733f0                SeVpn6DoInterval
                0x0000000040173408                SeVpn6Tick
                0x0000000040173420                SeVpn6ClientGetTick
                0x0000000040173435                SeVpn6IPsecMainProc
                0x00000000401734c5                SeVpn6MainProc
                0x00000000401734e0                SeVpn6SetTimer
                0x00000000401734f3                SeVpn6ClientAddTimer
                0x000000004017350b                SeVpn6RecvPacketPhysical
                0x000000004017358d                SeVpn6RecvPacketVirtual
                0x00000000401736c4                SeVpn6Init
                0x000000004017373a                SeVpn6Free
                0x0000000040173770                crypt_sys_rsa_sign
                0x0000000040173b05                msg_usb_bulk_read
                0x0000000040173b65                msg_usb_bulk_write
                0x0000000040173bc5                msg_usb_claim_interface
                0x0000000040173c0b                msg_usb_close
                0x0000000040173c65                msg_usb_control_msg
                0x0000000040173cda                msg_usb_find_busses
                0x0000000040173d18                msg_usb_find_devices
                0x0000000040173d56                msg_usb_get_busses
                0x0000000040173dbd                msg_usb_get_string_simple
                0x0000000040173e19                msg_usb_init
                0x0000000040173e2e                msg_usb_open
                0x0000000040173ea7                msg_usb_release_interface
                0x0000000040173eed                msg_usb_reset
                0x0000000040173f30                IDMan_StReadSetData
                0x0000000040174615                idman_user_init
                0x0000000040174670                IDMan_IPIdPassListMalloc
                0x000000004017475b                IDMan_IPRetJudgment
                0x00000000401747d7                IDMan_IPFinalizeReader
                0x00000000401747f9                IDMan_IPFinalize
                0x000000004017484f                IDMan_IPInitialize
                0x0000000040174958                IDMan_IPInitializeReader
                0x0000000040174985                IDMan_getMemoryFree
                0x00000000401749cd                IDMan_PaddingParamChk
                0x0000000040174a92                IDMan_CmPadding
                0x0000000040174c4e                IDMan_CmPadding2
                0x0000000040174dca                IDMan_IPgetCertPKCS
                0x00000000401754c2                IDMan_IPgetCertIdxPKCS
                0x0000000040175995                IDMan_IPCheckPKC
                0x0000000040175bbe                IDMan_CheckCardStatus
                0x0000000040175bf0                IDMan_IPgSParamChk
                0x0000000040175d20                IDMan_IPgIdxSParamChk
                0x0000000040175d58                IDMan_IPgetPrivateKey
                0x0000000040175f4b                IDMan_IPgetHash
                0x0000000040176042                IDMan_IPCrSignature
                0x00000000401761aa                IDMan_generateSignature
                0x00000000401762e4                IDMan_generateSignatureByIndex
                0x000000004017640b                IDMan_EncryptByIndex
                0x0000000040176534                IDMan_IPgCParamChk
                0x0000000040176626                IDMan_getCertificate
                0x0000000040176948                IDMan_IPgCIndexParamChk
                0x0000000040176981                IDMan_getCertificateByIndex
                0x0000000040176d18                IDMan_getStaticPassword
                0x0000000040177030                IDMan_IPuAPKCS11ParamChk
                0x0000000040177131                IDMan_IPuAPKCS11IdxParamChk
                0x0000000040177158                IDMan_IPgetCertPkeyPKCSx
                0x000000004017761b                IDMan_IPgetCertPkeyIdxPKCSx
                0x0000000040177a44                IDMan_IPgetCertPkeyPKCSy
                0x0000000040177b92                IDMan_IPCheckCrlPkcX
                0x0000000040177ccf                IDMan_IPgetMakeRandData
                0x0000000040177d47                IDMan_IPMkRandHash
                0x0000000040177e04                IDMan_IPgetPrivateKeyPKCSx
                0x0000000040177fd7                IDMan_IPSignatureVerify
                0x0000000040178150                IDMan_userAuthPKCS11
                0x00000000401785d5                IDMan_userAuthPKCS11ByIndex
                0x0000000040178a60                IDMan_IPvSParamChk
                0x0000000040178bde                IDMan_IPvSIdxParamChk
                0x0000000040178c41                IDMan_IPMkPublicKeyObj
                0x0000000040178d85                IDMan_IPCheckSignature
                0x0000000040178f3f                IDMan_verifySignature
                0x000000004017911c                IDMan_verifySignatureByIndex
                0x00000000401792e0                CardEstablishContext
                0x00000000401792f8                CardReleaseContext
                0x0000000040179329                CardListReaders
                0x0000000040179341                CardConnect
                0x000000004017937f                CardDisconnect
                0x000000004017939c                CardStatus
                0x00000000401793ed                CardTransmit
                0x0000000040179429                SelectFileDF
                0x000000004017951c                SelectFileEF
                0x0000000040179607                Verify
                0x000000004017971b                InternalAuth
                0x000000004017985f                ReadBinary
                0x0000000040179e4f                UpdateBinary
                0x0000000040179f79                GetICCardData
                0x000000004017a360                GetUlByTxt
                0x000000004017a39f                GetVerByTex
                0x000000004017a487                GetUlByByte
                0x000000004017a4cc                TransHex2Tex
                0x000000004017a55f                TransTex2Hex
                0x000000004017a616                GetLength
                0x000000004017a683                SetLength
                0x000000004017a6e8                GetTlvByBuf
                0x000000004017aa65                GetDirDataByTlv
                0x000000004017ab8a                GetOdfDataByTlv
                0x000000004017acfd                GetTokenDataByTlv
                0x000000004017b163                AddObjTblByTlv
                0x000000004017b807                AddCertDataByBuf
                0x000000004017b90d                AddIdPassDataByBuf
                0x000000004017bcad                GetValueData
                0x000000004017c050                AddElem
                0x000000004017c0ee                SetElem
                0x000000004017c1b5                GetElem
                0x000000004017c1f1                GetAttrValType
                0x000000004017c365                DestroyAttribute
                0x000000004017c3af                DestroyTlvData
                0x000000004017c3c4                DestroyElem
                0x000000004017c44a                DestroyList
                0x000000004017c487                DestroySessionData
                0x000000004017c4c5                DestroyTokenData
                0x000000004017c525                DestroySlotData
                0x000000004017c561                DelElem
                0x000000004017c5d0                C_GetFunctionList
                0x000000004017c5e2                C_Initialize
                0x000000004017c74f                C_Finalize
                0x000000004017c7ea                C_GetInfo
                0x000000004017c870                C_GetSlotList
                0x000000004017d154                C_GetSlotInfo
                0x000000004017d23c                C_GetTokenInfo
                0x000000004017da73                C_GetMechanismList
                0x000000004017db44                C_GetMechanismInfo
                0x000000004017dc00                C_OpenSession
                0x000000004017ddbb                C_CloseSession
                0x000000004017de94                C_CloseAllSessions
                0x000000004017dfa0                C_GetSessionInfo
                0x000000004017e01c                C_Login
                0x000000004017e473                C_Logout
                0x000000004017e58a                C_FindObjectsInit
                0x000000004017e801                C_FindObjects
                0x000000004017ed5a                C_FindObjectsFinal
                0x000000004017edd0                C_GetAttributeValue
                0x000000004017f0f1                C_SignInit
                0x000000004017f1b8                C_Sign
                0x000000004017f53f                C_DigestInit
                0x000000004017f5ba                C_DigestUpdate
                0x000000004017f642                C_DigestFinal
                0x000000004017f789                C_VerifyInit
                0x000000004017f850                C_Verify
                0x000000004017f9c2                C_CreateObject
                0x000000004017fc6f                C_DestroyObject
                0x000000004017fd2f                C_SetAttributeValue
                0x0000000040180939                C_GetCardStatus
                0x00000000401809d0                IDMan_StFree
                0x00000000401809e0                IDMan_StMemcpy
                0x0000000040180a04                IDMan_StMemset
                0x0000000040180a22                IDMan_StMalloc
                0x0000000040180a69                IDMan_StMemcmp
                0x0000000040180ac2                IDMan_StStrlen
                0x0000000040180adc                IDMan_StStrcat
                0x0000000040180b19                IDMan_StStrchr
                0x0000000040180b56                IDMan_StStrcpy
                0x0000000040180b7d                IDMan_StStrcmp
                0x0000000040180bc8                StIsspace
                0x0000000040180c45                StIsdigit
                0x0000000040180c57                IDMan_StAtoi
                0x0000000040180cb3                IDMan_StAtol
                0x0000000040180d1b                IDMan_CmMkHash
                0x0000000040180ed6                IDMan_CmChgRSA
                0x000000004018109f                IDMan_CmGetDN
                0x0000000040181346                IDMan_CmGetCertificateSign
                0x0000000040181570                IDMan_CmGetPublicKey
                0x000000004018174c                IDMan_CmMakeRand
                0x00000000401817ea                IDMan_CmCheckCRL
                0x0000000040181b70                IDMan_SCardEstablishContext
                0x0000000040181b8d                IDMan_SCardReleaseContext
                0x0000000040181b98                IDMan_SCardListReaders
                0x0000000040181bc8                IDMan_SCardConnect
                0x0000000040181bf8                IDMan_SCardDisconnect
                0x0000000040181c03                IDMan_SCardStatus
                0x0000000040181c85                IDMan_SCardSizeLongToChar
                0x0000000040181cc6                IDMan_SCardSetBinay
                0x0000000040182065                IDMan_SCardTransmit
                0x00000000401820d0                EHDestroyEventHandler
                0x000000004018213d                EHInitEventHandler
                0x00000000401821f3                EHStatusHandler
                0x0000000040182390                HPSearchHotPluggables
                0x00000000401826e0                PHGetProtocol
                0x0000000040182abb                PHSetProtocol
                0x0000000040182b24                RFAddReader
                0x0000000040182c3f                RFRemoveReader
                0x0000000040182cf9                RFReaderInfoById
                0x0000000040182d29                RFCheckReaderEventState
                0x0000000040182d60                SCardEstablishContext
                0x0000000040182e50                SCardListReaders
                0x0000000040182efd                SCardConnect
                0x0000000040183181                SCardDisconnect
                0x0000000040183332                SCardBeginTransaction
                0x0000000040183386                SCardEndTransaction
                0x000000004018354e                SCardStatus
                0x0000000040183759                SCardReleaseContext
                0x000000004018381f                SCardTransmit
                0x0000000040183a70                SetATR
                0x0000000040183cdd                GetIFSCData
                0x0000000040183d33                GetBWICWIData
                0x0000000040183dd1                IFDHCloseChannel
                0x0000000040183e5d                IFDHGetCapabilities
                0x0000000040183e9c                IFDHSetProtocolParameters
                0x000000004018459b                IFDHPowerICC
                0x000000004018479a                IFDHTransmitToICC
                0x0000000040184a5a                IFDHControl
                0x0000000040184b73                IFDHICCPresence
                0x0000000040184c28                IFDHCreateChannel
                0x0000000040184cdc                FindBaudRateTable
                0x0000000040184d1c                ExchangePPSData
                0x0000000040185406                InitLeaderCardProtocol
                0x000000004018551f                T1XfrBlockTPDU
                0x0000000040185b8c                T1NegociateIFSD
                0x0000000040185cd4                CardStateConfirm
                0x0000000040185d09                GetCardStatus
                0x0000000040185e00                PowerOn
                0x0000000040185fc0                PowerOff
                0x0000000040186128                CardMechanical
                0x0000000040186240                TransmitPPS
                0x00000000401863da                TransmitCommand
                0x00000000401864a7                ReceiveReply
                0x000000004018666c                BlockSendCardT1
                0x00000000401868c4                ReadDataT0
                0x0000000040186989                T0XfrBlockCHAR
                0x0000000040186f0f                T0XfrBlockTPDU
                0x0000000040186f91                T1XfrBlockExtendedAPDU
                0x000000004018730b                OpenUSB
                0x00000000401876a5                WriteUSB
                0x00000000401876d6                ReadUSB
                0x0000000040187734                CloseUSB
                0x00000000401877a4                AES_set_encrypt_key
                0x0000000040187bb0                AES_set_decrypt_key
                0x0000000040187dd6                AES_encrypt
                0x000000004018828f                AES_decrypt
                0x0000000040188730                BIO_set
                0x0000000040188805                BIO_new
                0x000000004018887e                BIO_free
                0x000000004018892d                BIO_vfree
                0x0000000040188938                BIO_clear_flags
                0x0000000040188943                BIO_test_flags
                0x000000004018894e                BIO_set_flags
                0x0000000040188957                BIO_get_callback
                0x0000000040188961                BIO_set_callback
                0x000000004018896b                BIO_set_callback_arg
                0x0000000040188975                BIO_get_callback_arg
                0x000000004018897f                BIO_method_name
                0x000000004018898c                BIO_method_type
                0x0000000040188997                BIO_read
                0x0000000040188a92                BIO_write
                0x0000000040188b96                BIO_puts
                0x0000000040188c88                BIO_gets
                0x0000000040188d78                BIO_indent
                0x0000000040188dbd                BIO_ctrl
                0x0000000040188e93                BIO_ptr_ctrl
                0x0000000040188ebe                BIO_int_ctrl
                0x0000000040188ed4                BIO_callback_ctrl
                0x0000000040188fa0                BIO_ctrl_pending
                0x0000000040188fba                BIO_ctrl_wpending
                0x0000000040188fd4                BIO_push
                0x0000000040189022                BIO_pop
                0x0000000040189087                BIO_get_retry_BIO
                0x00000000401890d6                BIO_get_retry_reason
                0x00000000401890df                BIO_find_type
                0x0000000040189114                BIO_next
                0x000000004018912a                BIO_free_all
                0x0000000040189158                BIO_dup_chain
                0x0000000040189247                BIO_copy_next_retry
                0x0000000040189274                BIO_get_ex_new_index
                0x0000000040189293                BIO_set_ex_data
                0x00000000401892a2                BIO_get_ex_data
                0x00000000401892b1                BIO_number_read
                0x00000000401892c5                BIO_number_written
                0x000000004018942f                BN_set_params
                0x00000000401894c2                BN_get_params
                0x00000000401894f7                BN_value_one
                0x0000000040189502                BN_options
                0x0000000040189544                BN_num_bits_word
                0x000000004018959f                BN_num_bits
                0x00000000401895c9                BN_clear_free
                0x0000000040189630                BN_free
                0x0000000040189679                BN_init
                0x000000004018968e                BN_new
                0x0000000040189701                bn_expand2
                0x0000000040189759                BN_copy
                0x0000000040189847                BN_dup
                0x000000004018989b                bn_dup_expand
                0x000000004018991d                BN_swap
                0x0000000040189980                BN_clear
                0x00000000401899b9                BN_get_word
                0x00000000401899db                BN_set_word
                0x0000000040189a3e                BN_bin2bn
                0x0000000040189b81                BN_bn2bin
                0x0000000040189bef                BN_ucmp
                0x0000000040189c3c                BN_cmp
                0x0000000040189cf0                BN_set_bit
                0x0000000040189db5                BN_clear_bit
                0x0000000040189e33                BN_is_bit_set
                0x0000000040189e70                BN_mask_bits
                0x0000000040189f0c                BN_set_negative
                0x0000000040189f2c                bn_cmp_words
                0x0000000040189f8e                bn_cmp_part_words
                0x000000004018a020                BN_bn2hex
                0x000000004018a106                BN_bn2dec
                0x000000004018a315                BN_hex2bn
                0x000000004018a4f2                BN_dec2bn
                0x000000004018a6a3                BN_asc2bn
                0x000000004018a713                BN_print
                0x000000004018abf7                BN_pseudo_rand
                0x000000004018ac11                BN_rand
                0x000000004018ac2b                BN_bntest_rand
                0x000000004018ac45                BN_rand_range
                0x000000004018ac5b                BN_pseudo_rand_range
                0x000000004018ac80                BN_mod_word
                0x000000004018acd5                BN_div_word
                0x000000004018adbb                BN_sub_word
                0x000000004018aeba                BN_add_word
                0x000000004018af8d                BN_mul_word
                0x000000004018b474                BIO_s_mem
                0x000000004018b47f                BIO_new_mem_buf
                0x000000004018b4f8                BUF_MEM_new
                0x000000004018b55f                BUF_MEM_free
                0x000000004018b59f                BUF_MEM_grow
                0x000000004018b699                BUF_MEM_grow_clean
                0x000000004018b7af                BUF_memdup
                0x000000004018b824                BUF_strlcpy
                0x000000004018b888                BUF_strndup
                0x000000004018b907                BUF_strdup
                0x000000004018b933                BUF_strlcat
                0x000000004018b96d                BUF_reverse
                0x000000004018b9c4                OpenSSL_add_all_ciphers
                0x000000004018be70                OpenSSL_add_all_digests
                0x000000004018bfe0                CRYPTO_get_new_lockid
                0x000000004018c098                CRYPTO_num_locks
                0x000000004018c0a3                CRYPTO_get_dynlock_create_callback
                0x000000004018c0b0                CRYPTO_get_dynlock_lock_callback
                0x000000004018c0bd                CRYPTO_get_dynlock_destroy_callback
                0x000000004018c0ca                CRYPTO_set_dynlock_create_callback
                0x000000004018c0d7                CRYPTO_set_dynlock_lock_callback
                0x000000004018c0e4                CRYPTO_set_dynlock_destroy_callback
                0x000000004018c0f1                CRYPTO_get_locking_callback
                0x000000004018c0fe                CRYPTO_get_add_lock_callback
                0x000000004018c10b                CRYPTO_set_locking_callback
                0x000000004018c118                CRYPTO_set_add_lock_callback
                0x000000004018c125                CRYPTO_THREADID_set_numeric
                0x000000004018c158                CRYPTO_THREADID_set_pointer
                0x000000004018c18e                CRYPTO_THREADID_set_callback
                0x000000004018c1ac                CRYPTO_THREADID_get_callback
                0x000000004018c1b9                CRYPTO_THREADID_current
                0x000000004018c203                CRYPTO_THREADID_cmp
                0x000000004018c213                CRYPTO_THREADID_cpy
                0x000000004018c223                CRYPTO_THREADID_hash
                0x000000004018c22d                CRYPTO_get_id_callback
                0x000000004018c23a                CRYPTO_set_id_callback
                0x000000004018c247                CRYPTO_thread_id
                0x000000004018c260                CRYPTO_get_lock_name
                0x000000004018c2b3                OPENSSL_ia32cap_loc
                0x000000004018c2be                OPENSSL_cpuid_setup
                0x000000004018c2c4                OPENSSL_showfatal
                0x000000004018c30f                OPENSSL_isservice
                0x000000004018c31a                OpenSSLDie
                0x000000004018c33c                CRYPTO_lock
                0x000000004018c3d3                CRYPTO_add_lock
                0x000000004018c457                CRYPTO_get_dynlock_value
                0x000000004018c4f6                CRYPTO_destroy_dynlockid
                0x000000004018c5ee                CRYPTO_get_new_dynlockid
                0x000000004018c80a                OPENSSL_stderr
                0x000000004018c818                DES_encrypt1
                0x000000004018cc26                DES_encrypt2
                0x000000004018cf31                DES_encrypt3
                0x000000004018d08e                DES_decrypt3
                0x000000004018d1ee                DES_ncbc_encrypt
                0x000000004018d82b                DES_ede3_cbc_encrypt
                0x000000004018e286                DH_generate_key
                0x000000004018e296                DH_compute_key
                0x000000004018e2a6                DH_OpenSSL
                0x000000004018e2b4                DH_set_default_method
                0x000000004018e2c1                DH_get_default_method
                0x000000004018e2e4                DH_set_method
                0x000000004018e331                DH_new_method
                0x000000004018e447                DH_new
                0x000000004018e457                DH_free
                0x000000004018e537                DH_up_ref
                0x000000004018e564                DH_get_ex_new_index
                0x000000004018e583                DH_set_ex_data
                0x000000004018e592                DH_get_ex_data
                0x000000004018e5a1                DH_size
                0x000000004018f2aa                EVP_aes_128_cbc
                0x000000004018f2b5                EVP_aes_128_cfb128
                0x000000004018f2c0                EVP_aes_128_ofb
                0x000000004018f2cb                EVP_aes_128_ecb
                0x000000004018f2d6                EVP_aes_192_cbc
                0x000000004018f2e1                EVP_aes_192_cfb128
                0x000000004018f2ec                EVP_aes_192_ofb
                0x000000004018f2f7                EVP_aes_192_ecb
                0x000000004018f302                EVP_aes_256_cbc
                0x000000004018f30d                EVP_aes_256_cfb128
                0x000000004018f318                EVP_aes_256_ofb
                0x000000004018f323                EVP_aes_256_ecb
                0x000000004018f32e                EVP_aes_128_cfb1
                0x000000004018f339                EVP_aes_192_cfb1
                0x000000004018f344                EVP_aes_256_cfb1
                0x000000004018f34f                EVP_aes_128_cfb8
                0x000000004018f35a                EVP_aes_192_cfb8
                0x000000004018f365                EVP_aes_256_cfb8
                0x000000004018f686                EVP_bf_cbc
                0x000000004018f691                EVP_bf_cfb64
                0x000000004018f69c                EVP_bf_ofb
                0x000000004018f6a7                EVP_bf_ecb
                0x000000004018f9ca                EVP_cast5_cbc
                0x000000004018f9d5                EVP_cast5_cfb64
                0x000000004018f9e0                EVP_cast5_ofb
                0x000000004018f9eb                EVP_cast5_ecb
                0x000000004018ffab                EVP_des_cbc
                0x000000004018ffb6                EVP_des_cfb64
                0x000000004018ffc1                EVP_des_ofb
                0x000000004018ffcc                EVP_des_ecb
                0x000000004018ffd7                EVP_des_cfb1
                0x000000004018ffe2                EVP_des_cfb8
                0x0000000040190616                EVP_des_ede_cbc
                0x0000000040190621                EVP_des_ede_cfb64
                0x000000004019062c                EVP_des_ede_ofb
                0x0000000040190637                EVP_des_ede_ecb
                0x0000000040190642                EVP_des_ede3_cbc
                0x000000004019064d                EVP_des_ede3_cfb64
                0x0000000040190658                EVP_des_ede3_ofb
                0x0000000040190663                EVP_des_ede3_ecb
                0x000000004019066e                EVP_des_ede3_cfb1
                0x0000000040190679                EVP_des_ede3_cfb8
                0x0000000040190684                EVP_des_ede
                0x000000004019068f                EVP_des_ede3
                0x0000000040190a17                EVP_idea_cbc
                0x0000000040190a22                EVP_idea_cfb64
                0x0000000040190a2d                EVP_idea_ofb
                0x0000000040190a38                EVP_idea_ecb
                0x0000000040190f7f                EVP_rc2_cbc
                0x0000000040190f8a                EVP_rc2_cfb64
                0x0000000040190f95                EVP_rc2_ofb
                0x0000000040190fa0                EVP_rc2_ecb
                0x0000000040190fab                EVP_rc2_64_cbc
                0x0000000040190fb6                EVP_rc2_40_cbc
                0x0000000040191019                EVP_rc4
                0x0000000040191024                EVP_rc4_40
                0x000000004019119a                EVP_desx_cbc
                0x00000000401911a8                DES_ecb3_encrypt
                0x0000000040191278                DES_options
                0x00000000401912cc                DES_ecb_encrypt
                0x0000000040191a94                ERR_get_implementation
                0x0000000040191aa6                ERR_set_implementation
                0x0000000040191b0f                ERR_load_ERR_strings
                0x0000000040191c41                ERR_load_strings
                0x0000000040191c71                ERR_unload_strings
                0x0000000040191cc3                ERR_free_strings
                0x0000000040191cd8                ERR_get_string_table
                0x0000000040191cf1                ERR_get_err_state_table
                0x0000000040191d0b                ERR_release_err_state_table
                0x0000000040191d30                ERR_lib_error_string
                0x0000000040191d70                ERR_func_error_string
                0x0000000040191db0                ERR_reason_error_string
                0x0000000040191e1f                ERR_error_string_n
                0x0000000040191f97                ERR_error_string
                0x0000000040191fc6                ERR_remove_thread_state
                0x000000004019200b                ERR_remove_state
                0x000000004019201b                ERR_get_state
                0x0000000040192313                ERR_peek_last_error_line_data
                0x0000000040192334                ERR_peek_last_error_line
                0x000000004019235b                ERR_peek_last_error
                0x0000000040192386                ERR_peek_error_line_data
                0x00000000401923a7                ERR_peek_error_line
                0x00000000401923ce                ERR_peek_error
                0x00000000401923f9                ERR_get_error_line_data
                0x000000004019241a                ERR_get_error_line
                0x0000000040192441                ERR_get_error
                0x000000004019246c                ERR_clear_error
                0x0000000040192527                ERR_put_error
                0x000000004019262f                ERR_get_next_error_library
                0x0000000040192644                ERR_set_error_data
                0x00000000401926c1                ERR_add_error_data
                0x00000000401927fe                ERR_set_mark
                0x0000000040192829                ERR_pop_to_mark
                0x0000000040192900                ERR_load_crypto_strings
                0x000000004019299c                ASN1_TYPE_set_octetstring
                0x0000000040192a14                ASN1_TYPE_get_octetstring
                0x0000000040192a70                ASN1_TYPE_set_int_octetstring
                0x0000000040192b9d                ASN1_TYPE_get_int_octetstring
                0x0000000040192d90                EVP_CIPHER_CTX_init
                0x0000000040192da5                EVP_CIPHER_CTX_new
                0x0000000040192ddc                EVP_EncryptUpdate
                0x0000000040192f88                EVP_EncryptFinal_ex
                0x000000004019305c                EVP_EncryptFinal
                0x0000000040193067                EVP_DecryptUpdate
                0x0000000040193196                EVP_CipherUpdate
                0x00000000401931b1                EVP_DecryptFinal_ex
                0x000000004019334c                EVP_DecryptFinal
                0x0000000040193357                EVP_CipherFinal
                0x0000000040193377                EVP_CipherFinal_ex
                0x0000000040193397                EVP_CIPHER_CTX_cleanup
                0x0000000040193402                EVP_CIPHER_CTX_free
                0x0000000040193427                EVP_CIPHER_CTX_set_padding
                0x0000000040193448                EVP_CIPHER_CTX_ctrl
                0x00000000401934d8                EVP_CIPHER_CTX_set_key_length
                0x0000000040193539                EVP_CipherInit_ex
                0x000000004019378a                EVP_DecryptInit_ex
                0x000000004019379b                EVP_EncryptInit_ex
                0x00000000401937ac                EVP_CipherInit
                0x0000000040193810                EVP_DecryptInit
                0x0000000040193821                EVP_EncryptInit
                0x0000000040193832                EVP_CIPHER_CTX_rand_key
                0x0000000040193868                EVP_CIPHER_CTX_copy
                0x0000000040193948                ERR_load_EVP_strings
                0x0000000040193980                EVP_CIPHER_param_to_asn1
                0x000000004019399b                EVP_CIPHER_asn1_to_param
                0x00000000401939b6                EVP_CIPHER_block_size
                0x00000000401939bf                EVP_CIPHER_CTX_block_size
                0x00000000401939cb                EVP_Cipher
                0x00000000401939d9                EVP_CIPHER_CTX_cipher
                0x00000000401939e2                EVP_CIPHER_flags
                0x00000000401939ec                EVP_CIPHER_CTX_flags
                0x00000000401939f9                EVP_CIPHER_CTX_get_app_data
                0x0000000040193a03                EVP_CIPHER_CTX_set_app_data
                0x0000000040193a0d                EVP_CIPHER_iv_length
                0x0000000040193a16                EVP_CIPHER_CTX_iv_length
                0x0000000040193a22                EVP_CIPHER_set_asn1_iv
                0x0000000040193a84                EVP_CIPHER_get_asn1_iv
                0x0000000040193b1c                EVP_CIPHER_key_length
                0x0000000040193b25                EVP_CIPHER_CTX_key_length
                0x0000000040193b2e                EVP_CIPHER_nid
                0x0000000040193b36                EVP_CIPHER_type
                0x0000000040193c75                EVP_CIPHER_CTX_nid
                0x0000000040193c80                EVP_MD_block_size
                0x0000000040193c89                EVP_MD_type
                0x0000000040193c91                EVP_MD_pkey_type
                0x0000000040193c9a                EVP_MD_size
                0x0000000040193ccc                EVP_MD_flags
                0x0000000040193cd6                EVP_MD_CTX_md
                0x0000000040193ceb                EVP_MD_CTX_set_flags
                0x0000000040193cf8                EVP_MD_CTX_clear_flags
                0x0000000040193d07                EVP_MD_CTX_test_flags
                0x0000000040193d12                EVP_CIPHER_CTX_set_flags
                0x0000000040193d1f                EVP_CIPHER_CTX_clear_flags
                0x0000000040193d2e                EVP_CIPHER_CTX_test_flags
                0x0000000040194149                CRYPTO_get_ex_data_implementation
                0x0000000040194165                CRYPTO_set_ex_data_implementation
                0x00000000401941ce                CRYPTO_ex_data_new_class
                0x00000000401941ec                CRYPTO_cleanup_all_ex_data
                0x000000004019420b                CRYPTO_get_ex_new_index
                0x000000004019427a                CRYPTO_new_ex_data
                0x00000000401942c7                CRYPTO_dup_ex_data
                0x0000000040194314                CRYPTO_free_ex_data
                0x0000000040194361                CRYPTO_set_ex_data
                0x000000004019441a                CRYPTO_get_ex_data
                0x0000000040194914                idea_encrypt
                0x0000000040195258                idea_cbc_encrypt
                0x0000000040195880                idea_cfb64_encrypt
                0x0000000040195aa0                idea_options
                0x0000000040195aab                idea_ecb_encrypt
                0x0000000040195b64                idea_ofb64_encrypt
                0x0000000040195d9d                idea_set_encrypt_key
                0x0000000040195f26                idea_set_decrypt_key
                0x000000004019611d                lh_strhash
                0x0000000040196190                lh_new
                0x00000000401962f1                lh_free
                0x000000004019635c                lh_insert
                0x00000000401964e8                lh_delete
                0x0000000040196614                lh_retrieve
                0x0000000040196657                lh_doall
                0x0000000040196675                lh_doall_arg
                0x0000000040196690                lh_num_items
                0x00000000401966d7                EVP_dss
                0x0000000040196717                EVP_dss1
                0x0000000040196757                EVP_ecdsa
                0x0000000040196797                EVP_md4
                0x00000000401967d7                EVP_md5
                0x0000000040196817                EVP_ripemd160
                0x0000000040196857                EVP_sha
                0x000000004019691b                EVP_sha1
                0x0000000040196926                EVP_sha224
                0x0000000040196931                EVP_sha256
                0x000000004019693c                EVP_sha384
                0x0000000040196947                EVP_sha512
                0x0000000040196954                MD4_Init
                0x0000000040196996                md4_block_data_order
                0x0000000040196f59                MD4_Final
                0x0000000040197026                MD4_Transform
                0x0000000040197036                MD4_Update
                0x0000000040197178                MD5_Init
                0x00000000401971ba                md5_block_data_order
                0x00000000401979fa                MD5_Final
                0x0000000040197ac7                MD5_Transform
                0x0000000040197ad7                MD5_Update
                0x0000000040197c18                MD5
                0x0000000040197cb4                CRYPTO_set_mem_functions
                0x0000000040197d24                CRYPTO_set_mem_ex_functions
                0x0000000040197d94                CRYPTO_set_locked_mem_functions
                0x0000000040197dd4                CRYPTO_set_locked_mem_ex_functions
                0x0000000040197e14                CRYPTO_set_mem_debug_functions
                0x0000000040197e4d                CRYPTO_get_mem_functions
                0x0000000040197ea2                CRYPTO_get_mem_ex_functions
                0x0000000040197ef3                CRYPTO_get_locked_mem_functions
                0x0000000040197f28                CRYPTO_get_locked_mem_ex_functions
                0x0000000040197f5b                CRYPTO_get_mem_debug_functions
                0x0000000040197fac                CRYPTO_malloc_locked
                0x0000000040198068                CRYPTO_free_locked
                0x00000000401980af                CRYPTO_malloc
                0x000000004019816b                CRYPTO_strdup
                0x00000000401981ba                CRYPTO_realloc
                0x0000000040198275                CRYPTO_realloc_clean
                0x0000000040198350                CRYPTO_free
                0x0000000040198397                CRYPTO_remalloc
                0x00000000401983c4                CRYPTO_set_mem_debug_options
                0x00000000401983d8                CRYPTO_get_mem_debug_options
                0x00000000401983f4                OPENSSL_cleanse
                0x000000004019886c                CRYPTO_mem_ctrl
                0x00000000401989f6                CRYPTO_is_mem_check_on
                0x0000000040198a72                CRYPTO_dbg_set_options
                0x0000000040198a7f                CRYPTO_dbg_get_options
                0x0000000040198a8c                CRYPTO_push_info_
                0x0000000040198b6b                CRYPTO_pop_info
                0x0000000040198bad                CRYPTO_remove_all_info
                0x0000000040198bf0                CRYPTO_dbg_malloc
                0x0000000040198d8f                CRYPTO_dbg_free
                0x0000000040198e04                CRYPTO_dbg_realloc
                0x0000000040198ea4                CRYPTO_mem_leaks
                0x0000000040198fc3                CRYPTO_mem_leaks_cb
                0x000000004019909e                EVP_add_cipher
                0x00000000401990ea                EVP_add_digest
                0x000000004019918b                EVP_get_cipherbyname
                0x000000004019919b                EVP_get_digestbyname
                0x00000000401991ab                EVP_cleanup
                0x00000000401991f1                EVP_CIPHER_do_all
                0x0000000040199216                EVP_CIPHER_do_all_sorted
                0x000000004019923b                EVP_MD_do_all
                0x0000000040199260                EVP_MD_do_all_sorted
                0x0000000040199394                OBJ_NAME_init
                0x00000000401993e1                OBJ_NAME_new_index
                0x0000000040199549                OBJ_NAME_get
                0x00000000401995ec                OBJ_NAME_add
                0x00000000401996d3                OBJ_NAME_remove
                0x000000004019977e                OBJ_NAME_do_all
                0x00000000401997a8                OBJ_NAME_do_all_sorted
                0x000000004019984b                OBJ_NAME_cleanup
                0x0000000040199b1a                check_defer
                0x0000000040199b3b                OBJ_cleanup
                0x0000000040199bad                OBJ_new_nid
                0x0000000040199bc1                OBJ_add_object
                0x0000000040199d73                OBJ_nid2obj
                0x0000000040199e2f                OBJ_nid2sn
                0x0000000040199eee                OBJ_nid2ln
                0x0000000040199fae                OBJ_bsearch_ex_
                0x000000004019a0a7                OBJ_bsearch_
                0x000000004019a0b8                OBJ_sn2nid
                0x000000004019a134                OBJ_ln2nid
                0x000000004019a1b0                OBJ_txt2obj
                0x000000004019a2b8                OBJ_obj2nid
                0x000000004019a340                OBJ_txt2nid
                0x000000004019a37d                OBJ_obj2txt
                0x000000004019a6d0                OBJ_create
                0x000000004019a7d5                OBJ_create_objects
                0x000000004019a928                ERR_load_OBJ_strings
                0x000000004019a960                OBJ_dup
                0x000000004019ab3a                OBJ_cmp
                0x000000004019ab58                ERR_load_OCSP_strings
                0x000000004019ab90                DES_ede3_ofb64_encrypt
                0x000000004019ad60                DES_ofb64_encrypt
                0x000000004019b081                EVP_PKEY_bits
                0x000000004019b0a5                EVP_PKEY_size
                0x000000004019b0c9                EVP_PKEY_save_parameters
                0x000000004019b0fb                EVP_PKEY_missing_parameters
                0x000000004019b11a                EVP_PKEY_copy_parameters
                0x000000004019b1ba                EVP_PKEY_cmp_parameters
                0x000000004019b1f0                EVP_PKEY_cmp
                0x000000004019b24b                EVP_PKEY_new
                0x000000004019b2d6                EVP_PKEY_set_type
                0x000000004019b2eb                EVP_PKEY_set_type_str
                0x000000004019b300                EVP_PKEY_assign
                0x000000004019b33d                EVP_PKEY_get0
                0x000000004019b347                EVP_PKEY_set1_RSA
                0x000000004019b381                EVP_PKEY_get1_RSA
                0x000000004019b3cc                EVP_PKEY_set1_DSA
                0x000000004019b406                EVP_PKEY_get1_DSA
                0x000000004019b451                EVP_PKEY_set1_EC_KEY
                0x000000004019b48b                EVP_PKEY_get1_EC_KEY
                0x000000004019b4d9                EVP_PKEY_set1_DH
                0x000000004019b513                EVP_PKEY_get1_DH
                0x000000004019b55e                EVP_PKEY_type
                0x000000004019b581                EVP_PKEY_id
                0x000000004019b589                EVP_PKEY_base_id
                0x000000004019b596                EVP_PKEY_free
                0x000000004019b5f3                EVP_PKEY_print_public
                0x000000004019b619                EVP_PKEY_print_private
                0x000000004019b641                EVP_PKEY_print_params
                0x000000004019b66a                EVP_PKEY_get_default_digest_nid
                0x000000004019b6a4                PEM_read_bio_X509_REQ
                0x000000004019b6c5                PEM_write_bio_X509_REQ
                0x000000004019b709                PEM_write_bio_X509_REQ_NEW
                0x000000004019b74d                PEM_read_bio_X509_CRL
                0x000000004019b76e                PEM_write_bio_X509_CRL
                0x000000004019b7b2                PEM_read_bio_PKCS7
                0x000000004019b7d3                PEM_write_bio_PKCS7
                0x000000004019b817                PEM_read_bio_NETSCAPE_CERT_SEQUENCE
                0x000000004019b838                PEM_write_bio_NETSCAPE_CERT_SEQUENCE
                0x000000004019b87c                PEM_read_bio_RSAPrivateKey
                0x000000004019b8e5                PEM_write_bio_RSAPrivateKey
                0x000000004019b91c                PEM_read_bio_RSAPublicKey
                0x000000004019b93d                PEM_write_bio_RSAPublicKey
                0x000000004019b981                PEM_read_bio_RSA_PUBKEY
                0x000000004019b9a2                PEM_write_bio_RSA_PUBKEY
                0x000000004019b9e6                PEM_read_bio_DSAPrivateKey
                0x000000004019ba4f                PEM_write_bio_DSAPrivateKey
                0x000000004019ba86                PEM_read_bio_DSA_PUBKEY
                0x000000004019baa7                PEM_write_bio_DSA_PUBKEY
                0x000000004019baeb                PEM_read_bio_DSAparams
                0x000000004019bb0c                PEM_write_bio_DSAparams
                0x000000004019bb50                PEM_read_bio_ECPrivateKey
                0x000000004019bbb9                PEM_read_bio_ECPKParameters
                0x000000004019bbda                PEM_write_bio_ECPKParameters
                0x000000004019bc1e                PEM_write_bio_ECPrivateKey
                0x000000004019bc55                PEM_read_bio_EC_PUBKEY
                0x000000004019bc76                PEM_write_bio_EC_PUBKEY
                0x000000004019bcba                PEM_read_bio_DHparams
                0x000000004019bcdb                PEM_write_bio_DHparams
                0x000000004019bd1f                PEM_read_bio_PUBKEY
                0x000000004019bd40                PEM_write_bio_PUBKEY
                0x000000004019bd84                ERR_load_PEM_strings
                0x000000004019bdc0                PEM_def_callback
                0x000000004019bdea                PEM_proc_type
                0x000000004019be52                PEM_dek_info
                0x000000004019bf11                PEM_do_header
                0x000000004019c0ea                PEM_get_EVP_CIPHER_INFO
                0x000000004019c389                PEM_write_bio
                0x000000004019c658                PEM_ASN1_write_bio
                0x000000004019ca73                PEM_read_bio
                0x000000004019d15c                pem_check_suffix
                0x000000004019d1d1                PEM_bytes_read_bio
                0x000000004019d51c                PEM_ASN1_read_bio
                0x000000004019d5c8                PEM_read_bio_PrivateKey
                0x000000004019d824                PEM_write_bio_PrivateKey
                0x000000004019d8f0                PEM_read_bio_Parameters
                0x000000004019da12                PEM_write_bio_Parameters
                0x000000004019da94                PEM_read_bio_X509
                0x000000004019dab5                PEM_write_bio_X509
                0x000000004019dafc                ERR_load_PKCS12_strings
                0x000000004019dc0a                d2i_PKCS7
                0x000000004019dc1a                i2d_PKCS7
                0x000000004019dc2a                PKCS7_new
                0x000000004019dc3a                PKCS7_free
                0x000000004019dc4a                i2d_PKCS7_NDEF
                0x000000004019dc5a                PKCS7_dup
                0x000000004019dc6d                d2i_PKCS7_SIGNED
                0x000000004019dc7d                i2d_PKCS7_SIGNED
                0x000000004019dc8d                PKCS7_SIGNED_new
                0x000000004019dc9d                PKCS7_SIGNED_free
                0x000000004019dcad                d2i_PKCS7_SIGNER_INFO
                0x000000004019dcbd                i2d_PKCS7_SIGNER_INFO
                0x000000004019dccd                PKCS7_SIGNER_INFO_new
                0x000000004019dcdd                PKCS7_SIGNER_INFO_free
                0x000000004019dced                d2i_PKCS7_ISSUER_AND_SERIAL
                0x000000004019dcfd                i2d_PKCS7_ISSUER_AND_SERIAL
                0x000000004019dd0d                PKCS7_ISSUER_AND_SERIAL_new
                0x000000004019dd1d                PKCS7_ISSUER_AND_SERIAL_free
                0x000000004019dd2d                d2i_PKCS7_ENVELOPE
                0x000000004019dd3d                i2d_PKCS7_ENVELOPE
                0x000000004019dd4d                PKCS7_ENVELOPE_new
                0x000000004019dd5d                PKCS7_ENVELOPE_free
                0x000000004019dd6d                d2i_PKCS7_RECIP_INFO
                0x000000004019dd7d                i2d_PKCS7_RECIP_INFO
                0x000000004019dd8d                PKCS7_RECIP_INFO_new
                0x000000004019dd9d                PKCS7_RECIP_INFO_free
                0x000000004019ddad                d2i_PKCS7_ENC_CONTENT
                0x000000004019ddbd                i2d_PKCS7_ENC_CONTENT
                0x000000004019ddcd                PKCS7_ENC_CONTENT_new
                0x000000004019dddd                PKCS7_ENC_CONTENT_free
                0x000000004019dded                d2i_PKCS7_SIGN_ENVELOPE
                0x000000004019ddfd                i2d_PKCS7_SIGN_ENVELOPE
                0x000000004019de0d                PKCS7_SIGN_ENVELOPE_new
                0x000000004019de1d                PKCS7_SIGN_ENVELOPE_free
                0x000000004019de2d                d2i_PKCS7_ENCRYPT
                0x000000004019de3d                i2d_PKCS7_ENCRYPT
                0x000000004019de4d                PKCS7_ENCRYPT_new
                0x000000004019de5d                PKCS7_ENCRYPT_free
                0x000000004019de6d                d2i_PKCS7_DIGEST
                0x000000004019de7d                i2d_PKCS7_DIGEST
                0x000000004019de8d                PKCS7_DIGEST_new
                0x000000004019de9d                PKCS7_DIGEST_free
                0x000000004019dead                PKCS7_print_ctx
                0x000000004019e429                PKCS7_dataInit
                0x000000004019eafe                PKCS7_dataDecode
                0x000000004019f1a5                PKCS7_SIGNER_INFO_sign
                0x000000004019f36e                PKCS7_get_issuer_and_serial
                0x000000004019f3dd                PKCS7_get_signed_attribute
                0x000000004019f3ec                PKCS7_dataFinal
                0x000000004019f99e                PKCS7_get_attribute
                0x000000004019f9ad                PKCS7_digest_from_attributes
                0x000000004019f9cd                PKCS7_signatureVerify
                0x000000004019fcd4                PKCS7_dataVerify
                0x000000004019fe52                PKCS7_set_signed_attributes
                0x000000004019fee5                PKCS7_set_attributes
                0x000000004019ff78                PKCS7_add_signed_attribute
                0x000000004019ff87                PKCS7_add_attribute
                0x000000004019ffa0                PKCS7_ctrl
                0x00000000401a00dc                PKCS7_set_content
                0x00000000401a016d                PKCS7_set_type
                0x00000000401a037e                PKCS7_content_new
                0x00000000401a03ea                PKCS7_set0_type_other
                0x00000000401a041e                PKCS7_add_signer
                0x00000000401a057b                PKCS7_add_certificate
                0x00000000401a065c                PKCS7_add_crl
                0x00000000401a073c                PKCS7_SIGNER_INFO_set
                0x00000000401a08ac                PKCS7_add_signature
                0x00000000401a0980                PKCS7_set_digest
                0x00000000401a0a4c                PKCS7_get_signer_info
                0x00000000401a0a95                PKCS7_SIGNER_INFO_get0_algs
                0x00000000401a0abf                PKCS7_RECIP_INFO_get0_alg
                0x00000000401a0ad1                PKCS7_add_recipient_info
                0x00000000401a0b40                PKCS7_RECIP_INFO_set
                0x00000000401a0ccb                PKCS7_add_recipient
                0x00000000401a0d30                PKCS7_cert_from_signer_info
                0x00000000401a0d82                PKCS7_set_cipher
                0x00000000401a0e1c                PKCS7_stream
                0x00000000401a0ee8                ERR_load_PKCS7_strings
                0x00000000401a0f20                ERR_load_RAND_strings
                0x00000000401a0f58                DES_random_key
                0x00000000401a0fa0                RAND_set_rand_method
                0x00000000401a0fb2                RAND_get_rand_method
                0x00000000401a0fd5                RAND_cleanup
                0x00000000401a0ffa                RAND_seed
                0x00000000401a1032                RAND_add
                0x00000000401a107b                RAND_bytes
                0x00000000401a10c2                RAND_pseudo_bytes
                0x00000000401a1109                RAND_status
                0x00000000401a112c                RC2_encrypt
                0x00000000401a128a                RC2_decrypt
                0x00000000401a13f0                RC2_cbc_encrypt
                0x00000000401a1a18                RC2_ecb_encrypt
                0x00000000401a1ae0                RC2_set_key
                0x00000000401a1c10                RC2_cfb64_encrypt
                0x00000000401a1e24                RC2_ofb64_encrypt
                0x00000000401a1fd8                RC4
                0x00000000401a2474                RC4_options
                0x00000000401a247f                RC4_set_key
                0x00000000401a2584                RIPEMD160_Init
                0x00000000401a25cd                ripemd160_block_data_order
                0x00000000401a3c22                RIPEMD160_Final
                0x00000000401a3cf7                RIPEMD160_Transform
                0x00000000401a3d07                RIPEMD160_Update
                0x00000000401a3e92                d2i_RSAPrivateKey
                0x00000000401a3ea2                i2d_RSAPrivateKey
                0x00000000401a3eb2                d2i_RSAPublicKey
                0x00000000401a3ec2                i2d_RSAPublicKey
                0x00000000401a3ed2                RSAPublicKey_dup
                0x00000000401a3ee5                RSAPrivateKey_dup
                0x00000000401a3f00                RSA_generate_key
                0x00000000401a3fc0                ERR_load_RSA_strings
                0x00000000401a4000                RSA_generate_key_ex
                0x00000000401a45d0                RSA_set_default_method
                0x00000000401a45dd                RSA_get_default_method
                0x00000000401a4600                RSA_get_method
                0x00000000401a460a                RSA_set_method
                0x00000000401a4651                RSA_new_method
                0x00000000401a479d                RSA_new
                0x00000000401a47ad                RSA_free
                0x00000000401a48bd                RSA_up_ref
                0x00000000401a48ea                RSA_get_ex_new_index
                0x00000000401a4909                RSA_set_ex_data
                0x00000000401a4918                RSA_get_ex_data
                0x00000000401a4927                RSA_size
                0x00000000401a4942                RSA_public_encrypt
                0x00000000401a494f                RSA_private_encrypt
                0x00000000401a495c                RSA_private_decrypt
                0x00000000401a4969                RSA_public_decrypt
                0x00000000401a4976                RSA_flags
                0x00000000401a498d                RSA_blinding_off
                0x00000000401a49c7                RSA_setup_blinding
                0x00000000401a4c70                RSA_blinding_on
                0x00000000401a4cce                RSA_memory_lock
                0x00000000401a4e20                RSA_sign
                0x00000000401a5085                int_rsa_verify
                0x00000000401a541f                RSA_verify
                0x00000000401a5460                DES_set_odd_parity
                0x00000000401a5483                DES_check_key_parity
                0x00000000401a54c4                DES_is_weak_key
                0x00000000401a5513                DES_set_key_unchecked
                0x00000000401a57b7                DES_set_key_checked
                0x00000000401a5808                DES_set_key
                0x00000000401a582c                DES_key_sched
                0x00000000401a5838                SHA1
                0x00000000401a69eb                SHA1_Update
                0x00000000401a6b2a                SHA1_Transform
                0x00000000401a6b3a                SHA1_Final
                0x00000000401a6c1d                SHA1_Init
                0x00000000401a8480                SHA224_Init
                0x00000000401a84e5                SHA256_Init
                0x00000000401a854a                SHA256_Update
                0x00000000401a8689                SHA224_Update
                0x00000000401a8694                SHA256_Transform
                0x00000000401a86a4                SHA256_Final
                0x00000000401a87ce                SHA224_Final
                0x00000000401a87d9                SHA256
                0x00000000401a8854                SHA224
                0x00000000401aa0c5                SHA384_Init
                0x00000000401aa163                SHA512_Init
                0x00000000401aa201                SHA512_Final
                0x00000000401aa466                SHA384_Final
                0x00000000401aa471                SHA512_Update
                0x00000000401aa581                SHA384_Update
                0x00000000401aa58c                SHA512_Transform
                0x00000000401aa59c                SHA384
                0x00000000401aa617                SHA512
                0x00000000401ab667                SHA_Update
                0x00000000401ab7a6                SHA_Transform
                0x00000000401ab7b6                SHA_Final
                0x00000000401ab899                SHA_Init
                0x00000000401ab8f0                sk_set_cmp_func
                0x00000000401ab90a                sk_new
                0x00000000401ab9a7                sk_new_null
                0x00000000401ab9b7                sk_insert
                0x00000000401aba72                sk_delete
                0x00000000401abace                sk_delete_ptr
                0x00000000401abb14                sk_push
                0x00000000401abb21                sk_unshift
                0x00000000401abb31                sk_shift
                0x00000000401abb57                sk_pop
                0x00000000401abb7c                sk_zero
                0x00000000401abbb1                sk_free
                0x00000000401abbdf                sk_pop_free
                0x00000000401abc31                sk_dup
                0x00000000401abcb7                sk_num
                0x00000000401abccb                sk_value
                0x00000000401abcfa                sk_set
                0x00000000401abd2e                sk_sort
                0x00000000401abe0c                sk_find_ex
                0x00000000401abe1c                sk_find
                0x00000000401abe2c                sk_is_sorted
                0x00000000401ac2d2                ASN1_tag2bit
                0x00000000401ac2ed                asn1_ex_c2i
                0x00000000401acb3d                ASN1_item_ex_d2i
                0x00000000401ada1a                ASN1_template_d2i
                0x00000000401ada37                ASN1_item_d2i
                0x00000000401adae1                asn1_ex_i2c
                0x00000000401addaa                ASN1_item_ex_i2d
                0x00000000401ae609                ASN1_template_i2d
                0x00000000401ae6e5                ASN1_item_i2d
                0x00000000401ae6f5                ASN1_item_ndef_i2d
                0x00000000401ae710                ASN1_primitive_free
                0x00000000401aea36                ASN1_template_free
                0x00000000401aeaba                ASN1_item_ex_free
                0x00000000401aeaca                ASN1_item_free
                0x00000000401aebb2                ASN1_primitive_new
                0x00000000401aefdc                ASN1_template_new
                0x00000000401af069                ASN1_item_ex_new
                0x00000000401af079                ASN1_item_new
                0x00000000401af0a8                d2i_ASN1_INTEGER
                0x00000000401af0b8                i2d_ASN1_INTEGER
                0x00000000401af0c8                ASN1_INTEGER_new
                0x00000000401af0d8                ASN1_INTEGER_free
                0x00000000401af0e8                d2i_ASN1_ENUMERATED
                0x00000000401af0f8                i2d_ASN1_ENUMERATED
                0x00000000401af108                ASN1_ENUMERATED_new
                0x00000000401af118                ASN1_ENUMERATED_free
                0x00000000401af128                d2i_ASN1_BIT_STRING
                0x00000000401af138                i2d_ASN1_BIT_STRING
                0x00000000401af148                ASN1_BIT_STRING_new
                0x00000000401af158                ASN1_BIT_STRING_free
                0x00000000401af168                d2i_ASN1_OCTET_STRING
                0x00000000401af178                i2d_ASN1_OCTET_STRING
                0x00000000401af188                ASN1_OCTET_STRING_new
                0x00000000401af198                ASN1_OCTET_STRING_free
                0x00000000401af1a8                d2i_ASN1_NULL
                0x00000000401af1b8                i2d_ASN1_NULL
                0x00000000401af1c8                ASN1_NULL_new
                0x00000000401af1d8                ASN1_NULL_free
                0x00000000401af1e8                d2i_ASN1_UTF8STRING
                0x00000000401af1f8                i2d_ASN1_UTF8STRING
                0x00000000401af208                ASN1_UTF8STRING_new
                0x00000000401af218                ASN1_UTF8STRING_free
                0x00000000401af228                d2i_ASN1_PRINTABLESTRING
                0x00000000401af238                i2d_ASN1_PRINTABLESTRING
                0x00000000401af248                ASN1_PRINTABLESTRING_new
                0x00000000401af258                ASN1_PRINTABLESTRING_free
                0x00000000401af268                d2i_ASN1_T61STRING
                0x00000000401af278                i2d_ASN1_T61STRING
                0x00000000401af288                ASN1_T61STRING_new
                0x00000000401af298                ASN1_T61STRING_free
                0x00000000401af2a8                d2i_ASN1_IA5STRING
                0x00000000401af2b8                i2d_ASN1_IA5STRING
                0x00000000401af2c8                ASN1_IA5STRING_new
                0x00000000401af2d8                ASN1_IA5STRING_free
                0x00000000401af2e8                d2i_ASN1_GENERALSTRING
                0x00000000401af2f8                i2d_ASN1_GENERALSTRING
                0x00000000401af308                ASN1_GENERALSTRING_new
                0x00000000401af318                ASN1_GENERALSTRING_free
                0x00000000401af328                d2i_ASN1_UTCTIME
                0x00000000401af338                i2d_ASN1_UTCTIME
                0x00000000401af348                ASN1_UTCTIME_new
                0x00000000401af358                ASN1_UTCTIME_free
                0x00000000401af368                d2i_ASN1_GENERALIZEDTIME
                0x00000000401af378                i2d_ASN1_GENERALIZEDTIME
                0x00000000401af388                ASN1_GENERALIZEDTIME_new
                0x00000000401af398                ASN1_GENERALIZEDTIME_free
                0x00000000401af3a8                d2i_ASN1_VISIBLESTRING
                0x00000000401af3b8                i2d_ASN1_VISIBLESTRING
                0x00000000401af3c8                ASN1_VISIBLESTRING_new
                0x00000000401af3d8                ASN1_VISIBLESTRING_free
                0x00000000401af3e8                d2i_ASN1_UNIVERSALSTRING
                0x00000000401af3f8                i2d_ASN1_UNIVERSALSTRING
                0x00000000401af408                ASN1_UNIVERSALSTRING_new
                0x00000000401af418                ASN1_UNIVERSALSTRING_free
                0x00000000401af428                d2i_ASN1_BMPSTRING
                0x00000000401af438                i2d_ASN1_BMPSTRING
                0x00000000401af448                ASN1_BMPSTRING_new
                0x00000000401af458                ASN1_BMPSTRING_free
                0x00000000401af468                d2i_ASN1_TYPE
                0x00000000401af478                i2d_ASN1_TYPE
                0x00000000401af488                ASN1_TYPE_new
                0x00000000401af498                ASN1_TYPE_free
                0x00000000401af4a8                d2i_ASN1_PRINTABLE
                0x00000000401af4b8                i2d_ASN1_PRINTABLE
                0x00000000401af4c8                ASN1_PRINTABLE_new
                0x00000000401af4d8                ASN1_PRINTABLE_free
                0x00000000401af4e8                d2i_DISPLAYTEXT
                0x00000000401af4f8                i2d_DISPLAYTEXT
                0x00000000401af508                DISPLAYTEXT_new
                0x00000000401af518                DISPLAYTEXT_free
                0x00000000401af528                d2i_DIRECTORYSTRING
                0x00000000401af538                i2d_DIRECTORYSTRING
                0x00000000401af548                DIRECTORYSTRING_new
                0x00000000401af558                DIRECTORYSTRING_free
                0x00000000401af568                d2i_ASN1_SEQUENCE_ANY
                0x00000000401af578                i2d_ASN1_SEQUENCE_ANY
                0x00000000401af588                d2i_ASN1_SET_ANY
                0x00000000401af598                i2d_ASN1_SET_ANY
                0x00000000401af5f3                asn1_get_choice_selector
                0x00000000401af603                asn1_set_choice_selector
                0x00000000401af617                asn1_do_lock
                0x00000000401af671                asn1_enc_init
                0x00000000401af697                asn1_enc_free
                0x00000000401af6d7                asn1_enc_save
                0x00000000401af761                asn1_enc_restore
                0x00000000401af7db                asn1_get_field_ptr
                0x00000000401af7f3                asn1_do_adb
                0x00000000401af8b0                ERR_load_UI_strings
                0x00000000401af8e8                ERR_load_X509V3_strings
                0x00000000401af920                X509_issuer_and_serial_hash
                0x00000000401af9ef                X509_CRL_match
                0x00000000401afa07                X509_get_issuer_name
                0x00000000401afa14                X509_get_subject_name
                0x00000000401afa21                X509_get_serialNumber
                0x00000000401afa2e                X509_cmp
                0x00000000401afa88                X509_NAME_cmp
                0x00000000401afb01                X509_CRL_cmp
                0x00000000401afb1a                X509_subject_name_cmp
                0x00000000401afb33                X509_issuer_name_cmp
                0x00000000401afb4c                X509_issuer_and_serial_cmp
                0x00000000401afb8c                X509_NAME_hash
                0x00000000401afbf2                X509_subject_name_hash
                0x00000000401afc04                X509_issuer_name_hash
                0x00000000401afc16                X509_NAME_hash_old
                0x00000000401afc7f                X509_subject_name_hash_old
                0x00000000401afc91                X509_issuer_name_hash_old
                0x00000000401afca3                X509_find_by_issuer_and_serial
                0x00000000401afd26                X509_find_by_subject
                0x00000000401afd83                X509_get_pubkey
                0x00000000401afdab                X509_get0_pubkey_bitstr
                0x00000000401afdc8                X509_check_private_key
                0x00000000401afe84                ERR_load_X509_strings
                0x00000000401afebc                X509_NAME_oneline
                0x00000000401b06fa                X509_time_adj_ex
                0x00000000401b0747                X509_time_adj
                0x00000000401b075d                X509_gmtime_adj
                0x00000000401b076d                X509_cmp_time
                0x00000000401b1832                X509_cmp_current_time
                0x00000000401b1842                X509_get_pubkey_parameters
                0x00000000401b196e                X509_verify_cert
                0x00000000401b2301                X509_STORE_CTX_get_ex_new_index
                0x00000000401b2320                X509_STORE_CTX_set_ex_data
                0x00000000401b2332                X509_STORE_CTX_get_ex_data
                0x00000000401b2344                X509_STORE_CTX_get_error
                0x00000000401b2350                X509_STORE_CTX_set_error
                0x00000000401b235c                X509_STORE_CTX_get_error_depth
                0x00000000401b2368                X509_STORE_CTX_get_current_cert
                0x00000000401b2375                X509_STORE_CTX_get_chain
                0x00000000401b2382                X509_STORE_CTX_get1_chain
                0x00000000401b23ee                X509_STORE_CTX_get0_current_issuer
                0x00000000401b23fb                X509_STORE_CTX_get0_current_crl
                0x00000000401b2408                X509_STORE_CTX_get0_parent_ctx
                0x00000000401b2415                X509_STORE_CTX_set_cert
                0x00000000401b241f                X509_STORE_CTX_set_chain
                0x00000000401b2429                X509_STORE_CTX_set0_crls
                0x00000000401b2433                X509_STORE_CTX_purpose_inherit
                0x00000000401b2560                X509_STORE_CTX_set_trust
                0x00000000401b2577                X509_STORE_CTX_set_purpose
                0x00000000401b258e                X509_STORE_CTX_new
                0x00000000401b25f0                X509_STORE_CTX_init
                0x00000000401b294f                X509_STORE_CTX_trusted_stack
                0x00000000401b2961                X509_STORE_CTX_cleanup
                0x00000000401b2a04                X509_STORE_CTX_free
                0x00000000401b2a24                X509_STORE_CTX_set_depth
                0x00000000401b2a33                X509_STORE_CTX_set_flags
                0x00000000401b2a42                X509_STORE_CTX_set_time
                0x00000000401b2a53                X509_STORE_CTX_set_verify_cb
                0x00000000401b2a5d                X509_STORE_CTX_get0_policy_tree
                0x00000000401b2a6a                X509_STORE_CTX_get_explicit_policy
                0x00000000401b2a76                X509_STORE_CTX_set_default
                0x00000000401b2aa7                X509_STORE_CTX_get0_param
                0x00000000401b2ab1                X509_STORE_CTX_set0_param
                0x00000000401b2ea7                X509_VERIFY_PARAM_free
                0x00000000401b2ec7                X509_VERIFY_PARAM_new
                0x00000000401b2f0b                X509_VERIFY_PARAM_set1_name
                0x00000000401b2f4c                X509_VERIFY_PARAM_set_flags
                0x00000000401b2f70                X509_VERIFY_PARAM_clear_flags
                0x00000000401b2f82                X509_VERIFY_PARAM_get_flags
                0x00000000401b2f8c                X509_VERIFY_PARAM_set_purpose
                0x00000000401b2f9b                X509_VERIFY_PARAM_set_trust
                0x00000000401b2faa                X509_VERIFY_PARAM_set_depth
                0x00000000401b2fb3                X509_VERIFY_PARAM_set_time
                0x00000000401b2fc1                X509_VERIFY_PARAM_add0_policy
                0x00000000401b3012                X509_VERIFY_PARAM_set1_policies
                0x00000000401b30d9                X509_VERIFY_PARAM_inherit
                0x00000000401b31ef                X509_VERIFY_PARAM_set1
                0x00000000401b3224                X509_VERIFY_PARAM_get_depth
                0x00000000401b322d                X509_VERIFY_PARAM_add0_table
                0x00000000401b32b4                X509_VERIFY_PARAM_lookup
                0x00000000401b330a                X509_VERIFY_PARAM_table_cleanup
                0x00000000401b3334                d2i_X509_ALGOR
                0x00000000401b3344                i2d_X509_ALGOR
                0x00000000401b3354                X509_ALGOR_new
                0x00000000401b3364                X509_ALGOR_free
                0x00000000401b3374                d2i_X509_ALGORS
                0x00000000401b3384                i2d_X509_ALGORS
                0x00000000401b3394                X509_ALGOR_dup
                0x00000000401b33a7                X509_ALGOR_set0
                0x00000000401b3459                X509_ALGOR_get0
                0x00000000401b3494                X509_verify
                0x00000000401b34b5                X509_REQ_verify
                0x00000000401b34d6                NETSCAPE_SPKI_verify
                0x00000000401b34f7                X509_sign
                0x00000000401b3531                X509_REQ_sign
                0x00000000401b355f                X509_CRL_sign
                0x00000000401b3599                NETSCAPE_SPKI_sign
                0x00000000401b35c7                d2i_X509_bio
                0x00000000401b35dd                i2d_X509_bio
                0x00000000401b35f3                d2i_X509_CRL_bio
                0x00000000401b3609                i2d_X509_CRL_bio
                0x00000000401b361f                d2i_PKCS7_bio
                0x00000000401b3635                i2d_PKCS7_bio
                0x00000000401b364b                d2i_X509_REQ_bio
                0x00000000401b3661                i2d_X509_REQ_bio
                0x00000000401b3677                d2i_RSAPrivateKey_bio
                0x00000000401b368d                i2d_RSAPrivateKey_bio
                0x00000000401b36a3                d2i_RSAPublicKey_bio
                0x00000000401b36b9                d2i_RSA_PUBKEY_bio
                0x00000000401b36d4                i2d_RSAPublicKey_bio
                0x00000000401b36ea                i2d_RSA_PUBKEY_bio
                0x00000000401b3700                d2i_DSAPrivateKey_bio
                0x00000000401b371b                i2d_DSAPrivateKey_bio
                0x00000000401b3731                d2i_DSA_PUBKEY_bio
                0x00000000401b374c                i2d_DSA_PUBKEY_bio
                0x00000000401b3762                d2i_EC_PUBKEY_bio
                0x00000000401b377d                i2d_EC_PUBKEY_bio
                0x00000000401b3793                d2i_ECPrivateKey_bio
                0x00000000401b37ae                i2d_ECPrivateKey_bio
                0x00000000401b37c4                X509_pubkey_digest
                0x00000000401b381c                X509_digest
                0x00000000401b3835                X509_CRL_digest
                0x00000000401b384e                X509_REQ_digest
                0x00000000401b3867                X509_NAME_digest
                0x00000000401b3880                PKCS7_ISSUER_AND_SERIAL_digest
                0x00000000401b3899                d2i_PKCS8_bio
                0x00000000401b38b4                i2d_PKCS8_bio
                0x00000000401b38ca                d2i_PKCS8_PRIV_KEY_INFO_bio
                0x00000000401b38e5                i2d_PKCS8_PRIV_KEY_INFO_bio
                0x00000000401b38fb                i2d_PKCS8PrivateKeyInfo_bio
                0x00000000401b394f                i2d_PrivateKey_bio
                0x00000000401b3965                d2i_PrivateKey_bio
                0x00000000401b3980                i2d_PUBKEY_bio
                0x00000000401b3996                d2i_PUBKEY_bio
                0x00000000401b39b4                d2i_X509_ATTRIBUTE
                0x00000000401b39c4                i2d_X509_ATTRIBUTE
                0x00000000401b39d4                X509_ATTRIBUTE_new
                0x00000000401b39e4                X509_ATTRIBUTE_free
                0x00000000401b39f4                X509_ATTRIBUTE_dup
                0x00000000401b3a07                X509_ATTRIBUTE_create
                0x00000000401b423e                d2i_X509_REVOKED
                0x00000000401b424e                i2d_X509_REVOKED
                0x00000000401b425e                X509_REVOKED_new
                0x00000000401b426e                X509_REVOKED_free
                0x00000000401b427e                d2i_X509_CRL_INFO
                0x00000000401b428e                i2d_X509_CRL_INFO
                0x00000000401b429e                X509_CRL_INFO_new
                0x00000000401b42ae                X509_CRL_INFO_free
                0x00000000401b42be                d2i_X509_CRL
                0x00000000401b42ce                i2d_X509_CRL
                0x00000000401b42de                X509_CRL_new
                0x00000000401b42ee                X509_CRL_free
                0x00000000401b42fe                X509_CRL_dup
                0x00000000401b4311                X509_CRL_add0_revoked
                0x00000000401b4392                X509_CRL_verify
                0x00000000401b43ac                X509_CRL_get0_by_serial
                0x00000000401b43cc                X509_CRL_get0_by_cert
                0x00000000401b443b                X509_CRL_set_default_method
                0x00000000401b4454                X509_CRL_METHOD_new
                0x00000000401b44b9                X509_CRL_METHOD_free
                0x00000000401b44c9                X509_CRL_set_meth_data
                0x00000000401b44d3                X509_CRL_get_meth_data
                0x00000000401b44e0                d2i_X509_EXTENSION
                0x00000000401b44f0                i2d_X509_EXTENSION
                0x00000000401b4500                X509_EXTENSION_new
                0x00000000401b4510                X509_EXTENSION_free
                0x00000000401b4520                d2i_X509_EXTENSIONS
                0x00000000401b4530                i2d_X509_EXTENSIONS
                0x00000000401b4540                X509_EXTENSION_dup
                0x00000000401b48dd                X509_NAME_ENTRY_free
                0x00000000401b48ed                d2i_X509_NAME_ENTRY
                0x00000000401b48fd                i2d_X509_NAME_ENTRY
                0x00000000401b490d                X509_NAME_ENTRY_new
                0x00000000401b4e3c                X509_NAME_ENTRY_dup
                0x00000000401b4e4f                d2i_X509_NAME
                0x00000000401b4e5f                i2d_X509_NAME
                0x00000000401b4e6f                X509_NAME_new
                0x00000000401b4e7f                X509_NAME_free
                0x00000000401b5031                X509_NAME_dup
                0x00000000401b5044                X509_NAME_set
                0x00000000401b50bc                d2i_X509_PUBKEY
                0x00000000401b50cc                i2d_X509_PUBKEY
                0x00000000401b50dc                X509_PUBKEY_new
                0x00000000401b50ec                X509_PUBKEY_free
                0x00000000401b50fc                X509_PUBKEY_set
                0x00000000401b51ed                X509_PUBKEY_get
                0x00000000401b534c                d2i_PUBKEY
                0x00000000401b53b5                i2d_PUBKEY
                0x00000000401b540d                d2i_RSA_PUBKEY
                0x00000000401b5492                i2d_RSA_PUBKEY
                0x00000000401b551f                d2i_DSA_PUBKEY
                0x00000000401b55a4                i2d_DSA_PUBKEY
                0x00000000401b5631                d2i_EC_PUBKEY
                0x00000000401b56b6                i2d_EC_PUBKEY
                0x00000000401b5743                X509_PUBKEY_set0_param
                0x00000000401b57c0                X509_PUBKEY_get0_param
                0x00000000401b582b                d2i_X509_REQ_INFO
                0x00000000401b583b                i2d_X509_REQ_INFO
                0x00000000401b584b                X509_REQ_INFO_new
                0x00000000401b585b                X509_REQ_INFO_free
                0x00000000401b586b                d2i_X509_REQ
                0x00000000401b587b                i2d_X509_REQ
                0x00000000401b588b                X509_REQ_new
                0x00000000401b589b                X509_REQ_free
                0x00000000401b58ab                X509_REQ_dup
                0x00000000401b58c0                d2i_X509_SIG
                0x00000000401b58d0                i2d_X509_SIG
                0x00000000401b58e0                X509_SIG_new
                0x00000000401b58f0                X509_SIG_free
                0x00000000401b5900                d2i_NETSCAPE_SPKAC
                0x00000000401b5910                i2d_NETSCAPE_SPKAC
                0x00000000401b5920                NETSCAPE_SPKAC_new
                0x00000000401b5930                NETSCAPE_SPKAC_free
                0x00000000401b5940                d2i_NETSCAPE_SPKI
                0x00000000401b5950                i2d_NETSCAPE_SPKI
                0x00000000401b5960                NETSCAPE_SPKI_new
                0x00000000401b5970                NETSCAPE_SPKI_free
                0x00000000401b5a9c                d2i_X509_CINF
                0x00000000401b5aac                i2d_X509_CINF
                0x00000000401b5abc                X509_CINF_new
                0x00000000401b5acc                X509_CINF_free
                0x00000000401b5adc                d2i_X509
                0x00000000401b5aec                i2d_X509
                0x00000000401b5afc                X509_new
                0x00000000401b5b0c                X509_free
                0x00000000401b5b1c                X509_dup
                0x00000000401b5b2f                X509_get_ex_new_index
                0x00000000401b5b4e                X509_set_ex_data
                0x00000000401b5b5d                X509_get_ex_data
                0x00000000401b5b6c                d2i_X509_AUX
                0x00000000401b5bdc                i2d_X509_AUX
                0x00000000401b5c28                d2i_X509_CERT_AUX
                0x00000000401b5c38                i2d_X509_CERT_AUX
                0x00000000401b5c48                X509_CERT_AUX_new
                0x00000000401b5ca0                X509_CERT_AUX_free
                0x00000000401b5cb0                X509_alias_set1
                0x00000000401b5d58                X509_keyid_set1
                0x00000000401b5e00                X509_alias_get0
                0x00000000401b5e41                X509_keyid_get0
                0x00000000401b5e82                X509_add1_trust_object
                0x00000000401b5eef                X509_add1_reject_object
                0x00000000401b5f51                X509_trust_clear
                0x00000000401b5f90                X509_reject_clear
                0x00000000401b5fd1                d2i_X509_CERT_PAIR
                0x00000000401b5fe1                i2d_X509_CERT_PAIR
                0x00000000401b5ff1                X509_CERT_PAIR_new
                0x00000000401b6001                X509_CERT_PAIR_free
                0x00000000401b6014                DES_xcbc_encrypt
                0x00000000401b678c                ERR_load_TS_strings
                0x00000000401b67c4                ERR_load_CMS_strings
                0x00000000401b6846                OBJ_find_sigid_algs
                0x00000000401b68ce                OBJ_find_sigid_by_algs
                0x00000000401b6956                OBJ_add_sigid
                0x00000000401b6a64                OBJ_sigid_free
                0x00000000401b6adb                EVP_whirlpool
                0x00000000401b6b0b                EVP_PKEY_meth_find
                0x00000000401b6b84                EVP_PKEY_meth_new
                0x00000000401b6ca2                EVP_PKEY_meth_free
                0x00000000401b6cb8                EVP_PKEY_meth_add0
                0x00000000401b6d1b                EVP_PKEY_CTX_free
                0x00000000401b6d6a                EVP_PKEY_CTX_dup
                0x00000000401b6fa0                EVP_PKEY_CTX_new_id
                0x00000000401b6fb2                EVP_PKEY_CTX_new
                0x00000000401b6fc2                EVP_PKEY_CTX_ctrl
                0x00000000401b70ba                EVP_PKEY_CTX_ctrl_str
                0x00000000401b719f                EVP_PKEY_CTX_get_operation
                0x00000000401b71a8                EVP_PKEY_CTX_set0_keygen_info
                0x00000000401b71b5                EVP_PKEY_CTX_set_data
                0x00000000401b71bf                EVP_PKEY_CTX_get_data
                0x00000000401b71c9                EVP_PKEY_CTX_get0_pkey
                0x00000000401b71d3                EVP_PKEY_CTX_get0_peerkey
                0x00000000401b71dd                EVP_PKEY_CTX_set_app_data
                0x00000000401b71e7                EVP_PKEY_CTX_get_app_data
                0x00000000401b71f1                EVP_PKEY_meth_set_init
                0x00000000401b71fb                EVP_PKEY_meth_set_copy
                0x00000000401b7205                EVP_PKEY_meth_set_cleanup
                0x00000000401b720f                EVP_PKEY_meth_set_paramgen
                0x00000000401b721d                EVP_PKEY_meth_set_keygen
                0x00000000401b722b                EVP_PKEY_meth_set_sign
                0x00000000401b7239                EVP_PKEY_meth_set_verify
                0x00000000401b7247                EVP_PKEY_meth_set_verify_recover
                0x00000000401b7255                EVP_PKEY_meth_set_signctx
                0x00000000401b7263                EVP_PKEY_meth_set_verifyctx
                0x00000000401b7277                EVP_PKEY_meth_set_encrypt
                0x00000000401b728b                EVP_PKEY_meth_set_decrypt
                0x00000000401b729f                EVP_PKEY_meth_set_derive
                0x00000000401b72b3                EVP_PKEY_meth_set_ctrl
                0x00000000401b72e3                EVP_PKEY_asn1_get_count
                0x00000000401b7302                EVP_PKEY_asn1_get0
                0x00000000401b7332                EVP_PKEY_asn1_find
                0x00000000401b73d5                EVP_PKEY_asn1_find_str
                0x00000000401b745c                EVP_PKEY_asn1_add0
                0x00000000401b74bf                EVP_PKEY_asn1_get0_info
                0x00000000401b7511                EVP_PKEY_get0_asn1
                0x00000000401b751b                EVP_PKEY_asn1_copy
                0x00000000401b75e3                EVP_PKEY_asn1_free
                0x00000000401b7625                EVP_PKEY_asn1_new
                0x00000000401b779a                EVP_PKEY_asn1_add_alias
                0x00000000401b77d7                EVP_PKEY_asn1_set_public
                0x00000000401b77f9                EVP_PKEY_asn1_set_private
                0x00000000401b780b                EVP_PKEY_asn1_set_param
                0x00000000401b7836                EVP_PKEY_asn1_set_free
                0x00000000401b7843                EVP_PKEY_asn1_set_ctrl
                0x00000000401b7850                EVP_PKEY_sign_init
                0x00000000401b78bf                EVP_PKEY_sign
                0x00000000401b79cb                EVP_PKEY_verify_init
                0x00000000401b7a3a                EVP_PKEY_verify
                0x00000000401b7aaa                EVP_PKEY_verify_recover_init
                0x00000000401b7b19                EVP_PKEY_verify_recover
                0x00000000401b7c25                EVP_PKEY_encrypt_init
                0x00000000401b7c9a                EVP_PKEY_encrypt
                0x00000000401b7daf                EVP_PKEY_decrypt_init
                0x00000000401b7e24                EVP_PKEY_decrypt
                0x00000000401b7f39                EVP_PKEY_derive_init
                0x00000000401b7fae                EVP_PKEY_derive_set_peer
                0x00000000401b8190                EVP_PKEY_derive
                0x00000000401b83a6                ASN1_PCTX_new
                0x00000000401b841d                ASN1_PCTX_free
                0x00000000401b8428                ASN1_PCTX_get_flags
                0x00000000401b8431                ASN1_PCTX_set_flags
                0x00000000401b843a                ASN1_PCTX_get_nm_flags
                0x00000000401b8444                ASN1_PCTX_set_nm_flags
                0x00000000401b844e                ASN1_PCTX_get_cert_flags
                0x00000000401b8458                ASN1_PCTX_set_cert_flags
                0x00000000401b8462                ASN1_PCTX_get_oid_flags
                0x00000000401b846c                ASN1_PCTX_set_oid_flags
                0x00000000401b8476                ASN1_PCTX_get_str_flags
                0x00000000401b8480                ASN1_PCTX_set_str_flags
                0x00000000401b848a                asn1_template_print_ctx
                0x00000000401b8dc5                ASN1_item_print
                0x00000000401b8f9f                EVP_DigestSignInit
                0x00000000401b8fb0                EVP_DigestVerifyInit
                0x00000000401b8fc1                EVP_DigestSignFinal
                0x00000000401b9100                EVP_DigestVerifyFinal
                0x00000000401b91e0                WHIRLPOOL_Init
                0x00000000401b91fa                WHIRLPOOL_BitUpdate
                0x00000000401b9503                WHIRLPOOL_Update
                0x00000000401b95bf                WHIRLPOOL_Final
                0x00000000401b96c6                WHIRLPOOL
                0x00000000401bcad9                DHparams_print
                0x00000000401beabc                whirlpool_block
                0x00000000401bf649                EVP_PKEY_paramgen_init
                0x00000000401bf6b8                EVP_PKEY_paramgen
                0x00000000401bf771                EVP_PKEY_keygen_init
                0x00000000401bf7e0                EVP_PKEY_keygen
                0x00000000401bf899                EVP_PKEY_CTX_set_cb
                0x00000000401bf8a3                EVP_PKEY_CTX_get_cb
                0x00000000401bf8ad                evp_pkey_set_cb_translate
                0x00000000401bf8c5                EVP_PKEY_CTX_get_keygen_info
                0x00000000401bf8ed                EVP_PKEY_new_mac_key
                0x00000000401bfa7c                CMS_SignedData_init
                0x00000000401bfa90                cms_set1_SignerIdentifier
                0x00000000401bfbb0                cms_SignerIdentifier_get0_signer_id
                0x00000000401bfc07                cms_SignerIdentifier_cert_cmp
                0x00000000401bfc84                CMS_get0_SignerInfos
                0x00000000401bfc9f                CMS_get0_signers
                0x00000000401bfd24                CMS_SignerInfo_set1_signer_cert
                0x00000000401bfd85                CMS_SignerInfo_get0_signer_id
                0x00000000401bfd94                CMS_SignerInfo_cert_cmp
                0x00000000401bfda3                CMS_set1_signers_certs
                0x00000000401bfed5                CMS_SignerInfo_get0_algs
                0x00000000401bff0b                CMS_SignerInfo_sign
                0x00000000401c015f                cms_SignedData_final
                0x00000000401c0380                CMS_SignerInfo_verify
                0x00000000401c04ad                cms_SignedData_init_bio
                0x00000000401c067a                CMS_SignerInfo_verify_content
                0x00000000401c082e                CMS_add_smimecap
                0x00000000401c088e                CMS_add_simple_smimecap
                0x00000000401c09d6                CMS_add_standard_smimecap
                0x00000000401c0b13                CMS_add1_signer
                0x00000000401c1074                CMS_get0_RecipientInfos
                0x00000000401c108f                CMS_RecipientInfo_type
                0x00000000401c1097                CMS_EnvelopedData_create
                0x00000000401c11a2                CMS_add1_recipient_cert
                0x00000000401c1386                CMS_RecipientInfo_ktri_get0_algs
                0x00000000401c13e9                CMS_RecipientInfo_ktri_get0_signer_id
                0x00000000401c1427                CMS_RecipientInfo_ktri_cert_cmp
                0x00000000401c1465                CMS_RecipientInfo_set0_pkey
                0x00000000401c14a3                CMS_RecipientInfo_kekri_id_cmp
                0x00000000401c1502                CMS_add0_recipient_key
                0x00000000401c1751                CMS_RecipientInfo_kekri_get0_id
                0x00000000401c17f7                CMS_RecipientInfo_set0_key
                0x00000000401c1839                CMS_RecipientInfo_decrypt
                0x00000000401c1c0f                cms_EnvelopedData_init_bio
                0x00000000401c208c                EC_KEY_print
                0x00000000401c2107                ECParameters_print
                0x00000000401c2179                ECPKParameters_print
                0x00000000401c2d9c                CMS_signed_get_attr_count
                0x00000000401c2dab                CMS_signed_get_attr_by_NID
                0x00000000401c2dba                CMS_signed_get_attr_by_OBJ
                0x00000000401c2dc9                CMS_signed_get_attr
                0x00000000401c2dd8                CMS_signed_delete_attr
                0x00000000401c2de7                CMS_signed_add1_attr
                0x00000000401c2dff                CMS_signed_add1_attr_by_OBJ
                0x00000000401c2e17                CMS_signed_add1_attr_by_NID
                0x00000000401c2e2f                CMS_signed_add1_attr_by_txt
                0x00000000401c2e47                CMS_signed_get0_data_by_OBJ
                0x00000000401c2e56                CMS_unsigned_get_attr_count
                0x00000000401c2e65                CMS_unsigned_get_attr_by_NID
                0x00000000401c2e74                CMS_unsigned_get_attr_by_OBJ
                0x00000000401c2e83                CMS_unsigned_get_attr
                0x00000000401c2e92                CMS_unsigned_delete_attr
                0x00000000401c2ea1                CMS_unsigned_add1_attr
                0x00000000401c2eb9                CMS_unsigned_add1_attr_by_OBJ
                0x00000000401c2ed1                CMS_unsigned_add1_attr_by_NID
                0x00000000401c2ee9                CMS_unsigned_add1_attr_by_txt
                0x00000000401c2f01                CMS_unsigned_get0_data_by_OBJ
                0x00000000401c307e                d2i_CMS_ContentInfo
                0x00000000401c308e                i2d_CMS_ContentInfo
                0x00000000401c309e                CMS_ContentInfo_new
                0x00000000401c30ae                CMS_ContentInfo_free
                0x00000000401c30be                CMS_ContentInfo_print_ctx
                0x00000000401c30d1                CMS_get0_type
                0x00000000401c30da                CMS_get0_content
                0x00000000401c31b5                CMS_dataFinal
                0x00000000401c3329                cms_content_bio
                0x00000000401c3379                CMS_dataInit
                0x00000000401c347a                CMS_get0_eContentType
                0x00000000401c3494                CMS_set1_eContentType
                0x00000000401c34ef                CMS_is_detached
                0x00000000401c3510                CMS_set_detached
                0x00000000401c35a6                cms_Data_create
                0x00000000401c35e0                cms_DigestAlgorithm_set
                0x00000000401c3631                cms_DigestAlgorithm_init_bio
                0x00000000401c3704                cms_DigestAlgorithm_find_ctx
                0x00000000401c37e4                CMS_add0_CertificateChoices
                0x00000000401c3855                CMS_add0_cert
                0x00000000401c38fe                CMS_add1_cert
                0x00000000401c3947                CMS_add0_RevocationInfoChoice
                0x00000000401c39b8                CMS_add0_crl
                0x00000000401c39e9                CMS_add1_crl
                0x00000000401c3a32                CMS_get1_certs
                0x00000000401c3aef                CMS_get1_crls
                0x00000000401c3ce0                cms_EncryptedContent_init_bio
                0x00000000401c40c6                cms_EncryptedContent_init
                0x00000000401c4152                CMS_EncryptedData_set1_key
                0x00000000401c425c                cms_EncryptedData_init_bio
                0x00000000401c4288                AES_wrap_key
                0x00000000401c43bf                AES_unwrap_key
                0x00000000401c4520                cms_DigestedData_create
                0x00000000401c45b7                cms_DigestedData_init_bio
                0x00000000401c45ca                cms_DigestedData_do_final
                0x00000000401c46e8                CMS_stream
                0x00000000401c4764                d2i_CMS_bio
                0x00000000401c477a                i2d_CMS_bio
                0x00000000401c4790                PEM_read_bio_CMS
                0x00000000401c47b1                PEM_write_bio_CMS
                0x00000000401c47f5                BIO_new_CMS
                0x00000000401c4805                i2d_CMS_bio_stream
                0x00000000401c4816                PEM_write_bio_CMS_stream
                0x00000000401c482d                SMIME_write_CMS
                0x00000000401c48bd                SMIME_read_CMS
                0x00000000401c51fb                SMIME_read_ASN1
                0x00000000401c5620                SMIME_crlf_copy
                0x00000000401c574b                i2d_ASN1_bio_stream
                0x00000000401c58e3                SMIME_write_ASN1
                0x00000000401c5f70                PEM_write_bio_ASN1_stream
                0x00000000401c5ff7                SMIME_text
                0x00000000401c6345                BIO_new_NDEF
                0x00000000401c6b61                BIO_f_asn1
                0x00000000401c6b6c                BIO_asn1_set_prefix
                0x00000000401c6b82                BIO_asn1_get_prefix
                0x00000000401c6b98                BIO_asn1_set_suffix
                0x00000000401c6bae                BIO_asn1_get_suffix
                0x00000000401c6bd0                chelp_snprintf
                0x00000000401c6c0d                chelp_sprintf
                0x00000000401c6c54                chelp_print
                0x00000000401c6c6c                chelp_printf
                0x00000000401c6cd4                chelp_mod_64_32_32
                0x00000000401c6ce9                chelp_div_64_32_64
                0x00000000401c6cfc                chelp_div_64_32_32
                0x00000000401c6d07                chelp_mul_64_64_64
                0x00000000401c6d14                BIO_printf
                0x00000000401c6d51                BIO_snprintf
                0x00000000401c6d87                chelp_abort
                0x00000000401c6d9a                RAND_poll
                0x00000000401c6db9                InitCryptoLibrary
                0x00000000401c6e30                chelp_malloc
                0x00000000401c6e47                chelp_realloc
                0x00000000401c6e6a                chelp_free
                0x00000000401c6e7a                chelp_swap
                0x00000000401c6eae                chelp_qsort
                0x00000000401c71c2                chelp_bsearch
                0x00000000401c7291                chelp_memchr
                0x00000000401c72ca                chelp_memmove
                0x00000000401c7349                chelp_memcmp
                0x00000000401c73b8                chelp_memcpy
                0x00000000401c73e4                chelp_memset
                0x00000000401c7410                chelp_isupper
                0x00000000401c7423                chelp_islower
                0x00000000401c7436                chelp_toupper
                0x00000000401c7442                chelp_tolower
                0x00000000401c744e                chelp_isspace
                0x00000000401c746a                chelp_isdigit
                0x00000000401c747d                chelp_isxdigit
                0x00000000401c74a5                chelp_isalpha
                0x00000000401c74c2                chelp_isalnum
                0x00000000401c74eb                chelp_strtoul_ex
                0x00000000401c76bc                chelp_strtoul
                0x00000000401c76cc                chelp_strtol
                0x00000000401c76dc                chelp_strcpy
                0x00000000401c770a                chelp_strncpy
                0x00000000401c7777                chelp_strcat
                0x00000000401c77b8                chelp_strcmp
                0x00000000401c7818                chelp_strncmp
                0x00000000401c799a                chelp_stricmp
                0x00000000401c79d9                chelp_strchr
                0x00000000401c7a11                chelp_strrchr
                0x00000000401c7a45                chelp_strlen
                0x00000000401c7a6c                chelp_strncasecmp
                0x00000000401c7ac0                decryptcfg
                0x00000000401c7b48                ASN1_BIT_STRING_set
                0x00000000401c7b53                i2c_ASN1_BIT_STRING
                0x00000000401c7c60                c2i_ASN1_BIT_STRING
                0x00000000401c7dd9                ASN1_BIT_STRING_set_bit
                0x00000000401c7f38                ASN1_BIT_STRING_get_bit
                0x00000000401c7f80                ASN1_BIT_STRING_check
                0x00000000401c7fe0                d2i_ASN1_type_bytes
                0x00000000401c8185                i2d_ASN1_bytes
                0x00000000401c823c                d2i_ASN1_bytes
                0x00000000401c888b                ASN1_d2i_bio
                0x00000000401c88fd                ASN1_item_d2i_bio
                0x00000000401c8974                ASN1_digest
                0x00000000401c8a3b                ASN1_item_digest
                0x00000000401c8ab8                ASN1_dup
                0x00000000401c8b73                ASN1_item_dup
                0x00000000401c8bfc                ASN1_ENUMERATED_set
                0x00000000401c8d11                ASN1_ENUMERATED_get
                0x00000000401c8d89                BN_to_ASN1_ENUMERATED
                0x00000000401c8e90                ASN1_ENUMERATED_to_BN
                0x00000000401c8f00                ASN1_GENERALIZEDTIME_check
                0x00000000401c9172                ASN1_GENERALIZEDTIME_set_string
                0x00000000401c91ef                ASN1_GENERALIZEDTIME_adj
                0x00000000401c934b                ASN1_GENERALIZEDTIME_set
                0x00000000401c9360                ASN1_i2d_bio
                0x00000000401c941e                ASN1_item_i2d_bio
                0x00000000401c94c0                ASN1_INTEGER_dup
                0x00000000401c94cb                ASN1_INTEGER_cmp
                0x00000000401c950b                i2c_ASN1_INTEGER
                0x00000000401c9683                c2i_ASN1_INTEGER
                0x00000000401c987f                d2i_ASN1_UINTEGER
                0x00000000401c99ee                ASN1_INTEGER_set
                0x00000000401c9b03                ASN1_INTEGER_get
                0x00000000401c9b7d                BN_to_ASN1_INTEGER
                0x00000000401c9c95                ASN1_INTEGER_to_BN
                0x00000000401c9d10                i2d_ASN1_OBJECT
                0x00000000401c9da7                a2d_ASN1_OBJECT
                0x00000000401ca2ae                i2t_ASN1_OBJECT
                0x00000000401ca2be                i2a_ASN1_OBJECT
                0x00000000401ca3a4                ASN1_OBJECT_new
                0x00000000401ca420                ASN1_OBJECT_free
                0x00000000401ca499                c2i_ASN1_OBJECT
                0x00000000401ca644                d2i_ASN1_OBJECT
                0x00000000401ca6d0                ASN1_OBJECT_create
                0x00000000401ca6fc                ASN1_OCTET_STRING_dup
                0x00000000401ca707                ASN1_OCTET_STRING_cmp
                0x00000000401ca712                ASN1_OCTET_STRING_set
                0x00000000401ca720                ASN1_sign
                0x00000000401ca9be                ASN1_item_sign
                0x00000000401cb3d2                X509_NAME_print_ex
                0x00000000401cb8b2                ASN1_STRING_print_ex
                0x00000000401cb8c8                ASN1_STRING_to_UTF8
                0x00000000401cb93c                d2i_ASN1_TIME
                0x00000000401cb94c                i2d_ASN1_TIME
                0x00000000401cb95c                ASN1_TIME_new
                0x00000000401cb96c                ASN1_TIME_free
                0x00000000401cb97c                ASN1_TIME_adj
                0x00000000401cba3f                ASN1_TIME_set
                0x00000000401cba54                ASN1_TIME_check
                0x00000000401cba78                ASN1_TIME_to_generalizedtime
                0x00000000401cbb6b                ASN1_TIME_set_string
                0x00000000401cbbec                ASN1_TYPE_get
                0x00000000401cbc05                ASN1_TYPE_set
                0x00000000401cbc66                ASN1_TYPE_set1
                0x00000000401cbcf2                ASN1_TYPE_cmp
                0x00000000401cbd40                ASN1_UTCTIME_check
                0x00000000401cbf64                ASN1_UTCTIME_set_string
                0x00000000401cbfe1                ASN1_UTCTIME_adj
                0x00000000401cc169                ASN1_UTCTIME_set
                0x00000000401cc17e                ASN1_UTCTIME_cmp_time_t
                0x00000000401cc2f0                UTF8_getc
                0x00000000401cc67f                UTF8_putc
                0x00000000401cc8a8                ASN1_verify
                0x00000000401cca17                ASN1_item_verify
                0x00000000401ccc10                AES_cbc_encrypt
                0x00000000401ccc34                AES_cfb128_encrypt
                0x00000000401ccc52                AES_cfb1_encrypt
                0x00000000401ccc70                AES_cfb8_encrypt
                0x00000000401ccc90                AES_ecb_encrypt
                0x00000000401ccca8                AES_ofb128_encrypt
                0x00000000401cccc0                ERR_load_ASN1_strings
                0x00000000401ccd2f                ASN1_check_infinite_end
                0x00000000401ccd3a                ASN1_const_check_infinite_end
                0x00000000401ccd9e                ASN1_get_object
                0x00000000401ccf60                ASN1_put_object
                0x00000000401cd062                ASN1_put_eoc
                0x00000000401cd07e                ASN1_object_size
                0x00000000401cd0ba                asn1_Finish
                0x00000000401cd0c5                asn1_const_Finish
                0x00000000401cd0d0                asn1_GetSequence
                0x00000000401cd17e                ASN1_STRING_set
                0x00000000401cd280                ASN1_STRING_copy
                0x00000000401cd2d1                ASN1_STRING_set0
                0x00000000401cd311                ASN1_STRING_type_new
                0x00000000401cd388                ASN1_STRING_new
                0x00000000401cd398                ASN1_STRING_free
                0x00000000401cd3cc                ASN1_STRING_dup
                0x00000000401cd41f                ASN1_STRING_cmp
                0x00000000401cd460                asn1_add_error
                0x00000000401cd4c8                ASN1_STRING_length
                0x00000000401cd4d0                ASN1_STRING_length_set
                0x00000000401cd4d8                ASN1_STRING_type
                0x00000000401cd4e1                ASN1_STRING_data
                0x00000000401cd4f0                ASN1_tag2str
                0x00000000401ce0cf                ASN1_parse_dump
                0x00000000401ce0f8                ASN1_parse
                0x00000000401ce13a                BIO_dump_indent_cb
                0x00000000401ce54e                BIO_dump_cb
                0x00000000401ce55f                BIO_dump
                0x00000000401ce577                BIO_dump_indent
                0x00000000401cef4c                BIO_f_buffer
                0x00000000401cef60                BF_cfb64_encrypt
                0x00000000401cf148                BF_options
                0x00000000401cf153                BF_ecb_encrypt
                0x00000000401cf204                BF_encrypt
                0x00000000401cf5c5                BF_decrypt
                0x00000000401cf986                BF_cbc_encrypt
                0x00000000401cff18                BF_ofb64_encrypt
                0x00000000401d00a8                BF_set_key
                0x00000000401d0ed1                BIO_f_base64
                0x00000000401d15d0                BIO_f_cipher
                0x00000000401d15db                BIO_set_cipher
                0x00000000401d1690                ERR_load_BIO_strings
                0x00000000401d1a4a                BIO_f_md
                0x00000000401d1a60                BN_uadd
                0x00000000401d1ba4                BN_usub
                0x00000000401d1d9e                BN_add
                0x00000000401d1e49                BN_sub
                0x00000000401d1f5c                bn_mul_add_words
                0x00000000401d21c4                bn_mul_words
                0x00000000401d2410                bn_sqr_words
                0x00000000401d2563                bn_div_words
                0x00000000401d26b3                bn_add_words
                0x00000000401d279f                bn_sub_words
                0x00000000401d28a9                bn_mul_comba8
                0x00000000401d414e                bn_mul_comba4
                0x00000000401d476d                bn_sqr_comba8
                0x00000000401d57b7                bn_sqr_comba4
                0x00000000401d5bb0                BN_BLINDING_free
                0x00000000401d5c07                BN_BLINDING_new
                0x00000000401d5cf2                BN_BLINDING_invert_ex
                0x00000000401d5d55                BN_BLINDING_invert
                0x00000000401d5d6b                BN_BLINDING_get_thread_id
                0x00000000401d5d75                BN_BLINDING_set_thread_id
                0x00000000401d5d7f                BN_BLINDING_thread_id
                0x00000000401d5d89                BN_BLINDING_get_flags
                0x00000000401d5d93                BN_BLINDING_set_flags
                0x00000000401d5d9d                BN_BLINDING_create_param
                0x00000000401d5f31                BN_BLINDING_update
                0x00000000401d6023                BN_BLINDING_convert_ex
                0x00000000401d60fe                BN_BLINDING_convert
                0x00000000401d6114                BN_CTX_init
                0x00000000401d618f                BN_CTX_new
                0x00000000401d622f                BN_CTX_free
                0x00000000401d62af                BN_CTX_start
                0x00000000401d6395                BN_CTX_end
                0x00000000401d640a                BN_CTX_get
                0x00000000401d6570                BN_div
                0x00000000401d7094                ERR_load_BN_strings
                0x00000000401d71ad                BN_exp
                0x00000000401d734d                BN_mod_exp_recp
                0x00000000401d77d9                BN_mod_exp_mont_consttime
                0x00000000401d7e0c                BN_mod_exp_mont
                0x00000000401d83eb                BN_mod_exp_mont_word
                0x00000000401d882d                BN_mod_exp
                0x00000000401d8879                BN_mod_exp_simple
                0x00000000401d8cf0                BN_gcd
                0x00000000401d8f06                BN_mod_inverse
                0x00000000401d9980                BN_nnmod
                0x00000000401d99dc                BN_mod_add
                0x00000000401d9a2a                BN_mod_add_quick
                0x00000000401d9a7e                BN_mod_sub
                0x00000000401d9acc                BN_mod_sub_quick
                0x00000000401d9b14                BN_mod_mul
                0x00000000401d9bcc                BN_mod_sqr
                0x00000000401d9c22                BN_mod_lshift1
                0x00000000401d9c70                BN_mod_lshift1_quick
                0x00000000401d9cc4                BN_mod_lshift_quick
                0x00000000401d9dbf                BN_mod_lshift
                0x00000000401da1cc                BN_mod_mul_montgomery
                0x00000000401da281                BN_from_montgomery
                0x00000000401da30b                BN_MONT_CTX_init
                0x00000000401da354                BN_MONT_CTX_new
                0x00000000401da392                BN_MONT_CTX_free
                0x00000000401da3d3                BN_MONT_CTX_set
                0x00000000401da5cd                BN_MONT_CTX_copy
                0x00000000401da64d                BN_MONT_CTX_set_locked
                0x00000000401da750                bn_sub_part_words
                0x00000000401da9e3                bn_add_part_words
                0x00000000401dada1                bn_mul_normal
                0x00000000401daf09                bn_mul_recursive
                0x00000000401db39b                bn_mul_high
                0x00000000401db817                bn_mul_part_recursive
                0x00000000401dbceb                BN_mul
                0x00000000401dc03b                bn_mul_low_normal
                0x00000000401dc11d                bn_mul_low_recursive
                0x00000000401dc357                BN_GENCB_call
                0x00000000401dc3a5                BN_is_prime_fasttest_ex
                0x00000000401dc874                BN_is_prime_ex
                0x00000000401dc887                BN_generate_prime_ex
                0x00000000401dcdd8                BN_RECP_CTX_init
                0x00000000401dce07                BN_RECP_CTX_new
                0x00000000401dce45                BN_RECP_CTX_free
                0x00000000401dce79                BN_RECP_CTX_set
                0x00000000401dcecf                BN_reciprocal
                0x00000000401dcf68                BN_div_recp
                0x00000000401dd213                BN_mod_mul_reciprocal
                0x00000000401dd2dc                BN_lshift1
                0x00000000401dd39b                BN_rshift1
                0x00000000401dd473                BN_lshift
                0x00000000401dd5d3                BN_rshift
                0x00000000401dd780                bn_sqr_normal
                0x00000000401dd85c                bn_sqr_recursive
                0x00000000401dda1a                BN_sqr
                0x00000000401ddd04                BIO_s_null
                0x00000000401ddd10                ERR_load_BUF_strings
                0x00000000401ddd50                CAST_cfb64_encrypt
                0x00000000401ddf38                CAST_ecb_encrypt
                0x00000000401ddfe8                CAST_encrypt
                0x00000000401de444                CAST_decrypt
                0x00000000401de8c6                CAST_cbc_encrypt
                0x00000000401dee58                CAST_ofb64_encrypt
                0x00000000401defe8                CAST_set_key
                0x00000000401dfa80                DES_ede3_cfb64_encrypt
                0x00000000401dfcab                DES_ede3_cfb_encrypt
                0x00000000401e04b0                DES_cfb64_encrypt
                0x00000000401e06d0                DES_cfb_encrypt
                0x00000000401e0cfc                ERR_load_COMP_strings
                0x00000000401e0d34                ERR_load_CONF_strings
                0x00000000401e0d6c                ERR_load_CRYPTO_strings
                0x00000000401e0db0                d2i_PrivateKey
                0x00000000401e0f11                d2i_AutoPrivateKey
                0x00000000401e107e                d2i_DHparams
                0x00000000401e108e                i2d_DHparams
                0x00000000401e109e                DHparams_dup
                0x00000000401e10c0                DH_check
                0x00000000401e11f9                DH_check_pub_key
                0x00000000401e12a4                ERR_load_DH_strings
                0x00000000401e12e0                DH_generate_parameters_ex
                0x00000000401e14e8                EVP_MD_CTX_init
                0x00000000401e14fd                EVP_MD_CTX_create
                0x00000000401e1534                EVP_DigestInit_ex
                0x00000000401e1613                EVP_DigestInit
                0x00000000401e1648                EVP_DigestUpdate
                0x00000000401e1654                EVP_DigestFinal_ex
                0x00000000401e16ef                EVP_MD_CTX_cleanup
                0x00000000401e178c                EVP_MD_CTX_destroy
                0x00000000401e17ac                EVP_Digest
                0x00000000401e1856                EVP_MD_CTX_copy_ex
                0x00000000401e1993                EVP_MD_CTX_copy
                0x00000000401e19c3                EVP_DigestFinal
                0x00000000401e1aae                d2i_DSA_SIG
                0x00000000401e1abe                i2d_DSA_SIG
                0x00000000401e1ace                DSA_SIG_new
                0x00000000401e1ade                DSA_SIG_free
                0x00000000401e1aee                d2i_DSAPrivateKey
                0x00000000401e1afe                i2d_DSAPrivateKey
                0x00000000401e1b0e                d2i_DSAparams
                0x00000000401e1b1e                i2d_DSAparams
                0x00000000401e1b2e                d2i_DSAPublicKey
                0x00000000401e1b3e                i2d_DSAPublicKey
                0x00000000401e1b4e                DSAparams_dup
                0x00000000401e1b64                ERR_load_DSA_strings
                0x00000000401e1ba0                dsa_builtin_paramgen
                0x00000000401e2495                DSA_generate_parameters_ex
                0x00000000401e2540                DSA_generate_key
                0x00000000401e26a8                DSA_set_default_method
                0x00000000401e26b5                DSA_get_default_method
                0x00000000401e26d8                DSA_set_method
                0x00000000401e271f                DSA_new_method
                0x00000000401e2820                DSA_new
                0x00000000401e2830                DSA_free
                0x00000000401e28ff                DSA_up_ref
                0x00000000401e292c                DSA_size
                0x00000000401e2981                DSA_get_ex_new_index
                0x00000000401e29a0                DSA_set_ex_data
                0x00000000401e29af                DSA_get_ex_data
                0x00000000401e29be                DSA_dup_DH
                0x00000000401e335c                DSA_OpenSSL
                0x00000000401e3368                DSA_do_sign
                0x00000000401e3375                DSA_sign
                0x00000000401e33f9                DSA_sign_setup
                0x00000000401e3408                DSA_do_verify
                0x00000000401e3415                DSA_verify
                0x00000000401e34a0                ERR_load_DSO_strings
                0x00000000401e3df1                EC_GROUP_get_basis_type
                0x00000000401e3e56                EC_GROUP_get_trinomial_basis
                0x00000000401e3edf                EC_GROUP_get_pentanomial_basis
                0x00000000401e3fb6                X9_62_PENTANOMIAL_new
                0x00000000401e3fc6                X9_62_PENTANOMIAL_free
                0x00000000401e3fd6                X9_62_CHARACTERISTIC_TWO_new
                0x00000000401e3fe6                X9_62_CHARACTERISTIC_TWO_free
                0x00000000401e3ff6                ECPARAMETERS_new
                0x00000000401e4006                ECPARAMETERS_free
                0x00000000401e4016                d2i_ECPKPARAMETERS
                0x00000000401e4026                i2d_ECPKPARAMETERS
                0x00000000401e4036                ECPKPARAMETERS_new
                0x00000000401e4046                ECPKPARAMETERS_free
                0x00000000401e4c4e                d2i_EC_PRIVATEKEY
                0x00000000401e4c5e                i2d_EC_PRIVATEKEY
                0x00000000401e4c6e                EC_PRIVATEKEY_new
                0x00000000401e4c7e                EC_PRIVATEKEY_free
                0x00000000401e4c8e                d2i_ECPKParameters
                0x00000000401e4d4b                i2d_ECPKParameters
                0x00000000401e4dd9                d2i_ECPrivateKey
                0x00000000401e5056                i2d_ECPrivateKey
                0x00000000401e53e6                i2d_ECParameters
                0x00000000401e541e                d2i_ECParameters
                0x00000000401e5504                o2i_ECPublicKey
                0x00000000401e55fe                i2o_ECPublicKey
                0x00000000401e5748                EC_GROUP_new_by_curve_name
                0x00000000401e5c5c                EC_get_builtin_curves
                0x00000000401e5cb0                EC_GROUP_new_curve_GFp
                0x00000000401e5d98                EC_GROUP_new_curve_GF2m
                0x00000000401e5e14                ERR_load_EC_strings
                0x00000000401e5e50                EC_KEY_new
                0x00000000401e5edb                EC_KEY_free
                0x00000000401e5f5d                EC_KEY_new_by_curve_name
                0x00000000401e5fa8                EC_KEY_copy
                0x00000000401e6163                EC_KEY_dup
                0x00000000401e61ad                EC_KEY_up_ref
                0x00000000401e61da                EC_KEY_generate_key
                0x00000000401e63b9                EC_KEY_check_key
                0x00000000401e6669                EC_KEY_get0_group
                0x00000000401e6673                EC_KEY_set_group
                0x00000000401e66b6                EC_KEY_get0_private_key
                0x00000000401e66c0                EC_KEY_set_private_key
                0x00000000401e6703                EC_KEY_get0_public_key
                0x00000000401e670d                EC_KEY_set_public_key
                0x00000000401e6754                EC_KEY_get_enc_flags
                0x00000000401e675d                EC_KEY_set_enc_flags
                0x00000000401e6766                EC_KEY_get_conv_form
                0x00000000401e676f                EC_KEY_set_conv_form
                0x00000000401e6786                EC_KEY_get_key_method_data
                0x00000000401e6795                EC_KEY_insert_key_method_data
                0x00000000401e6834                EC_KEY_set_asn1_flag
                0x00000000401e6848                EC_KEY_precompute_mult
                0x00000000401e6870                EC_GROUP_new
                0x00000000401e6980                EC_GROUP_method_of
                0x00000000401e6989                EC_METHOD_get_field_type
                0x00000000401e6991                EC_GROUP_get0_generator
                0x00000000401e699b                EC_GROUP_get_order
                0x00000000401e69d0                EC_GROUP_get_cofactor
                0x00000000401e6a05                EC_GROUP_set_curve_name
                0x00000000401e6a0e                EC_GROUP_get_curve_name
                0x00000000401e6a17                EC_GROUP_set_asn1_flag
                0x00000000401e6a20                EC_GROUP_get_asn1_flag
                0x00000000401e6a29                EC_GROUP_set_point_conversion_form
                0x00000000401e6a32                EC_GROUP_get_point_conversion_form
                0x00000000401e6a3b                EC_GROUP_set_seed
                0x00000000401e6ace                EC_GROUP_get0_seed
                0x00000000401e6ad8                EC_GROUP_get_seed_len
                0x00000000401e6ae2                EC_GROUP_set_curve_GFp
                0x00000000401e6b21                EC_GROUP_get_curve_GFp
                0x00000000401e6b5b                EC_GROUP_set_curve_GF2m
                0x00000000401e6b95                EC_GROUP_get_curve_GF2m
                0x00000000401e6bd1                EC_GROUP_get_degree
                0x00000000401e6c0b                EC_GROUP_check_discriminant
                0x00000000401e6c45                EC_EX_DATA_set_data
                0x00000000401e6d15                EC_EX_DATA_get_data
                0x00000000401e6d4a                EC_EX_DATA_free_data
                0x00000000401e6d99                EC_EX_DATA_clear_free_data
                0x00000000401e6de8                EC_EX_DATA_free_all_data
                0x00000000401e6e34                EC_EX_DATA_clear_free_all_data
                0x00000000401e6e80                EC_POINT_new
                0x00000000401e6f4e                EC_POINT_free
                0x00000000401e6f7c                EC_GROUP_free
                0x00000000401e6fe1                EC_POINT_clear_free
                0x00000000401e7029                EC_GROUP_clear_free
                0x00000000401e70b5                EC_POINT_copy
                0x00000000401e7121                EC_GROUP_set_generator
                0x00000000401e7210                EC_GROUP_copy
                0x00000000401e743a                EC_GROUP_dup
                0x00000000401e7490                EC_POINT_dup
                0x00000000401e74e6                EC_POINT_method_of
                0x00000000401e74ef                EC_POINT_set_to_infinity
                0x00000000401e7554                EC_POINT_set_Jprojective_coordinates_GFp
                0x00000000401e75b9                EC_POINT_get_Jprojective_coordinates_GFp
                0x00000000401e7621                EC_POINT_set_affine_coordinates_GFp
                0x00000000401e7689                EC_POINT_set_affine_coordinates_GF2m
                0x00000000401e76f1                EC_POINT_get_affine_coordinates_GFp
                0x00000000401e7759                EC_POINT_get_affine_coordinates_GF2m
                0x00000000401e77c1                EC_POINT_set_compressed_coordinates_GFp
                0x00000000401e7829                EC_POINT_set_compressed_coordinates_GF2m
                0x00000000401e7891                EC_POINT_point2oct
                0x00000000401e78f9                EC_POINT_oct2point
                0x00000000401e7961                EC_POINT_add
                0x00000000401e79d3                EC_POINT_dbl
                0x00000000401e7a41                EC_POINT_invert
                0x00000000401e7aab                EC_POINT_is_at_infinity
                0x00000000401e7b13                EC_POINT_is_on_curve
                0x00000000401e7b7b                EC_POINT_cmp
                0x00000000401e7be8                EC_GROUP_cmp
                0x00000000401e7e6d                EC_POINT_make_affine
                0x00000000401e7ed5                EC_POINTs_make_affine
                0x00000000401e7f61                EC_POINTs_mul
                0x00000000401e7f91                EC_POINT_mul
                0x00000000401e7fc9                EC_GROUP_precompute_mult
                0x00000000401e7ff6                EC_GROUP_have_precompute_mult
                0x00000000401e842e                ec_wNAF_mul
                0x00000000401e930f                ec_wNAF_precompute_mult
                0x00000000401e9960                ec_wNAF_have_precompute_mult
                0x00000000401e9990                EC_POINT_point2bn
                0x00000000401e9a56                EC_POINT_bn2point
                0x00000000401e9b4f                EC_POINT_point2hex
                0x00000000401e9c58                EC_POINT_hex2point
                0x00000000401e9cc8                ERR_load_ECDH_strings
                0x00000000401e9d00                ECDH_compute_key
                0x00000000401e9da5                ECDH_set_default_method
                0x00000000401e9db2                ECDH_get_default_method
                0x00000000401e9e69                ecdh_check
                0x00000000401e9ec9                ECDH_set_method
                0x00000000401e9ef3                ECDH_get_ex_new_index
                0x00000000401e9f12                ECDH_set_ex_data
                0x00000000401e9f53                ECDH_get_ex_data
                0x00000000401ea341                ECDH_OpenSSL
                0x00000000401ea34c                ec_GFp_mont_field_set_to_one
                0x00000000401ea396                ec_GFp_mont_field_decode
                0x00000000401ea3d9                ec_GFp_mont_field_encode
                0x00000000401ea426                ec_GFp_mont_field_sqr
                0x00000000401ea46f                ec_GFp_mont_field_mul
                0x00000000401ea4b8                ec_GFp_mont_group_set_curve
                0x00000000401ea660                ec_GFp_mont_group_copy
                0x00000000401ea748                ec_GFp_mont_group_clear_finish
                0x00000000401ea79b                ec_GFp_mont_group_finish
                0x00000000401ea7ee                ec_GFp_mont_group_init
                0x00000000401ea81c                EC_GFp_mont_method
                0x00000000401ea830                ec_GFp_nist_field_sqr
                0x00000000401ea90b                ec_GFp_nist_field_mul
                0x00000000401ea9f4                ec_GFp_nist_group_set_curve
                0x00000000401eab7e                ec_GFp_nist_group_copy
                0x00000000401eab97                EC_GFp_nist_method
                0x00000000401eabb0                ec_GFp_simple_is_at_infinity
                0x00000000401eabc0                ec_GFp_simple_field_sqr
                0x00000000401eabd8                ec_GFp_simple_field_mul
                0x00000000401eabf3                ec_GFp_simple_point_copy
                0x00000000401eac58                ec_GFp_simple_group_copy
                0x00000000401eaccf                ec_GFp_simple_point_set_to_infinity
                0x00000000401eacef                ec_GFp_simple_get_Jprojective_coordinates_GFp
                0x00000000401eae76                ec_GFp_simple_group_get_curve
                0x00000000401eafe5                ec_GFp_simple_point_clear_finish
                0x00000000401eb01a                ec_GFp_simple_group_clear_finish
                0x00000000401eb04e                ec_GFp_simple_points_make_affine
                0x00000000401eb5be                ec_GFp_simple_point_get_affine_coordinates
                0x00000000401eb8fd                ec_GFp_simple_make_affine
                0x00000000401eba14                ec_GFp_simple_cmp
                0x00000000401ebcc7                ec_GFp_simple_is_on_curve
                0x00000000401ebfcf                ec_GFp_simple_invert
                0x00000000401ec018                ec_GFp_simple_dbl
                0x00000000401ec4c4                ec_GFp_simple_add
                0x00000000401ecacb                ec_GFp_simple_group_get_degree
                0x00000000401ecada                ec_GFp_simple_oct2point
                0x00000000401ece67                ec_GFp_simple_point2oct
                0x00000000401ed1e6                ec_GFp_simple_set_Jprojective_coordinates_GFp
                0x00000000401ed3cc                ec_GFp_simple_set_compressed_coordinates
                0x00000000401ed858                ec_GFp_simple_point_set_affine_coordinates
                0x00000000401ed8e5                ec_GFp_simple_point_finish
                0x00000000401ed913                ec_GFp_simple_group_finish
                0x00000000401ed947                ec_GFp_simple_point_init
                0x00000000401ed981                ec_GFp_simple_group_init
                0x00000000401ed9c4                ec_GFp_simple_group_check_discriminant
                0x00000000401edbf5                ec_GFp_simple_group_set_curve
                0x00000000401edded                EC_GFp_simple_method
                0x00000000401eddf8                ERR_load_ECDSA_strings
                0x00000000401ede69                ECDSA_set_default_method
                0x00000000401ede76                ECDSA_get_default_method
                0x00000000401edf2d                ecdsa_check
                0x00000000401edf8d                ECDSA_set_method
                0x00000000401edfb7                ECDSA_size
                0x00000000401ee079                ECDSA_get_ex_new_index
                0x00000000401ee098                ECDSA_set_ex_data
                0x00000000401ee0d9                ECDSA_get_ex_data
                0x00000000401eee0b                ECDSA_OpenSSL
                0x00000000401eee18                ECDSA_do_sign_ex
                0x00000000401eee84                ECDSA_do_sign
                0x00000000401eee9c                ECDSA_sign_ex
                0x00000000401eef28                ECDSA_sign
                0x00000000401eef4a                ECDSA_sign_setup
                0x00000000401eefa8                ECDSA_do_verify
                0x00000000401ef006                ECDSA_verify
                0x00000000401ef090                EVP_EncodeInit
                0x00000000401ef0aa                EVP_EncodeBlock
                0x00000000401ef1e5                EVP_EncodeFinal
                0x00000000401ef242                EVP_EncodeUpdate
                0x00000000401ef372                EVP_DecodeInit
                0x00000000401ef393                EVP_DecodeBlock
                0x00000000401ef4f5                EVP_DecodeUpdate
                0x00000000401ef7cf                EVP_DecodeFinal
                0x00000000401ef830                EVP_set_pw_prompt
                0x00000000401ef85d                EVP_get_pw_prompt
                0x00000000401ef878                EVP_read_pw_string_min
                0x00000000401ef952                EVP_read_pw_string
                0x00000000401ef96a                EVP_BytesToKey
                0x00000000401efc35                EVP_PBE_alg_add_type
                0x00000000401efcf5                EVP_PBE_alg_add
                0x00000000401efd65                EVP_PBE_find
                0x00000000401efe2c                EVP_PBE_CipherInit
                0x00000000401f0006                EVP_PBE_cleanup
                0x00000000401f0030                EVP_PKCS82PKEY
                0x00000000401f016b                EVP_PKEY2PKCS8_broken
                0x00000000401f0273                EVP_PKEY2PKCS8
                0x00000000401f0283                PKCS8_set_broken
                0x00000000401f02d5                EVP_PKEY_get_attr_count
                0x00000000401f02e4                EVP_PKEY_get_attr_by_NID
                0x00000000401f02f3                EVP_PKEY_get_attr_by_OBJ
                0x00000000401f0302                EVP_PKEY_get_attr
                0x00000000401f0311                EVP_PKEY_delete_attr
                0x00000000401f0320                EVP_PKEY_add1_attr
                0x00000000401f0338                EVP_PKEY_add1_attr_by_OBJ
                0x00000000401f0350                EVP_PKEY_add1_attr_by_NID
                0x00000000401f0368                EVP_PKEY_add1_attr_by_txt
                0x00000000401f0380                HMAC_Init_ex
                0x00000000401f05b4                HMAC_Update
                0x00000000401f05c3                HMAC_Final
                0x00000000401f0658                HMAC_CTX_init
                0x00000000401f0686                HMAC_Init
                0x00000000401f06e2                HMAC_CTX_copy
                0x00000000401f0778                HMAC_CTX_cleanup
                0x00000000401f07b8                HMAC
                0x00000000401f0889                HMAC_CTX_set_flags
                0x00000000401f08d0                i2d_PrivateKey
                0x00000000401f12c0                RAND_SSLeay
                0x00000000401f12f4                d2i_NETSCAPE_CERT_SEQUENCE
                0x00000000401f1304                i2d_NETSCAPE_CERT_SEQUENCE
                0x00000000401f1314                NETSCAPE_CERT_SEQUENCE_new
                0x00000000401f1324                NETSCAPE_CERT_SEQUENCE_free
                0x00000000401f1334                OPENSSL_gmtime
                0x00000000401f133f                OPENSSL_gmtime_adj
                0x00000000401f15e8                PKCS12_PBE_add
                0x00000000401f15ee                PKCS12_PBE_keyivgen
                0x00000000401f17fc                PKCS12_key_gen_uni
                0x00000000401f1d19                PKCS12_key_gen_asc
                0x00000000401f1df8                PKCS8_decrypt
                0x00000000401f1e1c                OPENSSL_asc2uni
                0x00000000401f1eab                OPENSSL_uni2asc
                0x00000000401f1f2c                i2d_PKCS12_bio
                0x00000000401f1f42                d2i_PKCS12_bio
                0x00000000401f1f58                PKCS12_x5092certbag
                0x00000000401f1f72                PKCS12_x509crl2certbag
                0x00000000401f1f8c                PKCS12_certbag2x509
                0x00000000401f1fe3                PKCS12_certbag2x509crl
                0x00000000401f203c                PKCS5_PBE_add
                0x00000000401f2042                PKCS5_PBE_keyivgen
                0x00000000401f2324                PKCS5_PBKDF2_HMAC
                0x00000000401f2544                PKCS5_PBKDF2_HMAC_SHA1
                0x00000000401f25b2                PKCS5_v2_PBE_keyivgen
                0x00000000401f29b4                d2i_PBEPARAM
                0x00000000401f29c4                i2d_PBEPARAM
                0x00000000401f29d4                PBEPARAM_new
                0x00000000401f29e4                PBEPARAM_free
                0x00000000401f29f4                PKCS5_pbe_set0_algor
                0x00000000401f2baf                PKCS5_pbe_set
                0x00000000401f2c44                d2i_PBE2PARAM
                0x00000000401f2c54                i2d_PBE2PARAM
                0x00000000401f2c64                PBE2PARAM_new
                0x00000000401f2c74                PBE2PARAM_free
                0x00000000401f2c84                d2i_PBKDF2PARAM
                0x00000000401f2c94                i2d_PBKDF2PARAM
                0x00000000401f2ca4                PBKDF2PARAM_new
                0x00000000401f2cb4                PBKDF2PARAM_free
                0x00000000401f2cc4                PKCS5_pbe2_set_iv
                0x00000000401f31dd                PKCS5_pbe2_set
                0x00000000401f3220                d2i_PKCS8_PRIV_KEY_INFO
                0x00000000401f3230                i2d_PKCS8_PRIV_KEY_INFO
                0x00000000401f3240                PKCS8_PRIV_KEY_INFO_new
                0x00000000401f3250                PKCS8_PRIV_KEY_INFO_free
                0x00000000401f3260                PKCS8_pkey_set0
                0x00000000401f332b                PKCS8_pkey_get0
                0x00000000401f33c0                EVP_SignFinal
                0x00000000401f35a0                EVP_VerifyFinal
                0x00000000401f3791                policy_cache_free
                0x00000000401f37d1                policy_cache_set
                0x00000000401f3b25                policy_cache_find_data
                0x00000000401f3b60                policy_data_free
                0x00000000401f3ba5                policy_data_new
                0x00000000401f3ca4                policy_cache_set_mapping
                0x00000000401f3f0e                X509_policy_tree_free
                0x00000000401f3fba                X509_policy_check
                0x00000000401f4a28                d2i_PKCS8PrivateKey_bio
                0x00000000401f4b3c                PEM_read_bio_PKCS8
                0x00000000401f4b5d                PEM_write_bio_PKCS8
                0x00000000401f4ba1                PEM_read_bio_PKCS8_PRIV_KEY_INFO
                0x00000000401f4bc2                PEM_write_bio_PKCS8_PRIV_KEY_INFO
                0x00000000401f4e08                i2d_PKCS8PrivateKey_nid_bio
                0x00000000401f4e39                i2d_PKCS8PrivateKey_bio
                0x00000000401f4e6a                PEM_write_bio_PKCS8PrivateKey
                0x00000000401f4e9b                PEM_write_bio_PKCS8PrivateKey_nid
                0x00000000401f4ecc                PKCS7_add_attrib_smimecap
                0x00000000401f4f4f                PKCS7_get_smimecap
                0x00000000401f4f9e                PKCS7_simple_smimecap
                0x00000000401f50e4                PKCS7_add_attrib_content_type
                0x00000000401f5143                PKCS7_add0_attrib_signing_time
                0x00000000401f51a6                PKCS7_add1_attrib_digest
                0x00000000401f6b22                RSA_PKCS1_SSLeay
                0x00000000401f6b30                RSA_padding_add_none
                0x00000000401f6b9c                RSA_padding_check_none
                0x00000000401f6c24                PKCS1_MGF1
                0x00000000401f6e19                RSA_padding_check_PKCS1_OAEP
                0x00000000401f709d                RSA_padding_add_PKCS1_OAEP
                0x00000000401f72a0                RSA_padding_add_PKCS1_type_1
                0x00000000401f733b                RSA_padding_check_PKCS1_type_1
                0x00000000401f7484                RSA_padding_add_PKCS1_type_2
                0x00000000401f7545                RSA_padding_check_PKCS1_type_2
                0x00000000401f7660                RSA_verify_PKCS1_PSS
                0x00000000401f7a13                RSA_padding_add_PKCS1_PSS
                0x00000000401f7cec                RSA_padding_add_SSLv23
                0x00000000401f7dc0                RSA_padding_check_SSLv23
                0x00000000401f7f20                RSA_padding_add_X931
                0x00000000401f7fd6                RSA_padding_check_X931
                0x00000000401f80f2                RSA_X931_hash_id
                0x00000000401f8134                ASN1_bn_print
                0x00000000401f8330                X509_ocspid_print
                0x00000000401f84b8                X509_signature_print
                0x00000000401f85ba                ASN1_STRING_print
                0x00000000401f8673                ASN1_GENERALIZEDTIME_print
                0x00000000401f8928                ASN1_UTCTIME_print
                0x00000000401f8a94                ASN1_TIME_print
                0x00000000401f8acd                X509_print_ex
                0x00000000401f9011                X509_print
                0x00000000401f9026                X509_NAME_print
                0x00000000401f911c                X509_CERT_AUX_print
                0x00000000401f96bc                UI_free
                0x00000000401f96fb                UI_add_input_string
                0x00000000401f972c                UI_dup_input_string
                0x00000000401f97d4                UI_add_verify_string
                0x00000000401f9805                UI_dup_verify_string
                0x00000000401f98ad                UI_add_input_boolean
                0x00000000401f98d7                UI_dup_input_boolean
                0x00000000401f9a7f                UI_add_info_string
                0x00000000401f9abc                UI_dup_info_string
                0x00000000401f9b43                UI_add_error_string
                0x00000000401f9b80                UI_dup_error_string
                0x00000000401f9c07                UI_construct_prompt
                0x00000000401f9d37                UI_add_user_data
                0x00000000401f9d45                UI_get0_user_data
                0x00000000401f9d4f                UI_process
                0x00000000401f9e84                UI_ctrl
                0x00000000401f9f11                UI_get_ex_new_index
                0x00000000401f9f30                UI_set_ex_data
                0x00000000401f9f3f                UI_get_ex_data
                0x00000000401f9f4e                UI_set_default_method
                0x00000000401f9f5b                UI_get_default_method
                0x00000000401f9f7e                UI_new_method
                0x00000000401fa00d                UI_new
                0x00000000401fa01d                UI_get_method
                0x00000000401fa026                UI_set_method
                0x00000000401fa032                UI_create_method
                0x00000000401fa08b                UI_destroy_method
                0x00000000401fa0b5                UI_method_set_opener
                0x00000000401fa0d0                UI_method_set_writer
                0x00000000401fa0eb                UI_method_set_flusher
                0x00000000401fa106                UI_method_set_reader
                0x00000000401fa121                UI_method_set_closer
                0x00000000401fa13c                UI_method_set_prompt_constructor
                0x00000000401fa157                UI_method_get_opener
                0x00000000401fa16d                UI_method_get_writer
                0x00000000401fa183                UI_method_get_flusher
                0x00000000401fa199                UI_method_get_reader
                0x00000000401fa1af                UI_method_get_closer
                0x00000000401fa1c5                UI_method_get_prompt_constructor
                0x00000000401fa1db                UI_get_string_type
                0x00000000401fa1ed                UI_get_input_flags
                0x00000000401fa200                UI_get0_output_string
                0x00000000401fa216                UI_get0_action_string
                0x00000000401fa23f                UI_get0_result_string
                0x00000000401fa264                UI_get0_result
                0x00000000401fa2f6                UI_get0_test_string
                0x00000000401fa316                UI_get_result_minsize
                0x00000000401fa33a                UI_get_result_maxsize
                0x00000000401fa35e                UI_set_result
                0x00000000401fa854                UI_OpenSSL
                0x00000000401fa860                d2i_AUTHORITY_KEYID
                0x00000000401fa870                i2d_AUTHORITY_KEYID
                0x00000000401fa880                AUTHORITY_KEYID_new
                0x00000000401fa890                AUTHORITY_KEYID_free
                0x00000000401fab33                POLICYINFO_free
                0x00000000401fab43                d2i_CERTIFICATEPOLICIES
                0x00000000401fab53                i2d_CERTIFICATEPOLICIES
                0x00000000401fab63                CERTIFICATEPOLICIES_new
                0x00000000401fab73                CERTIFICATEPOLICIES_free
                0x00000000401fab83                d2i_POLICYINFO
                0x00000000401fab93                i2d_POLICYINFO
                0x00000000401faba3                POLICYINFO_new
                0x00000000401fabb3                d2i_POLICYQUALINFO
                0x00000000401fabc3                i2d_POLICYQUALINFO
                0x00000000401fabd3                POLICYQUALINFO_new
                0x00000000401fabe3                POLICYQUALINFO_free
                0x00000000401fabf3                d2i_USERNOTICE
                0x00000000401fac03                i2d_USERNOTICE
                0x00000000401fac13                USERNOTICE_new
                0x00000000401fac23                USERNOTICE_free
                0x00000000401fac33                d2i_NOTICEREF
                0x00000000401fac43                i2d_NOTICEREF
                0x00000000401fac53                NOTICEREF_new
                0x00000000401fb598                NOTICEREF_free
                0x00000000401fb5a8                X509_POLICY_NODE_print
                0x00000000401fbbe0                DIST_POINT_free
                0x00000000401fbbf0                d2i_DIST_POINT_NAME
                0x00000000401fbc00                i2d_DIST_POINT_NAME
                0x00000000401fbc10                DIST_POINT_NAME_new
                0x00000000401fbe2a                DIST_POINT_NAME_free
                0x00000000401fbe3a                d2i_DIST_POINT
                0x00000000401fbe4a                i2d_DIST_POINT
                0x00000000401fbe5a                DIST_POINT_new
                0x00000000401fc0fd                d2i_CRL_DIST_POINTS
                0x00000000401fc10d                i2d_CRL_DIST_POINTS
                0x00000000401fc11d                CRL_DIST_POINTS_new
                0x00000000401fc12d                CRL_DIST_POINTS_free
                0x00000000401fc13d                d2i_ISSUING_DIST_POINT
                0x00000000401fc14d                i2d_ISSUING_DIST_POINT
                0x00000000401fc15d                ISSUING_DIST_POINT_new
                0x00000000401fc16d                ISSUING_DIST_POINT_free
                0x00000000401fc37a                DIST_POINT_set_dpname
                0x00000000401fc468                i2d_GENERAL_NAME
                0x00000000401fc478                d2i_GENERAL_NAME
                0x00000000401fc488                d2i_OTHERNAME
                0x00000000401fc498                i2d_OTHERNAME
                0x00000000401fc4a8                OTHERNAME_new
                0x00000000401fc4b8                OTHERNAME_free
                0x00000000401fc4c8                d2i_EDIPARTYNAME
                0x00000000401fc4d8                i2d_EDIPARTYNAME
                0x00000000401fc4e8                EDIPARTYNAME_new
                0x00000000401fc4f8                EDIPARTYNAME_free
                0x00000000401fc508                GENERAL_NAME_new
                0x00000000401fc518                GENERAL_NAME_free
                0x00000000401fc528                d2i_GENERAL_NAMES
                0x00000000401fc538                i2d_GENERAL_NAMES
                0x00000000401fc548                GENERAL_NAMES_new
                0x00000000401fc558                GENERAL_NAMES_free
                0x00000000401fc568                GENERAL_NAME_dup
                0x00000000401fc580                OTHERNAME_cmp
                0x00000000401fc5ce                GENERAL_NAME_cmp
                0x00000000401fc656                GENERAL_NAME_set0_value
                0x00000000401fc68e                GENERAL_NAME_get0_value
                0x00000000401fc6d2                GENERAL_NAME_set0_othername
                0x00000000401fc728                GENERAL_NAME_get0_otherName
                0x00000000401fcd8e                GENERAL_SUBTREE_new
                0x00000000401fcd9e                GENERAL_SUBTREE_free
                0x00000000401fcdae                NAME_CONSTRAINTS_new
                0x00000000401fcdbe                NAME_CONSTRAINTS_free
                0x00000000401fcf5c                NAME_CONSTRAINTS_check
                0x00000000401fd08e                POLICY_CONSTRAINTS_new
                0x00000000401fd09e                POLICY_CONSTRAINTS_free
                0x00000000401fd2a3                POLICY_MAPPING_free
                0x00000000401fd2b3                POLICY_MAPPING_new
                0x00000000401fd557                X509V3_EXT_val_prn
                0x00000000401fd67e                X509V3_EXT_print
                0x00000000401fd85a                X509V3_extensions_print
                0x00000000401fdd61                X509_PURPOSE_get_count
                0x00000000401fdd80                X509_PURPOSE_get0
                0x00000000401fddb6                X509_PURPOSE_get_by_sname
                0x00000000401fddf6                X509_PURPOSE_get_by_id
                0x00000000401fde36                X509_PURPOSE_set
                0x00000000401fde90                X509_PURPOSE_add
                0x00000000401fe059                X509_PURPOSE_cleanup
                0x00000000401fe0a8                X509_PURPOSE_get_id
                0x00000000401fe0b0                X509_PURPOSE_get0_name
                0x00000000401fe0ba                X509_PURPOSE_get0_sname
                0x00000000401fe0c4                X509_PURPOSE_get_trust
                0x00000000401fe0cd                X509_supported_extension
                0x00000000401fe63e                X509_check_purpose
                0x00000000401fe6d8                X509_check_ca
                0x00000000401fe733                X509_check_akid
                0x00000000401fe810                X509_check_issued
                0x00000000401fe9f0                X509V3_conf_free
                0x00000000401feae9                X509V3_add_value
                0x00000000401fec1a                X509V3_add_value_uchar
                0x00000000401fec25                X509V3_add_value_bool
                0x00000000401fec45                X509V3_add_value_bool_nf
                0x00000000401fec5e                i2s_ASN1_ENUMERATED
                0x00000000401fecd8                i2s_ASN1_INTEGER
                0x00000000401fed52                s2i_ASN1_INTEGER
                0x00000000401fee8f                X509V3_add_value_int
                0x00000000401feef7                X509V3_get_value_bool
                0x00000000401ff06e                X509V3_get_value_int
                0x00000000401ff0df                X509V3_parse_list
                0x00000000401ff312                hex_to_string
                0x00000000401ff3d9                string_to_hex
                0x00000000401ff596                name_cmp
                0x00000000401ff5f5                X509_email_free
                0x00000000401ff761                X509_REQ_get1_email
                0x00000000401ff7d7                X509_get1_email
                0x00000000401ff831                X509_get1_ocsp
                0x00000000401ff8d0                a2i_ipadd
                0x00000000401ffa41                a2i_IPADDRESS_NC
                0x00000000401ffb31                a2i_IPADDRESS
                0x00000000401ffb8d                X509V3_NAME_from_section
                0x00000000401ffc80                X509at_get_attr_count
                0x00000000401ffc8b                X509at_get_attr_by_OBJ
                0x00000000401ffcf9                X509at_get_attr_by_NID
                0x00000000401ffd38                X509at_get_attr
                0x00000000401ffd83                X509at_delete_attr
                0x00000000401ffdce                X509at_add1_attr
                0x00000000401ffea9                X509_ATTRIBUTE_set1_object
                0x00000000401ffef2                X509_ATTRIBUTE_set1_data
                0x000000004020007a                X509_ATTRIBUTE_create_by_OBJ
                0x000000004020014e                X509_ATTRIBUTE_create_by_txt
                0x0000000040200206                X509at_add1_attr_by_txt
                0x000000004020025c                X509_ATTRIBUTE_create_by_NID
                0x00000000402002f6                X509at_add1_attr_by_NID
                0x000000004020034c                X509at_add1_attr_by_OBJ
                0x00000000402003a2                X509_ATTRIBUTE_count
                0x00000000402003c4                X509_ATTRIBUTE_get0_object
                0x00000000402003d9                X509_ATTRIBUTE_get0_type
                0x0000000040200430                X509_ATTRIBUTE_get0_data
                0x0000000040200496                X509at_get0_data_by_OBJ
                0x0000000040200544                X509_CRL_get_ext_count
                0x0000000040200556                X509_CRL_get_ext_by_NID
                0x0000000040200568                X509_CRL_get_ext_by_OBJ
                0x000000004020057a                X509_CRL_get_ext_by_critical
                0x000000004020058c                X509_CRL_get_ext
                0x000000004020059e                X509_CRL_delete_ext
                0x00000000402005b0                X509_CRL_get_ext_d2i
                0x00000000402005c2                X509_CRL_add1_ext_i2d
                0x00000000402005d4                X509_CRL_add_ext
                0x00000000402005ef                X509_get_ext_count
                0x0000000040200601                X509_get_ext_by_NID
                0x0000000040200613                X509_get_ext_by_OBJ
                0x0000000040200625                X509_get_ext_by_critical
                0x0000000040200637                X509_get_ext
                0x0000000040200649                X509_delete_ext
                0x000000004020065b                X509_add_ext
                0x0000000040200676                X509_get_ext_d2i
                0x0000000040200688                X509_add1_ext_i2d
                0x000000004020069a                X509_REVOKED_get_ext_count
                0x00000000402006a9                X509_REVOKED_get_ext_by_NID
                0x00000000402006b8                X509_REVOKED_get_ext_by_OBJ
                0x00000000402006c7                X509_REVOKED_get_ext_by_critical
                0x00000000402006d6                X509_REVOKED_get_ext
                0x00000000402006e5                X509_REVOKED_delete_ext
                0x00000000402006f4                X509_REVOKED_add_ext
                0x000000004020070c                X509_REVOKED_get_ext_d2i
                0x000000004020071b                X509_REVOKED_add1_ext_i2d
                0x000000004020089e                X509_LOOKUP_new
                0x000000004020090d                X509_LOOKUP_free
                0x0000000040200941                X509_LOOKUP_init
                0x0000000040200962                X509_LOOKUP_shutdown
                0x0000000040200983                X509_LOOKUP_ctrl
                0x00000000402009aa                X509_LOOKUP_by_subject
                0x00000000402009d1                X509_LOOKUP_by_issuer_serial
                0x00000000402009f1                X509_LOOKUP_by_fingerprint
                0x0000000040200a11                X509_LOOKUP_by_alias
                0x0000000040200a31                X509_STORE_new
                0x0000000040200b29                X509_STORE_free
                0x0000000040200bb9                X509_STORE_add_lookup
                0x0000000040200c41                X509_OBJECT_up_ref_count
                0x0000000040200c9b                X509_OBJECT_free_contents
                0x0000000040200cc3                X509_OBJECT_idx_by_subject
                0x0000000040200cd3                X509_OBJECT_retrieve_by_subject
                0x0000000040200cff                X509_STORE_get_by_subject
                0x0000000040200e13                X509_STORE_get1_certs
                0x0000000040200fe5                X509_STORE_get1_crls
                0x00000000402011a8                X509_OBJECT_retrieve_match
                0x000000004020127b                X509_STORE_add_crl
                0x000000004020138f                X509_STORE_add_cert
                0x00000000402014a3                X509_STORE_CTX_get1_issuer
                0x0000000040201669                X509_STORE_set_flags
                0x0000000040201678                X509_STORE_set_depth
                0x000000004020168c                X509_STORE_set_purpose
                0x000000004020169b                X509_STORE_set_trust
                0x00000000402016aa                X509_STORE_set1_param
                0x00000000402016b9                X509_STORE_set_verify_cb
                0x00000000402016d0                X509_to_X509_REQ
                0x00000000402017dc                X509_REQ_get_pubkey
                0x0000000040201804                X509_REQ_check_private_key
                0x0000000040201939                X509_REQ_extension_nid
                0x0000000040201978                X509_REQ_get_extension_nids
                0x0000000040201985                X509_REQ_set_extension_nids
                0x0000000040201992                X509_REQ_add_extensions_nid
                0x0000000040201ab5                X509_REQ_add_extensions
                0x0000000040201ac5                X509_REQ_get_attr_count
                0x0000000040201ad7                X509_REQ_get_attr_by_NID
                0x0000000040201ae9                X509_REQ_get_attr_by_OBJ
                0x0000000040201afb                X509_REQ_get_attr
                0x0000000040201b0d                X509_REQ_get_extensions
                0x0000000040201c0f                X509_REQ_delete_attr
                0x0000000040201c21                X509_REQ_add1_attr
                0x0000000040201c3c                X509_REQ_add1_attr_by_OBJ
                0x0000000040201c57                X509_REQ_add1_attr_by_NID
                0x0000000040201c72                X509_REQ_add1_attr_by_txt
                0x0000000040201e15                X509_TRUST_set_default
                0x0000000040201e29                X509_TRUST_get_count
                0x0000000040201e48                X509_TRUST_get0
                0x0000000040201e7c                X509_TRUST_get_by_id
                0x0000000040201ebc                X509_check_trust
                0x0000000040201f1f                X509_TRUST_set
                0x0000000040201f79                X509_TRUST_add
                0x0000000040202125                X509_TRUST_cleanup
                0x0000000040202171                X509_TRUST_get_flags
                0x000000004020217a                X509_TRUST_get0_name
                0x0000000040202184                X509_TRUST_get_trust
                0x0000000040202190                X509v3_get_ext_count
                0x00000000402021a5                X509v3_get_ext_by_OBJ
                0x0000000040202213                X509v3_get_ext_by_NID
                0x0000000040202252                X509v3_get_ext_by_critical
                0x00000000402022c8                X509v3_get_ext
                0x0000000040202313                X509v3_delete_ext
                0x000000004020235e                X509v3_add_ext
                0x0000000040202463                X509_EXTENSION_set_object
                0x00000000402024ac                X509_EXTENSION_set_critical
                0x00000000402024cb                X509_EXTENSION_set_data
                0x00000000402024f5                X509_EXTENSION_create_by_OBJ
                0x00000000402025cf                X509_EXTENSION_create_by_NID
                0x000000004020265b                X509_EXTENSION_get_object
                0x0000000040202670                X509_EXTENSION_get_data
                0x0000000040202686                X509_EXTENSION_get_critical
                0x00000000402026a0                X509_NAME_entry_count
                0x00000000402026b8                X509_NAME_get_index_by_OBJ
                0x000000004020272b                X509_NAME_get_index_by_NID
                0x000000004020276a                X509_NAME_get_entry
                0x00000000402027b8                X509_NAME_delete_entry
                0x0000000040202884                X509_NAME_add_entry
                0x00000000402029f8                X509_NAME_ENTRY_set_object
                0x0000000040202a64                X509_NAME_ENTRY_set_data
                0x0000000040202b49                X509_NAME_ENTRY_create_by_OBJ
                0x0000000040202bfc                X509_NAME_ENTRY_create_by_NID
                0x0000000040202c92                X509_NAME_add_entry_by_NID
                0x0000000040202cf9                X509_NAME_ENTRY_create_by_txt
                0x0000000040202db1                X509_NAME_add_entry_by_txt
                0x0000000040202e18                X509_NAME_add_entry_by_OBJ
                0x0000000040202e7f                X509_NAME_ENTRY_get_object
                0x0000000040202e94                X509_NAME_ENTRY_get_data
                0x0000000040202eaa                X509_NAME_get_text_by_OBJ
                0x0000000040202f2c                X509_NAME_get_text_by_NID
                0x0000000040202f7c                X509_REQ_set_version
                0x0000000040202f98                X509_REQ_set_subject_name
                0x0000000040202fb9                X509_REQ_set_pubkey
                0x0000000040202fdc                d2i_X509_VAL
                0x0000000040202fec                i2d_X509_VAL
                0x0000000040202ffc                X509_VAL_new
                0x000000004020300c                X509_VAL_free
                0x0000000040203020                CRYPTO_cbc128_encrypt
                0x000000004020316b                CRYPTO_cbc128_decrypt
                0x00000000402034b4                CRYPTO_cfb128_encrypt
                0x0000000040203765                CRYPTO_cfb128_1_encrypt
                0x000000004020382f                CRYPTO_cfb128_8_encrypt
                0x000000004020389c                CRYPTO_ofb128_encrypt
                0x00000000402039c8                i2d_ASN1_BOOLEAN
                0x0000000040203a42                d2i_ASN1_BOOLEAN
                0x0000000040203d80                ASN1_mbstring_ncopy
                0x0000000040204285                ASN1_mbstring_copy
                0x00000000402042b0                ASN1_PRINTABLE_type
                0x0000000040204371                ASN1_UNIVERSALSTRING_to_string
                0x000000004020445f                ASN1_STRING_set_default_mask
                0x000000004020446c                ASN1_STRING_get_default_mask
                0x0000000040204479                ASN1_STRING_set_default_mask_asc
                0x000000004020453c                ASN1_STRING_TABLE_get
                0x00000000402045a2                ASN1_STRING_set_by_NID
                0x0000000040204661                ASN1_STRING_TABLE_add
                0x0000000040204796                ASN1_STRING_TABLE_cleanup
                0x00000000402047c0                ASN1_seq_unpack
                0x0000000040204825                ASN1_seq_pack
                0x0000000040204923                ASN1_unpack_string
                0x0000000040204976                ASN1_pack_string
                0x0000000040204a78                ASN1_item_pack
                0x0000000040204b71                ASN1_item_unpack
                0x0000000040204bc8                BN_mod_exp2_mont
                0x0000000040205454                BN_kronecker
                0x000000004020577a                BN_get0_nist_prime_192
                0x0000000040205785                BN_get0_nist_prime_224
                0x0000000040205790                BN_get0_nist_prime_256
                0x000000004020579b                BN_get0_nist_prime_384
                0x00000000402057a6                BN_get0_nist_prime_521
                0x00000000402057b1                BN_nist_mod_192
                0x0000000040205a1f                BN_nist_mod_224
                0x0000000040205d65                BN_nist_mod_256
                0x00000000402061fd                BN_nist_mod_384
                0x000000004020679d                BN_nist_mod_521
                0x0000000040206980                BN_mod_sqrt
                0x000000004020732b                CONF_modules_load
                0x00000000402077ac                CONF_modules_finish
                0x0000000040207826                CONF_modules_unload
                0x00000000402078dc                CONF_module_add
                0x00000000402078fe                CONF_modules_free
                0x0000000040207913                CONF_imodule_get_name
                0x000000004020791d                CONF_imodule_get_value
                0x0000000040207927                CONF_imodule_get_usr_data
                0x0000000040207931                CONF_imodule_set_usr_data
                0x000000004020793b                CONF_imodule_get_module
                0x0000000040207944                CONF_imodule_get_flags
                0x000000004020794e                CONF_imodule_set_flags
                0x0000000040207958                CONF_module_get_usr_data
                0x0000000040207962                CONF_module_set_usr_data
                0x000000004020796c                CONF_get1_default_config_file
                0x00000000402079e7                CONF_modules_load_file
                0x0000000040207ac1                CONF_parse_list
                0x0000000040207bd0                DSO_set_default_method
                0x0000000040207bdd                DSO_get_default_method
                0x0000000040207bea                DSO_get_method
                0x0000000040207bf3                DSO_set_method
                0x0000000040207bff                DSO_new_method
                0x0000000040207cf2                DSO_new
                0x0000000040207d02                DSO_free
                0x0000000040207e18                DSO_flags
                0x0000000040207e2b                DSO_up_ref
                0x0000000040207e7d                DSO_bind_var
                0x0000000040207f1b                DSO_bind_func
                0x0000000040207fb9                DSO_ctrl
                0x0000000040208051                DSO_set_name_converter
                0x0000000040208095                DSO_get_filename
                0x00000000402080c8                DSO_set_filename
                0x00000000402081c5                DSO_load
                0x0000000040208374                DSO_merge
                0x00000000402083d7                DSO_convert_filename
                0x00000000402084e7                DSO_get_loaded_filename
                0x000000004020851a                DSO_pathbyaddr
                0x000000004020858e                DSO_global_lookup
                0x00000000402085e8                DSO_METHOD_openssl
                0x0000000040208600                ec_GF2m_simple_is_at_infinity
                0x0000000040208610                ec_GF2m_simple_points_make_affine
                0x0000000040208679                ec_GF2m_simple_field_div
                0x0000000040208694                ec_GF2m_simple_field_sqr
                0x00000000402086af                ec_GF2m_simple_field_mul
                0x00000000402086cd                ec_GF2m_simple_point_copy
                0x0000000040208732                ec_GF2m_simple_group_get_curve
                0x00000000402087ba                ec_GF2m_simple_point_set_to_infinity
                0x00000000402087da                ec_GF2m_simple_make_affine
                0x00000000402088ee                ec_GF2m_simple_cmp
                0x0000000040208a8b                ec_GF2m_simple_is_on_curve
                0x0000000040208c29                ec_GF2m_simple_invert
                0x0000000040208c93                ec_GF2m_simple_add
                0x00000000402090aa                ec_GF2m_simple_dbl
                0x00000000402090bb                ec_GF2m_simple_oct2point
                0x000000004020947b                ec_GF2m_simple_group_get_degree
                0x000000004020948d                ec_GF2m_simple_point2oct
                0x000000004020983e                ec_GF2m_simple_group_check_discriminant
                0x0000000040209915                ec_GF2m_simple_set_compressed_coordinates
                0x0000000040209ba9                ec_GF2m_simple_point_get_affine_coordinates
                0x0000000040209c9d                ec_GF2m_simple_point_set_affine_coordinates
                0x0000000040209d7d                ec_GF2m_simple_point_clear_finish
                0x0000000040209db2                ec_GF2m_simple_group_clear_finish
                0x0000000040209e22                ec_GF2m_simple_point_finish
                0x0000000040209e50                ec_GF2m_simple_group_finish
                0x0000000040209e84                ec_GF2m_simple_point_init
                0x0000000040209eb7                ec_GF2m_simple_group_init
                0x0000000040209ef0                ec_GF2m_simple_group_set_curve
                0x000000004020a09e                ec_GF2m_simple_group_copy
                0x000000004020a23d                EC_GF2m_simple_method
                0x000000004020a248                d2i_ECDSA_SIG
                0x000000004020a258                i2d_ECDSA_SIG
                0x000000004020a268                ECDSA_SIG_new
                0x000000004020a278                ECDSA_SIG_free
                0x000000004020a29e                ERR_print_errors_cb
                0x000000004020a38e                ERR_print_errors
                0x000000004020a3a4                PKCS12_item_pack_safebag
                0x000000004020a4a0                PKCS12_MAKE_KEYBAG
                0x000000004020a4ff                PKCS12_MAKE_SHKEYBAG
                0x000000004020a5f0                PKCS12_pack_p7data
                0x000000004020a6b4                PKCS12_unpack_p7data
                0x000000004020a709                PKCS12_pack_p7encdata
                0x000000004020a8aa                PKCS12_unpack_p7encdata
                0x000000004020a914                PKCS12_decrypt_skey
                0x000000004020a923                PKCS12_pack_authsafes
                0x000000004020a94a                PKCS12_unpack_authsafes
                0x000000004020a9a8                d2i_PKCS12
                0x000000004020a9b8                i2d_PKCS12
                0x000000004020a9c8                PKCS12_new
                0x000000004020a9d8                PKCS12_free
                0x000000004020a9e8                d2i_PKCS12_MAC_DATA
                0x000000004020a9f8                i2d_PKCS12_MAC_DATA
                0x000000004020aa08                PKCS12_MAC_DATA_new
                0x000000004020aa18                PKCS12_MAC_DATA_free
                0x000000004020aa28                d2i_PKCS12_BAGS
                0x000000004020aa38                i2d_PKCS12_BAGS
                0x000000004020aa48                PKCS12_BAGS_new
                0x000000004020aa58                PKCS12_BAGS_free
                0x000000004020aa68                d2i_PKCS12_SAFEBAG
                0x000000004020aa78                i2d_PKCS12_SAFEBAG
                0x000000004020aa88                PKCS12_SAFEBAG_new
                0x000000004020aa98                PKCS12_SAFEBAG_free
                0x000000004020aaa8                PKCS12_pbe_crypt
                0x000000004020ac28                PKCS12_item_decrypt_d2i
                0x000000004020acf4                PKCS12_item_i2d_encrypt
                0x000000004020ae30                PKCS8_encrypt
                0x000000004020af68                X509_policy_tree_level_count
                0x000000004020af7b                X509_policy_tree_get0_level
                0x000000004020afaa                X509_policy_tree_get0_policies
                0x000000004020afc0                X509_policy_tree_get0_user_policies
                0x000000004020afe2                X509_policy_level_node_count
                0x000000004020b019                X509_policy_level_get0_node
                0x000000004020b044                X509_policy_node_get0_policy
                0x000000004020b05d                X509_policy_node_get0_qualifiers
                0x000000004020b076                X509_policy_node_get0_parent
                0x000000004020b0ab                policy_node_cmp_new
                0x000000004020b0bb                tree_find_sk
                0x000000004020b0f7                level_find_node
                0x000000004020b16b                policy_node_free
                0x000000004020b176                level_add_node
                0x000000004020b272                policy_node_match
                0x000000004020b479                i2v_GENERAL_NAME
                0x000000004020b700                i2v_GENERAL_NAMES
                0x000000004020b764                GENERAL_NAME_print
                0x000000004020b908                a2i_GENERAL_NAME
                0x000000004020bccc                v2i_GENERAL_NAME_ex
                0x000000004020be39                v2i_GENERAL_NAME
                0x000000004020c184                v2i_GENERAL_NAMES
                0x000000004020c27d                d2i_BASIC_CONSTRAINTS
                0x000000004020c28d                i2d_BASIC_CONSTRAINTS
                0x000000004020c29d                BASIC_CONSTRAINTS_new
                0x000000004020c2ad                BASIC_CONSTRAINTS_free
                0x000000004020ca45                X509V3_EXT_nconf
                0x000000004020cb1c                X509V3_EXT_nconf_nid
                0x000000004020cbac                X509V3_EXT_i2d
                0x000000004020cc16                X509V3_EXT_add_nconf_sk
                0x000000004020ccbe                X509V3_EXT_add_nconf
                0x000000004020ccdd                X509V3_EXT_CRL_add_nconf
                0x000000004020ccfc                X509V3_EXT_REQ_add_nconf
                0x000000004020cd5b                X509V3_get_string
                0x000000004020cda6                X509V3_get_section
                0x000000004020cdf2                X509V3_string_free
                0x000000004020ce10                X509V3_section_free
                0x000000004020ce2e                X509V3_set_nconf
                0x000000004020ce40                X509V3_set_ctx
                0x000000004020ce59                X509V3_EXT_conf
                0x000000004020cea2                X509V3_EXT_conf_nid
                0x000000004020ceeb                X509V3_set_conf_lhash
                0x000000004020cefd                X509V3_EXT_add_conf
                0x000000004020cf46                X509V3_EXT_CRL_add_conf
                0x000000004020cf8f                X509V3_EXT_REQ_add_conf
                0x000000004020d12f                ACCESS_DESCRIPTION_free
                0x000000004020d13f                d2i_ACCESS_DESCRIPTION
                0x000000004020d14f                i2d_ACCESS_DESCRIPTION
                0x000000004020d15f                ACCESS_DESCRIPTION_new
                0x000000004020d389                d2i_AUTHORITY_INFO_ACCESS
                0x000000004020d399                i2d_AUTHORITY_INFO_ACCESS
                0x000000004020d3a9                AUTHORITY_INFO_ACCESS_new
                0x000000004020d3b9                AUTHORITY_INFO_ACCESS_free
                0x000000004020d3c9                i2a_ACCESS_DESCRIPTION
                0x000000004020d40c                X509V3_EXT_add
                0x000000004020d4a0                X509V3_EXT_get_nid
                0x000000004020d518                X509V3_EXT_get
                0x000000004020d536                X509V3_EXT_add_list
                0x000000004020d574                X509V3_EXT_add_alias
                0x000000004020d66f                X509V3_EXT_cleanup
                0x000000004020d691                X509V3_add_standard_extensions
                0x000000004020d69c                X509V3_EXT_d2i
                0x000000004020d6f7                X509V3_get_d2i
                0x000000004020d81f                X509V3_add1_i2d
                0x000000004020e7e0                d2i_PROXY_POLICY
                0x000000004020e7f0                i2d_PROXY_POLICY
                0x000000004020e800                PROXY_POLICY_new
                0x000000004020e810                PROXY_POLICY_free
                0x000000004020e820                d2i_PROXY_CERT_INFO_EXTENSION
                0x000000004020e830                i2d_PROXY_CERT_INFO_EXTENSION
                0x000000004020e840                PROXY_CERT_INFO_EXTENSION_new
                0x000000004020e850                PROXY_CERT_INFO_EXTENSION_free
                0x000000004020e8f1                d2i_PKEY_USAGE_PERIOD
                0x000000004020e901                i2d_PKEY_USAGE_PERIOD
                0x000000004020e911                PKEY_USAGE_PERIOD_new
                0x000000004020e921                PKEY_USAGE_PERIOD_free
                0x000000004020e940                i2s_ASN1_OCTET_STRING
                0x000000004020e955                s2i_ASN1_OCTET_STRING
                0x000000004020ec07                d2i_SXNETID
                0x000000004020ec17                i2d_SXNETID
                0x000000004020ec27                SXNETID_new
                0x000000004020ec37                SXNETID_free
                0x000000004020ec47                d2i_SXNET
                0x000000004020ec57                i2d_SXNET
                0x000000004020ec67                SXNET_new
                0x000000004020ec77                SXNET_free
                0x000000004020ec87                SXNET_get_id_INTEGER
                0x000000004020ece6                SXNET_get_id_ulong
                0x000000004020ed77                SXNET_get_id_asc
                0x000000004020ede6                SXNET_add_id_INTEGER
                0x000000004020efa6                SXNET_add_id_ulong
                0x000000004020f044                SXNET_add_id_asc
                0x000000004020f118                X509_get_default_private_dir
                0x000000004020f123                X509_get_default_cert_area
                0x000000004020f12e                X509_get_default_cert_dir
                0x000000004020f139                X509_get_default_cert_file
                0x000000004020f144                X509_get_default_cert_dir_env
                0x000000004020f14f                X509_get_default_cert_file_env
                0x000000004020f1a1                i2d_ASN1_SET
                0x000000004020f40a                d2i_ASN1_SET
                0x000000004020fccf                ASN1_generate_v3
                0x0000000040210601                ASN1_generate_nconf
                0x000000004021080c                BN_GF2m_add
                0x00000000402108ea                BN_GF2m_mod_arr
                0x0000000040210b86                BN_GF2m_mod_sqr_arr
                0x0000000040210d2a                BN_GF2m_mod_mul_arr
                0x0000000040210f90                BN_GF2m_mod_exp_arr
                0x00000000402110c7                BN_GF2m_mod_sqrt_arr
                0x000000004021116f                BN_GF2m_mod_solve_quad_arr
                0x0000000040211539                BN_GF2m_poly2arr
                0x00000000402115c3                BN_GF2m_mod_solve_quad
                0x0000000040211690                BN_GF2m_mod_sqrt
                0x000000004021175d                BN_GF2m_mod_exp
                0x0000000040211832                BN_GF2m_mod_sqr
                0x00000000402118ff                BN_GF2m_mod_mul
                0x00000000402119d4                BN_GF2m_mod
                0x0000000040211a99                BN_GF2m_mod_inv
                0x0000000040211c79                BN_GF2m_mod_div
                0x0000000040211d16                BN_GF2m_arr2poly
                0x0000000040211d7b                BN_GF2m_mod_div_arr
                0x0000000040211e0f                BN_GF2m_mod_inv_arr
                0x0000000040211ea0                CONF_set_nconf
                0x0000000040211ee7                CONF_set_default_method
                0x0000000040211ef9                CONF_load
                0x0000000040211f23                NCONF_new
                0x0000000040211f70                NCONF_free
                0x0000000040211f81                NCONF_free_data
                0x0000000040211f92                CONF_free
                0x0000000040211fb1                NCONF_load
                0x0000000040211fe6                NCONF_load_bio
                0x000000004021201b                CONF_load_bio
                0x0000000040212065                NCONF_get_section
                0x00000000402120c2                CONF_get_section
                0x00000000402120f7                NCONF_get_string
                0x000000004021219e                CONF_get_string
                0x00000000402121e5                NCONF_get_number_e
                0x0000000040212280                CONF_get_number
                0x00000000402122de                NCONF_dump_bio
                0x0000000040212313                CONF_dump_bio
                0x0000000040212340                DSO_METHOD_null
                0x0000000040212c0a                ec_GF2m_simple_mul
                0x0000000040212e65                ec_GF2m_precompute_mult
                0x0000000040212e70                ec_GF2m_have_precompute_mult
                0x0000000040212e7c                i2a_ASN1_INTEGER
                0x0000000040212fbd                a2i_ASN1_INTEGER
                0x00000000402132c0                i2a_ASN1_STRING
                0x00000000402133d1                a2i_ASN1_STRING
                0x0000000040213688                d2i_OCSP_SIGNATURE
                0x0000000040213698                i2d_OCSP_SIGNATURE
                0x00000000402136a8                OCSP_SIGNATURE_new
                0x00000000402136b8                OCSP_SIGNATURE_free
                0x00000000402136c8                d2i_OCSP_CERTID
                0x00000000402136d8                i2d_OCSP_CERTID
                0x00000000402136e8                OCSP_CERTID_new
                0x00000000402136f8                OCSP_CERTID_free
                0x0000000040213708                d2i_OCSP_ONEREQ
                0x0000000040213718                i2d_OCSP_ONEREQ
                0x0000000040213728                OCSP_ONEREQ_new
                0x0000000040213738                OCSP_ONEREQ_free
                0x0000000040213748                d2i_OCSP_REQINFO
                0x0000000040213758                i2d_OCSP_REQINFO
                0x0000000040213768                OCSP_REQINFO_new
                0x0000000040213778                OCSP_REQINFO_free
                0x0000000040213788                d2i_OCSP_REQUEST
                0x0000000040213798                i2d_OCSP_REQUEST
                0x00000000402137a8                OCSP_REQUEST_new
                0x00000000402137b8                OCSP_REQUEST_free
                0x00000000402137c8                d2i_OCSP_RESPBYTES
                0x00000000402137d8                i2d_OCSP_RESPBYTES
                0x00000000402137e8                OCSP_RESPBYTES_new
                0x00000000402137f8                OCSP_RESPBYTES_free
                0x0000000040213808                d2i_OCSP_RESPONSE
                0x0000000040213818                i2d_OCSP_RESPONSE
                0x0000000040213828                OCSP_RESPONSE_new
                0x0000000040213838                OCSP_RESPONSE_free
                0x0000000040213848                d2i_OCSP_RESPID
                0x0000000040213858                i2d_OCSP_RESPID
                0x0000000040213868                OCSP_RESPID_new
                0x0000000040213878                OCSP_RESPID_free
                0x0000000040213888                d2i_OCSP_REVOKEDINFO
                0x0000000040213898                i2d_OCSP_REVOKEDINFO
                0x00000000402138a8                OCSP_REVOKEDINFO_new
                0x00000000402138b8                OCSP_REVOKEDINFO_free
                0x00000000402138c8                d2i_OCSP_CERTSTATUS
                0x00000000402138d8                i2d_OCSP_CERTSTATUS
                0x00000000402138e8                OCSP_CERTSTATUS_new
                0x00000000402138f8                OCSP_CERTSTATUS_free
                0x0000000040213908                d2i_OCSP_SINGLERESP
                0x0000000040213918                i2d_OCSP_SINGLERESP
                0x0000000040213928                OCSP_SINGLERESP_new
                0x0000000040213938                OCSP_SINGLERESP_free
                0x0000000040213948                d2i_OCSP_RESPDATA
                0x0000000040213958                i2d_OCSP_RESPDATA
                0x0000000040213968                OCSP_RESPDATA_new
                0x0000000040213978                OCSP_RESPDATA_free
                0x0000000040213988                d2i_OCSP_BASICRESP
                0x0000000040213998                i2d_OCSP_BASICRESP
                0x00000000402139a8                OCSP_BASICRESP_new
                0x00000000402139b8                OCSP_BASICRESP_free
                0x00000000402139c8                d2i_OCSP_CRLID
                0x00000000402139d8                i2d_OCSP_CRLID
                0x00000000402139e8                OCSP_CRLID_new
                0x00000000402139f8                OCSP_CRLID_free
                0x0000000040213a08                d2i_OCSP_SERVICELOC
                0x0000000040213a18                i2d_OCSP_SERVICELOC
                0x0000000040213a28                OCSP_SERVICELOC_new
                0x0000000040213a38                OCSP_SERVICELOC_free
                0x0000000040213dfc                v2i_ASN1_BIT_STRING
                0x0000000040213f7f                i2v_ASN1_BIT_STRING
                0x0000000040213fd4                i2s_ASN1_ENUMERATED_TABLE
                0x00000000402141a0                d2i_EXTENDED_KEY_USAGE
                0x00000000402141b0                i2d_EXTENDED_KEY_USAGE
                0x00000000402141c0                EXTENDED_KEY_USAGE_new
                0x00000000402141d0                EXTENDED_KEY_USAGE_free
                0x0000000040214448                _CONF_get_section
                0x000000004021447c                _CONF_get_section_values
                0x0000000040214497                _CONF_add_string
                0x0000000040214522                _CONF_get_string
                0x00000000402145c0                _CONF_new_data
                0x0000000040214602                _CONF_free_data
                0x0000000040214653                _CONF_new_section
                0x00000000402155e1                NCONF_default
                0x00000000402155ec                NCONF_WIN32
                0x00000000402155f8                codeend = .

.iplt           0x0000000040215600        0x0 load address 0x0000000000215600
 .iplt          0x0000000000000000        0x0 output.o

.rodata         0x0000000040215600    0x34fac load address 0x0000000000215600
 .rodata        0x0000000040215600    0x34fac output.o
                0x0000000040223780                BN_version
                0x0000000040223ba0                DES_SPtrans
                0x0000000040224ba0                DH_version
                0x0000000040226080                OSSL_DES_version
                0x00000000402260c0                OSSL_libdes_version
                0x00000000402261a0                EVP_version
                0x0000000040226260                IDEA_version
                0x00000000402262a0                lh_version
                0x00000000402268e0                MD4_version
                0x0000000040226920                MD5_version
                0x00000000402334a0                PEM_version
                0x0000000040233500                PKCS7_ATTR_VERIFY_it
                0x0000000040233540                PKCS7_ATTR_SIGN_it
                0x0000000040233580                PKCS7_DIGEST_it
                0x00000000402335c0                PKCS7_ENCRYPT_it
                0x0000000040233600                PKCS7_SIGN_ENVELOPE_it
                0x0000000040233640                PKCS7_ENC_CONTENT_it
                0x0000000040233680                PKCS7_RECIP_INFO_it
                0x00000000402336c0                PKCS7_ENVELOPE_it
                0x0000000040233700                PKCS7_ISSUER_AND_SERIAL_it
                0x0000000040233740                PKCS7_SIGNER_INFO_it
                0x0000000040233780                PKCS7_SIGNED_it
                0x00000000402337c0                PKCS7_it
                0x0000000040234280                RC2_version
                0x00000000402343c0                RC4_version
                0x0000000040234400                RMD160_version
                0x0000000040234440                RSAPublicKey_it
                0x0000000040234480                RSAPrivateKey_it
                0x0000000040234720                RSA_version
                0x0000000040235920                SHA1_version
                0x0000000040235960                SHA256_version
                0x0000000040235aa0                SHA512_version
                0x0000000040235d60                SHA_version
                0x0000000040235da0                STACK_version
                0x0000000040236000                ASN1_SET_ANY_it
                0x0000000040236040                ASN1_SEQUENCE_ANY_it
                0x0000000040236080                ASN1_OCTET_STRING_NDEF_it
                0x00000000402360c0                ASN1_FBOOLEAN_it
                0x0000000040236100                ASN1_TBOOLEAN_it
                0x0000000040236140                ASN1_BOOLEAN_it
                0x0000000040236180                DIRECTORYSTRING_it
                0x00000000402361c0                DISPLAYTEXT_it
                0x0000000040236200                ASN1_PRINTABLE_it
                0x0000000040236240                ASN1_SEQUENCE_it
                0x0000000040236280                ASN1_ANY_it
                0x00000000402362c0                ASN1_BMPSTRING_it
                0x0000000040236300                ASN1_UNIVERSALSTRING_it
                0x0000000040236340                ASN1_VISIBLESTRING_it
                0x0000000040236380                ASN1_GENERALIZEDTIME_it
                0x00000000402363c0                ASN1_UTCTIME_it
                0x0000000040236400                ASN1_GENERALSTRING_it
                0x0000000040236440                ASN1_IA5STRING_it
                0x0000000040236480                ASN1_T61STRING_it
                0x00000000402364c0                ASN1_PRINTABLESTRING_it
                0x0000000040236500                ASN1_UTF8STRING_it
                0x0000000040236540                ASN1_OBJECT_it
                0x0000000040236580                ASN1_NULL_it
                0x00000000402365c0                ASN1_OCTET_STRING_it
                0x0000000040236600                ASN1_BIT_STRING_it
                0x0000000040236640                ASN1_ENUMERATED_it
                0x0000000040236680                ASN1_INTEGER_it
                0x0000000040236760                X509_version
                0x00000000402368c0                X509_ALGORS_it
                0x0000000040236900                X509_ALGOR_it
                0x00000000402369e0                X509_ATTRIBUTE_it
                0x0000000040236a20                X509_ATTRIBUTE_SET_it
                0x0000000040236b20                CBIGNUM_it
                0x0000000040236b60                BIGNUM_it
                0x0000000040236ba0                X509_CRL_it
                0x0000000040236be0                X509_CRL_INFO_it
                0x0000000040236c20                X509_REVOKED_it
                0x0000000040236f00                X509_EXTENSIONS_it
                0x0000000040236f40                X509_EXTENSION_it
                0x0000000040237040                ZLONG_it
                0x0000000040237080                LONG_it
                0x00000000402370c0                X509_NAME_it
                0x0000000040237100                x509_name_ff
                0x0000000040237140                X509_NAME_INTERNAL_it
                0x0000000040237180                X509_NAME_ENTRIES_it
                0x00000000402371c0                X509_NAME_ENTRY_it
                0x00000000402372e0                X509_PUBKEY_it
                0x00000000402373c0                X509_REQ_it
                0x0000000040237400                X509_REQ_INFO_it
                0x00000000402375e0                X509_SIG_it
                0x0000000040237680                NETSCAPE_SPKI_it
                0x00000000402376c0                NETSCAPE_SPKAC_it
                0x00000000402377e0                X509_it
                0x0000000040237820                X509_CINF_it
                0x0000000040237b00                X509_CERT_PAIR_it
                0x0000000040237b40                X509_CERT_AUX_it
                0x0000000040238140                rsa_pkey_meth
                0x0000000040238220                dh_pkey_meth
                0x0000000040238300                dsa_pkey_meth
                0x00000000402383e0                ec_pkey_meth
                0x00000000402384c0                hmac_pkey_meth
                0x00000000402385e0                rsa_asn1_meths
                0x0000000040238760                dh_asn1_meth
                0x0000000040238820                dsa_asn1_meths
                0x0000000040238bc0                eckey_asn1_meth
                0x0000000040238c80                hmac_asn1_meth
                0x0000000040239dc0                CMS_Receipt_it
                0x0000000040239e00                CMS_ReceiptRequest_it
                0x0000000040239e40                CMS_ReceiptsFrom_it
                0x0000000040239e80                CMS_Attributes_Verify_it
                0x0000000040239ec0                CMS_Attributes_Sign_it
                0x0000000040239f00                CMS_ContentInfo_it
                0x0000000040239f40                CMS_CompressedData_it
                0x0000000040239f80                CMS_AuthenticatedData_it
                0x0000000040239fc0                CMS_EncryptedData_it
                0x000000004023a000                CMS_DigestedData_it
                0x000000004023a040                CMS_EnvelopedData_it
                0x000000004023a080                CMS_RecipientInfo_it
                0x000000004023a0c0                CMS_OtherRecipientInfo_it
                0x000000004023a100                CMS_PasswordRecipientInfo_it
                0x000000004023a140                CMS_KEKRecipientInfo_it
                0x000000004023a180                CMS_KEKIdentifier_it
                0x000000004023a1c0                CMS_KeyAgreeRecipientInfo_it
                0x000000004023a200                CMS_OriginatorIdentifierOrKey_it
                0x000000004023a240                CMS_OriginatorPublicKey_it
                0x000000004023a280                CMS_RecipientEncryptedKey_it
                0x000000004023a2c0                CMS_KeyAgreeRecipientIdentifier_it
                0x000000004023a300                CMS_RecipientKeyIdentifier_it
                0x000000004023a340                CMS_OtherKeyAttribute_it
                0x000000004023a380                CMS_KeyTransRecipientInfo_it
                0x000000004023a3c0                CMS_EncryptedContentInfo_it
                0x000000004023a400                CMS_OriginatorInfo_it
                0x000000004023a440                CMS_SignedData_it
                0x000000004023a480                CMS_RevocationInfoChoice_it
                0x000000004023a4c0                CMS_OtherRevocationInfoFormat_it
                0x000000004023a500                CMS_SignerInfo_it
                0x000000004023a540                CMS_EncapsulatedContentInfo_it
                0x000000004023a580                CMS_SignerIdentifier_it
                0x000000004023a5c0                CMS_CertificateChoices_it
                0x000000004023a600                CMS_OtherCertificateFormat_it
                0x000000004023a640                CMS_IssuerAndSerialNumber_it
                0x000000004023be80                ASN1_TIME_it
                0x000000004023bf00                ASN1_version
                0x000000004023c060                BF_version
                0x000000004023e200                CAST_version
                0x000000004023e2c0                CAST_S_table7
                0x000000004023e6c0                CAST_S_table6
                0x000000004023eac0                CAST_S_table5
                0x000000004023eec0                CAST_S_table4
                0x000000004023f2c0                CAST_S_table3
                0x000000004023f6c0                CAST_S_table2
                0x000000004023fac0                CAST_S_table1
                0x000000004023fec0                CAST_S_table0
                0x0000000040240500                DHparams_it
                0x0000000040240600                DSAPublicKey_it
                0x0000000040240640                dsa_pub_internal_it
                0x0000000040240680                DSAparams_it
                0x00000000402406c0                DSAPrivateKey_it
                0x0000000040240700                DSA_SIG_it
                0x0000000040240b20                DSA_version
                0x0000000040240b60                EC_PRIVATEKEY_it
                0x0000000040240ba0                ECPKPARAMETERS_it
                0x0000000040240be0                ECPARAMETERS_it
                0x0000000040240c20                X9_62_CURVE_it
                0x0000000040240c60                X9_62_FIELDID_it
                0x0000000040240ca0                X9_62_CHARACTERISTIC_TWO_it
                0x0000000040240ce0                X9_62_PENTANOMIAL_it
                0x0000000040244ca0                ECDH_version
                0x00000000402450a0                ECDSA_version
                0x00000000402453a0                RAND_version
                0x00000000402453e0                NETSCAPE_CERT_SEQUENCE_it
                0x00000000402454c0                PBEPARAM_it
                0x0000000040245560                PBKDF2PARAM_it
                0x00000000402455a0                PBE2PARAM_it
                0x00000000402456e0                PKCS8_PRIV_KEY_INFO_it
                0x00000000402458a0                AUTHORITY_KEYID_it
                0x0000000040245960                NOTICEREF_it
                0x00000000402459a0                USERNOTICE_it
                0x00000000402459e0                POLICYQUALINFO_it
                0x0000000040245a20                POLICYINFO_it
                0x0000000040245a60                CERTIFICATEPOLICIES_it
                0x0000000040245aa0                v3_cpols
                0x0000000040245dc0                v3_idp
                0x0000000040245e40                ISSUING_DIST_POINT_it
                0x0000000040245e80                CRL_DIST_POINTS_it
                0x0000000040245ec0                DIST_POINT_it
                0x0000000040245f00                DIST_POINT_NAME_it
                0x0000000040245f40                v3_freshest_crl
                0x0000000040245fc0                v3_crld
                0x0000000040246480                GENERAL_NAMES_it
                0x00000000402464c0                GENERAL_NAME_it
                0x0000000040246500                EDIPARTYNAME_it
                0x0000000040246540                OTHERNAME_it
                0x0000000040246800                NAME_CONSTRAINTS_it
                0x0000000040246840                GENERAL_SUBTREE_it
                0x0000000040246880                v3_name_constraints
                0x00000000402469e0                POLICY_CONSTRAINTS_it
                0x0000000040246a20                v3_policy_constraints
                0x0000000040246b00                POLICY_MAPPINGS_it
                0x0000000040246b40                POLICY_MAPPING_it
                0x0000000040246b80                v3_policy_mappings
                0x0000000040246d00                X509_VAL_it
                0x00000000402477a0                ECDSA_SIG_it
                0x0000000040247840                PKCS12_AUTHSAFES_it
                0x0000000040247880                PKCS12_SAFEBAGS_it
                0x00000000402478c0                PKCS12_SAFEBAG_it
                0x0000000040247900                PKCS12_BAGS_it
                0x0000000040247940                PKCS12_MAC_DATA_it
                0x0000000040247980                PKCS12_it
                0x0000000040247fc0                v3_alt
                0x0000000040248100                BASIC_CONSTRAINTS_it
                0x0000000040248140                v3_bcons
                0x0000000040248220                AUTHORITY_INFO_ACCESS_it
                0x0000000040248260                ACCESS_DESCRIPTION_it
                0x00000000402482a0                v3_sinfo
                0x0000000040248320                v3_info
                0x0000000040248440                v3_ocsp_serviceloc
                0x00000000402484c0                v3_ocsp_nocheck
                0x0000000040248540                v3_ocsp_nonce
                0x00000000402485c0                v3_crl_hold
                0x0000000040248640                v3_crl_invdate
                0x00000000402486c0                v3_ocsp_acutoff
                0x0000000040248740                v3_ocsp_crlid
                0x00000000402487c0                v3_pci
                0x0000000040248840                PROXY_CERT_INFO_EXTENSION_it
                0x0000000040248880                PROXY_POLICY_it
                0x0000000040248980                PKEY_USAGE_PERIOD_it
                0x00000000402489c0                v3_pkey_usage_period
                0x0000000040248aa0                v3_skey_id
                0x0000000040248b20                SXNET_it
                0x0000000040248b60                SXNETID_it
                0x0000000040248ba0                v3_sxnet
                0x0000000040249180                CONF_version
                0x00000000402491c0                OCSP_SERVICELOC_it
                0x0000000040249200                OCSP_CRLID_it
                0x0000000040249240                OCSP_BASICRESP_it
                0x0000000040249280                OCSP_RESPDATA_it
                0x00000000402492c0                OCSP_SINGLERESP_it
                0x0000000040249300                OCSP_CERTSTATUS_it
                0x0000000040249340                OCSP_REVOKEDINFO_it
                0x0000000040249380                OCSP_RESPID_it
                0x00000000402493c0                OCSP_RESPONSE_it
                0x0000000040249400                OCSP_RESPBYTES_it
                0x0000000040249440                OCSP_REQUEST_it
                0x0000000040249480                OCSP_REQINFO_it
                0x00000000402494c0                OCSP_ONEREQ_it
                0x0000000040249500                OCSP_CERTID_it
                0x0000000040249540                OCSP_SIGNATURE_it
                0x0000000040249d40                v3_akey_id
                0x0000000040249dc0                v3_key_usage
                0x0000000040249e40                v3_nscert
                0x0000000040249ec0                v3_crl_reason
                0x0000000040249f40                EXTENDED_KEY_USAGE_it
                0x0000000040249f80                v3_ocsp_accresp
                0x000000004024a000                v3_ext_ku
                0x000000004024a0c0                v3_ns_ia5_list
                0x000000004024a400                v3_inhibit_anyp
                0x000000004024a480                v3_delta_crl
                0x000000004024a500                v3_crl_num
                0x000000004024a580                CONF_def_version

.rodata.str1.1  0x000000004024a5ac    0x12bba load address 0x000000000024a5ac
 .rodata.str1.1
                0x000000004024a5ac    0x12bba output.o
                                      0x14fd6 (size before relaxing)

.rodata.str1.8  0x000000004025d168     0x9818 load address 0x000000000025d168
 .rodata.str1.8
                0x000000004025d168     0x9818 output.o
                                       0x9b3d (size before relaxing)

.eh_frame       0x0000000040266980    0x37418 load address 0x0000000000266980
 .eh_frame      0x0000000040266980    0x37418 output.o

.eh_frame_hdr   0x000000004029dd98        0x8 load address 0x000000000029dd98
 .eh_frame_hdr  0x000000004029dd98        0x8 output.o

.note.gnu.build-id
                0x000000004029dda0      0x288 load address 0x000000000029dda0
 .note.gnu.build-id
                0x000000004029dda0      0x288 output.o

.rela.dyn       0x000000004029e028        0x0 load address 0x000000000029e028
 .rela.iplt     0x0000000000000000        0x0 output.o
 .rela.text     0x0000000000000000        0x0 output.o

.data           0x000000004029f000  0x95b8000 load address 0x000000000029f000
                0x000000004029f000                data = .
 *(.data)
 .data          0x000000004029f000   0x9eaa53 output.o
                0x000000004029f020                config
                0x00000000402af190                use_pae
                0x00000000402af3b0                savemsr_index
                0x00000000402b0000                vmm_pml4
                0x00000000402b1000                vmm_pdp
                0x00000000402b2000                vmm_pd
                0x00000000402b3000                vmm_pd1
                0x00000000402b4000                vmm_pd2
                0x00000000402b5000                guest_int0x15_hook
                0x00000000402b501d                guest_int0x15_e801_fake_ax
                0x00000000402b5020                guest_int0x15_e801_fake_bx
                0x00000000402b5031                guest_int0x15_orig
                0x00000000402b5046                guest_int0x15_e820_data_minus0x18
                0x00000000402b504e                guest_int0x15_e820_end
                0x00000000402b5074                guest_int0x15_hook_end
                0x00000000402b6078                wakeup_entry_start
                0x00000000402b6081                wakeup_entry_addr
                0x00000000402b60a7                wakeup_entry_cr4
                0x00000000402b60b0                wakeup_entry_cr3
                0x00000000402b60b9                wakeup_entry_cr0
                0x00000000402b60c8                wakeup_entry_gdtr
                0x00000000402b60d2                wakeup_entry_end
                0x00000000402b6160                ata_bm_handler_table
                0x00000000402b61a0                ata_ctlblk_handler_table
                0x00000000402b61c0                ata_cmdblk_handler_table
                0x00000000402b6c70                usb_log_level
                0x00000000402b7600                hSessionCnt
                0x00000000402b7608                hObjectCnt
                0x00000000402b7e00                g_rgSCardT1Pci
                0x00000000402b7e10                g_rgSCardT0Pci
                0x00000000402b7e20                FI
                0x00000000402b7e60                DI
                0x00000000402bc480                default_pctx
                0x00000000402bf720                rand_ssleay_meth
                0x0000000040c89a58                . = ALIGN (0x8)
 *fill*         0x0000000040c89a53        0x5 00
                0x0000000040c89a58                __initfunc_start = .
 *(.initfunc)
 .initfunc      0x0000000040c89a58      0x640 output.o
                0x0000000040c89a58                __initfunc_acpi_init_paral
                0x0000000040c89a68                __initfunc_acpi_init_global
                0x0000000040c89a78                __initfunc_beep_init_msg
                0x0000000040c89a88                __initfunc_cache_init_pass
                0x0000000040c89a98                __initfunc_cache_init_vcpu
                0x0000000040c89aa8                __initfunc_cache_init_pcpu
                0x0000000040c89ab8                __initfunc_callrealmode_panic
                0x0000000040c89ac8                __initfunc_callrealmode_init_global
                0x0000000040c89ad8                __initfunc_cpu_mmu_spt_init_pcpu
                0x0000000040c89ae8                __initfunc_cpu_mmu_spt_init_global
                0x0000000040c89af8                __initfunc_cpuid_init
                0x0000000040c89b08                __initfunc_cpuid_pass_init
                0x0000000040c89b18                __initfunc_exint_pass_init
                0x0000000040c89b28                __initfunc_gmm_pass_init
                0x0000000040c89b38                __initfunc_install_int0x15_hook
                0x0000000040c89b48                __initfunc_idman_init
                0x0000000040c89b58                __initfunc_idman_init_global
                0x0000000040c89b68                __initfunc_int_wakeup
                0x0000000040c89b78                __initfunc_int_init_global
                0x0000000040c89b88                __initfunc_io_io_init
                0x0000000040c89b98                __initfunc_setiohooks
                0x0000000040c89ba8                __initfunc_io_iopass_init
                0x0000000040c89bb8                __initfunc_keyboard_init_msg
                0x0000000040c89bc8                __initfunc_localapic_init
                0x0000000040c89bd8                __initfunc_get_shiftflags
                0x0000000040c89be8                __initfunc_copy_minios
                0x0000000040c89bf8                __initfunc_print_boot_msg
                0x0000000040c89c08                __initfunc_debug_on_shift_key
                0x0000000040c89c18                __initfunc_create_pass_vm
                0x0000000040c89c28                __initfunc_virtualization_init_pcpu
                0x0000000040c89c38                __initfunc_unmap_user_area
                0x0000000040c89c48                __initfunc_mm_init_global
                0x0000000040c89c58                __initfunc_mmio_debug
                0x0000000040c89c68                __initfunc_mmio_init
                0x0000000040c89c78                __initfunc_msg_init_global
                0x0000000040c89c88                __initfunc_msr_init
                0x0000000040c89c98                __initfunc_msr_pass_init
                0x0000000040c89ca8                __initfunc_nmi_pass_init_pcpu
                0x0000000040c89cb8                __initfunc_nmi_pass_init
                0x0000000040c89cc8                __initfunc_panic_init_pcpu
                0x0000000040c89cd8                __initfunc_panic_init_msg
                0x0000000040c89ce8                __initfunc_panic_init_global3
                0x0000000040c89cf8                __initfunc_panic_init_global
                0x0000000040c89d08                __initfunc_printf_init_global
                0x0000000040c89d18                __initfunc_process_wakeup
                0x0000000040c89d28                __initfunc_process_init_ap
                0x0000000040c89d38                __initfunc_process_init_global
                0x0000000040c89d48                __initfunc_random_init_config0
                0x0000000040c89d58                __initfunc_random_init_global
                0x0000000040c89d68                __initfunc_reboot_init_msg
                0x0000000040c89d78                __initfunc_segment_init_global
                0x0000000040c89d88                __initfunc_serial_init_msg
                0x0000000040c89d98                __initfunc_sleep_init_msg
                0x0000000040c89da8                __initfunc_sleep_init_global
                0x0000000040c89db8                __initfunc_svm_panic
                0x0000000040c89dc8                __initfunc_sx_init_pass_init
                0x0000000040c89dd8                __initfunc_thread_init_pcpu
                0x0000000040c89de8                __initfunc_thread_init_global
                0x0000000040c89df8                __initfunc_time_init_msg
                0x0000000040c89e08                __initfunc_time_init_pcpu
                0x0000000040c89e18                __initfunc_time_init_global_status
                0x0000000040c89e28                __initfunc_time_init_global
                0x0000000040c89e38                __initfunc_timer_init_global
                0x0000000040c89e48                __initfunc_tty_init_msg
                0x0000000040c89e58                __initfunc_tty_init_global2
                0x0000000040c89e68                __initfunc_tty_init_global
                0x0000000040c89e78                __initfunc_vcpu_init_global
                0x0000000040c89e88                __initfunc_vga_init
                0x0000000040c89e98                __initfunc_vmmcall_init
                0x0000000040c89ea8                __initfunc_vmmcall_boot_init
                0x0000000040c89eb8                __initfunc_vmmcall_dbgsh_init_pcpu
                0x0000000040c89ec8                __initfunc_vmmcall_dbgsh_init_global
                0x0000000040c89ed8                __initfunc_vmmcall_dbgsh_init
                0x0000000040c89ee8                __initfunc_vmmcall_iccard_init
                0x0000000040c89ef8                __initfunc_vmmcall_log_init
                0x0000000040c89f08                __initfunc_vmmcall_status_init
                0x0000000040c89f18                __initfunc_vmmcall_status_init_global
                0x0000000040c89f28                __initfunc_vramwrite_init_bsp
                0x0000000040c89f38                __initfunc_vramwrite_init_msg
                0x0000000040c89f48                __initfunc_vt_register_status_callback
                0x0000000040c89f58                __initfunc_vt_panic
                0x0000000040c89f68                __initfunc_xsetbv_init
                0x0000000040c89f78                __initfunc_xsetbv_pass_init
                0x0000000040c89f88                __initfunc_core_init
                0x0000000040c89f98                __initfunc_ieee1394_init_boot
                0x0000000040c89fa8                __initfunc_ieee1394_init
                0x0000000040c89fb8                __initfunc_iommu_setup
                0x0000000040c89fc8                __initfunc_pci_init
                0x0000000040c89fd8                __initfunc_debug_ata_init
                0x0000000040c89fe8                __initfunc_ata_init
                0x0000000040c89ff8                __initfunc_uhci_init
                0x0000000040c8a008                __initfunc_ehci_init
                0x0000000040c8a018                __initfunc_pro100_init
                0x0000000040c8a028                __initfunc_suspend_pro1000
                0x0000000040c8a038                __initfunc_resume_pro1000
                0x0000000040c8a048                __initfunc_vpn_pro1000_init
                0x0000000040c8a058                __initfunc_storage_kernel_init
                0x0000000040c8a068                __initfunc_storage_io_initfunc
                0x0000000040c8a078                __initfunc_vpn_kernel_init
                0x0000000040c8a088                __initfunc_idman_kernel_init
                0x0000000040c8a098                __initfunc_end = .
                0x0000000040c8a098                __process_builtin = .
 *(.processes)
 .processes     0x0000000040c8a098      0x1a0 output.o
                0x0000000040c8a238                __process_builtin_end = .
                0x0000000040c8a238                bss = .
 *(.bss)
 *fill*         0x0000000040c8a238        0x8 00
 .bss           0x0000000040c8a240  0x8bcb140 output.o
                0x0000000040c8daa0                vmmsize
                0x0000000040c8daa8                memorysize
                0x0000000040f12560                pcpu_default
                0x0000000040f2fdc4                ps2_locked
                0x0000000040f30270                syscallHandlerAddress
                0x0000000040f30280                numberOfVMs
                0x0000000040f30288                numberOfProtectedApplications
                0x0000000040f30290                currentRunningApplication
                0x00000000497302a0                handler_descriptor
                0x00000000497304a8                drhd_list_head
                0x0000000049731ce0                pci_driver_list_head
                0x0000000049731ce8                pci_device_list_head
                0x0000000049731e90                uhci_monitor_boost_hc
                0x0000000049731ea8                usb_hc_list_head
                0x0000000049731eb0                usb_busses_head
                0x00000000497397c8                rt
                0x00000000498531f0                hContext
                0x00000000498531f8                sessionTable
                0x0000000049853200                slotTable
                0x0000000049853208                slotFlag
                0x0000000049853209                libInitFlag
                0x0000000049853e60                OPENSSL_NONPIC_relocated
                0x0000000049853e68                OPENSSL_ia32cap_P
                0x0000000049854aa8                cleanse_ctr
                0x0000000049854b08                obj_cleanup_defer
                0x0000000049854b28                _shadow_DES_check_key
                0x0000000049854c28                app_pkey_methods
                0x0000000049854c80                chelp_inited
 *(COMMON)
 COMMON         0x0000000049855380      0xec4 output.o
                0x0000000049855380                clflush_size
                0x00000000498553a0                sReaderContext
                0x0000000049855400                sigx_app
                0x0000000049855408                num_dom
                0x0000000049855420                mszReaders
                0x0000000049855820                prohibit_iccard_init
                0x0000000049855828                curthread
                0x0000000049855830                sig_app
                0x0000000049855840                readerState
                0x00000000498558c0                dom_io
                0x00000000498560c0                acpi_dsdt_system_state
                0x00000000498560e0                ehci_host
                0x00000000498560e8                num_of_processors
                0x00000000498560ec                e801_fake_bx
                0x00000000498560ee                iommu_detected
                0x00000000498560f0                dwReaders
                0x0000000049856100                readerTracker
                0x0000000049856240                handler_descriptor_lock
                0x0000000049856242                e801_fake_ax
                0x0000000049857000                . = ALIGN (0x1000)
 *fill*         0x0000000049856244      0xdbc 00
                0x0000000049857000                end = .

.igot.plt       0x0000000049857000        0x0 load address 0x0000000009857000
 .igot.plt      0x0000000000000000        0x0 output.o

/DISCARD/
 *(.gomi)
LOAD output.o
OUTPUT(bitvisor.elf elf64-x86-64)

.comment        0x0000000000000000       0x2a
 .comment       0x0000000000000000       0x2a output.o
                                       0x5d8f (size before relaxing)

.note.GNU-stack
                0x0000000000000000        0x0
 .note.GNU-stack
                0x0000000000000000        0x0 output.o

.debug_aranges  0x0000000000000000     0x69c0
 .debug_aranges
                0x0000000000000000     0x69c0 output.o

.debug_info     0x0000000000000000   0x29e28b
 .debug_info    0x0000000000000000   0x29e28b output.o

.debug_abbrev   0x0000000000000000    0x4428d
 .debug_abbrev  0x0000000000000000    0x4428d output.o

.debug_line     0x0000000000000000    0x4cee6
 .debug_line    0x0000000000000000    0x4cee6 output.o

.debug_str      0x0000000000000000    0x36a56
 .debug_str     0x0000000000000000    0x36a56 output.o
                                     0x125660 (size before relaxing)

.debug_loc      0x0000000000000000   0x23f43c
 .debug_loc     0x0000000000000000   0x23f43c output.o

.debug_ranges   0x0000000000000000     0x7a20
 .debug_ranges  0x0000000000000000     0x7a20 output.o

Cross Reference Table

Symbol                                            File
ACCESS_DESCRIPTION_free                           output.o
ACCESS_DESCRIPTION_it                             output.o
ACCESS_DESCRIPTION_new                            output.o
AES_cbc_encrypt                                   output.o
AES_cfb128_encrypt                                output.o
AES_cfb1_encrypt                                  output.o
AES_cfb8_encrypt                                  output.o
AES_decrypt                                       output.o
AES_ecb_encrypt                                   output.o
AES_encrypt                                       output.o
AES_ofb128_encrypt                                output.o
AES_set_decrypt_key                               output.o
AES_set_encrypt_key                               output.o
AES_unwrap_key                                    output.o
AES_wrap_key                                      output.o
ASN1_ANY_it                                       output.o
ASN1_BIT_STRING_check                             output.o
ASN1_BIT_STRING_free                              output.o
ASN1_BIT_STRING_get_bit                           output.o
ASN1_BIT_STRING_it                                output.o
ASN1_BIT_STRING_new                               output.o
ASN1_BIT_STRING_set                               output.o
ASN1_BIT_STRING_set_bit                           output.o
ASN1_BMPSTRING_free                               output.o
ASN1_BMPSTRING_it                                 output.o
ASN1_BMPSTRING_new                                output.o
ASN1_BOOLEAN_it                                   output.o
ASN1_ENUMERATED_free                              output.o
ASN1_ENUMERATED_get                               output.o
ASN1_ENUMERATED_it                                output.o
ASN1_ENUMERATED_new                               output.o
ASN1_ENUMERATED_set                               output.o
ASN1_ENUMERATED_to_BN                             output.o
ASN1_FBOOLEAN_it                                  output.o
ASN1_GENERALIZEDTIME_adj                          output.o
ASN1_GENERALIZEDTIME_check                        output.o
ASN1_GENERALIZEDTIME_free                         output.o
ASN1_GENERALIZEDTIME_it                           output.o
ASN1_GENERALIZEDTIME_new                          output.o
ASN1_GENERALIZEDTIME_print                        output.o
ASN1_GENERALIZEDTIME_set                          output.o
ASN1_GENERALIZEDTIME_set_string                   output.o
ASN1_GENERALSTRING_free                           output.o
ASN1_GENERALSTRING_it                             output.o
ASN1_GENERALSTRING_new                            output.o
ASN1_IA5STRING_free                               output.o
ASN1_IA5STRING_it                                 output.o
ASN1_IA5STRING_new                                output.o
ASN1_INTEGER_cmp                                  output.o
ASN1_INTEGER_dup                                  output.o
ASN1_INTEGER_free                                 output.o
ASN1_INTEGER_get                                  output.o
ASN1_INTEGER_it                                   output.o
ASN1_INTEGER_new                                  output.o
ASN1_INTEGER_set                                  output.o
ASN1_INTEGER_to_BN                                output.o
ASN1_NULL_free                                    output.o
ASN1_NULL_it                                      output.o
ASN1_NULL_new                                     output.o
ASN1_OBJECT_create                                output.o
ASN1_OBJECT_free                                  output.o
ASN1_OBJECT_it                                    output.o
ASN1_OBJECT_new                                   output.o
ASN1_OCTET_STRING_NDEF_it                         output.o
ASN1_OCTET_STRING_cmp                             output.o
ASN1_OCTET_STRING_dup                             output.o
ASN1_OCTET_STRING_free                            output.o
ASN1_OCTET_STRING_it                              output.o
ASN1_OCTET_STRING_new                             output.o
ASN1_OCTET_STRING_set                             output.o
ASN1_PCTX_free                                    output.o
ASN1_PCTX_get_cert_flags                          output.o
ASN1_PCTX_get_flags                               output.o
ASN1_PCTX_get_nm_flags                            output.o
ASN1_PCTX_get_oid_flags                           output.o
ASN1_PCTX_get_str_flags                           output.o
ASN1_PCTX_new                                     output.o
ASN1_PCTX_set_cert_flags                          output.o
ASN1_PCTX_set_flags                               output.o
ASN1_PCTX_set_nm_flags                            output.o
ASN1_PCTX_set_oid_flags                           output.o
ASN1_PCTX_set_str_flags                           output.o
ASN1_PRINTABLESTRING_free                         output.o
ASN1_PRINTABLESTRING_it                           output.o
ASN1_PRINTABLESTRING_new                          output.o
ASN1_PRINTABLE_free                               output.o
ASN1_PRINTABLE_it                                 output.o
ASN1_PRINTABLE_new                                output.o
ASN1_PRINTABLE_type                               output.o
ASN1_SEQUENCE_ANY_it                              output.o
ASN1_SEQUENCE_it                                  output.o
ASN1_SET_ANY_it                                   output.o
ASN1_STRING_TABLE_add                             output.o
ASN1_STRING_TABLE_cleanup                         output.o
ASN1_STRING_TABLE_get                             output.o
ASN1_STRING_cmp                                   output.o
ASN1_STRING_copy                                  output.o
ASN1_STRING_data                                  output.o
ASN1_STRING_dup                                   output.o
ASN1_STRING_free                                  output.o
ASN1_STRING_get_default_mask                      output.o
ASN1_STRING_length                                output.o
ASN1_STRING_length_set                            output.o
ASN1_STRING_new                                   output.o
ASN1_STRING_print                                 output.o
ASN1_STRING_print_ex                              output.o
ASN1_STRING_set                                   output.o
ASN1_STRING_set0                                  output.o
ASN1_STRING_set_by_NID                            output.o
ASN1_STRING_set_default_mask                      output.o
ASN1_STRING_set_default_mask_asc                  output.o
ASN1_STRING_to_UTF8                               output.o
ASN1_STRING_type                                  output.o
ASN1_STRING_type_new                              output.o
ASN1_T61STRING_free                               output.o
ASN1_T61STRING_it                                 output.o
ASN1_T61STRING_new                                output.o
ASN1_TBOOLEAN_it                                  output.o
ASN1_TIME_adj                                     output.o
ASN1_TIME_check                                   output.o
ASN1_TIME_free                                    output.o
ASN1_TIME_it                                      output.o
ASN1_TIME_new                                     output.o
ASN1_TIME_print                                   output.o
ASN1_TIME_set                                     output.o
ASN1_TIME_set_string                              output.o
ASN1_TIME_to_generalizedtime                      output.o
ASN1_TYPE_cmp                                     output.o
ASN1_TYPE_free                                    output.o
ASN1_TYPE_get                                     output.o
ASN1_TYPE_get_int_octetstring                     output.o
ASN1_TYPE_get_octetstring                         output.o
ASN1_TYPE_new                                     output.o
ASN1_TYPE_set                                     output.o
ASN1_TYPE_set1                                    output.o
ASN1_TYPE_set_int_octetstring                     output.o
ASN1_TYPE_set_octetstring                         output.o
ASN1_UNIVERSALSTRING_free                         output.o
ASN1_UNIVERSALSTRING_it                           output.o
ASN1_UNIVERSALSTRING_new                          output.o
ASN1_UNIVERSALSTRING_to_string                    output.o
ASN1_UTCTIME_adj                                  output.o
ASN1_UTCTIME_check                                output.o
ASN1_UTCTIME_cmp_time_t                           output.o
ASN1_UTCTIME_free                                 output.o
ASN1_UTCTIME_it                                   output.o
ASN1_UTCTIME_new                                  output.o
ASN1_UTCTIME_print                                output.o
ASN1_UTCTIME_set                                  output.o
ASN1_UTCTIME_set_string                           output.o
ASN1_UTF8STRING_free                              output.o
ASN1_UTF8STRING_it                                output.o
ASN1_UTF8STRING_new                               output.o
ASN1_VISIBLESTRING_free                           output.o
ASN1_VISIBLESTRING_it                             output.o
ASN1_VISIBLESTRING_new                            output.o
ASN1_bn_print                                     output.o
ASN1_check_infinite_end                           output.o
ASN1_const_check_infinite_end                     output.o
ASN1_d2i_bio                                      output.o
ASN1_digest                                       output.o
ASN1_dup                                          output.o
ASN1_generate_nconf                               output.o
ASN1_generate_v3                                  output.o
ASN1_get_object                                   output.o
ASN1_i2d_bio                                      output.o
ASN1_item_d2i                                     output.o
ASN1_item_d2i_bio                                 output.o
ASN1_item_digest                                  output.o
ASN1_item_dup                                     output.o
ASN1_item_ex_d2i                                  output.o
ASN1_item_ex_free                                 output.o
ASN1_item_ex_i2d                                  output.o
ASN1_item_ex_new                                  output.o
ASN1_item_free                                    output.o
ASN1_item_i2d                                     output.o
ASN1_item_i2d_bio                                 output.o
ASN1_item_ndef_i2d                                output.o
ASN1_item_new                                     output.o
ASN1_item_pack                                    output.o
ASN1_item_print                                   output.o
ASN1_item_sign                                    output.o
ASN1_item_unpack                                  output.o
ASN1_item_verify                                  output.o
ASN1_mbstring_copy                                output.o
ASN1_mbstring_ncopy                               output.o
ASN1_object_size                                  output.o
ASN1_pack_string                                  output.o
ASN1_parse                                        output.o
ASN1_parse_dump                                   output.o
ASN1_primitive_free                               output.o
ASN1_primitive_new                                output.o
ASN1_put_eoc                                      output.o
ASN1_put_object                                   output.o
ASN1_seq_pack                                     output.o
ASN1_seq_unpack                                   output.o
ASN1_sign                                         output.o
ASN1_tag2bit                                      output.o
ASN1_tag2str                                      output.o
ASN1_template_d2i                                 output.o
ASN1_template_free                                output.o
ASN1_template_i2d                                 output.o
ASN1_template_new                                 output.o
ASN1_unpack_string                                output.o
ASN1_verify                                       output.o
ASN1_version                                      output.o
AUTHORITY_INFO_ACCESS_free                        output.o
AUTHORITY_INFO_ACCESS_it                          output.o
AUTHORITY_INFO_ACCESS_new                         output.o
AUTHORITY_KEYID_free                              output.o
AUTHORITY_KEYID_it                                output.o
AUTHORITY_KEYID_new                               output.o
AddCertDataByBuf                                  output.o
AddElem                                           output.o
AddIdPassDataByBuf                                output.o
AddObjTblByTlv                                    output.o
BASIC_CONSTRAINTS_free                            output.o
BASIC_CONSTRAINTS_it                              output.o
BASIC_CONSTRAINTS_new                             output.o
BF_cbc_encrypt                                    output.o
BF_cfb64_encrypt                                  output.o
BF_decrypt                                        output.o
BF_ecb_encrypt                                    output.o
BF_encrypt                                        output.o
BF_ofb64_encrypt                                  output.o
BF_options                                        output.o
BF_set_key                                        output.o
BF_version                                        output.o
BIGNUM_it                                         output.o
BIO_asn1_get_prefix                               output.o
BIO_asn1_get_suffix                               output.o
BIO_asn1_set_prefix                               output.o
BIO_asn1_set_suffix                               output.o
BIO_callback_ctrl                                 output.o
BIO_clear_flags                                   output.o
BIO_copy_next_retry                               output.o
BIO_ctrl                                          output.o
BIO_ctrl_pending                                  output.o
BIO_ctrl_wpending                                 output.o
BIO_dump                                          output.o
BIO_dump_cb                                       output.o
BIO_dump_indent                                   output.o
BIO_dump_indent_cb                                output.o
BIO_dup_chain                                     output.o
BIO_f_asn1                                        output.o
BIO_f_base64                                      output.o
BIO_f_buffer                                      output.o
BIO_f_cipher                                      output.o
BIO_f_md                                          output.o
BIO_find_type                                     output.o
BIO_free                                          output.o
BIO_free_all                                      output.o
BIO_get_callback                                  output.o
BIO_get_callback_arg                              output.o
BIO_get_ex_data                                   output.o
BIO_get_ex_new_index                              output.o
BIO_get_retry_BIO                                 output.o
BIO_get_retry_reason                              output.o
BIO_gets                                          output.o
BIO_indent                                        output.o
BIO_int_ctrl                                      output.o
BIO_method_name                                   output.o
BIO_method_type                                   output.o
BIO_new                                           output.o
BIO_new_CMS                                       output.o
BIO_new_NDEF                                      output.o
BIO_new_mem_buf                                   output.o
BIO_next                                          output.o
BIO_number_read                                   output.o
BIO_number_written                                output.o
BIO_pop                                           output.o
BIO_printf                                        output.o
BIO_ptr_ctrl                                      output.o
BIO_push                                          output.o
BIO_puts                                          output.o
BIO_read                                          output.o
BIO_s_mem                                         output.o
BIO_s_null                                        output.o
BIO_set                                           output.o
BIO_set_callback                                  output.o
BIO_set_callback_arg                              output.o
BIO_set_cipher                                    output.o
BIO_set_ex_data                                   output.o
BIO_set_flags                                     output.o
BIO_snprintf                                      output.o
BIO_test_flags                                    output.o
BIO_vfree                                         output.o
BIO_write                                         output.o
BN_BLINDING_convert                               output.o
BN_BLINDING_convert_ex                            output.o
BN_BLINDING_create_param                          output.o
BN_BLINDING_free                                  output.o
BN_BLINDING_get_flags                             output.o
BN_BLINDING_get_thread_id                         output.o
BN_BLINDING_invert                                output.o
BN_BLINDING_invert_ex                             output.o
BN_BLINDING_new                                   output.o
BN_BLINDING_set_flags                             output.o
BN_BLINDING_set_thread_id                         output.o
BN_BLINDING_thread_id                             output.o
BN_BLINDING_update                                output.o
BN_CTX_end                                        output.o
BN_CTX_free                                       output.o
BN_CTX_get                                        output.o
BN_CTX_init                                       output.o
BN_CTX_new                                        output.o
BN_CTX_start                                      output.o
BN_GENCB_call                                     output.o
BN_GF2m_add                                       output.o
BN_GF2m_arr2poly                                  output.o
BN_GF2m_mod                                       output.o
BN_GF2m_mod_arr                                   output.o
BN_GF2m_mod_div                                   output.o
BN_GF2m_mod_div_arr                               output.o
BN_GF2m_mod_exp                                   output.o
BN_GF2m_mod_exp_arr                               output.o
BN_GF2m_mod_inv                                   output.o
BN_GF2m_mod_inv_arr                               output.o
BN_GF2m_mod_mul                                   output.o
BN_GF2m_mod_mul_arr                               output.o
BN_GF2m_mod_solve_quad                            output.o
BN_GF2m_mod_solve_quad_arr                        output.o
BN_GF2m_mod_sqr                                   output.o
BN_GF2m_mod_sqr_arr                               output.o
BN_GF2m_mod_sqrt                                  output.o
BN_GF2m_mod_sqrt_arr                              output.o
BN_GF2m_poly2arr                                  output.o
BN_MONT_CTX_copy                                  output.o
BN_MONT_CTX_free                                  output.o
BN_MONT_CTX_init                                  output.o
BN_MONT_CTX_new                                   output.o
BN_MONT_CTX_set                                   output.o
BN_MONT_CTX_set_locked                            output.o
BN_RECP_CTX_free                                  output.o
BN_RECP_CTX_init                                  output.o
BN_RECP_CTX_new                                   output.o
BN_RECP_CTX_set                                   output.o
BN_add                                            output.o
BN_add_word                                       output.o
BN_asc2bn                                         output.o
BN_bin2bn                                         output.o
BN_bn2bin                                         output.o
BN_bn2dec                                         output.o
BN_bn2hex                                         output.o
BN_bntest_rand                                    output.o
BN_clear                                          output.o
BN_clear_bit                                      output.o
BN_clear_free                                     output.o
BN_cmp                                            output.o
BN_copy                                           output.o
BN_dec2bn                                         output.o
BN_div                                            output.o
BN_div_recp                                       output.o
BN_div_word                                       output.o
BN_dup                                            output.o
BN_exp                                            output.o
BN_free                                           output.o
BN_from_montgomery                                output.o
BN_gcd                                            output.o
BN_generate_prime_ex                              output.o
BN_get0_nist_prime_192                            output.o
BN_get0_nist_prime_224                            output.o
BN_get0_nist_prime_256                            output.o
BN_get0_nist_prime_384                            output.o
BN_get0_nist_prime_521                            output.o
BN_get_params                                     output.o
BN_get_word                                       output.o
BN_hex2bn                                         output.o
BN_init                                           output.o
BN_is_bit_set                                     output.o
BN_is_prime_ex                                    output.o
BN_is_prime_fasttest_ex                           output.o
BN_kronecker                                      output.o
BN_lshift                                         output.o
BN_lshift1                                        output.o
BN_mask_bits                                      output.o
BN_mod_add                                        output.o
BN_mod_add_quick                                  output.o
BN_mod_exp                                        output.o
BN_mod_exp2_mont                                  output.o
BN_mod_exp_mont                                   output.o
BN_mod_exp_mont_consttime                         output.o
BN_mod_exp_mont_word                              output.o
BN_mod_exp_recp                                   output.o
BN_mod_exp_simple                                 output.o
BN_mod_inverse                                    output.o
BN_mod_lshift                                     output.o
BN_mod_lshift1                                    output.o
BN_mod_lshift1_quick                              output.o
BN_mod_lshift_quick                               output.o
BN_mod_mul                                        output.o
BN_mod_mul_montgomery                             output.o
BN_mod_mul_reciprocal                             output.o
BN_mod_sqr                                        output.o
BN_mod_sqrt                                       output.o
BN_mod_sub                                        output.o
BN_mod_sub_quick                                  output.o
BN_mod_word                                       output.o
BN_mul                                            output.o
BN_mul_word                                       output.o
BN_new                                            output.o
BN_nist_mod_192                                   output.o
BN_nist_mod_224                                   output.o
BN_nist_mod_256                                   output.o
BN_nist_mod_384                                   output.o
BN_nist_mod_521                                   output.o
BN_nnmod                                          output.o
BN_num_bits                                       output.o
BN_num_bits_word                                  output.o
BN_options                                        output.o
BN_print                                          output.o
BN_pseudo_rand                                    output.o
BN_pseudo_rand_range                              output.o
BN_rand                                           output.o
BN_rand_range                                     output.o
BN_reciprocal                                     output.o
BN_rshift                                         output.o
BN_rshift1                                        output.o
BN_set_bit                                        output.o
BN_set_negative                                   output.o
BN_set_params                                     output.o
BN_set_word                                       output.o
BN_sqr                                            output.o
BN_sub                                            output.o
BN_sub_word                                       output.o
BN_swap                                           output.o
BN_to_ASN1_ENUMERATED                             output.o
BN_to_ASN1_INTEGER                                output.o
BN_uadd                                           output.o
BN_ucmp                                           output.o
BN_usub                                           output.o
BN_value_one                                      output.o
BN_version                                        output.o
BUF_MEM_free                                      output.o
BUF_MEM_grow                                      output.o
BUF_MEM_grow_clean                                output.o
BUF_MEM_new                                       output.o
BUF_memdup                                        output.o
BUF_reverse                                       output.o
BUF_strdup                                        output.o
BUF_strlcat                                       output.o
BUF_strlcpy                                       output.o
BUF_strndup                                       output.o
BlockSendCardT1                                   output.o
CAST_S_table0                                     output.o
CAST_S_table1                                     output.o
CAST_S_table2                                     output.o
CAST_S_table3                                     output.o
CAST_S_table4                                     output.o
CAST_S_table5                                     output.o
CAST_S_table6                                     output.o
CAST_S_table7                                     output.o
CAST_cbc_encrypt                                  output.o
CAST_cfb64_encrypt                                output.o
CAST_decrypt                                      output.o
CAST_ecb_encrypt                                  output.o
CAST_encrypt                                      output.o
CAST_ofb64_encrypt                                output.o
CAST_set_key                                      output.o
CAST_version                                      output.o
CBIGNUM_it                                        output.o
CERTIFICATEPOLICIES_free                          output.o
CERTIFICATEPOLICIES_it                            output.o
CERTIFICATEPOLICIES_new                           output.o
CMS_Attributes_Sign_it                            output.o
CMS_Attributes_Verify_it                          output.o
CMS_AuthenticatedData_it                          output.o
CMS_CertificateChoices_it                         output.o
CMS_CompressedData_it                             output.o
CMS_ContentInfo_free                              output.o
CMS_ContentInfo_it                                output.o
CMS_ContentInfo_new                               output.o
CMS_ContentInfo_print_ctx                         output.o
CMS_DigestedData_it                               output.o
CMS_EncapsulatedContentInfo_it                    output.o
CMS_EncryptedContentInfo_it                       output.o
CMS_EncryptedData_it                              output.o
CMS_EncryptedData_set1_key                        output.o
CMS_EnvelopedData_create                          output.o
CMS_EnvelopedData_it                              output.o
CMS_IssuerAndSerialNumber_it                      output.o
CMS_KEKIdentifier_it                              output.o
CMS_KEKRecipientInfo_it                           output.o
CMS_KeyAgreeRecipientIdentifier_it                output.o
CMS_KeyAgreeRecipientInfo_it                      output.o
CMS_KeyTransRecipientInfo_it                      output.o
CMS_OriginatorIdentifierOrKey_it                  output.o
CMS_OriginatorInfo_it                             output.o
CMS_OriginatorPublicKey_it                        output.o
CMS_OtherCertificateFormat_it                     output.o
CMS_OtherKeyAttribute_it                          output.o
CMS_OtherRecipientInfo_it                         output.o
CMS_OtherRevocationInfoFormat_it                  output.o
CMS_PasswordRecipientInfo_it                      output.o
CMS_ReceiptRequest_it                             output.o
CMS_Receipt_it                                    output.o
CMS_ReceiptsFrom_it                               output.o
CMS_RecipientEncryptedKey_it                      output.o
CMS_RecipientInfo_decrypt                         output.o
CMS_RecipientInfo_it                              output.o
CMS_RecipientInfo_kekri_get0_id                   output.o
CMS_RecipientInfo_kekri_id_cmp                    output.o
CMS_RecipientInfo_ktri_cert_cmp                   output.o
CMS_RecipientInfo_ktri_get0_algs                  output.o
CMS_RecipientInfo_ktri_get0_signer_id             output.o
CMS_RecipientInfo_set0_key                        output.o
CMS_RecipientInfo_set0_pkey                       output.o
CMS_RecipientInfo_type                            output.o
CMS_RecipientKeyIdentifier_it                     output.o
CMS_RevocationInfoChoice_it                       output.o
CMS_SignedData_init                               output.o
CMS_SignedData_it                                 output.o
CMS_SignerIdentifier_it                           output.o
CMS_SignerInfo_cert_cmp                           output.o
CMS_SignerInfo_get0_algs                          output.o
CMS_SignerInfo_get0_signer_id                     output.o
CMS_SignerInfo_it                                 output.o
CMS_SignerInfo_set1_signer_cert                   output.o
CMS_SignerInfo_sign                               output.o
CMS_SignerInfo_verify                             output.o
CMS_SignerInfo_verify_content                     output.o
CMS_add0_CertificateChoices                       output.o
CMS_add0_RevocationInfoChoice                     output.o
CMS_add0_cert                                     output.o
CMS_add0_crl                                      output.o
CMS_add0_recipient_key                            output.o
CMS_add1_cert                                     output.o
CMS_add1_crl                                      output.o
CMS_add1_recipient_cert                           output.o
CMS_add1_signer                                   output.o
CMS_add_simple_smimecap                           output.o
CMS_add_smimecap                                  output.o
CMS_add_standard_smimecap                         output.o
CMS_dataFinal                                     output.o
CMS_dataInit                                      output.o
CMS_get0_RecipientInfos                           output.o
CMS_get0_SignerInfos                              output.o
CMS_get0_content                                  output.o
CMS_get0_eContentType                             output.o
CMS_get0_signers                                  output.o
CMS_get0_type                                     output.o
CMS_get1_certs                                    output.o
CMS_get1_crls                                     output.o
CMS_is_detached                                   output.o
CMS_set1_eContentType                             output.o
CMS_set1_signers_certs                            output.o
CMS_set_detached                                  output.o
CMS_signed_add1_attr                              output.o
CMS_signed_add1_attr_by_NID                       output.o
CMS_signed_add1_attr_by_OBJ                       output.o
CMS_signed_add1_attr_by_txt                       output.o
CMS_signed_delete_attr                            output.o
CMS_signed_get0_data_by_OBJ                       output.o
CMS_signed_get_attr                               output.o
CMS_signed_get_attr_by_NID                        output.o
CMS_signed_get_attr_by_OBJ                        output.o
CMS_signed_get_attr_count                         output.o
CMS_stream                                        output.o
CMS_unsigned_add1_attr                            output.o
CMS_unsigned_add1_attr_by_NID                     output.o
CMS_unsigned_add1_attr_by_OBJ                     output.o
CMS_unsigned_add1_attr_by_txt                     output.o
CMS_unsigned_delete_attr                          output.o
CMS_unsigned_get0_data_by_OBJ                     output.o
CMS_unsigned_get_attr                             output.o
CMS_unsigned_get_attr_by_NID                      output.o
CMS_unsigned_get_attr_by_OBJ                      output.o
CMS_unsigned_get_attr_count                       output.o
CONF_def_version                                  output.o
CONF_dump_bio                                     output.o
CONF_free                                         output.o
CONF_get1_default_config_file                     output.o
CONF_get_number                                   output.o
CONF_get_section                                  output.o
CONF_get_string                                   output.o
CONF_imodule_get_flags                            output.o
CONF_imodule_get_module                           output.o
CONF_imodule_get_name                             output.o
CONF_imodule_get_usr_data                         output.o
CONF_imodule_get_value                            output.o
CONF_imodule_set_flags                            output.o
CONF_imodule_set_usr_data                         output.o
CONF_load                                         output.o
CONF_load_bio                                     output.o
CONF_module_add                                   output.o
CONF_module_get_usr_data                          output.o
CONF_module_set_usr_data                          output.o
CONF_modules_finish                               output.o
CONF_modules_free                                 output.o
CONF_modules_load                                 output.o
CONF_modules_load_file                            output.o
CONF_modules_unload                               output.o
CONF_parse_list                                   output.o
CONF_set_default_method                           output.o
CONF_set_nconf                                    output.o
CONF_version                                      output.o
CRL_DIST_POINTS_free                              output.o
CRL_DIST_POINTS_it                                output.o
CRL_DIST_POINTS_new                               output.o
CRYPTO_THREADID_cmp                               output.o
CRYPTO_THREADID_cpy                               output.o
CRYPTO_THREADID_current                           output.o
CRYPTO_THREADID_get_callback                      output.o
CRYPTO_THREADID_hash                              output.o
CRYPTO_THREADID_set_callback                      output.o
CRYPTO_THREADID_set_numeric                       output.o
CRYPTO_THREADID_set_pointer                       output.o
CRYPTO_add_lock                                   output.o
CRYPTO_cbc128_decrypt                             output.o
CRYPTO_cbc128_encrypt                             output.o
CRYPTO_cfb128_1_encrypt                           output.o
CRYPTO_cfb128_8_encrypt                           output.o
CRYPTO_cfb128_encrypt                             output.o
CRYPTO_cleanup_all_ex_data                        output.o
CRYPTO_dbg_free                                   output.o
CRYPTO_dbg_get_options                            output.o
CRYPTO_dbg_malloc                                 output.o
CRYPTO_dbg_realloc                                output.o
CRYPTO_dbg_set_options                            output.o
CRYPTO_destroy_dynlockid                          output.o
CRYPTO_dup_ex_data                                output.o
CRYPTO_ex_data_new_class                          output.o
CRYPTO_free                                       output.o
CRYPTO_free_ex_data                               output.o
CRYPTO_free_locked                                output.o
CRYPTO_get_add_lock_callback                      output.o
CRYPTO_get_dynlock_create_callback                output.o
CRYPTO_get_dynlock_destroy_callback               output.o
CRYPTO_get_dynlock_lock_callback                  output.o
CRYPTO_get_dynlock_value                          output.o
CRYPTO_get_ex_data                                output.o
CRYPTO_get_ex_data_implementation                 output.o
CRYPTO_get_ex_new_index                           output.o
CRYPTO_get_id_callback                            output.o
CRYPTO_get_lock_name                              output.o
CRYPTO_get_locked_mem_ex_functions                output.o
CRYPTO_get_locked_mem_functions                   output.o
CRYPTO_get_locking_callback                       output.o
CRYPTO_get_mem_debug_functions                    output.o
CRYPTO_get_mem_debug_options                      output.o
CRYPTO_get_mem_ex_functions                       output.o
CRYPTO_get_mem_functions                          output.o
CRYPTO_get_new_dynlockid                          output.o
CRYPTO_get_new_lockid                             output.o
CRYPTO_is_mem_check_on                            output.o
CRYPTO_lock                                       output.o
CRYPTO_malloc                                     output.o
CRYPTO_malloc_locked                              output.o
CRYPTO_mem_ctrl                                   output.o
CRYPTO_mem_leaks                                  output.o
CRYPTO_mem_leaks_cb                               output.o
CRYPTO_new_ex_data                                output.o
CRYPTO_num_locks                                  output.o
CRYPTO_ofb128_encrypt                             output.o
CRYPTO_pop_info                                   output.o
CRYPTO_push_info_                                 output.o
CRYPTO_realloc                                    output.o
CRYPTO_realloc_clean                              output.o
CRYPTO_remalloc                                   output.o
CRYPTO_remove_all_info                            output.o
CRYPTO_set_add_lock_callback                      output.o
CRYPTO_set_dynlock_create_callback                output.o
CRYPTO_set_dynlock_destroy_callback               output.o
CRYPTO_set_dynlock_lock_callback                  output.o
CRYPTO_set_ex_data                                output.o
CRYPTO_set_ex_data_implementation                 output.o
CRYPTO_set_id_callback                            output.o
CRYPTO_set_locked_mem_ex_functions                output.o
CRYPTO_set_locked_mem_functions                   output.o
CRYPTO_set_locking_callback                       output.o
CRYPTO_set_mem_debug_functions                    output.o
CRYPTO_set_mem_debug_options                      output.o
CRYPTO_set_mem_ex_functions                       output.o
CRYPTO_set_mem_functions                          output.o
CRYPTO_strdup                                     output.o
CRYPTO_thread_id                                  output.o
C_CloseAllSessions                                output.o
C_CloseSession                                    output.o
C_CreateObject                                    output.o
C_DestroyObject                                   output.o
C_DigestFinal                                     output.o
C_DigestInit                                      output.o
C_DigestUpdate                                    output.o
C_Finalize                                        output.o
C_FindObjects                                     output.o
C_FindObjectsFinal                                output.o
C_FindObjectsInit                                 output.o
C_GetAttributeValue                               output.o
C_GetCardStatus                                   output.o
C_GetFunctionList                                 output.o
C_GetInfo                                         output.o
C_GetMechanismInfo                                output.o
C_GetMechanismList                                output.o
C_GetSessionInfo                                  output.o
C_GetSlotInfo                                     output.o
C_GetSlotList                                     output.o
C_GetTokenInfo                                    output.o
C_Initialize                                      output.o
C_Login                                           output.o
C_Logout                                          output.o
C_OpenSession                                     output.o
C_SetAttributeValue                               output.o
C_Sign                                            output.o
C_SignInit                                        output.o
C_Verify                                          output.o
C_VerifyInit                                      output.o
CardConnect                                       output.o
CardDisconnect                                    output.o
CardEstablishContext                              output.o
CardListReaders                                   output.o
CardMechanical                                    output.o
CardReleaseContext                                output.o
CardStateConfirm                                  output.o
CardStatus                                        output.o
CardTransmit                                      output.o
CloseUSB                                          output.o
DES_SPtrans                                       output.o
DES_cfb64_encrypt                                 output.o
DES_cfb_encrypt                                   output.o
DES_check_key_parity                              output.o
DES_decrypt3                                      output.o
DES_ecb3_encrypt                                  output.o
DES_ecb_encrypt                                   output.o
DES_ede3_cbc_encrypt                              output.o
DES_ede3_cfb64_encrypt                            output.o
DES_ede3_cfb_encrypt                              output.o
DES_ede3_ofb64_encrypt                            output.o
DES_encrypt1                                      output.o
DES_encrypt2                                      output.o
DES_encrypt3                                      output.o
DES_is_weak_key                                   output.o
DES_key_sched                                     output.o
DES_ncbc_encrypt                                  output.o
DES_ofb64_encrypt                                 output.o
DES_options                                       output.o
DES_random_key                                    output.o
DES_set_key                                       output.o
DES_set_key_checked                               output.o
DES_set_key_unchecked                             output.o
DES_set_odd_parity                                output.o
DES_xcbc_encrypt                                  output.o
DH_OpenSSL                                        output.o
DH_check                                          output.o
DH_check_pub_key                                  output.o
DH_compute_key                                    output.o
DH_free                                           output.o
DH_generate_key                                   output.o
DH_generate_parameters_ex                         output.o
DH_get_default_method                             output.o
DH_get_ex_data                                    output.o
DH_get_ex_new_index                               output.o
DH_new                                            output.o
DH_new_method                                     output.o
DH_set_default_method                             output.o
DH_set_ex_data                                    output.o
DH_set_method                                     output.o
DH_size                                           output.o
DH_up_ref                                         output.o
DH_version                                        output.o
DHparams_dup                                      output.o
DHparams_it                                       output.o
DHparams_print                                    output.o
DI                                                output.o
DIRECTORYSTRING_free                              output.o
DIRECTORYSTRING_it                                output.o
DIRECTORYSTRING_new                               output.o
DISPLAYTEXT_free                                  output.o
DISPLAYTEXT_it                                    output.o
DISPLAYTEXT_new                                   output.o
DIST_POINT_NAME_free                              output.o
DIST_POINT_NAME_it                                output.o
DIST_POINT_NAME_new                               output.o
DIST_POINT_free                                   output.o
DIST_POINT_it                                     output.o
DIST_POINT_new                                    output.o
DIST_POINT_set_dpname                             output.o
DSAPrivateKey_it                                  output.o
DSAPublicKey_it                                   output.o
DSA_OpenSSL                                       output.o
DSA_SIG_free                                      output.o
DSA_SIG_it                                        output.o
DSA_SIG_new                                       output.o
DSA_do_sign                                       output.o
DSA_do_verify                                     output.o
DSA_dup_DH                                        output.o
DSA_free                                          output.o
DSA_generate_key                                  output.o
DSA_generate_parameters_ex                        output.o
DSA_get_default_method                            output.o
DSA_get_ex_data                                   output.o
DSA_get_ex_new_index                              output.o
DSA_new                                           output.o
DSA_new_method                                    output.o
DSA_set_default_method                            output.o
DSA_set_ex_data                                   output.o
DSA_set_method                                    output.o
DSA_sign                                          output.o
DSA_sign_setup                                    output.o
DSA_size                                          output.o
DSA_up_ref                                        output.o
DSA_verify                                        output.o
DSA_version                                       output.o
DSAparams_dup                                     output.o
DSAparams_it                                      output.o
DSO_METHOD_null                                   output.o
DSO_METHOD_openssl                                output.o
DSO_bind_func                                     output.o
DSO_bind_var                                      output.o
DSO_convert_filename                              output.o
DSO_ctrl                                          output.o
DSO_flags                                         output.o
DSO_free                                          output.o
DSO_get_default_method                            output.o
DSO_get_filename                                  output.o
DSO_get_loaded_filename                           output.o
DSO_get_method                                    output.o
DSO_global_lookup                                 output.o
DSO_load                                          output.o
DSO_merge                                         output.o
DSO_new                                           output.o
DSO_new_method                                    output.o
DSO_pathbyaddr                                    output.o
DSO_set_default_method                            output.o
DSO_set_filename                                  output.o
DSO_set_method                                    output.o
DSO_set_name_converter                            output.o
DSO_up_ref                                        output.o
DelElem                                           output.o
DestroyAttribute                                  output.o
DestroyElem                                       output.o
DestroyList                                       output.o
DestroySessionData                                output.o
DestroySlotData                                   output.o
DestroyTlvData                                    output.o
DestroyTokenData                                  output.o
ECDH_OpenSSL                                      output.o
ECDH_compute_key                                  output.o
ECDH_get_default_method                           output.o
ECDH_get_ex_data                                  output.o
ECDH_get_ex_new_index                             output.o
ECDH_set_default_method                           output.o
ECDH_set_ex_data                                  output.o
ECDH_set_method                                   output.o
ECDH_version                                      output.o
ECDSA_OpenSSL                                     output.o
ECDSA_SIG_free                                    output.o
ECDSA_SIG_it                                      output.o
ECDSA_SIG_new                                     output.o
ECDSA_do_sign                                     output.o
ECDSA_do_sign_ex                                  output.o
ECDSA_do_verify                                   output.o
ECDSA_get_default_method                          output.o
ECDSA_get_ex_data                                 output.o
ECDSA_get_ex_new_index                            output.o
ECDSA_set_default_method                          output.o
ECDSA_set_ex_data                                 output.o
ECDSA_set_method                                  output.o
ECDSA_sign                                        output.o
ECDSA_sign_ex                                     output.o
ECDSA_sign_setup                                  output.o
ECDSA_size                                        output.o
ECDSA_verify                                      output.o
ECDSA_version                                     output.o
ECPARAMETERS_free                                 output.o
ECPARAMETERS_it                                   output.o
ECPARAMETERS_new                                  output.o
ECPKPARAMETERS_free                               output.o
ECPKPARAMETERS_it                                 output.o
ECPKPARAMETERS_new                                output.o
ECPKParameters_print                              output.o
ECParameters_print                                output.o
EC_EX_DATA_clear_free_all_data                    output.o
EC_EX_DATA_clear_free_data                        output.o
EC_EX_DATA_free_all_data                          output.o
EC_EX_DATA_free_data                              output.o
EC_EX_DATA_get_data                               output.o
EC_EX_DATA_set_data                               output.o
EC_GF2m_simple_method                             output.o
EC_GFp_mont_method                                output.o
EC_GFp_nist_method                                output.o
EC_GFp_simple_method                              output.o
EC_GROUP_check_discriminant                       output.o
EC_GROUP_clear_free                               output.o
EC_GROUP_cmp                                      output.o
EC_GROUP_copy                                     output.o
EC_GROUP_dup                                      output.o
EC_GROUP_free                                     output.o
EC_GROUP_get0_generator                           output.o
EC_GROUP_get0_seed                                output.o
EC_GROUP_get_asn1_flag                            output.o
EC_GROUP_get_basis_type                           output.o
EC_GROUP_get_cofactor                             output.o
EC_GROUP_get_curve_GF2m                           output.o
EC_GROUP_get_curve_GFp                            output.o
EC_GROUP_get_curve_name                           output.o
EC_GROUP_get_degree                               output.o
EC_GROUP_get_order                                output.o
EC_GROUP_get_pentanomial_basis                    output.o
EC_GROUP_get_point_conversion_form                output.o
EC_GROUP_get_seed_len                             output.o
EC_GROUP_get_trinomial_basis                      output.o
EC_GROUP_have_precompute_mult                     output.o
EC_GROUP_method_of                                output.o
EC_GROUP_new                                      output.o
EC_GROUP_new_by_curve_name                        output.o
EC_GROUP_new_curve_GF2m                           output.o
EC_GROUP_new_curve_GFp                            output.o
EC_GROUP_precompute_mult                          output.o
EC_GROUP_set_asn1_flag                            output.o
EC_GROUP_set_curve_GF2m                           output.o
EC_GROUP_set_curve_GFp                            output.o
EC_GROUP_set_curve_name                           output.o
EC_GROUP_set_generator                            output.o
EC_GROUP_set_point_conversion_form                output.o
EC_GROUP_set_seed                                 output.o
EC_KEY_check_key                                  output.o
EC_KEY_copy                                       output.o
EC_KEY_dup                                        output.o
EC_KEY_free                                       output.o
EC_KEY_generate_key                               output.o
EC_KEY_get0_group                                 output.o
EC_KEY_get0_private_key                           output.o
EC_KEY_get0_public_key                            output.o
EC_KEY_get_conv_form                              output.o
EC_KEY_get_enc_flags                              output.o
EC_KEY_get_key_method_data                        output.o
EC_KEY_insert_key_method_data                     output.o
EC_KEY_new                                        output.o
EC_KEY_new_by_curve_name                          output.o
EC_KEY_precompute_mult                            output.o
EC_KEY_print                                      output.o
EC_KEY_set_asn1_flag                              output.o
EC_KEY_set_conv_form                              output.o
EC_KEY_set_enc_flags                              output.o
EC_KEY_set_group                                  output.o
EC_KEY_set_private_key                            output.o
EC_KEY_set_public_key                             output.o
EC_KEY_up_ref                                     output.o
EC_METHOD_get_field_type                          output.o
EC_POINT_add                                      output.o
EC_POINT_bn2point                                 output.o
EC_POINT_clear_free                               output.o
EC_POINT_cmp                                      output.o
EC_POINT_copy                                     output.o
EC_POINT_dbl                                      output.o
EC_POINT_dup                                      output.o
EC_POINT_free                                     output.o
EC_POINT_get_Jprojective_coordinates_GFp          output.o
EC_POINT_get_affine_coordinates_GF2m              output.o
EC_POINT_get_affine_coordinates_GFp               output.o
EC_POINT_hex2point                                output.o
EC_POINT_invert                                   output.o
EC_POINT_is_at_infinity                           output.o
EC_POINT_is_on_curve                              output.o
EC_POINT_make_affine                              output.o
EC_POINT_method_of                                output.o
EC_POINT_mul                                      output.o
EC_POINT_new                                      output.o
EC_POINT_oct2point                                output.o
EC_POINT_point2bn                                 output.o
EC_POINT_point2hex                                output.o
EC_POINT_point2oct                                output.o
EC_POINT_set_Jprojective_coordinates_GFp          output.o
EC_POINT_set_affine_coordinates_GF2m              output.o
EC_POINT_set_affine_coordinates_GFp               output.o
EC_POINT_set_compressed_coordinates_GF2m          output.o
EC_POINT_set_compressed_coordinates_GFp           output.o
EC_POINT_set_to_infinity                          output.o
EC_POINTs_make_affine                             output.o
EC_POINTs_mul                                     output.o
EC_PRIVATEKEY_free                                output.o
EC_PRIVATEKEY_it                                  output.o
EC_PRIVATEKEY_new                                 output.o
EC_get_builtin_curves                             output.o
EDIPARTYNAME_free                                 output.o
EDIPARTYNAME_it                                   output.o
EDIPARTYNAME_new                                  output.o
EHDestroyEventHandler                             output.o
EHInitEventHandler                                output.o
EHStatusHandler                                   output.o
ERR_add_error_data                                output.o
ERR_clear_error                                   output.o
ERR_error_string                                  output.o
ERR_error_string_n                                output.o
ERR_free_strings                                  output.o
ERR_func_error_string                             output.o
ERR_get_err_state_table                           output.o
ERR_get_error                                     output.o
ERR_get_error_line                                output.o
ERR_get_error_line_data                           output.o
ERR_get_implementation                            output.o
ERR_get_next_error_library                        output.o
ERR_get_state                                     output.o
ERR_get_string_table                              output.o
ERR_lib_error_string                              output.o
ERR_load_ASN1_strings                             output.o
ERR_load_BIO_strings                              output.o
ERR_load_BN_strings                               output.o
ERR_load_BUF_strings                              output.o
ERR_load_CMS_strings                              output.o
ERR_load_COMP_strings                             output.o
ERR_load_CONF_strings                             output.o
ERR_load_CRYPTO_strings                           output.o
ERR_load_DH_strings                               output.o
ERR_load_DSA_strings                              output.o
ERR_load_DSO_strings                              output.o
ERR_load_ECDH_strings                             output.o
ERR_load_ECDSA_strings                            output.o
ERR_load_EC_strings                               output.o
ERR_load_ERR_strings                              output.o
ERR_load_EVP_strings                              output.o
ERR_load_OBJ_strings                              output.o
ERR_load_OCSP_strings                             output.o
ERR_load_PEM_strings                              output.o
ERR_load_PKCS12_strings                           output.o
ERR_load_PKCS7_strings                            output.o
ERR_load_RAND_strings                             output.o
ERR_load_RSA_strings                              output.o
ERR_load_TS_strings                               output.o
ERR_load_UI_strings                               output.o
ERR_load_X509V3_strings                           output.o
ERR_load_X509_strings                             output.o
ERR_load_crypto_strings                           output.o
ERR_load_strings                                  output.o
ERR_peek_error                                    output.o
ERR_peek_error_line                               output.o
ERR_peek_error_line_data                          output.o
ERR_peek_last_error                               output.o
ERR_peek_last_error_line                          output.o
ERR_peek_last_error_line_data                     output.o
ERR_pop_to_mark                                   output.o
ERR_print_errors                                  output.o
ERR_print_errors_cb                               output.o
ERR_put_error                                     output.o
ERR_reason_error_string                           output.o
ERR_release_err_state_table                       output.o
ERR_remove_state                                  output.o
ERR_remove_thread_state                           output.o
ERR_set_error_data                                output.o
ERR_set_implementation                            output.o
ERR_set_mark                                      output.o
ERR_unload_strings                                output.o
EVP_BytesToKey                                    output.o
EVP_CIPHER_CTX_block_size                         output.o
EVP_CIPHER_CTX_cipher                             output.o
EVP_CIPHER_CTX_cleanup                            output.o
EVP_CIPHER_CTX_clear_flags                        output.o
EVP_CIPHER_CTX_copy                               output.o
EVP_CIPHER_CTX_ctrl                               output.o
EVP_CIPHER_CTX_flags                              output.o
EVP_CIPHER_CTX_free                               output.o
EVP_CIPHER_CTX_get_app_data                       output.o
EVP_CIPHER_CTX_init                               output.o
EVP_CIPHER_CTX_iv_length                          output.o
EVP_CIPHER_CTX_key_length                         output.o
EVP_CIPHER_CTX_new                                output.o
EVP_CIPHER_CTX_nid                                output.o
EVP_CIPHER_CTX_rand_key                           output.o
EVP_CIPHER_CTX_set_app_data                       output.o
EVP_CIPHER_CTX_set_flags                          output.o
EVP_CIPHER_CTX_set_key_length                     output.o
EVP_CIPHER_CTX_set_padding                        output.o
EVP_CIPHER_CTX_test_flags                         output.o
EVP_CIPHER_asn1_to_param                          output.o
EVP_CIPHER_block_size                             output.o
EVP_CIPHER_do_all                                 output.o
EVP_CIPHER_do_all_sorted                          output.o
EVP_CIPHER_flags                                  output.o
EVP_CIPHER_get_asn1_iv                            output.o
EVP_CIPHER_iv_length                              output.o
EVP_CIPHER_key_length                             output.o
EVP_CIPHER_nid                                    output.o
EVP_CIPHER_param_to_asn1                          output.o
EVP_CIPHER_set_asn1_iv                            output.o
EVP_CIPHER_type                                   output.o
EVP_Cipher                                        output.o
EVP_CipherFinal                                   output.o
EVP_CipherFinal_ex                                output.o
EVP_CipherInit                                    output.o
EVP_CipherInit_ex                                 output.o
EVP_CipherUpdate                                  output.o
EVP_DecodeBlock                                   output.o
EVP_DecodeFinal                                   output.o
EVP_DecodeInit                                    output.o
EVP_DecodeUpdate                                  output.o
EVP_DecryptFinal                                  output.o
EVP_DecryptFinal_ex                               output.o
EVP_DecryptInit                                   output.o
EVP_DecryptInit_ex                                output.o
EVP_DecryptUpdate                                 output.o
EVP_Digest                                        output.o
EVP_DigestFinal                                   output.o
EVP_DigestFinal_ex                                output.o
EVP_DigestInit                                    output.o
EVP_DigestInit_ex                                 output.o
EVP_DigestSignFinal                               output.o
EVP_DigestSignInit                                output.o
EVP_DigestUpdate                                  output.o
EVP_DigestVerifyFinal                             output.o
EVP_DigestVerifyInit                              output.o
EVP_EncodeBlock                                   output.o
EVP_EncodeFinal                                   output.o
EVP_EncodeInit                                    output.o
EVP_EncodeUpdate                                  output.o
EVP_EncryptFinal                                  output.o
EVP_EncryptFinal_ex                               output.o
EVP_EncryptInit                                   output.o
EVP_EncryptInit_ex                                output.o
EVP_EncryptUpdate                                 output.o
EVP_MD_CTX_cleanup                                output.o
EVP_MD_CTX_clear_flags                            output.o
EVP_MD_CTX_copy                                   output.o
EVP_MD_CTX_copy_ex                                output.o
EVP_MD_CTX_create                                 output.o
EVP_MD_CTX_destroy                                output.o
EVP_MD_CTX_init                                   output.o
EVP_MD_CTX_md                                     output.o
EVP_MD_CTX_set_flags                              output.o
EVP_MD_CTX_test_flags                             output.o
EVP_MD_block_size                                 output.o
EVP_MD_do_all                                     output.o
EVP_MD_do_all_sorted                              output.o
EVP_MD_flags                                      output.o
EVP_MD_pkey_type                                  output.o
EVP_MD_size                                       output.o
EVP_MD_type                                       output.o
EVP_PBE_CipherInit                                output.o
EVP_PBE_alg_add                                   output.o
EVP_PBE_alg_add_type                              output.o
EVP_PBE_cleanup                                   output.o
EVP_PBE_find                                      output.o
EVP_PKCS82PKEY                                    output.o
EVP_PKEY2PKCS8                                    output.o
EVP_PKEY2PKCS8_broken                             output.o
EVP_PKEY_CTX_ctrl                                 output.o
EVP_PKEY_CTX_ctrl_str                             output.o
EVP_PKEY_CTX_dup                                  output.o
EVP_PKEY_CTX_free                                 output.o
EVP_PKEY_CTX_get0_peerkey                         output.o
EVP_PKEY_CTX_get0_pkey                            output.o
EVP_PKEY_CTX_get_app_data                         output.o
EVP_PKEY_CTX_get_cb                               output.o
EVP_PKEY_CTX_get_data                             output.o
EVP_PKEY_CTX_get_keygen_info                      output.o
EVP_PKEY_CTX_get_operation                        output.o
EVP_PKEY_CTX_new                                  output.o
EVP_PKEY_CTX_new_id                               output.o
EVP_PKEY_CTX_set0_keygen_info                     output.o
EVP_PKEY_CTX_set_app_data                         output.o
EVP_PKEY_CTX_set_cb                               output.o
EVP_PKEY_CTX_set_data                             output.o
EVP_PKEY_add1_attr                                output.o
EVP_PKEY_add1_attr_by_NID                         output.o
EVP_PKEY_add1_attr_by_OBJ                         output.o
EVP_PKEY_add1_attr_by_txt                         output.o
EVP_PKEY_asn1_add0                                output.o
EVP_PKEY_asn1_add_alias                           output.o
EVP_PKEY_asn1_copy                                output.o
EVP_PKEY_asn1_find                                output.o
EVP_PKEY_asn1_find_str                            output.o
EVP_PKEY_asn1_free                                output.o
EVP_PKEY_asn1_get0                                output.o
EVP_PKEY_asn1_get0_info                           output.o
EVP_PKEY_asn1_get_count                           output.o
EVP_PKEY_asn1_new                                 output.o
EVP_PKEY_asn1_set_ctrl                            output.o
EVP_PKEY_asn1_set_free                            output.o
EVP_PKEY_asn1_set_param                           output.o
EVP_PKEY_asn1_set_private                         output.o
EVP_PKEY_asn1_set_public                          output.o
EVP_PKEY_assign                                   output.o
EVP_PKEY_base_id                                  output.o
EVP_PKEY_bits                                     output.o
EVP_PKEY_cmp                                      output.o
EVP_PKEY_cmp_parameters                           output.o
EVP_PKEY_copy_parameters                          output.o
EVP_PKEY_decrypt                                  output.o
EVP_PKEY_decrypt_init                             output.o
EVP_PKEY_delete_attr                              output.o
EVP_PKEY_derive                                   output.o
EVP_PKEY_derive_init                              output.o
EVP_PKEY_derive_set_peer                          output.o
EVP_PKEY_encrypt                                  output.o
EVP_PKEY_encrypt_init                             output.o
EVP_PKEY_free                                     output.o
EVP_PKEY_get0                                     output.o
EVP_PKEY_get0_asn1                                output.o
EVP_PKEY_get1_DH                                  output.o
EVP_PKEY_get1_DSA                                 output.o
EVP_PKEY_get1_EC_KEY                              output.o
EVP_PKEY_get1_RSA                                 output.o
EVP_PKEY_get_attr                                 output.o
EVP_PKEY_get_attr_by_NID                          output.o
EVP_PKEY_get_attr_by_OBJ                          output.o
EVP_PKEY_get_attr_count                           output.o
EVP_PKEY_get_default_digest_nid                   output.o
EVP_PKEY_id                                       output.o
EVP_PKEY_keygen                                   output.o
EVP_PKEY_keygen_init                              output.o
EVP_PKEY_meth_add0                                output.o
EVP_PKEY_meth_find                                output.o
EVP_PKEY_meth_free                                output.o
EVP_PKEY_meth_new                                 output.o
EVP_PKEY_meth_set_cleanup                         output.o
EVP_PKEY_meth_set_copy                            output.o
EVP_PKEY_meth_set_ctrl                            output.o
EVP_PKEY_meth_set_decrypt                         output.o
EVP_PKEY_meth_set_derive                          output.o
EVP_PKEY_meth_set_encrypt                         output.o
EVP_PKEY_meth_set_init                            output.o
EVP_PKEY_meth_set_keygen                          output.o
EVP_PKEY_meth_set_paramgen                        output.o
EVP_PKEY_meth_set_sign                            output.o
EVP_PKEY_meth_set_signctx                         output.o
EVP_PKEY_meth_set_verify                          output.o
EVP_PKEY_meth_set_verify_recover                  output.o
EVP_PKEY_meth_set_verifyctx                       output.o
EVP_PKEY_missing_parameters                       output.o
EVP_PKEY_new                                      output.o
EVP_PKEY_new_mac_key                              output.o
EVP_PKEY_paramgen                                 output.o
EVP_PKEY_paramgen_init                            output.o
EVP_PKEY_print_params                             output.o
EVP_PKEY_print_private                            output.o
EVP_PKEY_print_public                             output.o
EVP_PKEY_save_parameters                          output.o
EVP_PKEY_set1_DH                                  output.o
EVP_PKEY_set1_DSA                                 output.o
EVP_PKEY_set1_EC_KEY                              output.o
EVP_PKEY_set1_RSA                                 output.o
EVP_PKEY_set_type                                 output.o
EVP_PKEY_set_type_str                             output.o
EVP_PKEY_sign                                     output.o
EVP_PKEY_sign_init                                output.o
EVP_PKEY_size                                     output.o
EVP_PKEY_type                                     output.o
EVP_PKEY_verify                                   output.o
EVP_PKEY_verify_init                              output.o
EVP_PKEY_verify_recover                           output.o
EVP_PKEY_verify_recover_init                      output.o
EVP_SignFinal                                     output.o
EVP_VerifyFinal                                   output.o
EVP_add_cipher                                    output.o
EVP_add_digest                                    output.o
EVP_aes_128_cbc                                   output.o
EVP_aes_128_cfb1                                  output.o
EVP_aes_128_cfb128                                output.o
EVP_aes_128_cfb8                                  output.o
EVP_aes_128_ecb                                   output.o
EVP_aes_128_ofb                                   output.o
EVP_aes_192_cbc                                   output.o
EVP_aes_192_cfb1                                  output.o
EVP_aes_192_cfb128                                output.o
EVP_aes_192_cfb8                                  output.o
EVP_aes_192_ecb                                   output.o
EVP_aes_192_ofb                                   output.o
EVP_aes_256_cbc                                   output.o
EVP_aes_256_cfb1                                  output.o
EVP_aes_256_cfb128                                output.o
EVP_aes_256_cfb8                                  output.o
EVP_aes_256_ecb                                   output.o
EVP_aes_256_ofb                                   output.o
EVP_bf_cbc                                        output.o
EVP_bf_cfb64                                      output.o
EVP_bf_ecb                                        output.o
EVP_bf_ofb                                        output.o
EVP_cast5_cbc                                     output.o
EVP_cast5_cfb64                                   output.o
EVP_cast5_ecb                                     output.o
EVP_cast5_ofb                                     output.o
EVP_cleanup                                       output.o
EVP_des_cbc                                       output.o
EVP_des_cfb1                                      output.o
EVP_des_cfb64                                     output.o
EVP_des_cfb8                                      output.o
EVP_des_ecb                                       output.o
EVP_des_ede                                       output.o
EVP_des_ede3                                      output.o
EVP_des_ede3_cbc                                  output.o
EVP_des_ede3_cfb1                                 output.o
EVP_des_ede3_cfb64                                output.o
EVP_des_ede3_cfb8                                 output.o
EVP_des_ede3_ecb                                  output.o
EVP_des_ede3_ofb                                  output.o
EVP_des_ede_cbc                                   output.o
EVP_des_ede_cfb64                                 output.o
EVP_des_ede_ecb                                   output.o
EVP_des_ede_ofb                                   output.o
EVP_des_ofb                                       output.o
EVP_desx_cbc                                      output.o
EVP_dss                                           output.o
EVP_dss1                                          output.o
EVP_ecdsa                                         output.o
EVP_get_cipherbyname                              output.o
EVP_get_digestbyname                              output.o
EVP_get_pw_prompt                                 output.o
EVP_idea_cbc                                      output.o
EVP_idea_cfb64                                    output.o
EVP_idea_ecb                                      output.o
EVP_idea_ofb                                      output.o
EVP_md4                                           output.o
EVP_md5                                           output.o
EVP_rc2_40_cbc                                    output.o
EVP_rc2_64_cbc                                    output.o
EVP_rc2_cbc                                       output.o
EVP_rc2_cfb64                                     output.o
EVP_rc2_ecb                                       output.o
EVP_rc2_ofb                                       output.o
EVP_rc4                                           output.o
EVP_rc4_40                                        output.o
EVP_read_pw_string                                output.o
EVP_read_pw_string_min                            output.o
EVP_ripemd160                                     output.o
EVP_set_pw_prompt                                 output.o
EVP_sha                                           output.o
EVP_sha1                                          output.o
EVP_sha224                                        output.o
EVP_sha256                                        output.o
EVP_sha384                                        output.o
EVP_sha512                                        output.o
EVP_version                                       output.o
EVP_whirlpool                                     output.o
EXTENDED_KEY_USAGE_free                           output.o
EXTENDED_KEY_USAGE_it                             output.o
EXTENDED_KEY_USAGE_new                            output.o
ExchangePPSData                                   output.o
FI                                                output.o
FindBaudRateTable                                 output.o
GENERAL_NAMES_free                                output.o
GENERAL_NAMES_it                                  output.o
GENERAL_NAMES_new                                 output.o
GENERAL_NAME_cmp                                  output.o
GENERAL_NAME_dup                                  output.o
GENERAL_NAME_free                                 output.o
GENERAL_NAME_get0_otherName                       output.o
GENERAL_NAME_get0_value                           output.o
GENERAL_NAME_it                                   output.o
GENERAL_NAME_new                                  output.o
GENERAL_NAME_print                                output.o
GENERAL_NAME_set0_othername                       output.o
GENERAL_NAME_set0_value                           output.o
GENERAL_SUBTREE_free                              output.o
GENERAL_SUBTREE_it                                output.o
GENERAL_SUBTREE_new                               output.o
GetAttrValType                                    output.o
GetBWICWIData                                     output.o
GetCardStatus                                     output.o
GetDirDataByTlv                                   output.o
GetElem                                           output.o
GetICCardData                                     output.o
GetIFSCData                                       output.o
GetLength                                         output.o
GetOdfDataByTlv                                   output.o
GetTlvByBuf                                       output.o
GetTokenDataByTlv                                 output.o
GetUlByByte                                       output.o
GetUlByTxt                                        output.o
GetValueData                                      output.o
GetVerByTex                                       output.o
HMAC                                              output.o
HMAC_CTX_cleanup                                  output.o
HMAC_CTX_copy                                     output.o
HMAC_CTX_init                                     output.o
HMAC_CTX_set_flags                                output.o
HMAC_Final                                        output.o
HMAC_Init                                         output.o
HMAC_Init_ex                                      output.o
HMAC_Update                                       output.o
HPSearchHotPluggables                             output.o
IDEA_version                                      output.o
IDMan_CheckCardStatus                             output.o
IDMan_CmCheckCRL                                  output.o
IDMan_CmChgRSA                                    output.o
IDMan_CmGetCertificateSign                        output.o
IDMan_CmGetDN                                     output.o
IDMan_CmGetPublicKey                              output.o
IDMan_CmMakeRand                                  output.o
IDMan_CmMkHash                                    output.o
IDMan_CmPadding                                   output.o
IDMan_CmPadding2                                  output.o
IDMan_EncryptByIndex                              output.o
IDMan_IPCheckCrlPkcX                              output.o
IDMan_IPCheckPKC                                  output.o
IDMan_IPCheckSignature                            output.o
IDMan_IPCrSignature                               output.o
IDMan_IPFinalize                                  output.o
IDMan_IPFinalizeReader                            output.o
IDMan_IPIdPassListMalloc                          output.o
IDMan_IPInitialize                                output.o
IDMan_IPInitializeReader                          output.o
IDMan_IPMkPublicKeyObj                            output.o
IDMan_IPMkRandHash                                output.o
IDMan_IPRetJudgment                               output.o
IDMan_IPSignatureVerify                           output.o
IDMan_IPgCIndexParamChk                           output.o
IDMan_IPgCParamChk                                output.o
IDMan_IPgIdxSParamChk                             output.o
IDMan_IPgSParamChk                                output.o
IDMan_IPgetCertIdxPKCS                            output.o
IDMan_IPgetCertPKCS                               output.o
IDMan_IPgetCertPkeyIdxPKCSx                       output.o
IDMan_IPgetCertPkeyPKCSx                          output.o
IDMan_IPgetCertPkeyPKCSy                          output.o
IDMan_IPgetHash                                   output.o
IDMan_IPgetMakeRandData                           output.o
IDMan_IPgetPrivateKey                             output.o
IDMan_IPgetPrivateKeyPKCSx                        output.o
IDMan_IPuAPKCS11IdxParamChk                       output.o
IDMan_IPuAPKCS11ParamChk                          output.o
IDMan_IPvSIdxParamChk                             output.o
IDMan_IPvSParamChk                                output.o
IDMan_PaddingParamChk                             output.o
IDMan_SCardConnect                                output.o
IDMan_SCardDisconnect                             output.o
IDMan_SCardEstablishContext                       output.o
IDMan_SCardListReaders                            output.o
IDMan_SCardReleaseContext                         output.o
IDMan_SCardSetBinay                               output.o
IDMan_SCardSizeLongToChar                         output.o
IDMan_SCardStatus                                 output.o
IDMan_SCardTransmit                               output.o
IDMan_StAtoi                                      output.o
IDMan_StAtol                                      output.o
IDMan_StFree                                      output.o
IDMan_StMalloc                                    output.o
IDMan_StMemcmp                                    output.o
IDMan_StMemcpy                                    output.o
IDMan_StMemset                                    output.o
IDMan_StReadSetData                               output.o
IDMan_StStrcat                                    output.o
IDMan_StStrchr                                    output.o
IDMan_StStrcmp                                    output.o
IDMan_StStrcpy                                    output.o
IDMan_StStrlen                                    output.o
IDMan_generateSignature                           output.o
IDMan_generateSignatureByIndex                    output.o
IDMan_getCertificate                              output.o
IDMan_getCertificateByIndex                       output.o
IDMan_getMemoryFree                               output.o
IDMan_getStaticPassword                           output.o
IDMan_userAuthPKCS11                              output.o
IDMan_userAuthPKCS11ByIndex                       output.o
IDMan_verifySignature                             output.o
IDMan_verifySignatureByIndex                      output.o
IFDHCloseChannel                                  output.o
IFDHControl                                       output.o
IFDHCreateChannel                                 output.o
IFDHGetCapabilities                               output.o
IFDHICCPresence                                   output.o
IFDHPowerICC                                      output.o
IFDHSetProtocolParameters                         output.o
IFDHTransmitToICC                                 output.o
ISSUING_DIST_POINT_free                           output.o
ISSUING_DIST_POINT_it                             output.o
ISSUING_DIST_POINT_new                            output.o
InitCryptoLibrary                                 output.o
InitLeaderCardProtocol                            output.o
InternalAuth                                      output.o
LONG_it                                           output.o
MD4_Final                                         output.o
MD4_Init                                          output.o
MD4_Transform                                     output.o
MD4_Update                                        output.o
MD4_version                                       output.o
MD5                                               output.o
MD5_Final                                         output.o
MD5_Init                                          output.o
MD5_Transform                                     output.o
MD5_Update                                        output.o
MD5_version                                       output.o
NAME_CONSTRAINTS_check                            output.o
NAME_CONSTRAINTS_free                             output.o
NAME_CONSTRAINTS_it                               output.o
NAME_CONSTRAINTS_new                              output.o
NCONF_WIN32                                       output.o
NCONF_default                                     output.o
NCONF_dump_bio                                    output.o
NCONF_free                                        output.o
NCONF_free_data                                   output.o
NCONF_get_number_e                                output.o
NCONF_get_section                                 output.o
NCONF_get_string                                  output.o
NCONF_load                                        output.o
NCONF_load_bio                                    output.o
NCONF_new                                         output.o
NETSCAPE_CERT_SEQUENCE_free                       output.o
NETSCAPE_CERT_SEQUENCE_it                         output.o
NETSCAPE_CERT_SEQUENCE_new                        output.o
NETSCAPE_SPKAC_free                               output.o
NETSCAPE_SPKAC_it                                 output.o
NETSCAPE_SPKAC_new                                output.o
NETSCAPE_SPKI_free                                output.o
NETSCAPE_SPKI_it                                  output.o
NETSCAPE_SPKI_new                                 output.o
NETSCAPE_SPKI_sign                                output.o
NETSCAPE_SPKI_verify                              output.o
NOTICEREF_free                                    output.o
NOTICEREF_it                                      output.o
NOTICEREF_new                                     output.o
OBJ_NAME_add                                      output.o
OBJ_NAME_cleanup                                  output.o
OBJ_NAME_do_all                                   output.o
OBJ_NAME_do_all_sorted                            output.o
OBJ_NAME_get                                      output.o
OBJ_NAME_init                                     output.o
OBJ_NAME_new_index                                output.o
OBJ_NAME_remove                                   output.o
OBJ_add_object                                    output.o
OBJ_add_sigid                                     output.o
OBJ_bsearch_                                      output.o
OBJ_bsearch_ex_                                   output.o
OBJ_cleanup                                       output.o
OBJ_cmp                                           output.o
OBJ_create                                        output.o
OBJ_create_objects                                output.o
OBJ_dup                                           output.o
OBJ_find_sigid_algs                               output.o
OBJ_find_sigid_by_algs                            output.o
OBJ_ln2nid                                        output.o
OBJ_new_nid                                       output.o
OBJ_nid2ln                                        output.o
OBJ_nid2obj                                       output.o
OBJ_nid2sn                                        output.o
OBJ_obj2nid                                       output.o
OBJ_obj2txt                                       output.o
OBJ_sigid_free                                    output.o
OBJ_sn2nid                                        output.o
OBJ_txt2nid                                       output.o
OBJ_txt2obj                                       output.o
OCSP_BASICRESP_free                               output.o
OCSP_BASICRESP_it                                 output.o
OCSP_BASICRESP_new                                output.o
OCSP_CERTID_free                                  output.o
OCSP_CERTID_it                                    output.o
OCSP_CERTID_new                                   output.o
OCSP_CERTSTATUS_free                              output.o
OCSP_CERTSTATUS_it                                output.o
OCSP_CERTSTATUS_new                               output.o
OCSP_CRLID_free                                   output.o
OCSP_CRLID_it                                     output.o
OCSP_CRLID_new                                    output.o
OCSP_ONEREQ_free                                  output.o
OCSP_ONEREQ_it                                    output.o
OCSP_ONEREQ_new                                   output.o
OCSP_REQINFO_free                                 output.o
OCSP_REQINFO_it                                   output.o
OCSP_REQINFO_new                                  output.o
OCSP_REQUEST_free                                 output.o
OCSP_REQUEST_it                                   output.o
OCSP_REQUEST_new                                  output.o
OCSP_RESPBYTES_free                               output.o
OCSP_RESPBYTES_it                                 output.o
OCSP_RESPBYTES_new                                output.o
OCSP_RESPDATA_free                                output.o
OCSP_RESPDATA_it                                  output.o
OCSP_RESPDATA_new                                 output.o
OCSP_RESPID_free                                  output.o
OCSP_RESPID_it                                    output.o
OCSP_RESPID_new                                   output.o
OCSP_RESPONSE_free                                output.o
OCSP_RESPONSE_it                                  output.o
OCSP_RESPONSE_new                                 output.o
OCSP_REVOKEDINFO_free                             output.o
OCSP_REVOKEDINFO_it                               output.o
OCSP_REVOKEDINFO_new                              output.o
OCSP_SERVICELOC_free                              output.o
OCSP_SERVICELOC_it                                output.o
OCSP_SERVICELOC_new                               output.o
OCSP_SIGNATURE_free                               output.o
OCSP_SIGNATURE_it                                 output.o
OCSP_SIGNATURE_new                                output.o
OCSP_SINGLERESP_free                              output.o
OCSP_SINGLERESP_it                                output.o
OCSP_SINGLERESP_new                               output.o
OPENSSL_NONPIC_relocated                          output.o
OPENSSL_asc2uni                                   output.o
OPENSSL_cleanse                                   output.o
OPENSSL_cpuid_setup                               output.o
OPENSSL_gmtime                                    output.o
OPENSSL_gmtime_adj                                output.o
OPENSSL_ia32cap_P                                 output.o
OPENSSL_ia32cap_loc                               output.o
OPENSSL_isservice                                 output.o
OPENSSL_showfatal                                 output.o
OPENSSL_stderr                                    output.o
OPENSSL_uni2asc                                   output.o
OSSL_DES_version                                  output.o
OSSL_libdes_version                               output.o
OTHERNAME_cmp                                     output.o
OTHERNAME_free                                    output.o
OTHERNAME_it                                      output.o
OTHERNAME_new                                     output.o
OpenSSLDie                                        output.o
OpenSSL_add_all_ciphers                           output.o
OpenSSL_add_all_digests                           output.o
OpenUSB                                           output.o
PBE2PARAM_free                                    output.o
PBE2PARAM_it                                      output.o
PBE2PARAM_new                                     output.o
PBEPARAM_free                                     output.o
PBEPARAM_it                                       output.o
PBEPARAM_new                                      output.o
PBKDF2PARAM_free                                  output.o
PBKDF2PARAM_it                                    output.o
PBKDF2PARAM_new                                   output.o
PEM_ASN1_read_bio                                 output.o
PEM_ASN1_write_bio                                output.o
PEM_bytes_read_bio                                output.o
PEM_def_callback                                  output.o
PEM_dek_info                                      output.o
PEM_do_header                                     output.o
PEM_get_EVP_CIPHER_INFO                           output.o
PEM_proc_type                                     output.o
PEM_read_bio                                      output.o
PEM_read_bio_CMS                                  output.o
PEM_read_bio_DHparams                             output.o
PEM_read_bio_DSAPrivateKey                        output.o
PEM_read_bio_DSA_PUBKEY                           output.o
PEM_read_bio_DSAparams                            output.o
PEM_read_bio_ECPKParameters                       output.o
PEM_read_bio_ECPrivateKey                         output.o
PEM_read_bio_EC_PUBKEY                            output.o
PEM_read_bio_NETSCAPE_CERT_SEQUENCE               output.o
PEM_read_bio_PKCS7                                output.o
PEM_read_bio_PKCS8                                output.o
PEM_read_bio_PKCS8_PRIV_KEY_INFO                  output.o
PEM_read_bio_PUBKEY                               output.o
PEM_read_bio_Parameters                           output.o
PEM_read_bio_PrivateKey                           output.o
PEM_read_bio_RSAPrivateKey                        output.o
PEM_read_bio_RSAPublicKey                         output.o
PEM_read_bio_RSA_PUBKEY                           output.o
PEM_read_bio_X509                                 output.o
PEM_read_bio_X509_CRL                             output.o
PEM_read_bio_X509_REQ                             output.o
PEM_version                                       output.o
PEM_write_bio                                     output.o
PEM_write_bio_ASN1_stream                         output.o
PEM_write_bio_CMS                                 output.o
PEM_write_bio_CMS_stream                          output.o
PEM_write_bio_DHparams                            output.o
PEM_write_bio_DSAPrivateKey                       output.o
PEM_write_bio_DSA_PUBKEY                          output.o
PEM_write_bio_DSAparams                           output.o
PEM_write_bio_ECPKParameters                      output.o
PEM_write_bio_ECPrivateKey                        output.o
PEM_write_bio_EC_PUBKEY                           output.o
PEM_write_bio_NETSCAPE_CERT_SEQUENCE              output.o
PEM_write_bio_PKCS7                               output.o
PEM_write_bio_PKCS8                               output.o
PEM_write_bio_PKCS8PrivateKey                     output.o
PEM_write_bio_PKCS8PrivateKey_nid                 output.o
PEM_write_bio_PKCS8_PRIV_KEY_INFO                 output.o
PEM_write_bio_PUBKEY                              output.o
PEM_write_bio_Parameters                          output.o
PEM_write_bio_PrivateKey                          output.o
PEM_write_bio_RSAPrivateKey                       output.o
PEM_write_bio_RSAPublicKey                        output.o
PEM_write_bio_RSA_PUBKEY                          output.o
PEM_write_bio_X509                                output.o
PEM_write_bio_X509_CRL                            output.o
PEM_write_bio_X509_REQ                            output.o
PEM_write_bio_X509_REQ_NEW                        output.o
PHGetProtocol                                     output.o
PHSetProtocol                                     output.o
PKCS12_AUTHSAFES_it                               output.o
PKCS12_BAGS_free                                  output.o
PKCS12_BAGS_it                                    output.o
PKCS12_BAGS_new                                   output.o
PKCS12_MAC_DATA_free                              output.o
PKCS12_MAC_DATA_it                                output.o
PKCS12_MAC_DATA_new                               output.o
PKCS12_MAKE_KEYBAG                                output.o
PKCS12_MAKE_SHKEYBAG                              output.o
PKCS12_PBE_add                                    output.o
PKCS12_PBE_keyivgen                               output.o
PKCS12_SAFEBAGS_it                                output.o
PKCS12_SAFEBAG_free                               output.o
PKCS12_SAFEBAG_it                                 output.o
PKCS12_SAFEBAG_new                                output.o
PKCS12_certbag2x509                               output.o
PKCS12_certbag2x509crl                            output.o
PKCS12_decrypt_skey                               output.o
PKCS12_free                                       output.o
PKCS12_it                                         output.o
PKCS12_item_decrypt_d2i                           output.o
PKCS12_item_i2d_encrypt                           output.o
PKCS12_item_pack_safebag                          output.o
PKCS12_key_gen_asc                                output.o
PKCS12_key_gen_uni                                output.o
PKCS12_new                                        output.o
PKCS12_pack_authsafes                             output.o
PKCS12_pack_p7data                                output.o
PKCS12_pack_p7encdata                             output.o
PKCS12_pbe_crypt                                  output.o
PKCS12_unpack_authsafes                           output.o
PKCS12_unpack_p7data                              output.o
PKCS12_unpack_p7encdata                           output.o
PKCS12_x5092certbag                               output.o
PKCS12_x509crl2certbag                            output.o
PKCS1_MGF1                                        output.o
PKCS5_PBE_add                                     output.o
PKCS5_PBE_keyivgen                                output.o
PKCS5_PBKDF2_HMAC                                 output.o
PKCS5_PBKDF2_HMAC_SHA1                            output.o
PKCS5_pbe2_set                                    output.o
PKCS5_pbe2_set_iv                                 output.o
PKCS5_pbe_set                                     output.o
PKCS5_pbe_set0_algor                              output.o
PKCS5_v2_PBE_keyivgen                             output.o
PKCS7_ATTR_SIGN_it                                output.o
PKCS7_ATTR_VERIFY_it                              output.o
PKCS7_DIGEST_free                                 output.o
PKCS7_DIGEST_it                                   output.o
PKCS7_DIGEST_new                                  output.o
PKCS7_ENCRYPT_free                                output.o
PKCS7_ENCRYPT_it                                  output.o
PKCS7_ENCRYPT_new                                 output.o
PKCS7_ENC_CONTENT_free                            output.o
PKCS7_ENC_CONTENT_it                              output.o
PKCS7_ENC_CONTENT_new                             output.o
PKCS7_ENVELOPE_free                               output.o
PKCS7_ENVELOPE_it                                 output.o
PKCS7_ENVELOPE_new                                output.o
PKCS7_ISSUER_AND_SERIAL_digest                    output.o
PKCS7_ISSUER_AND_SERIAL_free                      output.o
PKCS7_ISSUER_AND_SERIAL_it                        output.o
PKCS7_ISSUER_AND_SERIAL_new                       output.o
PKCS7_RECIP_INFO_free                             output.o
PKCS7_RECIP_INFO_get0_alg                         output.o
PKCS7_RECIP_INFO_it                               output.o
PKCS7_RECIP_INFO_new                              output.o
PKCS7_RECIP_INFO_set                              output.o
PKCS7_SIGNED_free                                 output.o
PKCS7_SIGNED_it                                   output.o
PKCS7_SIGNED_new                                  output.o
PKCS7_SIGNER_INFO_free                            output.o
PKCS7_SIGNER_INFO_get0_algs                       output.o
PKCS7_SIGNER_INFO_it                              output.o
PKCS7_SIGNER_INFO_new                             output.o
PKCS7_SIGNER_INFO_set                             output.o
PKCS7_SIGNER_INFO_sign                            output.o
PKCS7_SIGN_ENVELOPE_free                          output.o
PKCS7_SIGN_ENVELOPE_it                            output.o
PKCS7_SIGN_ENVELOPE_new                           output.o
PKCS7_add0_attrib_signing_time                    output.o
PKCS7_add1_attrib_digest                          output.o
PKCS7_add_attrib_content_type                     output.o
PKCS7_add_attrib_smimecap                         output.o
PKCS7_add_attribute                               output.o
PKCS7_add_certificate                             output.o
PKCS7_add_crl                                     output.o
PKCS7_add_recipient                               output.o
PKCS7_add_recipient_info                          output.o
PKCS7_add_signature                               output.o
PKCS7_add_signed_attribute                        output.o
PKCS7_add_signer                                  output.o
PKCS7_cert_from_signer_info                       output.o
PKCS7_content_new                                 output.o
PKCS7_ctrl                                        output.o
PKCS7_dataDecode                                  output.o
PKCS7_dataFinal                                   output.o
PKCS7_dataInit                                    output.o
PKCS7_dataVerify                                  output.o
PKCS7_digest_from_attributes                      output.o
PKCS7_dup                                         output.o
PKCS7_free                                        output.o
PKCS7_get_attribute                               output.o
PKCS7_get_issuer_and_serial                       output.o
PKCS7_get_signed_attribute                        output.o
PKCS7_get_signer_info                             output.o
PKCS7_get_smimecap                                output.o
PKCS7_it                                          output.o
PKCS7_new                                         output.o
PKCS7_print_ctx                                   output.o
PKCS7_set0_type_other                             output.o
PKCS7_set_attributes                              output.o
PKCS7_set_cipher                                  output.o
PKCS7_set_content                                 output.o
PKCS7_set_digest                                  output.o
PKCS7_set_signed_attributes                       output.o
PKCS7_set_type                                    output.o
PKCS7_signatureVerify                             output.o
PKCS7_simple_smimecap                             output.o
PKCS7_stream                                      output.o
PKCS8_PRIV_KEY_INFO_free                          output.o
PKCS8_PRIV_KEY_INFO_it                            output.o
PKCS8_PRIV_KEY_INFO_new                           output.o
PKCS8_decrypt                                     output.o
PKCS8_encrypt                                     output.o
PKCS8_pkey_get0                                   output.o
PKCS8_pkey_set0                                   output.o
PKCS8_set_broken                                  output.o
PKEY_USAGE_PERIOD_free                            output.o
PKEY_USAGE_PERIOD_it                              output.o
PKEY_USAGE_PERIOD_new                             output.o
POLICYINFO_free                                   output.o
POLICYINFO_it                                     output.o
POLICYINFO_new                                    output.o
POLICYQUALINFO_free                               output.o
POLICYQUALINFO_it                                 output.o
POLICYQUALINFO_new                                output.o
POLICY_CONSTRAINTS_free                           output.o
POLICY_CONSTRAINTS_it                             output.o
POLICY_CONSTRAINTS_new                            output.o
POLICY_MAPPINGS_it                                output.o
POLICY_MAPPING_free                               output.o
POLICY_MAPPING_it                                 output.o
POLICY_MAPPING_new                                output.o
PROXY_CERT_INFO_EXTENSION_free                    output.o
PROXY_CERT_INFO_EXTENSION_it                      output.o
PROXY_CERT_INFO_EXTENSION_new                     output.o
PROXY_POLICY_free                                 output.o
PROXY_POLICY_it                                   output.o
PROXY_POLICY_new                                  output.o
PowerOff                                          output.o
PowerOn                                           output.o
RAND_SSLeay                                       output.o
RAND_add                                          output.o
RAND_bytes                                        output.o
RAND_cleanup                                      output.o
RAND_get_rand_method                              output.o
RAND_poll                                         output.o
RAND_pseudo_bytes                                 output.o
RAND_seed                                         output.o
RAND_set_rand_method                              output.o
RAND_status                                       output.o
RAND_version                                      output.o
RC2_cbc_encrypt                                   output.o
RC2_cfb64_encrypt                                 output.o
RC2_decrypt                                       output.o
RC2_ecb_encrypt                                   output.o
RC2_encrypt                                       output.o
RC2_ofb64_encrypt                                 output.o
RC2_set_key                                       output.o
RC2_version                                       output.o
RC4                                               output.o
RC4_options                                       output.o
RC4_set_key                                       output.o
RC4_version                                       output.o
RFAddReader                                       output.o
RFCheckReaderEventState                           output.o
RFReaderInfoById                                  output.o
RFRemoveReader                                    output.o
RIPEMD160_Final                                   output.o
RIPEMD160_Init                                    output.o
RIPEMD160_Transform                               output.o
RIPEMD160_Update                                  output.o
RMD160_version                                    output.o
RSAPrivateKey_dup                                 output.o
RSAPrivateKey_it                                  output.o
RSAPublicKey_dup                                  output.o
RSAPublicKey_it                                   output.o
RSA_PKCS1_SSLeay                                  output.o
RSA_X931_hash_id                                  output.o
RSA_blinding_off                                  output.o
RSA_blinding_on                                   output.o
RSA_flags                                         output.o
RSA_free                                          output.o
RSA_generate_key                                  output.o
RSA_generate_key_ex                               output.o
RSA_get_default_method                            output.o
RSA_get_ex_data                                   output.o
RSA_get_ex_new_index                              output.o
RSA_get_method                                    output.o
RSA_memory_lock                                   output.o
RSA_new                                           output.o
RSA_new_method                                    output.o
RSA_padding_add_PKCS1_OAEP                        output.o
RSA_padding_add_PKCS1_PSS                         output.o
RSA_padding_add_PKCS1_type_1                      output.o
RSA_padding_add_PKCS1_type_2                      output.o
RSA_padding_add_SSLv23                            output.o
RSA_padding_add_X931                              output.o
RSA_padding_add_none                              output.o
RSA_padding_check_PKCS1_OAEP                      output.o
RSA_padding_check_PKCS1_type_1                    output.o
RSA_padding_check_PKCS1_type_2                    output.o
RSA_padding_check_SSLv23                          output.o
RSA_padding_check_X931                            output.o
RSA_padding_check_none                            output.o
RSA_private_decrypt                               output.o
RSA_private_encrypt                               output.o
RSA_public_decrypt                                output.o
RSA_public_encrypt                                output.o
RSA_set_default_method                            output.o
RSA_set_ex_data                                   output.o
RSA_set_method                                    output.o
RSA_setup_blinding                                output.o
RSA_sign                                          output.o
RSA_size                                          output.o
RSA_up_ref                                        output.o
RSA_verify                                        output.o
RSA_verify_PKCS1_PSS                              output.o
RSA_version                                       output.o
ReadBinary                                        output.o
ReadDataT0                                        output.o
ReadUSB                                           output.o
ReceiveReply                                      output.o
SCardBeginTransaction                             output.o
SCardConnect                                      output.o
SCardDisconnect                                   output.o
SCardEndTransaction                               output.o
SCardEstablishContext                             output.o
SCardListReaders                                  output.o
SCardReleaseContext                               output.o
SCardStatus                                       output.o
SCardTransmit                                     output.o
SHA1                                              output.o
SHA1_Final                                        output.o
SHA1_Init                                         output.o
SHA1_Transform                                    output.o
SHA1_Update                                       output.o
SHA1_version                                      output.o
SHA224                                            output.o
SHA224_Final                                      output.o
SHA224_Init                                       output.o
SHA224_Update                                     output.o
SHA256                                            output.o
SHA256_Final                                      output.o
SHA256_Init                                       output.o
SHA256_Transform                                  output.o
SHA256_Update                                     output.o
SHA256_version                                    output.o
SHA384                                            output.o
SHA384_Final                                      output.o
SHA384_Init                                       output.o
SHA384_Update                                     output.o
SHA512                                            output.o
SHA512_Final                                      output.o
SHA512_Init                                       output.o
SHA512_Transform                                  output.o
SHA512_Update                                     output.o
SHA512_version                                    output.o
SHA_Final                                         output.o
SHA_Init                                          output.o
SHA_Transform                                     output.o
SHA_Update                                        output.o
SHA_version                                       output.o
SMIME_crlf_copy                                   output.o
SMIME_read_ASN1                                   output.o
SMIME_read_CMS                                    output.o
SMIME_text                                        output.o
SMIME_write_ASN1                                  output.o
SMIME_write_CMS                                   output.o
STACK_version                                     output.o
SXNETID_free                                      output.o
SXNETID_it                                        output.o
SXNETID_new                                       output.o
SXNET_add_id_INTEGER                              output.o
SXNET_add_id_asc                                  output.o
SXNET_add_id_ulong                                output.o
SXNET_free                                        output.o
SXNET_get_id_INTEGER                              output.o
SXNET_get_id_asc                                  output.o
SXNET_get_id_ulong                                output.o
SXNET_it                                          output.o
SXNET_new                                         output.o
Se4AddArpEntryList                                output.o
Se4AdjustTcpMss                                   output.o
Se4And                                            output.o
Se4BitToHex                                       output.o
Se4BroadcastMacAddress                            output.o
Se4BuildIcmpEchoPacket                            output.o
Se4CheckUnicastAddress                            output.o
Se4Cmp                                            output.o
Se4CmpArpEntry                                    output.o
Se4CmpArpWaitEntry                                output.o
Se4CmpIpCombineList                               output.o
Se4CombineIp                                      output.o
Se4FlushArpEntryList                              output.o
Se4FlushIpCombineList                             output.o
Se4FlushIpWaitList                                output.o
Se4Free                                           output.o
Se4FreeArpEntryList                               output.o
Se4FreeArpWaitList                                output.o
Se4FreeIpCombine                                  output.o
Se4FreeIpCombineList                              output.o
Se4FreeIpFragmentList                             output.o
Se4FreeIpHeaderInfo                               output.o
Se4FreeIpWait                                     output.o
Se4FreeIpWaitList                                 output.o
Se4GenerateSubnetMask                             output.o
Se4GenerateSubnetMask32                           output.o
Se4GetBroadcastAddress                            output.o
Se4GetHostAddress                                 output.o
Se4GetNetworkAddress                              output.o
Se4IPToStr                                        output.o
Se4IPToStr32                                      output.o
Se4IPToUINT                                       output.o
Se4Init                                           output.o
Se4InitArpEntryList                               output.o
Se4InitArpWaitList                                output.o
Se4InitIpCombineList                              output.o
Se4InitIpFragmentList                             output.o
Se4InitIpWaitList                                 output.o
Se4InsertIpCombine                                output.o
Se4InsertIpWait                                   output.o
Se4IpCheckChecksum                                output.o
Se4IpChecksum                                     output.o
Se4IsBroadcastAddress                             output.o
Se4IsInSameNetwork                                output.o
Se4IsSubnetMask                                   output.o
Se4IsZeroIP                                       output.o
Se4MacIpRelationKnown                             output.o
Se4MainProc                                       output.o
Se4Not                                            output.o
Se4Or                                             output.o
Se4ParseIpPacket                                  output.o
Se4ParseIpPacketICMPv4                            output.o
Se4ParseIpPacketUDPv4                             output.o
Se4ProcessArpWaitList                             output.o
Se4RecvArp                                        output.o
Se4RecvArpRequest                                 output.o
Se4RecvArpResponse                                output.o
Se4RecvEthPacket                                  output.o
Se4RecvIp                                         output.o
Se4RecvIpComplete                                 output.o
Se4SearchArpEntryList                             output.o
Se4SearchArpWaitList                              output.o
Se4SearchIpCombineList                            output.o
Se4SendArpDoProcess                               output.o
Se4SendArpRequest                                 output.o
Se4SendArpResponse                                output.o
Se4SendEthPacket                                  output.o
Se4SendIcmp                                       output.o
Se4SendIcmpEchoRequest                            output.o
Se4SendIcmpEchoResponse                           output.o
Se4SendIp                                         output.o
Se4SendIpFragment                                 output.o
Se4SendIpFragmentNow                              output.o
Se4SendRawIp                                      output.o
Se4SendUdp                                        output.o
Se4SendWaitingIpWait                              output.o
Se4StrToIP                                        output.o
Se4StrToIP32                                      output.o
Se4Tick                                           output.o
Se4UINTToIP                                       output.o
Se4ZeroIP                                         output.o
Se6AddGuestNode                                   output.o
Se6AddNeighborEntryList                           output.o
Se6And                                            output.o
Se6BroadcastMacAddress                            output.o
Se6BuildIcmpEchoPacket                            output.o
Se6CalcChecksum                                   output.o
Se6CheckIPItemStr                                 output.o
Se6CheckSubnetLength                              output.o
Se6CheckUnicastAddress                            output.o
Se6Cmp                                            output.o
Se6CmpIpCombineList                               output.o
Se6CmpNdpWaitEntry                                output.o
Se6CmpNeighborEntry                               output.o
Se6CombineIp                                      output.o
Se6FlushIpCombineList                             output.o
Se6FlushIpWaitList                                output.o
Se6FlushNeighborEntryList                         output.o
Se6Free                                           output.o
Se6FreeIpCombine                                  output.o
Se6FreeIpCombineList                              output.o
Se6FreeIpFragmentList                             output.o
Se6FreeIpHeaderInfo                               output.o
Se6FreeIpWait                                     output.o
Se6FreeIpWaitList                                 output.o
Se6FreeNdpWaitList                                output.o
Se6FreeNeighborEntryList                          output.o
Se6GenerateEui64Address                           output.o
Se6GenerateEui64GlobalAddress                     output.o
Se6GenerateEui64LocalAddress                      output.o
Se6GenerateMulticastMacAddress                    output.o
Se6GenerateSubnetMask                             output.o
Se6GetAllNodeMulticastAddr                        output.o
Se6GetAllRouterMulticastAddr                      output.o
Se6GetHostAddress                                 output.o
Se6GetIPAddrType                                  output.o
Se6GetPrefixAddress                               output.o
Se6GetSoliciationMulticastAddr                    output.o
Se6IPItemStrToChars                               output.o
Se6IPToStr                                        output.o
Se6Init                                           output.o
Se6InitIpCombineList                              output.o
Se6InitIpFragmentList                             output.o
Se6InitIpWaitList                                 output.o
Se6InitNdpWaitList                                output.o
Se6InitNeighborEntryList                          output.o
Se6InsertIpCombine                                output.o
Se6InsertIpWait                                   output.o
Se6IpChecksum                                     output.o
Se6IsGuestNode                                    output.o
Se6IsInSameNetwork                                output.o
Se6IsNetworkPrefixAddress                         output.o
Se6IsSubnetMask                                   output.o
Se6IsZeroIP                                       output.o
Se6LocalSubnet                                    output.o
Se6MacIpRelationKnown                             output.o
Se6MainProc                                       output.o
Se6Not                                            output.o
Se6Or                                             output.o
Se6ParseIpPacket                                  output.o
Se6ParseIpPacketICMPv6                            output.o
Se6ParseIpPacketUDPv6                             output.o
Se6ProcessNdpWaitList                             output.o
Se6RecvEthPacket                                  output.o
Se6RecvIp                                         output.o
Se6RecvIpComplete                                 output.o
Se6SearchIpCombineList                            output.o
Se6SearchNdpWaitList                              output.o
Se6SearchNeighborEntryList                        output.o
Se6SendEthPacket                                  output.o
Se6SendIcmp                                       output.o
Se6SendIcmpEchoRequest                            output.o
Se6SendIcmpEchoResponse                           output.o
Se6SendIcmpNeighborAdvertisement                  output.o
Se6SendIcmpNeighborSoliciation                    output.o
Se6SendIcmpRouterAdvertisement                    output.o
Se6SendIp                                         output.o
Se6SendIpFragment                                 output.o
Se6SendIpFragmentNow                              output.o
Se6SendNeighborSoliciation                        output.o
Se6SendNeighborSoliciationDoProcess               output.o
Se6SendRawIp                                      output.o
Se6SendUdp                                        output.o
Se6SendWaitingIpWait                              output.o
Se6StrToIP                                        output.o
Se6SubnetMaskToInt                                output.o
Se6Tick                                           output.o
Se6ZeroIP                                         output.o
SeAdd                                             output.o
SeAddBufStr                                       output.o
SeAdjustBufSize                                   output.o
SeB64CharToCode                                   output.o
SeB64CodeToChar                                   output.o
SeB64Decode                                       output.o
SeB64Encode                                       output.o
SeBSearch                                         output.o
SeBigNumToBuf                                     output.o
SeBigNumToStr                                     output.o
SeBinToBigNum                                     output.o
SeBinToStr                                        output.o
SeBinToStrEx                                      output.o
SeBioToBuf                                        output.o
SeBioToCert                                       output.o
SeBioToKey                                        output.o
SeBufToBigNum                                     output.o
SeBufToBio                                        output.o
SeBufToCert                                       output.o
SeBufToKey                                        output.o
SeBuildAndAddIPv6PacketOptionHeader               output.o
SeBuildICMPv6OptionValue                          output.o
SeBuildICMPv6Options                              output.o
SeBuildIPv6Packet                                 output.o
SeBuildIPv6PacketWithFragment                     output.o
SeCalcReplaceStrEx                                output.o
SeCertToBio                                       output.o
SeCertToBuf                                       output.o
SeCheckCert                                       output.o
SeCheckCertAndKey                                 output.o
SeCheckSignature                                  output.o
SeClearBuf                                        output.o
SeClearFifo                                       output.o
SeClone                                           output.o
SeCloneBuf                                        output.o
SeCloneCert                                       output.o
SeCloneKey                                        output.o
SeCloneList                                       output.o
SeCmp                                             output.o
SeCmpBuf                                          output.o
SeCmpEx                                           output.o
SeCompareCert                                     output.o
SeCompareStr                                      output.o
SeCopy                                            output.o
SeCopyStr                                         output.o
SeCopyToArray                                     output.o
SeDebug                                           output.o
SeDebugBin                                        output.o
SeDefaultTokenSplitChars                          output.o
SeDelete                                          output.o
SeDeleteAll                                       output.o
SeDeleteLock                                      output.o
SeDes3Decrypt                                     output.o
SeDes3Encrypt                                     output.o
SeDes3FreeKey                                     output.o
SeDes3NewKey                                      output.o
SeDes3RandKey                                     output.o
SeDesFreeKey                                      output.o
SeDesFreeKeyValue                                 output.o
SeDesNewKey                                       output.o
SeDesNewKeyValue                                  output.o
SeDesRandKey                                      output.o
SeDesRandKeyValue                                 output.o
SeDhCompute                                       output.o
SeDhFree                                          output.o
SeDhNew                                           output.o
SeDhNewGroup2                                     output.o
SeDumpBuf                                         output.o
SeEndWith                                         output.o
SeEndian16                                        output.o
SeEndian32                                        output.o
SeEndian64                                        output.o
SeError                                           output.o
SeEthAddSenderMacList                             output.o
SeEthDeleteOldSenderMacList                       output.o
SeEthFree                                         output.o
SeEthGenRandMacAddress                            output.o
SeEthGetInfo                                      output.o
SeEthGetNextRecvPacket                            output.o
SeEthIsSenderMacAddressExistsInList               output.o
SeEthNew                                          output.o
SeEthNicCallback                                  output.o
SeEthParseEthernetPacket                          output.o
SeEthSend                                         output.o
SeEthSendAdd                                      output.o
SeEthSendAll                                      output.o
SeFastSwap                                        output.o
SeFatal                                           output.o
SeFifoSize                                        output.o
SeFormat                                          output.o
SeFormatArgs                                      output.o
SeFormatEx                                        output.o
SeFree                                            output.o
SeFreeBio                                         output.o
SeFreeBuf                                         output.o
SeFreeBufWithoutBuffer                            output.o
SeFreeCert                                        output.o
SeFreeConfigEntryList                             output.o
SeFreeCrypto                                      output.o
SeFreeFifo                                        output.o
SeFreeKernel                                      output.o
SeFreeKey                                         output.o
SeFreeList                                        output.o
SeFreePKey                                        output.o
SeFreePacket                                      output.o
SeFreePacketList                                  output.o
SeFreePacketListWithoutBuffer                     output.o
SeFreeQueue                                       output.o
SeFreeStack                                       output.o
SeFreeToken                                       output.o
SeFreeX509                                        output.o
SeGetCertIssuerName                               output.o
SeGetCertMd5                                      output.o
SeGetCertSha1                                     output.o
SeGetCertSubjectName                              output.o
SeGetConfigBin                                    output.o
SeGetConfigBool                                   output.o
SeGetConfigEntry                                  output.o
SeGetConfigInt                                    output.o
SeGetConfigInt64                                  output.o
SeGetConfigStr                                    output.o
SeGetCurrentCpuId                                 output.o
SeGetKeyAndValue                                  output.o
SeGetKeyFromCert                                  output.o
SeGetNext                                         output.o
SeGetNextHeaderFromQueue                          output.o
SeGetNextInt                                      output.o
SeHashForSignBySHA1                               output.o
SeHexTo4Bit                                       output.o
SeHexToInt                                        output.o
SeHexToInt64                                      output.o
SeIkeBuild                                        output.o
SeIkeBuildCertPayload                             output.o
SeIkeBuildCertRequestPayload                      output.o
SeIkeBuildDataPayload                             output.o
SeIkeBuildDeletePayload                           output.o
SeIkeBuildIdPayload                               output.o
SeIkeBuildNoticePayload                           output.o
SeIkeBuildPayload                                 output.o
SeIkeBuildPayloadList                             output.o
SeIkeBuildProposalPayload                         output.o
SeIkeBuildSaPayload                               output.o
SeIkeBuildTransformPayload                        output.o
SeIkeBuildTransformValue                          output.o
SeIkeBuildTransformValueList                      output.o
SeIkeDecrypt                                      output.o
SeIkeEncrypt                                      output.o
SeIkeEncryptWithPadding                           output.o
SeIkeFree                                         output.o
SeIkeFreeCertPayload                              output.o
SeIkeFreeCertRequestPayload                       output.o
SeIkeFreeDataPayload                              output.o
SeIkeFreeDeletePayload                            output.o
SeIkeFreeIdPayload                                output.o
SeIkeFreeNoticePayload                            output.o
SeIkeFreePayload                                  output.o
SeIkeFreePayloadList                              output.o
SeIkeFreeProposalPayload                          output.o
SeIkeFreeSaPayload                                output.o
SeIkeFreeTransformPayload                         output.o
SeIkeFreeTransformValueList                       output.o
SeIkeGetFirstPayloadType                          output.o
SeIkeGetIPv4Address                               output.o
SeIkeGetIPv6Address                               output.o
SeIkeGetPayload                                   output.o
SeIkeGetPayloadNum                                output.o
SeIkeInitIPv4Address                              output.o
SeIkeInitIPv6Address                              output.o
SeIkeIpAddressToStr                               output.o
SeIkeIsZeroIP                                     output.o
SeIkeNew                                          output.o
SeIkeNewCertPayload                               output.o
SeIkeNewCertRequestPayload                        output.o
SeIkeNewDataPayload                               output.o
SeIkeNewDeletePayload                             output.o
SeIkeNewIdPayload                                 output.o
SeIkeNewNoticePayload                             output.o
SeIkeNewPayload                                   output.o
SeIkeNewProposalPayload                           output.o
SeIkeNewSaPayload                                 output.o
SeIkeNewTransformPayload                          output.o
SeIkeNewTransformValue                            output.o
SeIkeParse                                        output.o
SeIkeParseCertPayload                             output.o
SeIkeParseCertRequestPayload                      output.o
SeIkeParseDataPayload                             output.o
SeIkeParseDeletePayload                           output.o
SeIkeParseEx                                      output.o
SeIkeParseHeader                                  output.o
SeIkeParseIdPayload                               output.o
SeIkeParseNoticePayload                           output.o
SeIkeParsePayload                                 output.o
SeIkeParsePayloadList                             output.o
SeIkeParsePayloadListEx                           output.o
SeIkeParseProposalPayload                         output.o
SeIkeParseSaPayload                               output.o
SeIkeParseTransformPayload                        output.o
SeIkeParseTransformValueList                      output.o
SeIkePhase1CryptIdToKeySize                       output.o
SeIkePhase2CryptIdToKeySize                       output.o
SeIkeStrToPassword                                output.o
SeIkeStrToPhase1CryptId                           output.o
SeIkeStrToPhase1HashId                            output.o
SeIkeStrToPhase2CryptId                           output.o
SeIkeStrToPhase2HashId                            output.o
SeInfo                                            output.o
SeInitCrypto                                      output.o
SeInitKernel                                      output.o
SeInsert                                          output.o
SeInsertQueue                                     output.o
SeInsertQueueInt                                  output.o
SeInsertStr                                       output.o
SeIntFree                                         output.o
SeIntInit                                         output.o
SeIsAllLowerStr                                   output.o
SeIsAllUpperStr                                   output.o
SeIsBase64                                        output.o
SeIsBigEndian                                     output.o
SeIsCertSignedByCert                              output.o
SeIsCharInStr                                     output.o
SeIsEmptyStr                                      output.o
SeIsInList                                        output.o
SeIsInListStr                                     output.o
SeIsLittleEndian                                  output.o
SeIsSplitChar                                     output.o
SeIsZero                                          output.o
SeKeyToBio                                        output.o
SeKeyToBuf                                        output.o
SeLoad                                            output.o
SeLoadCert                                        output.o
SeLoadConfigEntryList                             output.o
SeLoadConfigEntryListFromBuf                      output.o
SeLoadKey                                         output.o
SeLock                                            output.o
SeLog                                             output.o
SeLogArgs                                         output.o
SeMacSha1                                         output.o
SeMacSha196                                       output.o
SeMacToStr                                        output.o
SeMakeCharArray                                   output.o
SeMalloc                                          output.o
SeMd5                                             output.o
SeMemSize                                         output.o
SeMemToBuf                                        output.o
SeNewBio                                          output.o
SeNewBuf                                          output.o
SeNewFifo                                         output.o
SeNewList                                         output.o
SeNewLock                                         output.o
SeNewQueue                                        output.o
SeNewStack                                        output.o
SeNormalizeCrlf                                   output.o
SeNullTokenList                                   output.o
SePKeyPasswordCallbackFunction                    output.o
SeParseICMPv6Options                              output.o
SeParseIPv6ExtHeader                              output.o
SeParseIPv6Packet                                 output.o
SeParsePacket                                     output.o
SeParsePacketL2                                   output.o
SeParsePacketL3ARPv4                              output.o
SeParsePacketL3IPv4                               output.o
SeParsePacketL3IPv6                               output.o
SeParseToken                                      output.o
SeParseTokenWithNullStr                           output.o
SePeekFifo                                        output.o
SePeekNext                                        output.o
SePop                                             output.o
SePush                                            output.o
SeQSort                                           output.o
SeRand                                            output.o
SeRand1                                           output.o
SeRand16                                          output.o
SeRand32                                          output.o
SeRand64                                          output.o
SeRand8                                           output.o
SeRandBuf                                         output.o
SeReAlloc                                         output.o
SeReadBuf                                         output.o
SeReadBufFromBuf                                  output.o
SeReadBufInt                                      output.o
SeReadBufInt64                                    output.o
SeReadBufStr                                      output.o
SeReadDump                                        output.o
SeReadFifo                                        output.o
SeReadNextLine                                    output.o
SeReadRemainBuf                                   output.o
SeReplaceListPointer                              output.o
SeReplaceStr                                      output.o
SeReplaceStrEx                                    output.o
SeReplaceStri                                     output.o
SeRsaGen                                          output.o
SeRsaPrivateDecrypt                               output.o
SeRsaPrivateEncrypt                               output.o
SeRsaPublicDecrypt                                output.o
SeRsaPublicEncrypt                                output.o
SeRsaPublicSize                                   output.o
SeRsaPublicToBin                                  output.o
SeRsaPublicToBuf                                  output.o
SeRsaSign                                         output.o
SeRsaSignWithPadding                              output.o
SeRsaSignWithSha1                                 output.o
SeRsaVerifyWithPadding                            output.o
SeRsaVerifyWithSha1                               output.o
SeSave                                            output.o
SeSaveCert                                        output.o
SeSaveKey                                         output.o
SeSearch                                          output.o
SeSearchStr                                       output.o
SeSearchStrEx                                     output.o
SeSearchStri                                      output.o
SeSecAddTimer                                     output.o
SeSecCalcKEYMAT                                   output.o
SeSecCalcKEYMATFull                               output.o
SeSecCalcKa                                       output.o
SeSecCalcP1Iv                                     output.o
SeSecCalcP1KeySet                                 output.o
SeSecCalcP2Iv                                     output.o
SeSecCheckIPsecSaExpires                          output.o
SeSecCheckIkeSaExpires                            output.o
SeSecCmpIkeSa                                     output.o
SeSecDeleteExpiredIPsecSa                         output.o
SeSecDeleteExpiredIkeSa                           output.o
SeSecDoInterval                                   output.o
SeSecEspRecvCallback                              output.o
SeSecForceReconnect                               output.o
SeSecFree                                         output.o
SeSecFreeIPsecSa                                  output.o
SeSecFreeIkeSa                                    output.o
SeSecFreeMain                                     output.o
SeSecFreeP1KeySet                                 output.o
SeSecFreeSaList                                   output.o
SeSecGenIPsecSASpi                                output.o
SeSecGenIkeSaInitCookie                           output.o
SeSecGenIkeSaMessageId                            output.o
SeSecGetIPsecSa                                   output.o
SeSecInit                                         output.o
SeSecInitMain                                     output.o
SeSecInitSaList                                   output.o
SeSecLifeSeconds64bit                             output.o
SeSecNewIPsecSa                                   output.o
SeSecNewIkeSa                                     output.o
SeSecNewSpi                                       output.o
SeSecProcessIkeSaMsg                              output.o
SeSecProcessIkeSaMsgInfo                          output.o
SeSecProcessIkeSaMsgPhase1                        output.o
SeSecProcessIkeSaMsgPhase2                        output.o
SeSecProcessMain                                  output.o
SeSecSearchIPsecSaBySpi                           output.o
SeSecSearchIkeSa                                  output.o
SeSecSearchIkeSaBySpi                             output.o
SeSecSendEsp                                      output.o
SeSecSendIPsecSaDeleteMsg                         output.o
SeSecSendIkeSaDeleteMsg                           output.o
SeSecSendIkeSaMsgInfo                             output.o
SeSecSendIkeSaMsgInfoSimple                       output.o
SeSecSendIkeSaMsgPhase2                           output.o
SeSecSendIkeSaMsgPhase2FinalHash                  output.o
SeSecSendUdp                                      output.o
SeSecSendVirtualIp                                output.o
SeSecSetRecvEspCallback                           output.o
SeSecSetRecvUdpCallback                           output.o
SeSecSetRecvVirtualIpCallback                     output.o
SeSecSetTimerCallback                             output.o
SeSecStartVpnConnect                              output.o
SeSecStrToAuthMethod                              output.o
SeSecTick                                         output.o
SeSecTimerCallback                                output.o
SeSecUdpRecvCallback                              output.o
SeSecVirtualIpRecvCallback                        output.o
SeSeekBuf                                         output.o
SeSetCmp                                          output.o
SeSetSortFlag                                     output.o
SeSha1                                            output.o
SeSort                                            output.o
SeStartWith                                       output.o
SeStrCat                                          output.o
SeStrCheckLen                                     output.o
SeStrCheckSize                                    output.o
SeStrCmp                                          output.o
SeStrCmpi                                         output.o
SeStrCpy                                          output.o
SeStrLen                                          output.o
SeStrLower                                        output.o
SeStrSize                                         output.o
SeStrToBin                                        output.o
SeStrToBinEx                                      output.o
SeStrToMac                                        output.o
SeStrUpper                                        output.o
SeStrnCmp                                         output.o
SeStrnCmpi                                        output.o
SeSwap                                            output.o
SeSwap16                                          output.o
SeSwap32                                          output.o
SeSwap64                                          output.o
SeSysFreeData                                     output.o
SeSysFreeLock                                     output.o
SeSysFreeTimer                                    output.o
SeSysGetCurrentCpuId                              output.o
SeSysGetPhysicalNicInfo                           output.o
SeSysGetTickCount                                 output.o
SeSysGetVirtualNicInfo                            output.o
SeSysLoadData                                     output.o
SeSysLock                                         output.o
SeSysLog                                          output.o
SeSysMemoryAlloc                                  output.o
SeSysMemoryFree                                   output.o
SeSysMemoryReAlloc                                output.o
SeSysNewLock                                      output.o
SeSysNewTimer                                     output.o
SeSysRsaSign                                      output.o
SeSysSaveData                                     output.o
SeSysSendPhysicalNic                              output.o
SeSysSendVirtualNic                               output.o
SeSysSetPhysicalNicRecvCallback                   output.o
SeSysSetTimer                                     output.o
SeSysSetVirtualNicRecvCallback                    output.o
SeSysUnlock                                       output.o
SeTick                                            output.o
SeTick64                                          output.o
SeTick64Internal                                  output.o
SeTimerAdjust                                     output.o
SeTimerCallback                                   output.o
SeTimerEntryCompare                               output.o
SeTimerFree                                       output.o
SeTimerNew                                        output.o
SeTimerSet                                        output.o
SeToArray                                         output.o
SeToHex                                           output.o
SeToHex64                                         output.o
SeToInt                                           output.o
SeToInt64                                         output.o
SeToLower                                         output.o
SeToStr                                           output.o
SeToStr3                                          output.o
SeToStr64                                         output.o
SeToUpper                                         output.o
SeTrim                                            output.o
SeTrimCopy                                        output.o
SeTrimCrlf                                        output.o
SeTrimLeft                                        output.o
SeTrimRight                                       output.o
SeUniqueToken                                     output.o
SeUnlock                                          output.o
SeVpn4ClientAddTimer                              output.o
SeVpn4ClientGetTick                               output.o
SeVpn4ClientSendEsp                               output.o
SeVpn4ClientSendUdp                               output.o
SeVpn4ClientSendVirtualIp                         output.o
SeVpn4ClientSetRecvEspCallback                    output.o
SeVpn4ClientSetRecvUdpCallback                    output.o
SeVpn4ClientSetRecvVirtualIpCallback              output.o
SeVpn4ClientSetTimerCallback                      output.o
SeVpn4DhcpBuildDhcpOptionList                     output.o
SeVpn4DhcpFreeOptionList                          output.o
SeVpn4DhcpOptionsToBuf                            output.o
SeVpn4DhcpParseOptionList                         output.o
SeVpn4DhcpParseOptionListMain                     output.o
SeVpn4DhcpSearchOption                            output.o
SeVpn4DhcpSendResponse                            output.o
SeVpn4DhcpServer                                  output.o
SeVpn4DoInterval                                  output.o
SeVpn4Free                                        output.o
SeVpn4FreeIPsec                                   output.o
SeVpn4IPsecInputFromPhysical                      output.o
SeVpn4IPsecInputFromVirtual                       output.o
SeVpn4IPsecMainProc                               output.o
SeVpn4IPsecSendPing                               output.o
SeVpn4Init                                        output.o
SeVpn4InitIPsec                                   output.o
SeVpn4InitSecConfig                               output.o
SeVpn4MainProc                                    output.o
SeVpn4NewDhcpOption                               output.o
SeVpn4RecvPacketPhysical                          output.o
SeVpn4RecvPacketVirtual                           output.o
SeVpn4SetTimer                                    output.o
SeVpn4Tick                                        output.o
SeVpn6ClientAddTimer                              output.o
SeVpn6ClientGetTick                               output.o
SeVpn6ClientSendEsp                               output.o
SeVpn6ClientSendUdp                               output.o
SeVpn6ClientSendVirtualIp                         output.o
SeVpn6ClientSetRecvEspCallback                    output.o
SeVpn6ClientSetRecvUdpCallback                    output.o
SeVpn6ClientSetRecvVirtualIpCallback              output.o
SeVpn6ClientSetTimerCallback                      output.o
SeVpn6DoInterval                                  output.o
SeVpn6Free                                        output.o
SeVpn6FreeIPsec                                   output.o
SeVpn6IPsecInputFromPhysical                      output.o
SeVpn6IPsecInputFromVirtual                       output.o
SeVpn6IPsecMainProc                               output.o
SeVpn6IPsecSendPing                               output.o
SeVpn6Init                                        output.o
SeVpn6InitIPsec                                   output.o
SeVpn6InitSecConfig                               output.o
SeVpn6MainProc                                    output.o
SeVpn6RecvPacketPhysical                          output.o
SeVpn6RecvPacketVirtual                           output.o
SeVpn6SetTimer                                    output.o
SeVpn6Tick                                        output.o
SeVpn6UpdateGuestOsIpAddress                      output.o
SeVpnAddTimer                                     output.o
SeVpnDoInterval                                   output.o
SeVpnEthRecvCallback                              output.o
SeVpnFree                                         output.o
SeVpnFreeConfig                                   output.o
SeVpnFreeIpStack                                  output.o
SeVpnInit                                         output.o
SeVpnInitIpStack                                  output.o
SeVpnLoadConfig                                   output.o
SeVpnMainFree                                     output.o
SeVpnMainHandler                                  output.o
SeVpnMainInit                                     output.o
SeVpnMainProcRecvEtherPacket                      output.o
SeVpnMainProcess                                  output.o
SeVpnRecvEtherPacket                              output.o
SeVpnRecvIpV4PacketCallback                       output.o
SeVpnRecvIpV6PacketCallback                       output.o
SeVpnSendEtherPacket                              output.o
SeVpnStatusChanged                                output.o
SeVpnTick                                         output.o
SeVpnTimerCallback                                output.o
SeWarning                                         output.o
SeWriteBuf                                        output.o
SeWriteBufBuf                                     output.o
SeWriteBufInt                                     output.o
SeWriteBufInt64                                   output.o
SeWriteBufLine                                    output.o
SeWriteBufStr                                     output.o
SeWriteFifo                                       output.o
SeX509ToCert                                      output.o
SeZero                                            output.o
SeZeroMalloc                                      output.o
SelectFileDF                                      output.o
SelectFileEF                                      output.o
SetATR                                            output.o
SetElem                                           output.o
SetLength                                         output.o
StIsdigit                                         output.o
StIsspace                                         output.o
T0XfrBlockCHAR                                    output.o
T0XfrBlockTPDU                                    output.o
T1NegociateIFSD                                   output.o
T1XfrBlockExtendedAPDU                            output.o
T1XfrBlockTPDU                                    output.o
TransHex2Tex                                      output.o
TransTex2Hex                                      output.o
TransmitCommand                                   output.o
TransmitPPS                                       output.o
UI_OpenSSL                                        output.o
UI_add_error_string                               output.o
UI_add_info_string                                output.o
UI_add_input_boolean                              output.o
UI_add_input_string                               output.o
UI_add_user_data                                  output.o
UI_add_verify_string                              output.o
UI_construct_prompt                               output.o
UI_create_method                                  output.o
UI_ctrl                                           output.o
UI_destroy_method                                 output.o
UI_dup_error_string                               output.o
UI_dup_info_string                                output.o
UI_dup_input_boolean                              output.o
UI_dup_input_string                               output.o
UI_dup_verify_string                              output.o
UI_free                                           output.o
UI_get0_action_string                             output.o
UI_get0_output_string                             output.o
UI_get0_result                                    output.o
UI_get0_result_string                             output.o
UI_get0_test_string                               output.o
UI_get0_user_data                                 output.o
UI_get_default_method                             output.o
UI_get_ex_data                                    output.o
UI_get_ex_new_index                               output.o
UI_get_input_flags                                output.o
UI_get_method                                     output.o
UI_get_result_maxsize                             output.o
UI_get_result_minsize                             output.o
UI_get_string_type                                output.o
UI_method_get_closer                              output.o
UI_method_get_flusher                             output.o
UI_method_get_opener                              output.o
UI_method_get_prompt_constructor                  output.o
UI_method_get_reader                              output.o
UI_method_get_writer                              output.o
UI_method_set_closer                              output.o
UI_method_set_flusher                             output.o
UI_method_set_opener                              output.o
UI_method_set_prompt_constructor                  output.o
UI_method_set_reader                              output.o
UI_method_set_writer                              output.o
UI_new                                            output.o
UI_new_method                                     output.o
UI_process                                        output.o
UI_set_default_method                             output.o
UI_set_ex_data                                    output.o
UI_set_method                                     output.o
UI_set_result                                     output.o
USERNOTICE_free                                   output.o
USERNOTICE_it                                     output.o
USERNOTICE_new                                    output.o
UTF8_getc                                         output.o
UTF8_putc                                         output.o
UpdateBinary                                      output.o
VPN_IPsec_Client_Start                            output.o
VPN_IPsec_Client_Stop                             output.o
VPN_IPsec_Free                                    output.o
VPN_IPsec_Init                                    output.o
Verify                                            output.o
WHIRLPOOL                                         output.o
WHIRLPOOL_BitUpdate                               output.o
WHIRLPOOL_Final                                   output.o
WHIRLPOOL_Init                                    output.o
WHIRLPOOL_Update                                  output.o
WriteUSB                                          output.o
X509V3_EXT_CRL_add_conf                           output.o
X509V3_EXT_CRL_add_nconf                          output.o
X509V3_EXT_REQ_add_conf                           output.o
X509V3_EXT_REQ_add_nconf                          output.o
X509V3_EXT_add                                    output.o
X509V3_EXT_add_alias                              output.o
X509V3_EXT_add_conf                               output.o
X509V3_EXT_add_list                               output.o
X509V3_EXT_add_nconf                              output.o
X509V3_EXT_add_nconf_sk                           output.o
X509V3_EXT_cleanup                                output.o
X509V3_EXT_conf                                   output.o
X509V3_EXT_conf_nid                               output.o
X509V3_EXT_d2i                                    output.o
X509V3_EXT_get                                    output.o
X509V3_EXT_get_nid                                output.o
X509V3_EXT_i2d                                    output.o
X509V3_EXT_nconf                                  output.o
X509V3_EXT_nconf_nid                              output.o
X509V3_EXT_print                                  output.o
X509V3_EXT_val_prn                                output.o
X509V3_NAME_from_section                          output.o
X509V3_add1_i2d                                   output.o
X509V3_add_standard_extensions                    output.o
X509V3_add_value                                  output.o
X509V3_add_value_bool                             output.o
X509V3_add_value_bool_nf                          output.o
X509V3_add_value_int                              output.o
X509V3_add_value_uchar                            output.o
X509V3_conf_free                                  output.o
X509V3_extensions_print                           output.o
X509V3_get_d2i                                    output.o
X509V3_get_section                                output.o
X509V3_get_string                                 output.o
X509V3_get_value_bool                             output.o
X509V3_get_value_int                              output.o
X509V3_parse_list                                 output.o
X509V3_section_free                               output.o
X509V3_set_conf_lhash                             output.o
X509V3_set_ctx                                    output.o
X509V3_set_nconf                                  output.o
X509V3_string_free                                output.o
X509_ALGORS_it                                    output.o
X509_ALGOR_dup                                    output.o
X509_ALGOR_free                                   output.o
X509_ALGOR_get0                                   output.o
X509_ALGOR_it                                     output.o
X509_ALGOR_new                                    output.o
X509_ALGOR_set0                                   output.o
X509_ATTRIBUTE_SET_it                             output.o
X509_ATTRIBUTE_count                              output.o
X509_ATTRIBUTE_create                             output.o
X509_ATTRIBUTE_create_by_NID                      output.o
X509_ATTRIBUTE_create_by_OBJ                      output.o
X509_ATTRIBUTE_create_by_txt                      output.o
X509_ATTRIBUTE_dup                                output.o
X509_ATTRIBUTE_free                               output.o
X509_ATTRIBUTE_get0_data                          output.o
X509_ATTRIBUTE_get0_object                        output.o
X509_ATTRIBUTE_get0_type                          output.o
X509_ATTRIBUTE_it                                 output.o
X509_ATTRIBUTE_new                                output.o
X509_ATTRIBUTE_set1_data                          output.o
X509_ATTRIBUTE_set1_object                        output.o
X509_CERT_AUX_free                                output.o
X509_CERT_AUX_it                                  output.o
X509_CERT_AUX_new                                 output.o
X509_CERT_AUX_print                               output.o
X509_CERT_PAIR_free                               output.o
X509_CERT_PAIR_it                                 output.o
X509_CERT_PAIR_new                                output.o
X509_CINF_free                                    output.o
X509_CINF_it                                      output.o
X509_CINF_new                                     output.o
X509_CRL_INFO_free                                output.o
X509_CRL_INFO_it                                  output.o
X509_CRL_INFO_new                                 output.o
X509_CRL_METHOD_free                              output.o
X509_CRL_METHOD_new                               output.o
X509_CRL_add0_revoked                             output.o
X509_CRL_add1_ext_i2d                             output.o
X509_CRL_add_ext                                  output.o
X509_CRL_cmp                                      output.o
X509_CRL_delete_ext                               output.o
X509_CRL_digest                                   output.o
X509_CRL_dup                                      output.o
X509_CRL_free                                     output.o
X509_CRL_get0_by_cert                             output.o
X509_CRL_get0_by_serial                           output.o
X509_CRL_get_ext                                  output.o
X509_CRL_get_ext_by_NID                           output.o
X509_CRL_get_ext_by_OBJ                           output.o
X509_CRL_get_ext_by_critical                      output.o
X509_CRL_get_ext_count                            output.o
X509_CRL_get_ext_d2i                              output.o
X509_CRL_get_meth_data                            output.o
X509_CRL_it                                       output.o
X509_CRL_match                                    output.o
X509_CRL_new                                      output.o
X509_CRL_set_default_method                       output.o
X509_CRL_set_meth_data                            output.o
X509_CRL_sign                                     output.o
X509_CRL_verify                                   output.o
X509_EXTENSIONS_it                                output.o
X509_EXTENSION_create_by_NID                      output.o
X509_EXTENSION_create_by_OBJ                      output.o
X509_EXTENSION_dup                                output.o
X509_EXTENSION_free                               output.o
X509_EXTENSION_get_critical                       output.o
X509_EXTENSION_get_data                           output.o
X509_EXTENSION_get_object                         output.o
X509_EXTENSION_it                                 output.o
X509_EXTENSION_new                                output.o
X509_EXTENSION_set_critical                       output.o
X509_EXTENSION_set_data                           output.o
X509_EXTENSION_set_object                         output.o
X509_LOOKUP_by_alias                              output.o
X509_LOOKUP_by_fingerprint                        output.o
X509_LOOKUP_by_issuer_serial                      output.o
X509_LOOKUP_by_subject                            output.o
X509_LOOKUP_ctrl                                  output.o
X509_LOOKUP_free                                  output.o
X509_LOOKUP_init                                  output.o
X509_LOOKUP_new                                   output.o
X509_LOOKUP_shutdown                              output.o
X509_NAME_ENTRIES_it                              output.o
X509_NAME_ENTRY_create_by_NID                     output.o
X509_NAME_ENTRY_create_by_OBJ                     output.o
X509_NAME_ENTRY_create_by_txt                     output.o
X509_NAME_ENTRY_dup                               output.o
X509_NAME_ENTRY_free                              output.o
X509_NAME_ENTRY_get_data                          output.o
X509_NAME_ENTRY_get_object                        output.o
X509_NAME_ENTRY_it                                output.o
X509_NAME_ENTRY_new                               output.o
X509_NAME_ENTRY_set_data                          output.o
X509_NAME_ENTRY_set_object                        output.o
X509_NAME_INTERNAL_it                             output.o
X509_NAME_add_entry                               output.o
X509_NAME_add_entry_by_NID                        output.o
X509_NAME_add_entry_by_OBJ                        output.o
X509_NAME_add_entry_by_txt                        output.o
X509_NAME_cmp                                     output.o
X509_NAME_delete_entry                            output.o
X509_NAME_digest                                  output.o
X509_NAME_dup                                     output.o
X509_NAME_entry_count                             output.o
X509_NAME_free                                    output.o
X509_NAME_get_entry                               output.o
X509_NAME_get_index_by_NID                        output.o
X509_NAME_get_index_by_OBJ                        output.o
X509_NAME_get_text_by_NID                         output.o
X509_NAME_get_text_by_OBJ                         output.o
X509_NAME_hash                                    output.o
X509_NAME_hash_old                                output.o
X509_NAME_it                                      output.o
X509_NAME_new                                     output.o
X509_NAME_oneline                                 output.o
X509_NAME_print                                   output.o
X509_NAME_print_ex                                output.o
X509_NAME_set                                     output.o
X509_OBJECT_free_contents                         output.o
X509_OBJECT_idx_by_subject                        output.o
X509_OBJECT_retrieve_by_subject                   output.o
X509_OBJECT_retrieve_match                        output.o
X509_OBJECT_up_ref_count                          output.o
X509_POLICY_NODE_print                            output.o
X509_PUBKEY_free                                  output.o
X509_PUBKEY_get                                   output.o
X509_PUBKEY_get0_param                            output.o
X509_PUBKEY_it                                    output.o
X509_PUBKEY_new                                   output.o
X509_PUBKEY_set                                   output.o
X509_PUBKEY_set0_param                            output.o
X509_PURPOSE_add                                  output.o
X509_PURPOSE_cleanup                              output.o
X509_PURPOSE_get0                                 output.o
X509_PURPOSE_get0_name                            output.o
X509_PURPOSE_get0_sname                           output.o
X509_PURPOSE_get_by_id                            output.o
X509_PURPOSE_get_by_sname                         output.o
X509_PURPOSE_get_count                            output.o
X509_PURPOSE_get_id                               output.o
X509_PURPOSE_get_trust                            output.o
X509_PURPOSE_set                                  output.o
X509_REQ_INFO_free                                output.o
X509_REQ_INFO_it                                  output.o
X509_REQ_INFO_new                                 output.o
X509_REQ_add1_attr                                output.o
X509_REQ_add1_attr_by_NID                         output.o
X509_REQ_add1_attr_by_OBJ                         output.o
X509_REQ_add1_attr_by_txt                         output.o
X509_REQ_add_extensions                           output.o
X509_REQ_add_extensions_nid                       output.o
X509_REQ_check_private_key                        output.o
X509_REQ_delete_attr                              output.o
X509_REQ_digest                                   output.o
X509_REQ_dup                                      output.o
X509_REQ_extension_nid                            output.o
X509_REQ_free                                     output.o
X509_REQ_get1_email                               output.o
X509_REQ_get_attr                                 output.o
X509_REQ_get_attr_by_NID                          output.o
X509_REQ_get_attr_by_OBJ                          output.o
X509_REQ_get_attr_count                           output.o
X509_REQ_get_extension_nids                       output.o
X509_REQ_get_extensions                           output.o
X509_REQ_get_pubkey                               output.o
X509_REQ_it                                       output.o
X509_REQ_new                                      output.o
X509_REQ_set_extension_nids                       output.o
X509_REQ_set_pubkey                               output.o
X509_REQ_set_subject_name                         output.o
X509_REQ_set_version                              output.o
X509_REQ_sign                                     output.o
X509_REQ_verify                                   output.o
X509_REVOKED_add1_ext_i2d                         output.o
X509_REVOKED_add_ext                              output.o
X509_REVOKED_delete_ext                           output.o
X509_REVOKED_free                                 output.o
X509_REVOKED_get_ext                              output.o
X509_REVOKED_get_ext_by_NID                       output.o
X509_REVOKED_get_ext_by_OBJ                       output.o
X509_REVOKED_get_ext_by_critical                  output.o
X509_REVOKED_get_ext_count                        output.o
X509_REVOKED_get_ext_d2i                          output.o
X509_REVOKED_it                                   output.o
X509_REVOKED_new                                  output.o
X509_SIG_free                                     output.o
X509_SIG_it                                       output.o
X509_SIG_new                                      output.o
X509_STORE_CTX_cleanup                            output.o
X509_STORE_CTX_free                               output.o
X509_STORE_CTX_get0_current_crl                   output.o
X509_STORE_CTX_get0_current_issuer                output.o
X509_STORE_CTX_get0_param                         output.o
X509_STORE_CTX_get0_parent_ctx                    output.o
X509_STORE_CTX_get0_policy_tree                   output.o
X509_STORE_CTX_get1_chain                         output.o
X509_STORE_CTX_get1_issuer                        output.o
X509_STORE_CTX_get_chain                          output.o
X509_STORE_CTX_get_current_cert                   output.o
X509_STORE_CTX_get_error                          output.o
X509_STORE_CTX_get_error_depth                    output.o
X509_STORE_CTX_get_ex_data                        output.o
X509_STORE_CTX_get_ex_new_index                   output.o
X509_STORE_CTX_get_explicit_policy                output.o
X509_STORE_CTX_init                               output.o
X509_STORE_CTX_new                                output.o
X509_STORE_CTX_purpose_inherit                    output.o
X509_STORE_CTX_set0_crls                          output.o
X509_STORE_CTX_set0_param                         output.o
X509_STORE_CTX_set_cert                           output.o
X509_STORE_CTX_set_chain                          output.o
X509_STORE_CTX_set_default                        output.o
X509_STORE_CTX_set_depth                          output.o
X509_STORE_CTX_set_error                          output.o
X509_STORE_CTX_set_ex_data                        output.o
X509_STORE_CTX_set_flags                          output.o
X509_STORE_CTX_set_purpose                        output.o
X509_STORE_CTX_set_time                           output.o
X509_STORE_CTX_set_trust                          output.o
X509_STORE_CTX_set_verify_cb                      output.o
X509_STORE_CTX_trusted_stack                      output.o
X509_STORE_add_cert                               output.o
X509_STORE_add_crl                                output.o
X509_STORE_add_lookup                             output.o
X509_STORE_free                                   output.o
X509_STORE_get1_certs                             output.o
X509_STORE_get1_crls                              output.o
X509_STORE_get_by_subject                         output.o
X509_STORE_new                                    output.o
X509_STORE_set1_param                             output.o
X509_STORE_set_depth                              output.o
X509_STORE_set_flags                              output.o
X509_STORE_set_purpose                            output.o
X509_STORE_set_trust                              output.o
X509_STORE_set_verify_cb                          output.o
X509_TRUST_add                                    output.o
X509_TRUST_cleanup                                output.o
X509_TRUST_get0                                   output.o
X509_TRUST_get0_name                              output.o
X509_TRUST_get_by_id                              output.o
X509_TRUST_get_count                              output.o
X509_TRUST_get_flags                              output.o
X509_TRUST_get_trust                              output.o
X509_TRUST_set                                    output.o
X509_TRUST_set_default                            output.o
X509_VAL_free                                     output.o
X509_VAL_it                                       output.o
X509_VAL_new                                      output.o
X509_VERIFY_PARAM_add0_policy                     output.o
X509_VERIFY_PARAM_add0_table                      output.o
X509_VERIFY_PARAM_clear_flags                     output.o
X509_VERIFY_PARAM_free                            output.o
X509_VERIFY_PARAM_get_depth                       output.o
X509_VERIFY_PARAM_get_flags                       output.o
X509_VERIFY_PARAM_inherit                         output.o
X509_VERIFY_PARAM_lookup                          output.o
X509_VERIFY_PARAM_new                             output.o
X509_VERIFY_PARAM_set1                            output.o
X509_VERIFY_PARAM_set1_name                       output.o
X509_VERIFY_PARAM_set1_policies                   output.o
X509_VERIFY_PARAM_set_depth                       output.o
X509_VERIFY_PARAM_set_flags                       output.o
X509_VERIFY_PARAM_set_purpose                     output.o
X509_VERIFY_PARAM_set_time                        output.o
X509_VERIFY_PARAM_set_trust                       output.o
X509_VERIFY_PARAM_table_cleanup                   output.o
X509_add1_ext_i2d                                 output.o
X509_add1_reject_object                           output.o
X509_add1_trust_object                            output.o
X509_add_ext                                      output.o
X509_alias_get0                                   output.o
X509_alias_set1                                   output.o
X509_check_akid                                   output.o
X509_check_ca                                     output.o
X509_check_issued                                 output.o
X509_check_private_key                            output.o
X509_check_purpose                                output.o
X509_check_trust                                  output.o
X509_cmp                                          output.o
X509_cmp_current_time                             output.o
X509_cmp_time                                     output.o
X509_delete_ext                                   output.o
X509_digest                                       output.o
X509_dup                                          output.o
X509_email_free                                   output.o
X509_find_by_issuer_and_serial                    output.o
X509_find_by_subject                              output.o
X509_free                                         output.o
X509_get0_pubkey_bitstr                           output.o
X509_get1_email                                   output.o
X509_get1_ocsp                                    output.o
X509_get_default_cert_area                        output.o
X509_get_default_cert_dir                         output.o
X509_get_default_cert_dir_env                     output.o
X509_get_default_cert_file                        output.o
X509_get_default_cert_file_env                    output.o
X509_get_default_private_dir                      output.o
X509_get_ex_data                                  output.o
X509_get_ex_new_index                             output.o
X509_get_ext                                      output.o
X509_get_ext_by_NID                               output.o
X509_get_ext_by_OBJ                               output.o
X509_get_ext_by_critical                          output.o
X509_get_ext_count                                output.o
X509_get_ext_d2i                                  output.o
X509_get_issuer_name                              output.o
X509_get_pubkey                                   output.o
X509_get_pubkey_parameters                        output.o
X509_get_serialNumber                             output.o
X509_get_subject_name                             output.o
X509_gmtime_adj                                   output.o
X509_issuer_and_serial_cmp                        output.o
X509_issuer_and_serial_hash                       output.o
X509_issuer_name_cmp                              output.o
X509_issuer_name_hash                             output.o
X509_issuer_name_hash_old                         output.o
X509_it                                           output.o
X509_keyid_get0                                   output.o
X509_keyid_set1                                   output.o
X509_new                                          output.o
X509_ocspid_print                                 output.o
X509_policy_check                                 output.o
X509_policy_level_get0_node                       output.o
X509_policy_level_node_count                      output.o
X509_policy_node_get0_parent                      output.o
X509_policy_node_get0_policy                      output.o
X509_policy_node_get0_qualifiers                  output.o
X509_policy_tree_free                             output.o
X509_policy_tree_get0_level                       output.o
X509_policy_tree_get0_policies                    output.o
X509_policy_tree_get0_user_policies               output.o
X509_policy_tree_level_count                      output.o
X509_print                                        output.o
X509_print_ex                                     output.o
X509_pubkey_digest                                output.o
X509_reject_clear                                 output.o
X509_set_ex_data                                  output.o
X509_sign                                         output.o
X509_signature_print                              output.o
X509_subject_name_cmp                             output.o
X509_subject_name_hash                            output.o
X509_subject_name_hash_old                        output.o
X509_supported_extension                          output.o
X509_time_adj                                     output.o
X509_time_adj_ex                                  output.o
X509_to_X509_REQ                                  output.o
X509_trust_clear                                  output.o
X509_verify                                       output.o
X509_verify_cert                                  output.o
X509_version                                      output.o
X509at_add1_attr                                  output.o
X509at_add1_attr_by_NID                           output.o
X509at_add1_attr_by_OBJ                           output.o
X509at_add1_attr_by_txt                           output.o
X509at_delete_attr                                output.o
X509at_get0_data_by_OBJ                           output.o
X509at_get_attr                                   output.o
X509at_get_attr_by_NID                            output.o
X509at_get_attr_by_OBJ                            output.o
X509at_get_attr_count                             output.o
X509v3_add_ext                                    output.o
X509v3_delete_ext                                 output.o
X509v3_get_ext                                    output.o
X509v3_get_ext_by_NID                             output.o
X509v3_get_ext_by_OBJ                             output.o
X509v3_get_ext_by_critical                        output.o
X509v3_get_ext_count                              output.o
X9_62_CHARACTERISTIC_TWO_free                     output.o
X9_62_CHARACTERISTIC_TWO_it                       output.o
X9_62_CHARACTERISTIC_TWO_new                      output.o
X9_62_CURVE_it                                    output.o
X9_62_FIELDID_it                                  output.o
X9_62_PENTANOMIAL_free                            output.o
X9_62_PENTANOMIAL_it                              output.o
X9_62_PENTANOMIAL_new                             output.o
ZLONG_it                                          output.o
_CONF_add_string                                  output.o
_CONF_free_data                                   output.o
_CONF_get_section                                 output.o
_CONF_get_section_values                          output.o
_CONF_get_string                                  output.o
_CONF_new_data                                    output.o
_CONF_new_section                                 output.o
__initfunc_acpi_init_global                       output.o
__initfunc_acpi_init_paral                        output.o
__initfunc_ata_init                               output.o
__initfunc_beep_init_msg                          output.o
__initfunc_cache_init_pass                        output.o
__initfunc_cache_init_pcpu                        output.o
__initfunc_cache_init_vcpu                        output.o
__initfunc_callrealmode_init_global               output.o
__initfunc_callrealmode_panic                     output.o
__initfunc_copy_minios                            output.o
__initfunc_core_init                              output.o
__initfunc_cpu_mmu_spt_init_global                output.o
__initfunc_cpu_mmu_spt_init_pcpu                  output.o
__initfunc_cpuid_init                             output.o
__initfunc_cpuid_pass_init                        output.o
__initfunc_create_pass_vm                         output.o
__initfunc_debug_ata_init                         output.o
__initfunc_debug_on_shift_key                     output.o
__initfunc_ehci_init                              output.o
__initfunc_end                                    output.o
__initfunc_exint_pass_init                        output.o
__initfunc_get_shiftflags                         output.o
__initfunc_gmm_pass_init                          output.o
__initfunc_idman_init                             output.o
__initfunc_idman_init_global                      output.o
__initfunc_idman_kernel_init                      output.o
__initfunc_ieee1394_init                          output.o
__initfunc_ieee1394_init_boot                     output.o
__initfunc_install_int0x15_hook                   output.o
__initfunc_int_init_global                        output.o
__initfunc_int_wakeup                             output.o
__initfunc_io_io_init                             output.o
__initfunc_io_iopass_init                         output.o
__initfunc_iommu_setup                            output.o
__initfunc_keyboard_init_msg                      output.o
__initfunc_localapic_init                         output.o
__initfunc_mm_init_global                         output.o
__initfunc_mmio_debug                             output.o
__initfunc_mmio_init                              output.o
__initfunc_msg_init_global                        output.o
__initfunc_msr_init                               output.o
__initfunc_msr_pass_init                          output.o
__initfunc_nmi_pass_init                          output.o
__initfunc_nmi_pass_init_pcpu                     output.o
__initfunc_panic_init_global                      output.o
__initfunc_panic_init_global3                     output.o
__initfunc_panic_init_msg                         output.o
__initfunc_panic_init_pcpu                        output.o
__initfunc_pci_init                               output.o
__initfunc_print_boot_msg                         output.o
__initfunc_printf_init_global                     output.o
__initfunc_pro100_init                            output.o
__initfunc_process_init_ap                        output.o
__initfunc_process_init_global                    output.o
__initfunc_process_wakeup                         output.o
__initfunc_random_init_config0                    output.o
__initfunc_random_init_global                     output.o
__initfunc_reboot_init_msg                        output.o
__initfunc_resume_pro1000                         output.o
__initfunc_segment_init_global                    output.o
__initfunc_serial_init_msg                        output.o
__initfunc_setiohooks                             output.o
__initfunc_sleep_init_global                      output.o
__initfunc_sleep_init_msg                         output.o
__initfunc_start                                  output.o
__initfunc_storage_io_initfunc                    output.o
__initfunc_storage_kernel_init                    output.o
__initfunc_suspend_pro1000                        output.o
__initfunc_svm_panic                              output.o
__initfunc_sx_init_pass_init                      output.o
__initfunc_thread_init_global                     output.o
__initfunc_thread_init_pcpu                       output.o
__initfunc_time_init_global                       output.o
__initfunc_time_init_global_status                output.o
__initfunc_time_init_msg                          output.o
__initfunc_time_init_pcpu                         output.o
__initfunc_timer_init_global                      output.o
__initfunc_tty_init_global                        output.o
__initfunc_tty_init_global2                       output.o
__initfunc_tty_init_msg                           output.o
__initfunc_uhci_init                              output.o
__initfunc_unmap_user_area                        output.o
__initfunc_vcpu_init_global                       output.o
__initfunc_vga_init                               output.o
__initfunc_virtualization_init_pcpu               output.o
__initfunc_vmmcall_boot_init                      output.o
__initfunc_vmmcall_dbgsh_init                     output.o
__initfunc_vmmcall_dbgsh_init_global              output.o
__initfunc_vmmcall_dbgsh_init_pcpu                output.o
__initfunc_vmmcall_iccard_init                    output.o
__initfunc_vmmcall_init                           output.o
__initfunc_vmmcall_log_init                       output.o
__initfunc_vmmcall_status_init                    output.o
__initfunc_vmmcall_status_init_global             output.o
__initfunc_vpn_kernel_init                        output.o
__initfunc_vpn_pro1000_init                       output.o
__initfunc_vramwrite_init_bsp                     output.o
__initfunc_vramwrite_init_msg                     output.o
__initfunc_vt_panic                               output.o
__initfunc_vt_register_status_callback            output.o
__initfunc_xsetbv_init                            output.o
__initfunc_xsetbv_pass_init                       output.o
__process_builtin                                 output.o
__process_builtin_end                             output.o
_dprintf                                          output.o
_dprintft                                         output.o
_shadow_DES_check_key                             output.o
a2d_ASN1_OBJECT                                   output.o
a2i_ASN1_INTEGER                                  output.o
a2i_ASN1_STRING                                   output.o
a2i_GENERAL_NAME                                  output.o
a2i_IPADDRESS                                     output.o
a2i_IPADDRESS_NC                                  output.o
a2i_ipadd                                         output.o
acpi_dsdt_parse                                   output.o
acpi_dsdt_system_state                            output.o
acpi_iohook                                       output.o
acpi_poweroff                                     output.o
acpi_reset                                        output.o
acpi_smi_hook                                     output.o
add_remap                                         output.o
aes_xts_init                                      output.o
ahci_config_read                                  output.o
ahci_config_write                                 output.o
ahci_new                                          output.o
alloc                                             output.o
alloc2                                            output.o
alloc_handler_descriptor                          output.o
alloc_page                                        output.o
alloc_pages                                       output.o
alloc_realmodemem                                 output.o
allocateNewAppID                                  output.o
allocateNewApplicationIdentifiers                 output.o
allocateNewVMID                                   output.o
ap_start_addr                                     output.o
apic_available                                    output.o
apinit_lock                                       output.o
apinit_procs                                      output.o
apinitproc0                                       output.o
app_pkey_methods                                  output.o
asm_vmlaunch_regs_32                              output.o
asm_vmlaunch_regs_64                              output.o
asm_vmresume_regs_32                              output.o
asm_vmresume_regs_64                              output.o
asm_vmrun_regs_32                                 output.o
asm_vmrun_regs_64                                 output.o
asn1_Finish                                       output.o
asn1_GetSequence                                  output.o
asn1_add_error                                    output.o
asn1_const_Finish                                 output.o
asn1_do_adb                                       output.o
asn1_do_lock                                      output.o
asn1_enc_free                                     output.o
asn1_enc_init                                     output.o
asn1_enc_restore                                  output.o
asn1_enc_save                                     output.o
asn1_ex_c2i                                       output.o
asn1_ex_i2c                                       output.o
asn1_get_choice_selector                          output.o
asn1_get_field_ptr                                output.o
asn1_set_choice_selector                          output.o
asn1_template_print_ctx                           output.o
assertion_failed                                  output.o
ata_ahci_mode                                     output.o
ata_bm_handle_command                             output.o
ata_bm_handle_device_specific                     output.o
ata_bm_handle_prd_table                           output.o
ata_bm_handle_status                              output.o
ata_bm_handler                                    output.o
ata_bm_handler_table                              output.o
ata_channel_lock                                  output.o
ata_channel_unlock                                output.o
ata_cmdblk_handler                                output.o
ata_cmdblk_handler_table                          output.o
ata_config_read                                   output.o
ata_config_write                                  output.o
ata_ctlblk_handler                                output.o
ata_ctlblk_handler_table                          output.o
ata_get_cmd_type                                  output.o
ata_handle_queued_status                          output.o
ata_init_io_handler                               output.o
ata_init_vendor                                   output.o
ata_set_bm_handler                                output.o
ata_set_cmdblk_handler                            output.o
ata_set_ctlblk_handler                            output.o
atapi_handle_cmd_packet                           output.o
atapi_handle_config_data                          output.o
atapi_handle_interrupt_reason                     output.o
atapi_handle_packet_data                          output.o
atapi_handle_pio_identify_packet                  output.o
auto_reboot                                       output.o
backtrace                                         output.o
beep_off                                          output.o
beep_on                                           output.o
beep_set_freq                                     output.o
bn_add_part_words                                 output.o
bn_add_words                                      output.o
bn_cmp_part_words                                 output.o
bn_cmp_words                                      output.o
bn_div_words                                      output.o
bn_dup_expand                                     output.o
bn_expand2                                        output.o
bn_mul_add_words                                  output.o
bn_mul_comba4                                     output.o
bn_mul_comba8                                     output.o
bn_mul_high                                       output.o
bn_mul_low_normal                                 output.o
bn_mul_low_recursive                              output.o
bn_mul_normal                                     output.o
bn_mul_part_recursive                             output.o
bn_mul_recursive                                  output.o
bn_mul_words                                      output.o
bn_sqr_comba4                                     output.o
bn_sqr_comba8                                     output.o
bn_sqr_normal                                     output.o
bn_sqr_recursive                                  output.o
bn_sqr_words                                      output.o
bn_sub_part_words                                 output.o
bn_sub_words                                      output.o
bss                                               output.o
c2i_ASN1_BIT_STRING                               output.o
c2i_ASN1_INTEGER                                  output.o
c2i_ASN1_OBJECT                                   output.o
cache_get_attr                                    output.o
cache_get_gmsr_amd                                output.o
cache_get_gmtrr                                   output.o
cache_get_gmtrr_attr                              output.o
cache_get_gmtrr_type                              output.o
cache_get_gmtrrcap                                output.o
cache_get_gpat                                    output.o
cache_set_gmsr_amd                                output.o
cache_set_gmtrr                                   output.o
cache_set_gpat                                    output.o
call_cpuid                                        output.o
call_initfunc                                     output.o
call_io                                           output.o
call_read_msr                                     output.o
call_write_msr                                    output.o
call_xsetbv                                       output.o
callfunc_and_getint                               output.o
callrealmode_bootcd_getstatus                     output.o
callrealmode_disk_readlba                         output.o
callrealmode_disk_readmbr                         output.o
callrealmode_end                                  output.o
callrealmode_endofcodeaddr                        output.o
callrealmode_getfontinfo                          output.o
callrealmode_getshiftflags                        output.o
callrealmode_getsysmemmap                         output.o
callrealmode_printmsg                             output.o
callrealmode_reboot                               output.o
callrealmode_setcursorpos                         output.o
callrealmode_setvideomode                         output.o
callrealmode_start                                output.o
callrealmode_start2                               output.o
callrealmode_startkernel32                        output.o
callrealmode_tcgbios                              output.o
callrealmode_usevcpu                              output.o
cancel_sleep                                      output.o
changePageStatus                                  output.o
check_defer                                       output.o
chelp_abort                                       output.o
chelp_bsearch                                     output.o
chelp_div_64_32_32                                output.o
chelp_div_64_32_64                                output.o
chelp_free                                        output.o
chelp_inited                                      output.o
chelp_isalnum                                     output.o
chelp_isalpha                                     output.o
chelp_isdigit                                     output.o
chelp_islower                                     output.o
chelp_isspace                                     output.o
chelp_isupper                                     output.o
chelp_isxdigit                                    output.o
chelp_malloc                                      output.o
chelp_memchr                                      output.o
chelp_memcmp                                      output.o
chelp_memcpy                                      output.o
chelp_memmove                                     output.o
chelp_memset                                      output.o
chelp_mod_64_32_32                                output.o
chelp_mul_64_64_64                                output.o
chelp_print                                       output.o
chelp_printf                                      output.o
chelp_qsort                                       output.o
chelp_realloc                                     output.o
chelp_snprintf                                    output.o
chelp_sprintf                                     output.o
chelp_strcat                                      output.o
chelp_strchr                                      output.o
chelp_strcmp                                      output.o
chelp_strcpy                                      output.o
chelp_stricmp                                     output.o
chelp_strlen                                      output.o
chelp_strncasecmp                                 output.o
chelp_strncmp                                     output.o
chelp_strncpy                                     output.o
chelp_strrchr                                     output.o
chelp_strtol                                      output.o
chelp_strtoul                                     output.o
chelp_strtoul_ex                                  output.o
chelp_swap                                        output.o
chelp_tolower                                     output.o
chelp_toupper                                     output.o
cleanse_ctr                                       output.o
clflush_size                                      output.o
closePage                                         output.o
cmpxchg_gphys_l                                   output.o
cmpxchg_gphys_q                                   output.o
cmpxchg_hphys_l                                   output.o
cmpxchg_hphys_q                                   output.o
cms_Data_create                                   output.o
cms_DigestAlgorithm_find_ctx                      output.o
cms_DigestAlgorithm_init_bio                      output.o
cms_DigestAlgorithm_set                           output.o
cms_DigestedData_create                           output.o
cms_DigestedData_do_final                         output.o
cms_DigestedData_init_bio                         output.o
cms_EncryptedContent_init                         output.o
cms_EncryptedContent_init_bio                     output.o
cms_EncryptedData_init_bio                        output.o
cms_EnvelopedData_init_bio                        output.o
cms_SignedData_final                              output.o
cms_SignedData_init_bio                           output.o
cms_SignerIdentifier_cert_cmp                     output.o
cms_SignerIdentifier_get0_signer_id               output.o
cms_content_bio                                   output.o
cms_set1_SignerIdentifier                         output.o
config                                            output.o
copy_bootsector                                   output.o
core_init                                         output.o
core_io_handle_default                            output.o
core_io_modify_handler                            output.o
core_io_register_handler                          output.o
core_io_unregister_handler                        output.o
core_mm_read_guest_phys                           output.o
core_mm_write_guest_phys                          output.o
cpu_emul_cli                                      output.o
cpu_emul_cpuid                                    output.o
cpu_emul_hlt                                      output.o
cpu_emul_rdmsr                                    output.o
cpu_emul_realmode_int                             output.o
cpu_emul_sti                                      output.o
cpu_emul_wrmsr                                    output.o
cpu_emul_xsetbv                                   output.o
cpu_interpreter                                   output.o
cpu_mmu_get_pte                                   output.o
cpu_mmu_spt_clear_all                             output.o
cpu_mmu_spt_extern_mapsearch                      output.o
cpu_mmu_spt_init                                  output.o
cpu_mmu_spt_invalidate                            output.o
cpu_mmu_spt_map_1mb                               output.o
cpu_mmu_spt_pagefault                             output.o
cpu_mmu_spt_tlbflush                              output.o
cpu_mmu_spt_updatecr3                             output.o
cpu_seg_read_b                                    output.o
cpu_seg_read_l                                    output.o
cpu_seg_read_q                                    output.o
cpu_seg_read_w                                    output.o
cpu_seg_write_b                                   output.o
cpu_seg_write_l                                   output.o
cpu_seg_write_q                                   output.o
cpu_seg_write_w                                   output.o
cpu_stack_get                                     output.o
cpu_stack_pop                                     output.o
cpu_stack_push                                    output.o
cpu_stack_set                                     output.o
cpuinit_end                                       output.o
cpuinit_start                                     output.o
create_dom                                        output.o
crypt_sys_rsa_sign                                output.o
crypto_find                                       output.o
crypto_init                                       output.o
crypto_none_init                                  output.o
crypto_register                                   output.o
currentRunningApplication                         output.o
curthread                                         output.o
d2i_ACCESS_DESCRIPTION                            output.o
d2i_ASN1_BIT_STRING                               output.o
d2i_ASN1_BMPSTRING                                output.o
d2i_ASN1_BOOLEAN                                  output.o
d2i_ASN1_ENUMERATED                               output.o
d2i_ASN1_GENERALIZEDTIME                          output.o
d2i_ASN1_GENERALSTRING                            output.o
d2i_ASN1_IA5STRING                                output.o
d2i_ASN1_INTEGER                                  output.o
d2i_ASN1_NULL                                     output.o
d2i_ASN1_OBJECT                                   output.o
d2i_ASN1_OCTET_STRING                             output.o
d2i_ASN1_PRINTABLE                                output.o
d2i_ASN1_PRINTABLESTRING                          output.o
d2i_ASN1_SEQUENCE_ANY                             output.o
d2i_ASN1_SET                                      output.o
d2i_ASN1_SET_ANY                                  output.o
d2i_ASN1_T61STRING                                output.o
d2i_ASN1_TIME                                     output.o
d2i_ASN1_TYPE                                     output.o
d2i_ASN1_UINTEGER                                 output.o
d2i_ASN1_UNIVERSALSTRING                          output.o
d2i_ASN1_UTCTIME                                  output.o
d2i_ASN1_UTF8STRING                               output.o
d2i_ASN1_VISIBLESTRING                            output.o
d2i_ASN1_bytes                                    output.o
d2i_ASN1_type_bytes                               output.o
d2i_AUTHORITY_INFO_ACCESS                         output.o
d2i_AUTHORITY_KEYID                               output.o
d2i_AutoPrivateKey                                output.o
d2i_BASIC_CONSTRAINTS                             output.o
d2i_CERTIFICATEPOLICIES                           output.o
d2i_CMS_ContentInfo                               output.o
d2i_CMS_bio                                       output.o
d2i_CRL_DIST_POINTS                               output.o
d2i_DHparams                                      output.o
d2i_DIRECTORYSTRING                               output.o
d2i_DISPLAYTEXT                                   output.o
d2i_DIST_POINT                                    output.o
d2i_DIST_POINT_NAME                               output.o
d2i_DSAPrivateKey                                 output.o
d2i_DSAPrivateKey_bio                             output.o
d2i_DSAPublicKey                                  output.o
d2i_DSA_PUBKEY                                    output.o
d2i_DSA_PUBKEY_bio                                output.o
d2i_DSA_SIG                                       output.o
d2i_DSAparams                                     output.o
d2i_ECDSA_SIG                                     output.o
d2i_ECPKPARAMETERS                                output.o
d2i_ECPKParameters                                output.o
d2i_ECParameters                                  output.o
d2i_ECPrivateKey                                  output.o
d2i_ECPrivateKey_bio                              output.o
d2i_EC_PRIVATEKEY                                 output.o
d2i_EC_PUBKEY                                     output.o
d2i_EC_PUBKEY_bio                                 output.o
d2i_EDIPARTYNAME                                  output.o
d2i_EXTENDED_KEY_USAGE                            output.o
d2i_GENERAL_NAME                                  output.o
d2i_GENERAL_NAMES                                 output.o
d2i_ISSUING_DIST_POINT                            output.o
d2i_NETSCAPE_CERT_SEQUENCE                        output.o
d2i_NETSCAPE_SPKAC                                output.o
d2i_NETSCAPE_SPKI                                 output.o
d2i_NOTICEREF                                     output.o
d2i_OCSP_BASICRESP                                output.o
d2i_OCSP_CERTID                                   output.o
d2i_OCSP_CERTSTATUS                               output.o
d2i_OCSP_CRLID                                    output.o
d2i_OCSP_ONEREQ                                   output.o
d2i_OCSP_REQINFO                                  output.o
d2i_OCSP_REQUEST                                  output.o
d2i_OCSP_RESPBYTES                                output.o
d2i_OCSP_RESPDATA                                 output.o
d2i_OCSP_RESPID                                   output.o
d2i_OCSP_RESPONSE                                 output.o
d2i_OCSP_REVOKEDINFO                              output.o
d2i_OCSP_SERVICELOC                               output.o
d2i_OCSP_SIGNATURE                                output.o
d2i_OCSP_SINGLERESP                               output.o
d2i_OTHERNAME                                     output.o
d2i_PBE2PARAM                                     output.o
d2i_PBEPARAM                                      output.o
d2i_PBKDF2PARAM                                   output.o
d2i_PKCS12                                        output.o
d2i_PKCS12_BAGS                                   output.o
d2i_PKCS12_MAC_DATA                               output.o
d2i_PKCS12_SAFEBAG                                output.o
d2i_PKCS12_bio                                    output.o
d2i_PKCS7                                         output.o
d2i_PKCS7_DIGEST                                  output.o
d2i_PKCS7_ENCRYPT                                 output.o
d2i_PKCS7_ENC_CONTENT                             output.o
d2i_PKCS7_ENVELOPE                                output.o
d2i_PKCS7_ISSUER_AND_SERIAL                       output.o
d2i_PKCS7_RECIP_INFO                              output.o
d2i_PKCS7_SIGNED                                  output.o
d2i_PKCS7_SIGNER_INFO                             output.o
d2i_PKCS7_SIGN_ENVELOPE                           output.o
d2i_PKCS7_bio                                     output.o
d2i_PKCS8PrivateKey_bio                           output.o
d2i_PKCS8_PRIV_KEY_INFO                           output.o
d2i_PKCS8_PRIV_KEY_INFO_bio                       output.o
d2i_PKCS8_bio                                     output.o
d2i_PKEY_USAGE_PERIOD                             output.o
d2i_POLICYINFO                                    output.o
d2i_POLICYQUALINFO                                output.o
d2i_PROXY_CERT_INFO_EXTENSION                     output.o
d2i_PROXY_POLICY                                  output.o
d2i_PUBKEY                                        output.o
d2i_PUBKEY_bio                                    output.o
d2i_PrivateKey                                    output.o
d2i_PrivateKey_bio                                output.o
d2i_RSAPrivateKey                                 output.o
d2i_RSAPrivateKey_bio                             output.o
d2i_RSAPublicKey                                  output.o
d2i_RSAPublicKey_bio                              output.o
d2i_RSA_PUBKEY                                    output.o
d2i_RSA_PUBKEY_bio                                output.o
d2i_SXNET                                         output.o
d2i_SXNETID                                       output.o
d2i_USERNOTICE                                    output.o
d2i_X509                                          output.o
d2i_X509_ALGOR                                    output.o
d2i_X509_ALGORS                                   output.o
d2i_X509_ATTRIBUTE                                output.o
d2i_X509_AUX                                      output.o
d2i_X509_CERT_AUX                                 output.o
d2i_X509_CERT_PAIR                                output.o
d2i_X509_CINF                                     output.o
d2i_X509_CRL                                      output.o
d2i_X509_CRL_INFO                                 output.o
d2i_X509_CRL_bio                                  output.o
d2i_X509_EXTENSION                                output.o
d2i_X509_EXTENSIONS                               output.o
d2i_X509_NAME                                     output.o
d2i_X509_NAME_ENTRY                               output.o
d2i_X509_PUBKEY                                   output.o
d2i_X509_REQ                                      output.o
d2i_X509_REQ_INFO                                 output.o
d2i_X509_REQ_bio                                  output.o
d2i_X509_REVOKED                                  output.o
d2i_X509_SIG                                      output.o
d2i_X509_VAL                                      output.o
d2i_X509_bio                                      output.o
deactivate_and_delete_urb                         output.o
debug_addstr                                      output.o
debug_gdb                                         output.o
debug_iohook                                      output.o
debug_msgregister                                 output.o
debug_msgunregister                               output.o
decryptcfg                                        output.o
default_pctx                                      output.o
dh_asn1_meth                                      output.o
dh_pkey_meth                                      output.o
disable_apic                                      output.o
do_exint_pass                                     output.o
do_externalint_enable                             output.o
do_io_nothing                                     output.o
do_iopass_default                                 output.o
do_panic_reboot                                   output.o
dom_io                                            output.o
dprintf_port                                      output.o
drhd_list_head                                    output.o
dsa_asn1_meths                                    output.o
dsa_builtin_paramgen                              output.o
dsa_pkey_meth                                     output.o
dsa_pub_internal_it                               output.o
dump_frame                                        output.o
dump_qh                                           output.o
dump_td                                           output.o
dump_td_byvirt                                    output.o
dwReaders                                         output.o
e801_fake_ax                                      output.o
e801_fake_bx                                      output.o
ec_GF2m_have_precompute_mult                      output.o
ec_GF2m_precompute_mult                           output.o
ec_GF2m_simple_add                                output.o
ec_GF2m_simple_cmp                                output.o
ec_GF2m_simple_dbl                                output.o
ec_GF2m_simple_field_div                          output.o
ec_GF2m_simple_field_mul                          output.o
ec_GF2m_simple_field_sqr                          output.o
ec_GF2m_simple_group_check_discriminant           output.o
ec_GF2m_simple_group_clear_finish                 output.o
ec_GF2m_simple_group_copy                         output.o
ec_GF2m_simple_group_finish                       output.o
ec_GF2m_simple_group_get_curve                    output.o
ec_GF2m_simple_group_get_degree                   output.o
ec_GF2m_simple_group_init                         output.o
ec_GF2m_simple_group_set_curve                    output.o
ec_GF2m_simple_invert                             output.o
ec_GF2m_simple_is_at_infinity                     output.o
ec_GF2m_simple_is_on_curve                        output.o
ec_GF2m_simple_make_affine                        output.o
ec_GF2m_simple_mul                                output.o
ec_GF2m_simple_oct2point                          output.o
ec_GF2m_simple_point2oct                          output.o
ec_GF2m_simple_point_clear_finish                 output.o
ec_GF2m_simple_point_copy                         output.o
ec_GF2m_simple_point_finish                       output.o
ec_GF2m_simple_point_get_affine_coordinates       output.o
ec_GF2m_simple_point_init                         output.o
ec_GF2m_simple_point_set_affine_coordinates       output.o
ec_GF2m_simple_point_set_to_infinity              output.o
ec_GF2m_simple_points_make_affine                 output.o
ec_GF2m_simple_set_compressed_coordinates         output.o
ec_GFp_mont_field_decode                          output.o
ec_GFp_mont_field_encode                          output.o
ec_GFp_mont_field_mul                             output.o
ec_GFp_mont_field_set_to_one                      output.o
ec_GFp_mont_field_sqr                             output.o
ec_GFp_mont_group_clear_finish                    output.o
ec_GFp_mont_group_copy                            output.o
ec_GFp_mont_group_finish                          output.o
ec_GFp_mont_group_init                            output.o
ec_GFp_mont_group_set_curve                       output.o
ec_GFp_nist_field_mul                             output.o
ec_GFp_nist_field_sqr                             output.o
ec_GFp_nist_group_copy                            output.o
ec_GFp_nist_group_set_curve                       output.o
ec_GFp_simple_add                                 output.o
ec_GFp_simple_cmp                                 output.o
ec_GFp_simple_dbl                                 output.o
ec_GFp_simple_field_mul                           output.o
ec_GFp_simple_field_sqr                           output.o
ec_GFp_simple_get_Jprojective_coordinates_GFp     output.o
ec_GFp_simple_group_check_discriminant            output.o
ec_GFp_simple_group_clear_finish                  output.o
ec_GFp_simple_group_copy                          output.o
ec_GFp_simple_group_finish                        output.o
ec_GFp_simple_group_get_curve                     output.o
ec_GFp_simple_group_get_degree                    output.o
ec_GFp_simple_group_init                          output.o
ec_GFp_simple_group_set_curve                     output.o
ec_GFp_simple_invert                              output.o
ec_GFp_simple_is_at_infinity                      output.o
ec_GFp_simple_is_on_curve                         output.o
ec_GFp_simple_make_affine                         output.o
ec_GFp_simple_oct2point                           output.o
ec_GFp_simple_point2oct                           output.o
ec_GFp_simple_point_clear_finish                  output.o
ec_GFp_simple_point_copy                          output.o
ec_GFp_simple_point_finish                        output.o
ec_GFp_simple_point_get_affine_coordinates        output.o
ec_GFp_simple_point_init                          output.o
ec_GFp_simple_point_set_affine_coordinates        output.o
ec_GFp_simple_point_set_to_infinity               output.o
ec_GFp_simple_points_make_affine                  output.o
ec_GFp_simple_set_Jprojective_coordinates_GFp     output.o
ec_GFp_simple_set_compressed_coordinates          output.o
ec_pkey_meth                                      output.o
ec_wNAF_have_precompute_mult                      output.o
ec_wNAF_mul                                       output.o
ec_wNAF_precompute_mult                           output.o
ecdh_check                                        output.o
ecdsa_check                                       output.o
eckey_asn1_meth                                   output.o
ehci_check_advance                                output.o
ehci_check_urb_advance                            output.o
ehci_cleanup_urbs                                 output.o
ehci_conceal_portroute                            output.o
ehci_deactivate_urb                               output.o
ehci_dump_alist                                   output.o
ehci_dump_all                                     output.o
ehci_dump_async                                   output.o
ehci_dump_qtd                                     output.o
ehci_dump_qtdm                                    output.o
ehci_dump_urb                                     output.o
ehci_dump_urblist                                 output.o
ehci_end_monitor_async                            output.o
ehci_host                                         output.o
ehci_init                                         output.o
ehci_monitor_async_list                           output.o
ehci_shadow_async_list                            output.o
ehci_shadow_buffer                                output.o
ehci_submit_bulk                                  output.o
ehci_submit_control                               output.o
ehci_submit_interrupt                             output.o
end                                               output.o
entry                                             output.o
entry_pd                                          output.o
entry_pd0                                         output.o
entry_pdp                                         output.o
evp_pkey_set_cb_translate                         output.o
exitprocess                                       output.o
free                                              output.o
free_config_descriptors                           output.o
free_device                                       output.o
free_page                                         output.o
free_page_phys                                    output.o
g_rgSCardT0Pci                                    output.o
g_rgSCardT1Pci                                    output.o
getMemoryOwnershipTableEntry                      output.o
getMemoryOwnershipTableIndex                      output.o
getSystemCallHandlerGPA                           output.o
get_acpi_time                                     output.o
get_acpi_time_raw                                 output.o
get_cpu_id                                        output.o
get_cpu_time                                      output.o
get_ept_base_HPA                                  output.o
get_guest_cr3_value                               output.o
get_guest_eptp_value                              output.o
get_gurb_by_address                               output.o
get_idman_session                                 output.o
get_page_table_base_GPA                           output.o
get_seg_access_rights                             output.o
get_seg_base                                      output.o
get_time                                          output.o
getfakesysmemmap                                  output.o
getsysmemmap                                      output.o
gmm_pass_gp2hp                                    output.o
gpaToHPA                                          output.o
gs_current                                        output.o
gs_currentcpu                                     output.o
gs_init_count                                     output.o
gs_inthandling                                    output.o
gs_nmi                                            output.o
gs_syscallstack                                   output.o
guest_int0x15_e801_fake_ax                        output.o
guest_int0x15_e801_fake_bx                        output.o
guest_int0x15_e820_data_minus0x18                 output.o
guest_int0x15_e820_end                            output.o
guest_int0x15_hook                                output.o
guest_int0x15_hook_end                            output.o
guest_int0x15_orig                                output.o
gvaToGPA                                          output.o
hContext                                          output.o
hObjectCnt                                        output.o
hSessionCnt                                       output.o
handle_connect_status                             output.o
handle_init_to_bsp                                output.o
handle_port_reset                                 output.o
handler_descriptor                                output.o
handler_descriptor_lock                           output.o
head                                              output.o
hex_to_string                                     output.o
hmac_asn1_meth                                    output.o
hmac_pkey_meth                                    output.o
hub_portdevice_register                           output.o
hypercall_handler                                 output.o
i2a_ACCESS_DESCRIPTION                            output.o
i2a_ASN1_INTEGER                                  output.o
i2a_ASN1_OBJECT                                   output.o
i2a_ASN1_STRING                                   output.o
i2c_ASN1_BIT_STRING                               output.o
i2c_ASN1_INTEGER                                  output.o
i2d_ACCESS_DESCRIPTION                            output.o
i2d_ASN1_BIT_STRING                               output.o
i2d_ASN1_BMPSTRING                                output.o
i2d_ASN1_BOOLEAN                                  output.o
i2d_ASN1_ENUMERATED                               output.o
i2d_ASN1_GENERALIZEDTIME                          output.o
i2d_ASN1_GENERALSTRING                            output.o
i2d_ASN1_IA5STRING                                output.o
i2d_ASN1_INTEGER                                  output.o
i2d_ASN1_NULL                                     output.o
i2d_ASN1_OBJECT                                   output.o
i2d_ASN1_OCTET_STRING                             output.o
i2d_ASN1_PRINTABLE                                output.o
i2d_ASN1_PRINTABLESTRING                          output.o
i2d_ASN1_SEQUENCE_ANY                             output.o
i2d_ASN1_SET                                      output.o
i2d_ASN1_SET_ANY                                  output.o
i2d_ASN1_T61STRING                                output.o
i2d_ASN1_TIME                                     output.o
i2d_ASN1_TYPE                                     output.o
i2d_ASN1_UNIVERSALSTRING                          output.o
i2d_ASN1_UTCTIME                                  output.o
i2d_ASN1_UTF8STRING                               output.o
i2d_ASN1_VISIBLESTRING                            output.o
i2d_ASN1_bio_stream                               output.o
i2d_ASN1_bytes                                    output.o
i2d_AUTHORITY_INFO_ACCESS                         output.o
i2d_AUTHORITY_KEYID                               output.o
i2d_BASIC_CONSTRAINTS                             output.o
i2d_CERTIFICATEPOLICIES                           output.o
i2d_CMS_ContentInfo                               output.o
i2d_CMS_bio                                       output.o
i2d_CMS_bio_stream                                output.o
i2d_CRL_DIST_POINTS                               output.o
i2d_DHparams                                      output.o
i2d_DIRECTORYSTRING                               output.o
i2d_DISPLAYTEXT                                   output.o
i2d_DIST_POINT                                    output.o
i2d_DIST_POINT_NAME                               output.o
i2d_DSAPrivateKey                                 output.o
i2d_DSAPrivateKey_bio                             output.o
i2d_DSAPublicKey                                  output.o
i2d_DSA_PUBKEY                                    output.o
i2d_DSA_PUBKEY_bio                                output.o
i2d_DSA_SIG                                       output.o
i2d_DSAparams                                     output.o
i2d_ECDSA_SIG                                     output.o
i2d_ECPKPARAMETERS                                output.o
i2d_ECPKParameters                                output.o
i2d_ECParameters                                  output.o
i2d_ECPrivateKey                                  output.o
i2d_ECPrivateKey_bio                              output.o
i2d_EC_PRIVATEKEY                                 output.o
i2d_EC_PUBKEY                                     output.o
i2d_EC_PUBKEY_bio                                 output.o
i2d_EDIPARTYNAME                                  output.o
i2d_EXTENDED_KEY_USAGE                            output.o
i2d_GENERAL_NAME                                  output.o
i2d_GENERAL_NAMES                                 output.o
i2d_ISSUING_DIST_POINT                            output.o
i2d_NETSCAPE_CERT_SEQUENCE                        output.o
i2d_NETSCAPE_SPKAC                                output.o
i2d_NETSCAPE_SPKI                                 output.o
i2d_NOTICEREF                                     output.o
i2d_OCSP_BASICRESP                                output.o
i2d_OCSP_CERTID                                   output.o
i2d_OCSP_CERTSTATUS                               output.o
i2d_OCSP_CRLID                                    output.o
i2d_OCSP_ONEREQ                                   output.o
i2d_OCSP_REQINFO                                  output.o
i2d_OCSP_REQUEST                                  output.o
i2d_OCSP_RESPBYTES                                output.o
i2d_OCSP_RESPDATA                                 output.o
i2d_OCSP_RESPID                                   output.o
i2d_OCSP_RESPONSE                                 output.o
i2d_OCSP_REVOKEDINFO                              output.o
i2d_OCSP_SERVICELOC                               output.o
i2d_OCSP_SIGNATURE                                output.o
i2d_OCSP_SINGLERESP                               output.o
i2d_OTHERNAME                                     output.o
i2d_PBE2PARAM                                     output.o
i2d_PBEPARAM                                      output.o
i2d_PBKDF2PARAM                                   output.o
i2d_PKCS12                                        output.o
i2d_PKCS12_BAGS                                   output.o
i2d_PKCS12_MAC_DATA                               output.o
i2d_PKCS12_SAFEBAG                                output.o
i2d_PKCS12_bio                                    output.o
i2d_PKCS7                                         output.o
i2d_PKCS7_DIGEST                                  output.o
i2d_PKCS7_ENCRYPT                                 output.o
i2d_PKCS7_ENC_CONTENT                             output.o
i2d_PKCS7_ENVELOPE                                output.o
i2d_PKCS7_ISSUER_AND_SERIAL                       output.o
i2d_PKCS7_NDEF                                    output.o
i2d_PKCS7_RECIP_INFO                              output.o
i2d_PKCS7_SIGNED                                  output.o
i2d_PKCS7_SIGNER_INFO                             output.o
i2d_PKCS7_SIGN_ENVELOPE                           output.o
i2d_PKCS7_bio                                     output.o
i2d_PKCS8PrivateKeyInfo_bio                       output.o
i2d_PKCS8PrivateKey_bio                           output.o
i2d_PKCS8PrivateKey_nid_bio                       output.o
i2d_PKCS8_PRIV_KEY_INFO                           output.o
i2d_PKCS8_PRIV_KEY_INFO_bio                       output.o
i2d_PKCS8_bio                                     output.o
i2d_PKEY_USAGE_PERIOD                             output.o
i2d_POLICYINFO                                    output.o
i2d_POLICYQUALINFO                                output.o
i2d_PROXY_CERT_INFO_EXTENSION                     output.o
i2d_PROXY_POLICY                                  output.o
i2d_PUBKEY                                        output.o
i2d_PUBKEY_bio                                    output.o
i2d_PrivateKey                                    output.o
i2d_PrivateKey_bio                                output.o
i2d_RSAPrivateKey                                 output.o
i2d_RSAPrivateKey_bio                             output.o
i2d_RSAPublicKey                                  output.o
i2d_RSAPublicKey_bio                              output.o
i2d_RSA_PUBKEY                                    output.o
i2d_RSA_PUBKEY_bio                                output.o
i2d_SXNET                                         output.o
i2d_SXNETID                                       output.o
i2d_USERNOTICE                                    output.o
i2d_X509                                          output.o
i2d_X509_ALGOR                                    output.o
i2d_X509_ALGORS                                   output.o
i2d_X509_ATTRIBUTE                                output.o
i2d_X509_AUX                                      output.o
i2d_X509_CERT_AUX                                 output.o
i2d_X509_CERT_PAIR                                output.o
i2d_X509_CINF                                     output.o
i2d_X509_CRL                                      output.o
i2d_X509_CRL_INFO                                 output.o
i2d_X509_CRL_bio                                  output.o
i2d_X509_EXTENSION                                output.o
i2d_X509_EXTENSIONS                               output.o
i2d_X509_NAME                                     output.o
i2d_X509_NAME_ENTRY                               output.o
i2d_X509_PUBKEY                                   output.o
i2d_X509_REQ                                      output.o
i2d_X509_REQ_INFO                                 output.o
i2d_X509_REQ_bio                                  output.o
i2d_X509_REVOKED                                  output.o
i2d_X509_SIG                                      output.o
i2d_X509_VAL                                      output.o
i2d_X509_bio                                      output.o
i2o_ECPublicKey                                   output.o
i2s_ASN1_ENUMERATED                               output.o
i2s_ASN1_ENUMERATED_TABLE                         output.o
i2s_ASN1_INTEGER                                  output.o
i2s_ASN1_OCTET_STRING                             output.o
i2t_ASN1_OBJECT                                   output.o
i2v_ASN1_BIT_STRING                               output.o
i2v_GENERAL_NAME                                  output.o
i2v_GENERAL_NAMES                                 output.o
idea_cbc_encrypt                                  output.o
idea_cfb64_encrypt                                output.o
idea_ecb_encrypt                                  output.o
idea_encrypt                                      output.o
idea_ofb64_encrypt                                output.o
idea_options                                      output.o
idea_set_decrypt_key                              output.o
idea_set_encrypt_key                              output.o
idman_reinit2                                     output.o
idman_reinit_session                              output.o
idman_user_init                                   output.o
ieee1394_init                                     output.o
init_hframelist                                   output.o
initfunc_init                                     output.o
initializeNewProtectedApplication                 output.o
int1a_TCG_CompactHashLogExtendEvent               output.o
int1a_TCG_HashAll                                 output.o
int1a_TCG_HashLogEvent                            output.o
int1a_TCG_HashLogExtendEvent                      output.o
int1a_TCG_PassThroughToTPM                        output.o
int1a_TCG_StatusCheck                             output.o
int1a_TCG_TSS                                     output.o
int_callfunc                                      output.o
int_exceptionHandler                              output.o
int_fatal                                         output.o
int_handler                                       output.o
int_init_ap                                       output.o
int_rsa_verify                                    output.o
iodom_init                                        output.o
iommu_detected                                    output.o
iommu_setup                                       output.o
ipchecksum                                        output.o
keyboard_flush                                    output.o
keyboard_reset                                    output.o
level_add_node                                    output.o
level_find_node                                   output.o
lh_delete                                         output.o
lh_doall                                          output.o
lh_doall_arg                                      output.o
lh_free                                           output.o
lh_insert                                         output.o
lh_new                                            output.o
lh_num_items                                      output.o
lh_retrieve                                       output.o
lh_strhash                                        output.o
lh_version                                        output.o
libInitFlag                                       output.o
load_bootsector                                   output.o
load_minios                                       output.o
load_new_vcpu                                     output.o
localapic_change_base_msr                         output.o
localapic_mmio_register                           output.o
localapic_wait_for_sipi                           output.o
mapHPAintoHVA                                     output.o
mapmem                                            output.o
mapmem_gphys                                      output.o
mapmem_hphys                                      output.o
matched_drhd_u                                    output.o
md4_block_data_order                              output.o
md5_block_data_order                              output.o
memcmp                                            output.o
memcpy                                            output.o
memorysize                                        output.o
mempool_allocmem                                  output.o
mempool_free                                      output.o
mempool_freemem                                   output.o
mempool_new                                       output.o
memset                                            output.o
message_exitcode                                  output.o
message_exitreason                                output.o
mm_flush_wb_cache                                 output.o
mm_force_unlock                                   output.o
mm_process_alloc                                  output.o
mm_process_free                                   output.o
mm_process_map_alloc                              output.o
mm_process_map_shared                             output.o
mm_process_map_shared_physpage                    output.o
mm_process_map_stack                              output.o
mm_process_switch                                 output.o
mm_process_unmap                                  output.o
mm_process_unmap_stack                            output.o
mm_process_unmapall                               output.o
mmio_access_memory                                output.o
mmio_access_page                                  output.o
mmio_lock                                         output.o
mmio_register                                     output.o
mmio_unlock                                       output.o
mmio_unregister                                   output.o
monitor_vmcs_read                                 output.o
move_vmm_area32                                   output.o
move_vmm_area64                                   output.o
mpudiv_128_32                                     output.o
mpumul_64_64                                      output.o
msg_findname                                      output.o
msg_register                                      output.o
msg_unregister                                    output.o
msg_unregister2                                   output.o
msg_unregisterall                                 output.o
msg_usb_bulk_read                                 output.o
msg_usb_bulk_write                                output.o
msg_usb_claim_interface                           output.o
msg_usb_close                                     output.o
msg_usb_control_msg                               output.o
msg_usb_find_busses                               output.o
msg_usb_find_devices                              output.o
msg_usb_get_busses                                output.o
msg_usb_get_string_simple                         output.o
msg_usb_init                                      output.o
msg_usb_open                                      output.o
msg_usb_release_interface                         output.o
msg_usb_reset                                     output.o
msg_vpn_FreeTimer                                 output.o
msg_vpn_GetCurrentCpuId                           output.o
msg_vpn_GetPhysicalNicInfo                        output.o
msg_vpn_GetTickCount                              output.o
msg_vpn_GetVirtualNicInfo                         output.o
msg_vpn_NewTimer                                  output.o
msg_vpn_SendPhysicalNic                           output.o
msg_vpn_SendVirtualNic                            output.o
msg_vpn_SetPhysicalNicRecvCallback                output.o
msg_vpn_SetTimer                                  output.o
msg_vpn_SetVirtualNicRecvCallback                 output.o
msg_vpn_ic_rsa_sign                               output.o
msgclose                                          output.o
msgopen                                           output.o
msgpremapbuf                                      output.o
msgregister                                       output.o
msgsendbuf                                        output.o
msgsenddesc                                       output.o
msgsendint                                        output.o
msgsetfunc                                        output.o
msgunregister                                     output.o
mszReaders                                        output.o
name_cmp                                          output.o
newprocess                                        output.o
num_dom                                           output.o
num_of_available_pages                            output.o
num_of_processors                                 output.o
numberOfProtectedApplications                     output.o
numberOfVMs                                       output.o
o2i_ECPublicKey                                   output.o
obj_cleanup_defer                                 output.o
openPage                                          output.o
packet_handle_command                             output.o
packet_handle_config                              output.o
packet_handle_invalid                             output.o
packet_handle_nondata                             output.o
packet_handle_rw                                  output.o
packet_handle_through                             output.o
panic                                             output.o
panic_oom                                         output.o
panic_test                                        output.o
panic_wakeup_all                                  output.o
parse_dmar_bios_report                            output.o
pci_append_device                                 output.o
pci_conceal_config_data_handler                   output.o
pci_conceal_new_device                            output.o
pci_config_addr_handler                           output.o
pci_config_data_handler                           output.o
pci_device_list_head                              output.o
pci_driver_list_head                              output.o
pci_handle_default_config_write                   output.o
pci_possible_new_device                           output.o
pci_print_device                                  output.o
pci_read_config_data16                            output.o
pci_read_config_data32                            output.o
pci_read_config_data8                             output.o
pci_read_config_data_port                         output.o
pci_register_driver                               output.o
pci_restore_config_addr                           output.o
pci_save_config_addr                              output.o
pci_write_config_data16                           output.o
pci_write_config_data32                           output.o
pci_write_config_data8                            output.o
pci_write_config_data_port                        output.o
pcpu_default                                      output.o
pcpu_init                                         output.o
pcpu_list_add                                     output.o
pcpu_list_foreach                                 output.o
pem_check_suffix                                  output.o
phys_in_vmm                                       output.o
phys_to_virt                                      output.o
pmap_autoalloc                                    output.o
pmap_clear                                        output.o
pmap_close                                        output.o
pmap_dump                                         output.o
pmap_getreadlevel                                 output.o
pmap_open_guest                                   output.o
pmap_open_vmm                                     output.o
pmap_pointer                                      output.o
pmap_read                                         output.o
pmap_seek                                         output.o
pmap_setlevel                                     output.o
pmap_write                                        output.o
policy_cache_find_data                            output.o
policy_cache_free                                 output.o
policy_cache_set                                  output.o
policy_cache_set_mapping                          output.o
policy_data_free                                  output.o
policy_data_new                                   output.o
policy_node_cmp_new                               output.o
policy_node_free                                  output.o
policy_node_match                                 output.o
prepare_for_sleep                                 output.o
printexitcode                                     output.o
printexitreason                                   output.o
printf                                            output.o
pro100_alloc_page                                 output.o
pro100_alloc_recv_buffer                          output.o
pro100_beep                                       output.o
pro100_config_read                                output.o
pro100_config_write                               output.o
pro100_exec_cu_op                                 output.o
pro100_flush                                      output.o
pro100_free_page                                  output.o
pro100_generate_int                               output.o
pro100_get_ctx                                    output.o
pro100_get_cu_command_string                      output.o
pro100_get_int_bit_string                         output.o
pro100_get_op_size                                output.o
pro100_get_ru_command_string                      output.o
pro100_get_stat_ack_string                        output.o
pro100_hook_read                                  output.o
pro100_hook_write                                 output.o
pro100_init                                       output.o
pro100_init_cu_base_addr                          output.o
pro100_init_recv_buffer                           output.o
pro100_init_ru_base_addr                          output.o
pro100_init_vpn_client                            output.o
pro100_io_handler                                 output.o
pro100_mem_read                                   output.o
pro100_mem_write                                  output.o
pro100_mm_handler                                 output.o
pro100_new                                        output.o
pro100_poll_ru                                    output.o
pro100_proc_guest_op                              output.o
pro100_read                                       output.o
pro100_read_send_packet                           output.o
pro100_send_packet_to_line                        output.o
pro100_sleep                                      output.o
pro100_wait_cu_ru_accepable                       output.o
pro100_write                                      output.o
pro100_write_recv_packet                          output.o
process_kill                                      output.o
process_syscall                                   output.o
processuser_no_sysenter                           output.o
processuser_syscall                               output.o
processuser_sysenter                              output.o
prohibit_iccard_init                              output.o
protectCurrentApplication                         output.o
ps2_locked                                        output.o
putchar                                           output.o
putchar_set_func                                  output.o
rand_ssleay_meth                                  output.o
read_gphys_b                                      output.o
read_gphys_l                                      output.o
read_gphys_q                                      output.o
read_gphys_w                                      output.o
read_hphys_b                                      output.o
read_hphys_l                                      output.o
read_hphys_q                                      output.o
read_hphys_w                                      output.o
read_linearaddr_b                                 output.o
read_linearaddr_l                                 output.o
read_linearaddr_q                                 output.o
read_linearaddr_tss                               output.o
read_linearaddr_w                                 output.o
readerState                                       output.o
readerTracker                                     output.o
realloc                                           output.o
reboot_test                                       output.o
register_status_callback                          output.o
resume_vm                                         output.o
ret_to_user32                                     output.o
ret_to_user64                                     output.o
ripemd160_block_data_order                        output.o
rsa_asn1_meths                                    output.o
rsa_pkey_meth                                     output.o
rt                                                output.o
s2i_ASN1_INTEGER                                  output.o
s2i_ASN1_OCTET_STRING                             output.o
sReaderContext                                    output.o
saveSystemCallHandlerAddress                      output.o
savemsr_index                                     output.o
savemsr_load                                      output.o
savemsr_save                                      output.o
scan_gframelist                                   output.o
schedule                                          output.o
security_storage_check_lba                        output.o
segment_init_ap                                   output.o
segment_wakeup                                    output.o
serial_getDebugChar                               output.o
serial_init_iohook                                output.o
serial_putDebugChar                               output.o
serial_putchar                                    output.o
sessionTable                                      output.o
set_int_handler                                   output.o
set_iofunc                                        output.o
setkbdled                                         output.o
shadow_and_activate_urb                           output.o
sig_app                                           output.o
sigx_app                                          output.o
sk_delete                                         output.o
sk_delete_ptr                                     output.o
sk_dup                                            output.o
sk_find                                           output.o
sk_find_ex                                        output.o
sk_free                                           output.o
sk_insert                                         output.o
sk_is_sorted                                      output.o
sk_new                                            output.o
sk_new_null                                       output.o
sk_num                                            output.o
sk_pop                                            output.o
sk_pop_free                                       output.o
sk_push                                           output.o
sk_set                                            output.o
sk_set_cmp_func                                   output.o
sk_shift                                          output.o
sk_sort                                           output.o
sk_unshift                                        output.o
sk_value                                          output.o
sk_zero                                           output.o
sleep_set_timer_counter                           output.o
slotFlag                                          output.o
slotTable                                         output.o
snprintf                                          output.o
start_all_processors                              output.o
storage_free                                      output.o
storage_get_num_hc                                output.o
storage_handle_sectors                            output.o
storage_hc_close                                  output.o
storage_hc_dev_atacommand                         output.o
storage_hc_dev_close                              output.o
storage_hc_dev_open                               output.o
storage_hc_hook_register                          output.o
storage_hc_hook_unregister                        output.o
storage_hc_open                                   output.o
storage_hc_register                               output.o
storage_hc_scandev                                output.o
storage_hc_unregister                             output.o
storage_init                                      output.o
storage_io_aget_size                              output.o
storage_io_aread                                  output.o
storage_io_awrite                                 output.o
storage_io_deinit                                 output.o
storage_io_get_num_devices                        output.o
storage_io_init                                   output.o
storage_new                                       output.o
storage_premap_buf                                output.o
storage_premap_handle_sectors                     output.o
strcmp                                            output.o
string_to_hex                                     output.o
strlen                                            output.o
svm_available                                     output.o
svm_enable_resume                                 output.o
svm_extern_iopass                                 output.o
svm_init                                          output.o
svm_init_signal                                   output.o
svm_ioio                                          output.o
svm_msr_update_lma                                output.o
svm_np_clear_all                                  output.o
svm_np_extern_mapsearch                           output.o
svm_np_init                                       output.o
svm_np_map_1mb                                    output.o
svm_np_pagefault                                  output.o
svm_np_tlbflush                                   output.o
svm_np_updatecr3                                  output.o
svm_paging_apply_fixed_cr0                        output.o
svm_paging_apply_fixed_cr4                        output.o
svm_paging_clear_all                              output.o
svm_paging_extern_flush_tlb_entry                 output.o
svm_paging_flush_guest_tlb                        output.o
svm_paging_get_gpat                               output.o
svm_paging_init                                   output.o
svm_paging_invalidate                             output.o
svm_paging_map_1mb                                output.o
svm_paging_npf                                    output.o
svm_paging_pagefault                              output.o
svm_paging_pg_change                              output.o
svm_paging_set_gpat                               output.o
svm_paging_spt_setcr3                             output.o
svm_paging_start                                  output.o
svm_paging_tlbflush                               output.o
svm_paging_updatecr3                              output.o
svm_panic_dump                                    output.o
svm_read_control_reg                              output.o
svm_read_flags                                    output.o
svm_read_gdtr                                     output.o
svm_read_general_reg                              output.o
svm_read_idtr                                     output.o
svm_read_ip                                       output.o
svm_read_msr                                      output.o
svm_read_sreg_acr                                 output.o
svm_read_sreg_base                                output.o
svm_read_sreg_limit                               output.o
svm_read_sreg_sel                                 output.o
svm_reset                                         output.o
svm_resume                                        output.o
svm_start_vm                                      output.o
svm_vmexit                                        output.o
svm_vminit                                        output.o
svm_write_control_reg                             output.o
svm_write_flags                                   output.o
svm_write_gdtr                                    output.o
svm_write_general_reg                             output.o
svm_write_idtr                                    output.o
svm_write_ip                                      output.o
svm_write_msr                                     output.o
svm_write_realmode_seg                            output.o
svm_writing_sreg                                  output.o
sx_handler                                        output.o
sym_to_phys                                       output.o
sync_all_processors                               output.o
sys_exitprocess                                   output.o
sys_msgclose                                      output.o
sys_msgopen                                       output.o
sys_msgregister                                   output.o
sys_msgret                                        output.o
sys_msgsendbuf                                    output.o
sys_msgsenddesc                                   output.o
sys_msgsendint                                    output.o
sys_msgsetfunc                                    output.o
sys_msgunregister                                 output.o
sys_newprocess                                    output.o
syscallHandlerAddress                             output.o
syscall_entry_lret                                output.o
syscall_entry_sysexit                             output.o
syscall_entry_sysret64                            output.o
tcg_measure                                       output.o
test_gpaToHPA                                     output.o
test_logicalCPUStatus                             output.o
test_start                                        output.o
test_traverseGuestPages                           output.o
thread_exit                                       output.o
thread_gettid                                     output.o
thread_new                                        output.o
thread_set_process_switch                         output.o
thread_start0                                     output.o
thread_start1                                     output.o
thread_switch                                     output.o
thread_wakeup                                     output.o
thread_will_stop                                  output.o
timer_free                                        output.o
timer_new                                         output.o
timer_set                                         output.o
traverseGuestPages                                output.o
traverseIA32ePDPT                                 output.o
traverseIA32ePDT                                  output.o
traverseIA32ePT                                   output.o
traverseIA32ePages                                output.o
tree_find_sk                                      output.o
tty_init_iohook                                   output.o
tty_putchar                                       output.o
tty_udp_register                                  output.o
ttylog_stop                                       output.o
uhci_activate_urb                                 output.o
uhci_check_advance                                output.o
uhci_check_urb_advance                            output.o
uhci_create_urb                                   output.o
uhci_current_frame_number                         output.o
uhci_deactivate_urb                               output.o
uhci_destroy_unlinked_urbs                        output.o
uhci_destroy_urb                                  output.o
uhci_dump_all                                     output.o
uhci_error_status_string                          output.o
uhci_framelist_monitor                            output.o
uhci_init                                         output.o
uhci_monitor_boost_hc                             output.o
uhci_reactivate_urb                               output.o
uhci_shadow_buffer                                output.o
uhci_submit_bulk                                  output.o
uhci_submit_control                               output.o
uhci_submit_interrupt                             output.o
unmapHPAintoHVA                                   output.o
unmapmem                                          output.o
update_mtrr_and_pat                               output.o
usb_bulk_read                                     output.o
usb_bulk_write                                    output.o
usb_busses_head                                   output.o
usb_claim_interface                               output.o
usb_clear_halt                                    output.o
usb_close                                         output.o
usb_control_msg                                   output.o
usb_find_busses                                   output.o
usb_find_devices                                  output.o
usb_get_bus                                       output.o
usb_get_busses                                    output.o
usb_get_descriptor                                output.o
usb_get_descriptor_by_endpoint                    output.o
usb_get_descriptor_early                          output.o
usb_get_string                                    output.o
usb_get_string_simple                             output.o
usb_hc_list_head                                  output.o
usb_hook_process                                  output.o
usb_hook_register                                 output.o
usb_hook_unregister                               output.o
usb_init                                          output.o
usb_init_device_monitor                           output.o
usb_interrupt_read                                output.o
usb_interrupt_write                               output.o
usb_log_level                                     output.o
usb_new_dev_handle                                output.o
usb_open                                          output.o
usb_register_host                                 output.o
usb_release_interface                             output.o
usb_reset                                         output.o
usb_resetep                                       output.o
usb_sc_lock                                       output.o
usb_sc_unlock                                     output.o
usb_set_altinterface                              output.o
usb_set_configuration                             output.o
usb_set_debug                                     output.o
usb_unregister_devices                            output.o
usbccid_init_handle                               output.o
usbhid_init_handle                                output.o
usbhub_init_handle                                output.o
usbmsc_init_handle                                output.o
use_pae                                           output.o
usleep                                            output.o
v2i_ASN1_BIT_STRING                               output.o
v2i_GENERAL_NAME                                  output.o
v2i_GENERAL_NAMES                                 output.o
v2i_GENERAL_NAME_ex                               output.o
v3_akey_id                                        output.o
v3_alt                                            output.o
v3_bcons                                          output.o
v3_cpols                                          output.o
v3_crl_hold                                       output.o
v3_crl_invdate                                    output.o
v3_crl_num                                        output.o
v3_crl_reason                                     output.o
v3_crld                                           output.o
v3_delta_crl                                      output.o
v3_ext_ku                                         output.o
v3_freshest_crl                                   output.o
v3_idp                                            output.o
v3_info                                           output.o
v3_inhibit_anyp                                   output.o
v3_key_usage                                      output.o
v3_name_constraints                               output.o
v3_ns_ia5_list                                    output.o
v3_nscert                                         output.o
v3_ocsp_accresp                                   output.o
v3_ocsp_acutoff                                   output.o
v3_ocsp_crlid                                     output.o
v3_ocsp_nocheck                                   output.o
v3_ocsp_nonce                                     output.o
v3_ocsp_serviceloc                                output.o
v3_pci                                            output.o
v3_pkey_usage_period                              output.o
v3_policy_constraints                             output.o
v3_policy_mappings                                output.o
v3_sinfo                                          output.o
v3_skey_id                                        output.o
v3_sxnet                                          output.o
vcpu_list_foreach                                 output.o
vga_fill_rect                                     output.o
vga_get_screen_size                               output.o
vga_is_ready                                      output.o
vga_register                                      output.o
vga_transfer_image                                output.o
vmctl_svm_init                                    output.o
vmctl_vt_init                                     output.o
vmm_base_cr3                                      output.o
vmm_main                                          output.o
vmm_pd                                            output.o
vmm_pd1                                           output.o
vmm_pd2                                           output.o
vmm_pdp                                           output.o
vmm_pml4                                          output.o
vmm_start_inf                                     output.o
vmm_term_inf                                      output.o
vmmcall                                           output.o
vmmcall_boot_continue                             output.o
vmmcall_boot_enable                               output.o
vmmcall_init                                      output.o
vmmcall_register                                  output.o
vmmsize                                           output.o
vpn_FreeTimer                                     output.o
vpn_GetCurrentCpuId                               output.o
vpn_GetPhysicalNicInfo                            output.o
vpn_GetTickCount                                  output.o
vpn_GetVirtualNicInfo                             output.o
vpn_NewTimer                                      output.o
vpn_SendPhysicalNic                               output.o
vpn_SendVirtualNic                                output.o
vpn_SetPhysicalNicRecvCallback                    output.o
vpn_SetTimer                                      output.o
vpn_SetVirtualNicRecvCallback                     output.o
vpn_ic_rsa_sign                                   output.o
vpn_new_nic                                       output.o
vpn_premap_PhysicalNicRecv                        output.o
vpn_premap_VirtualNicRecv                         output.o
vpn_premap_recvbuf                                output.o
vpn_start                                         output.o
vpn_user_init                                     output.o
vprintf                                           output.o
vramwrite_clearscreen                             output.o
vramwrite_exit_global                             output.o
vramwrite_get_cursor_pos                          output.o
vramwrite_init_global                             output.o
vramwrite_mark1                                   output.o
vramwrite_mark2                                   output.o
vramwrite_mark3                                   output.o
vramwrite_putchar                                 output.o
vramwrite_restore_cursor                          output.o
vramwrite_save_and_move_cursor                    output.o
vsnprintf                                         output.o
vt__vmx_init                                      output.o
vt__vmxon                                         output.o
vt_add_guest_msr                                  output.o
vt_available                                      output.o
vt_enable_resume                                  output.o
vt_ept_clear_all                                  output.o
vt_ept_extern_mapsearch                           output.o
vt_ept_init                                       output.o
vt_ept_map_1mb                                    output.o
vt_ept_tlbflush                                   output.o
vt_ept_updatecr3                                  output.o
vt_ept_violation                                  output.o
vt_extern_iopass                                  output.o
vt_generate_external_int                          output.o
vt_generate_pagefault                             output.o
vt_get_current_regs_in_vmcs                       output.o
vt_get_vmcs_regs_in_vmcs                          output.o
vt_init                                           output.o
vt_init_signal                                    output.o
vt_io                                             output.o
vt_iopass                                         output.o
vt_iopass_init                                    output.o
vt_msr_init                                       output.o
vt_msr_update_lma                                 output.o
vt_paging_apply_fixed_cr0                         output.o
vt_paging_apply_fixed_cr4                         output.o
vt_paging_clear_all                               output.o
vt_paging_extern_flush_tlb_entry                  output.o
vt_paging_flush_guest_tlb                         output.o
vt_paging_get_gpat                                output.o
vt_paging_init                                    output.o
vt_paging_invalidate                              output.o
vt_paging_map_1mb                                 output.o
vt_paging_npf                                     output.o
vt_paging_pagefault                               output.o
vt_paging_pg_change                               output.o
vt_paging_set_gpat                                output.o
vt_paging_spt_setcr3                              output.o
vt_paging_start                                   output.o
vt_paging_tlbflush                                output.o
vt_paging_updatecr3                               output.o
vt_panic_dump                                     output.o
vt_read_control_reg                               output.o
vt_read_flags                                     output.o
vt_read_gdtr                                      output.o
vt_read_general_reg                               output.o
vt_read_guest_msr                                 output.o
vt_read_idtr                                      output.o
vt_read_ip                                        output.o
vt_read_msr                                       output.o
vt_read_sreg_acr                                  output.o
vt_read_sreg_base                                 output.o
vt_read_sreg_limit                                output.o
vt_read_sreg_sel                                  output.o
vt_reset                                          output.o
vt_resume                                         output.o
vt_start_vm                                       output.o
vt_update_exception_bmp                           output.o
vt_vmexit                                         output.o
vt_vminit                                         output.o
vt_vmptrld                                        output.o
vt_write_control_reg                              output.o
vt_write_flags                                    output.o
vt_write_gdtr                                     output.o
vt_write_general_reg                              output.o
vt_write_guest_msr                                output.o
vt_write_idtr                                     output.o
vt_write_ip                                       output.o
vt_write_msr                                      output.o
vt_write_realmode_seg                             output.o
vt_writing_sreg                                   output.o
waitcycles                                        output.o
wakeup_cont                                       output.o
wakeup_entry_addr                                 output.o
wakeup_entry_cr0                                  output.o
wakeup_entry_cr3                                  output.o
wakeup_entry_cr4                                  output.o
wakeup_entry_end                                  output.o
wakeup_entry_gdtr                                 output.o
wakeup_entry_start                                output.o
wakeup_init                                       output.o
wakeup_main                                       output.o
whirlpool_block                                   output.o
write_gphys_b                                     output.o
write_gphys_l                                     output.o
write_gphys_q                                     output.o
write_gphys_w                                     output.o
write_hphys_b                                     output.o
write_hphys_l                                     output.o
write_hphys_q                                     output.o
write_hphys_w                                     output.o
write_linearaddr_b                                output.o
write_linearaddr_l                                output.o
write_linearaddr_ok_b                             output.o
write_linearaddr_ok_l                             output.o
write_linearaddr_ok_w                             output.o
write_linearaddr_q                                output.o
write_linearaddr_tss                              output.o
write_linearaddr_w                                output.o
x509_name_ff                                      output.o
