
Allocating common symbols
Common symbol       size              file

clflush_size        0x4               output.o
sReaderContext      0x60              output.o
sigx_app            0x8               output.o
num_dom             0x4               output.o
mszReaders          0x400             output.o
zero_page_pool      0x400             output.o
prohibit_iccard_init
                    0x4               output.o
curthread           0x8               output.o
sig_app             0x8               output.o
readerState         0x64              output.o
dom_io              0x800             output.o
acpi_dsdt_system_state
                    0x1e              output.o
ehci_host           0x8               output.o
num_of_processors   0x4               output.o
e801_fake_bx        0x2               output.o
iommu_detected      0x1               output.o
dwReaders           0x8               output.o
readerTracker       0x140             output.o
handler_descriptor_lock
                    0x1               output.o
e801_fake_ax        0x2               output.o

Discarded input sections

 .gomi          0x0000000000000000        0xe output.o

Memory Configuration

Name             Origin             Length             Attributes
*default*        0x0000000000000000 0xffffffffffffffff

Linker script and memory map

                0x0000000040100000                virt = 0x40100000
                0x0000000000100000                phys = 0x100000
                0x0000000040100000                . = virt
                0x0000000040100000                head = .
                0x00000000401000b0                . = (virt + SIZEOF_HEADERS)

.text           0x0000000040101000   0x115358 load address 0x0000000000101000
                0x0000000040101000                code = .
 *(.entry)
 .entry         0x0000000040101000     0x6000 output.o
                0x000000004010100c                entry
                0x000000004010109a                cpuinit_start
                0x00000000401012c8                vmm_base_cr3
                0x00000000401012e0                apinit_procs
                0x00000000401012e8                apinit_lock
                0x00000000401012f0                cpuinit_end
                0x0000000040103000                entry_pdp
                0x0000000040104000                entry_pd0
                0x0000000040105000                entry_pd
 *(.text)
 .text          0x0000000040107000   0x10f358 output.o
                0x0000000040107654                acpi_smi_hook
                0x00000000401076a1                acpi_iohook
                0x00000000401076f3                acpi_reset
                0x00000000401077f1                acpi_poweroff
                0x000000004010782a                get_acpi_time_raw
                0x000000004010c801                acpi_dsdt_parse
                0x000000004010ccf2                apinitproc0
                0x000000004010cd1b                apic_available
                0x000000004010cd49                ap_start_addr
                0x000000004010cfa3                panic_wakeup_all
                0x000000004010d033                disable_apic
                0x000000004010d0a7                sync_all_processors
                0x000000004010d137                start_all_processors
                0x000000004010d178                assertion_failed
                0x000000004010d1b5                beep_set_freq
                0x000000004010d1e3                beep_on
                0x000000004010d1f3                beep_off
                0x000000004010d842                update_mtrr_and_pat
                0x000000004010da91                cache_get_gpat
                0x000000004010dae4                cache_set_gpat
                0x000000004010db2d                cache_get_attr
                0x000000004010dbe2                cache_get_gmtrr_type
                0x000000004010dbed                cache_get_gmtrr_attr
                0x000000004010dc00                cache_get_gmtrrcap
                0x000000004010dc2e                cache_get_gmtrr
                0x000000004010dd8b                cache_set_gmtrr
                0x000000004010dde5                cache_get_gmsr_amd
                0x000000004010de35                cache_set_gmsr_amd
                0x000000004010e271                callrealmode_endofcodeaddr
                0x000000004010e282                callrealmode_usevcpu
                0x000000004010e28f                callrealmode_printmsg
                0x000000004010e2ac                callrealmode_getsysmemmap
                0x000000004010e309                callrealmode_getshiftflags
                0x000000004010e327                callrealmode_setvideomode
                0x000000004010e345                callrealmode_reboot
                0x000000004010e35f                callrealmode_tcgbios
                0x000000004010e3f3                callrealmode_disk_readmbr
                0x000000004010e432                callrealmode_disk_readlba
                0x000000004010e479                callrealmode_bootcd_getstatus
                0x000000004010e4ce                callrealmode_setcursorpos
                0x000000004010e4f3                callrealmode_startkernel32
                0x000000004010e513                callrealmode_getfontinfo
                0x000000004010e594                get_cpu_id
                0x000000004010e5b0                cpu_emul_cpuid
                0x000000004010e664                cpu_emul_rdmsr
                0x000000004010e6dd                cpu_emul_wrmsr
                0x000000004010e753                cpu_emul_hlt
                0x000000004010e76b                cpu_emul_cli
                0x000000004010e7a4                cpu_emul_sti
                0x000000004010e7eb                cpu_emul_realmode_int
                0x000000004010e967                cpu_emul_xsetbv
                0x00000000401111b0                cpu_interpreter
                0x00000000401134ec                cpu_mmu_get_pte
                0x0000000040113e95                write_linearaddr_ok_b
                0x0000000040113eb7                write_linearaddr_ok_w
                0x0000000040113ec2                write_linearaddr_ok_l
                0x0000000040113ecd                write_linearaddr_b
                0x0000000040113f45                write_linearaddr_w
                0x0000000040113fe8                write_linearaddr_l
                0x0000000040114089                write_linearaddr_q
                0x0000000040114128                read_linearaddr_b
                0x000000004011419f                read_linearaddr_w
                0x000000004011423b                read_linearaddr_l
                0x00000000401142d8                read_linearaddr_q
                0x0000000040114375                read_linearaddr_tss
                0x000000004011441a                write_linearaddr_tss
                0x00000000401184ad                cpu_mmu_spt_tlbflush
                0x00000000401184e8                cpu_mmu_spt_updatecr3
                0x0000000040118781                cpu_mmu_spt_invalidate
                0x0000000040118809                cpu_mmu_spt_pagefault
                0x00000000401189f9                cpu_mmu_spt_extern_mapsearch
                0x0000000040118b3a                cpu_mmu_spt_map_1mb
                0x0000000040118c96                cpu_mmu_spt_clear_all
                0x0000000040118df5                cpu_mmu_spt_init
                0x0000000040119464                cpu_seg_read_b
                0x00000000401194db                cpu_seg_read_w
                0x0000000040119552                cpu_seg_read_l
                0x00000000401195c9                cpu_seg_read_q
                0x0000000040119640                cpu_seg_write_b
                0x00000000401196b8                cpu_seg_write_w
                0x0000000040119730                cpu_seg_write_l
                0x00000000401197a7                cpu_seg_write_q
                0x0000000040119820                cpu_stack_get
                0x000000004011988a                cpu_stack_set
                0x000000004011991f                cpu_stack_push
                0x00000000401199d1                cpu_stack_pop
                0x0000000040119ac0                call_cpuid
                0x0000000040119e99                debug_addstr
                0x0000000040119e9f                debug_gdb
                0x0000000040119ea5                debug_iohook
                0x0000000040119eab                debug_msgregister
                0x0000000040119edb                debug_msgunregister
                0x0000000040119f79                do_exint_pass
                0x000000004011a010                read_gphys_b
                0x000000004011a08c                write_gphys_b
                0x000000004011a10f                read_gphys_w
                0x000000004011a1b5                write_gphys_w
                0x000000004011a266                read_gphys_l
                0x000000004011a30c                write_gphys_l
                0x000000004011a3c0                read_gphys_q
                0x000000004011a466                write_gphys_q
                0x000000004011a517                cmpxchg_gphys_l
                0x000000004011a5e3                cmpxchg_gphys_q
                0x000000004011aa11                gmm_pass_gp2hp
                0x000000004011ab82                idman_reinit_session
                0x000000004011abfd                idman_reinit2
                0x000000004011ac1e                get_idman_session
                0x000000004011ac60                call_initfunc
                0x000000004011acc4                initfunc_init
                0x000000004011c84e                int_fatal
                0x000000004011cbcf                callfunc_and_getint
                0x000000004011cbe3                do_externalint_enable
                0x000000004011cbf8                set_int_handler
                0x000000004011cc17                int_exceptionHandler
                0x000000004011cc22                int_init_ap
                0x000000004011cc76                do_io_nothing
                0x000000004011ccb2                set_iofunc
                0x000000004011cd53                call_io
                0x000000004011ce9c                do_iopass_default
                0x000000004011d033                keyboard_reset
                0x000000004011d078                setkbdled
                0x000000004011d0d9                keyboard_flush
                0x000000004011d100                load_bootsector
                0x000000004011d4c9                copy_bootsector
                0x000000004011d76a                localapic_wait_for_sipi
                0x000000004011d7f7                localapic_change_base_msr
                0x000000004011d843                localapic_mmio_register
                0x000000004011e21a                resume_vm
                0x000000004011e2d5                vmm_main
                0x000000004011e6c0                getsysmemmap
                0x000000004011e748                getfakesysmemmap
                0x000000004011e7cc                phys_to_virt
                0x000000004011e7e2                vmm_start_inf
                0x000000004011e7ee                vmm_term_inf
                0x000000004011e7ff                num_of_available_pages
                0x000000004011e86b                alloc_pages
                0x000000004011e8f4                alloc_page
                0x000000004011e904                alloc
                0x000000004011eb81                alloc2
                0x000000004011ebce                free
                0x000000004011eced                realloc
                0x000000004011ee3e                free_page
                0x000000004011ee51                free_page_phys
                0x000000004011ee6c                mempool_new
                0x000000004011eed7                mempool_free
                0x000000004011ef87                mempool_allocmem
                0x000000004011f16a                mempool_freemem
                0x000000004011f420                sym_to_phys
                0x000000004011f434                phys_in_vmm
                0x000000004011f450                mm_force_unlock
                0x000000004011f479                mm_process_alloc
                0x000000004011f649                mm_process_free
                0x000000004011f690                mm_process_switch
                0x000000004011f6ae                pmap_open_vmm
                0x000000004011f6d9                pmap_open_guest
                0x000000004011f71b                pmap_close
                0x000000004011f721                pmap_getreadlevel
                0x000000004011f72d                pmap_setlevel
                0x000000004011f739                pmap_seek
                0x000000004011f7a6                pmap_read
                0x000000004011f9d1                pmap_write
                0x000000004011fb68                mm_process_unmap_stack
                0x000000004011fd4f                mm_process_unmap
                0x000000004011fe31                mm_process_unmapall
                0x000000004011fed8                pmap_pointer
                0x000000004011ff39                pmap_clear
                0x0000000040120026                pmap_autoalloc
                0x000000004012075d                mm_process_map_stack
                0x0000000040120ac2                mm_process_map_shared_physpage
                0x0000000040120b36                mm_process_map_shared
                0x0000000040120d60                mm_process_map_alloc
                0x0000000040120e92                pmap_dump
                0x0000000040120faa                unmapmem
                0x000000004012108b                mapmem
                0x000000004012155e                cmpxchg_hphys_q
                0x00000000401215bc                cmpxchg_hphys_l
                0x000000004012161a                write_hphys_q
                0x000000004012164e                read_hphys_q
                0x0000000040121685                write_hphys_l
                0x00000000401216b7                read_hphys_l
                0x00000000401216ec                write_hphys_w
                0x000000004012171f                read_hphys_w
                0x0000000040121756                write_hphys_b
                0x0000000040121788                read_hphys_b
                0x00000000401217eb                mapmem_hphys
                0x0000000040121803                alloc_realmodemem
                0x00000000401218a6                mapmem_gphys
                0x00000000401218be                mm_flush_wb_cache
                0x0000000040121cdf                mmio_access_memory
                0x0000000040121e36                mmio_access_page
                0x0000000040121ef7                mmio_register
                0x00000000401220fa                mmio_unregister
                0x0000000040122181                mmio_lock
                0x000000004012219c                mmio_unlock
                0x000000004012222e                msg_findname
                0x00000000401222a8                msg_register
                0x000000004012238a                msg_unregister
                0x0000000040122405                msg_unregisterall
                0x0000000040122491                msg_unregister2
                0x000000004012255e                call_read_msr
                0x0000000040122572                call_write_msr
                0x0000000040122850                load_minios
                0x0000000040123070                backtrace
                0x00000000401234a8                panic
                0x00000000401239a0                auto_reboot
                0x00000000401239bd                panic_test
                0x00000000401239e0                pcpu_list_foreach
                0x0000000040123a1f                pcpu_list_add
                0x0000000040123a71                pcpu_init
                0x00000000401244c5                vprintf
                0x0000000040124500                printf
                0x000000004012453e                vsnprintf
                0x0000000040124582                snprintf
                0x00000000401247e9                sys_msgsetfunc
                0x000000004012488e                sys_msgclose
                0x00000000401248ab                sys_msgret
                0x00000000401248bd                sys_exitprocess
                0x0000000040124b6d                sys_msgsenddesc
                0x0000000040124c25                sys_msgunregister
                0x0000000040125341                sys_msgsendbuf
                0x00000000401254f3                sys_msgsendint
                0x0000000040125792                sys_newprocess
                0x0000000040125833                sys_msgopen
                0x0000000040125973                sys_msgregister
                0x00000000401259f1                process_kill
                0x0000000040125a48                msgsetfunc
                0x0000000040125a5d                msgregister
                0x0000000040125a73                msgopen
                0x0000000040125a86                msgclose
                0x0000000040125a98                msgsendint
                0x0000000040125aac                msgsenddesc
                0x0000000040125ac0                newprocess
                0x0000000040125ad3                msgsendbuf
                0x0000000040125aed                msgunregister
                0x0000000040125aff                exitprocess
                0x0000000040125b12                msgpremapbuf
                0x0000000040125c3c                process_syscall
                0x0000000040125ce8                putchar
                0x0000000040125d26                putchar_set_func
                0x0000000040126027                do_panic_reboot
                0x00000000401260b1                handle_init_to_bsp
                0x00000000401260d2                reboot_test
                0x0000000040126102                savemsr_save
                0x000000004012617e                savemsr_load
                0x00000000401267a6                get_seg_base
                0x0000000040126864                get_seg_access_rights
                0x0000000040126884                segment_wakeup
                0x00000000401268c6                segment_init_ap
                0x0000000040126b8b                serial_putDebugChar
                0x0000000040126b9d                serial_getDebugChar
                0x0000000040126bb2                serial_putchar
                0x0000000040126c06                serial_init_iohook
                0x0000000040126c74                waitcycles
                0x0000000040126c96                usleep
                0x0000000040126d6b                sleep_set_timer_counter
                0x0000000040126ed2                vmctl_svm_init
                0x0000000040126f7c                message_exitcode
                0x00000000401274ff                printexitcode
                0x00000000401276b8                svm_available
                0x0000000040127776                svm_reset
                0x000000004012787a                svm_vminit
                0x0000000040127ab5                svm_vmexit
                0x0000000040127abb                svm_init
                0x0000000040127c05                svm_enable_resume
                0x0000000040127d0a                svm_resume
                0x0000000040127e60                svm_ioio
                0x0000000040127f60                svm_extern_iopass
                0x00000000401280d3                svm_init_signal
                0x00000000401280f6                svm_start_vm
                0x0000000040128bb0                svm_msr_update_lma
                0x0000000040128c25                svm_read_msr
                0x0000000040128eca                svm_write_msr
                0x000000004012941a                svm_np_init
                0x0000000040129502                svm_np_pagefault
                0x0000000040129548                svm_np_tlbflush
                0x000000004012954e                svm_np_updatecr3
                0x0000000040129559                svm_np_clear_all
                0x00000000401295ec                svm_np_extern_mapsearch
                0x0000000040129677                svm_np_map_1mb
                0x00000000401296d0                svm_paging_extern_flush_tlb_entry
                0x00000000401296f7                svm_paging_map_1mb
                0x0000000040129721                svm_paging_flush_guest_tlb
                0x0000000040129760                svm_paging_init
                0x000000004012987e                svm_paging_pagefault
                0x00000000401298aa                svm_paging_tlbflush
                0x00000000401298d1                svm_paging_invalidate
                0x00000000401298fd                svm_paging_npf
                0x0000000040129929                svm_paging_updatecr3
                0x0000000040129951                svm_paging_spt_setcr3
                0x0000000040129986                svm_paging_clear_all
                0x00000000401299b1                svm_paging_get_gpat
                0x00000000401299bc                svm_paging_set_gpat
                0x0000000040129a09                svm_paging_apply_fixed_cr0
                0x0000000040129a2c                svm_paging_apply_fixed_cr4
                0x0000000040129a50                svm_paging_pg_change
                0x0000000040129a56                svm_paging_start
                0x0000000040129a68                svm_panic_dump
                0x0000000040129b40                svm_read_general_reg
                0x0000000040129ca9                svm_write_general_reg
                0x0000000040129ddf                svm_read_control_reg
                0x0000000040129e75                svm_write_control_reg
                0x0000000040129f61                svm_read_sreg_sel
                0x000000004012a02d                svm_read_sreg_acr
                0x000000004012a10c                svm_read_sreg_base
                0x000000004012a22e                svm_read_sreg_limit
                0x000000004012a345                svm_read_ip
                0x000000004012a364                svm_write_ip
                0x000000004012a38a                svm_read_flags
                0x000000004012a3a9                svm_write_flags
                0x000000004012a3c5                svm_read_gdtr
                0x000000004012a3fc                svm_write_gdtr
                0x000000004012a425                svm_read_idtr
                0x000000004012a45c                svm_write_idtr
                0x000000004012a485                svm_write_realmode_seg
                0x000000004012a5d5                svm_writing_sreg
                0x000000004012a6f7                int1a_TCG_StatusCheck
                0x000000004012a7bc                int1a_TCG_HashLogExtendEvent
                0x000000004012a84d                int1a_TCG_PassThroughToTPM
                0x000000004012a8de                int1a_TCG_HashLogEvent
                0x000000004012a95f                int1a_TCG_HashAll
                0x000000004012aa17                int1a_TCG_TSS
                0x000000004012aaa8                int1a_TCG_CompactHashLogExtendEvent
                0x000000004012ab09                tcg_measure
                0x000000004012ae4d                thread_gettid
                0x000000004012ae62                schedule
                0x000000004012b073                thread_new
                0x000000004012b196                thread_wakeup
                0x000000004012b273                thread_will_stop
                0x000000004012b2eb                thread_exit
                0x000000004012b38f                thread_start1
                0x000000004012b3bf                thread_set_process_switch
                0x000000004012b570                get_cpu_time
                0x000000004012b643                get_acpi_time
                0x000000004012b6f3                get_time
                0x000000004012b8d5                timer_new
                0x000000004012b956                timer_set
                0x000000004012ba4c                timer_free
                0x000000004012bc52                tty_putchar
                0x000000004012be06                ttylog_stop
                0x000000004012be16                tty_udp_register
                0x000000004012be68                tty_init_iohook
                0x000000004012be90                vcpu_list_foreach
                0x000000004012becf                load_new_vcpu
                0x000000004012bf89                vga_register
                0x000000004012c00b                vga_is_ready
                0x000000004012c06b                vga_transfer_image
                0x000000004012c0b8                vga_fill_rect
                0x000000004012c0f2                vga_get_screen_size
                0x000000004012c21c                vmmcall
                0x000000004012c275                vmmcall_register
                0x000000004012c2b3                vmmcall_init
                0x000000004012c674                vmmcall_boot_continue
                0x000000004012c6bf                vmmcall_boot_enable
                0x000000004012cf27                register_status_callback
                0x000000004012d03f                vramwrite_clearscreen
                0x000000004012d096                vramwrite_putchar
                0x000000004012d26e                vramwrite_mark1
                0x000000004012d2c0                vramwrite_mark2
                0x000000004012d320                vramwrite_mark3
                0x000000004012d380                vramwrite_save_and_move_cursor
                0x000000004012d3c5                vramwrite_restore_cursor
                0x000000004012d3d7                vramwrite_get_cursor_pos
                0x000000004012d437                vramwrite_init_global
                0x000000004012d444                vramwrite_exit_global
                0x000000004012d4ce                vt_generate_external_int
                0x000000004012d521                vt_generate_pagefault
                0x000000004012d5d7                vmctl_vt_init
                0x000000004012d67f                vt_vmptrld
                0x000000004012d96c                vt_ept_init
                0x000000004012da5c                vt_ept_violation
                0x000000004012dbef                vt_ept_tlbflush
                0x000000004012dbf5                vt_ept_updatecr3
                0x000000004012dce7                vt_ept_clear_all
                0x000000004012dd7a                vt_ept_extern_mapsearch
                0x000000004012de05                vt_ept_map_1mb
                0x000000004012de58                message_exitreason
                0x000000004012dfc1                printexitreason
                0x000000004012e938                vt_available
                0x000000004012e9d2                vt__vmx_init
                0x000000004012ea1a                vt__vmxon
                0x000000004012eac7                vt_vminit
                0x000000004012eb23                vt_vmexit
                0x000000004012eb3d                vt_init
                0x000000004012eb4d                vt_enable_resume
                0x000000004012ec86                vt_resume
                0x000000004012ee17                vt_io
                0x000000004012ef48                vt_iopass_init
                0x000000004012f0dd                vt_iopass
                0x000000004012f12e                vt_extern_iopass
                0x000000004012fd43                vt_update_exception_bmp
                0x0000000040130380                vt_init_signal
                0x000000004013038b                vt_start_vm
                0x0000000040130771                vt_add_guest_msr
                0x00000000401308b4                vt_read_guest_msr
                0x00000000401308e5                vt_write_guest_msr
                0x0000000040130913                vt_msr_update_lma
                0x00000000401309eb                vt_read_msr
                0x0000000040130c8f                vt_write_msr
                0x0000000040130f57                vt_msr_init
                0x0000000040131153                vt_paging_extern_flush_tlb_entry
                0x00000000401311c1                vt_paging_map_1mb
                0x00000000401311e1                vt_paging_flush_guest_tlb
                0x0000000040131241                vt_paging_pagefault
                0x0000000040131284                vt_paging_tlbflush
                0x00000000401312a7                vt_paging_invalidate
                0x00000000401312da                vt_paging_npf
                0x000000004013131d                vt_paging_updatecr3
                0x0000000040131351                vt_paging_spt_setcr3
                0x000000004013137c                vt_paging_clear_all
                0x00000000401313af                vt_paging_get_gpat
                0x00000000401313ba                vt_paging_set_gpat
                0x000000004013141a                vt_paging_apply_fixed_cr0
                0x0000000040131482                vt_paging_apply_fixed_cr4
                0x00000000401314ca                vt_paging_pg_change
                0x000000004013164d                vt_paging_init
                0x00000000401316c8                vt_paging_start
                0x00000000401316f7                vt_panic_dump
                0x00000000401318a0                vt_read_general_reg
                0x00000000401319ee                vt_write_general_reg
                0x0000000040131b0c                vt_read_control_reg
                0x0000000040131b7c                vt_read_sreg_sel
                0x0000000040131c96                vt_read_sreg_acr
                0x0000000040131cf5                vt_read_sreg_base
                0x0000000040131dad                vt_read_sreg_limit
                0x0000000040131e60                vt_read_ip
                0x0000000040131e6e                vt_write_ip
                0x0000000040131e8e                vt_read_flags
                0x0000000040131eb4                vt_write_flags
                0x0000000040131edf                vt_read_gdtr
                0x0000000040131ef4                vt_write_gdtr
                0x0000000040131f09                vt_read_idtr
                0x0000000040131f4d                vt_write_idtr
                0x0000000040131f83                vt_write_control_reg
                0x000000004013245f                vt_get_current_regs_in_vmcs
                0x0000000040132707                vt_get_vmcs_regs_in_vmcs
                0x0000000040132884                vt_write_realmode_seg
                0x00000000401329c7                vt_writing_sreg
                0x0000000040132a50                vt_reset
                0x0000000040132d2f                prepare_for_sleep
                0x0000000040132e06                cancel_sleep
                0x0000000040132e28                wakeup_main
                0x0000000040132eb0                wakeup_cont
                0x0000000040132fda                wakeup_init
                0x0000000040133024                call_xsetbv
                0x0000000040133090                mpumul_64_64
                0x00000000401330b0                mpudiv_128_32
                0x00000000401330d0                ipchecksum
                0x0000000040133160                asm_vmlaunch_regs_32
                0x00000000401331e0                asm_vmresume_regs_32
                0x0000000040133260                asm_vmrun_regs_32
                0x00000000401332c0                asm_vmlaunch_regs_64
                0x00000000401333a0                asm_vmresume_regs_64
                0x0000000040133480                asm_vmrun_regs_64
                0x0000000040133524                callrealmode_start
                0x000000004013353a                callrealmode_start2
                0x00000000401339c6                callrealmode_end
                0x00000000401339c8                move_vmm_area32
                0x00000000401339ed                move_vmm_area64
                0x0000000040133a18                int_handler
                0x0000000040133a90                int_callfunc
                0x0000000040134000                syscall_entry_sysexit
                0x000000004013402c                syscall_entry_lret
                0x000000004013405c                ret_to_user32
                0x0000000040134068                syscall_entry_sysret64
                0x00000000401340b0                ret_to_user64
                0x0000000040135000                processuser_sysenter
                0x0000000040136000                processuser_no_sysenter
                0x0000000040137000                processuser_syscall
                0x0000000040138140                memset
                0x00000000401381c0                memcpy
                0x0000000040138200                strcmp
                0x0000000040138240                memcmp
                0x0000000040138280                strlen
                0x0000000040138298                sx_handler
                0x00000000401382f0                thread_switch
                0x0000000040138310                thread_start0
                0x000000004013834c                monitor_vmcs_read
                0x0000000040138355                get_guest_eptp_value
                0x0000000040138365                get_guest_cr3_value
                0x0000000040138375                monitor_vmcs_write
                0x0000000040138380                hypercall_handler
                0x00000000401383a0                get_page_table_base_GPA
                0x00000000401383b6                get_ept_base_HPA
                0x00000000401383cc                traverseGuestPages
                0x00000000401383d7                saveSystemCallHandlerAddress
                0x0000000040138418                getSystemCallHandlerGPA
                0x0000000040138425                save_guest_status
                0x00000000401387a9                clear_guest_status
                0x0000000040138a97                restore_guest_status
                0x0000000040138db1                getTSSGVA
                0x0000000040138dc1                getGuestRSP
                0x0000000040138de8                closePage
                0x0000000040138df3                allocateNewVMID
                0x0000000040138e09                allocateNewAppID
                0x0000000040138e21                allocateNewApplicationIdentifiers
                0x0000000040138e5c                getMemoryOwnershipTableIndex
                0x0000000040138e69                remapPage
                0x0000000040138eb3                changePageStatus
                0x0000000040138fc1                openPage
                0x000000004013905e                getMemoryOwnershipTableEntry
                0x0000000040139096                initializeNewProtectedApplication
                0x00000000401390b1                protectCurrentApplication
                0x0000000040139112                getCurrentProtectedApplication
                0x000000004013917c                findProtectedApplicationFromRIP
                0x00000000401391d4                setCurrentProtectedApplication
                0x00000000401391e4                traverseIA32ePages
                0x000000004013946f                traverseIA32ePDPT
                0x0000000040139650                traverseIA32ePDT
                0x0000000040139799                traverseIA32ePT
                0x0000000040139849                gvaToGPA
                0x0000000040139a94                mapHPAintoHVA
                0x0000000040139abb                unmapHPAintoHVA
                0x0000000040139ac6                gpaToHPA
                0x0000000040139cca                monitor_memset
                0x0000000040139ce4                virt_to_phys
                0x0000000040139cf4                test_start
                0x0000000040139d40                test_gpaToHPA
                0x0000000040139d8a                test_traverseGuestPages
                0x0000000040139dc7                test_logicalCPUStatus
                0x0000000040139df0                restore_register
                0x0000000040139e9c                handleSystemCall
                0x0000000040139ec4                initPagePool
                0x0000000040139efc                findUnmappedPage
                0x0000000040139f2f                allocateNewZeroPage
                0x0000000040139f90                core_init
                0x000000004013a04a                core_mm_read_guest_phys
                0x000000004013a05f                core_mm_write_guest_phys
                0x000000004013a074                alloc_handler_descriptor
                0x000000004013a084                core_io_modify_handler
                0x000000004013a142                core_io_unregister_handler
                0x000000004013a1c9                core_io_handle_default
                0x000000004013a451                panic_oom
                0x000000004013a464                core_io_register_handler
                0x000000004013a598                matched_drhd_u
                0x000000004013a5ed                parse_dmar_bios_report
                0x000000004013a638                ieee1394_init
                0x000000004013a670                iommu_setup
                0x000000004013a676                iodom_init
                0x000000004013a837                add_remap
                0x000000004013a8c4                create_dom
                0x000000004013abe7                pci_conceal_new_device
                0x000000004013afa5                pci_conceal_config_data_handler
                0x000000004013afbc                pci_save_config_addr
                0x000000004013afce                pci_restore_config_addr
                0x000000004013afe0                pci_append_device
                0x000000004013b012                pci_config_data_handler
                0x000000004013b33b                pci_config_addr_handler
                0x000000004013b383                pci_register_driver
                0x000000004013b422                pci_read_config_data8
                0x000000004013b468                pci_read_config_data16
                0x000000004013b4af                pci_read_config_data32
                0x000000004013b4f5                pci_write_config_data8
                0x000000004013b539                pci_write_config_data16
                0x000000004013b57e                pci_write_config_data32
                0x000000004013b5c2                pci_read_config_data_port
                0x000000004013b5f4                pci_write_config_data_port
                0x000000004013b62a                pci_handle_default_config_write
                0x000000004013b66c                pci_print_device
                0x000000004013b9cc                pci_possible_new_device
                0x000000004013b9f0                security_storage_check_lba
                0x000000004013ef6a                ahci_new
                0x000000004013f200                ahci_config_read
                0x000000004013f25e                ahci_config_write
                0x000000004013f3f4                ata_bm_handle_prd_table
                0x000000004013f63d                ata_bm_handle_status
                0x000000004013f6fd                ata_bm_handle_command
                0x000000004013f840                ata_bm_handler
                0x000000004013f958                ata_get_cmd_type
                0x000000004013ff12                ata_handle_queued_status
                0x0000000040140747                ata_channel_lock
                0x00000000401407c3                ata_channel_unlock
                0x000000004014134b                ata_ctlblk_handler
                0x0000000040141453                ata_cmdblk_handler
                0x000000004014157c                ata_ahci_mode
                0x0000000040141a7f                ata_init_io_handler
                0x0000000040141b22                ata_set_bm_handler
                0x0000000040141b87                ata_set_cmdblk_handler
                0x0000000040141bcd                ata_set_ctlblk_handler
                0x0000000040141c15                ata_config_read
                0x0000000040141cd7                ata_config_write
                0x0000000040141e70                ata_init_vendor
                0x0000000040141e97                ata_bm_handle_device_specific
                0x0000000040141f90                atapi_handle_config_data
                0x00000000401421d7                atapi_handle_interrupt_reason
                0x0000000040142230                atapi_handle_pio_identify_packet
                0x00000000401423bf                atapi_handle_packet_data
                0x00000000401423ca                atapi_handle_cmd_packet
                0x0000000040142444                packet_handle_through
                0x0000000040142479                packet_handle_nondata
                0x0000000040142493                packet_handle_config
                0x00000000401424df                packet_handle_rw
                0x0000000040142561                packet_handle_invalid
                0x000000004014257b                packet_handle_command
                0x00000000401425b0                uhci_init
                0x0000000040142e57                uhci_current_frame_number
                0x0000000040142e70                dump_td_byvirt
                0x000000004014303d                dump_td
                0x000000004014311d                dump_qh
                0x00000000401432e5                dump_frame
                0x00000000401433ea                uhci_dump_all
                0x00000000401435ac                uhci_error_status_string
                0x000000004014388d                uhci_shadow_buffer
                0x0000000040143b12                uhci_framelist_monitor
                0x0000000040145a80                scan_gframelist
                0x0000000040146353                uhci_create_urb
                0x00000000401464ac                uhci_destroy_urb
                0x00000000401465d9                uhci_destroy_unlinked_urbs
                0x000000004014669b                uhci_deactivate_urb
                0x0000000040146a24                uhci_activate_urb
                0x0000000040146f78                uhci_reactivate_urb
                0x000000004014701e                uhci_submit_control
                0x0000000040147622                uhci_submit_interrupt
                0x0000000040147686                uhci_submit_bulk
                0x00000000401476ea                uhci_check_urb_advance
                0x000000004014772f                uhci_check_advance
                0x000000004014793a                init_hframelist
                0x0000000040147bbc                ehci_init
                0x0000000040149449                ehci_conceal_portroute
                0x0000000040149a6d                ehci_dump_qtd
                0x0000000040149af3                ehci_dump_qtdm
                0x0000000040149b28                ehci_dump_alist
                0x0000000040149beb                ehci_dump_urblist
                0x0000000040149c80                ehci_dump_urb
                0x000000004014a13d                ehci_dump_async
                0x000000004014a5cc                ehci_dump_all
                0x000000004014bbaa                ehci_shadow_buffer
                0x000000004014be64                get_gurb_by_address
                0x000000004014bef8                shadow_and_activate_urb
                0x000000004014c1a8                ehci_deactivate_urb
                0x000000004014c340                deactivate_and_delete_urb
                0x000000004014c5b7                ehci_check_urb_advance
                0x000000004014c787                ehci_check_advance
                0x000000004014c9bb                ehci_shadow_async_list
                0x000000004014cad5                ehci_cleanup_urbs
                0x000000004014cc2a                ehci_end_monitor_async
                0x000000004014cc93                ehci_monitor_async_list
                0x000000004014d33c                ehci_submit_control
                0x000000004014d8b5                ehci_submit_bulk
                0x000000004014d8c0                ehci_submit_interrupt
                0x000000004014f48a                usbmsc_init_handle
                0x000000004014f869                usbhub_init_handle
                0x000000004014f8e2                hub_portdevice_register
                0x000000004014ffa5                usbccid_init_handle
                0x00000000401500d0                usb_set_debug
                0x00000000401500dc                usb_init
                0x00000000401500e2                usb_find_busses
                0x00000000401501c2                usb_get_busses
                0x00000000401501cf                usb_get_bus
                0x00000000401501f7                usb_find_devices
                0x0000000040150240                usb_open
                0x00000000401502aa                usb_close
                0x00000000401502ba                usb_resetep
                0x00000000401502c5                usb_clear_halt
                0x00000000401502d0                usb_reset
                0x00000000401502db                usb_claim_interface
                0x00000000401502e9                usb_release_interface
                0x00000000401502fb                usb_set_configuration
                0x00000000401505a6                usb_set_altinterface
                0x0000000040150853                usb_control_msg
                0x0000000040150baf                usb_get_string
                0x0000000040150efc                usb_get_string_simple
                0x00000000401510f1                usb_get_descriptor
                0x0000000040151441                usb_get_descriptor_early
                0x000000004015179c                usb_get_descriptor_by_endpoint
                0x0000000040151aee                usb_bulk_write
                0x0000000040151d44                usb_interrupt_write
                0x0000000040151f9a                usb_bulk_read
                0x0000000040152275                usb_interrupt_read
                0x0000000040152550                usb_register_host
                0x0000000040152662                usb_unregister_devices
                0x0000000040152694                usb_sc_lock
                0x000000004015270c                usb_sc_unlock
                0x0000000040152a33                free_config_descriptors
                0x000000004015343c                free_device
                0x00000000401535aa                handle_connect_status
                0x00000000401536be                handle_port_reset
                0x000000004015379f                dprintf_port
                0x0000000040154271                usb_init_device_monitor
                0x00000000401542db                usb_new_dev_handle
                0x0000000040154374                usbhid_init_handle
                0x00000000401544b0                usb_hook_process
                0x000000004015479b                usb_hook_register
                0x000000004015487f                usb_hook_unregister
                0x0000000040154900                _dprintf
                0x000000004015494d                _dprintft
                0x0000000040154a08                pro100_io_handler
                0x0000000040154a13                pro100_init
                0x0000000040154a2c                pro100_config_write
                0x0000000040154b71                pro100_config_read
                0x0000000040154cba                pro100_init_vpn_client
                0x0000000040154cf9                pro100_sleep
                0x0000000040154d37                pro100_beep
                0x0000000040154d6f                pro100_get_ctx
                0x0000000040154e12                pro100_alloc_page
                0x0000000040154e4c                pro100_free_page
                0x0000000040154e71                pro100_get_op_size
                0x0000000040154eb4                pro100_mem_read
                0x0000000040154ee3                pro100_read_send_packet
                0x00000000401550f5                pro100_mem_write
                0x000000004015511e                pro100_write
                0x000000004015514d                pro100_read
                0x000000004015518a                pro100_flush
                0x00000000401551a4                pro100_wait_cu_ru_accepable
                0x00000000401551df                pro100_init_ru_base_addr
                0x000000004015523f                pro100_init_cu_base_addr
                0x000000004015529f                pro100_send_packet_to_line
                0x00000000401553f3                pro100_exec_cu_op
                0x000000004015554c                pro100_generate_int
                0x000000004015557b                pro100_proc_guest_op
                0x0000000040155776                pro100_write_recv_packet
                0x000000004015590a                pro100_get_int_bit_string
                0x0000000040155982                pro100_get_stat_ack_string
                0x00000000401559ef                pro100_get_cu_command_string
                0x0000000040155a71                pro100_get_ru_command_string
                0x0000000040155abb                pro100_init_recv_buffer
                0x0000000040155bf2                pro100_alloc_recv_buffer
                0x0000000040155c61                pro100_new
                0x0000000040155d2e                pro100_poll_ru
                0x0000000040155e27                pro100_hook_read
                0x0000000040155fe6                pro100_hook_write
                0x00000000401562bc                pro100_mm_handler
                0x0000000040158643                storage_premap_buf
                0x000000004015864e                storage_premap_handle_sectors
                0x00000000401589a2                storage_get_num_hc
                0x00000000401589d4                storage_hc_open
                0x0000000040158ab4                storage_hc_close
                0x0000000040158afe                storage_hc_hook_register
                0x0000000040158b83                storage_hc_hook_unregister
                0x0000000040158c1d                storage_hc_register
                0x0000000040158de8                storage_hc_unregister
                0x0000000040158eed                storage_hc_scandev
                0x0000000040158f31                storage_hc_dev_open
                0x000000004015906f                storage_hc_dev_atacommand
                0x0000000040159242                storage_hc_dev_close
                0x000000004015930a                storage_io_init
                0x000000004015931f                storage_io_deinit
                0x000000004015932a                storage_io_get_num_devices
                0x00000000401593e8                storage_io_aget_size
                0x000000004015954f                storage_io_aread
                0x000000004015976b                storage_io_awrite
                0x0000000040159ee2                storage_handle_sectors
                0x000000004015a12b                storage_new
                0x000000004015a372                storage_free
                0x000000004015a571                storage_init
                0x000000004015a7a5                aes_xts_init
                0x000000004015a7d8                crypto_find
                0x000000004015a82b                crypto_register
                0x000000004015a87b                crypto_init
                0x000000004015a8d2                crypto_none_init
                0x000000004015a90a                vpn_GetCurrentCpuId
                0x000000004015a915                vpn_GetTickCount
                0x000000004015a945                vpn_NewTimer
                0x000000004015a95f                vpn_SetTimer
                0x000000004015a973                vpn_FreeTimer
                0x000000004015a97e                vpn_GetPhysicalNicInfo
                0x000000004015a98d                vpn_SendPhysicalNic
                0x000000004015a99c                vpn_SetPhysicalNicRecvCallback
                0x000000004015a9ab                vpn_GetVirtualNicInfo
                0x000000004015a9bb                vpn_SendVirtualNic
                0x000000004015a9cb                vpn_SetVirtualNicRecvCallback
                0x000000004015a9db                vpn_premap_PhysicalNicRecv
                0x000000004015a9f4                vpn_premap_VirtualNicRecv
                0x000000004015aa0d                vpn_premap_recvbuf
                0x000000004015aa18                vpn_ic_rsa_sign
                0x000000004015aabf                vpn_new_nic
                0x000000004015b0e1                msg_vpn_GetCurrentCpuId
                0x000000004015b0fb                msg_vpn_ic_rsa_sign
                0x000000004015b1a7                msg_vpn_GetTickCount
                0x000000004015b1e5                msg_vpn_GetPhysicalNicInfo
                0x000000004015b249                msg_vpn_SendPhysicalNic
                0x000000004015b303                msg_vpn_SetPhysicalNicRecvCallback
                0x000000004015b34f                msg_vpn_GetVirtualNicInfo
                0x000000004015b3b3                msg_vpn_SendVirtualNic
                0x000000004015b46d                msg_vpn_SetVirtualNicRecvCallback
                0x000000004015b4b9                msg_vpn_NewTimer
                0x000000004015b529                msg_vpn_SetTimer
                0x000000004015b5fc                msg_vpn_FreeTimer
                0x000000004015b662                vpn_start
                0x000000004015b9ec                vpn_user_init
                0x000000004015ba50                SeFreeConfigEntryList
                0x000000004015baae                SeGetConfigEntry
                0x000000004015bb1f                SeGetConfigStr
                0x000000004015bb4c                SeGetConfigBool
                0x000000004015bbf8                SeGetConfigInt
                0x000000004015bc1c                SeGetConfigInt64
                0x000000004015bc40                SeGetConfigBin
                0x000000004015bc64                SeIsSplitChar
                0x000000004015bcd7                SeGetKeyAndValue
                0x000000004015be67                SeLoadConfigEntryListFromBuf
                0x000000004015bfdf                SeLoadConfigEntryList
                0x000000004015c030                SePKeyPasswordCallbackFunction
                0x000000004015c05d                SeDhFree
                0x000000004015c097                SeRsaVerifyWithPadding
                0x000000004015c171                SeRsaSignWithPadding
                0x000000004015c235                SeRsaPublicDecrypt
                0x000000004015c2de                SeRsaPrivateEncrypt
                0x000000004015c387                SeRsaPrivateDecrypt
                0x000000004015c428                SeRsaPublicEncrypt
                0x000000004015c4c9                SeGetCertSha1
                0x000000004015c511                SeGetCertMd5
                0x000000004015c559                SeBinToBigNum
                0x000000004015c5a4                SeBufToBigNum
                0x000000004015c5bf                SeDhCompute
                0x000000004015c64b                SeBigNumToBuf
                0x000000004015c6e4                SeRsaPublicSize
                0x000000004015c72f                SeRsaPublicToBin
                0x000000004015c793                SeRsaPublicToBuf
                0x000000004015c7d7                SeDhNew
                0x000000004015c8ad                SeDhNewGroup2
                0x000000004015c8c2                SeCheckSignature
                0x000000004015c8ec                SeGetKeyFromCert
                0x000000004015c928                SeCompareCert
                0x000000004015c952                SeCheckCertAndKey
                0x000000004015c97c                SeIsBase64
                0x000000004015ca3d                SeFreePKey
                0x000000004015ca4d                SeFreeKey
                0x000000004015ca75                SeIsCertSignedByCert
                0x000000004015cae5                SeCheckCert
                0x000000004015cb4b                SeBioToKey
                0x000000004015cc59                SeGetCertIssuerName
                0x000000004015cce5                SeGetCertSubjectName
                0x000000004015cd6f                SeFreeX509
                0x000000004015cd7f                SeFreeCert
                0x000000004015cdad                SeFreeBio
                0x000000004015cdbd                SeNewBio
                0x000000004015cdd0                SeCertToBio
                0x000000004015ce31                SeKeyToBio
                0x000000004015cf2d                SeRsaGen
                0x000000004015d098                SeBioToBuf
                0x000000004015d139                SeCertToBuf
                0x000000004015d184                SeSaveCert
                0x000000004015d1e5                SeKeyToBuf
                0x000000004015d230                SeSaveKey
                0x000000004015d294                SeX509ToCert
                0x000000004015d34c                SeBioToCert
                0x000000004015d397                SeBigNumToStr
                0x000000004015d403                SeBufToBio
                0x000000004015d45c                SeBufToKey
                0x000000004015d4c8                SeLoadKey
                0x000000004015d573                SeCloneKey
                0x000000004015d5dd                SeBufToCert
                0x000000004015d632                SeLoadCert
                0x000000004015d67f                SeCloneCert
                0x000000004015d6d0                SeSha1
                0x000000004015d6f0                SeHashForSignBySHA1
                0x000000004015d79a                SeRsaSignWithSha1
                0x000000004015d83d                SeRsaVerifyWithSha1
                0x000000004015d8df                SeMacSha1
                0x000000004015da36                SeMacSha196
                0x000000004015da7d                SeMd5
                0x000000004015da9d                SeDes3Encrypt
                0x000000004015db35                SeDes3Decrypt
                0x000000004015dbcf                SeDesNewKeyValue
                0x000000004015dc21                SeDes3NewKey
                0x000000004015dca2                SeDesNewKey
                0x000000004015dcb3                SeDesRandKeyValue
                0x000000004015dccf                SeDesRandKey
                0x000000004015dd19                SeDes3RandKey
                0x000000004015dd62                SeDesFreeKeyValue
                0x000000004015dd8a                SeDes3FreeKey
                0x000000004015ddc4                SeDesFreeKey
                0x000000004015ddcf                SeRand
                0x000000004015dde3                SeRand64
                0x000000004015ddff                SeRand32
                0x000000004015de1a                SeRand16
                0x000000004015de36                SeRand8
                0x000000004015de52                SeRand1
                0x000000004015de65                SeInitCrypto
                0x000000004015dea8                SeFreeCrypto
                0x000000004015dec0                SeIkeStrToPassword
                0x000000004015df2d                SeIkePhase1CryptIdToKeySize
                0x000000004015df4c                SeIkePhase2CryptIdToKeySize
                0x000000004015df6b                SeIkeStrToPhase1CryptId
                0x000000004015dfd1                SeIkeStrToPhase1HashId
                0x000000004015e010                SeIkeStrToPhase2CryptId
                0x000000004015e07b                SeIkeStrToPhase2HashId
                0x000000004015e0ba                SeIkeIsZeroIP
                0x000000004015e0e8                SeIkeInitIPv6Address
                0x000000004015e135                SeIkeInitIPv4Address
                0x000000004015e178                SeIkeGetIPv6Address
                0x000000004015e1b2                SeIkeGetIPv4Address
                0x000000004015e1cb                SeIkeIpAddressToStr
                0x000000004015e225                SeIkeBuildDataPayload
                0x000000004015e26e                SeIkeBuildTransformValue
                0x000000004015e328                SeIkeBuildTransformValueList
                0x000000004015e390                SeIkeBuildTransformPayload
                0x000000004015e40d                SeIkeBuildIdPayload
                0x000000004015e484                SeIkeBuildCertPayload
                0x000000004015e4e7                SeIkeBuildCertRequestPayload
                0x000000004015e54a                SeIkeBuildNoticePayload
                0x000000004015e5d7                SeIkeBuildDeletePayload
                0x000000004015e6a7                SeIkeGetFirstPayloadType
                0x000000004015e6c6                SeIkeBuildPayloadList
                0x000000004015e7d1                SeIkeBuildProposalPayload
                0x000000004015e87c                SeIkeBuildSaPayload
                0x000000004015e905                SeIkeBuildPayload
                0x000000004015e9de                SeIkeGetPayload
                0x000000004015ea2c                SeIkeGetPayloadNum
                0x000000004015ea68                SeIkeNewPayload
                0x000000004015ea86                SeIkeNewDataPayload
                0x000000004015ead6                SeIkeNewSaPayload
                0x000000004015eb01                SeIkeNewProposalPayload
                0x000000004015eb8b                SeIkeNewTransformPayload
                0x000000004015ebd6                SeIkeNewIdPayload
                0x000000004015ec56                SeIkeNewCertPayload
                0x000000004015ecba                SeIkeNewCertRequestPayload
                0x000000004015ed1e                SeIkeNewNoticePayload
                0x000000004015edba                SeIkeNewDeletePayload
                0x000000004015edf6                SeIkeNewTransformValue
                0x000000004015ee25                SeIkeFreeTransformValueList
                0x000000004015ee61                SeIkeParseTransformValueList
                0x000000004015efcd                SeIkeParseTransformPayload
                0x000000004015f039                SeIkeFreeTransformPayload
                0x000000004015f067                SeIkeParseIdPayload
                0x000000004015f0e4                SeIkeFreeIdPayload
                0x000000004015f112                SeIkeParseCertPayload
                0x000000004015f17b                SeIkeFreeCertPayload
                0x000000004015f1a9                SeIkeParseCertRequestPayload
                0x000000004015f212                SeIkeFreeCertRequestPayload
                0x000000004015f240                SeIkeParseNoticePayload
                0x000000004015f304                SeIkeFreeNoticePayload
                0x000000004015f348                SeIkeFreeDeletePayload
                0x000000004015f3a7                SeIkeParseDeletePayload
                0x000000004015f4b5                SeIkeParseDataPayload
                0x000000004015f4ef                SeIkeFreeDataPayload
                0x000000004015f502                SeIkeFreePayloadList
                0x000000004015f53e                SeIkeParsePayloadListEx
                0x000000004015f6c1                SeIkeParsePayloadList
                0x000000004015f6d4                SeIkeParseProposalPayload
                0x000000004015f784                SeIkeParseSaPayload
                0x000000004015f851                SeIkeParsePayload
                0x000000004015f951                SeIkeFreeProposalPayload
                0x000000004015f995                SeIkeFreeSaPayload
                0x000000004015f9c1                SeIkeFreePayload
                0x000000004015fa68                SeIkeEncrypt
                0x000000004015fb23                SeIkeEncryptWithPadding
                0x000000004015fbd3                SeIkeBuild
                0x000000004015fd2c                SeIkeDecrypt
                0x000000004015fde7                SeIkeFree
                0x000000004015fe23                SeIkeParseEx
                0x000000004016000b                SeIkeParse
                0x000000004016001b                SeIkeParseHeader
                0x000000004016002b                SeIkeNew
                0x00000000401600b0                VPN_IPsec_Client_Start
                0x00000000401600d6                VPN_IPsec_Client_Stop
                0x00000000401600e6                SeIntInit
                0x0000000040160109                SeIntFree
                0x0000000040160123                VPN_IPsec_Init
                0x000000004016017f                VPN_IPsec_Free
                0x00000000401601b1                SeSysMemoryAlloc
                0x00000000401601cd                SeSysMemoryReAlloc
                0x00000000401601f6                SeSysMemoryFree
                0x000000004016020e                SeSysGetCurrentCpuId
                0x0000000040160226                SeSysNewLock
                0x000000004016023e                SeSysLock
                0x0000000040160256                SeSysUnlock
                0x000000004016026e                SeSysFreeLock
                0x0000000040160286                SeSysGetTickCount
                0x000000004016029e                SeSysNewTimer
                0x00000000401602c2                SeSysSetTimer
                0x00000000401602da                SeSysFreeTimer
                0x00000000401602f2                SeSysGetPhysicalNicInfo
                0x000000004016030f                SeSysSendPhysicalNic
                0x0000000040160335                SeSysSetPhysicalNicRecvCallback
                0x0000000040160357                SeSysGetVirtualNicInfo
                0x0000000040160374                SeSysSendVirtualNic
                0x000000004016039d                SeSysSetVirtualNicRecvCallback
                0x00000000401603c2                SeSysSaveData
                0x00000000401603e9                SeSysLoadData
                0x0000000040160410                SeSysFreeData
                0x000000004016042b                SeSysRsaSign
                0x0000000040160463                SeSysLog
                0x0000000040160491                SeRsaSign
                0x0000000040160530                Se4ParseIpPacketUDPv4
                0x000000004016062b                Se4FreeIpHeaderInfo
                0x000000004016065f                Se4IpChecksum
                0x00000000401606d2                Se4IpCheckChecksum
                0x0000000040160721                Se4ParseIpPacketICMPv4
                0x0000000040160850                Se4BuildIcmpEchoPacket
                0x000000004016090c                Se4AdjustTcpMss
                0x0000000040160ab1                Se4Tick
                0x0000000040160ac9                Se4BroadcastMacAddress
                0x0000000040160ad4                Se4SendEthPacket
                0x0000000040160bab                Se4SendIpFragmentNow
                0x0000000040160bd4                Se4InitArpEntryList
                0x0000000040160be4                Se4FreeArpEntryList
                0x0000000040160c20                Se4FlushArpEntryList
                0x0000000040160ccd                Se4SearchArpEntryList
                0x0000000040160d59                Se4AddArpEntryList
                0x0000000040160e46                Se4SearchArpWaitList
                0x0000000040160e8e                Se4InitArpWaitList
                0x0000000040160e9e                Se4FreeArpWaitList
                0x0000000040160eda                Se4InsertIpWait
                0x0000000040160f5c                Se4InitIpWaitList
                0x0000000040160f6c                Se4FreeIpWait
                0x0000000040160f95                Se4FlushIpWaitList
                0x0000000040161057                Se4FreeIpWaitList
                0x0000000040161093                Se4InitIpCombineList
                0x00000000401610a3                Se4SearchIpCombineList
                0x0000000040161119                Se4InitIpFragmentList
                0x0000000040161129                Se4InsertIpCombine
                0x0000000040161228                Se4FreeIpFragmentList
                0x0000000040161264                Se4FreeIpCombine
                0x000000004016129c                Se4FlushIpCombineList
                0x0000000040161385                Se4FreeIpCombineList
                0x00000000401613d3                Se4Free
                0x0000000040161417                Se4And
                0x0000000040161446                Se4GetNetworkAddress
                0x0000000040161451                Se4Or
                0x0000000040161480                Se4Not
                0x00000000401614aa                Se4GetBroadcastAddress
                0x00000000401614ef                Se4GetHostAddress
                0x0000000040161509                Se4GenerateSubnetMask32
                0x000000004016152a                Se4IPToStr
                0x000000004016156d                Se4ZeroIP
                0x0000000040161588                Se4StrToIP
                0x0000000040161629                Se4IPToUINT
                0x000000004016164b                Se4StrToIP32
                0x000000004016165d                Se4IsZeroIP
                0x0000000040161670                Se4Init
                0x0000000040161786                Se4Cmp
                0x00000000401617bf                Se4CheckUnicastAddress
                0x0000000040161810                Se4IsInSameNetwork
                0x000000004016185f                Se4CmpIpCombineList
                0x00000000401618fd                Se4SendWaitingIpWait
                0x00000000401619de                Se4MacIpRelationKnown
                0x0000000040161a8a                Se4CmpArpWaitEntry
                0x0000000040161ac1                Se4CmpArpEntry
                0x0000000040161af8                Se4ParseIpPacket
                0x0000000040161c4e                Se4IsBroadcastAddress
                0x0000000040161c62                Se4SendArpResponse
                0x0000000040161d49                Se4SendArpDoProcess
                0x0000000040161e4f                Se4ProcessArpWaitList
                0x0000000040161f03                Se4MainProc
                0x0000000040161f34                Se4SendArpRequest
                0x0000000040161fa9                Se4UINTToIP
                0x0000000040161fcb                Se4IPToStr32
                0x0000000040161fef                Se4GenerateSubnetMask
                0x0000000040162001                Se4IsSubnetMask
                0x000000004016203e                Se4RecvArpResponse
                0x0000000040162083                Se4RecvArpRequest
                0x00000000401621ad                Se4RecvArp
                0x000000004016226a                Se4SendRawIp
                0x00000000401623cd                Se4SendIpFragment
                0x0000000040162500                Se4SendIp
                0x00000000401625e2                Se4SendUdp
                0x0000000040162714                Se4SendIcmp
                0x00000000401627cd                Se4SendIcmpEchoResponse
                0x0000000040162862                Se4RecvIpComplete
                0x000000004016292f                Se4CombineIp
                0x0000000040162b2d                Se4SendIcmpEchoRequest
                0x0000000040162bc2                Se4RecvIp
                0x0000000040162e5c                Se4RecvEthPacket
                0x0000000040162ef0                Se6FreeIpHeaderInfo
                0x0000000040162f24                Se6IpChecksum
                0x0000000040162f97                Se6CalcChecksum
                0x0000000040163058                Se6ParseIpPacketICMPv6
                0x0000000040163296                Se6ParseIpPacketUDPv6
                0x00000000401633e5                Se6BuildIcmpEchoPacket
                0x00000000401634ce                Se6BroadcastMacAddress
                0x00000000401634d9                Se6SendEthPacket
                0x00000000401635b0                Se6SendIpFragmentNow
                0x00000000401635d9                Se6InitNeighborEntryList
                0x00000000401635e9                Se6FreeNeighborEntryList
                0x0000000040163625                Se6FlushNeighborEntryList
                0x00000000401636d2                Se6SearchNeighborEntryList
                0x0000000040163729                Se6AddNeighborEntryList
                0x0000000040163813                Se6SearchNdpWaitList
                0x0000000040163862                Se6InitNdpWaitList
                0x0000000040163872                Se6FreeNdpWaitList
                0x00000000401638ae                Se6InsertIpWait
                0x000000004016393d                Se6InitIpWaitList
                0x000000004016394d                Se6FreeIpWait
                0x0000000040163976                Se6FreeIpWaitList
                0x00000000401639b2                Se6InitIpCombineList
                0x00000000401639c2                Se6SearchIpCombineList
                0x0000000040163a66                Se6InitIpFragmentList
                0x0000000040163a76                Se6FreeIpFragmentList
                0x0000000040163ab2                Se6FreeIpCombine
                0x0000000040163aed                Se6FreeIpCombineList
                0x0000000040163b3b                Se6Free
                0x0000000040163b8b                Se6Tick
                0x0000000040163ba3                Se6InsertIpCombine
                0x0000000040163cda                Se6FlushIpCombineList
                0x0000000040163dc6                Se6FlushIpWaitList
                0x0000000040163e8e                Se6GenerateEui64Address
                0x0000000040163eef                Se6GenerateMulticastMacAddress
                0x0000000040163f25                Se6GetAllNodeMulticastAddr
                0x0000000040163f51                Se6GetAllRouterMulticastAddr
                0x0000000040163f7d                Se6And
                0x0000000040163fbb                Se6GetPrefixAddress
                0x0000000040163fca                Se6Or
                0x0000000040164008                Se6Not
                0x000000004016403c                Se6GetHostAddress
                0x0000000040164078                Se6GenerateSubnetMask
                0x00000000401640dd                Se6GetSoliciationMulticastAddr
                0x000000004016418e                Se6LocalSubnet
                0x00000000401641a2                Se6Cmp
                0x00000000401641ce                Se6GetIPAddrType
                0x00000000401642dc                Se6IsInSameNetwork
                0x00000000401643a3                Se6SendRawIp
                0x0000000040164515                Se6SendIpFragment
                0x0000000040164531                Se6SendIp
                0x00000000401646ae                Se6SendUdp
                0x00000000401647da                Se6SendIcmp
                0x00000000401648d6                Se6SendIcmpNeighborSoliciation
                0x0000000040164a4c                Se6SendNeighborSoliciationDoProcess
                0x0000000040164b06                Se6SendNeighborSoliciation
                0x0000000040164b8e                Se6ProcessNdpWaitList
                0x0000000040164c48                Se6SendIcmpNeighborAdvertisement
                0x0000000040164d8c                Se6SendIcmpEchoResponse
                0x0000000040164e51                Se6SendIcmpEchoRequest
                0x0000000040164f16                Se6IsSubnetMask
                0x0000000040164f78                Se6SubnetMaskToInt
                0x0000000040164fd2                Se6SendIcmpRouterAdvertisement
                0x00000000401651aa                Se6MainProc
                0x0000000040165204                Se6CmpIpCombineList
                0x0000000040165295                Se6SendWaitingIpWait
                0x000000004016538c                Se6MacIpRelationKnown
                0x00000000401654ae                Se6CmpNdpWaitEntry
                0x00000000401654ef                Se6CmpNeighborEntry
                0x0000000040165530                Se6ParseIpPacket
                0x00000000401656d2                Se6IsZeroIP
                0x00000000401656f2                Se6CheckUnicastAddress
                0x0000000040165726                Se6IsNetworkPrefixAddress
                0x0000000040165768                Se6IsGuestNode
                0x000000004016580c                Se6AddGuestNode
                0x00000000401658e0                Se6RecvIpComplete
                0x0000000040165b97                Se6CombineIp
                0x0000000040165dad                Se6RecvIp
                0x0000000040165fea                Se6RecvEthPacket
                0x000000004016605c                Se6IPToStr
                0x00000000401661ba                Se6IPItemStrToChars
                0x000000004016629a                Se6CheckIPItemStr
                0x0000000040166303                Se6ZeroIP
                0x0000000040166323                Se6StrToIP
                0x00000000401664ef                Se6GenerateEui64LocalAddress
                0x0000000040166562                Se6Init
                0x00000000401666c1                Se6GenerateEui64GlobalAddress
                0x00000000401667c2                Se6CheckSubnetLength
                0x00000000401667e0                SeTimerEntryCompare
                0x0000000040166820                SeEthGetInfo
                0x0000000040166844                SeEthSendAdd
                0x0000000040166877                SeEthParseEthernetPacket
                0x0000000040166978                SeEthGenRandMacAddress
                0x00000000401669ca                SeLoad
                0x0000000040166a2f                SeSave
                0x0000000040166a4b                SeTick
                0x0000000040166a5b                SeGetCurrentCpuId
                0x0000000040166a6b                SeNewLock
                0x0000000040166aa6                SeEthNew
                0x0000000040166bbc                SeTimerNew
                0x0000000040166c32                SeLock
                0x0000000040166c7c                SeUnlock
                0x0000000040166ca3                SeTick64Internal
                0x0000000040166cf9                SeTick64
                0x0000000040166d18                SeInitKernel
                0x0000000040166d52                SeEthGetNextRecvPacket
                0x0000000040166d9b                SeEthDeleteOldSenderMacList
                0x0000000040166e6f                SeEthIsSenderMacAddressExistsInList
                0x0000000040166f16                SeEthNicCallback
                0x0000000040167017                SeEthAddSenderMacList
                0x0000000040167111                SeEthSend
                0x0000000040167197                SeEthSendAll
                0x0000000040167268                SeTimerAdjust
                0x00000000401672ee                SeTimerSet
                0x0000000040167374                SeTimerCallback
                0x0000000040167484                SeDeleteLock
                0x00000000401674ac                SeEthFree
                0x0000000040167555                SeTimerFree
                0x00000000401675af                SeFreeKernel
                0x00000000401675c5                SeLogArgs
                0x0000000040167603                SeWarning
                0x0000000040167649                SeError
                0x000000004016768f                SeInfo
                0x00000000401676d5                SeFatal
                0x000000004016771b                SeDebug
                0x0000000040167761                SeDebugBin
                0x00000000401677cf                SeLog
                0x0000000040167810                SeB64CodeToChar
                0x0000000040167856                SeB64CharToCode
                0x000000004016789d                SeIsZero
                0x00000000401678e6                SeReplaceListPointer
                0x0000000040167942                SeIsInListStr
                0x00000000401679b3                SeIsInList
                0x00000000401679fe                SeCompareStr
                0x0000000040167a20                SeSetSortFlag
                0x0000000040167a2e                SeSetCmp
                0x0000000040167a4f                SeFastSwap
                0x0000000040167a83                SeQSort
                0x0000000040167d9b                SeSort
                0x0000000040167dd3                SeBSearch
                0x0000000040167ea2                SeSearch
                0x0000000040167f0a                SeFifoSize
                0x0000000040167f1d                SeDumpBuf
                0x0000000040167f45                SeSeekBuf
                0x0000000040167f7b                SeClearBuf
                0x0000000040167f94                SeSwap16
                0x0000000040167faf                SeSwap32
                0x0000000040167fd9                SeSwap64
                0x0000000040168030                SeMalloc
                0x0000000040168072                SeNewBuf
                0x00000000401680b4                SeNewFifo
                0x00000000401680f6                SeReAlloc
                0x0000000040168167                SeAdjustBufSize
                0x000000004016819c                SeClearFifo
                0x00000000401681d9                SeAdd
                0x0000000040168243                SeInsert
                0x0000000040168371                SeInsertStr
                0x00000000401683c4                SeDelete
                0x000000004016847f                SeDeleteAll
                0x00000000401684b6                SePop
                0x000000004016851d                SePush
                0x0000000040168580                SeMemSize
                0x00000000401685b2                SeFree
                0x00000000401685e1                SeFreeBuf
                0x0000000040168609                SeFreeBufWithoutBuffer
                0x0000000040168619                SeFreeFifo
                0x0000000040168641                SeFreeList
                0x000000004016866a                SeFreeQueue
                0x0000000040168693                SeFreeStack
                0x00000000401686bc                SeIsLittleEndian
                0x00000000401686cf                SeEndian16
                0x00000000401686f3                SeEndian32
                0x0000000040168716                SeEndian64
                0x000000004016873d                SeIsBigEndian
                0x0000000040168755                SeCmp
                0x00000000401687c4                SeCmpEx
                0x00000000401687f9                SeCmpBuf
                0x000000004016883a                SeCopy
                0x0000000040168862                SeClone
                0x00000000401688af                SeSwap
                0x0000000040168909                SeWriteBuf
                0x0000000040168980                SeMemToBuf
                0x00000000401689e6                SeRandBuf
                0x0000000040168a2c                SeCloneBuf
                0x0000000040168a47                SeWriteBufLine
                0x0000000040168a9f                SeWriteBufBuf
                0x0000000040168aba                SeWriteBufInt
                0x0000000040168afa                SeWriteBufInt64
                0x0000000040168b3d                SeWriteBufStr
                0x0000000040168bab                SeAddBufStr
                0x0000000040168bea                SeReadDump
                0x0000000040168c4f                SePeekFifo
                0x0000000040168c8d                SePeekNext
                0x0000000040168ccb                SeReadFifo
                0x0000000040168db8                SeGetNext
                0x0000000040168e02                SeGetNextInt
                0x0000000040168e38                SeWriteFifo
                0x0000000040168ecc                SeInsertQueue
                0x0000000040168f02                SeInsertQueueInt
                0x0000000040168f36                SeCopyToArray
                0x0000000040168f5a                SeToArray
                0x0000000040168f9f                SeZero
                0x0000000040168fc1                SeZeroMalloc
                0x0000000040168ff9                SeNewList
                0x000000004016904c                SeCloneList
                0x000000004016909a                SeNewQueue
                0x00000000401690ce                SeNewStack
                0x0000000040169109                SeB64Decode
                0x00000000401692d8                SeB64Encode
                0x0000000040169491                SeReadBuf
                0x000000004016952b                SeReadBufFromBuf
                0x00000000401695c7                SeReadRemainBuf
                0x00000000401695ef                SeReadBufInt
                0x0000000040169624                SeReadBufInt64
                0x000000004016965c                SeReadBufStr
                0x0000000040169710                SeBuildICMPv6OptionValue
                0x000000004016979f                SeBuildICMPv6Options
                0x000000004016984a                SeParseICMPv6Options
                0x0000000040169923                SeFreePacketList
                0x000000004016995f                SeFreePacketListWithoutBuffer
                0x000000004016999b                SeGetNextHeaderFromQueue
                0x00000000401699c7                SeBuildAndAddIPv6PacketOptionHeader
                0x0000000040169a64                SeBuildIPv6Packet
                0x0000000040169c49                SeBuildIPv6PacketWithFragment
                0x0000000040169e05                SeParseIPv6ExtHeader
                0x0000000040169ef2                SeParseIPv6Packet
                0x0000000040169f6d                SeParsePacketL3IPv6
                0x0000000040169fae                SeParsePacketL3IPv4
                0x000000004016a067                SeParsePacketL3ARPv4
                0x000000004016a091                SeParsePacketL2
                0x000000004016a133                SeFreePacket
                0x000000004016a143                SeParsePacket
                0x000000004016a1e0                SeSecCmpIkeSa
                0x000000004016a2b8                SeSecCalcP2Iv
                0x000000004016a36c                SeSecCalcP1Iv
                0x000000004016a419                SeSecCalcKEYMATFull
                0x000000004016a523                SeSecCalcKEYMAT
                0x000000004016a5ea                SeSecCalcKa
                0x000000004016a6bf                SeSecCalcP1KeySet
                0x000000004016a8d6                SeSecForceReconnect
                0x000000004016a90f                SeSecLifeSeconds64bit
                0x000000004016a92f                SeSecGetIPsecSa
                0x000000004016a97b                SeSecNewIkeSa
                0x000000004016aa2c                SeSecFreeP1KeySet
                0x000000004016aa7a                SeSecGenIkeSaMessageId
                0x000000004016aae9                SeSecGenIkeSaInitCookie
                0x000000004016ab58                SeSecInitSaList
                0x000000004016ab92                SeSecSearchIPsecSaBySpi
                0x000000004016ac21                SeSecSearchIkeSaBySpi
                0x000000004016acec                SeSecSearchIkeSa
                0x000000004016adb8                SeSecNewSpi
                0x000000004016adcf                SeSecGenIPsecSASpi
                0x000000004016ae3e                SeSecStrToAuthMethod
                0x000000004016aea9                SeSecTick
                0x000000004016aec3                SeSecCheckIPsecSaExpires
                0x000000004016af86                SeSecCheckIkeSaExpires
                0x000000004016b045                SeSecSetTimerCallback
                0x000000004016b065                SeSecAddTimer
                0x000000004016b085                SeSecDoInterval
                0x000000004016b0f6                SeSecNewIPsecSa
                0x000000004016b263                SeSecSetRecvUdpCallback
                0x000000004016b283                SeSecSetRecvEspCallback
                0x000000004016b2a3                SeSecSetRecvVirtualIpCallback
                0x000000004016b2c3                SeSecSendUdp
                0x000000004016b30c                SeSecProcessIkeSaMsgPhase1
                0x000000004016bc15                SeSecSendIkeSaMsgPhase2
                0x000000004016c137                SeSecSendIkeSaMsgPhase2FinalHash
                0x000000004016c2d7                SeSecProcessIkeSaMsgPhase2
                0x000000004016c736                SeSecSendIkeSaMsgInfo
                0x000000004016c99e                SeSecSendIkeSaMsgInfoSimple
                0x000000004016ca06                SeSecSendIPsecSaDeleteMsg
                0x000000004016ca8a                SeSecFreeIPsecSa
                0x000000004016cb0a                SeSecDeleteExpiredIPsecSa
                0x000000004016cbb0                SeSecProcessIkeSaMsgInfo
                0x000000004016ced5                SeSecProcessIkeSaMsg
                0x000000004016cf29                SeSecUdpRecvCallback
                0x000000004016d195                SeSecSendIkeSaDeleteMsg
                0x000000004016d232                SeSecFreeIkeSa
                0x000000004016d3eb                SeSecFreeSaList
                0x000000004016d464                SeSecFreeMain
                0x000000004016d474                SeSecFree
                0x000000004016d4a3                SeSecDeleteExpiredIkeSa
                0x000000004016d606                SeSecStartVpnConnect
                0x000000004016dc3a                SeSecProcessMain
                0x000000004016dd2c                SeSecTimerCallback
                0x000000004016dd3f                SeSecInitMain
                0x000000004016dd64                SeSecInit
                0x000000004016de98                SeSecSendEsp
                0x000000004016ded1                SeSecVirtualIpRecvCallback
                0x000000004016e0da                SeSecSendVirtualIp
                0x000000004016e102                SeSecEspRecvCallback
                0x000000004016e2b0                SeMakeCharArray
                0x000000004016e2e4                SeFreeToken
                0x000000004016e332                SeNullTokenList
                0x000000004016e366                SeDefaultTokenSplitChars
                0x000000004016e371                Se4BitToHex
                0x000000004016e386                SeHexTo4Bit
                0x000000004016e3c2                SeStrCmp
                0x000000004016e456                SeStrnCmp
                0x000000004016e523                SeToUpper
                0x000000004016e537                SeStrnCmpi
                0x000000004016e602                SeStrCmpi
                0x000000004016e6b2                SeToLower
                0x000000004016e6c6                SeStrCheckLen
                0x000000004016e702                SeStrCheckSize
                0x000000004016e720                SeStrLen
                0x000000004016e747                SeStrSize
                0x000000004016e75f                SeStrCpy
                0x000000004016e82a                SeStrCat
                0x000000004016e8cc                SeStrUpper
                0x000000004016e90c                SeStrLower
                0x000000004016e94c                SeToInt64
                0x000000004016e9a2                SeToInt
                0x000000004016e9f0                SeToStr64
                0x000000004016eab7                SeToStr
                0x000000004016eb71                SeToHex
                0x000000004016ec25                SeToHex64
                0x000000004016ecd9                SeHexToInt
                0x000000004016ed61                SeHexToInt64
                0x000000004016edeb                SeTrimLeft
                0x000000004016ee98                SeTrimRight
                0x000000004016efaa                SeTrim
                0x000000004016efcf                SeCopyStr
                0x000000004016f024                SeTrimCopy
                0x000000004016f051                SeUniqueToken
                0x000000004016f1ab                SeSearchStrEx
                0x000000004016f2ff                SeSearchStri
                0x000000004016f30f                SeSearchStr
                0x000000004016f31f                SeCalcReplaceStrEx
                0x000000004016f3da                SeReplaceStrEx
                0x000000004016f52f                SeReplaceStr
                0x000000004016f540                SeReplaceStri
                0x000000004016f551                SeTrimCrlf
                0x000000004016f598                SeStartWith
                0x000000004016f63e                SeEndWith
                0x000000004016f6a7                SeIsEmptyStr
                0x000000004016f6f1                SeNormalizeCrlf
                0x000000004016f784                SeIsCharInStr
                0x000000004016f7dc                SeParseToken
                0x000000004016f977                SeParseTokenWithNullStr
                0x000000004016fad4                SeToStr3
                0x000000004016fc22                SeIsAllUpperStr
                0x000000004016fc94                SeIsAllLowerStr
                0x000000004016fd06                SeFormatEx
                0x0000000040170219                SeFormatArgs
                0x0000000040170279                SeFormat
                0x00000000401702af                SeBinToStr
                0x0000000040170356                SeBinToStrEx
                0x00000000401703ff                SeMacToStr
                0x0000000040170450                SeStrToBin
                0x000000004017053f                SeStrToBinEx
                0x00000000401705b2                SeStrToMac
                0x00000000401705c5                SeReadNextLine
                0x0000000040170690                SeVpnRecvIpV6PacketCallback
                0x00000000401706e0                SeVpnRecvIpV4PacketCallback
                0x0000000040170730                SeVpnInitIpStack
                0x0000000040170a92                SeVpnFreeIpStack
                0x0000000040170b32                SeVpnMainInit
                0x0000000040170c4b                SeVpnMainFree
                0x0000000040170c6f                SeVpnRecvEtherPacket
                0x0000000040170cd6                SeVpnSendEtherPacket
                0x0000000040170cfb                SeVpnMainProcRecvEtherPacket
                0x0000000040170daa                SeVpnStatusChanged
                0x0000000040170dbc                SeVpnMainProcess
                0x0000000040170eba                SeVpnMainHandler
                0x0000000040170f07                SeVpnEthRecvCallback
                0x0000000040170f1f                SeVpnTimerCallback
                0x0000000040170f37                SeVpnTick
                0x0000000040170f4b                SeVpnAddTimer
                0x0000000040170f5f                SeVpnDoInterval
                0x0000000040170fcf                SeVpnFreeConfig
                0x0000000040170fdf                SeVpnFree
                0x0000000040171030                SeVpnLoadConfig
                0x000000004017238e                SeVpnInit
                0x00000000401724b0                SeVpn4ClientSetTimerCallback
                0x00000000401724c3                SeVpn4ClientSetRecvUdpCallback
                0x00000000401724d6                SeVpn4ClientSetRecvEspCallback
                0x00000000401724e9                SeVpn4ClientSetRecvVirtualIpCallback
                0x00000000401724fc                SeVpn4ClientSendVirtualIp
                0x000000004017253b                SeVpn4ClientSendEsp
                0x00000000401725bb                SeVpn4ClientSendUdp
                0x0000000040172646                SeVpn4IPsecSendPing
                0x000000004017278e                SeVpn4IPsecInputFromPhysical
                0x0000000040172859                SeVpn4IPsecInputFromVirtual
                0x00000000401728cd                SeVpn4FreeIPsec
                0x00000000401728e1                SeVpn4InitSecConfig
                0x0000000040172ac2                SeVpn4InitIPsec
                0x0000000040172b93                SeVpn4DoInterval
                0x0000000040172bab                SeVpn4Tick
                0x0000000040172bc3                SeVpn4ClientGetTick
                0x0000000040172bd8                SeVpn4IPsecMainProc
                0x0000000040172c60                SeVpn4MainProc
                0x0000000040172c7b                SeVpn4SetTimer
                0x0000000040172c8e                SeVpn4ClientAddTimer
                0x0000000040172ca6                SeVpn4DhcpSendResponse
                0x0000000040172dbb                SeVpn4DhcpOptionsToBuf
                0x0000000040172e79                SeVpn4NewDhcpOption
                0x0000000040172ee0                SeVpn4DhcpBuildDhcpOptionList
                0x00000000401730be                SeVpn4DhcpSearchOption
                0x00000000401730fa                SeVpn4DhcpFreeOptionList
                0x0000000040173150                SeVpn4DhcpParseOptionListMain
                0x000000004017323e                SeVpn4DhcpParseOptionList
                0x0000000040173331                SeVpn4DhcpServer
                0x00000000401735fc                SeVpn4RecvPacketPhysical
                0x00000000401736d1                SeVpn4RecvPacketVirtual
                0x0000000040173833                SeVpn4Init
                0x0000000040173898                SeVpn4Free
                0x00000000401738d0                SeVpn6ClientSetTimerCallback
                0x00000000401738e3                SeVpn6ClientSetRecvUdpCallback
                0x00000000401738f6                SeVpn6ClientSetRecvEspCallback
                0x0000000040173909                SeVpn6ClientSetRecvVirtualIpCallback
                0x000000004017391c                SeVpn6ClientSendVirtualIp
                0x000000004017395b                SeVpn6ClientSendEsp
                0x00000000401739fb                SeVpn6ClientSendUdp
                0x0000000040173ab0                SeVpn6IPsecSendPing
                0x0000000040173c96                SeVpn6UpdateGuestOsIpAddress
                0x0000000040173d6a                SeVpn6IPsecInputFromPhysical
                0x0000000040173e35                SeVpn6IPsecInputFromVirtual
                0x0000000040173e69                SeVpn6InitSecConfig
                0x000000004017405b                SeVpn6InitIPsec
                0x000000004017413c                SeVpn6FreeIPsec
                0x0000000040174150                SeVpn6DoInterval
                0x0000000040174168                SeVpn6Tick
                0x0000000040174180                SeVpn6ClientGetTick
                0x0000000040174195                SeVpn6IPsecMainProc
                0x0000000040174225                SeVpn6MainProc
                0x0000000040174240                SeVpn6SetTimer
                0x0000000040174253                SeVpn6ClientAddTimer
                0x000000004017426b                SeVpn6RecvPacketPhysical
                0x00000000401742ed                SeVpn6RecvPacketVirtual
                0x0000000040174424                SeVpn6Init
                0x000000004017449a                SeVpn6Free
                0x00000000401744d0                crypt_sys_rsa_sign
                0x0000000040174865                msg_usb_bulk_read
                0x00000000401748c5                msg_usb_bulk_write
                0x0000000040174925                msg_usb_claim_interface
                0x000000004017496b                msg_usb_close
                0x00000000401749c5                msg_usb_control_msg
                0x0000000040174a3a                msg_usb_find_busses
                0x0000000040174a78                msg_usb_find_devices
                0x0000000040174ab6                msg_usb_get_busses
                0x0000000040174b1d                msg_usb_get_string_simple
                0x0000000040174b79                msg_usb_init
                0x0000000040174b8e                msg_usb_open
                0x0000000040174c07                msg_usb_release_interface
                0x0000000040174c4d                msg_usb_reset
                0x0000000040174c90                IDMan_StReadSetData
                0x0000000040175375                idman_user_init
                0x00000000401753d0                IDMan_IPIdPassListMalloc
                0x00000000401754bb                IDMan_IPRetJudgment
                0x0000000040175537                IDMan_IPFinalizeReader
                0x0000000040175559                IDMan_IPFinalize
                0x00000000401755af                IDMan_IPInitialize
                0x00000000401756b8                IDMan_IPInitializeReader
                0x00000000401756e5                IDMan_getMemoryFree
                0x000000004017572d                IDMan_PaddingParamChk
                0x00000000401757f2                IDMan_CmPadding
                0x00000000401759ae                IDMan_CmPadding2
                0x0000000040175b2a                IDMan_IPgetCertPKCS
                0x0000000040176222                IDMan_IPgetCertIdxPKCS
                0x00000000401766f5                IDMan_IPCheckPKC
                0x000000004017691e                IDMan_CheckCardStatus
                0x0000000040176950                IDMan_IPgSParamChk
                0x0000000040176a80                IDMan_IPgIdxSParamChk
                0x0000000040176ab8                IDMan_IPgetPrivateKey
                0x0000000040176cab                IDMan_IPgetHash
                0x0000000040176da2                IDMan_IPCrSignature
                0x0000000040176f0a                IDMan_generateSignature
                0x0000000040177044                IDMan_generateSignatureByIndex
                0x000000004017716b                IDMan_EncryptByIndex
                0x0000000040177294                IDMan_IPgCParamChk
                0x0000000040177386                IDMan_getCertificate
                0x00000000401776a8                IDMan_IPgCIndexParamChk
                0x00000000401776e1                IDMan_getCertificateByIndex
                0x0000000040177a78                IDMan_getStaticPassword
                0x0000000040177d90                IDMan_IPuAPKCS11ParamChk
                0x0000000040177e91                IDMan_IPuAPKCS11IdxParamChk
                0x0000000040177eb8                IDMan_IPgetCertPkeyPKCSx
                0x000000004017837b                IDMan_IPgetCertPkeyIdxPKCSx
                0x00000000401787a4                IDMan_IPgetCertPkeyPKCSy
                0x00000000401788f2                IDMan_IPCheckCrlPkcX
                0x0000000040178a2f                IDMan_IPgetMakeRandData
                0x0000000040178aa7                IDMan_IPMkRandHash
                0x0000000040178b64                IDMan_IPgetPrivateKeyPKCSx
                0x0000000040178d37                IDMan_IPSignatureVerify
                0x0000000040178eb0                IDMan_userAuthPKCS11
                0x0000000040179335                IDMan_userAuthPKCS11ByIndex
                0x00000000401797c0                IDMan_IPvSParamChk
                0x000000004017993e                IDMan_IPvSIdxParamChk
                0x00000000401799a1                IDMan_IPMkPublicKeyObj
                0x0000000040179ae5                IDMan_IPCheckSignature
                0x0000000040179c9f                IDMan_verifySignature
                0x0000000040179e7c                IDMan_verifySignatureByIndex
                0x000000004017a040                CardEstablishContext
                0x000000004017a058                CardReleaseContext
                0x000000004017a089                CardListReaders
                0x000000004017a0a1                CardConnect
                0x000000004017a0df                CardDisconnect
                0x000000004017a0fc                CardStatus
                0x000000004017a14d                CardTransmit
                0x000000004017a189                SelectFileDF
                0x000000004017a27c                SelectFileEF
                0x000000004017a367                Verify
                0x000000004017a47b                InternalAuth
                0x000000004017a5bf                ReadBinary
                0x000000004017abaf                UpdateBinary
                0x000000004017acd9                GetICCardData
                0x000000004017b0c0                GetUlByTxt
                0x000000004017b0ff                GetVerByTex
                0x000000004017b1e7                GetUlByByte
                0x000000004017b22c                TransHex2Tex
                0x000000004017b2bf                TransTex2Hex
                0x000000004017b376                GetLength
                0x000000004017b3e3                SetLength
                0x000000004017b448                GetTlvByBuf
                0x000000004017b7c5                GetDirDataByTlv
                0x000000004017b8ea                GetOdfDataByTlv
                0x000000004017ba5d                GetTokenDataByTlv
                0x000000004017bec3                AddObjTblByTlv
                0x000000004017c567                AddCertDataByBuf
                0x000000004017c66d                AddIdPassDataByBuf
                0x000000004017ca0d                GetValueData
                0x000000004017cdb0                AddElem
                0x000000004017ce4e                SetElem
                0x000000004017cf15                GetElem
                0x000000004017cf51                GetAttrValType
                0x000000004017d0c5                DestroyAttribute
                0x000000004017d10f                DestroyTlvData
                0x000000004017d124                DestroyElem
                0x000000004017d1aa                DestroyList
                0x000000004017d1e7                DestroySessionData
                0x000000004017d225                DestroyTokenData
                0x000000004017d285                DestroySlotData
                0x000000004017d2c1                DelElem
                0x000000004017d330                C_GetFunctionList
                0x000000004017d342                C_Initialize
                0x000000004017d4af                C_Finalize
                0x000000004017d54a                C_GetInfo
                0x000000004017d5d0                C_GetSlotList
                0x000000004017deb4                C_GetSlotInfo
                0x000000004017df9c                C_GetTokenInfo
                0x000000004017e7d3                C_GetMechanismList
                0x000000004017e8a4                C_GetMechanismInfo
                0x000000004017e960                C_OpenSession
                0x000000004017eb1b                C_CloseSession
                0x000000004017ebf4                C_CloseAllSessions
                0x000000004017ed00                C_GetSessionInfo
                0x000000004017ed7c                C_Login
                0x000000004017f1d3                C_Logout
                0x000000004017f2ea                C_FindObjectsInit
                0x000000004017f561                C_FindObjects
                0x000000004017faba                C_FindObjectsFinal
                0x000000004017fb30                C_GetAttributeValue
                0x000000004017fe51                C_SignInit
                0x000000004017ff18                C_Sign
                0x000000004018029f                C_DigestInit
                0x000000004018031a                C_DigestUpdate
                0x00000000401803a2                C_DigestFinal
                0x00000000401804e9                C_VerifyInit
                0x00000000401805b0                C_Verify
                0x0000000040180722                C_CreateObject
                0x00000000401809cf                C_DestroyObject
                0x0000000040180a8f                C_SetAttributeValue
                0x0000000040181699                C_GetCardStatus
                0x0000000040181730                IDMan_StFree
                0x0000000040181740                IDMan_StMemcpy
                0x0000000040181764                IDMan_StMemset
                0x0000000040181782                IDMan_StMalloc
                0x00000000401817c9                IDMan_StMemcmp
                0x0000000040181822                IDMan_StStrlen
                0x000000004018183c                IDMan_StStrcat
                0x0000000040181879                IDMan_StStrchr
                0x00000000401818b6                IDMan_StStrcpy
                0x00000000401818dd                IDMan_StStrcmp
                0x0000000040181928                StIsspace
                0x00000000401819a5                StIsdigit
                0x00000000401819b7                IDMan_StAtoi
                0x0000000040181a13                IDMan_StAtol
                0x0000000040181a7b                IDMan_CmMkHash
                0x0000000040181c36                IDMan_CmChgRSA
                0x0000000040181dff                IDMan_CmGetDN
                0x00000000401820a6                IDMan_CmGetCertificateSign
                0x00000000401822d0                IDMan_CmGetPublicKey
                0x00000000401824ac                IDMan_CmMakeRand
                0x000000004018254a                IDMan_CmCheckCRL
                0x00000000401828d0                IDMan_SCardEstablishContext
                0x00000000401828ed                IDMan_SCardReleaseContext
                0x00000000401828f8                IDMan_SCardListReaders
                0x0000000040182928                IDMan_SCardConnect
                0x0000000040182958                IDMan_SCardDisconnect
                0x0000000040182963                IDMan_SCardStatus
                0x00000000401829e5                IDMan_SCardSizeLongToChar
                0x0000000040182a26                IDMan_SCardSetBinay
                0x0000000040182dc5                IDMan_SCardTransmit
                0x0000000040182e30                EHDestroyEventHandler
                0x0000000040182e9d                EHInitEventHandler
                0x0000000040182f53                EHStatusHandler
                0x00000000401830f0                HPSearchHotPluggables
                0x0000000040183440                PHGetProtocol
                0x000000004018381b                PHSetProtocol
                0x0000000040183884                RFAddReader
                0x000000004018399f                RFRemoveReader
                0x0000000040183a59                RFReaderInfoById
                0x0000000040183a89                RFCheckReaderEventState
                0x0000000040183ac0                SCardEstablishContext
                0x0000000040183bb0                SCardListReaders
                0x0000000040183c5d                SCardConnect
                0x0000000040183ee1                SCardDisconnect
                0x0000000040184092                SCardBeginTransaction
                0x00000000401840e6                SCardEndTransaction
                0x00000000401842ae                SCardStatus
                0x00000000401844b9                SCardReleaseContext
                0x000000004018457f                SCardTransmit
                0x00000000401847d0                SetATR
                0x0000000040184a3d                GetIFSCData
                0x0000000040184a93                GetBWICWIData
                0x0000000040184b31                IFDHCloseChannel
                0x0000000040184bbd                IFDHGetCapabilities
                0x0000000040184bfc                IFDHSetProtocolParameters
                0x00000000401852fb                IFDHPowerICC
                0x00000000401854fa                IFDHTransmitToICC
                0x00000000401857ba                IFDHControl
                0x00000000401858d3                IFDHICCPresence
                0x0000000040185988                IFDHCreateChannel
                0x0000000040185a3c                FindBaudRateTable
                0x0000000040185a7c                ExchangePPSData
                0x0000000040186166                InitLeaderCardProtocol
                0x000000004018627f                T1XfrBlockTPDU
                0x00000000401868ec                T1NegociateIFSD
                0x0000000040186a34                CardStateConfirm
                0x0000000040186a69                GetCardStatus
                0x0000000040186b60                PowerOn
                0x0000000040186d20                PowerOff
                0x0000000040186e88                CardMechanical
                0x0000000040186fa0                TransmitPPS
                0x000000004018713a                TransmitCommand
                0x0000000040187207                ReceiveReply
                0x00000000401873cc                BlockSendCardT1
                0x0000000040187624                ReadDataT0
                0x00000000401876e9                T0XfrBlockCHAR
                0x0000000040187c6f                T0XfrBlockTPDU
                0x0000000040187cf1                T1XfrBlockExtendedAPDU
                0x000000004018806b                OpenUSB
                0x0000000040188405                WriteUSB
                0x0000000040188436                ReadUSB
                0x0000000040188494                CloseUSB
                0x0000000040188504                AES_set_encrypt_key
                0x0000000040188910                AES_set_decrypt_key
                0x0000000040188b36                AES_encrypt
                0x0000000040188fef                AES_decrypt
                0x0000000040189490                BIO_set
                0x0000000040189565                BIO_new
                0x00000000401895de                BIO_free
                0x000000004018968d                BIO_vfree
                0x0000000040189698                BIO_clear_flags
                0x00000000401896a3                BIO_test_flags
                0x00000000401896ae                BIO_set_flags
                0x00000000401896b7                BIO_get_callback
                0x00000000401896c1                BIO_set_callback
                0x00000000401896cb                BIO_set_callback_arg
                0x00000000401896d5                BIO_get_callback_arg
                0x00000000401896df                BIO_method_name
                0x00000000401896ec                BIO_method_type
                0x00000000401896f7                BIO_read
                0x00000000401897f2                BIO_write
                0x00000000401898f6                BIO_puts
                0x00000000401899e8                BIO_gets
                0x0000000040189ad8                BIO_indent
                0x0000000040189b1d                BIO_ctrl
                0x0000000040189bf3                BIO_ptr_ctrl
                0x0000000040189c1e                BIO_int_ctrl
                0x0000000040189c34                BIO_callback_ctrl
                0x0000000040189d00                BIO_ctrl_pending
                0x0000000040189d1a                BIO_ctrl_wpending
                0x0000000040189d34                BIO_push
                0x0000000040189d82                BIO_pop
                0x0000000040189de7                BIO_get_retry_BIO
                0x0000000040189e36                BIO_get_retry_reason
                0x0000000040189e3f                BIO_find_type
                0x0000000040189e74                BIO_next
                0x0000000040189e8a                BIO_free_all
                0x0000000040189eb8                BIO_dup_chain
                0x0000000040189fa7                BIO_copy_next_retry
                0x0000000040189fd4                BIO_get_ex_new_index
                0x0000000040189ff3                BIO_set_ex_data
                0x000000004018a002                BIO_get_ex_data
                0x000000004018a011                BIO_number_read
                0x000000004018a025                BIO_number_written
                0x000000004018a18f                BN_set_params
                0x000000004018a222                BN_get_params
                0x000000004018a257                BN_value_one
                0x000000004018a262                BN_options
                0x000000004018a2a4                BN_num_bits_word
                0x000000004018a2ff                BN_num_bits
                0x000000004018a329                BN_clear_free
                0x000000004018a390                BN_free
                0x000000004018a3d9                BN_init
                0x000000004018a3ee                BN_new
                0x000000004018a461                bn_expand2
                0x000000004018a4b9                BN_copy
                0x000000004018a5a7                BN_dup
                0x000000004018a5fb                bn_dup_expand
                0x000000004018a67d                BN_swap
                0x000000004018a6e0                BN_clear
                0x000000004018a719                BN_get_word
                0x000000004018a73b                BN_set_word
                0x000000004018a79e                BN_bin2bn
                0x000000004018a8e1                BN_bn2bin
                0x000000004018a94f                BN_ucmp
                0x000000004018a99c                BN_cmp
                0x000000004018aa50                BN_set_bit
                0x000000004018ab15                BN_clear_bit
                0x000000004018ab93                BN_is_bit_set
                0x000000004018abd0                BN_mask_bits
                0x000000004018ac6c                BN_set_negative
                0x000000004018ac8c                bn_cmp_words
                0x000000004018acee                bn_cmp_part_words
                0x000000004018ad80                BN_bn2hex
                0x000000004018ae66                BN_bn2dec
                0x000000004018b075                BN_hex2bn
                0x000000004018b252                BN_dec2bn
                0x000000004018b403                BN_asc2bn
                0x000000004018b473                BN_print
                0x000000004018b957                BN_pseudo_rand
                0x000000004018b971                BN_rand
                0x000000004018b98b                BN_bntest_rand
                0x000000004018b9a5                BN_rand_range
                0x000000004018b9bb                BN_pseudo_rand_range
                0x000000004018b9e0                BN_mod_word
                0x000000004018ba35                BN_div_word
                0x000000004018bb1b                BN_sub_word
                0x000000004018bc1a                BN_add_word
                0x000000004018bced                BN_mul_word
                0x000000004018c1d4                BIO_s_mem
                0x000000004018c1df                BIO_new_mem_buf
                0x000000004018c258                BUF_MEM_new
                0x000000004018c2bf                BUF_MEM_free
                0x000000004018c2ff                BUF_MEM_grow
                0x000000004018c3f9                BUF_MEM_grow_clean
                0x000000004018c50f                BUF_memdup
                0x000000004018c584                BUF_strlcpy
                0x000000004018c5e8                BUF_strndup
                0x000000004018c667                BUF_strdup
                0x000000004018c693                BUF_strlcat
                0x000000004018c6cd                BUF_reverse
                0x000000004018c724                OpenSSL_add_all_ciphers
                0x000000004018cbd0                OpenSSL_add_all_digests
                0x000000004018cd40                CRYPTO_get_new_lockid
                0x000000004018cdf8                CRYPTO_num_locks
                0x000000004018ce03                CRYPTO_get_dynlock_create_callback
                0x000000004018ce10                CRYPTO_get_dynlock_lock_callback
                0x000000004018ce1d                CRYPTO_get_dynlock_destroy_callback
                0x000000004018ce2a                CRYPTO_set_dynlock_create_callback
                0x000000004018ce37                CRYPTO_set_dynlock_lock_callback
                0x000000004018ce44                CRYPTO_set_dynlock_destroy_callback
                0x000000004018ce51                CRYPTO_get_locking_callback
                0x000000004018ce5e                CRYPTO_get_add_lock_callback
                0x000000004018ce6b                CRYPTO_set_locking_callback
                0x000000004018ce78                CRYPTO_set_add_lock_callback
                0x000000004018ce85                CRYPTO_THREADID_set_numeric
                0x000000004018ceb8                CRYPTO_THREADID_set_pointer
                0x000000004018ceee                CRYPTO_THREADID_set_callback
                0x000000004018cf0c                CRYPTO_THREADID_get_callback
                0x000000004018cf19                CRYPTO_THREADID_current
                0x000000004018cf63                CRYPTO_THREADID_cmp
                0x000000004018cf73                CRYPTO_THREADID_cpy
                0x000000004018cf83                CRYPTO_THREADID_hash
                0x000000004018cf8d                CRYPTO_get_id_callback
                0x000000004018cf9a                CRYPTO_set_id_callback
                0x000000004018cfa7                CRYPTO_thread_id
                0x000000004018cfc0                CRYPTO_get_lock_name
                0x000000004018d013                OPENSSL_ia32cap_loc
                0x000000004018d01e                OPENSSL_cpuid_setup
                0x000000004018d024                OPENSSL_showfatal
                0x000000004018d06f                OPENSSL_isservice
                0x000000004018d07a                OpenSSLDie
                0x000000004018d09c                CRYPTO_lock
                0x000000004018d133                CRYPTO_add_lock
                0x000000004018d1b7                CRYPTO_get_dynlock_value
                0x000000004018d256                CRYPTO_destroy_dynlockid
                0x000000004018d34e                CRYPTO_get_new_dynlockid
                0x000000004018d56a                OPENSSL_stderr
                0x000000004018d578                DES_encrypt1
                0x000000004018d986                DES_encrypt2
                0x000000004018dc91                DES_encrypt3
                0x000000004018ddee                DES_decrypt3
                0x000000004018df4e                DES_ncbc_encrypt
                0x000000004018e58b                DES_ede3_cbc_encrypt
                0x000000004018efe6                DH_generate_key
                0x000000004018eff6                DH_compute_key
                0x000000004018f006                DH_OpenSSL
                0x000000004018f014                DH_set_default_method
                0x000000004018f021                DH_get_default_method
                0x000000004018f044                DH_set_method
                0x000000004018f091                DH_new_method
                0x000000004018f1a7                DH_new
                0x000000004018f1b7                DH_free
                0x000000004018f297                DH_up_ref
                0x000000004018f2c4                DH_get_ex_new_index
                0x000000004018f2e3                DH_set_ex_data
                0x000000004018f2f2                DH_get_ex_data
                0x000000004018f301                DH_size
                0x000000004019000a                EVP_aes_128_cbc
                0x0000000040190015                EVP_aes_128_cfb128
                0x0000000040190020                EVP_aes_128_ofb
                0x000000004019002b                EVP_aes_128_ecb
                0x0000000040190036                EVP_aes_192_cbc
                0x0000000040190041                EVP_aes_192_cfb128
                0x000000004019004c                EVP_aes_192_ofb
                0x0000000040190057                EVP_aes_192_ecb
                0x0000000040190062                EVP_aes_256_cbc
                0x000000004019006d                EVP_aes_256_cfb128
                0x0000000040190078                EVP_aes_256_ofb
                0x0000000040190083                EVP_aes_256_ecb
                0x000000004019008e                EVP_aes_128_cfb1
                0x0000000040190099                EVP_aes_192_cfb1
                0x00000000401900a4                EVP_aes_256_cfb1
                0x00000000401900af                EVP_aes_128_cfb8
                0x00000000401900ba                EVP_aes_192_cfb8
                0x00000000401900c5                EVP_aes_256_cfb8
                0x00000000401903e6                EVP_bf_cbc
                0x00000000401903f1                EVP_bf_cfb64
                0x00000000401903fc                EVP_bf_ofb
                0x0000000040190407                EVP_bf_ecb
                0x000000004019072a                EVP_cast5_cbc
                0x0000000040190735                EVP_cast5_cfb64
                0x0000000040190740                EVP_cast5_ofb
                0x000000004019074b                EVP_cast5_ecb
                0x0000000040190d0b                EVP_des_cbc
                0x0000000040190d16                EVP_des_cfb64
                0x0000000040190d21                EVP_des_ofb
                0x0000000040190d2c                EVP_des_ecb
                0x0000000040190d37                EVP_des_cfb1
                0x0000000040190d42                EVP_des_cfb8
                0x0000000040191376                EVP_des_ede_cbc
                0x0000000040191381                EVP_des_ede_cfb64
                0x000000004019138c                EVP_des_ede_ofb
                0x0000000040191397                EVP_des_ede_ecb
                0x00000000401913a2                EVP_des_ede3_cbc
                0x00000000401913ad                EVP_des_ede3_cfb64
                0x00000000401913b8                EVP_des_ede3_ofb
                0x00000000401913c3                EVP_des_ede3_ecb
                0x00000000401913ce                EVP_des_ede3_cfb1
                0x00000000401913d9                EVP_des_ede3_cfb8
                0x00000000401913e4                EVP_des_ede
                0x00000000401913ef                EVP_des_ede3
                0x0000000040191777                EVP_idea_cbc
                0x0000000040191782                EVP_idea_cfb64
                0x000000004019178d                EVP_idea_ofb
                0x0000000040191798                EVP_idea_ecb
                0x0000000040191cdf                EVP_rc2_cbc
                0x0000000040191cea                EVP_rc2_cfb64
                0x0000000040191cf5                EVP_rc2_ofb
                0x0000000040191d00                EVP_rc2_ecb
                0x0000000040191d0b                EVP_rc2_64_cbc
                0x0000000040191d16                EVP_rc2_40_cbc
                0x0000000040191d79                EVP_rc4
                0x0000000040191d84                EVP_rc4_40
                0x0000000040191efa                EVP_desx_cbc
                0x0000000040191f08                DES_ecb3_encrypt
                0x0000000040191fd8                DES_options
                0x000000004019202c                DES_ecb_encrypt
                0x00000000401927f4                ERR_get_implementation
                0x0000000040192806                ERR_set_implementation
                0x000000004019286f                ERR_load_ERR_strings
                0x00000000401929a1                ERR_load_strings
                0x00000000401929d1                ERR_unload_strings
                0x0000000040192a23                ERR_free_strings
                0x0000000040192a38                ERR_get_string_table
                0x0000000040192a51                ERR_get_err_state_table
                0x0000000040192a6b                ERR_release_err_state_table
                0x0000000040192a90                ERR_lib_error_string
                0x0000000040192ad0                ERR_func_error_string
                0x0000000040192b10                ERR_reason_error_string
                0x0000000040192b7f                ERR_error_string_n
                0x0000000040192cf7                ERR_error_string
                0x0000000040192d26                ERR_remove_thread_state
                0x0000000040192d6b                ERR_remove_state
                0x0000000040192d7b                ERR_get_state
                0x0000000040193073                ERR_peek_last_error_line_data
                0x0000000040193094                ERR_peek_last_error_line
                0x00000000401930bb                ERR_peek_last_error
                0x00000000401930e6                ERR_peek_error_line_data
                0x0000000040193107                ERR_peek_error_line
                0x000000004019312e                ERR_peek_error
                0x0000000040193159                ERR_get_error_line_data
                0x000000004019317a                ERR_get_error_line
                0x00000000401931a1                ERR_get_error
                0x00000000401931cc                ERR_clear_error
                0x0000000040193287                ERR_put_error
                0x000000004019338f                ERR_get_next_error_library
                0x00000000401933a4                ERR_set_error_data
                0x0000000040193421                ERR_add_error_data
                0x000000004019355e                ERR_set_mark
                0x0000000040193589                ERR_pop_to_mark
                0x0000000040193660                ERR_load_crypto_strings
                0x00000000401936fc                ASN1_TYPE_set_octetstring
                0x0000000040193774                ASN1_TYPE_get_octetstring
                0x00000000401937d0                ASN1_TYPE_set_int_octetstring
                0x00000000401938fd                ASN1_TYPE_get_int_octetstring
                0x0000000040193af0                EVP_CIPHER_CTX_init
                0x0000000040193b05                EVP_CIPHER_CTX_new
                0x0000000040193b3c                EVP_EncryptUpdate
                0x0000000040193ce8                EVP_EncryptFinal_ex
                0x0000000040193dbc                EVP_EncryptFinal
                0x0000000040193dc7                EVP_DecryptUpdate
                0x0000000040193ef6                EVP_CipherUpdate
                0x0000000040193f11                EVP_DecryptFinal_ex
                0x00000000401940ac                EVP_DecryptFinal
                0x00000000401940b7                EVP_CipherFinal
                0x00000000401940d7                EVP_CipherFinal_ex
                0x00000000401940f7                EVP_CIPHER_CTX_cleanup
                0x0000000040194162                EVP_CIPHER_CTX_free
                0x0000000040194187                EVP_CIPHER_CTX_set_padding
                0x00000000401941a8                EVP_CIPHER_CTX_ctrl
                0x0000000040194238                EVP_CIPHER_CTX_set_key_length
                0x0000000040194299                EVP_CipherInit_ex
                0x00000000401944ea                EVP_DecryptInit_ex
                0x00000000401944fb                EVP_EncryptInit_ex
                0x000000004019450c                EVP_CipherInit
                0x0000000040194570                EVP_DecryptInit
                0x0000000040194581                EVP_EncryptInit
                0x0000000040194592                EVP_CIPHER_CTX_rand_key
                0x00000000401945c8                EVP_CIPHER_CTX_copy
                0x00000000401946a8                ERR_load_EVP_strings
                0x00000000401946e0                EVP_CIPHER_param_to_asn1
                0x00000000401946fb                EVP_CIPHER_asn1_to_param
                0x0000000040194716                EVP_CIPHER_block_size
                0x000000004019471f                EVP_CIPHER_CTX_block_size
                0x000000004019472b                EVP_Cipher
                0x0000000040194739                EVP_CIPHER_CTX_cipher
                0x0000000040194742                EVP_CIPHER_flags
                0x000000004019474c                EVP_CIPHER_CTX_flags
                0x0000000040194759                EVP_CIPHER_CTX_get_app_data
                0x0000000040194763                EVP_CIPHER_CTX_set_app_data
                0x000000004019476d                EVP_CIPHER_iv_length
                0x0000000040194776                EVP_CIPHER_CTX_iv_length
                0x0000000040194782                EVP_CIPHER_set_asn1_iv
                0x00000000401947e4                EVP_CIPHER_get_asn1_iv
                0x000000004019487c                EVP_CIPHER_key_length
                0x0000000040194885                EVP_CIPHER_CTX_key_length
                0x000000004019488e                EVP_CIPHER_nid
                0x0000000040194896                EVP_CIPHER_type
                0x00000000401949d5                EVP_CIPHER_CTX_nid
                0x00000000401949e0                EVP_MD_block_size
                0x00000000401949e9                EVP_MD_type
                0x00000000401949f1                EVP_MD_pkey_type
                0x00000000401949fa                EVP_MD_size
                0x0000000040194a2c                EVP_MD_flags
                0x0000000040194a36                EVP_MD_CTX_md
                0x0000000040194a4b                EVP_MD_CTX_set_flags
                0x0000000040194a58                EVP_MD_CTX_clear_flags
                0x0000000040194a67                EVP_MD_CTX_test_flags
                0x0000000040194a72                EVP_CIPHER_CTX_set_flags
                0x0000000040194a7f                EVP_CIPHER_CTX_clear_flags
                0x0000000040194a8e                EVP_CIPHER_CTX_test_flags
                0x0000000040194ea9                CRYPTO_get_ex_data_implementation
                0x0000000040194ec5                CRYPTO_set_ex_data_implementation
                0x0000000040194f2e                CRYPTO_ex_data_new_class
                0x0000000040194f4c                CRYPTO_cleanup_all_ex_data
                0x0000000040194f6b                CRYPTO_get_ex_new_index
                0x0000000040194fda                CRYPTO_new_ex_data
                0x0000000040195027                CRYPTO_dup_ex_data
                0x0000000040195074                CRYPTO_free_ex_data
                0x00000000401950c1                CRYPTO_set_ex_data
                0x000000004019517a                CRYPTO_get_ex_data
                0x0000000040195674                idea_encrypt
                0x0000000040195fb8                idea_cbc_encrypt
                0x00000000401965e0                idea_cfb64_encrypt
                0x0000000040196800                idea_options
                0x000000004019680b                idea_ecb_encrypt
                0x00000000401968c4                idea_ofb64_encrypt
                0x0000000040196afd                idea_set_encrypt_key
                0x0000000040196c86                idea_set_decrypt_key
                0x0000000040196e7d                lh_strhash
                0x0000000040196ef0                lh_new
                0x0000000040197051                lh_free
                0x00000000401970bc                lh_insert
                0x0000000040197248                lh_delete
                0x0000000040197374                lh_retrieve
                0x00000000401973b7                lh_doall
                0x00000000401973d5                lh_doall_arg
                0x00000000401973f0                lh_num_items
                0x0000000040197437                EVP_dss
                0x0000000040197477                EVP_dss1
                0x00000000401974b7                EVP_ecdsa
                0x00000000401974f7                EVP_md4
                0x0000000040197537                EVP_md5
                0x0000000040197577                EVP_ripemd160
                0x00000000401975b7                EVP_sha
                0x000000004019767b                EVP_sha1
                0x0000000040197686                EVP_sha224
                0x0000000040197691                EVP_sha256
                0x000000004019769c                EVP_sha384
                0x00000000401976a7                EVP_sha512
                0x00000000401976b4                MD4_Init
                0x00000000401976f6                md4_block_data_order
                0x0000000040197cb9                MD4_Final
                0x0000000040197d86                MD4_Transform
                0x0000000040197d96                MD4_Update
                0x0000000040197ed8                MD5_Init
                0x0000000040197f1a                md5_block_data_order
                0x000000004019875a                MD5_Final
                0x0000000040198827                MD5_Transform
                0x0000000040198837                MD5_Update
                0x0000000040198978                MD5
                0x0000000040198a14                CRYPTO_set_mem_functions
                0x0000000040198a84                CRYPTO_set_mem_ex_functions
                0x0000000040198af4                CRYPTO_set_locked_mem_functions
                0x0000000040198b34                CRYPTO_set_locked_mem_ex_functions
                0x0000000040198b74                CRYPTO_set_mem_debug_functions
                0x0000000040198bad                CRYPTO_get_mem_functions
                0x0000000040198c02                CRYPTO_get_mem_ex_functions
                0x0000000040198c53                CRYPTO_get_locked_mem_functions
                0x0000000040198c88                CRYPTO_get_locked_mem_ex_functions
                0x0000000040198cbb                CRYPTO_get_mem_debug_functions
                0x0000000040198d0c                CRYPTO_malloc_locked
                0x0000000040198dc8                CRYPTO_free_locked
                0x0000000040198e0f                CRYPTO_malloc
                0x0000000040198ecb                CRYPTO_strdup
                0x0000000040198f1a                CRYPTO_realloc
                0x0000000040198fd5                CRYPTO_realloc_clean
                0x00000000401990b0                CRYPTO_free
                0x00000000401990f7                CRYPTO_remalloc
                0x0000000040199124                CRYPTO_set_mem_debug_options
                0x0000000040199138                CRYPTO_get_mem_debug_options
                0x0000000040199154                OPENSSL_cleanse
                0x00000000401995cc                CRYPTO_mem_ctrl
                0x0000000040199756                CRYPTO_is_mem_check_on
                0x00000000401997d2                CRYPTO_dbg_set_options
                0x00000000401997df                CRYPTO_dbg_get_options
                0x00000000401997ec                CRYPTO_push_info_
                0x00000000401998cb                CRYPTO_pop_info
                0x000000004019990d                CRYPTO_remove_all_info
                0x0000000040199950                CRYPTO_dbg_malloc
                0x0000000040199aef                CRYPTO_dbg_free
                0x0000000040199b64                CRYPTO_dbg_realloc
                0x0000000040199c04                CRYPTO_mem_leaks
                0x0000000040199d23                CRYPTO_mem_leaks_cb
                0x0000000040199dfe                EVP_add_cipher
                0x0000000040199e4a                EVP_add_digest
                0x0000000040199eeb                EVP_get_cipherbyname
                0x0000000040199efb                EVP_get_digestbyname
                0x0000000040199f0b                EVP_cleanup
                0x0000000040199f51                EVP_CIPHER_do_all
                0x0000000040199f76                EVP_CIPHER_do_all_sorted
                0x0000000040199f9b                EVP_MD_do_all
                0x0000000040199fc0                EVP_MD_do_all_sorted
                0x000000004019a0f4                OBJ_NAME_init
                0x000000004019a141                OBJ_NAME_new_index
                0x000000004019a2a9                OBJ_NAME_get
                0x000000004019a34c                OBJ_NAME_add
                0x000000004019a433                OBJ_NAME_remove
                0x000000004019a4de                OBJ_NAME_do_all
                0x000000004019a508                OBJ_NAME_do_all_sorted
                0x000000004019a5ab                OBJ_NAME_cleanup
                0x000000004019a87a                check_defer
                0x000000004019a89b                OBJ_cleanup
                0x000000004019a90d                OBJ_new_nid
                0x000000004019a921                OBJ_add_object
                0x000000004019aad3                OBJ_nid2obj
                0x000000004019ab8f                OBJ_nid2sn
                0x000000004019ac4e                OBJ_nid2ln
                0x000000004019ad0e                OBJ_bsearch_ex_
                0x000000004019ae07                OBJ_bsearch_
                0x000000004019ae18                OBJ_sn2nid
                0x000000004019ae94                OBJ_ln2nid
                0x000000004019af10                OBJ_txt2obj
                0x000000004019b018                OBJ_obj2nid
                0x000000004019b0a0                OBJ_txt2nid
                0x000000004019b0dd                OBJ_obj2txt
                0x000000004019b430                OBJ_create
                0x000000004019b535                OBJ_create_objects
                0x000000004019b688                ERR_load_OBJ_strings
                0x000000004019b6c0                OBJ_dup
                0x000000004019b89a                OBJ_cmp
                0x000000004019b8b8                ERR_load_OCSP_strings
                0x000000004019b8f0                DES_ede3_ofb64_encrypt
                0x000000004019bac0                DES_ofb64_encrypt
                0x000000004019bde1                EVP_PKEY_bits
                0x000000004019be05                EVP_PKEY_size
                0x000000004019be29                EVP_PKEY_save_parameters
                0x000000004019be5b                EVP_PKEY_missing_parameters
                0x000000004019be7a                EVP_PKEY_copy_parameters
                0x000000004019bf1a                EVP_PKEY_cmp_parameters
                0x000000004019bf50                EVP_PKEY_cmp
                0x000000004019bfab                EVP_PKEY_new
                0x000000004019c036                EVP_PKEY_set_type
                0x000000004019c04b                EVP_PKEY_set_type_str
                0x000000004019c060                EVP_PKEY_assign
                0x000000004019c09d                EVP_PKEY_get0
                0x000000004019c0a7                EVP_PKEY_set1_RSA
                0x000000004019c0e1                EVP_PKEY_get1_RSA
                0x000000004019c12c                EVP_PKEY_set1_DSA
                0x000000004019c166                EVP_PKEY_get1_DSA
                0x000000004019c1b1                EVP_PKEY_set1_EC_KEY
                0x000000004019c1eb                EVP_PKEY_get1_EC_KEY
                0x000000004019c239                EVP_PKEY_set1_DH
                0x000000004019c273                EVP_PKEY_get1_DH
                0x000000004019c2be                EVP_PKEY_type
                0x000000004019c2e1                EVP_PKEY_id
                0x000000004019c2e9                EVP_PKEY_base_id
                0x000000004019c2f6                EVP_PKEY_free
                0x000000004019c353                EVP_PKEY_print_public
                0x000000004019c379                EVP_PKEY_print_private
                0x000000004019c3a1                EVP_PKEY_print_params
                0x000000004019c3ca                EVP_PKEY_get_default_digest_nid
                0x000000004019c404                PEM_read_bio_X509_REQ
                0x000000004019c425                PEM_write_bio_X509_REQ
                0x000000004019c469                PEM_write_bio_X509_REQ_NEW
                0x000000004019c4ad                PEM_read_bio_X509_CRL
                0x000000004019c4ce                PEM_write_bio_X509_CRL
                0x000000004019c512                PEM_read_bio_PKCS7
                0x000000004019c533                PEM_write_bio_PKCS7
                0x000000004019c577                PEM_read_bio_NETSCAPE_CERT_SEQUENCE
                0x000000004019c598                PEM_write_bio_NETSCAPE_CERT_SEQUENCE
                0x000000004019c5dc                PEM_read_bio_RSAPrivateKey
                0x000000004019c645                PEM_write_bio_RSAPrivateKey
                0x000000004019c67c                PEM_read_bio_RSAPublicKey
                0x000000004019c69d                PEM_write_bio_RSAPublicKey
                0x000000004019c6e1                PEM_read_bio_RSA_PUBKEY
                0x000000004019c702                PEM_write_bio_RSA_PUBKEY
                0x000000004019c746                PEM_read_bio_DSAPrivateKey
                0x000000004019c7af                PEM_write_bio_DSAPrivateKey
                0x000000004019c7e6                PEM_read_bio_DSA_PUBKEY
                0x000000004019c807                PEM_write_bio_DSA_PUBKEY
                0x000000004019c84b                PEM_read_bio_DSAparams
                0x000000004019c86c                PEM_write_bio_DSAparams
                0x000000004019c8b0                PEM_read_bio_ECPrivateKey
                0x000000004019c919                PEM_read_bio_ECPKParameters
                0x000000004019c93a                PEM_write_bio_ECPKParameters
                0x000000004019c97e                PEM_write_bio_ECPrivateKey
                0x000000004019c9b5                PEM_read_bio_EC_PUBKEY
                0x000000004019c9d6                PEM_write_bio_EC_PUBKEY
                0x000000004019ca1a                PEM_read_bio_DHparams
                0x000000004019ca3b                PEM_write_bio_DHparams
                0x000000004019ca7f                PEM_read_bio_PUBKEY
                0x000000004019caa0                PEM_write_bio_PUBKEY
                0x000000004019cae4                ERR_load_PEM_strings
                0x000000004019cb20                PEM_def_callback
                0x000000004019cb4a                PEM_proc_type
                0x000000004019cbb2                PEM_dek_info
                0x000000004019cc71                PEM_do_header
                0x000000004019ce4a                PEM_get_EVP_CIPHER_INFO
                0x000000004019d0e9                PEM_write_bio
                0x000000004019d3b8                PEM_ASN1_write_bio
                0x000000004019d7d3                PEM_read_bio
                0x000000004019debc                pem_check_suffix
                0x000000004019df31                PEM_bytes_read_bio
                0x000000004019e27c                PEM_ASN1_read_bio
                0x000000004019e328                PEM_read_bio_PrivateKey
                0x000000004019e584                PEM_write_bio_PrivateKey
                0x000000004019e650                PEM_read_bio_Parameters
                0x000000004019e772                PEM_write_bio_Parameters
                0x000000004019e7f4                PEM_read_bio_X509
                0x000000004019e815                PEM_write_bio_X509
                0x000000004019e85c                ERR_load_PKCS12_strings
                0x000000004019e96a                d2i_PKCS7
                0x000000004019e97a                i2d_PKCS7
                0x000000004019e98a                PKCS7_new
                0x000000004019e99a                PKCS7_free
                0x000000004019e9aa                i2d_PKCS7_NDEF
                0x000000004019e9ba                PKCS7_dup
                0x000000004019e9cd                d2i_PKCS7_SIGNED
                0x000000004019e9dd                i2d_PKCS7_SIGNED
                0x000000004019e9ed                PKCS7_SIGNED_new
                0x000000004019e9fd                PKCS7_SIGNED_free
                0x000000004019ea0d                d2i_PKCS7_SIGNER_INFO
                0x000000004019ea1d                i2d_PKCS7_SIGNER_INFO
                0x000000004019ea2d                PKCS7_SIGNER_INFO_new
                0x000000004019ea3d                PKCS7_SIGNER_INFO_free
                0x000000004019ea4d                d2i_PKCS7_ISSUER_AND_SERIAL
                0x000000004019ea5d                i2d_PKCS7_ISSUER_AND_SERIAL
                0x000000004019ea6d                PKCS7_ISSUER_AND_SERIAL_new
                0x000000004019ea7d                PKCS7_ISSUER_AND_SERIAL_free
                0x000000004019ea8d                d2i_PKCS7_ENVELOPE
                0x000000004019ea9d                i2d_PKCS7_ENVELOPE
                0x000000004019eaad                PKCS7_ENVELOPE_new
                0x000000004019eabd                PKCS7_ENVELOPE_free
                0x000000004019eacd                d2i_PKCS7_RECIP_INFO
                0x000000004019eadd                i2d_PKCS7_RECIP_INFO
                0x000000004019eaed                PKCS7_RECIP_INFO_new
                0x000000004019eafd                PKCS7_RECIP_INFO_free
                0x000000004019eb0d                d2i_PKCS7_ENC_CONTENT
                0x000000004019eb1d                i2d_PKCS7_ENC_CONTENT
                0x000000004019eb2d                PKCS7_ENC_CONTENT_new
                0x000000004019eb3d                PKCS7_ENC_CONTENT_free
                0x000000004019eb4d                d2i_PKCS7_SIGN_ENVELOPE
                0x000000004019eb5d                i2d_PKCS7_SIGN_ENVELOPE
                0x000000004019eb6d                PKCS7_SIGN_ENVELOPE_new
                0x000000004019eb7d                PKCS7_SIGN_ENVELOPE_free
                0x000000004019eb8d                d2i_PKCS7_ENCRYPT
                0x000000004019eb9d                i2d_PKCS7_ENCRYPT
                0x000000004019ebad                PKCS7_ENCRYPT_new
                0x000000004019ebbd                PKCS7_ENCRYPT_free
                0x000000004019ebcd                d2i_PKCS7_DIGEST
                0x000000004019ebdd                i2d_PKCS7_DIGEST
                0x000000004019ebed                PKCS7_DIGEST_new
                0x000000004019ebfd                PKCS7_DIGEST_free
                0x000000004019ec0d                PKCS7_print_ctx
                0x000000004019f189                PKCS7_dataInit
                0x000000004019f85e                PKCS7_dataDecode
                0x000000004019ff05                PKCS7_SIGNER_INFO_sign
                0x00000000401a00ce                PKCS7_get_issuer_and_serial
                0x00000000401a013d                PKCS7_get_signed_attribute
                0x00000000401a014c                PKCS7_dataFinal
                0x00000000401a06fe                PKCS7_get_attribute
                0x00000000401a070d                PKCS7_digest_from_attributes
                0x00000000401a072d                PKCS7_signatureVerify
                0x00000000401a0a34                PKCS7_dataVerify
                0x00000000401a0bb2                PKCS7_set_signed_attributes
                0x00000000401a0c45                PKCS7_set_attributes
                0x00000000401a0cd8                PKCS7_add_signed_attribute
                0x00000000401a0ce7                PKCS7_add_attribute
                0x00000000401a0d00                PKCS7_ctrl
                0x00000000401a0e3c                PKCS7_set_content
                0x00000000401a0ecd                PKCS7_set_type
                0x00000000401a10de                PKCS7_content_new
                0x00000000401a114a                PKCS7_set0_type_other
                0x00000000401a117e                PKCS7_add_signer
                0x00000000401a12db                PKCS7_add_certificate
                0x00000000401a13bc                PKCS7_add_crl
                0x00000000401a149c                PKCS7_SIGNER_INFO_set
                0x00000000401a160c                PKCS7_add_signature
                0x00000000401a16e0                PKCS7_set_digest
                0x00000000401a17ac                PKCS7_get_signer_info
                0x00000000401a17f5                PKCS7_SIGNER_INFO_get0_algs
                0x00000000401a181f                PKCS7_RECIP_INFO_get0_alg
                0x00000000401a1831                PKCS7_add_recipient_info
                0x00000000401a18a0                PKCS7_RECIP_INFO_set
                0x00000000401a1a2b                PKCS7_add_recipient
                0x00000000401a1a90                PKCS7_cert_from_signer_info
                0x00000000401a1ae2                PKCS7_set_cipher
                0x00000000401a1b7c                PKCS7_stream
                0x00000000401a1c48                ERR_load_PKCS7_strings
                0x00000000401a1c80                ERR_load_RAND_strings
                0x00000000401a1cb8                DES_random_key
                0x00000000401a1d00                RAND_set_rand_method
                0x00000000401a1d12                RAND_get_rand_method
                0x00000000401a1d35                RAND_cleanup
                0x00000000401a1d5a                RAND_seed
                0x00000000401a1d92                RAND_add
                0x00000000401a1ddb                RAND_bytes
                0x00000000401a1e22                RAND_pseudo_bytes
                0x00000000401a1e69                RAND_status
                0x00000000401a1e8c                RC2_encrypt
                0x00000000401a1fea                RC2_decrypt
                0x00000000401a2150                RC2_cbc_encrypt
                0x00000000401a2778                RC2_ecb_encrypt
                0x00000000401a2840                RC2_set_key
                0x00000000401a2970                RC2_cfb64_encrypt
                0x00000000401a2b84                RC2_ofb64_encrypt
                0x00000000401a2d38                RC4
                0x00000000401a31d4                RC4_options
                0x00000000401a31df                RC4_set_key
                0x00000000401a32e4                RIPEMD160_Init
                0x00000000401a332d                ripemd160_block_data_order
                0x00000000401a4982                RIPEMD160_Final
                0x00000000401a4a57                RIPEMD160_Transform
                0x00000000401a4a67                RIPEMD160_Update
                0x00000000401a4bf2                d2i_RSAPrivateKey
                0x00000000401a4c02                i2d_RSAPrivateKey
                0x00000000401a4c12                d2i_RSAPublicKey
                0x00000000401a4c22                i2d_RSAPublicKey
                0x00000000401a4c32                RSAPublicKey_dup
                0x00000000401a4c45                RSAPrivateKey_dup
                0x00000000401a4c60                RSA_generate_key
                0x00000000401a4d20                ERR_load_RSA_strings
                0x00000000401a4d60                RSA_generate_key_ex
                0x00000000401a5330                RSA_set_default_method
                0x00000000401a533d                RSA_get_default_method
                0x00000000401a5360                RSA_get_method
                0x00000000401a536a                RSA_set_method
                0x00000000401a53b1                RSA_new_method
                0x00000000401a54fd                RSA_new
                0x00000000401a550d                RSA_free
                0x00000000401a561d                RSA_up_ref
                0x00000000401a564a                RSA_get_ex_new_index
                0x00000000401a5669                RSA_set_ex_data
                0x00000000401a5678                RSA_get_ex_data
                0x00000000401a5687                RSA_size
                0x00000000401a56a2                RSA_public_encrypt
                0x00000000401a56af                RSA_private_encrypt
                0x00000000401a56bc                RSA_private_decrypt
                0x00000000401a56c9                RSA_public_decrypt
                0x00000000401a56d6                RSA_flags
                0x00000000401a56ed                RSA_blinding_off
                0x00000000401a5727                RSA_setup_blinding
                0x00000000401a59d0                RSA_blinding_on
                0x00000000401a5a2e                RSA_memory_lock
                0x00000000401a5b80                RSA_sign
                0x00000000401a5de5                int_rsa_verify
                0x00000000401a617f                RSA_verify
                0x00000000401a61c0                DES_set_odd_parity
                0x00000000401a61e3                DES_check_key_parity
                0x00000000401a6224                DES_is_weak_key
                0x00000000401a6273                DES_set_key_unchecked
                0x00000000401a6517                DES_set_key_checked
                0x00000000401a6568                DES_set_key
                0x00000000401a658c                DES_key_sched
                0x00000000401a6598                SHA1
                0x00000000401a774b                SHA1_Update
                0x00000000401a788a                SHA1_Transform
                0x00000000401a789a                SHA1_Final
                0x00000000401a797d                SHA1_Init
                0x00000000401a91e0                SHA224_Init
                0x00000000401a9245                SHA256_Init
                0x00000000401a92aa                SHA256_Update
                0x00000000401a93e9                SHA224_Update
                0x00000000401a93f4                SHA256_Transform
                0x00000000401a9404                SHA256_Final
                0x00000000401a952e                SHA224_Final
                0x00000000401a9539                SHA256
                0x00000000401a95b4                SHA224
                0x00000000401aae25                SHA384_Init
                0x00000000401aaec3                SHA512_Init
                0x00000000401aaf61                SHA512_Final
                0x00000000401ab1c6                SHA384_Final
                0x00000000401ab1d1                SHA512_Update
                0x00000000401ab2e1                SHA384_Update
                0x00000000401ab2ec                SHA512_Transform
                0x00000000401ab2fc                SHA384
                0x00000000401ab377                SHA512
                0x00000000401ac3c7                SHA_Update
                0x00000000401ac506                SHA_Transform
                0x00000000401ac516                SHA_Final
                0x00000000401ac5f9                SHA_Init
                0x00000000401ac650                sk_set_cmp_func
                0x00000000401ac66a                sk_new
                0x00000000401ac707                sk_new_null
                0x00000000401ac717                sk_insert
                0x00000000401ac7d2                sk_delete
                0x00000000401ac82e                sk_delete_ptr
                0x00000000401ac874                sk_push
                0x00000000401ac881                sk_unshift
                0x00000000401ac891                sk_shift
                0x00000000401ac8b7                sk_pop
                0x00000000401ac8dc                sk_zero
                0x00000000401ac911                sk_free
                0x00000000401ac93f                sk_pop_free
                0x00000000401ac991                sk_dup
                0x00000000401aca17                sk_num
                0x00000000401aca2b                sk_value
                0x00000000401aca5a                sk_set
                0x00000000401aca8e                sk_sort
                0x00000000401acb6c                sk_find_ex
                0x00000000401acb7c                sk_find
                0x00000000401acb8c                sk_is_sorted
                0x00000000401ad032                ASN1_tag2bit
                0x00000000401ad04d                asn1_ex_c2i
                0x00000000401ad89d                ASN1_item_ex_d2i
                0x00000000401ae77a                ASN1_template_d2i
                0x00000000401ae797                ASN1_item_d2i
                0x00000000401ae841                asn1_ex_i2c
                0x00000000401aeb0a                ASN1_item_ex_i2d
                0x00000000401af369                ASN1_template_i2d
                0x00000000401af445                ASN1_item_i2d
                0x00000000401af455                ASN1_item_ndef_i2d
                0x00000000401af470                ASN1_primitive_free
                0x00000000401af796                ASN1_template_free
                0x00000000401af81a                ASN1_item_ex_free
                0x00000000401af82a                ASN1_item_free
                0x00000000401af912                ASN1_primitive_new
                0x00000000401afd3c                ASN1_template_new
                0x00000000401afdc9                ASN1_item_ex_new
                0x00000000401afdd9                ASN1_item_new
                0x00000000401afe08                d2i_ASN1_INTEGER
                0x00000000401afe18                i2d_ASN1_INTEGER
                0x00000000401afe28                ASN1_INTEGER_new
                0x00000000401afe38                ASN1_INTEGER_free
                0x00000000401afe48                d2i_ASN1_ENUMERATED
                0x00000000401afe58                i2d_ASN1_ENUMERATED
                0x00000000401afe68                ASN1_ENUMERATED_new
                0x00000000401afe78                ASN1_ENUMERATED_free
                0x00000000401afe88                d2i_ASN1_BIT_STRING
                0x00000000401afe98                i2d_ASN1_BIT_STRING
                0x00000000401afea8                ASN1_BIT_STRING_new
                0x00000000401afeb8                ASN1_BIT_STRING_free
                0x00000000401afec8                d2i_ASN1_OCTET_STRING
                0x00000000401afed8                i2d_ASN1_OCTET_STRING
                0x00000000401afee8                ASN1_OCTET_STRING_new
                0x00000000401afef8                ASN1_OCTET_STRING_free
                0x00000000401aff08                d2i_ASN1_NULL
                0x00000000401aff18                i2d_ASN1_NULL
                0x00000000401aff28                ASN1_NULL_new
                0x00000000401aff38                ASN1_NULL_free
                0x00000000401aff48                d2i_ASN1_UTF8STRING
                0x00000000401aff58                i2d_ASN1_UTF8STRING
                0x00000000401aff68                ASN1_UTF8STRING_new
                0x00000000401aff78                ASN1_UTF8STRING_free
                0x00000000401aff88                d2i_ASN1_PRINTABLESTRING
                0x00000000401aff98                i2d_ASN1_PRINTABLESTRING
                0x00000000401affa8                ASN1_PRINTABLESTRING_new
                0x00000000401affb8                ASN1_PRINTABLESTRING_free
                0x00000000401affc8                d2i_ASN1_T61STRING
                0x00000000401affd8                i2d_ASN1_T61STRING
                0x00000000401affe8                ASN1_T61STRING_new
                0x00000000401afff8                ASN1_T61STRING_free
                0x00000000401b0008                d2i_ASN1_IA5STRING
                0x00000000401b0018                i2d_ASN1_IA5STRING
                0x00000000401b0028                ASN1_IA5STRING_new
                0x00000000401b0038                ASN1_IA5STRING_free
                0x00000000401b0048                d2i_ASN1_GENERALSTRING
                0x00000000401b0058                i2d_ASN1_GENERALSTRING
                0x00000000401b0068                ASN1_GENERALSTRING_new
                0x00000000401b0078                ASN1_GENERALSTRING_free
                0x00000000401b0088                d2i_ASN1_UTCTIME
                0x00000000401b0098                i2d_ASN1_UTCTIME
                0x00000000401b00a8                ASN1_UTCTIME_new
                0x00000000401b00b8                ASN1_UTCTIME_free
                0x00000000401b00c8                d2i_ASN1_GENERALIZEDTIME
                0x00000000401b00d8                i2d_ASN1_GENERALIZEDTIME
                0x00000000401b00e8                ASN1_GENERALIZEDTIME_new
                0x00000000401b00f8                ASN1_GENERALIZEDTIME_free
                0x00000000401b0108                d2i_ASN1_VISIBLESTRING
                0x00000000401b0118                i2d_ASN1_VISIBLESTRING
                0x00000000401b0128                ASN1_VISIBLESTRING_new
                0x00000000401b0138                ASN1_VISIBLESTRING_free
                0x00000000401b0148                d2i_ASN1_UNIVERSALSTRING
                0x00000000401b0158                i2d_ASN1_UNIVERSALSTRING
                0x00000000401b0168                ASN1_UNIVERSALSTRING_new
                0x00000000401b0178                ASN1_UNIVERSALSTRING_free
                0x00000000401b0188                d2i_ASN1_BMPSTRING
                0x00000000401b0198                i2d_ASN1_BMPSTRING
                0x00000000401b01a8                ASN1_BMPSTRING_new
                0x00000000401b01b8                ASN1_BMPSTRING_free
                0x00000000401b01c8                d2i_ASN1_TYPE
                0x00000000401b01d8                i2d_ASN1_TYPE
                0x00000000401b01e8                ASN1_TYPE_new
                0x00000000401b01f8                ASN1_TYPE_free
                0x00000000401b0208                d2i_ASN1_PRINTABLE
                0x00000000401b0218                i2d_ASN1_PRINTABLE
                0x00000000401b0228                ASN1_PRINTABLE_new
                0x00000000401b0238                ASN1_PRINTABLE_free
                0x00000000401b0248                d2i_DISPLAYTEXT
                0x00000000401b0258                i2d_DISPLAYTEXT
                0x00000000401b0268                DISPLAYTEXT_new
                0x00000000401b0278                DISPLAYTEXT_free
                0x00000000401b0288                d2i_DIRECTORYSTRING
                0x00000000401b0298                i2d_DIRECTORYSTRING
                0x00000000401b02a8                DIRECTORYSTRING_new
                0x00000000401b02b8                DIRECTORYSTRING_free
                0x00000000401b02c8                d2i_ASN1_SEQUENCE_ANY
                0x00000000401b02d8                i2d_ASN1_SEQUENCE_ANY
                0x00000000401b02e8                d2i_ASN1_SET_ANY
                0x00000000401b02f8                i2d_ASN1_SET_ANY
                0x00000000401b0353                asn1_get_choice_selector
                0x00000000401b0363                asn1_set_choice_selector
                0x00000000401b0377                asn1_do_lock
                0x00000000401b03d1                asn1_enc_init
                0x00000000401b03f7                asn1_enc_free
                0x00000000401b0437                asn1_enc_save
                0x00000000401b04c1                asn1_enc_restore
                0x00000000401b053b                asn1_get_field_ptr
                0x00000000401b0553                asn1_do_adb
                0x00000000401b0610                ERR_load_UI_strings
                0x00000000401b0648                ERR_load_X509V3_strings
                0x00000000401b0680                X509_issuer_and_serial_hash
                0x00000000401b074f                X509_CRL_match
                0x00000000401b0767                X509_get_issuer_name
                0x00000000401b0774                X509_get_subject_name
                0x00000000401b0781                X509_get_serialNumber
                0x00000000401b078e                X509_cmp
                0x00000000401b07e8                X509_NAME_cmp
                0x00000000401b0861                X509_CRL_cmp
                0x00000000401b087a                X509_subject_name_cmp
                0x00000000401b0893                X509_issuer_name_cmp
                0x00000000401b08ac                X509_issuer_and_serial_cmp
                0x00000000401b08ec                X509_NAME_hash
                0x00000000401b0952                X509_subject_name_hash
                0x00000000401b0964                X509_issuer_name_hash
                0x00000000401b0976                X509_NAME_hash_old
                0x00000000401b09df                X509_subject_name_hash_old
                0x00000000401b09f1                X509_issuer_name_hash_old
                0x00000000401b0a03                X509_find_by_issuer_and_serial
                0x00000000401b0a86                X509_find_by_subject
                0x00000000401b0ae3                X509_get_pubkey
                0x00000000401b0b0b                X509_get0_pubkey_bitstr
                0x00000000401b0b28                X509_check_private_key
                0x00000000401b0be4                ERR_load_X509_strings
                0x00000000401b0c1c                X509_NAME_oneline
                0x00000000401b145a                X509_time_adj_ex
                0x00000000401b14a7                X509_time_adj
                0x00000000401b14bd                X509_gmtime_adj
                0x00000000401b14cd                X509_cmp_time
                0x00000000401b2592                X509_cmp_current_time
                0x00000000401b25a2                X509_get_pubkey_parameters
                0x00000000401b26ce                X509_verify_cert
                0x00000000401b3061                X509_STORE_CTX_get_ex_new_index
                0x00000000401b3080                X509_STORE_CTX_set_ex_data
                0x00000000401b3092                X509_STORE_CTX_get_ex_data
                0x00000000401b30a4                X509_STORE_CTX_get_error
                0x00000000401b30b0                X509_STORE_CTX_set_error
                0x00000000401b30bc                X509_STORE_CTX_get_error_depth
                0x00000000401b30c8                X509_STORE_CTX_get_current_cert
                0x00000000401b30d5                X509_STORE_CTX_get_chain
                0x00000000401b30e2                X509_STORE_CTX_get1_chain
                0x00000000401b314e                X509_STORE_CTX_get0_current_issuer
                0x00000000401b315b                X509_STORE_CTX_get0_current_crl
                0x00000000401b3168                X509_STORE_CTX_get0_parent_ctx
                0x00000000401b3175                X509_STORE_CTX_set_cert
                0x00000000401b317f                X509_STORE_CTX_set_chain
                0x00000000401b3189                X509_STORE_CTX_set0_crls
                0x00000000401b3193                X509_STORE_CTX_purpose_inherit
                0x00000000401b32c0                X509_STORE_CTX_set_trust
                0x00000000401b32d7                X509_STORE_CTX_set_purpose
                0x00000000401b32ee                X509_STORE_CTX_new
                0x00000000401b3350                X509_STORE_CTX_init
                0x00000000401b36af                X509_STORE_CTX_trusted_stack
                0x00000000401b36c1                X509_STORE_CTX_cleanup
                0x00000000401b3764                X509_STORE_CTX_free
                0x00000000401b3784                X509_STORE_CTX_set_depth
                0x00000000401b3793                X509_STORE_CTX_set_flags
                0x00000000401b37a2                X509_STORE_CTX_set_time
                0x00000000401b37b3                X509_STORE_CTX_set_verify_cb
                0x00000000401b37bd                X509_STORE_CTX_get0_policy_tree
                0x00000000401b37ca                X509_STORE_CTX_get_explicit_policy
                0x00000000401b37d6                X509_STORE_CTX_set_default
                0x00000000401b3807                X509_STORE_CTX_get0_param
                0x00000000401b3811                X509_STORE_CTX_set0_param
                0x00000000401b3c07                X509_VERIFY_PARAM_free
                0x00000000401b3c27                X509_VERIFY_PARAM_new
                0x00000000401b3c6b                X509_VERIFY_PARAM_set1_name
                0x00000000401b3cac                X509_VERIFY_PARAM_set_flags
                0x00000000401b3cd0                X509_VERIFY_PARAM_clear_flags
                0x00000000401b3ce2                X509_VERIFY_PARAM_get_flags
                0x00000000401b3cec                X509_VERIFY_PARAM_set_purpose
                0x00000000401b3cfb                X509_VERIFY_PARAM_set_trust
                0x00000000401b3d0a                X509_VERIFY_PARAM_set_depth
                0x00000000401b3d13                X509_VERIFY_PARAM_set_time
                0x00000000401b3d21                X509_VERIFY_PARAM_add0_policy
                0x00000000401b3d72                X509_VERIFY_PARAM_set1_policies
                0x00000000401b3e39                X509_VERIFY_PARAM_inherit
                0x00000000401b3f4f                X509_VERIFY_PARAM_set1
                0x00000000401b3f84                X509_VERIFY_PARAM_get_depth
                0x00000000401b3f8d                X509_VERIFY_PARAM_add0_table
                0x00000000401b4014                X509_VERIFY_PARAM_lookup
                0x00000000401b406a                X509_VERIFY_PARAM_table_cleanup
                0x00000000401b4094                d2i_X509_ALGOR
                0x00000000401b40a4                i2d_X509_ALGOR
                0x00000000401b40b4                X509_ALGOR_new
                0x00000000401b40c4                X509_ALGOR_free
                0x00000000401b40d4                d2i_X509_ALGORS
                0x00000000401b40e4                i2d_X509_ALGORS
                0x00000000401b40f4                X509_ALGOR_dup
                0x00000000401b4107                X509_ALGOR_set0
                0x00000000401b41b9                X509_ALGOR_get0
                0x00000000401b41f4                X509_verify
                0x00000000401b4215                X509_REQ_verify
                0x00000000401b4236                NETSCAPE_SPKI_verify
                0x00000000401b4257                X509_sign
                0x00000000401b4291                X509_REQ_sign
                0x00000000401b42bf                X509_CRL_sign
                0x00000000401b42f9                NETSCAPE_SPKI_sign
                0x00000000401b4327                d2i_X509_bio
                0x00000000401b433d                i2d_X509_bio
                0x00000000401b4353                d2i_X509_CRL_bio
                0x00000000401b4369                i2d_X509_CRL_bio
                0x00000000401b437f                d2i_PKCS7_bio
                0x00000000401b4395                i2d_PKCS7_bio
                0x00000000401b43ab                d2i_X509_REQ_bio
                0x00000000401b43c1                i2d_X509_REQ_bio
                0x00000000401b43d7                d2i_RSAPrivateKey_bio
                0x00000000401b43ed                i2d_RSAPrivateKey_bio
                0x00000000401b4403                d2i_RSAPublicKey_bio
                0x00000000401b4419                d2i_RSA_PUBKEY_bio
                0x00000000401b4434                i2d_RSAPublicKey_bio
                0x00000000401b444a                i2d_RSA_PUBKEY_bio
                0x00000000401b4460                d2i_DSAPrivateKey_bio
                0x00000000401b447b                i2d_DSAPrivateKey_bio
                0x00000000401b4491                d2i_DSA_PUBKEY_bio
                0x00000000401b44ac                i2d_DSA_PUBKEY_bio
                0x00000000401b44c2                d2i_EC_PUBKEY_bio
                0x00000000401b44dd                i2d_EC_PUBKEY_bio
                0x00000000401b44f3                d2i_ECPrivateKey_bio
                0x00000000401b450e                i2d_ECPrivateKey_bio
                0x00000000401b4524                X509_pubkey_digest
                0x00000000401b457c                X509_digest
                0x00000000401b4595                X509_CRL_digest
                0x00000000401b45ae                X509_REQ_digest
                0x00000000401b45c7                X509_NAME_digest
                0x00000000401b45e0                PKCS7_ISSUER_AND_SERIAL_digest
                0x00000000401b45f9                d2i_PKCS8_bio
                0x00000000401b4614                i2d_PKCS8_bio
                0x00000000401b462a                d2i_PKCS8_PRIV_KEY_INFO_bio
                0x00000000401b4645                i2d_PKCS8_PRIV_KEY_INFO_bio
                0x00000000401b465b                i2d_PKCS8PrivateKeyInfo_bio
                0x00000000401b46af                i2d_PrivateKey_bio
                0x00000000401b46c5                d2i_PrivateKey_bio
                0x00000000401b46e0                i2d_PUBKEY_bio
                0x00000000401b46f6                d2i_PUBKEY_bio
                0x00000000401b4714                d2i_X509_ATTRIBUTE
                0x00000000401b4724                i2d_X509_ATTRIBUTE
                0x00000000401b4734                X509_ATTRIBUTE_new
                0x00000000401b4744                X509_ATTRIBUTE_free
                0x00000000401b4754                X509_ATTRIBUTE_dup
                0x00000000401b4767                X509_ATTRIBUTE_create
                0x00000000401b4f9e                d2i_X509_REVOKED
                0x00000000401b4fae                i2d_X509_REVOKED
                0x00000000401b4fbe                X509_REVOKED_new
                0x00000000401b4fce                X509_REVOKED_free
                0x00000000401b4fde                d2i_X509_CRL_INFO
                0x00000000401b4fee                i2d_X509_CRL_INFO
                0x00000000401b4ffe                X509_CRL_INFO_new
                0x00000000401b500e                X509_CRL_INFO_free
                0x00000000401b501e                d2i_X509_CRL
                0x00000000401b502e                i2d_X509_CRL
                0x00000000401b503e                X509_CRL_new
                0x00000000401b504e                X509_CRL_free
                0x00000000401b505e                X509_CRL_dup
                0x00000000401b5071                X509_CRL_add0_revoked
                0x00000000401b50f2                X509_CRL_verify
                0x00000000401b510c                X509_CRL_get0_by_serial
                0x00000000401b512c                X509_CRL_get0_by_cert
                0x00000000401b519b                X509_CRL_set_default_method
                0x00000000401b51b4                X509_CRL_METHOD_new
                0x00000000401b5219                X509_CRL_METHOD_free
                0x00000000401b5229                X509_CRL_set_meth_data
                0x00000000401b5233                X509_CRL_get_meth_data
                0x00000000401b5240                d2i_X509_EXTENSION
                0x00000000401b5250                i2d_X509_EXTENSION
                0x00000000401b5260                X509_EXTENSION_new
                0x00000000401b5270                X509_EXTENSION_free
                0x00000000401b5280                d2i_X509_EXTENSIONS
                0x00000000401b5290                i2d_X509_EXTENSIONS
                0x00000000401b52a0                X509_EXTENSION_dup
                0x00000000401b563d                X509_NAME_ENTRY_free
                0x00000000401b564d                d2i_X509_NAME_ENTRY
                0x00000000401b565d                i2d_X509_NAME_ENTRY
                0x00000000401b566d                X509_NAME_ENTRY_new
                0x00000000401b5b9c                X509_NAME_ENTRY_dup
                0x00000000401b5baf                d2i_X509_NAME
                0x00000000401b5bbf                i2d_X509_NAME
                0x00000000401b5bcf                X509_NAME_new
                0x00000000401b5bdf                X509_NAME_free
                0x00000000401b5d91                X509_NAME_dup
                0x00000000401b5da4                X509_NAME_set
                0x00000000401b5e1c                d2i_X509_PUBKEY
                0x00000000401b5e2c                i2d_X509_PUBKEY
                0x00000000401b5e3c                X509_PUBKEY_new
                0x00000000401b5e4c                X509_PUBKEY_free
                0x00000000401b5e5c                X509_PUBKEY_set
                0x00000000401b5f4d                X509_PUBKEY_get
                0x00000000401b60ac                d2i_PUBKEY
                0x00000000401b6115                i2d_PUBKEY
                0x00000000401b616d                d2i_RSA_PUBKEY
                0x00000000401b61f2                i2d_RSA_PUBKEY
                0x00000000401b627f                d2i_DSA_PUBKEY
                0x00000000401b6304                i2d_DSA_PUBKEY
                0x00000000401b6391                d2i_EC_PUBKEY
                0x00000000401b6416                i2d_EC_PUBKEY
                0x00000000401b64a3                X509_PUBKEY_set0_param
                0x00000000401b6520                X509_PUBKEY_get0_param
                0x00000000401b658b                d2i_X509_REQ_INFO
                0x00000000401b659b                i2d_X509_REQ_INFO
                0x00000000401b65ab                X509_REQ_INFO_new
                0x00000000401b65bb                X509_REQ_INFO_free
                0x00000000401b65cb                d2i_X509_REQ
                0x00000000401b65db                i2d_X509_REQ
                0x00000000401b65eb                X509_REQ_new
                0x00000000401b65fb                X509_REQ_free
                0x00000000401b660b                X509_REQ_dup
                0x00000000401b6620                d2i_X509_SIG
                0x00000000401b6630                i2d_X509_SIG
                0x00000000401b6640                X509_SIG_new
                0x00000000401b6650                X509_SIG_free
                0x00000000401b6660                d2i_NETSCAPE_SPKAC
                0x00000000401b6670                i2d_NETSCAPE_SPKAC
                0x00000000401b6680                NETSCAPE_SPKAC_new
                0x00000000401b6690                NETSCAPE_SPKAC_free
                0x00000000401b66a0                d2i_NETSCAPE_SPKI
                0x00000000401b66b0                i2d_NETSCAPE_SPKI
                0x00000000401b66c0                NETSCAPE_SPKI_new
                0x00000000401b66d0                NETSCAPE_SPKI_free
                0x00000000401b67fc                d2i_X509_CINF
                0x00000000401b680c                i2d_X509_CINF
                0x00000000401b681c                X509_CINF_new
                0x00000000401b682c                X509_CINF_free
                0x00000000401b683c                d2i_X509
                0x00000000401b684c                i2d_X509
                0x00000000401b685c                X509_new
                0x00000000401b686c                X509_free
                0x00000000401b687c                X509_dup
                0x00000000401b688f                X509_get_ex_new_index
                0x00000000401b68ae                X509_set_ex_data
                0x00000000401b68bd                X509_get_ex_data
                0x00000000401b68cc                d2i_X509_AUX
                0x00000000401b693c                i2d_X509_AUX
                0x00000000401b6988                d2i_X509_CERT_AUX
                0x00000000401b6998                i2d_X509_CERT_AUX
                0x00000000401b69a8                X509_CERT_AUX_new
                0x00000000401b6a00                X509_CERT_AUX_free
                0x00000000401b6a10                X509_alias_set1
                0x00000000401b6ab8                X509_keyid_set1
                0x00000000401b6b60                X509_alias_get0
                0x00000000401b6ba1                X509_keyid_get0
                0x00000000401b6be2                X509_add1_trust_object
                0x00000000401b6c4f                X509_add1_reject_object
                0x00000000401b6cb1                X509_trust_clear
                0x00000000401b6cf0                X509_reject_clear
                0x00000000401b6d31                d2i_X509_CERT_PAIR
                0x00000000401b6d41                i2d_X509_CERT_PAIR
                0x00000000401b6d51                X509_CERT_PAIR_new
                0x00000000401b6d61                X509_CERT_PAIR_free
                0x00000000401b6d74                DES_xcbc_encrypt
                0x00000000401b74ec                ERR_load_TS_strings
                0x00000000401b7524                ERR_load_CMS_strings
                0x00000000401b75a6                OBJ_find_sigid_algs
                0x00000000401b762e                OBJ_find_sigid_by_algs
                0x00000000401b76b6                OBJ_add_sigid
                0x00000000401b77c4                OBJ_sigid_free
                0x00000000401b783b                EVP_whirlpool
                0x00000000401b786b                EVP_PKEY_meth_find
                0x00000000401b78e4                EVP_PKEY_meth_new
                0x00000000401b7a02                EVP_PKEY_meth_free
                0x00000000401b7a18                EVP_PKEY_meth_add0
                0x00000000401b7a7b                EVP_PKEY_CTX_free
                0x00000000401b7aca                EVP_PKEY_CTX_dup
                0x00000000401b7d00                EVP_PKEY_CTX_new_id
                0x00000000401b7d12                EVP_PKEY_CTX_new
                0x00000000401b7d22                EVP_PKEY_CTX_ctrl
                0x00000000401b7e1a                EVP_PKEY_CTX_ctrl_str
                0x00000000401b7eff                EVP_PKEY_CTX_get_operation
                0x00000000401b7f08                EVP_PKEY_CTX_set0_keygen_info
                0x00000000401b7f15                EVP_PKEY_CTX_set_data
                0x00000000401b7f1f                EVP_PKEY_CTX_get_data
                0x00000000401b7f29                EVP_PKEY_CTX_get0_pkey
                0x00000000401b7f33                EVP_PKEY_CTX_get0_peerkey
                0x00000000401b7f3d                EVP_PKEY_CTX_set_app_data
                0x00000000401b7f47                EVP_PKEY_CTX_get_app_data
                0x00000000401b7f51                EVP_PKEY_meth_set_init
                0x00000000401b7f5b                EVP_PKEY_meth_set_copy
                0x00000000401b7f65                EVP_PKEY_meth_set_cleanup
                0x00000000401b7f6f                EVP_PKEY_meth_set_paramgen
                0x00000000401b7f7d                EVP_PKEY_meth_set_keygen
                0x00000000401b7f8b                EVP_PKEY_meth_set_sign
                0x00000000401b7f99                EVP_PKEY_meth_set_verify
                0x00000000401b7fa7                EVP_PKEY_meth_set_verify_recover
                0x00000000401b7fb5                EVP_PKEY_meth_set_signctx
                0x00000000401b7fc3                EVP_PKEY_meth_set_verifyctx
                0x00000000401b7fd7                EVP_PKEY_meth_set_encrypt
                0x00000000401b7feb                EVP_PKEY_meth_set_decrypt
                0x00000000401b7fff                EVP_PKEY_meth_set_derive
                0x00000000401b8013                EVP_PKEY_meth_set_ctrl
                0x00000000401b8043                EVP_PKEY_asn1_get_count
                0x00000000401b8062                EVP_PKEY_asn1_get0
                0x00000000401b8092                EVP_PKEY_asn1_find
                0x00000000401b8135                EVP_PKEY_asn1_find_str
                0x00000000401b81bc                EVP_PKEY_asn1_add0
                0x00000000401b821f                EVP_PKEY_asn1_get0_info
                0x00000000401b8271                EVP_PKEY_get0_asn1
                0x00000000401b827b                EVP_PKEY_asn1_copy
                0x00000000401b8343                EVP_PKEY_asn1_free
                0x00000000401b8385                EVP_PKEY_asn1_new
                0x00000000401b84fa                EVP_PKEY_asn1_add_alias
                0x00000000401b8537                EVP_PKEY_asn1_set_public
                0x00000000401b8559                EVP_PKEY_asn1_set_private
                0x00000000401b856b                EVP_PKEY_asn1_set_param
                0x00000000401b8596                EVP_PKEY_asn1_set_free
                0x00000000401b85a3                EVP_PKEY_asn1_set_ctrl
                0x00000000401b85b0                EVP_PKEY_sign_init
                0x00000000401b861f                EVP_PKEY_sign
                0x00000000401b872b                EVP_PKEY_verify_init
                0x00000000401b879a                EVP_PKEY_verify
                0x00000000401b880a                EVP_PKEY_verify_recover_init
                0x00000000401b8879                EVP_PKEY_verify_recover
                0x00000000401b8985                EVP_PKEY_encrypt_init
                0x00000000401b89fa                EVP_PKEY_encrypt
                0x00000000401b8b0f                EVP_PKEY_decrypt_init
                0x00000000401b8b84                EVP_PKEY_decrypt
                0x00000000401b8c99                EVP_PKEY_derive_init
                0x00000000401b8d0e                EVP_PKEY_derive_set_peer
                0x00000000401b8ef0                EVP_PKEY_derive
                0x00000000401b9106                ASN1_PCTX_new
                0x00000000401b917d                ASN1_PCTX_free
                0x00000000401b9188                ASN1_PCTX_get_flags
                0x00000000401b9191                ASN1_PCTX_set_flags
                0x00000000401b919a                ASN1_PCTX_get_nm_flags
                0x00000000401b91a4                ASN1_PCTX_set_nm_flags
                0x00000000401b91ae                ASN1_PCTX_get_cert_flags
                0x00000000401b91b8                ASN1_PCTX_set_cert_flags
                0x00000000401b91c2                ASN1_PCTX_get_oid_flags
                0x00000000401b91cc                ASN1_PCTX_set_oid_flags
                0x00000000401b91d6                ASN1_PCTX_get_str_flags
                0x00000000401b91e0                ASN1_PCTX_set_str_flags
                0x00000000401b91ea                asn1_template_print_ctx
                0x00000000401b9b25                ASN1_item_print
                0x00000000401b9cff                EVP_DigestSignInit
                0x00000000401b9d10                EVP_DigestVerifyInit
                0x00000000401b9d21                EVP_DigestSignFinal
                0x00000000401b9e60                EVP_DigestVerifyFinal
                0x00000000401b9f40                WHIRLPOOL_Init
                0x00000000401b9f5a                WHIRLPOOL_BitUpdate
                0x00000000401ba263                WHIRLPOOL_Update
                0x00000000401ba31f                WHIRLPOOL_Final
                0x00000000401ba426                WHIRLPOOL
                0x00000000401bd839                DHparams_print
                0x00000000401bf81c                whirlpool_block
                0x00000000401c03a9                EVP_PKEY_paramgen_init
                0x00000000401c0418                EVP_PKEY_paramgen
                0x00000000401c04d1                EVP_PKEY_keygen_init
                0x00000000401c0540                EVP_PKEY_keygen
                0x00000000401c05f9                EVP_PKEY_CTX_set_cb
                0x00000000401c0603                EVP_PKEY_CTX_get_cb
                0x00000000401c060d                evp_pkey_set_cb_translate
                0x00000000401c0625                EVP_PKEY_CTX_get_keygen_info
                0x00000000401c064d                EVP_PKEY_new_mac_key
                0x00000000401c07dc                CMS_SignedData_init
                0x00000000401c07f0                cms_set1_SignerIdentifier
                0x00000000401c0910                cms_SignerIdentifier_get0_signer_id
                0x00000000401c0967                cms_SignerIdentifier_cert_cmp
                0x00000000401c09e4                CMS_get0_SignerInfos
                0x00000000401c09ff                CMS_get0_signers
                0x00000000401c0a84                CMS_SignerInfo_set1_signer_cert
                0x00000000401c0ae5                CMS_SignerInfo_get0_signer_id
                0x00000000401c0af4                CMS_SignerInfo_cert_cmp
                0x00000000401c0b03                CMS_set1_signers_certs
                0x00000000401c0c35                CMS_SignerInfo_get0_algs
                0x00000000401c0c6b                CMS_SignerInfo_sign
                0x00000000401c0ebf                cms_SignedData_final
                0x00000000401c10e0                CMS_SignerInfo_verify
                0x00000000401c120d                cms_SignedData_init_bio
                0x00000000401c13da                CMS_SignerInfo_verify_content
                0x00000000401c158e                CMS_add_smimecap
                0x00000000401c15ee                CMS_add_simple_smimecap
                0x00000000401c1736                CMS_add_standard_smimecap
                0x00000000401c1873                CMS_add1_signer
                0x00000000401c1dd4                CMS_get0_RecipientInfos
                0x00000000401c1def                CMS_RecipientInfo_type
                0x00000000401c1df7                CMS_EnvelopedData_create
                0x00000000401c1f02                CMS_add1_recipient_cert
                0x00000000401c20e6                CMS_RecipientInfo_ktri_get0_algs
                0x00000000401c2149                CMS_RecipientInfo_ktri_get0_signer_id
                0x00000000401c2187                CMS_RecipientInfo_ktri_cert_cmp
                0x00000000401c21c5                CMS_RecipientInfo_set0_pkey
                0x00000000401c2203                CMS_RecipientInfo_kekri_id_cmp
                0x00000000401c2262                CMS_add0_recipient_key
                0x00000000401c24b1                CMS_RecipientInfo_kekri_get0_id
                0x00000000401c2557                CMS_RecipientInfo_set0_key
                0x00000000401c2599                CMS_RecipientInfo_decrypt
                0x00000000401c296f                cms_EnvelopedData_init_bio
                0x00000000401c2dec                EC_KEY_print
                0x00000000401c2e67                ECParameters_print
                0x00000000401c2ed9                ECPKParameters_print
                0x00000000401c3afc                CMS_signed_get_attr_count
                0x00000000401c3b0b                CMS_signed_get_attr_by_NID
                0x00000000401c3b1a                CMS_signed_get_attr_by_OBJ
                0x00000000401c3b29                CMS_signed_get_attr
                0x00000000401c3b38                CMS_signed_delete_attr
                0x00000000401c3b47                CMS_signed_add1_attr
                0x00000000401c3b5f                CMS_signed_add1_attr_by_OBJ
                0x00000000401c3b77                CMS_signed_add1_attr_by_NID
                0x00000000401c3b8f                CMS_signed_add1_attr_by_txt
                0x00000000401c3ba7                CMS_signed_get0_data_by_OBJ
                0x00000000401c3bb6                CMS_unsigned_get_attr_count
                0x00000000401c3bc5                CMS_unsigned_get_attr_by_NID
                0x00000000401c3bd4                CMS_unsigned_get_attr_by_OBJ
                0x00000000401c3be3                CMS_unsigned_get_attr
                0x00000000401c3bf2                CMS_unsigned_delete_attr
                0x00000000401c3c01                CMS_unsigned_add1_attr
                0x00000000401c3c19                CMS_unsigned_add1_attr_by_OBJ
                0x00000000401c3c31                CMS_unsigned_add1_attr_by_NID
                0x00000000401c3c49                CMS_unsigned_add1_attr_by_txt
                0x00000000401c3c61                CMS_unsigned_get0_data_by_OBJ
                0x00000000401c3dde                d2i_CMS_ContentInfo
                0x00000000401c3dee                i2d_CMS_ContentInfo
                0x00000000401c3dfe                CMS_ContentInfo_new
                0x00000000401c3e0e                CMS_ContentInfo_free
                0x00000000401c3e1e                CMS_ContentInfo_print_ctx
                0x00000000401c3e31                CMS_get0_type
                0x00000000401c3e3a                CMS_get0_content
                0x00000000401c3f15                CMS_dataFinal
                0x00000000401c4089                cms_content_bio
                0x00000000401c40d9                CMS_dataInit
                0x00000000401c41da                CMS_get0_eContentType
                0x00000000401c41f4                CMS_set1_eContentType
                0x00000000401c424f                CMS_is_detached
                0x00000000401c4270                CMS_set_detached
                0x00000000401c4306                cms_Data_create
                0x00000000401c4340                cms_DigestAlgorithm_set
                0x00000000401c4391                cms_DigestAlgorithm_init_bio
                0x00000000401c4464                cms_DigestAlgorithm_find_ctx
                0x00000000401c4544                CMS_add0_CertificateChoices
                0x00000000401c45b5                CMS_add0_cert
                0x00000000401c465e                CMS_add1_cert
                0x00000000401c46a7                CMS_add0_RevocationInfoChoice
                0x00000000401c4718                CMS_add0_crl
                0x00000000401c4749                CMS_add1_crl
                0x00000000401c4792                CMS_get1_certs
                0x00000000401c484f                CMS_get1_crls
                0x00000000401c4a40                cms_EncryptedContent_init_bio
                0x00000000401c4e26                cms_EncryptedContent_init
                0x00000000401c4eb2                CMS_EncryptedData_set1_key
                0x00000000401c4fbc                cms_EncryptedData_init_bio
                0x00000000401c4fe8                AES_wrap_key
                0x00000000401c511f                AES_unwrap_key
                0x00000000401c5280                cms_DigestedData_create
                0x00000000401c5317                cms_DigestedData_init_bio
                0x00000000401c532a                cms_DigestedData_do_final
                0x00000000401c5448                CMS_stream
                0x00000000401c54c4                d2i_CMS_bio
                0x00000000401c54da                i2d_CMS_bio
                0x00000000401c54f0                PEM_read_bio_CMS
                0x00000000401c5511                PEM_write_bio_CMS
                0x00000000401c5555                BIO_new_CMS
                0x00000000401c5565                i2d_CMS_bio_stream
                0x00000000401c5576                PEM_write_bio_CMS_stream
                0x00000000401c558d                SMIME_write_CMS
                0x00000000401c561d                SMIME_read_CMS
                0x00000000401c5f5b                SMIME_read_ASN1
                0x00000000401c6380                SMIME_crlf_copy
                0x00000000401c64ab                i2d_ASN1_bio_stream
                0x00000000401c6643                SMIME_write_ASN1
                0x00000000401c6cd0                PEM_write_bio_ASN1_stream
                0x00000000401c6d57                SMIME_text
                0x00000000401c70a5                BIO_new_NDEF
                0x00000000401c78c1                BIO_f_asn1
                0x00000000401c78cc                BIO_asn1_set_prefix
                0x00000000401c78e2                BIO_asn1_get_prefix
                0x00000000401c78f8                BIO_asn1_set_suffix
                0x00000000401c790e                BIO_asn1_get_suffix
                0x00000000401c7930                chelp_snprintf
                0x00000000401c796d                chelp_sprintf
                0x00000000401c79b4                chelp_print
                0x00000000401c79cc                chelp_printf
                0x00000000401c7a34                chelp_mod_64_32_32
                0x00000000401c7a49                chelp_div_64_32_64
                0x00000000401c7a5c                chelp_div_64_32_32
                0x00000000401c7a67                chelp_mul_64_64_64
                0x00000000401c7a74                BIO_printf
                0x00000000401c7ab1                BIO_snprintf
                0x00000000401c7ae7                chelp_abort
                0x00000000401c7afa                RAND_poll
                0x00000000401c7b19                InitCryptoLibrary
                0x00000000401c7b90                chelp_malloc
                0x00000000401c7ba7                chelp_realloc
                0x00000000401c7bca                chelp_free
                0x00000000401c7bda                chelp_swap
                0x00000000401c7c0e                chelp_qsort
                0x00000000401c7f22                chelp_bsearch
                0x00000000401c7ff1                chelp_memchr
                0x00000000401c802a                chelp_memmove
                0x00000000401c80a9                chelp_memcmp
                0x00000000401c8118                chelp_memcpy
                0x00000000401c8144                chelp_memset
                0x00000000401c8170                chelp_isupper
                0x00000000401c8183                chelp_islower
                0x00000000401c8196                chelp_toupper
                0x00000000401c81a2                chelp_tolower
                0x00000000401c81ae                chelp_isspace
                0x00000000401c81ca                chelp_isdigit
                0x00000000401c81dd                chelp_isxdigit
                0x00000000401c8205                chelp_isalpha
                0x00000000401c8222                chelp_isalnum
                0x00000000401c824b                chelp_strtoul_ex
                0x00000000401c841c                chelp_strtoul
                0x00000000401c842c                chelp_strtol
                0x00000000401c843c                chelp_strcpy
                0x00000000401c846a                chelp_strncpy
                0x00000000401c84d7                chelp_strcat
                0x00000000401c8518                chelp_strcmp
                0x00000000401c8578                chelp_strncmp
                0x00000000401c86fa                chelp_stricmp
                0x00000000401c8739                chelp_strchr
                0x00000000401c8771                chelp_strrchr
                0x00000000401c87a5                chelp_strlen
                0x00000000401c87cc                chelp_strncasecmp
                0x00000000401c8820                decryptcfg
                0x00000000401c88a8                ASN1_BIT_STRING_set
                0x00000000401c88b3                i2c_ASN1_BIT_STRING
                0x00000000401c89c0                c2i_ASN1_BIT_STRING
                0x00000000401c8b39                ASN1_BIT_STRING_set_bit
                0x00000000401c8c98                ASN1_BIT_STRING_get_bit
                0x00000000401c8ce0                ASN1_BIT_STRING_check
                0x00000000401c8d40                d2i_ASN1_type_bytes
                0x00000000401c8ee5                i2d_ASN1_bytes
                0x00000000401c8f9c                d2i_ASN1_bytes
                0x00000000401c95eb                ASN1_d2i_bio
                0x00000000401c965d                ASN1_item_d2i_bio
                0x00000000401c96d4                ASN1_digest
                0x00000000401c979b                ASN1_item_digest
                0x00000000401c9818                ASN1_dup
                0x00000000401c98d3                ASN1_item_dup
                0x00000000401c995c                ASN1_ENUMERATED_set
                0x00000000401c9a71                ASN1_ENUMERATED_get
                0x00000000401c9ae9                BN_to_ASN1_ENUMERATED
                0x00000000401c9bf0                ASN1_ENUMERATED_to_BN
                0x00000000401c9c60                ASN1_GENERALIZEDTIME_check
                0x00000000401c9ed2                ASN1_GENERALIZEDTIME_set_string
                0x00000000401c9f4f                ASN1_GENERALIZEDTIME_adj
                0x00000000401ca0ab                ASN1_GENERALIZEDTIME_set
                0x00000000401ca0c0                ASN1_i2d_bio
                0x00000000401ca17e                ASN1_item_i2d_bio
                0x00000000401ca220                ASN1_INTEGER_dup
                0x00000000401ca22b                ASN1_INTEGER_cmp
                0x00000000401ca26b                i2c_ASN1_INTEGER
                0x00000000401ca3e3                c2i_ASN1_INTEGER
                0x00000000401ca5df                d2i_ASN1_UINTEGER
                0x00000000401ca74e                ASN1_INTEGER_set
                0x00000000401ca863                ASN1_INTEGER_get
                0x00000000401ca8dd                BN_to_ASN1_INTEGER
                0x00000000401ca9f5                ASN1_INTEGER_to_BN
                0x00000000401caa70                i2d_ASN1_OBJECT
                0x00000000401cab07                a2d_ASN1_OBJECT
                0x00000000401cb00e                i2t_ASN1_OBJECT
                0x00000000401cb01e                i2a_ASN1_OBJECT
                0x00000000401cb104                ASN1_OBJECT_new
                0x00000000401cb180                ASN1_OBJECT_free
                0x00000000401cb1f9                c2i_ASN1_OBJECT
                0x00000000401cb3a4                d2i_ASN1_OBJECT
                0x00000000401cb430                ASN1_OBJECT_create
                0x00000000401cb45c                ASN1_OCTET_STRING_dup
                0x00000000401cb467                ASN1_OCTET_STRING_cmp
                0x00000000401cb472                ASN1_OCTET_STRING_set
                0x00000000401cb480                ASN1_sign
                0x00000000401cb71e                ASN1_item_sign
                0x00000000401cc132                X509_NAME_print_ex
                0x00000000401cc612                ASN1_STRING_print_ex
                0x00000000401cc628                ASN1_STRING_to_UTF8
                0x00000000401cc69c                d2i_ASN1_TIME
                0x00000000401cc6ac                i2d_ASN1_TIME
                0x00000000401cc6bc                ASN1_TIME_new
                0x00000000401cc6cc                ASN1_TIME_free
                0x00000000401cc6dc                ASN1_TIME_adj
                0x00000000401cc79f                ASN1_TIME_set
                0x00000000401cc7b4                ASN1_TIME_check
                0x00000000401cc7d8                ASN1_TIME_to_generalizedtime
                0x00000000401cc8cb                ASN1_TIME_set_string
                0x00000000401cc94c                ASN1_TYPE_get
                0x00000000401cc965                ASN1_TYPE_set
                0x00000000401cc9c6                ASN1_TYPE_set1
                0x00000000401cca52                ASN1_TYPE_cmp
                0x00000000401ccaa0                ASN1_UTCTIME_check
                0x00000000401cccc4                ASN1_UTCTIME_set_string
                0x00000000401ccd41                ASN1_UTCTIME_adj
                0x00000000401ccec9                ASN1_UTCTIME_set
                0x00000000401ccede                ASN1_UTCTIME_cmp_time_t
                0x00000000401cd050                UTF8_getc
                0x00000000401cd3df                UTF8_putc
                0x00000000401cd608                ASN1_verify
                0x00000000401cd777                ASN1_item_verify
                0x00000000401cd970                AES_cbc_encrypt
                0x00000000401cd994                AES_cfb128_encrypt
                0x00000000401cd9b2                AES_cfb1_encrypt
                0x00000000401cd9d0                AES_cfb8_encrypt
                0x00000000401cd9f0                AES_ecb_encrypt
                0x00000000401cda08                AES_ofb128_encrypt
                0x00000000401cda20                ERR_load_ASN1_strings
                0x00000000401cda8f                ASN1_check_infinite_end
                0x00000000401cda9a                ASN1_const_check_infinite_end
                0x00000000401cdafe                ASN1_get_object
                0x00000000401cdcc0                ASN1_put_object
                0x00000000401cddc2                ASN1_put_eoc
                0x00000000401cddde                ASN1_object_size
                0x00000000401cde1a                asn1_Finish
                0x00000000401cde25                asn1_const_Finish
                0x00000000401cde30                asn1_GetSequence
                0x00000000401cdede                ASN1_STRING_set
                0x00000000401cdfe0                ASN1_STRING_copy
                0x00000000401ce031                ASN1_STRING_set0
                0x00000000401ce071                ASN1_STRING_type_new
                0x00000000401ce0e8                ASN1_STRING_new
                0x00000000401ce0f8                ASN1_STRING_free
                0x00000000401ce12c                ASN1_STRING_dup
                0x00000000401ce17f                ASN1_STRING_cmp
                0x00000000401ce1c0                asn1_add_error
                0x00000000401ce228                ASN1_STRING_length
                0x00000000401ce230                ASN1_STRING_length_set
                0x00000000401ce238                ASN1_STRING_type
                0x00000000401ce241                ASN1_STRING_data
                0x00000000401ce250                ASN1_tag2str
                0x00000000401cee2f                ASN1_parse_dump
                0x00000000401cee58                ASN1_parse
                0x00000000401cee9a                BIO_dump_indent_cb
                0x00000000401cf2ae                BIO_dump_cb
                0x00000000401cf2bf                BIO_dump
                0x00000000401cf2d7                BIO_dump_indent
                0x00000000401cfcac                BIO_f_buffer
                0x00000000401cfcc0                BF_cfb64_encrypt
                0x00000000401cfea8                BF_options
                0x00000000401cfeb3                BF_ecb_encrypt
                0x00000000401cff64                BF_encrypt
                0x00000000401d0325                BF_decrypt
                0x00000000401d06e6                BF_cbc_encrypt
                0x00000000401d0c78                BF_ofb64_encrypt
                0x00000000401d0e08                BF_set_key
                0x00000000401d1c31                BIO_f_base64
                0x00000000401d2330                BIO_f_cipher
                0x00000000401d233b                BIO_set_cipher
                0x00000000401d23f0                ERR_load_BIO_strings
                0x00000000401d27aa                BIO_f_md
                0x00000000401d27c0                BN_uadd
                0x00000000401d2904                BN_usub
                0x00000000401d2afe                BN_add
                0x00000000401d2ba9                BN_sub
                0x00000000401d2cbc                bn_mul_add_words
                0x00000000401d2f24                bn_mul_words
                0x00000000401d3170                bn_sqr_words
                0x00000000401d32c3                bn_div_words
                0x00000000401d3413                bn_add_words
                0x00000000401d34ff                bn_sub_words
                0x00000000401d3609                bn_mul_comba8
                0x00000000401d4eae                bn_mul_comba4
                0x00000000401d54cd                bn_sqr_comba8
                0x00000000401d6517                bn_sqr_comba4
                0x00000000401d6910                BN_BLINDING_free
                0x00000000401d6967                BN_BLINDING_new
                0x00000000401d6a52                BN_BLINDING_invert_ex
                0x00000000401d6ab5                BN_BLINDING_invert
                0x00000000401d6acb                BN_BLINDING_get_thread_id
                0x00000000401d6ad5                BN_BLINDING_set_thread_id
                0x00000000401d6adf                BN_BLINDING_thread_id
                0x00000000401d6ae9                BN_BLINDING_get_flags
                0x00000000401d6af3                BN_BLINDING_set_flags
                0x00000000401d6afd                BN_BLINDING_create_param
                0x00000000401d6c91                BN_BLINDING_update
                0x00000000401d6d83                BN_BLINDING_convert_ex
                0x00000000401d6e5e                BN_BLINDING_convert
                0x00000000401d6e74                BN_CTX_init
                0x00000000401d6eef                BN_CTX_new
                0x00000000401d6f8f                BN_CTX_free
                0x00000000401d700f                BN_CTX_start
                0x00000000401d70f5                BN_CTX_end
                0x00000000401d716a                BN_CTX_get
                0x00000000401d72d0                BN_div
                0x00000000401d7df4                ERR_load_BN_strings
                0x00000000401d7f0d                BN_exp
                0x00000000401d80ad                BN_mod_exp_recp
                0x00000000401d8539                BN_mod_exp_mont_consttime
                0x00000000401d8b6c                BN_mod_exp_mont
                0x00000000401d914b                BN_mod_exp_mont_word
                0x00000000401d958d                BN_mod_exp
                0x00000000401d95d9                BN_mod_exp_simple
                0x00000000401d9a50                BN_gcd
                0x00000000401d9c66                BN_mod_inverse
                0x00000000401da6e0                BN_nnmod
                0x00000000401da73c                BN_mod_add
                0x00000000401da78a                BN_mod_add_quick
                0x00000000401da7de                BN_mod_sub
                0x00000000401da82c                BN_mod_sub_quick
                0x00000000401da874                BN_mod_mul
                0x00000000401da92c                BN_mod_sqr
                0x00000000401da982                BN_mod_lshift1
                0x00000000401da9d0                BN_mod_lshift1_quick
                0x00000000401daa24                BN_mod_lshift_quick
                0x00000000401dab1f                BN_mod_lshift
                0x00000000401daf2c                BN_mod_mul_montgomery
                0x00000000401dafe1                BN_from_montgomery
                0x00000000401db06b                BN_MONT_CTX_init
                0x00000000401db0b4                BN_MONT_CTX_new
                0x00000000401db0f2                BN_MONT_CTX_free
                0x00000000401db133                BN_MONT_CTX_set
                0x00000000401db32d                BN_MONT_CTX_copy
                0x00000000401db3ad                BN_MONT_CTX_set_locked
                0x00000000401db4b0                bn_sub_part_words
                0x00000000401db743                bn_add_part_words
                0x00000000401dbb01                bn_mul_normal
                0x00000000401dbc69                bn_mul_recursive
                0x00000000401dc0fb                bn_mul_high
                0x00000000401dc577                bn_mul_part_recursive
                0x00000000401dca4b                BN_mul
                0x00000000401dcd9b                bn_mul_low_normal
                0x00000000401dce7d                bn_mul_low_recursive
                0x00000000401dd0b7                BN_GENCB_call
                0x00000000401dd105                BN_is_prime_fasttest_ex
                0x00000000401dd5d4                BN_is_prime_ex
                0x00000000401dd5e7                BN_generate_prime_ex
                0x00000000401ddb38                BN_RECP_CTX_init
                0x00000000401ddb67                BN_RECP_CTX_new
                0x00000000401ddba5                BN_RECP_CTX_free
                0x00000000401ddbd9                BN_RECP_CTX_set
                0x00000000401ddc2f                BN_reciprocal
                0x00000000401ddcc8                BN_div_recp
                0x00000000401ddf73                BN_mod_mul_reciprocal
                0x00000000401de03c                BN_lshift1
                0x00000000401de0fb                BN_rshift1
                0x00000000401de1d3                BN_lshift
                0x00000000401de333                BN_rshift
                0x00000000401de4e0                bn_sqr_normal
                0x00000000401de5bc                bn_sqr_recursive
                0x00000000401de77a                BN_sqr
                0x00000000401dea64                BIO_s_null
                0x00000000401dea70                ERR_load_BUF_strings
                0x00000000401deab0                CAST_cfb64_encrypt
                0x00000000401dec98                CAST_ecb_encrypt
                0x00000000401ded48                CAST_encrypt
                0x00000000401df1a4                CAST_decrypt
                0x00000000401df626                CAST_cbc_encrypt
                0x00000000401dfbb8                CAST_ofb64_encrypt
                0x00000000401dfd48                CAST_set_key
                0x00000000401e07e0                DES_ede3_cfb64_encrypt
                0x00000000401e0a0b                DES_ede3_cfb_encrypt
                0x00000000401e1210                DES_cfb64_encrypt
                0x00000000401e1430                DES_cfb_encrypt
                0x00000000401e1a5c                ERR_load_COMP_strings
                0x00000000401e1a94                ERR_load_CONF_strings
                0x00000000401e1acc                ERR_load_CRYPTO_strings
                0x00000000401e1b10                d2i_PrivateKey
                0x00000000401e1c71                d2i_AutoPrivateKey
                0x00000000401e1dde                d2i_DHparams
                0x00000000401e1dee                i2d_DHparams
                0x00000000401e1dfe                DHparams_dup
                0x00000000401e1e20                DH_check
                0x00000000401e1f59                DH_check_pub_key
                0x00000000401e2004                ERR_load_DH_strings
                0x00000000401e2040                DH_generate_parameters_ex
                0x00000000401e2248                EVP_MD_CTX_init
                0x00000000401e225d                EVP_MD_CTX_create
                0x00000000401e2294                EVP_DigestInit_ex
                0x00000000401e2373                EVP_DigestInit
                0x00000000401e23a8                EVP_DigestUpdate
                0x00000000401e23b4                EVP_DigestFinal_ex
                0x00000000401e244f                EVP_MD_CTX_cleanup
                0x00000000401e24ec                EVP_MD_CTX_destroy
                0x00000000401e250c                EVP_Digest
                0x00000000401e25b6                EVP_MD_CTX_copy_ex
                0x00000000401e26f3                EVP_MD_CTX_copy
                0x00000000401e2723                EVP_DigestFinal
                0x00000000401e280e                d2i_DSA_SIG
                0x00000000401e281e                i2d_DSA_SIG
                0x00000000401e282e                DSA_SIG_new
                0x00000000401e283e                DSA_SIG_free
                0x00000000401e284e                d2i_DSAPrivateKey
                0x00000000401e285e                i2d_DSAPrivateKey
                0x00000000401e286e                d2i_DSAparams
                0x00000000401e287e                i2d_DSAparams
                0x00000000401e288e                d2i_DSAPublicKey
                0x00000000401e289e                i2d_DSAPublicKey
                0x00000000401e28ae                DSAparams_dup
                0x00000000401e28c4                ERR_load_DSA_strings
                0x00000000401e2900                dsa_builtin_paramgen
                0x00000000401e31f5                DSA_generate_parameters_ex
                0x00000000401e32a0                DSA_generate_key
                0x00000000401e3408                DSA_set_default_method
                0x00000000401e3415                DSA_get_default_method
                0x00000000401e3438                DSA_set_method
                0x00000000401e347f                DSA_new_method
                0x00000000401e3580                DSA_new
                0x00000000401e3590                DSA_free
                0x00000000401e365f                DSA_up_ref
                0x00000000401e368c                DSA_size
                0x00000000401e36e1                DSA_get_ex_new_index
                0x00000000401e3700                DSA_set_ex_data
                0x00000000401e370f                DSA_get_ex_data
                0x00000000401e371e                DSA_dup_DH
                0x00000000401e40bc                DSA_OpenSSL
                0x00000000401e40c8                DSA_do_sign
                0x00000000401e40d5                DSA_sign
                0x00000000401e4159                DSA_sign_setup
                0x00000000401e4168                DSA_do_verify
                0x00000000401e4175                DSA_verify
                0x00000000401e4200                ERR_load_DSO_strings
                0x00000000401e4b51                EC_GROUP_get_basis_type
                0x00000000401e4bb6                EC_GROUP_get_trinomial_basis
                0x00000000401e4c3f                EC_GROUP_get_pentanomial_basis
                0x00000000401e4d16                X9_62_PENTANOMIAL_new
                0x00000000401e4d26                X9_62_PENTANOMIAL_free
                0x00000000401e4d36                X9_62_CHARACTERISTIC_TWO_new
                0x00000000401e4d46                X9_62_CHARACTERISTIC_TWO_free
                0x00000000401e4d56                ECPARAMETERS_new
                0x00000000401e4d66                ECPARAMETERS_free
                0x00000000401e4d76                d2i_ECPKPARAMETERS
                0x00000000401e4d86                i2d_ECPKPARAMETERS
                0x00000000401e4d96                ECPKPARAMETERS_new
                0x00000000401e4da6                ECPKPARAMETERS_free
                0x00000000401e59ae                d2i_EC_PRIVATEKEY
                0x00000000401e59be                i2d_EC_PRIVATEKEY
                0x00000000401e59ce                EC_PRIVATEKEY_new
                0x00000000401e59de                EC_PRIVATEKEY_free
                0x00000000401e59ee                d2i_ECPKParameters
                0x00000000401e5aab                i2d_ECPKParameters
                0x00000000401e5b39                d2i_ECPrivateKey
                0x00000000401e5db6                i2d_ECPrivateKey
                0x00000000401e6146                i2d_ECParameters
                0x00000000401e617e                d2i_ECParameters
                0x00000000401e6264                o2i_ECPublicKey
                0x00000000401e635e                i2o_ECPublicKey
                0x00000000401e64a8                EC_GROUP_new_by_curve_name
                0x00000000401e69bc                EC_get_builtin_curves
                0x00000000401e6a10                EC_GROUP_new_curve_GFp
                0x00000000401e6af8                EC_GROUP_new_curve_GF2m
                0x00000000401e6b74                ERR_load_EC_strings
                0x00000000401e6bb0                EC_KEY_new
                0x00000000401e6c3b                EC_KEY_free
                0x00000000401e6cbd                EC_KEY_new_by_curve_name
                0x00000000401e6d08                EC_KEY_copy
                0x00000000401e6ec3                EC_KEY_dup
                0x00000000401e6f0d                EC_KEY_up_ref
                0x00000000401e6f3a                EC_KEY_generate_key
                0x00000000401e7119                EC_KEY_check_key
                0x00000000401e73c9                EC_KEY_get0_group
                0x00000000401e73d3                EC_KEY_set_group
                0x00000000401e7416                EC_KEY_get0_private_key
                0x00000000401e7420                EC_KEY_set_private_key
                0x00000000401e7463                EC_KEY_get0_public_key
                0x00000000401e746d                EC_KEY_set_public_key
                0x00000000401e74b4                EC_KEY_get_enc_flags
                0x00000000401e74bd                EC_KEY_set_enc_flags
                0x00000000401e74c6                EC_KEY_get_conv_form
                0x00000000401e74cf                EC_KEY_set_conv_form
                0x00000000401e74e6                EC_KEY_get_key_method_data
                0x00000000401e74f5                EC_KEY_insert_key_method_data
                0x00000000401e7594                EC_KEY_set_asn1_flag
                0x00000000401e75a8                EC_KEY_precompute_mult
                0x00000000401e75d0                EC_GROUP_new
                0x00000000401e76e0                EC_GROUP_method_of
                0x00000000401e76e9                EC_METHOD_get_field_type
                0x00000000401e76f1                EC_GROUP_get0_generator
                0x00000000401e76fb                EC_GROUP_get_order
                0x00000000401e7730                EC_GROUP_get_cofactor
                0x00000000401e7765                EC_GROUP_set_curve_name
                0x00000000401e776e                EC_GROUP_get_curve_name
                0x00000000401e7777                EC_GROUP_set_asn1_flag
                0x00000000401e7780                EC_GROUP_get_asn1_flag
                0x00000000401e7789                EC_GROUP_set_point_conversion_form
                0x00000000401e7792                EC_GROUP_get_point_conversion_form
                0x00000000401e779b                EC_GROUP_set_seed
                0x00000000401e782e                EC_GROUP_get0_seed
                0x00000000401e7838                EC_GROUP_get_seed_len
                0x00000000401e7842                EC_GROUP_set_curve_GFp
                0x00000000401e7881                EC_GROUP_get_curve_GFp
                0x00000000401e78bb                EC_GROUP_set_curve_GF2m
                0x00000000401e78f5                EC_GROUP_get_curve_GF2m
                0x00000000401e7931                EC_GROUP_get_degree
                0x00000000401e796b                EC_GROUP_check_discriminant
                0x00000000401e79a5                EC_EX_DATA_set_data
                0x00000000401e7a75                EC_EX_DATA_get_data
                0x00000000401e7aaa                EC_EX_DATA_free_data
                0x00000000401e7af9                EC_EX_DATA_clear_free_data
                0x00000000401e7b48                EC_EX_DATA_free_all_data
                0x00000000401e7b94                EC_EX_DATA_clear_free_all_data
                0x00000000401e7be0                EC_POINT_new
                0x00000000401e7cae                EC_POINT_free
                0x00000000401e7cdc                EC_GROUP_free
                0x00000000401e7d41                EC_POINT_clear_free
                0x00000000401e7d89                EC_GROUP_clear_free
                0x00000000401e7e15                EC_POINT_copy
                0x00000000401e7e81                EC_GROUP_set_generator
                0x00000000401e7f70                EC_GROUP_copy
                0x00000000401e819a                EC_GROUP_dup
                0x00000000401e81f0                EC_POINT_dup
                0x00000000401e8246                EC_POINT_method_of
                0x00000000401e824f                EC_POINT_set_to_infinity
                0x00000000401e82b4                EC_POINT_set_Jprojective_coordinates_GFp
                0x00000000401e8319                EC_POINT_get_Jprojective_coordinates_GFp
                0x00000000401e8381                EC_POINT_set_affine_coordinates_GFp
                0x00000000401e83e9                EC_POINT_set_affine_coordinates_GF2m
                0x00000000401e8451                EC_POINT_get_affine_coordinates_GFp
                0x00000000401e84b9                EC_POINT_get_affine_coordinates_GF2m
                0x00000000401e8521                EC_POINT_set_compressed_coordinates_GFp
                0x00000000401e8589                EC_POINT_set_compressed_coordinates_GF2m
                0x00000000401e85f1                EC_POINT_point2oct
                0x00000000401e8659                EC_POINT_oct2point
                0x00000000401e86c1                EC_POINT_add
                0x00000000401e8733                EC_POINT_dbl
                0x00000000401e87a1                EC_POINT_invert
                0x00000000401e880b                EC_POINT_is_at_infinity
                0x00000000401e8873                EC_POINT_is_on_curve
                0x00000000401e88db                EC_POINT_cmp
                0x00000000401e8948                EC_GROUP_cmp
                0x00000000401e8bcd                EC_POINT_make_affine
                0x00000000401e8c35                EC_POINTs_make_affine
                0x00000000401e8cc1                EC_POINTs_mul
                0x00000000401e8cf1                EC_POINT_mul
                0x00000000401e8d29                EC_GROUP_precompute_mult
                0x00000000401e8d56                EC_GROUP_have_precompute_mult
                0x00000000401e918e                ec_wNAF_mul
                0x00000000401ea06f                ec_wNAF_precompute_mult
                0x00000000401ea6c0                ec_wNAF_have_precompute_mult
                0x00000000401ea6f0                EC_POINT_point2bn
                0x00000000401ea7b6                EC_POINT_bn2point
                0x00000000401ea8af                EC_POINT_point2hex
                0x00000000401ea9b8                EC_POINT_hex2point
                0x00000000401eaa28                ERR_load_ECDH_strings
                0x00000000401eaa60                ECDH_compute_key
                0x00000000401eab05                ECDH_set_default_method
                0x00000000401eab12                ECDH_get_default_method
                0x00000000401eabc9                ecdh_check
                0x00000000401eac29                ECDH_set_method
                0x00000000401eac53                ECDH_get_ex_new_index
                0x00000000401eac72                ECDH_set_ex_data
                0x00000000401eacb3                ECDH_get_ex_data
                0x00000000401eb0a1                ECDH_OpenSSL
                0x00000000401eb0ac                ec_GFp_mont_field_set_to_one
                0x00000000401eb0f6                ec_GFp_mont_field_decode
                0x00000000401eb139                ec_GFp_mont_field_encode
                0x00000000401eb186                ec_GFp_mont_field_sqr
                0x00000000401eb1cf                ec_GFp_mont_field_mul
                0x00000000401eb218                ec_GFp_mont_group_set_curve
                0x00000000401eb3c0                ec_GFp_mont_group_copy
                0x00000000401eb4a8                ec_GFp_mont_group_clear_finish
                0x00000000401eb4fb                ec_GFp_mont_group_finish
                0x00000000401eb54e                ec_GFp_mont_group_init
                0x00000000401eb57c                EC_GFp_mont_method
                0x00000000401eb590                ec_GFp_nist_field_sqr
                0x00000000401eb66b                ec_GFp_nist_field_mul
                0x00000000401eb754                ec_GFp_nist_group_set_curve
                0x00000000401eb8de                ec_GFp_nist_group_copy
                0x00000000401eb8f7                EC_GFp_nist_method
                0x00000000401eb910                ec_GFp_simple_is_at_infinity
                0x00000000401eb920                ec_GFp_simple_field_sqr
                0x00000000401eb938                ec_GFp_simple_field_mul
                0x00000000401eb953                ec_GFp_simple_point_copy
                0x00000000401eb9b8                ec_GFp_simple_group_copy
                0x00000000401eba2f                ec_GFp_simple_point_set_to_infinity
                0x00000000401eba4f                ec_GFp_simple_get_Jprojective_coordinates_GFp
                0x00000000401ebbd6                ec_GFp_simple_group_get_curve
                0x00000000401ebd45                ec_GFp_simple_point_clear_finish
                0x00000000401ebd7a                ec_GFp_simple_group_clear_finish
                0x00000000401ebdae                ec_GFp_simple_points_make_affine
                0x00000000401ec31e                ec_GFp_simple_point_get_affine_coordinates
                0x00000000401ec65d                ec_GFp_simple_make_affine
                0x00000000401ec774                ec_GFp_simple_cmp
                0x00000000401eca27                ec_GFp_simple_is_on_curve
                0x00000000401ecd2f                ec_GFp_simple_invert
                0x00000000401ecd78                ec_GFp_simple_dbl
                0x00000000401ed224                ec_GFp_simple_add
                0x00000000401ed82b                ec_GFp_simple_group_get_degree
                0x00000000401ed83a                ec_GFp_simple_oct2point
                0x00000000401edbc7                ec_GFp_simple_point2oct
                0x00000000401edf46                ec_GFp_simple_set_Jprojective_coordinates_GFp
                0x00000000401ee12c                ec_GFp_simple_set_compressed_coordinates
                0x00000000401ee5b8                ec_GFp_simple_point_set_affine_coordinates
                0x00000000401ee645                ec_GFp_simple_point_finish
                0x00000000401ee673                ec_GFp_simple_group_finish
                0x00000000401ee6a7                ec_GFp_simple_point_init
                0x00000000401ee6e1                ec_GFp_simple_group_init
                0x00000000401ee724                ec_GFp_simple_group_check_discriminant
                0x00000000401ee955                ec_GFp_simple_group_set_curve
                0x00000000401eeb4d                EC_GFp_simple_method
                0x00000000401eeb58                ERR_load_ECDSA_strings
                0x00000000401eebc9                ECDSA_set_default_method
                0x00000000401eebd6                ECDSA_get_default_method
                0x00000000401eec8d                ecdsa_check
                0x00000000401eeced                ECDSA_set_method
                0x00000000401eed17                ECDSA_size
                0x00000000401eedd9                ECDSA_get_ex_new_index
                0x00000000401eedf8                ECDSA_set_ex_data
                0x00000000401eee39                ECDSA_get_ex_data
                0x00000000401efb6b                ECDSA_OpenSSL
                0x00000000401efb78                ECDSA_do_sign_ex
                0x00000000401efbe4                ECDSA_do_sign
                0x00000000401efbfc                ECDSA_sign_ex
                0x00000000401efc88                ECDSA_sign
                0x00000000401efcaa                ECDSA_sign_setup
                0x00000000401efd08                ECDSA_do_verify
                0x00000000401efd66                ECDSA_verify
                0x00000000401efdf0                EVP_EncodeInit
                0x00000000401efe0a                EVP_EncodeBlock
                0x00000000401eff45                EVP_EncodeFinal
                0x00000000401effa2                EVP_EncodeUpdate
                0x00000000401f00d2                EVP_DecodeInit
                0x00000000401f00f3                EVP_DecodeBlock
                0x00000000401f0255                EVP_DecodeUpdate
                0x00000000401f052f                EVP_DecodeFinal
                0x00000000401f0590                EVP_set_pw_prompt
                0x00000000401f05bd                EVP_get_pw_prompt
                0x00000000401f05d8                EVP_read_pw_string_min
                0x00000000401f06b2                EVP_read_pw_string
                0x00000000401f06ca                EVP_BytesToKey
                0x00000000401f0995                EVP_PBE_alg_add_type
                0x00000000401f0a55                EVP_PBE_alg_add
                0x00000000401f0ac5                EVP_PBE_find
                0x00000000401f0b8c                EVP_PBE_CipherInit
                0x00000000401f0d66                EVP_PBE_cleanup
                0x00000000401f0d90                EVP_PKCS82PKEY
                0x00000000401f0ecb                EVP_PKEY2PKCS8_broken
                0x00000000401f0fd3                EVP_PKEY2PKCS8
                0x00000000401f0fe3                PKCS8_set_broken
                0x00000000401f1035                EVP_PKEY_get_attr_count
                0x00000000401f1044                EVP_PKEY_get_attr_by_NID
                0x00000000401f1053                EVP_PKEY_get_attr_by_OBJ
                0x00000000401f1062                EVP_PKEY_get_attr
                0x00000000401f1071                EVP_PKEY_delete_attr
                0x00000000401f1080                EVP_PKEY_add1_attr
                0x00000000401f1098                EVP_PKEY_add1_attr_by_OBJ
                0x00000000401f10b0                EVP_PKEY_add1_attr_by_NID
                0x00000000401f10c8                EVP_PKEY_add1_attr_by_txt
                0x00000000401f10e0                HMAC_Init_ex
                0x00000000401f1314                HMAC_Update
                0x00000000401f1323                HMAC_Final
                0x00000000401f13b8                HMAC_CTX_init
                0x00000000401f13e6                HMAC_Init
                0x00000000401f1442                HMAC_CTX_copy
                0x00000000401f14d8                HMAC_CTX_cleanup
                0x00000000401f1518                HMAC
                0x00000000401f15e9                HMAC_CTX_set_flags
                0x00000000401f1630                i2d_PrivateKey
                0x00000000401f2020                RAND_SSLeay
                0x00000000401f2054                d2i_NETSCAPE_CERT_SEQUENCE
                0x00000000401f2064                i2d_NETSCAPE_CERT_SEQUENCE
                0x00000000401f2074                NETSCAPE_CERT_SEQUENCE_new
                0x00000000401f2084                NETSCAPE_CERT_SEQUENCE_free
                0x00000000401f2094                OPENSSL_gmtime
                0x00000000401f209f                OPENSSL_gmtime_adj
                0x00000000401f2348                PKCS12_PBE_add
                0x00000000401f234e                PKCS12_PBE_keyivgen
                0x00000000401f255c                PKCS12_key_gen_uni
                0x00000000401f2a79                PKCS12_key_gen_asc
                0x00000000401f2b58                PKCS8_decrypt
                0x00000000401f2b7c                OPENSSL_asc2uni
                0x00000000401f2c0b                OPENSSL_uni2asc
                0x00000000401f2c8c                i2d_PKCS12_bio
                0x00000000401f2ca2                d2i_PKCS12_bio
                0x00000000401f2cb8                PKCS12_x5092certbag
                0x00000000401f2cd2                PKCS12_x509crl2certbag
                0x00000000401f2cec                PKCS12_certbag2x509
                0x00000000401f2d43                PKCS12_certbag2x509crl
                0x00000000401f2d9c                PKCS5_PBE_add
                0x00000000401f2da2                PKCS5_PBE_keyivgen
                0x00000000401f3084                PKCS5_PBKDF2_HMAC
                0x00000000401f32a4                PKCS5_PBKDF2_HMAC_SHA1
                0x00000000401f3312                PKCS5_v2_PBE_keyivgen
                0x00000000401f3714                d2i_PBEPARAM
                0x00000000401f3724                i2d_PBEPARAM
                0x00000000401f3734                PBEPARAM_new
                0x00000000401f3744                PBEPARAM_free
                0x00000000401f3754                PKCS5_pbe_set0_algor
                0x00000000401f390f                PKCS5_pbe_set
                0x00000000401f39a4                d2i_PBE2PARAM
                0x00000000401f39b4                i2d_PBE2PARAM
                0x00000000401f39c4                PBE2PARAM_new
                0x00000000401f39d4                PBE2PARAM_free
                0x00000000401f39e4                d2i_PBKDF2PARAM
                0x00000000401f39f4                i2d_PBKDF2PARAM
                0x00000000401f3a04                PBKDF2PARAM_new
                0x00000000401f3a14                PBKDF2PARAM_free
                0x00000000401f3a24                PKCS5_pbe2_set_iv
                0x00000000401f3f3d                PKCS5_pbe2_set
                0x00000000401f3f80                d2i_PKCS8_PRIV_KEY_INFO
                0x00000000401f3f90                i2d_PKCS8_PRIV_KEY_INFO
                0x00000000401f3fa0                PKCS8_PRIV_KEY_INFO_new
                0x00000000401f3fb0                PKCS8_PRIV_KEY_INFO_free
                0x00000000401f3fc0                PKCS8_pkey_set0
                0x00000000401f408b                PKCS8_pkey_get0
                0x00000000401f4120                EVP_SignFinal
                0x00000000401f4300                EVP_VerifyFinal
                0x00000000401f44f1                policy_cache_free
                0x00000000401f4531                policy_cache_set
                0x00000000401f4885                policy_cache_find_data
                0x00000000401f48c0                policy_data_free
                0x00000000401f4905                policy_data_new
                0x00000000401f4a04                policy_cache_set_mapping
                0x00000000401f4c6e                X509_policy_tree_free
                0x00000000401f4d1a                X509_policy_check
                0x00000000401f5788                d2i_PKCS8PrivateKey_bio
                0x00000000401f589c                PEM_read_bio_PKCS8
                0x00000000401f58bd                PEM_write_bio_PKCS8
                0x00000000401f5901                PEM_read_bio_PKCS8_PRIV_KEY_INFO
                0x00000000401f5922                PEM_write_bio_PKCS8_PRIV_KEY_INFO
                0x00000000401f5b68                i2d_PKCS8PrivateKey_nid_bio
                0x00000000401f5b99                i2d_PKCS8PrivateKey_bio
                0x00000000401f5bca                PEM_write_bio_PKCS8PrivateKey
                0x00000000401f5bfb                PEM_write_bio_PKCS8PrivateKey_nid
                0x00000000401f5c2c                PKCS7_add_attrib_smimecap
                0x00000000401f5caf                PKCS7_get_smimecap
                0x00000000401f5cfe                PKCS7_simple_smimecap
                0x00000000401f5e44                PKCS7_add_attrib_content_type
                0x00000000401f5ea3                PKCS7_add0_attrib_signing_time
                0x00000000401f5f06                PKCS7_add1_attrib_digest
                0x00000000401f7882                RSA_PKCS1_SSLeay
                0x00000000401f7890                RSA_padding_add_none
                0x00000000401f78fc                RSA_padding_check_none
                0x00000000401f7984                PKCS1_MGF1
                0x00000000401f7b79                RSA_padding_check_PKCS1_OAEP
                0x00000000401f7dfd                RSA_padding_add_PKCS1_OAEP
                0x00000000401f8000                RSA_padding_add_PKCS1_type_1
                0x00000000401f809b                RSA_padding_check_PKCS1_type_1
                0x00000000401f81e4                RSA_padding_add_PKCS1_type_2
                0x00000000401f82a5                RSA_padding_check_PKCS1_type_2
                0x00000000401f83c0                RSA_verify_PKCS1_PSS
                0x00000000401f8773                RSA_padding_add_PKCS1_PSS
                0x00000000401f8a4c                RSA_padding_add_SSLv23
                0x00000000401f8b20                RSA_padding_check_SSLv23
                0x00000000401f8c80                RSA_padding_add_X931
                0x00000000401f8d36                RSA_padding_check_X931
                0x00000000401f8e52                RSA_X931_hash_id
                0x00000000401f8e94                ASN1_bn_print
                0x00000000401f9090                X509_ocspid_print
                0x00000000401f9218                X509_signature_print
                0x00000000401f931a                ASN1_STRING_print
                0x00000000401f93d3                ASN1_GENERALIZEDTIME_print
                0x00000000401f9688                ASN1_UTCTIME_print
                0x00000000401f97f4                ASN1_TIME_print
                0x00000000401f982d                X509_print_ex
                0x00000000401f9d71                X509_print
                0x00000000401f9d86                X509_NAME_print
                0x00000000401f9e7c                X509_CERT_AUX_print
                0x00000000401fa41c                UI_free
                0x00000000401fa45b                UI_add_input_string
                0x00000000401fa48c                UI_dup_input_string
                0x00000000401fa534                UI_add_verify_string
                0x00000000401fa565                UI_dup_verify_string
                0x00000000401fa60d                UI_add_input_boolean
                0x00000000401fa637                UI_dup_input_boolean
                0x00000000401fa7df                UI_add_info_string
                0x00000000401fa81c                UI_dup_info_string
                0x00000000401fa8a3                UI_add_error_string
                0x00000000401fa8e0                UI_dup_error_string
                0x00000000401fa967                UI_construct_prompt
                0x00000000401faa97                UI_add_user_data
                0x00000000401faaa5                UI_get0_user_data
                0x00000000401faaaf                UI_process
                0x00000000401fabe4                UI_ctrl
                0x00000000401fac71                UI_get_ex_new_index
                0x00000000401fac90                UI_set_ex_data
                0x00000000401fac9f                UI_get_ex_data
                0x00000000401facae                UI_set_default_method
                0x00000000401facbb                UI_get_default_method
                0x00000000401facde                UI_new_method
                0x00000000401fad6d                UI_new
                0x00000000401fad7d                UI_get_method
                0x00000000401fad86                UI_set_method
                0x00000000401fad92                UI_create_method
                0x00000000401fadeb                UI_destroy_method
                0x00000000401fae15                UI_method_set_opener
                0x00000000401fae30                UI_method_set_writer
                0x00000000401fae4b                UI_method_set_flusher
                0x00000000401fae66                UI_method_set_reader
                0x00000000401fae81                UI_method_set_closer
                0x00000000401fae9c                UI_method_set_prompt_constructor
                0x00000000401faeb7                UI_method_get_opener
                0x00000000401faecd                UI_method_get_writer
                0x00000000401faee3                UI_method_get_flusher
                0x00000000401faef9                UI_method_get_reader
                0x00000000401faf0f                UI_method_get_closer
                0x00000000401faf25                UI_method_get_prompt_constructor
                0x00000000401faf3b                UI_get_string_type
                0x00000000401faf4d                UI_get_input_flags
                0x00000000401faf60                UI_get0_output_string
                0x00000000401faf76                UI_get0_action_string
                0x00000000401faf9f                UI_get0_result_string
                0x00000000401fafc4                UI_get0_result
                0x00000000401fb056                UI_get0_test_string
                0x00000000401fb076                UI_get_result_minsize
                0x00000000401fb09a                UI_get_result_maxsize
                0x00000000401fb0be                UI_set_result
                0x00000000401fb5b4                UI_OpenSSL
                0x00000000401fb5c0                d2i_AUTHORITY_KEYID
                0x00000000401fb5d0                i2d_AUTHORITY_KEYID
                0x00000000401fb5e0                AUTHORITY_KEYID_new
                0x00000000401fb5f0                AUTHORITY_KEYID_free
                0x00000000401fb893                POLICYINFO_free
                0x00000000401fb8a3                d2i_CERTIFICATEPOLICIES
                0x00000000401fb8b3                i2d_CERTIFICATEPOLICIES
                0x00000000401fb8c3                CERTIFICATEPOLICIES_new
                0x00000000401fb8d3                CERTIFICATEPOLICIES_free
                0x00000000401fb8e3                d2i_POLICYINFO
                0x00000000401fb8f3                i2d_POLICYINFO
                0x00000000401fb903                POLICYINFO_new
                0x00000000401fb913                d2i_POLICYQUALINFO
                0x00000000401fb923                i2d_POLICYQUALINFO
                0x00000000401fb933                POLICYQUALINFO_new
                0x00000000401fb943                POLICYQUALINFO_free
                0x00000000401fb953                d2i_USERNOTICE
                0x00000000401fb963                i2d_USERNOTICE
                0x00000000401fb973                USERNOTICE_new
                0x00000000401fb983                USERNOTICE_free
                0x00000000401fb993                d2i_NOTICEREF
                0x00000000401fb9a3                i2d_NOTICEREF
                0x00000000401fb9b3                NOTICEREF_new
                0x00000000401fc2f8                NOTICEREF_free
                0x00000000401fc308                X509_POLICY_NODE_print
                0x00000000401fc940                DIST_POINT_free
                0x00000000401fc950                d2i_DIST_POINT_NAME
                0x00000000401fc960                i2d_DIST_POINT_NAME
                0x00000000401fc970                DIST_POINT_NAME_new
                0x00000000401fcb8a                DIST_POINT_NAME_free
                0x00000000401fcb9a                d2i_DIST_POINT
                0x00000000401fcbaa                i2d_DIST_POINT
                0x00000000401fcbba                DIST_POINT_new
                0x00000000401fce5d                d2i_CRL_DIST_POINTS
                0x00000000401fce6d                i2d_CRL_DIST_POINTS
                0x00000000401fce7d                CRL_DIST_POINTS_new
                0x00000000401fce8d                CRL_DIST_POINTS_free
                0x00000000401fce9d                d2i_ISSUING_DIST_POINT
                0x00000000401fcead                i2d_ISSUING_DIST_POINT
                0x00000000401fcebd                ISSUING_DIST_POINT_new
                0x00000000401fcecd                ISSUING_DIST_POINT_free
                0x00000000401fd0da                DIST_POINT_set_dpname
                0x00000000401fd1c8                i2d_GENERAL_NAME
                0x00000000401fd1d8                d2i_GENERAL_NAME
                0x00000000401fd1e8                d2i_OTHERNAME
                0x00000000401fd1f8                i2d_OTHERNAME
                0x00000000401fd208                OTHERNAME_new
                0x00000000401fd218                OTHERNAME_free
                0x00000000401fd228                d2i_EDIPARTYNAME
                0x00000000401fd238                i2d_EDIPARTYNAME
                0x00000000401fd248                EDIPARTYNAME_new
                0x00000000401fd258                EDIPARTYNAME_free
                0x00000000401fd268                GENERAL_NAME_new
                0x00000000401fd278                GENERAL_NAME_free
                0x00000000401fd288                d2i_GENERAL_NAMES
                0x00000000401fd298                i2d_GENERAL_NAMES
                0x00000000401fd2a8                GENERAL_NAMES_new
                0x00000000401fd2b8                GENERAL_NAMES_free
                0x00000000401fd2c8                GENERAL_NAME_dup
                0x00000000401fd2e0                OTHERNAME_cmp
                0x00000000401fd32e                GENERAL_NAME_cmp
                0x00000000401fd3b6                GENERAL_NAME_set0_value
                0x00000000401fd3ee                GENERAL_NAME_get0_value
                0x00000000401fd432                GENERAL_NAME_set0_othername
                0x00000000401fd488                GENERAL_NAME_get0_otherName
                0x00000000401fdaee                GENERAL_SUBTREE_new
                0x00000000401fdafe                GENERAL_SUBTREE_free
                0x00000000401fdb0e                NAME_CONSTRAINTS_new
                0x00000000401fdb1e                NAME_CONSTRAINTS_free
                0x00000000401fdcbc                NAME_CONSTRAINTS_check
                0x00000000401fddee                POLICY_CONSTRAINTS_new
                0x00000000401fddfe                POLICY_CONSTRAINTS_free
                0x00000000401fe003                POLICY_MAPPING_free
                0x00000000401fe013                POLICY_MAPPING_new
                0x00000000401fe2b7                X509V3_EXT_val_prn
                0x00000000401fe3de                X509V3_EXT_print
                0x00000000401fe5ba                X509V3_extensions_print
                0x00000000401feac1                X509_PURPOSE_get_count
                0x00000000401feae0                X509_PURPOSE_get0
                0x00000000401feb16                X509_PURPOSE_get_by_sname
                0x00000000401feb56                X509_PURPOSE_get_by_id
                0x00000000401feb96                X509_PURPOSE_set
                0x00000000401febf0                X509_PURPOSE_add
                0x00000000401fedb9                X509_PURPOSE_cleanup
                0x00000000401fee08                X509_PURPOSE_get_id
                0x00000000401fee10                X509_PURPOSE_get0_name
                0x00000000401fee1a                X509_PURPOSE_get0_sname
                0x00000000401fee24                X509_PURPOSE_get_trust
                0x00000000401fee2d                X509_supported_extension
                0x00000000401ff39e                X509_check_purpose
                0x00000000401ff438                X509_check_ca
                0x00000000401ff493                X509_check_akid
                0x00000000401ff570                X509_check_issued
                0x00000000401ff750                X509V3_conf_free
                0x00000000401ff849                X509V3_add_value
                0x00000000401ff97a                X509V3_add_value_uchar
                0x00000000401ff985                X509V3_add_value_bool
                0x00000000401ff9a5                X509V3_add_value_bool_nf
                0x00000000401ff9be                i2s_ASN1_ENUMERATED
                0x00000000401ffa38                i2s_ASN1_INTEGER
                0x00000000401ffab2                s2i_ASN1_INTEGER
                0x00000000401ffbef                X509V3_add_value_int
                0x00000000401ffc57                X509V3_get_value_bool
                0x00000000401ffdce                X509V3_get_value_int
                0x00000000401ffe3f                X509V3_parse_list
                0x0000000040200072                hex_to_string
                0x0000000040200139                string_to_hex
                0x00000000402002f6                name_cmp
                0x0000000040200355                X509_email_free
                0x00000000402004c1                X509_REQ_get1_email
                0x0000000040200537                X509_get1_email
                0x0000000040200591                X509_get1_ocsp
                0x0000000040200630                a2i_ipadd
                0x00000000402007a1                a2i_IPADDRESS_NC
                0x0000000040200891                a2i_IPADDRESS
                0x00000000402008ed                X509V3_NAME_from_section
                0x00000000402009e0                X509at_get_attr_count
                0x00000000402009eb                X509at_get_attr_by_OBJ
                0x0000000040200a59                X509at_get_attr_by_NID
                0x0000000040200a98                X509at_get_attr
                0x0000000040200ae3                X509at_delete_attr
                0x0000000040200b2e                X509at_add1_attr
                0x0000000040200c09                X509_ATTRIBUTE_set1_object
                0x0000000040200c52                X509_ATTRIBUTE_set1_data
                0x0000000040200dda                X509_ATTRIBUTE_create_by_OBJ
                0x0000000040200eae                X509_ATTRIBUTE_create_by_txt
                0x0000000040200f66                X509at_add1_attr_by_txt
                0x0000000040200fbc                X509_ATTRIBUTE_create_by_NID
                0x0000000040201056                X509at_add1_attr_by_NID
                0x00000000402010ac                X509at_add1_attr_by_OBJ
                0x0000000040201102                X509_ATTRIBUTE_count
                0x0000000040201124                X509_ATTRIBUTE_get0_object
                0x0000000040201139                X509_ATTRIBUTE_get0_type
                0x0000000040201190                X509_ATTRIBUTE_get0_data
                0x00000000402011f6                X509at_get0_data_by_OBJ
                0x00000000402012a4                X509_CRL_get_ext_count
                0x00000000402012b6                X509_CRL_get_ext_by_NID
                0x00000000402012c8                X509_CRL_get_ext_by_OBJ
                0x00000000402012da                X509_CRL_get_ext_by_critical
                0x00000000402012ec                X509_CRL_get_ext
                0x00000000402012fe                X509_CRL_delete_ext
                0x0000000040201310                X509_CRL_get_ext_d2i
                0x0000000040201322                X509_CRL_add1_ext_i2d
                0x0000000040201334                X509_CRL_add_ext
                0x000000004020134f                X509_get_ext_count
                0x0000000040201361                X509_get_ext_by_NID
                0x0000000040201373                X509_get_ext_by_OBJ
                0x0000000040201385                X509_get_ext_by_critical
                0x0000000040201397                X509_get_ext
                0x00000000402013a9                X509_delete_ext
                0x00000000402013bb                X509_add_ext
                0x00000000402013d6                X509_get_ext_d2i
                0x00000000402013e8                X509_add1_ext_i2d
                0x00000000402013fa                X509_REVOKED_get_ext_count
                0x0000000040201409                X509_REVOKED_get_ext_by_NID
                0x0000000040201418                X509_REVOKED_get_ext_by_OBJ
                0x0000000040201427                X509_REVOKED_get_ext_by_critical
                0x0000000040201436                X509_REVOKED_get_ext
                0x0000000040201445                X509_REVOKED_delete_ext
                0x0000000040201454                X509_REVOKED_add_ext
                0x000000004020146c                X509_REVOKED_get_ext_d2i
                0x000000004020147b                X509_REVOKED_add1_ext_i2d
                0x00000000402015fe                X509_LOOKUP_new
                0x000000004020166d                X509_LOOKUP_free
                0x00000000402016a1                X509_LOOKUP_init
                0x00000000402016c2                X509_LOOKUP_shutdown
                0x00000000402016e3                X509_LOOKUP_ctrl
                0x000000004020170a                X509_LOOKUP_by_subject
                0x0000000040201731                X509_LOOKUP_by_issuer_serial
                0x0000000040201751                X509_LOOKUP_by_fingerprint
                0x0000000040201771                X509_LOOKUP_by_alias
                0x0000000040201791                X509_STORE_new
                0x0000000040201889                X509_STORE_free
                0x0000000040201919                X509_STORE_add_lookup
                0x00000000402019a1                X509_OBJECT_up_ref_count
                0x00000000402019fb                X509_OBJECT_free_contents
                0x0000000040201a23                X509_OBJECT_idx_by_subject
                0x0000000040201a33                X509_OBJECT_retrieve_by_subject
                0x0000000040201a5f                X509_STORE_get_by_subject
                0x0000000040201b73                X509_STORE_get1_certs
                0x0000000040201d45                X509_STORE_get1_crls
                0x0000000040201f08                X509_OBJECT_retrieve_match
                0x0000000040201fdb                X509_STORE_add_crl
                0x00000000402020ef                X509_STORE_add_cert
                0x0000000040202203                X509_STORE_CTX_get1_issuer
                0x00000000402023c9                X509_STORE_set_flags
                0x00000000402023d8                X509_STORE_set_depth
                0x00000000402023ec                X509_STORE_set_purpose
                0x00000000402023fb                X509_STORE_set_trust
                0x000000004020240a                X509_STORE_set1_param
                0x0000000040202419                X509_STORE_set_verify_cb
                0x0000000040202430                X509_to_X509_REQ
                0x000000004020253c                X509_REQ_get_pubkey
                0x0000000040202564                X509_REQ_check_private_key
                0x0000000040202699                X509_REQ_extension_nid
                0x00000000402026d8                X509_REQ_get_extension_nids
                0x00000000402026e5                X509_REQ_set_extension_nids
                0x00000000402026f2                X509_REQ_add_extensions_nid
                0x0000000040202815                X509_REQ_add_extensions
                0x0000000040202825                X509_REQ_get_attr_count
                0x0000000040202837                X509_REQ_get_attr_by_NID
                0x0000000040202849                X509_REQ_get_attr_by_OBJ
                0x000000004020285b                X509_REQ_get_attr
                0x000000004020286d                X509_REQ_get_extensions
                0x000000004020296f                X509_REQ_delete_attr
                0x0000000040202981                X509_REQ_add1_attr
                0x000000004020299c                X509_REQ_add1_attr_by_OBJ
                0x00000000402029b7                X509_REQ_add1_attr_by_NID
                0x00000000402029d2                X509_REQ_add1_attr_by_txt
                0x0000000040202b75                X509_TRUST_set_default
                0x0000000040202b89                X509_TRUST_get_count
                0x0000000040202ba8                X509_TRUST_get0
                0x0000000040202bdc                X509_TRUST_get_by_id
                0x0000000040202c1c                X509_check_trust
                0x0000000040202c7f                X509_TRUST_set
                0x0000000040202cd9                X509_TRUST_add
                0x0000000040202e85                X509_TRUST_cleanup
                0x0000000040202ed1                X509_TRUST_get_flags
                0x0000000040202eda                X509_TRUST_get0_name
                0x0000000040202ee4                X509_TRUST_get_trust
                0x0000000040202ef0                X509v3_get_ext_count
                0x0000000040202f05                X509v3_get_ext_by_OBJ
                0x0000000040202f73                X509v3_get_ext_by_NID
                0x0000000040202fb2                X509v3_get_ext_by_critical
                0x0000000040203028                X509v3_get_ext
                0x0000000040203073                X509v3_delete_ext
                0x00000000402030be                X509v3_add_ext
                0x00000000402031c3                X509_EXTENSION_set_object
                0x000000004020320c                X509_EXTENSION_set_critical
                0x000000004020322b                X509_EXTENSION_set_data
                0x0000000040203255                X509_EXTENSION_create_by_OBJ
                0x000000004020332f                X509_EXTENSION_create_by_NID
                0x00000000402033bb                X509_EXTENSION_get_object
                0x00000000402033d0                X509_EXTENSION_get_data
                0x00000000402033e6                X509_EXTENSION_get_critical
                0x0000000040203400                X509_NAME_entry_count
                0x0000000040203418                X509_NAME_get_index_by_OBJ
                0x000000004020348b                X509_NAME_get_index_by_NID
                0x00000000402034ca                X509_NAME_get_entry
                0x0000000040203518                X509_NAME_delete_entry
                0x00000000402035e4                X509_NAME_add_entry
                0x0000000040203758                X509_NAME_ENTRY_set_object
                0x00000000402037c4                X509_NAME_ENTRY_set_data
                0x00000000402038a9                X509_NAME_ENTRY_create_by_OBJ
                0x000000004020395c                X509_NAME_ENTRY_create_by_NID
                0x00000000402039f2                X509_NAME_add_entry_by_NID
                0x0000000040203a59                X509_NAME_ENTRY_create_by_txt
                0x0000000040203b11                X509_NAME_add_entry_by_txt
                0x0000000040203b78                X509_NAME_add_entry_by_OBJ
                0x0000000040203bdf                X509_NAME_ENTRY_get_object
                0x0000000040203bf4                X509_NAME_ENTRY_get_data
                0x0000000040203c0a                X509_NAME_get_text_by_OBJ
                0x0000000040203c8c                X509_NAME_get_text_by_NID
                0x0000000040203cdc                X509_REQ_set_version
                0x0000000040203cf8                X509_REQ_set_subject_name
                0x0000000040203d19                X509_REQ_set_pubkey
                0x0000000040203d3c                d2i_X509_VAL
                0x0000000040203d4c                i2d_X509_VAL
                0x0000000040203d5c                X509_VAL_new
                0x0000000040203d6c                X509_VAL_free
                0x0000000040203d80                CRYPTO_cbc128_encrypt
                0x0000000040203ecb                CRYPTO_cbc128_decrypt
                0x0000000040204214                CRYPTO_cfb128_encrypt
                0x00000000402044c5                CRYPTO_cfb128_1_encrypt
                0x000000004020458f                CRYPTO_cfb128_8_encrypt
                0x00000000402045fc                CRYPTO_ofb128_encrypt
                0x0000000040204728                i2d_ASN1_BOOLEAN
                0x00000000402047a2                d2i_ASN1_BOOLEAN
                0x0000000040204ae0                ASN1_mbstring_ncopy
                0x0000000040204fe5                ASN1_mbstring_copy
                0x0000000040205010                ASN1_PRINTABLE_type
                0x00000000402050d1                ASN1_UNIVERSALSTRING_to_string
                0x00000000402051bf                ASN1_STRING_set_default_mask
                0x00000000402051cc                ASN1_STRING_get_default_mask
                0x00000000402051d9                ASN1_STRING_set_default_mask_asc
                0x000000004020529c                ASN1_STRING_TABLE_get
                0x0000000040205302                ASN1_STRING_set_by_NID
                0x00000000402053c1                ASN1_STRING_TABLE_add
                0x00000000402054f6                ASN1_STRING_TABLE_cleanup
                0x0000000040205520                ASN1_seq_unpack
                0x0000000040205585                ASN1_seq_pack
                0x0000000040205683                ASN1_unpack_string
                0x00000000402056d6                ASN1_pack_string
                0x00000000402057d8                ASN1_item_pack
                0x00000000402058d1                ASN1_item_unpack
                0x0000000040205928                BN_mod_exp2_mont
                0x00000000402061b4                BN_kronecker
                0x00000000402064da                BN_get0_nist_prime_192
                0x00000000402064e5                BN_get0_nist_prime_224
                0x00000000402064f0                BN_get0_nist_prime_256
                0x00000000402064fb                BN_get0_nist_prime_384
                0x0000000040206506                BN_get0_nist_prime_521
                0x0000000040206511                BN_nist_mod_192
                0x000000004020677f                BN_nist_mod_224
                0x0000000040206ac5                BN_nist_mod_256
                0x0000000040206f5d                BN_nist_mod_384
                0x00000000402074fd                BN_nist_mod_521
                0x00000000402076e0                BN_mod_sqrt
                0x000000004020808b                CONF_modules_load
                0x000000004020850c                CONF_modules_finish
                0x0000000040208586                CONF_modules_unload
                0x000000004020863c                CONF_module_add
                0x000000004020865e                CONF_modules_free
                0x0000000040208673                CONF_imodule_get_name
                0x000000004020867d                CONF_imodule_get_value
                0x0000000040208687                CONF_imodule_get_usr_data
                0x0000000040208691                CONF_imodule_set_usr_data
                0x000000004020869b                CONF_imodule_get_module
                0x00000000402086a4                CONF_imodule_get_flags
                0x00000000402086ae                CONF_imodule_set_flags
                0x00000000402086b8                CONF_module_get_usr_data
                0x00000000402086c2                CONF_module_set_usr_data
                0x00000000402086cc                CONF_get1_default_config_file
                0x0000000040208747                CONF_modules_load_file
                0x0000000040208821                CONF_parse_list
                0x0000000040208930                DSO_set_default_method
                0x000000004020893d                DSO_get_default_method
                0x000000004020894a                DSO_get_method
                0x0000000040208953                DSO_set_method
                0x000000004020895f                DSO_new_method
                0x0000000040208a52                DSO_new
                0x0000000040208a62                DSO_free
                0x0000000040208b78                DSO_flags
                0x0000000040208b8b                DSO_up_ref
                0x0000000040208bdd                DSO_bind_var
                0x0000000040208c7b                DSO_bind_func
                0x0000000040208d19                DSO_ctrl
                0x0000000040208db1                DSO_set_name_converter
                0x0000000040208df5                DSO_get_filename
                0x0000000040208e28                DSO_set_filename
                0x0000000040208f25                DSO_load
                0x00000000402090d4                DSO_merge
                0x0000000040209137                DSO_convert_filename
                0x0000000040209247                DSO_get_loaded_filename
                0x000000004020927a                DSO_pathbyaddr
                0x00000000402092ee                DSO_global_lookup
                0x0000000040209348                DSO_METHOD_openssl
                0x0000000040209360                ec_GF2m_simple_is_at_infinity
                0x0000000040209370                ec_GF2m_simple_points_make_affine
                0x00000000402093d9                ec_GF2m_simple_field_div
                0x00000000402093f4                ec_GF2m_simple_field_sqr
                0x000000004020940f                ec_GF2m_simple_field_mul
                0x000000004020942d                ec_GF2m_simple_point_copy
                0x0000000040209492                ec_GF2m_simple_group_get_curve
                0x000000004020951a                ec_GF2m_simple_point_set_to_infinity
                0x000000004020953a                ec_GF2m_simple_make_affine
                0x000000004020964e                ec_GF2m_simple_cmp
                0x00000000402097eb                ec_GF2m_simple_is_on_curve
                0x0000000040209989                ec_GF2m_simple_invert
                0x00000000402099f3                ec_GF2m_simple_add
                0x0000000040209e0a                ec_GF2m_simple_dbl
                0x0000000040209e1b                ec_GF2m_simple_oct2point
                0x000000004020a1db                ec_GF2m_simple_group_get_degree
                0x000000004020a1ed                ec_GF2m_simple_point2oct
                0x000000004020a59e                ec_GF2m_simple_group_check_discriminant
                0x000000004020a675                ec_GF2m_simple_set_compressed_coordinates
                0x000000004020a909                ec_GF2m_simple_point_get_affine_coordinates
                0x000000004020a9fd                ec_GF2m_simple_point_set_affine_coordinates
                0x000000004020aadd                ec_GF2m_simple_point_clear_finish
                0x000000004020ab12                ec_GF2m_simple_group_clear_finish
                0x000000004020ab82                ec_GF2m_simple_point_finish
                0x000000004020abb0                ec_GF2m_simple_group_finish
                0x000000004020abe4                ec_GF2m_simple_point_init
                0x000000004020ac17                ec_GF2m_simple_group_init
                0x000000004020ac50                ec_GF2m_simple_group_set_curve
                0x000000004020adfe                ec_GF2m_simple_group_copy
                0x000000004020af9d                EC_GF2m_simple_method
                0x000000004020afa8                d2i_ECDSA_SIG
                0x000000004020afb8                i2d_ECDSA_SIG
                0x000000004020afc8                ECDSA_SIG_new
                0x000000004020afd8                ECDSA_SIG_free
                0x000000004020affe                ERR_print_errors_cb
                0x000000004020b0ee                ERR_print_errors
                0x000000004020b104                PKCS12_item_pack_safebag
                0x000000004020b200                PKCS12_MAKE_KEYBAG
                0x000000004020b25f                PKCS12_MAKE_SHKEYBAG
                0x000000004020b350                PKCS12_pack_p7data
                0x000000004020b414                PKCS12_unpack_p7data
                0x000000004020b469                PKCS12_pack_p7encdata
                0x000000004020b60a                PKCS12_unpack_p7encdata
                0x000000004020b674                PKCS12_decrypt_skey
                0x000000004020b683                PKCS12_pack_authsafes
                0x000000004020b6aa                PKCS12_unpack_authsafes
                0x000000004020b708                d2i_PKCS12
                0x000000004020b718                i2d_PKCS12
                0x000000004020b728                PKCS12_new
                0x000000004020b738                PKCS12_free
                0x000000004020b748                d2i_PKCS12_MAC_DATA
                0x000000004020b758                i2d_PKCS12_MAC_DATA
                0x000000004020b768                PKCS12_MAC_DATA_new
                0x000000004020b778                PKCS12_MAC_DATA_free
                0x000000004020b788                d2i_PKCS12_BAGS
                0x000000004020b798                i2d_PKCS12_BAGS
                0x000000004020b7a8                PKCS12_BAGS_new
                0x000000004020b7b8                PKCS12_BAGS_free
                0x000000004020b7c8                d2i_PKCS12_SAFEBAG
                0x000000004020b7d8                i2d_PKCS12_SAFEBAG
                0x000000004020b7e8                PKCS12_SAFEBAG_new
                0x000000004020b7f8                PKCS12_SAFEBAG_free
                0x000000004020b808                PKCS12_pbe_crypt
                0x000000004020b988                PKCS12_item_decrypt_d2i
                0x000000004020ba54                PKCS12_item_i2d_encrypt
                0x000000004020bb90                PKCS8_encrypt
                0x000000004020bcc8                X509_policy_tree_level_count
                0x000000004020bcdb                X509_policy_tree_get0_level
                0x000000004020bd0a                X509_policy_tree_get0_policies
                0x000000004020bd20                X509_policy_tree_get0_user_policies
                0x000000004020bd42                X509_policy_level_node_count
                0x000000004020bd79                X509_policy_level_get0_node
                0x000000004020bda4                X509_policy_node_get0_policy
                0x000000004020bdbd                X509_policy_node_get0_qualifiers
                0x000000004020bdd6                X509_policy_node_get0_parent
                0x000000004020be0b                policy_node_cmp_new
                0x000000004020be1b                tree_find_sk
                0x000000004020be57                level_find_node
                0x000000004020becb                policy_node_free
                0x000000004020bed6                level_add_node
                0x000000004020bfd2                policy_node_match
                0x000000004020c1d9                i2v_GENERAL_NAME
                0x000000004020c460                i2v_GENERAL_NAMES
                0x000000004020c4c4                GENERAL_NAME_print
                0x000000004020c668                a2i_GENERAL_NAME
                0x000000004020ca2c                v2i_GENERAL_NAME_ex
                0x000000004020cb99                v2i_GENERAL_NAME
                0x000000004020cee4                v2i_GENERAL_NAMES
                0x000000004020cfdd                d2i_BASIC_CONSTRAINTS
                0x000000004020cfed                i2d_BASIC_CONSTRAINTS
                0x000000004020cffd                BASIC_CONSTRAINTS_new
                0x000000004020d00d                BASIC_CONSTRAINTS_free
                0x000000004020d7a5                X509V3_EXT_nconf
                0x000000004020d87c                X509V3_EXT_nconf_nid
                0x000000004020d90c                X509V3_EXT_i2d
                0x000000004020d976                X509V3_EXT_add_nconf_sk
                0x000000004020da1e                X509V3_EXT_add_nconf
                0x000000004020da3d                X509V3_EXT_CRL_add_nconf
                0x000000004020da5c                X509V3_EXT_REQ_add_nconf
                0x000000004020dabb                X509V3_get_string
                0x000000004020db06                X509V3_get_section
                0x000000004020db52                X509V3_string_free
                0x000000004020db70                X509V3_section_free
                0x000000004020db8e                X509V3_set_nconf
                0x000000004020dba0                X509V3_set_ctx
                0x000000004020dbb9                X509V3_EXT_conf
                0x000000004020dc02                X509V3_EXT_conf_nid
                0x000000004020dc4b                X509V3_set_conf_lhash
                0x000000004020dc5d                X509V3_EXT_add_conf
                0x000000004020dca6                X509V3_EXT_CRL_add_conf
                0x000000004020dcef                X509V3_EXT_REQ_add_conf
                0x000000004020de8f                ACCESS_DESCRIPTION_free
                0x000000004020de9f                d2i_ACCESS_DESCRIPTION
                0x000000004020deaf                i2d_ACCESS_DESCRIPTION
                0x000000004020debf                ACCESS_DESCRIPTION_new
                0x000000004020e0e9                d2i_AUTHORITY_INFO_ACCESS
                0x000000004020e0f9                i2d_AUTHORITY_INFO_ACCESS
                0x000000004020e109                AUTHORITY_INFO_ACCESS_new
                0x000000004020e119                AUTHORITY_INFO_ACCESS_free
                0x000000004020e129                i2a_ACCESS_DESCRIPTION
                0x000000004020e16c                X509V3_EXT_add
                0x000000004020e200                X509V3_EXT_get_nid
                0x000000004020e278                X509V3_EXT_get
                0x000000004020e296                X509V3_EXT_add_list
                0x000000004020e2d4                X509V3_EXT_add_alias
                0x000000004020e3cf                X509V3_EXT_cleanup
                0x000000004020e3f1                X509V3_add_standard_extensions
                0x000000004020e3fc                X509V3_EXT_d2i
                0x000000004020e457                X509V3_get_d2i
                0x000000004020e57f                X509V3_add1_i2d
                0x000000004020f540                d2i_PROXY_POLICY
                0x000000004020f550                i2d_PROXY_POLICY
                0x000000004020f560                PROXY_POLICY_new
                0x000000004020f570                PROXY_POLICY_free
                0x000000004020f580                d2i_PROXY_CERT_INFO_EXTENSION
                0x000000004020f590                i2d_PROXY_CERT_INFO_EXTENSION
                0x000000004020f5a0                PROXY_CERT_INFO_EXTENSION_new
                0x000000004020f5b0                PROXY_CERT_INFO_EXTENSION_free
                0x000000004020f651                d2i_PKEY_USAGE_PERIOD
                0x000000004020f661                i2d_PKEY_USAGE_PERIOD
                0x000000004020f671                PKEY_USAGE_PERIOD_new
                0x000000004020f681                PKEY_USAGE_PERIOD_free
                0x000000004020f6a0                i2s_ASN1_OCTET_STRING
                0x000000004020f6b5                s2i_ASN1_OCTET_STRING
                0x000000004020f967                d2i_SXNETID
                0x000000004020f977                i2d_SXNETID
                0x000000004020f987                SXNETID_new
                0x000000004020f997                SXNETID_free
                0x000000004020f9a7                d2i_SXNET
                0x000000004020f9b7                i2d_SXNET
                0x000000004020f9c7                SXNET_new
                0x000000004020f9d7                SXNET_free
                0x000000004020f9e7                SXNET_get_id_INTEGER
                0x000000004020fa46                SXNET_get_id_ulong
                0x000000004020fad7                SXNET_get_id_asc
                0x000000004020fb46                SXNET_add_id_INTEGER
                0x000000004020fd06                SXNET_add_id_ulong
                0x000000004020fda4                SXNET_add_id_asc
                0x000000004020fe78                X509_get_default_private_dir
                0x000000004020fe83                X509_get_default_cert_area
                0x000000004020fe8e                X509_get_default_cert_dir
                0x000000004020fe99                X509_get_default_cert_file
                0x000000004020fea4                X509_get_default_cert_dir_env
                0x000000004020feaf                X509_get_default_cert_file_env
                0x000000004020ff01                i2d_ASN1_SET
                0x000000004021016a                d2i_ASN1_SET
                0x0000000040210a2f                ASN1_generate_v3
                0x0000000040211361                ASN1_generate_nconf
                0x000000004021156c                BN_GF2m_add
                0x000000004021164a                BN_GF2m_mod_arr
                0x00000000402118e6                BN_GF2m_mod_sqr_arr
                0x0000000040211a8a                BN_GF2m_mod_mul_arr
                0x0000000040211cf0                BN_GF2m_mod_exp_arr
                0x0000000040211e27                BN_GF2m_mod_sqrt_arr
                0x0000000040211ecf                BN_GF2m_mod_solve_quad_arr
                0x0000000040212299                BN_GF2m_poly2arr
                0x0000000040212323                BN_GF2m_mod_solve_quad
                0x00000000402123f0                BN_GF2m_mod_sqrt
                0x00000000402124bd                BN_GF2m_mod_exp
                0x0000000040212592                BN_GF2m_mod_sqr
                0x000000004021265f                BN_GF2m_mod_mul
                0x0000000040212734                BN_GF2m_mod
                0x00000000402127f9                BN_GF2m_mod_inv
                0x00000000402129d9                BN_GF2m_mod_div
                0x0000000040212a76                BN_GF2m_arr2poly
                0x0000000040212adb                BN_GF2m_mod_div_arr
                0x0000000040212b6f                BN_GF2m_mod_inv_arr
                0x0000000040212c00                CONF_set_nconf
                0x0000000040212c47                CONF_set_default_method
                0x0000000040212c59                CONF_load
                0x0000000040212c83                NCONF_new
                0x0000000040212cd0                NCONF_free
                0x0000000040212ce1                NCONF_free_data
                0x0000000040212cf2                CONF_free
                0x0000000040212d11                NCONF_load
                0x0000000040212d46                NCONF_load_bio
                0x0000000040212d7b                CONF_load_bio
                0x0000000040212dc5                NCONF_get_section
                0x0000000040212e22                CONF_get_section
                0x0000000040212e57                NCONF_get_string
                0x0000000040212efe                CONF_get_string
                0x0000000040212f45                NCONF_get_number_e
                0x0000000040212fe0                CONF_get_number
                0x000000004021303e                NCONF_dump_bio
                0x0000000040213073                CONF_dump_bio
                0x00000000402130a0                DSO_METHOD_null
                0x000000004021396a                ec_GF2m_simple_mul
                0x0000000040213bc5                ec_GF2m_precompute_mult
                0x0000000040213bd0                ec_GF2m_have_precompute_mult
                0x0000000040213bdc                i2a_ASN1_INTEGER
                0x0000000040213d1d                a2i_ASN1_INTEGER
                0x0000000040214020                i2a_ASN1_STRING
                0x0000000040214131                a2i_ASN1_STRING
                0x00000000402143e8                d2i_OCSP_SIGNATURE
                0x00000000402143f8                i2d_OCSP_SIGNATURE
                0x0000000040214408                OCSP_SIGNATURE_new
                0x0000000040214418                OCSP_SIGNATURE_free
                0x0000000040214428                d2i_OCSP_CERTID
                0x0000000040214438                i2d_OCSP_CERTID
                0x0000000040214448                OCSP_CERTID_new
                0x0000000040214458                OCSP_CERTID_free
                0x0000000040214468                d2i_OCSP_ONEREQ
                0x0000000040214478                i2d_OCSP_ONEREQ
                0x0000000040214488                OCSP_ONEREQ_new
                0x0000000040214498                OCSP_ONEREQ_free
                0x00000000402144a8                d2i_OCSP_REQINFO
                0x00000000402144b8                i2d_OCSP_REQINFO
                0x00000000402144c8                OCSP_REQINFO_new
                0x00000000402144d8                OCSP_REQINFO_free
                0x00000000402144e8                d2i_OCSP_REQUEST
                0x00000000402144f8                i2d_OCSP_REQUEST
                0x0000000040214508                OCSP_REQUEST_new
                0x0000000040214518                OCSP_REQUEST_free
                0x0000000040214528                d2i_OCSP_RESPBYTES
                0x0000000040214538                i2d_OCSP_RESPBYTES
                0x0000000040214548                OCSP_RESPBYTES_new
                0x0000000040214558                OCSP_RESPBYTES_free
                0x0000000040214568                d2i_OCSP_RESPONSE
                0x0000000040214578                i2d_OCSP_RESPONSE
                0x0000000040214588                OCSP_RESPONSE_new
                0x0000000040214598                OCSP_RESPONSE_free
                0x00000000402145a8                d2i_OCSP_RESPID
                0x00000000402145b8                i2d_OCSP_RESPID
                0x00000000402145c8                OCSP_RESPID_new
                0x00000000402145d8                OCSP_RESPID_free
                0x00000000402145e8                d2i_OCSP_REVOKEDINFO
                0x00000000402145f8                i2d_OCSP_REVOKEDINFO
                0x0000000040214608                OCSP_REVOKEDINFO_new
                0x0000000040214618                OCSP_REVOKEDINFO_free
                0x0000000040214628                d2i_OCSP_CERTSTATUS
                0x0000000040214638                i2d_OCSP_CERTSTATUS
                0x0000000040214648                OCSP_CERTSTATUS_new
                0x0000000040214658                OCSP_CERTSTATUS_free
                0x0000000040214668                d2i_OCSP_SINGLERESP
                0x0000000040214678                i2d_OCSP_SINGLERESP
                0x0000000040214688                OCSP_SINGLERESP_new
                0x0000000040214698                OCSP_SINGLERESP_free
                0x00000000402146a8                d2i_OCSP_RESPDATA
                0x00000000402146b8                i2d_OCSP_RESPDATA
                0x00000000402146c8                OCSP_RESPDATA_new
                0x00000000402146d8                OCSP_RESPDATA_free
                0x00000000402146e8                d2i_OCSP_BASICRESP
                0x00000000402146f8                i2d_OCSP_BASICRESP
                0x0000000040214708                OCSP_BASICRESP_new
                0x0000000040214718                OCSP_BASICRESP_free
                0x0000000040214728                d2i_OCSP_CRLID
                0x0000000040214738                i2d_OCSP_CRLID
                0x0000000040214748                OCSP_CRLID_new
                0x0000000040214758                OCSP_CRLID_free
                0x0000000040214768                d2i_OCSP_SERVICELOC
                0x0000000040214778                i2d_OCSP_SERVICELOC
                0x0000000040214788                OCSP_SERVICELOC_new
                0x0000000040214798                OCSP_SERVICELOC_free
                0x0000000040214b5c                v2i_ASN1_BIT_STRING
                0x0000000040214cdf                i2v_ASN1_BIT_STRING
                0x0000000040214d34                i2s_ASN1_ENUMERATED_TABLE
                0x0000000040214f00                d2i_EXTENDED_KEY_USAGE
                0x0000000040214f10                i2d_EXTENDED_KEY_USAGE
                0x0000000040214f20                EXTENDED_KEY_USAGE_new
                0x0000000040214f30                EXTENDED_KEY_USAGE_free
                0x00000000402151a8                _CONF_get_section
                0x00000000402151dc                _CONF_get_section_values
                0x00000000402151f7                _CONF_add_string
                0x0000000040215282                _CONF_get_string
                0x0000000040215320                _CONF_new_data
                0x0000000040215362                _CONF_free_data
                0x00000000402153b3                _CONF_new_section
                0x0000000040216341                NCONF_default
                0x000000004021634c                NCONF_WIN32
                0x0000000040216358                codeend = .

.iplt           0x0000000040216360        0x0 load address 0x0000000000216360
 .iplt          0x0000000000000000        0x0 output.o

.rodata         0x0000000040216360    0x34fcc load address 0x0000000000216360
 .rodata        0x0000000040216360    0x34fcc output.o
                0x0000000040224500                BN_version
                0x0000000040224920                DES_SPtrans
                0x0000000040225920                DH_version
                0x0000000040226e00                OSSL_DES_version
                0x0000000040226e40                OSSL_libdes_version
                0x0000000040226f20                EVP_version
                0x0000000040226fe0                IDEA_version
                0x0000000040227020                lh_version
                0x0000000040227660                MD4_version
                0x00000000402276a0                MD5_version
                0x0000000040234220                PEM_version
                0x0000000040234280                PKCS7_ATTR_VERIFY_it
                0x00000000402342c0                PKCS7_ATTR_SIGN_it
                0x0000000040234300                PKCS7_DIGEST_it
                0x0000000040234340                PKCS7_ENCRYPT_it
                0x0000000040234380                PKCS7_SIGN_ENVELOPE_it
                0x00000000402343c0                PKCS7_ENC_CONTENT_it
                0x0000000040234400                PKCS7_RECIP_INFO_it
                0x0000000040234440                PKCS7_ENVELOPE_it
                0x0000000040234480                PKCS7_ISSUER_AND_SERIAL_it
                0x00000000402344c0                PKCS7_SIGNER_INFO_it
                0x0000000040234500                PKCS7_SIGNED_it
                0x0000000040234540                PKCS7_it
                0x0000000040235000                RC2_version
                0x0000000040235140                RC4_version
                0x0000000040235180                RMD160_version
                0x00000000402351c0                RSAPublicKey_it
                0x0000000040235200                RSAPrivateKey_it
                0x00000000402354a0                RSA_version
                0x00000000402366a0                SHA1_version
                0x00000000402366e0                SHA256_version
                0x0000000040236820                SHA512_version
                0x0000000040236ae0                SHA_version
                0x0000000040236b20                STACK_version
                0x0000000040236d80                ASN1_SET_ANY_it
                0x0000000040236dc0                ASN1_SEQUENCE_ANY_it
                0x0000000040236e00                ASN1_OCTET_STRING_NDEF_it
                0x0000000040236e40                ASN1_FBOOLEAN_it
                0x0000000040236e80                ASN1_TBOOLEAN_it
                0x0000000040236ec0                ASN1_BOOLEAN_it
                0x0000000040236f00                DIRECTORYSTRING_it
                0x0000000040236f40                DISPLAYTEXT_it
                0x0000000040236f80                ASN1_PRINTABLE_it
                0x0000000040236fc0                ASN1_SEQUENCE_it
                0x0000000040237000                ASN1_ANY_it
                0x0000000040237040                ASN1_BMPSTRING_it
                0x0000000040237080                ASN1_UNIVERSALSTRING_it
                0x00000000402370c0                ASN1_VISIBLESTRING_it
                0x0000000040237100                ASN1_GENERALIZEDTIME_it
                0x0000000040237140                ASN1_UTCTIME_it
                0x0000000040237180                ASN1_GENERALSTRING_it
                0x00000000402371c0                ASN1_IA5STRING_it
                0x0000000040237200                ASN1_T61STRING_it
                0x0000000040237240                ASN1_PRINTABLESTRING_it
                0x0000000040237280                ASN1_UTF8STRING_it
                0x00000000402372c0                ASN1_OBJECT_it
                0x0000000040237300                ASN1_NULL_it
                0x0000000040237340                ASN1_OCTET_STRING_it
                0x0000000040237380                ASN1_BIT_STRING_it
                0x00000000402373c0                ASN1_ENUMERATED_it
                0x0000000040237400                ASN1_INTEGER_it
                0x00000000402374e0                X509_version
                0x0000000040237640                X509_ALGORS_it
                0x0000000040237680                X509_ALGOR_it
                0x0000000040237760                X509_ATTRIBUTE_it
                0x00000000402377a0                X509_ATTRIBUTE_SET_it
                0x00000000402378a0                CBIGNUM_it
                0x00000000402378e0                BIGNUM_it
                0x0000000040237920                X509_CRL_it
                0x0000000040237960                X509_CRL_INFO_it
                0x00000000402379a0                X509_REVOKED_it
                0x0000000040237c80                X509_EXTENSIONS_it
                0x0000000040237cc0                X509_EXTENSION_it
                0x0000000040237dc0                ZLONG_it
                0x0000000040237e00                LONG_it
                0x0000000040237e40                X509_NAME_it
                0x0000000040237e80                x509_name_ff
                0x0000000040237ec0                X509_NAME_INTERNAL_it
                0x0000000040237f00                X509_NAME_ENTRIES_it
                0x0000000040237f40                X509_NAME_ENTRY_it
                0x0000000040238060                X509_PUBKEY_it
                0x0000000040238140                X509_REQ_it
                0x0000000040238180                X509_REQ_INFO_it
                0x0000000040238360                X509_SIG_it
                0x0000000040238400                NETSCAPE_SPKI_it
                0x0000000040238440                NETSCAPE_SPKAC_it
                0x0000000040238560                X509_it
                0x00000000402385a0                X509_CINF_it
                0x0000000040238880                X509_CERT_PAIR_it
                0x00000000402388c0                X509_CERT_AUX_it
                0x0000000040238ec0                rsa_pkey_meth
                0x0000000040238fa0                dh_pkey_meth
                0x0000000040239080                dsa_pkey_meth
                0x0000000040239160                ec_pkey_meth
                0x0000000040239240                hmac_pkey_meth
                0x0000000040239360                rsa_asn1_meths
                0x00000000402394e0                dh_asn1_meth
                0x00000000402395a0                dsa_asn1_meths
                0x0000000040239940                eckey_asn1_meth
                0x0000000040239a00                hmac_asn1_meth
                0x000000004023ab40                CMS_Receipt_it
                0x000000004023ab80                CMS_ReceiptRequest_it
                0x000000004023abc0                CMS_ReceiptsFrom_it
                0x000000004023ac00                CMS_Attributes_Verify_it
                0x000000004023ac40                CMS_Attributes_Sign_it
                0x000000004023ac80                CMS_ContentInfo_it
                0x000000004023acc0                CMS_CompressedData_it
                0x000000004023ad00                CMS_AuthenticatedData_it
                0x000000004023ad40                CMS_EncryptedData_it
                0x000000004023ad80                CMS_DigestedData_it
                0x000000004023adc0                CMS_EnvelopedData_it
                0x000000004023ae00                CMS_RecipientInfo_it
                0x000000004023ae40                CMS_OtherRecipientInfo_it
                0x000000004023ae80                CMS_PasswordRecipientInfo_it
                0x000000004023aec0                CMS_KEKRecipientInfo_it
                0x000000004023af00                CMS_KEKIdentifier_it
                0x000000004023af40                CMS_KeyAgreeRecipientInfo_it
                0x000000004023af80                CMS_OriginatorIdentifierOrKey_it
                0x000000004023afc0                CMS_OriginatorPublicKey_it
                0x000000004023b000                CMS_RecipientEncryptedKey_it
                0x000000004023b040                CMS_KeyAgreeRecipientIdentifier_it
                0x000000004023b080                CMS_RecipientKeyIdentifier_it
                0x000000004023b0c0                CMS_OtherKeyAttribute_it
                0x000000004023b100                CMS_KeyTransRecipientInfo_it
                0x000000004023b140                CMS_EncryptedContentInfo_it
                0x000000004023b180                CMS_OriginatorInfo_it
                0x000000004023b1c0                CMS_SignedData_it
                0x000000004023b200                CMS_RevocationInfoChoice_it
                0x000000004023b240                CMS_OtherRevocationInfoFormat_it
                0x000000004023b280                CMS_SignerInfo_it
                0x000000004023b2c0                CMS_EncapsulatedContentInfo_it
                0x000000004023b300                CMS_SignerIdentifier_it
                0x000000004023b340                CMS_CertificateChoices_it
                0x000000004023b380                CMS_OtherCertificateFormat_it
                0x000000004023b3c0                CMS_IssuerAndSerialNumber_it
                0x000000004023cc00                ASN1_TIME_it
                0x000000004023cc80                ASN1_version
                0x000000004023cde0                BF_version
                0x000000004023ef80                CAST_version
                0x000000004023f040                CAST_S_table7
                0x000000004023f440                CAST_S_table6
                0x000000004023f840                CAST_S_table5
                0x000000004023fc40                CAST_S_table4
                0x0000000040240040                CAST_S_table3
                0x0000000040240440                CAST_S_table2
                0x0000000040240840                CAST_S_table1
                0x0000000040240c40                CAST_S_table0
                0x0000000040241280                DHparams_it
                0x0000000040241380                DSAPublicKey_it
                0x00000000402413c0                dsa_pub_internal_it
                0x0000000040241400                DSAparams_it
                0x0000000040241440                DSAPrivateKey_it
                0x0000000040241480                DSA_SIG_it
                0x00000000402418a0                DSA_version
                0x00000000402418e0                EC_PRIVATEKEY_it
                0x0000000040241920                ECPKPARAMETERS_it
                0x0000000040241960                ECPARAMETERS_it
                0x00000000402419a0                X9_62_CURVE_it
                0x00000000402419e0                X9_62_FIELDID_it
                0x0000000040241a20                X9_62_CHARACTERISTIC_TWO_it
                0x0000000040241a60                X9_62_PENTANOMIAL_it
                0x0000000040245a20                ECDH_version
                0x0000000040245e20                ECDSA_version
                0x0000000040246120                RAND_version
                0x0000000040246160                NETSCAPE_CERT_SEQUENCE_it
                0x0000000040246240                PBEPARAM_it
                0x00000000402462e0                PBKDF2PARAM_it
                0x0000000040246320                PBE2PARAM_it
                0x0000000040246460                PKCS8_PRIV_KEY_INFO_it
                0x0000000040246620                AUTHORITY_KEYID_it
                0x00000000402466e0                NOTICEREF_it
                0x0000000040246720                USERNOTICE_it
                0x0000000040246760                POLICYQUALINFO_it
                0x00000000402467a0                POLICYINFO_it
                0x00000000402467e0                CERTIFICATEPOLICIES_it
                0x0000000040246820                v3_cpols
                0x0000000040246b40                v3_idp
                0x0000000040246bc0                ISSUING_DIST_POINT_it
                0x0000000040246c00                CRL_DIST_POINTS_it
                0x0000000040246c40                DIST_POINT_it
                0x0000000040246c80                DIST_POINT_NAME_it
                0x0000000040246cc0                v3_freshest_crl
                0x0000000040246d40                v3_crld
                0x0000000040247200                GENERAL_NAMES_it
                0x0000000040247240                GENERAL_NAME_it
                0x0000000040247280                EDIPARTYNAME_it
                0x00000000402472c0                OTHERNAME_it
                0x0000000040247580                NAME_CONSTRAINTS_it
                0x00000000402475c0                GENERAL_SUBTREE_it
                0x0000000040247600                v3_name_constraints
                0x0000000040247760                POLICY_CONSTRAINTS_it
                0x00000000402477a0                v3_policy_constraints
                0x0000000040247880                POLICY_MAPPINGS_it
                0x00000000402478c0                POLICY_MAPPING_it
                0x0000000040247900                v3_policy_mappings
                0x0000000040247a80                X509_VAL_it
                0x0000000040248520                ECDSA_SIG_it
                0x00000000402485c0                PKCS12_AUTHSAFES_it
                0x0000000040248600                PKCS12_SAFEBAGS_it
                0x0000000040248640                PKCS12_SAFEBAG_it
                0x0000000040248680                PKCS12_BAGS_it
                0x00000000402486c0                PKCS12_MAC_DATA_it
                0x0000000040248700                PKCS12_it
                0x0000000040248d40                v3_alt
                0x0000000040248e80                BASIC_CONSTRAINTS_it
                0x0000000040248ec0                v3_bcons
                0x0000000040248fa0                AUTHORITY_INFO_ACCESS_it
                0x0000000040248fe0                ACCESS_DESCRIPTION_it
                0x0000000040249020                v3_sinfo
                0x00000000402490a0                v3_info
                0x00000000402491c0                v3_ocsp_serviceloc
                0x0000000040249240                v3_ocsp_nocheck
                0x00000000402492c0                v3_ocsp_nonce
                0x0000000040249340                v3_crl_hold
                0x00000000402493c0                v3_crl_invdate
                0x0000000040249440                v3_ocsp_acutoff
                0x00000000402494c0                v3_ocsp_crlid
                0x0000000040249540                v3_pci
                0x00000000402495c0                PROXY_CERT_INFO_EXTENSION_it
                0x0000000040249600                PROXY_POLICY_it
                0x0000000040249700                PKEY_USAGE_PERIOD_it
                0x0000000040249740                v3_pkey_usage_period
                0x0000000040249820                v3_skey_id
                0x00000000402498a0                SXNET_it
                0x00000000402498e0                SXNETID_it
                0x0000000040249920                v3_sxnet
                0x0000000040249f00                CONF_version
                0x0000000040249f40                OCSP_SERVICELOC_it
                0x0000000040249f80                OCSP_CRLID_it
                0x0000000040249fc0                OCSP_BASICRESP_it
                0x000000004024a000                OCSP_RESPDATA_it
                0x000000004024a040                OCSP_SINGLERESP_it
                0x000000004024a080                OCSP_CERTSTATUS_it
                0x000000004024a0c0                OCSP_REVOKEDINFO_it
                0x000000004024a100                OCSP_RESPID_it
                0x000000004024a140                OCSP_RESPONSE_it
                0x000000004024a180                OCSP_RESPBYTES_it
                0x000000004024a1c0                OCSP_REQUEST_it
                0x000000004024a200                OCSP_REQINFO_it
                0x000000004024a240                OCSP_ONEREQ_it
                0x000000004024a280                OCSP_CERTID_it
                0x000000004024a2c0                OCSP_SIGNATURE_it
                0x000000004024aac0                v3_akey_id
                0x000000004024ab40                v3_key_usage
                0x000000004024abc0                v3_nscert
                0x000000004024ac40                v3_crl_reason
                0x000000004024acc0                EXTENDED_KEY_USAGE_it
                0x000000004024ad00                v3_ocsp_accresp
                0x000000004024ad80                v3_ext_ku
                0x000000004024ae40                v3_ns_ia5_list
                0x000000004024b180                v3_inhibit_anyp
                0x000000004024b200                v3_delta_crl
                0x000000004024b280                v3_crl_num
                0x000000004024b300                CONF_def_version

.rodata.str1.1  0x000000004024b32c    0x12b7a load address 0x000000000024b32c
 .rodata.str1.1
                0x000000004024b32c    0x12b7a output.o
                                      0x14f90 (size before relaxing)

.rodata.str1.8  0x000000004025dea8     0x97c0 load address 0x000000000025dea8
 .rodata.str1.8
                0x000000004025dea8     0x97c0 output.o
                                       0x9ae5 (size before relaxing)

.eh_frame       0x0000000040267668    0x37640 load address 0x0000000000267668
 .eh_frame      0x0000000040267668    0x37640 output.o

.eh_frame_hdr   0x000000004029eca8        0x8 load address 0x000000000029eca8
 .eh_frame_hdr  0x000000004029eca8        0x8 output.o

.note.gnu.build-id
                0x000000004029ecb0      0x288 load address 0x000000000029ecb0
 .note.gnu.build-id
                0x000000004029ecb0      0x288 output.o

.rela.dyn       0x000000004029ef38        0x0 load address 0x000000000029ef38
 .rela.iplt     0x0000000000000000        0x0 output.o
 .rela.text     0x0000000000000000        0x0 output.o

.data           0x000000004029f000  0x95ba000 load address 0x000000000029f000
                0x000000004029f000                data = .
 *(.data)
 .data          0x000000004029f000   0x9eda78 output.o
                0x000000004029f020                config
                0x00000000402af190                use_pae
                0x00000000402af3b0                savemsr_index
                0x00000000402b0000                vmm_pml4
                0x00000000402b1000                vmm_pdp
                0x00000000402b2000                vmm_pd
                0x00000000402b3000                vmm_pd1
                0x00000000402b4000                vmm_pd2
                0x00000000402b5000                guest_int0x15_hook
                0x00000000402b501d                guest_int0x15_e801_fake_ax
                0x00000000402b5020                guest_int0x15_e801_fake_bx
                0x00000000402b5031                guest_int0x15_orig
                0x00000000402b5046                guest_int0x15_e820_data_minus0x18
                0x00000000402b504e                guest_int0x15_e820_end
                0x00000000402b5074                guest_int0x15_hook_end
                0x00000000402b6078                wakeup_entry_start
                0x00000000402b6081                wakeup_entry_addr
                0x00000000402b60a7                wakeup_entry_cr4
                0x00000000402b60b0                wakeup_entry_cr3
                0x00000000402b60b9                wakeup_entry_cr0
                0x00000000402b60c8                wakeup_entry_gdtr
                0x00000000402b60d2                wakeup_entry_end
                0x00000000402b6160                ata_bm_handler_table
                0x00000000402b61a0                ata_ctlblk_handler_table
                0x00000000402b61c0                ata_cmdblk_handler_table
                0x00000000402b6c70                usb_log_level
                0x00000000402b7600                hSessionCnt
                0x00000000402b7608                hObjectCnt
                0x00000000402b7e00                g_rgSCardT1Pci
                0x00000000402b7e10                g_rgSCardT0Pci
                0x00000000402b7e20                FI
                0x00000000402b7e60                DI
                0x00000000402bc480                default_pctx
                0x00000000402bf720                rand_ssleay_meth
                0x0000000040c8ca78                . = ALIGN (0x8)
                0x0000000040c8ca78                __initfunc_start = .
 *(.initfunc)
 .initfunc      0x0000000040c8ca78      0x640 output.o
                0x0000000040c8ca78                __initfunc_acpi_init_paral
                0x0000000040c8ca88                __initfunc_acpi_init_global
                0x0000000040c8ca98                __initfunc_beep_init_msg
                0x0000000040c8caa8                __initfunc_cache_init_pass
                0x0000000040c8cab8                __initfunc_cache_init_vcpu
                0x0000000040c8cac8                __initfunc_cache_init_pcpu
                0x0000000040c8cad8                __initfunc_callrealmode_panic
                0x0000000040c8cae8                __initfunc_callrealmode_init_global
                0x0000000040c8caf8                __initfunc_cpu_mmu_spt_init_pcpu
                0x0000000040c8cb08                __initfunc_cpu_mmu_spt_init_global
                0x0000000040c8cb18                __initfunc_cpuid_init
                0x0000000040c8cb28                __initfunc_cpuid_pass_init
                0x0000000040c8cb38                __initfunc_exint_pass_init
                0x0000000040c8cb48                __initfunc_gmm_pass_init
                0x0000000040c8cb58                __initfunc_install_int0x15_hook
                0x0000000040c8cb68                __initfunc_idman_init
                0x0000000040c8cb78                __initfunc_idman_init_global
                0x0000000040c8cb88                __initfunc_int_wakeup
                0x0000000040c8cb98                __initfunc_int_init_global
                0x0000000040c8cba8                __initfunc_io_io_init
                0x0000000040c8cbb8                __initfunc_setiohooks
                0x0000000040c8cbc8                __initfunc_io_iopass_init
                0x0000000040c8cbd8                __initfunc_keyboard_init_msg
                0x0000000040c8cbe8                __initfunc_localapic_init
                0x0000000040c8cbf8                __initfunc_get_shiftflags
                0x0000000040c8cc08                __initfunc_copy_minios
                0x0000000040c8cc18                __initfunc_print_boot_msg
                0x0000000040c8cc28                __initfunc_debug_on_shift_key
                0x0000000040c8cc38                __initfunc_create_pass_vm
                0x0000000040c8cc48                __initfunc_virtualization_init_pcpu
                0x0000000040c8cc58                __initfunc_unmap_user_area
                0x0000000040c8cc68                __initfunc_mm_init_global
                0x0000000040c8cc78                __initfunc_mmio_debug
                0x0000000040c8cc88                __initfunc_mmio_init
                0x0000000040c8cc98                __initfunc_msg_init_global
                0x0000000040c8cca8                __initfunc_msr_init
                0x0000000040c8ccb8                __initfunc_msr_pass_init
                0x0000000040c8ccc8                __initfunc_nmi_pass_init_pcpu
                0x0000000040c8ccd8                __initfunc_nmi_pass_init
                0x0000000040c8cce8                __initfunc_panic_init_pcpu
                0x0000000040c8ccf8                __initfunc_panic_init_msg
                0x0000000040c8cd08                __initfunc_panic_init_global3
                0x0000000040c8cd18                __initfunc_panic_init_global
                0x0000000040c8cd28                __initfunc_printf_init_global
                0x0000000040c8cd38                __initfunc_process_wakeup
                0x0000000040c8cd48                __initfunc_process_init_ap
                0x0000000040c8cd58                __initfunc_process_init_global
                0x0000000040c8cd68                __initfunc_random_init_config0
                0x0000000040c8cd78                __initfunc_random_init_global
                0x0000000040c8cd88                __initfunc_reboot_init_msg
                0x0000000040c8cd98                __initfunc_segment_init_global
                0x0000000040c8cda8                __initfunc_serial_init_msg
                0x0000000040c8cdb8                __initfunc_sleep_init_msg
                0x0000000040c8cdc8                __initfunc_sleep_init_global
                0x0000000040c8cdd8                __initfunc_svm_panic
                0x0000000040c8cde8                __initfunc_sx_init_pass_init
                0x0000000040c8cdf8                __initfunc_thread_init_pcpu
                0x0000000040c8ce08                __initfunc_thread_init_global
                0x0000000040c8ce18                __initfunc_time_init_msg
                0x0000000040c8ce28                __initfunc_time_init_pcpu
                0x0000000040c8ce38                __initfunc_time_init_global_status
                0x0000000040c8ce48                __initfunc_time_init_global
                0x0000000040c8ce58                __initfunc_timer_init_global
                0x0000000040c8ce68                __initfunc_tty_init_msg
                0x0000000040c8ce78                __initfunc_tty_init_global2
                0x0000000040c8ce88                __initfunc_tty_init_global
                0x0000000040c8ce98                __initfunc_vcpu_init_global
                0x0000000040c8cea8                __initfunc_vga_init
                0x0000000040c8ceb8                __initfunc_vmmcall_init
                0x0000000040c8cec8                __initfunc_vmmcall_boot_init
                0x0000000040c8ced8                __initfunc_vmmcall_dbgsh_init_pcpu
                0x0000000040c8cee8                __initfunc_vmmcall_dbgsh_init_global
                0x0000000040c8cef8                __initfunc_vmmcall_dbgsh_init
                0x0000000040c8cf08                __initfunc_vmmcall_iccard_init
                0x0000000040c8cf18                __initfunc_vmmcall_log_init
                0x0000000040c8cf28                __initfunc_vmmcall_status_init
                0x0000000040c8cf38                __initfunc_vmmcall_status_init_global
                0x0000000040c8cf48                __initfunc_vramwrite_init_bsp
                0x0000000040c8cf58                __initfunc_vramwrite_init_msg
                0x0000000040c8cf68                __initfunc_vt_register_status_callback
                0x0000000040c8cf78                __initfunc_vt_panic
                0x0000000040c8cf88                __initfunc_xsetbv_init
                0x0000000040c8cf98                __initfunc_xsetbv_pass_init
                0x0000000040c8cfa8                __initfunc_core_init
                0x0000000040c8cfb8                __initfunc_ieee1394_init_boot
                0x0000000040c8cfc8                __initfunc_ieee1394_init
                0x0000000040c8cfd8                __initfunc_iommu_setup
                0x0000000040c8cfe8                __initfunc_pci_init
                0x0000000040c8cff8                __initfunc_debug_ata_init
                0x0000000040c8d008                __initfunc_ata_init
                0x0000000040c8d018                __initfunc_uhci_init
                0x0000000040c8d028                __initfunc_ehci_init
                0x0000000040c8d038                __initfunc_pro100_init
                0x0000000040c8d048                __initfunc_suspend_pro1000
                0x0000000040c8d058                __initfunc_resume_pro1000
                0x0000000040c8d068                __initfunc_vpn_pro1000_init
                0x0000000040c8d078                __initfunc_storage_kernel_init
                0x0000000040c8d088                __initfunc_storage_io_initfunc
                0x0000000040c8d098                __initfunc_vpn_kernel_init
                0x0000000040c8d0a8                __initfunc_idman_kernel_init
                0x0000000040c8d0b8                __initfunc_end = .
                0x0000000040c8d0b8                __process_builtin = .
 *(.processes)
 .processes     0x0000000040c8d0b8      0x1a0 output.o
                0x0000000040c8d258                __process_builtin_end = .
                0x0000000040c8d258                bss = .
 *(.bss)
 *fill*         0x0000000040c8d258        0x8 00
 .bss           0x0000000040c8d260  0x8bca8a0 output.o
                0x0000000040c90ac0                vmmsize
                0x0000000040c90ac8                memorysize
                0x0000000040f14580                pcpu_default
                0x0000000040f31de4                ps2_locked
                0x0000000040f32290                syscallHandlerAddress
                0x0000000040f322a0                currentProtectedApplication
                0x0000000040f322a8                numberOfVMs
                0x0000000040f322b0                numberOfProtectedApplications
                0x0000000040f322b8                currentRunningApplication
                0x0000000049732a00                syscall_metatata_table
                0x0000000049732a20                handler_descriptor
                0x0000000049732c28                drhd_list_head
                0x0000000049734460                pci_driver_list_head
                0x0000000049734468                pci_device_list_head
                0x0000000049734610                uhci_monitor_boost_hc
                0x0000000049734628                usb_hc_list_head
                0x0000000049734630                usb_busses_head
                0x000000004973bf48                rt
                0x0000000049855970                hContext
                0x0000000049855978                sessionTable
                0x0000000049855980                slotTable
                0x0000000049855988                slotFlag
                0x0000000049855989                libInitFlag
                0x00000000498565e0                OPENSSL_NONPIC_relocated
                0x00000000498565e8                OPENSSL_ia32cap_P
                0x0000000049857228                cleanse_ctr
                0x0000000049857288                obj_cleanup_defer
                0x00000000498572a8                _shadow_DES_check_key
                0x00000000498573a8                app_pkey_methods
                0x0000000049857400                chelp_inited
 *(COMMON)
 COMMON         0x0000000049857b00     0x12c4 output.o
                0x0000000049857b00                clflush_size
                0x0000000049857b20                sReaderContext
                0x0000000049857b80                sigx_app
                0x0000000049857b88                num_dom
                0x0000000049857ba0                mszReaders
                0x0000000049857fa0                zero_page_pool
                0x00000000498583a0                prohibit_iccard_init
                0x00000000498583a8                curthread
                0x00000000498583b0                sig_app
                0x00000000498583c0                readerState
                0x0000000049858440                dom_io
                0x0000000049858c40                acpi_dsdt_system_state
                0x0000000049858c60                ehci_host
                0x0000000049858c68                num_of_processors
                0x0000000049858c6c                e801_fake_bx
                0x0000000049858c6e                iommu_detected
                0x0000000049858c70                dwReaders
                0x0000000049858c80                readerTracker
                0x0000000049858dc0                handler_descriptor_lock
                0x0000000049858dc2                e801_fake_ax
                0x0000000049859000                . = ALIGN (0x1000)
 *fill*         0x0000000049858dc4      0x23c 00

.igot.plt       0x0000000049859000        0x0 load address 0x0000000009859000
 .igot.plt      0x0000000000000000        0x0 output.o
                0x0000000049859000                . = ALIGN (0x1000)
                0x0000000049859000                PAGE_POOL_START = .
                0x0000000049c59000                . = (PAGE_POOL_START + 0x400000)
                0x0000000049c59000                end = .

/DISCARD/
 *(.gomi)
LOAD output.o
OUTPUT(bitvisor.elf elf64-x86-64)

.comment        0x0000000000000000       0x2a
 .comment       0x0000000000000000       0x2a output.o
                                       0x5de5 (size before relaxing)

.note.GNU-stack
                0x0000000000000000        0x0
 .note.GNU-stack
                0x0000000000000000        0x0 output.o

.debug_aranges  0x0000000000000000     0x6a20
 .debug_aranges
                0x0000000000000000     0x6a20 output.o

.debug_info     0x0000000000000000   0x2a3838
 .debug_info    0x0000000000000000   0x2a3838 output.o

.debug_abbrev   0x0000000000000000    0x447ed
 .debug_abbrev  0x0000000000000000    0x447ed output.o

.debug_line     0x0000000000000000    0x4d604
 .debug_line    0x0000000000000000    0x4d604 output.o

.debug_str      0x0000000000000000    0x36f10
 .debug_str     0x0000000000000000    0x36f10 output.o
                                     0x128bb3 (size before relaxing)

.debug_loc      0x0000000000000000   0x23ff79
 .debug_loc     0x0000000000000000   0x23ff79 output.o

.debug_ranges   0x0000000000000000     0x79c0
 .debug_ranges  0x0000000000000000     0x79c0 output.o

Cross Reference Table

Symbol                                            File
ACCESS_DESCRIPTION_free                           output.o
ACCESS_DESCRIPTION_it                             output.o
ACCESS_DESCRIPTION_new                            output.o
AES_cbc_encrypt                                   output.o
AES_cfb128_encrypt                                output.o
AES_cfb1_encrypt                                  output.o
AES_cfb8_encrypt                                  output.o
AES_decrypt                                       output.o
AES_ecb_encrypt                                   output.o
AES_encrypt                                       output.o
AES_ofb128_encrypt                                output.o
AES_set_decrypt_key                               output.o
AES_set_encrypt_key                               output.o
AES_unwrap_key                                    output.o
AES_wrap_key                                      output.o
ASN1_ANY_it                                       output.o
ASN1_BIT_STRING_check                             output.o
ASN1_BIT_STRING_free                              output.o
ASN1_BIT_STRING_get_bit                           output.o
ASN1_BIT_STRING_it                                output.o
ASN1_BIT_STRING_new                               output.o
ASN1_BIT_STRING_set                               output.o
ASN1_BIT_STRING_set_bit                           output.o
ASN1_BMPSTRING_free                               output.o
ASN1_BMPSTRING_it                                 output.o
ASN1_BMPSTRING_new                                output.o
ASN1_BOOLEAN_it                                   output.o
ASN1_ENUMERATED_free                              output.o
ASN1_ENUMERATED_get                               output.o
ASN1_ENUMERATED_it                                output.o
ASN1_ENUMERATED_new                               output.o
ASN1_ENUMERATED_set                               output.o
ASN1_ENUMERATED_to_BN                             output.o
ASN1_FBOOLEAN_it                                  output.o
ASN1_GENERALIZEDTIME_adj                          output.o
ASN1_GENERALIZEDTIME_check                        output.o
ASN1_GENERALIZEDTIME_free                         output.o
ASN1_GENERALIZEDTIME_it                           output.o
ASN1_GENERALIZEDTIME_new                          output.o
ASN1_GENERALIZEDTIME_print                        output.o
ASN1_GENERALIZEDTIME_set                          output.o
ASN1_GENERALIZEDTIME_set_string                   output.o
ASN1_GENERALSTRING_free                           output.o
ASN1_GENERALSTRING_it                             output.o
ASN1_GENERALSTRING_new                            output.o
ASN1_IA5STRING_free                               output.o
ASN1_IA5STRING_it                                 output.o
ASN1_IA5STRING_new                                output.o
ASN1_INTEGER_cmp                                  output.o
ASN1_INTEGER_dup                                  output.o
ASN1_INTEGER_free                                 output.o
ASN1_INTEGER_get                                  output.o
ASN1_INTEGER_it                                   output.o
ASN1_INTEGER_new                                  output.o
ASN1_INTEGER_set                                  output.o
ASN1_INTEGER_to_BN                                output.o
ASN1_NULL_free                                    output.o
ASN1_NULL_it                                      output.o
ASN1_NULL_new                                     output.o
ASN1_OBJECT_create                                output.o
ASN1_OBJECT_free                                  output.o
ASN1_OBJECT_it                                    output.o
ASN1_OBJECT_new                                   output.o
ASN1_OCTET_STRING_NDEF_it                         output.o
ASN1_OCTET_STRING_cmp                             output.o
ASN1_OCTET_STRING_dup                             output.o
ASN1_OCTET_STRING_free                            output.o
ASN1_OCTET_STRING_it                              output.o
ASN1_OCTET_STRING_new                             output.o
ASN1_OCTET_STRING_set                             output.o
ASN1_PCTX_free                                    output.o
ASN1_PCTX_get_cert_flags                          output.o
ASN1_PCTX_get_flags                               output.o
ASN1_PCTX_get_nm_flags                            output.o
ASN1_PCTX_get_oid_flags                           output.o
ASN1_PCTX_get_str_flags                           output.o
ASN1_PCTX_new                                     output.o
ASN1_PCTX_set_cert_flags                          output.o
ASN1_PCTX_set_flags                               output.o
ASN1_PCTX_set_nm_flags                            output.o
ASN1_PCTX_set_oid_flags                           output.o
ASN1_PCTX_set_str_flags                           output.o
ASN1_PRINTABLESTRING_free                         output.o
ASN1_PRINTABLESTRING_it                           output.o
ASN1_PRINTABLESTRING_new                          output.o
ASN1_PRINTABLE_free                               output.o
ASN1_PRINTABLE_it                                 output.o
ASN1_PRINTABLE_new                                output.o
ASN1_PRINTABLE_type                               output.o
ASN1_SEQUENCE_ANY_it                              output.o
ASN1_SEQUENCE_it                                  output.o
ASN1_SET_ANY_it                                   output.o
ASN1_STRING_TABLE_add                             output.o
ASN1_STRING_TABLE_cleanup                         output.o
ASN1_STRING_TABLE_get                             output.o
ASN1_STRING_cmp                                   output.o
ASN1_STRING_copy                                  output.o
ASN1_STRING_data                                  output.o
ASN1_STRING_dup                                   output.o
ASN1_STRING_free                                  output.o
ASN1_STRING_get_default_mask                      output.o
ASN1_STRING_length                                output.o
ASN1_STRING_length_set                            output.o
ASN1_STRING_new                                   output.o
ASN1_STRING_print                                 output.o
ASN1_STRING_print_ex                              output.o
ASN1_STRING_set                                   output.o
ASN1_STRING_set0                                  output.o
ASN1_STRING_set_by_NID                            output.o
ASN1_STRING_set_default_mask                      output.o
ASN1_STRING_set_default_mask_asc                  output.o
ASN1_STRING_to_UTF8                               output.o
ASN1_STRING_type                                  output.o
ASN1_STRING_type_new                              output.o
ASN1_T61STRING_free                               output.o
ASN1_T61STRING_it                                 output.o
ASN1_T61STRING_new                                output.o
ASN1_TBOOLEAN_it                                  output.o
ASN1_TIME_adj                                     output.o
ASN1_TIME_check                                   output.o
ASN1_TIME_free                                    output.o
ASN1_TIME_it                                      output.o
ASN1_TIME_new                                     output.o
ASN1_TIME_print                                   output.o
ASN1_TIME_set                                     output.o
ASN1_TIME_set_string                              output.o
ASN1_TIME_to_generalizedtime                      output.o
ASN1_TYPE_cmp                                     output.o
ASN1_TYPE_free                                    output.o
ASN1_TYPE_get                                     output.o
ASN1_TYPE_get_int_octetstring                     output.o
ASN1_TYPE_get_octetstring                         output.o
ASN1_TYPE_new                                     output.o
ASN1_TYPE_set                                     output.o
ASN1_TYPE_set1                                    output.o
ASN1_TYPE_set_int_octetstring                     output.o
ASN1_TYPE_set_octetstring                         output.o
ASN1_UNIVERSALSTRING_free                         output.o
ASN1_UNIVERSALSTRING_it                           output.o
ASN1_UNIVERSALSTRING_new                          output.o
ASN1_UNIVERSALSTRING_to_string                    output.o
ASN1_UTCTIME_adj                                  output.o
ASN1_UTCTIME_check                                output.o
ASN1_UTCTIME_cmp_time_t                           output.o
ASN1_UTCTIME_free                                 output.o
ASN1_UTCTIME_it                                   output.o
ASN1_UTCTIME_new                                  output.o
ASN1_UTCTIME_print                                output.o
ASN1_UTCTIME_set                                  output.o
ASN1_UTCTIME_set_string                           output.o
ASN1_UTF8STRING_free                              output.o
ASN1_UTF8STRING_it                                output.o
ASN1_UTF8STRING_new                               output.o
ASN1_VISIBLESTRING_free                           output.o
ASN1_VISIBLESTRING_it                             output.o
ASN1_VISIBLESTRING_new                            output.o
ASN1_bn_print                                     output.o
ASN1_check_infinite_end                           output.o
ASN1_const_check_infinite_end                     output.o
ASN1_d2i_bio                                      output.o
ASN1_digest                                       output.o
ASN1_dup                                          output.o
ASN1_generate_nconf                               output.o
ASN1_generate_v3                                  output.o
ASN1_get_object                                   output.o
ASN1_i2d_bio                                      output.o
ASN1_item_d2i                                     output.o
ASN1_item_d2i_bio                                 output.o
ASN1_item_digest                                  output.o
ASN1_item_dup                                     output.o
ASN1_item_ex_d2i                                  output.o
ASN1_item_ex_free                                 output.o
ASN1_item_ex_i2d                                  output.o
ASN1_item_ex_new                                  output.o
ASN1_item_free                                    output.o
ASN1_item_i2d                                     output.o
ASN1_item_i2d_bio                                 output.o
ASN1_item_ndef_i2d                                output.o
ASN1_item_new                                     output.o
ASN1_item_pack                                    output.o
ASN1_item_print                                   output.o
ASN1_item_sign                                    output.o
ASN1_item_unpack                                  output.o
ASN1_item_verify                                  output.o
ASN1_mbstring_copy                                output.o
ASN1_mbstring_ncopy                               output.o
ASN1_object_size                                  output.o
ASN1_pack_string                                  output.o
ASN1_parse                                        output.o
ASN1_parse_dump                                   output.o
ASN1_primitive_free                               output.o
ASN1_primitive_new                                output.o
ASN1_put_eoc                                      output.o
ASN1_put_object                                   output.o
ASN1_seq_pack                                     output.o
ASN1_seq_unpack                                   output.o
ASN1_sign                                         output.o
ASN1_tag2bit                                      output.o
ASN1_tag2str                                      output.o
ASN1_template_d2i                                 output.o
ASN1_template_free                                output.o
ASN1_template_i2d                                 output.o
ASN1_template_new                                 output.o
ASN1_unpack_string                                output.o
ASN1_verify                                       output.o
ASN1_version                                      output.o
AUTHORITY_INFO_ACCESS_free                        output.o
AUTHORITY_INFO_ACCESS_it                          output.o
AUTHORITY_INFO_ACCESS_new                         output.o
AUTHORITY_KEYID_free                              output.o
AUTHORITY_KEYID_it                                output.o
AUTHORITY_KEYID_new                               output.o
AddCertDataByBuf                                  output.o
AddElem                                           output.o
AddIdPassDataByBuf                                output.o
AddObjTblByTlv                                    output.o
BASIC_CONSTRAINTS_free                            output.o
BASIC_CONSTRAINTS_it                              output.o
BASIC_CONSTRAINTS_new                             output.o
BF_cbc_encrypt                                    output.o
BF_cfb64_encrypt                                  output.o
BF_decrypt                                        output.o
BF_ecb_encrypt                                    output.o
BF_encrypt                                        output.o
BF_ofb64_encrypt                                  output.o
BF_options                                        output.o
BF_set_key                                        output.o
BF_version                                        output.o
BIGNUM_it                                         output.o
BIO_asn1_get_prefix                               output.o
BIO_asn1_get_suffix                               output.o
BIO_asn1_set_prefix                               output.o
BIO_asn1_set_suffix                               output.o
BIO_callback_ctrl                                 output.o
BIO_clear_flags                                   output.o
BIO_copy_next_retry                               output.o
BIO_ctrl                                          output.o
BIO_ctrl_pending                                  output.o
BIO_ctrl_wpending                                 output.o
BIO_dump                                          output.o
BIO_dump_cb                                       output.o
BIO_dump_indent                                   output.o
BIO_dump_indent_cb                                output.o
BIO_dup_chain                                     output.o
BIO_f_asn1                                        output.o
BIO_f_base64                                      output.o
BIO_f_buffer                                      output.o
BIO_f_cipher                                      output.o
BIO_f_md                                          output.o
BIO_find_type                                     output.o
BIO_free                                          output.o
BIO_free_all                                      output.o
BIO_get_callback                                  output.o
BIO_get_callback_arg                              output.o
BIO_get_ex_data                                   output.o
BIO_get_ex_new_index                              output.o
BIO_get_retry_BIO                                 output.o
BIO_get_retry_reason                              output.o
BIO_gets                                          output.o
BIO_indent                                        output.o
BIO_int_ctrl                                      output.o
BIO_method_name                                   output.o
BIO_method_type                                   output.o
BIO_new                                           output.o
BIO_new_CMS                                       output.o
BIO_new_NDEF                                      output.o
BIO_new_mem_buf                                   output.o
BIO_next                                          output.o
BIO_number_read                                   output.o
BIO_number_written                                output.o
BIO_pop                                           output.o
BIO_printf                                        output.o
BIO_ptr_ctrl                                      output.o
BIO_push                                          output.o
BIO_puts                                          output.o
BIO_read                                          output.o
BIO_s_mem                                         output.o
BIO_s_null                                        output.o
BIO_set                                           output.o
BIO_set_callback                                  output.o
BIO_set_callback_arg                              output.o
BIO_set_cipher                                    output.o
BIO_set_ex_data                                   output.o
BIO_set_flags                                     output.o
BIO_snprintf                                      output.o
BIO_test_flags                                    output.o
BIO_vfree                                         output.o
BIO_write                                         output.o
BN_BLINDING_convert                               output.o
BN_BLINDING_convert_ex                            output.o
BN_BLINDING_create_param                          output.o
BN_BLINDING_free                                  output.o
BN_BLINDING_get_flags                             output.o
BN_BLINDING_get_thread_id                         output.o
BN_BLINDING_invert                                output.o
BN_BLINDING_invert_ex                             output.o
BN_BLINDING_new                                   output.o
BN_BLINDING_set_flags                             output.o
BN_BLINDING_set_thread_id                         output.o
BN_BLINDING_thread_id                             output.o
BN_BLINDING_update                                output.o
BN_CTX_end                                        output.o
BN_CTX_free                                       output.o
BN_CTX_get                                        output.o
BN_CTX_init                                       output.o
BN_CTX_new                                        output.o
BN_CTX_start                                      output.o
BN_GENCB_call                                     output.o
BN_GF2m_add                                       output.o
BN_GF2m_arr2poly                                  output.o
BN_GF2m_mod                                       output.o
BN_GF2m_mod_arr                                   output.o
BN_GF2m_mod_div                                   output.o
BN_GF2m_mod_div_arr                               output.o
BN_GF2m_mod_exp                                   output.o
BN_GF2m_mod_exp_arr                               output.o
BN_GF2m_mod_inv                                   output.o
BN_GF2m_mod_inv_arr                               output.o
BN_GF2m_mod_mul                                   output.o
BN_GF2m_mod_mul_arr                               output.o
BN_GF2m_mod_solve_quad                            output.o
BN_GF2m_mod_solve_quad_arr                        output.o
BN_GF2m_mod_sqr                                   output.o
BN_GF2m_mod_sqr_arr                               output.o
BN_GF2m_mod_sqrt                                  output.o
BN_GF2m_mod_sqrt_arr                              output.o
BN_GF2m_poly2arr                                  output.o
BN_MONT_CTX_copy                                  output.o
BN_MONT_CTX_free                                  output.o
BN_MONT_CTX_init                                  output.o
BN_MONT_CTX_new                                   output.o
BN_MONT_CTX_set                                   output.o
BN_MONT_CTX_set_locked                            output.o
BN_RECP_CTX_free                                  output.o
BN_RECP_CTX_init                                  output.o
BN_RECP_CTX_new                                   output.o
BN_RECP_CTX_set                                   output.o
BN_add                                            output.o
BN_add_word                                       output.o
BN_asc2bn                                         output.o
BN_bin2bn                                         output.o
BN_bn2bin                                         output.o
BN_bn2dec                                         output.o
BN_bn2hex                                         output.o
BN_bntest_rand                                    output.o
BN_clear                                          output.o
BN_clear_bit                                      output.o
BN_clear_free                                     output.o
BN_cmp                                            output.o
BN_copy                                           output.o
BN_dec2bn                                         output.o
BN_div                                            output.o
BN_div_recp                                       output.o
BN_div_word                                       output.o
BN_dup                                            output.o
BN_exp                                            output.o
BN_free                                           output.o
BN_from_montgomery                                output.o
BN_gcd                                            output.o
BN_generate_prime_ex                              output.o
BN_get0_nist_prime_192                            output.o
BN_get0_nist_prime_224                            output.o
BN_get0_nist_prime_256                            output.o
BN_get0_nist_prime_384                            output.o
BN_get0_nist_prime_521                            output.o
BN_get_params                                     output.o
BN_get_word                                       output.o
BN_hex2bn                                         output.o
BN_init                                           output.o
BN_is_bit_set                                     output.o
BN_is_prime_ex                                    output.o
BN_is_prime_fasttest_ex                           output.o
BN_kronecker                                      output.o
BN_lshift                                         output.o
BN_lshift1                                        output.o
BN_mask_bits                                      output.o
BN_mod_add                                        output.o
BN_mod_add_quick                                  output.o
BN_mod_exp                                        output.o
BN_mod_exp2_mont                                  output.o
BN_mod_exp_mont                                   output.o
BN_mod_exp_mont_consttime                         output.o
BN_mod_exp_mont_word                              output.o
BN_mod_exp_recp                                   output.o
BN_mod_exp_simple                                 output.o
BN_mod_inverse                                    output.o
BN_mod_lshift                                     output.o
BN_mod_lshift1                                    output.o
BN_mod_lshift1_quick                              output.o
BN_mod_lshift_quick                               output.o
BN_mod_mul                                        output.o
BN_mod_mul_montgomery                             output.o
BN_mod_mul_reciprocal                             output.o
BN_mod_sqr                                        output.o
BN_mod_sqrt                                       output.o
BN_mod_sub                                        output.o
BN_mod_sub_quick                                  output.o
BN_mod_word                                       output.o
BN_mul                                            output.o
BN_mul_word                                       output.o
BN_new                                            output.o
BN_nist_mod_192                                   output.o
BN_nist_mod_224                                   output.o
BN_nist_mod_256                                   output.o
BN_nist_mod_384                                   output.o
BN_nist_mod_521                                   output.o
BN_nnmod                                          output.o
BN_num_bits                                       output.o
BN_num_bits_word                                  output.o
BN_options                                        output.o
BN_print                                          output.o
BN_pseudo_rand                                    output.o
BN_pseudo_rand_range                              output.o
BN_rand                                           output.o
BN_rand_range                                     output.o
BN_reciprocal                                     output.o
BN_rshift                                         output.o
BN_rshift1                                        output.o
BN_set_bit                                        output.o
BN_set_negative                                   output.o
BN_set_params                                     output.o
BN_set_word                                       output.o
BN_sqr                                            output.o
BN_sub                                            output.o
BN_sub_word                                       output.o
BN_swap                                           output.o
BN_to_ASN1_ENUMERATED                             output.o
BN_to_ASN1_INTEGER                                output.o
BN_uadd                                           output.o
BN_ucmp                                           output.o
BN_usub                                           output.o
BN_value_one                                      output.o
BN_version                                        output.o
BUF_MEM_free                                      output.o
BUF_MEM_grow                                      output.o
BUF_MEM_grow_clean                                output.o
BUF_MEM_new                                       output.o
BUF_memdup                                        output.o
BUF_reverse                                       output.o
BUF_strdup                                        output.o
BUF_strlcat                                       output.o
BUF_strlcpy                                       output.o
BUF_strndup                                       output.o
BlockSendCardT1                                   output.o
CAST_S_table0                                     output.o
CAST_S_table1                                     output.o
CAST_S_table2                                     output.o
CAST_S_table3                                     output.o
CAST_S_table4                                     output.o
CAST_S_table5                                     output.o
CAST_S_table6                                     output.o
CAST_S_table7                                     output.o
CAST_cbc_encrypt                                  output.o
CAST_cfb64_encrypt                                output.o
CAST_decrypt                                      output.o
CAST_ecb_encrypt                                  output.o
CAST_encrypt                                      output.o
CAST_ofb64_encrypt                                output.o
CAST_set_key                                      output.o
CAST_version                                      output.o
CBIGNUM_it                                        output.o
CERTIFICATEPOLICIES_free                          output.o
CERTIFICATEPOLICIES_it                            output.o
CERTIFICATEPOLICIES_new                           output.o
CMS_Attributes_Sign_it                            output.o
CMS_Attributes_Verify_it                          output.o
CMS_AuthenticatedData_it                          output.o
CMS_CertificateChoices_it                         output.o
CMS_CompressedData_it                             output.o
CMS_ContentInfo_free                              output.o
CMS_ContentInfo_it                                output.o
CMS_ContentInfo_new                               output.o
CMS_ContentInfo_print_ctx                         output.o
CMS_DigestedData_it                               output.o
CMS_EncapsulatedContentInfo_it                    output.o
CMS_EncryptedContentInfo_it                       output.o
CMS_EncryptedData_it                              output.o
CMS_EncryptedData_set1_key                        output.o
CMS_EnvelopedData_create                          output.o
CMS_EnvelopedData_it                              output.o
CMS_IssuerAndSerialNumber_it                      output.o
CMS_KEKIdentifier_it                              output.o
CMS_KEKRecipientInfo_it                           output.o
CMS_KeyAgreeRecipientIdentifier_it                output.o
CMS_KeyAgreeRecipientInfo_it                      output.o
CMS_KeyTransRecipientInfo_it                      output.o
CMS_OriginatorIdentifierOrKey_it                  output.o
CMS_OriginatorInfo_it                             output.o
CMS_OriginatorPublicKey_it                        output.o
CMS_OtherCertificateFormat_it                     output.o
CMS_OtherKeyAttribute_it                          output.o
CMS_OtherRecipientInfo_it                         output.o
CMS_OtherRevocationInfoFormat_it                  output.o
CMS_PasswordRecipientInfo_it                      output.o
CMS_ReceiptRequest_it                             output.o
CMS_Receipt_it                                    output.o
CMS_ReceiptsFrom_it                               output.o
CMS_RecipientEncryptedKey_it                      output.o
CMS_RecipientInfo_decrypt                         output.o
CMS_RecipientInfo_it                              output.o
CMS_RecipientInfo_kekri_get0_id                   output.o
CMS_RecipientInfo_kekri_id_cmp                    output.o
CMS_RecipientInfo_ktri_cert_cmp                   output.o
CMS_RecipientInfo_ktri_get0_algs                  output.o
CMS_RecipientInfo_ktri_get0_signer_id             output.o
CMS_RecipientInfo_set0_key                        output.o
CMS_RecipientInfo_set0_pkey                       output.o
CMS_RecipientInfo_type                            output.o
CMS_RecipientKeyIdentifier_it                     output.o
CMS_RevocationInfoChoice_it                       output.o
CMS_SignedData_init                               output.o
CMS_SignedData_it                                 output.o
CMS_SignerIdentifier_it                           output.o
CMS_SignerInfo_cert_cmp                           output.o
CMS_SignerInfo_get0_algs                          output.o
CMS_SignerInfo_get0_signer_id                     output.o
CMS_SignerInfo_it                                 output.o
CMS_SignerInfo_set1_signer_cert                   output.o
CMS_SignerInfo_sign                               output.o
CMS_SignerInfo_verify                             output.o
CMS_SignerInfo_verify_content                     output.o
CMS_add0_CertificateChoices                       output.o
CMS_add0_RevocationInfoChoice                     output.o
CMS_add0_cert                                     output.o
CMS_add0_crl                                      output.o
CMS_add0_recipient_key                            output.o
CMS_add1_cert                                     output.o
CMS_add1_crl                                      output.o
CMS_add1_recipient_cert                           output.o
CMS_add1_signer                                   output.o
CMS_add_simple_smimecap                           output.o
CMS_add_smimecap                                  output.o
CMS_add_standard_smimecap                         output.o
CMS_dataFinal                                     output.o
CMS_dataInit                                      output.o
CMS_get0_RecipientInfos                           output.o
CMS_get0_SignerInfos                              output.o
CMS_get0_content                                  output.o
CMS_get0_eContentType                             output.o
CMS_get0_signers                                  output.o
CMS_get0_type                                     output.o
CMS_get1_certs                                    output.o
CMS_get1_crls                                     output.o
CMS_is_detached                                   output.o
CMS_set1_eContentType                             output.o
CMS_set1_signers_certs                            output.o
CMS_set_detached                                  output.o
CMS_signed_add1_attr                              output.o
CMS_signed_add1_attr_by_NID                       output.o
CMS_signed_add1_attr_by_OBJ                       output.o
CMS_signed_add1_attr_by_txt                       output.o
CMS_signed_delete_attr                            output.o
CMS_signed_get0_data_by_OBJ                       output.o
CMS_signed_get_attr                               output.o
CMS_signed_get_attr_by_NID                        output.o
CMS_signed_get_attr_by_OBJ                        output.o
CMS_signed_get_attr_count                         output.o
CMS_stream                                        output.o
CMS_unsigned_add1_attr                            output.o
CMS_unsigned_add1_attr_by_NID                     output.o
CMS_unsigned_add1_attr_by_OBJ                     output.o
CMS_unsigned_add1_attr_by_txt                     output.o
CMS_unsigned_delete_attr                          output.o
CMS_unsigned_get0_data_by_OBJ                     output.o
CMS_unsigned_get_attr                             output.o
CMS_unsigned_get_attr_by_NID                      output.o
CMS_unsigned_get_attr_by_OBJ                      output.o
CMS_unsigned_get_attr_count                       output.o
CONF_def_version                                  output.o
CONF_dump_bio                                     output.o
CONF_free                                         output.o
CONF_get1_default_config_file                     output.o
CONF_get_number                                   output.o
CONF_get_section                                  output.o
CONF_get_string                                   output.o
CONF_imodule_get_flags                            output.o
CONF_imodule_get_module                           output.o
CONF_imodule_get_name                             output.o
CONF_imodule_get_usr_data                         output.o
CONF_imodule_get_value                            output.o
CONF_imodule_set_flags                            output.o
CONF_imodule_set_usr_data                         output.o
CONF_load                                         output.o
CONF_load_bio                                     output.o
CONF_module_add                                   output.o
CONF_module_get_usr_data                          output.o
CONF_module_set_usr_data                          output.o
CONF_modules_finish                               output.o
CONF_modules_free                                 output.o
CONF_modules_load                                 output.o
CONF_modules_load_file                            output.o
CONF_modules_unload                               output.o
CONF_parse_list                                   output.o
CONF_set_default_method                           output.o
CONF_set_nconf                                    output.o
CONF_version                                      output.o
CRL_DIST_POINTS_free                              output.o
CRL_DIST_POINTS_it                                output.o
CRL_DIST_POINTS_new                               output.o
CRYPTO_THREADID_cmp                               output.o
CRYPTO_THREADID_cpy                               output.o
CRYPTO_THREADID_current                           output.o
CRYPTO_THREADID_get_callback                      output.o
CRYPTO_THREADID_hash                              output.o
CRYPTO_THREADID_set_callback                      output.o
CRYPTO_THREADID_set_numeric                       output.o
CRYPTO_THREADID_set_pointer                       output.o
CRYPTO_add_lock                                   output.o
CRYPTO_cbc128_decrypt                             output.o
CRYPTO_cbc128_encrypt                             output.o
CRYPTO_cfb128_1_encrypt                           output.o
CRYPTO_cfb128_8_encrypt                           output.o
CRYPTO_cfb128_encrypt                             output.o
CRYPTO_cleanup_all_ex_data                        output.o
CRYPTO_dbg_free                                   output.o
CRYPTO_dbg_get_options                            output.o
CRYPTO_dbg_malloc                                 output.o
CRYPTO_dbg_realloc                                output.o
CRYPTO_dbg_set_options                            output.o
CRYPTO_destroy_dynlockid                          output.o
CRYPTO_dup_ex_data                                output.o
CRYPTO_ex_data_new_class                          output.o
CRYPTO_free                                       output.o
CRYPTO_free_ex_data                               output.o
CRYPTO_free_locked                                output.o
CRYPTO_get_add_lock_callback                      output.o
CRYPTO_get_dynlock_create_callback                output.o
CRYPTO_get_dynlock_destroy_callback               output.o
CRYPTO_get_dynlock_lock_callback                  output.o
CRYPTO_get_dynlock_value                          output.o
CRYPTO_get_ex_data                                output.o
CRYPTO_get_ex_data_implementation                 output.o
CRYPTO_get_ex_new_index                           output.o
CRYPTO_get_id_callback                            output.o
CRYPTO_get_lock_name                              output.o
CRYPTO_get_locked_mem_ex_functions                output.o
CRYPTO_get_locked_mem_functions                   output.o
CRYPTO_get_locking_callback                       output.o
CRYPTO_get_mem_debug_functions                    output.o
CRYPTO_get_mem_debug_options                      output.o
CRYPTO_get_mem_ex_functions                       output.o
CRYPTO_get_mem_functions                          output.o
CRYPTO_get_new_dynlockid                          output.o
CRYPTO_get_new_lockid                             output.o
CRYPTO_is_mem_check_on                            output.o
CRYPTO_lock                                       output.o
CRYPTO_malloc                                     output.o
CRYPTO_malloc_locked                              output.o
CRYPTO_mem_ctrl                                   output.o
CRYPTO_mem_leaks                                  output.o
CRYPTO_mem_leaks_cb                               output.o
CRYPTO_new_ex_data                                output.o
CRYPTO_num_locks                                  output.o
CRYPTO_ofb128_encrypt                             output.o
CRYPTO_pop_info                                   output.o
CRYPTO_push_info_                                 output.o
CRYPTO_realloc                                    output.o
CRYPTO_realloc_clean                              output.o
CRYPTO_remalloc                                   output.o
CRYPTO_remove_all_info                            output.o
CRYPTO_set_add_lock_callback                      output.o
CRYPTO_set_dynlock_create_callback                output.o
CRYPTO_set_dynlock_destroy_callback               output.o
CRYPTO_set_dynlock_lock_callback                  output.o
CRYPTO_set_ex_data                                output.o
CRYPTO_set_ex_data_implementation                 output.o
CRYPTO_set_id_callback                            output.o
CRYPTO_set_locked_mem_ex_functions                output.o
CRYPTO_set_locked_mem_functions                   output.o
CRYPTO_set_locking_callback                       output.o
CRYPTO_set_mem_debug_functions                    output.o
CRYPTO_set_mem_debug_options                      output.o
CRYPTO_set_mem_ex_functions                       output.o
CRYPTO_set_mem_functions                          output.o
CRYPTO_strdup                                     output.o
CRYPTO_thread_id                                  output.o
C_CloseAllSessions                                output.o
C_CloseSession                                    output.o
C_CreateObject                                    output.o
C_DestroyObject                                   output.o
C_DigestFinal                                     output.o
C_DigestInit                                      output.o
C_DigestUpdate                                    output.o
C_Finalize                                        output.o
C_FindObjects                                     output.o
C_FindObjectsFinal                                output.o
C_FindObjectsInit                                 output.o
C_GetAttributeValue                               output.o
C_GetCardStatus                                   output.o
C_GetFunctionList                                 output.o
C_GetInfo                                         output.o
C_GetMechanismInfo                                output.o
C_GetMechanismList                                output.o
C_GetSessionInfo                                  output.o
C_GetSlotInfo                                     output.o
C_GetSlotList                                     output.o
C_GetTokenInfo                                    output.o
C_Initialize                                      output.o
C_Login                                           output.o
C_Logout                                          output.o
C_OpenSession                                     output.o
C_SetAttributeValue                               output.o
C_Sign                                            output.o
C_SignInit                                        output.o
C_Verify                                          output.o
C_VerifyInit                                      output.o
CardConnect                                       output.o
CardDisconnect                                    output.o
CardEstablishContext                              output.o
CardListReaders                                   output.o
CardMechanical                                    output.o
CardReleaseContext                                output.o
CardStateConfirm                                  output.o
CardStatus                                        output.o
CardTransmit                                      output.o
CloseUSB                                          output.o
DES_SPtrans                                       output.o
DES_cfb64_encrypt                                 output.o
DES_cfb_encrypt                                   output.o
DES_check_key_parity                              output.o
DES_decrypt3                                      output.o
DES_ecb3_encrypt                                  output.o
DES_ecb_encrypt                                   output.o
DES_ede3_cbc_encrypt                              output.o
DES_ede3_cfb64_encrypt                            output.o
DES_ede3_cfb_encrypt                              output.o
DES_ede3_ofb64_encrypt                            output.o
DES_encrypt1                                      output.o
DES_encrypt2                                      output.o
DES_encrypt3                                      output.o
DES_is_weak_key                                   output.o
DES_key_sched                                     output.o
DES_ncbc_encrypt                                  output.o
DES_ofb64_encrypt                                 output.o
DES_options                                       output.o
DES_random_key                                    output.o
DES_set_key                                       output.o
DES_set_key_checked                               output.o
DES_set_key_unchecked                             output.o
DES_set_odd_parity                                output.o
DES_xcbc_encrypt                                  output.o
DH_OpenSSL                                        output.o
DH_check                                          output.o
DH_check_pub_key                                  output.o
DH_compute_key                                    output.o
DH_free                                           output.o
DH_generate_key                                   output.o
DH_generate_parameters_ex                         output.o
DH_get_default_method                             output.o
DH_get_ex_data                                    output.o
DH_get_ex_new_index                               output.o
DH_new                                            output.o
DH_new_method                                     output.o
DH_set_default_method                             output.o
DH_set_ex_data                                    output.o
DH_set_method                                     output.o
DH_size                                           output.o
DH_up_ref                                         output.o
DH_version                                        output.o
DHparams_dup                                      output.o
DHparams_it                                       output.o
DHparams_print                                    output.o
DI                                                output.o
DIRECTORYSTRING_free                              output.o
DIRECTORYSTRING_it                                output.o
DIRECTORYSTRING_new                               output.o
DISPLAYTEXT_free                                  output.o
DISPLAYTEXT_it                                    output.o
DISPLAYTEXT_new                                   output.o
DIST_POINT_NAME_free                              output.o
DIST_POINT_NAME_it                                output.o
DIST_POINT_NAME_new                               output.o
DIST_POINT_free                                   output.o
DIST_POINT_it                                     output.o
DIST_POINT_new                                    output.o
DIST_POINT_set_dpname                             output.o
DSAPrivateKey_it                                  output.o
DSAPublicKey_it                                   output.o
DSA_OpenSSL                                       output.o
DSA_SIG_free                                      output.o
DSA_SIG_it                                        output.o
DSA_SIG_new                                       output.o
DSA_do_sign                                       output.o
DSA_do_verify                                     output.o
DSA_dup_DH                                        output.o
DSA_free                                          output.o
DSA_generate_key                                  output.o
DSA_generate_parameters_ex                        output.o
DSA_get_default_method                            output.o
DSA_get_ex_data                                   output.o
DSA_get_ex_new_index                              output.o
DSA_new                                           output.o
DSA_new_method                                    output.o
DSA_set_default_method                            output.o
DSA_set_ex_data                                   output.o
DSA_set_method                                    output.o
DSA_sign                                          output.o
DSA_sign_setup                                    output.o
DSA_size                                          output.o
DSA_up_ref                                        output.o
DSA_verify                                        output.o
DSA_version                                       output.o
DSAparams_dup                                     output.o
DSAparams_it                                      output.o
DSO_METHOD_null                                   output.o
DSO_METHOD_openssl                                output.o
DSO_bind_func                                     output.o
DSO_bind_var                                      output.o
DSO_convert_filename                              output.o
DSO_ctrl                                          output.o
DSO_flags                                         output.o
DSO_free                                          output.o
DSO_get_default_method                            output.o
DSO_get_filename                                  output.o
DSO_get_loaded_filename                           output.o
DSO_get_method                                    output.o
DSO_global_lookup                                 output.o
DSO_load                                          output.o
DSO_merge                                         output.o
DSO_new                                           output.o
DSO_new_method                                    output.o
DSO_pathbyaddr                                    output.o
DSO_set_default_method                            output.o
DSO_set_filename                                  output.o
DSO_set_method                                    output.o
DSO_set_name_converter                            output.o
DSO_up_ref                                        output.o
DelElem                                           output.o
DestroyAttribute                                  output.o
DestroyElem                                       output.o
DestroyList                                       output.o
DestroySessionData                                output.o
DestroySlotData                                   output.o
DestroyTlvData                                    output.o
DestroyTokenData                                  output.o
ECDH_OpenSSL                                      output.o
ECDH_compute_key                                  output.o
ECDH_get_default_method                           output.o
ECDH_get_ex_data                                  output.o
ECDH_get_ex_new_index                             output.o
ECDH_set_default_method                           output.o
ECDH_set_ex_data                                  output.o
ECDH_set_method                                   output.o
ECDH_version                                      output.o
ECDSA_OpenSSL                                     output.o
ECDSA_SIG_free                                    output.o
ECDSA_SIG_it                                      output.o
ECDSA_SIG_new                                     output.o
ECDSA_do_sign                                     output.o
ECDSA_do_sign_ex                                  output.o
ECDSA_do_verify                                   output.o
ECDSA_get_default_method                          output.o
ECDSA_get_ex_data                                 output.o
ECDSA_get_ex_new_index                            output.o
ECDSA_set_default_method                          output.o
ECDSA_set_ex_data                                 output.o
ECDSA_set_method                                  output.o
ECDSA_sign                                        output.o
ECDSA_sign_ex                                     output.o
ECDSA_sign_setup                                  output.o
ECDSA_size                                        output.o
ECDSA_verify                                      output.o
ECDSA_version                                     output.o
ECPARAMETERS_free                                 output.o
ECPARAMETERS_it                                   output.o
ECPARAMETERS_new                                  output.o
ECPKPARAMETERS_free                               output.o
ECPKPARAMETERS_it                                 output.o
ECPKPARAMETERS_new                                output.o
ECPKParameters_print                              output.o
ECParameters_print                                output.o
EC_EX_DATA_clear_free_all_data                    output.o
EC_EX_DATA_clear_free_data                        output.o
EC_EX_DATA_free_all_data                          output.o
EC_EX_DATA_free_data                              output.o
EC_EX_DATA_get_data                               output.o
EC_EX_DATA_set_data                               output.o
EC_GF2m_simple_method                             output.o
EC_GFp_mont_method                                output.o
EC_GFp_nist_method                                output.o
EC_GFp_simple_method                              output.o
EC_GROUP_check_discriminant                       output.o
EC_GROUP_clear_free                               output.o
EC_GROUP_cmp                                      output.o
EC_GROUP_copy                                     output.o
EC_GROUP_dup                                      output.o
EC_GROUP_free                                     output.o
EC_GROUP_get0_generator                           output.o
EC_GROUP_get0_seed                                output.o
EC_GROUP_get_asn1_flag                            output.o
EC_GROUP_get_basis_type                           output.o
EC_GROUP_get_cofactor                             output.o
EC_GROUP_get_curve_GF2m                           output.o
EC_GROUP_get_curve_GFp                            output.o
EC_GROUP_get_curve_name                           output.o
EC_GROUP_get_degree                               output.o
EC_GROUP_get_order                                output.o
EC_GROUP_get_pentanomial_basis                    output.o
EC_GROUP_get_point_conversion_form                output.o
EC_GROUP_get_seed_len                             output.o
EC_GROUP_get_trinomial_basis                      output.o
EC_GROUP_have_precompute_mult                     output.o
EC_GROUP_method_of                                output.o
EC_GROUP_new                                      output.o
EC_GROUP_new_by_curve_name                        output.o
EC_GROUP_new_curve_GF2m                           output.o
EC_GROUP_new_curve_GFp                            output.o
EC_GROUP_precompute_mult                          output.o
EC_GROUP_set_asn1_flag                            output.o
EC_GROUP_set_curve_GF2m                           output.o
EC_GROUP_set_curve_GFp                            output.o
EC_GROUP_set_curve_name                           output.o
EC_GROUP_set_generator                            output.o
EC_GROUP_set_point_conversion_form                output.o
EC_GROUP_set_seed                                 output.o
EC_KEY_check_key                                  output.o
EC_KEY_copy                                       output.o
EC_KEY_dup                                        output.o
EC_KEY_free                                       output.o
EC_KEY_generate_key                               output.o
EC_KEY_get0_group                                 output.o
EC_KEY_get0_private_key                           output.o
EC_KEY_get0_public_key                            output.o
EC_KEY_get_conv_form                              output.o
EC_KEY_get_enc_flags                              output.o
EC_KEY_get_key_method_data                        output.o
EC_KEY_insert_key_method_data                     output.o
EC_KEY_new                                        output.o
EC_KEY_new_by_curve_name                          output.o
EC_KEY_precompute_mult                            output.o
EC_KEY_print                                      output.o
EC_KEY_set_asn1_flag                              output.o
EC_KEY_set_conv_form                              output.o
EC_KEY_set_enc_flags                              output.o
EC_KEY_set_group                                  output.o
EC_KEY_set_private_key                            output.o
EC_KEY_set_public_key                             output.o
EC_KEY_up_ref                                     output.o
EC_METHOD_get_field_type                          output.o
EC_POINT_add                                      output.o
EC_POINT_bn2point                                 output.o
EC_POINT_clear_free                               output.o
EC_POINT_cmp                                      output.o
EC_POINT_copy                                     output.o
EC_POINT_dbl                                      output.o
EC_POINT_dup                                      output.o
EC_POINT_free                                     output.o
EC_POINT_get_Jprojective_coordinates_GFp          output.o
EC_POINT_get_affine_coordinates_GF2m              output.o
EC_POINT_get_affine_coordinates_GFp               output.o
EC_POINT_hex2point                                output.o
EC_POINT_invert                                   output.o
EC_POINT_is_at_infinity                           output.o
EC_POINT_is_on_curve                              output.o
EC_POINT_make_affine                              output.o
EC_POINT_method_of                                output.o
EC_POINT_mul                                      output.o
EC_POINT_new                                      output.o
EC_POINT_oct2point                                output.o
EC_POINT_point2bn                                 output.o
EC_POINT_point2hex                                output.o
EC_POINT_point2oct                                output.o
EC_POINT_set_Jprojective_coordinates_GFp          output.o
EC_POINT_set_affine_coordinates_GF2m              output.o
EC_POINT_set_affine_coordinates_GFp               output.o
EC_POINT_set_compressed_coordinates_GF2m          output.o
EC_POINT_set_compressed_coordinates_GFp           output.o
EC_POINT_set_to_infinity                          output.o
EC_POINTs_make_affine                             output.o
EC_POINTs_mul                                     output.o
EC_PRIVATEKEY_free                                output.o
EC_PRIVATEKEY_it                                  output.o
EC_PRIVATEKEY_new                                 output.o
EC_get_builtin_curves                             output.o
EDIPARTYNAME_free                                 output.o
EDIPARTYNAME_it                                   output.o
EDIPARTYNAME_new                                  output.o
EHDestroyEventHandler                             output.o
EHInitEventHandler                                output.o
EHStatusHandler                                   output.o
ERR_add_error_data                                output.o
ERR_clear_error                                   output.o
ERR_error_string                                  output.o
ERR_error_string_n                                output.o
ERR_free_strings                                  output.o
ERR_func_error_string                             output.o
ERR_get_err_state_table                           output.o
ERR_get_error                                     output.o
ERR_get_error_line                                output.o
ERR_get_error_line_data                           output.o
ERR_get_implementation                            output.o
ERR_get_next_error_library                        output.o
ERR_get_state                                     output.o
ERR_get_string_table                              output.o
ERR_lib_error_string                              output.o
ERR_load_ASN1_strings                             output.o
ERR_load_BIO_strings                              output.o
ERR_load_BN_strings                               output.o
ERR_load_BUF_strings                              output.o
ERR_load_CMS_strings                              output.o
ERR_load_COMP_strings                             output.o
ERR_load_CONF_strings                             output.o
ERR_load_CRYPTO_strings                           output.o
ERR_load_DH_strings                               output.o
ERR_load_DSA_strings                              output.o
ERR_load_DSO_strings                              output.o
ERR_load_ECDH_strings                             output.o
ERR_load_ECDSA_strings                            output.o
ERR_load_EC_strings                               output.o
ERR_load_ERR_strings                              output.o
ERR_load_EVP_strings                              output.o
ERR_load_OBJ_strings                              output.o
ERR_load_OCSP_strings                             output.o
ERR_load_PEM_strings                              output.o
ERR_load_PKCS12_strings                           output.o
ERR_load_PKCS7_strings                            output.o
ERR_load_RAND_strings                             output.o
ERR_load_RSA_strings                              output.o
ERR_load_TS_strings                               output.o
ERR_load_UI_strings                               output.o
ERR_load_X509V3_strings                           output.o
ERR_load_X509_strings                             output.o
ERR_load_crypto_strings                           output.o
ERR_load_strings                                  output.o
ERR_peek_error                                    output.o
ERR_peek_error_line                               output.o
ERR_peek_error_line_data                          output.o
ERR_peek_last_error                               output.o
ERR_peek_last_error_line                          output.o
ERR_peek_last_error_line_data                     output.o
ERR_pop_to_mark                                   output.o
ERR_print_errors                                  output.o
ERR_print_errors_cb                               output.o
ERR_put_error                                     output.o
ERR_reason_error_string                           output.o
ERR_release_err_state_table                       output.o
ERR_remove_state                                  output.o
ERR_remove_thread_state                           output.o
ERR_set_error_data                                output.o
ERR_set_implementation                            output.o
ERR_set_mark                                      output.o
ERR_unload_strings                                output.o
EVP_BytesToKey                                    output.o
EVP_CIPHER_CTX_block_size                         output.o
EVP_CIPHER_CTX_cipher                             output.o
EVP_CIPHER_CTX_cleanup                            output.o
EVP_CIPHER_CTX_clear_flags                        output.o
EVP_CIPHER_CTX_copy                               output.o
EVP_CIPHER_CTX_ctrl                               output.o
EVP_CIPHER_CTX_flags                              output.o
EVP_CIPHER_CTX_free                               output.o
EVP_CIPHER_CTX_get_app_data                       output.o
EVP_CIPHER_CTX_init                               output.o
EVP_CIPHER_CTX_iv_length                          output.o
EVP_CIPHER_CTX_key_length                         output.o
EVP_CIPHER_CTX_new                                output.o
EVP_CIPHER_CTX_nid                                output.o
EVP_CIPHER_CTX_rand_key                           output.o
EVP_CIPHER_CTX_set_app_data                       output.o
EVP_CIPHER_CTX_set_flags                          output.o
EVP_CIPHER_CTX_set_key_length                     output.o
EVP_CIPHER_CTX_set_padding                        output.o
EVP_CIPHER_CTX_test_flags                         output.o
EVP_CIPHER_asn1_to_param                          output.o
EVP_CIPHER_block_size                             output.o
EVP_CIPHER_do_all                                 output.o
EVP_CIPHER_do_all_sorted                          output.o
EVP_CIPHER_flags                                  output.o
EVP_CIPHER_get_asn1_iv                            output.o
EVP_CIPHER_iv_length                              output.o
EVP_CIPHER_key_length                             output.o
EVP_CIPHER_nid                                    output.o
EVP_CIPHER_param_to_asn1                          output.o
EVP_CIPHER_set_asn1_iv                            output.o
EVP_CIPHER_type                                   output.o
EVP_Cipher                                        output.o
EVP_CipherFinal                                   output.o
EVP_CipherFinal_ex                                output.o
EVP_CipherInit                                    output.o
EVP_CipherInit_ex                                 output.o
EVP_CipherUpdate                                  output.o
EVP_DecodeBlock                                   output.o
EVP_DecodeFinal                                   output.o
EVP_DecodeInit                                    output.o
EVP_DecodeUpdate                                  output.o
EVP_DecryptFinal                                  output.o
EVP_DecryptFinal_ex                               output.o
EVP_DecryptInit                                   output.o
EVP_DecryptInit_ex                                output.o
EVP_DecryptUpdate                                 output.o
EVP_Digest                                        output.o
EVP_DigestFinal                                   output.o
EVP_DigestFinal_ex                                output.o
EVP_DigestInit                                    output.o
EVP_DigestInit_ex                                 output.o
EVP_DigestSignFinal                               output.o
EVP_DigestSignInit                                output.o
EVP_DigestUpdate                                  output.o
EVP_DigestVerifyFinal                             output.o
EVP_DigestVerifyInit                              output.o
EVP_EncodeBlock                                   output.o
EVP_EncodeFinal                                   output.o
EVP_EncodeInit                                    output.o
EVP_EncodeUpdate                                  output.o
EVP_EncryptFinal                                  output.o
EVP_EncryptFinal_ex                               output.o
EVP_EncryptInit                                   output.o
EVP_EncryptInit_ex                                output.o
EVP_EncryptUpdate                                 output.o
EVP_MD_CTX_cleanup                                output.o
EVP_MD_CTX_clear_flags                            output.o
EVP_MD_CTX_copy                                   output.o
EVP_MD_CTX_copy_ex                                output.o
EVP_MD_CTX_create                                 output.o
EVP_MD_CTX_destroy                                output.o
EVP_MD_CTX_init                                   output.o
EVP_MD_CTX_md                                     output.o
EVP_MD_CTX_set_flags                              output.o
EVP_MD_CTX_test_flags                             output.o
EVP_MD_block_size                                 output.o
EVP_MD_do_all                                     output.o
EVP_MD_do_all_sorted                              output.o
EVP_MD_flags                                      output.o
EVP_MD_pkey_type                                  output.o
EVP_MD_size                                       output.o
EVP_MD_type                                       output.o
EVP_PBE_CipherInit                                output.o
EVP_PBE_alg_add                                   output.o
EVP_PBE_alg_add_type                              output.o
EVP_PBE_cleanup                                   output.o
EVP_PBE_find                                      output.o
EVP_PKCS82PKEY                                    output.o
EVP_PKEY2PKCS8                                    output.o
EVP_PKEY2PKCS8_broken                             output.o
EVP_PKEY_CTX_ctrl                                 output.o
EVP_PKEY_CTX_ctrl_str                             output.o
EVP_PKEY_CTX_dup                                  output.o
EVP_PKEY_CTX_free                                 output.o
EVP_PKEY_CTX_get0_peerkey                         output.o
EVP_PKEY_CTX_get0_pkey                            output.o
EVP_PKEY_CTX_get_app_data                         output.o
EVP_PKEY_CTX_get_cb                               output.o
EVP_PKEY_CTX_get_data                             output.o
EVP_PKEY_CTX_get_keygen_info                      output.o
EVP_PKEY_CTX_get_operation                        output.o
EVP_PKEY_CTX_new                                  output.o
EVP_PKEY_CTX_new_id                               output.o
EVP_PKEY_CTX_set0_keygen_info                     output.o
EVP_PKEY_CTX_set_app_data                         output.o
EVP_PKEY_CTX_set_cb                               output.o
EVP_PKEY_CTX_set_data                             output.o
EVP_PKEY_add1_attr                                output.o
EVP_PKEY_add1_attr_by_NID                         output.o
EVP_PKEY_add1_attr_by_OBJ                         output.o
EVP_PKEY_add1_attr_by_txt                         output.o
EVP_PKEY_asn1_add0                                output.o
EVP_PKEY_asn1_add_alias                           output.o
EVP_PKEY_asn1_copy                                output.o
EVP_PKEY_asn1_find                                output.o
EVP_PKEY_asn1_find_str                            output.o
EVP_PKEY_asn1_free                                output.o
EVP_PKEY_asn1_get0                                output.o
EVP_PKEY_asn1_get0_info                           output.o
EVP_PKEY_asn1_get_count                           output.o
EVP_PKEY_asn1_new                                 output.o
EVP_PKEY_asn1_set_ctrl                            output.o
EVP_PKEY_asn1_set_free                            output.o
EVP_PKEY_asn1_set_param                           output.o
EVP_PKEY_asn1_set_private                         output.o
EVP_PKEY_asn1_set_public                          output.o
EVP_PKEY_assign                                   output.o
EVP_PKEY_base_id                                  output.o
EVP_PKEY_bits                                     output.o
EVP_PKEY_cmp                                      output.o
EVP_PKEY_cmp_parameters                           output.o
EVP_PKEY_copy_parameters                          output.o
EVP_PKEY_decrypt                                  output.o
EVP_PKEY_decrypt_init                             output.o
EVP_PKEY_delete_attr                              output.o
EVP_PKEY_derive                                   output.o
EVP_PKEY_derive_init                              output.o
EVP_PKEY_derive_set_peer                          output.o
EVP_PKEY_encrypt                                  output.o
EVP_PKEY_encrypt_init                             output.o
EVP_PKEY_free                                     output.o
EVP_PKEY_get0                                     output.o
EVP_PKEY_get0_asn1                                output.o
EVP_PKEY_get1_DH                                  output.o
EVP_PKEY_get1_DSA                                 output.o
EVP_PKEY_get1_EC_KEY                              output.o
EVP_PKEY_get1_RSA                                 output.o
EVP_PKEY_get_attr                                 output.o
EVP_PKEY_get_attr_by_NID                          output.o
EVP_PKEY_get_attr_by_OBJ                          output.o
EVP_PKEY_get_attr_count                           output.o
EVP_PKEY_get_default_digest_nid                   output.o
EVP_PKEY_id                                       output.o
EVP_PKEY_keygen                                   output.o
EVP_PKEY_keygen_init                              output.o
EVP_PKEY_meth_add0                                output.o
EVP_PKEY_meth_find                                output.o
EVP_PKEY_meth_free                                output.o
EVP_PKEY_meth_new                                 output.o
EVP_PKEY_meth_set_cleanup                         output.o
EVP_PKEY_meth_set_copy                            output.o
EVP_PKEY_meth_set_ctrl                            output.o
EVP_PKEY_meth_set_decrypt                         output.o
EVP_PKEY_meth_set_derive                          output.o
EVP_PKEY_meth_set_encrypt                         output.o
EVP_PKEY_meth_set_init                            output.o
EVP_PKEY_meth_set_keygen                          output.o
EVP_PKEY_meth_set_paramgen                        output.o
EVP_PKEY_meth_set_sign                            output.o
EVP_PKEY_meth_set_signctx                         output.o
EVP_PKEY_meth_set_verify                          output.o
EVP_PKEY_meth_set_verify_recover                  output.o
EVP_PKEY_meth_set_verifyctx                       output.o
EVP_PKEY_missing_parameters                       output.o
EVP_PKEY_new                                      output.o
EVP_PKEY_new_mac_key                              output.o
EVP_PKEY_paramgen                                 output.o
EVP_PKEY_paramgen_init                            output.o
EVP_PKEY_print_params                             output.o
EVP_PKEY_print_private                            output.o
EVP_PKEY_print_public                             output.o
EVP_PKEY_save_parameters                          output.o
EVP_PKEY_set1_DH                                  output.o
EVP_PKEY_set1_DSA                                 output.o
EVP_PKEY_set1_EC_KEY                              output.o
EVP_PKEY_set1_RSA                                 output.o
EVP_PKEY_set_type                                 output.o
EVP_PKEY_set_type_str                             output.o
EVP_PKEY_sign                                     output.o
EVP_PKEY_sign_init                                output.o
EVP_PKEY_size                                     output.o
EVP_PKEY_type                                     output.o
EVP_PKEY_verify                                   output.o
EVP_PKEY_verify_init                              output.o
EVP_PKEY_verify_recover                           output.o
EVP_PKEY_verify_recover_init                      output.o
EVP_SignFinal                                     output.o
EVP_VerifyFinal                                   output.o
EVP_add_cipher                                    output.o
EVP_add_digest                                    output.o
EVP_aes_128_cbc                                   output.o
EVP_aes_128_cfb1                                  output.o
EVP_aes_128_cfb128                                output.o
EVP_aes_128_cfb8                                  output.o
EVP_aes_128_ecb                                   output.o
EVP_aes_128_ofb                                   output.o
EVP_aes_192_cbc                                   output.o
EVP_aes_192_cfb1                                  output.o
EVP_aes_192_cfb128                                output.o
EVP_aes_192_cfb8                                  output.o
EVP_aes_192_ecb                                   output.o
EVP_aes_192_ofb                                   output.o
EVP_aes_256_cbc                                   output.o
EVP_aes_256_cfb1                                  output.o
EVP_aes_256_cfb128                                output.o
EVP_aes_256_cfb8                                  output.o
EVP_aes_256_ecb                                   output.o
EVP_aes_256_ofb                                   output.o
EVP_bf_cbc                                        output.o
EVP_bf_cfb64                                      output.o
EVP_bf_ecb                                        output.o
EVP_bf_ofb                                        output.o
EVP_cast5_cbc                                     output.o
EVP_cast5_cfb64                                   output.o
EVP_cast5_ecb                                     output.o
EVP_cast5_ofb                                     output.o
EVP_cleanup                                       output.o
EVP_des_cbc                                       output.o
EVP_des_cfb1                                      output.o
EVP_des_cfb64                                     output.o
EVP_des_cfb8                                      output.o
EVP_des_ecb                                       output.o
EVP_des_ede                                       output.o
EVP_des_ede3                                      output.o
EVP_des_ede3_cbc                                  output.o
EVP_des_ede3_cfb1                                 output.o
EVP_des_ede3_cfb64                                output.o
EVP_des_ede3_cfb8                                 output.o
EVP_des_ede3_ecb                                  output.o
EVP_des_ede3_ofb                                  output.o
EVP_des_ede_cbc                                   output.o
EVP_des_ede_cfb64                                 output.o
EVP_des_ede_ecb                                   output.o
EVP_des_ede_ofb                                   output.o
EVP_des_ofb                                       output.o
EVP_desx_cbc                                      output.o
EVP_dss                                           output.o
EVP_dss1                                          output.o
EVP_ecdsa                                         output.o
EVP_get_cipherbyname                              output.o
EVP_get_digestbyname                              output.o
EVP_get_pw_prompt                                 output.o
EVP_idea_cbc                                      output.o
EVP_idea_cfb64                                    output.o
EVP_idea_ecb                                      output.o
EVP_idea_ofb                                      output.o
EVP_md4                                           output.o
EVP_md5                                           output.o
EVP_rc2_40_cbc                                    output.o
EVP_rc2_64_cbc                                    output.o
EVP_rc2_cbc                                       output.o
EVP_rc2_cfb64                                     output.o
EVP_rc2_ecb                                       output.o
EVP_rc2_ofb                                       output.o
EVP_rc4                                           output.o
EVP_rc4_40                                        output.o
EVP_read_pw_string                                output.o
EVP_read_pw_string_min                            output.o
EVP_ripemd160                                     output.o
EVP_set_pw_prompt                                 output.o
EVP_sha                                           output.o
EVP_sha1                                          output.o
EVP_sha224                                        output.o
EVP_sha256                                        output.o
EVP_sha384                                        output.o
EVP_sha512                                        output.o
EVP_version                                       output.o
EVP_whirlpool                                     output.o
EXTENDED_KEY_USAGE_free                           output.o
EXTENDED_KEY_USAGE_it                             output.o
EXTENDED_KEY_USAGE_new                            output.o
ExchangePPSData                                   output.o
FI                                                output.o
FindBaudRateTable                                 output.o
GENERAL_NAMES_free                                output.o
GENERAL_NAMES_it                                  output.o
GENERAL_NAMES_new                                 output.o
GENERAL_NAME_cmp                                  output.o
GENERAL_NAME_dup                                  output.o
GENERAL_NAME_free                                 output.o
GENERAL_NAME_get0_otherName                       output.o
GENERAL_NAME_get0_value                           output.o
GENERAL_NAME_it                                   output.o
GENERAL_NAME_new                                  output.o
GENERAL_NAME_print                                output.o
GENERAL_NAME_set0_othername                       output.o
GENERAL_NAME_set0_value                           output.o
GENERAL_SUBTREE_free                              output.o
GENERAL_SUBTREE_it                                output.o
GENERAL_SUBTREE_new                               output.o
GetAttrValType                                    output.o
GetBWICWIData                                     output.o
GetCardStatus                                     output.o
GetDirDataByTlv                                   output.o
GetElem                                           output.o
GetICCardData                                     output.o
GetIFSCData                                       output.o
GetLength                                         output.o
GetOdfDataByTlv                                   output.o
GetTlvByBuf                                       output.o
GetTokenDataByTlv                                 output.o
GetUlByByte                                       output.o
GetUlByTxt                                        output.o
GetValueData                                      output.o
GetVerByTex                                       output.o
HMAC                                              output.o
HMAC_CTX_cleanup                                  output.o
HMAC_CTX_copy                                     output.o
HMAC_CTX_init                                     output.o
HMAC_CTX_set_flags                                output.o
HMAC_Final                                        output.o
HMAC_Init                                         output.o
HMAC_Init_ex                                      output.o
HMAC_Update                                       output.o
HPSearchHotPluggables                             output.o
IDEA_version                                      output.o
IDMan_CheckCardStatus                             output.o
IDMan_CmCheckCRL                                  output.o
IDMan_CmChgRSA                                    output.o
IDMan_CmGetCertificateSign                        output.o
IDMan_CmGetDN                                     output.o
IDMan_CmGetPublicKey                              output.o
IDMan_CmMakeRand                                  output.o
IDMan_CmMkHash                                    output.o
IDMan_CmPadding                                   output.o
IDMan_CmPadding2                                  output.o
IDMan_EncryptByIndex                              output.o
IDMan_IPCheckCrlPkcX                              output.o
IDMan_IPCheckPKC                                  output.o
IDMan_IPCheckSignature                            output.o
IDMan_IPCrSignature                               output.o
IDMan_IPFinalize                                  output.o
IDMan_IPFinalizeReader                            output.o
IDMan_IPIdPassListMalloc                          output.o
IDMan_IPInitialize                                output.o
IDMan_IPInitializeReader                          output.o
IDMan_IPMkPublicKeyObj                            output.o
IDMan_IPMkRandHash                                output.o
IDMan_IPRetJudgment                               output.o
IDMan_IPSignatureVerify                           output.o
IDMan_IPgCIndexParamChk                           output.o
IDMan_IPgCParamChk                                output.o
IDMan_IPgIdxSParamChk                             output.o
IDMan_IPgSParamChk                                output.o
IDMan_IPgetCertIdxPKCS                            output.o
IDMan_IPgetCertPKCS                               output.o
IDMan_IPgetCertPkeyIdxPKCSx                       output.o
IDMan_IPgetCertPkeyPKCSx                          output.o
IDMan_IPgetCertPkeyPKCSy                          output.o
IDMan_IPgetHash                                   output.o
IDMan_IPgetMakeRandData                           output.o
IDMan_IPgetPrivateKey                             output.o
IDMan_IPgetPrivateKeyPKCSx                        output.o
IDMan_IPuAPKCS11IdxParamChk                       output.o
IDMan_IPuAPKCS11ParamChk                          output.o
IDMan_IPvSIdxParamChk                             output.o
IDMan_IPvSParamChk                                output.o
IDMan_PaddingParamChk                             output.o
IDMan_SCardConnect                                output.o
IDMan_SCardDisconnect                             output.o
IDMan_SCardEstablishContext                       output.o
IDMan_SCardListReaders                            output.o
IDMan_SCardReleaseContext                         output.o
IDMan_SCardSetBinay                               output.o
IDMan_SCardSizeLongToChar                         output.o
IDMan_SCardStatus                                 output.o
IDMan_SCardTransmit                               output.o
IDMan_StAtoi                                      output.o
IDMan_StAtol                                      output.o
IDMan_StFree                                      output.o
IDMan_StMalloc                                    output.o
IDMan_StMemcmp                                    output.o
IDMan_StMemcpy                                    output.o
IDMan_StMemset                                    output.o
IDMan_StReadSetData                               output.o
IDMan_StStrcat                                    output.o
IDMan_StStrchr                                    output.o
IDMan_StStrcmp                                    output.o
IDMan_StStrcpy                                    output.o
IDMan_StStrlen                                    output.o
IDMan_generateSignature                           output.o
IDMan_generateSignatureByIndex                    output.o
IDMan_getCertificate                              output.o
IDMan_getCertificateByIndex                       output.o
IDMan_getMemoryFree                               output.o
IDMan_getStaticPassword                           output.o
IDMan_userAuthPKCS11                              output.o
IDMan_userAuthPKCS11ByIndex                       output.o
IDMan_verifySignature                             output.o
IDMan_verifySignatureByIndex                      output.o
IFDHCloseChannel                                  output.o
IFDHControl                                       output.o
IFDHCreateChannel                                 output.o
IFDHGetCapabilities                               output.o
IFDHICCPresence                                   output.o
IFDHPowerICC                                      output.o
IFDHSetProtocolParameters                         output.o
IFDHTransmitToICC                                 output.o
ISSUING_DIST_POINT_free                           output.o
ISSUING_DIST_POINT_it                             output.o
ISSUING_DIST_POINT_new                            output.o
InitCryptoLibrary                                 output.o
InitLeaderCardProtocol                            output.o
InternalAuth                                      output.o
LONG_it                                           output.o
MD4_Final                                         output.o
MD4_Init                                          output.o
MD4_Transform                                     output.o
MD4_Update                                        output.o
MD4_version                                       output.o
MD5                                               output.o
MD5_Final                                         output.o
MD5_Init                                          output.o
MD5_Transform                                     output.o
MD5_Update                                        output.o
MD5_version                                       output.o
NAME_CONSTRAINTS_check                            output.o
NAME_CONSTRAINTS_free                             output.o
NAME_CONSTRAINTS_it                               output.o
NAME_CONSTRAINTS_new                              output.o
NCONF_WIN32                                       output.o
NCONF_default                                     output.o
NCONF_dump_bio                                    output.o
NCONF_free                                        output.o
NCONF_free_data                                   output.o
NCONF_get_number_e                                output.o
NCONF_get_section                                 output.o
NCONF_get_string                                  output.o
NCONF_load                                        output.o
NCONF_load_bio                                    output.o
NCONF_new                                         output.o
NETSCAPE_CERT_SEQUENCE_free                       output.o
NETSCAPE_CERT_SEQUENCE_it                         output.o
NETSCAPE_CERT_SEQUENCE_new                        output.o
NETSCAPE_SPKAC_free                               output.o
NETSCAPE_SPKAC_it                                 output.o
NETSCAPE_SPKAC_new                                output.o
NETSCAPE_SPKI_free                                output.o
NETSCAPE_SPKI_it                                  output.o
NETSCAPE_SPKI_new                                 output.o
NETSCAPE_SPKI_sign                                output.o
NETSCAPE_SPKI_verify                              output.o
NOTICEREF_free                                    output.o
NOTICEREF_it                                      output.o
NOTICEREF_new                                     output.o
OBJ_NAME_add                                      output.o
OBJ_NAME_cleanup                                  output.o
OBJ_NAME_do_all                                   output.o
OBJ_NAME_do_all_sorted                            output.o
OBJ_NAME_get                                      output.o
OBJ_NAME_init                                     output.o
OBJ_NAME_new_index                                output.o
OBJ_NAME_remove                                   output.o
OBJ_add_object                                    output.o
OBJ_add_sigid                                     output.o
OBJ_bsearch_                                      output.o
OBJ_bsearch_ex_                                   output.o
OBJ_cleanup                                       output.o
OBJ_cmp                                           output.o
OBJ_create                                        output.o
OBJ_create_objects                                output.o
OBJ_dup                                           output.o
OBJ_find_sigid_algs                               output.o
OBJ_find_sigid_by_algs                            output.o
OBJ_ln2nid                                        output.o
OBJ_new_nid                                       output.o
OBJ_nid2ln                                        output.o
OBJ_nid2obj                                       output.o
OBJ_nid2sn                                        output.o
OBJ_obj2nid                                       output.o
OBJ_obj2txt                                       output.o
OBJ_sigid_free                                    output.o
OBJ_sn2nid                                        output.o
OBJ_txt2nid                                       output.o
OBJ_txt2obj                                       output.o
OCSP_BASICRESP_free                               output.o
OCSP_BASICRESP_it                                 output.o
OCSP_BASICRESP_new                                output.o
OCSP_CERTID_free                                  output.o
OCSP_CERTID_it                                    output.o
OCSP_CERTID_new                                   output.o
OCSP_CERTSTATUS_free                              output.o
OCSP_CERTSTATUS_it                                output.o
OCSP_CERTSTATUS_new                               output.o
OCSP_CRLID_free                                   output.o
OCSP_CRLID_it                                     output.o
OCSP_CRLID_new                                    output.o
OCSP_ONEREQ_free                                  output.o
OCSP_ONEREQ_it                                    output.o
OCSP_ONEREQ_new                                   output.o
OCSP_REQINFO_free                                 output.o
OCSP_REQINFO_it                                   output.o
OCSP_REQINFO_new                                  output.o
OCSP_REQUEST_free                                 output.o
OCSP_REQUEST_it                                   output.o
OCSP_REQUEST_new                                  output.o
OCSP_RESPBYTES_free                               output.o
OCSP_RESPBYTES_it                                 output.o
OCSP_RESPBYTES_new                                output.o
OCSP_RESPDATA_free                                output.o
OCSP_RESPDATA_it                                  output.o
OCSP_RESPDATA_new                                 output.o
OCSP_RESPID_free                                  output.o
OCSP_RESPID_it                                    output.o
OCSP_RESPID_new                                   output.o
OCSP_RESPONSE_free                                output.o
OCSP_RESPONSE_it                                  output.o
OCSP_RESPONSE_new                                 output.o
OCSP_REVOKEDINFO_free                             output.o
OCSP_REVOKEDINFO_it                               output.o
OCSP_REVOKEDINFO_new                              output.o
OCSP_SERVICELOC_free                              output.o
OCSP_SERVICELOC_it                                output.o
OCSP_SERVICELOC_new                               output.o
OCSP_SIGNATURE_free                               output.o
OCSP_SIGNATURE_it                                 output.o
OCSP_SIGNATURE_new                                output.o
OCSP_SINGLERESP_free                              output.o
OCSP_SINGLERESP_it                                output.o
OCSP_SINGLERESP_new                               output.o
OPENSSL_NONPIC_relocated                          output.o
OPENSSL_asc2uni                                   output.o
OPENSSL_cleanse                                   output.o
OPENSSL_cpuid_setup                               output.o
OPENSSL_gmtime                                    output.o
OPENSSL_gmtime_adj                                output.o
OPENSSL_ia32cap_P                                 output.o
OPENSSL_ia32cap_loc                               output.o
OPENSSL_isservice                                 output.o
OPENSSL_showfatal                                 output.o
OPENSSL_stderr                                    output.o
OPENSSL_uni2asc                                   output.o
OSSL_DES_version                                  output.o
OSSL_libdes_version                               output.o
OTHERNAME_cmp                                     output.o
OTHERNAME_free                                    output.o
OTHERNAME_it                                      output.o
OTHERNAME_new                                     output.o
OpenSSLDie                                        output.o
OpenSSL_add_all_ciphers                           output.o
OpenSSL_add_all_digests                           output.o
OpenUSB                                           output.o
PAGE_POOL_START                                   output.o
PBE2PARAM_free                                    output.o
PBE2PARAM_it                                      output.o
PBE2PARAM_new                                     output.o
PBEPARAM_free                                     output.o
PBEPARAM_it                                       output.o
PBEPARAM_new                                      output.o
PBKDF2PARAM_free                                  output.o
PBKDF2PARAM_it                                    output.o
PBKDF2PARAM_new                                   output.o
PEM_ASN1_read_bio                                 output.o
PEM_ASN1_write_bio                                output.o
PEM_bytes_read_bio                                output.o
PEM_def_callback                                  output.o
PEM_dek_info                                      output.o
PEM_do_header                                     output.o
PEM_get_EVP_CIPHER_INFO                           output.o
PEM_proc_type                                     output.o
PEM_read_bio                                      output.o
PEM_read_bio_CMS                                  output.o
PEM_read_bio_DHparams                             output.o
PEM_read_bio_DSAPrivateKey                        output.o
PEM_read_bio_DSA_PUBKEY                           output.o
PEM_read_bio_DSAparams                            output.o
PEM_read_bio_ECPKParameters                       output.o
PEM_read_bio_ECPrivateKey                         output.o
PEM_read_bio_EC_PUBKEY                            output.o
PEM_read_bio_NETSCAPE_CERT_SEQUENCE               output.o
PEM_read_bio_PKCS7                                output.o
PEM_read_bio_PKCS8                                output.o
PEM_read_bio_PKCS8_PRIV_KEY_INFO                  output.o
PEM_read_bio_PUBKEY                               output.o
PEM_read_bio_Parameters                           output.o
PEM_read_bio_PrivateKey                           output.o
PEM_read_bio_RSAPrivateKey                        output.o
PEM_read_bio_RSAPublicKey                         output.o
PEM_read_bio_RSA_PUBKEY                           output.o
PEM_read_bio_X509                                 output.o
PEM_read_bio_X509_CRL                             output.o
PEM_read_bio_X509_REQ                             output.o
PEM_version                                       output.o
PEM_write_bio                                     output.o
PEM_write_bio_ASN1_stream                         output.o
PEM_write_bio_CMS                                 output.o
PEM_write_bio_CMS_stream                          output.o
PEM_write_bio_DHparams                            output.o
PEM_write_bio_DSAPrivateKey                       output.o
PEM_write_bio_DSA_PUBKEY                          output.o
PEM_write_bio_DSAparams                           output.o
PEM_write_bio_ECPKParameters                      output.o
PEM_write_bio_ECPrivateKey                        output.o
PEM_write_bio_EC_PUBKEY                           output.o
PEM_write_bio_NETSCAPE_CERT_SEQUENCE              output.o
PEM_write_bio_PKCS7                               output.o
PEM_write_bio_PKCS8                               output.o
PEM_write_bio_PKCS8PrivateKey                     output.o
PEM_write_bio_PKCS8PrivateKey_nid                 output.o
PEM_write_bio_PKCS8_PRIV_KEY_INFO                 output.o
PEM_write_bio_PUBKEY                              output.o
PEM_write_bio_Parameters                          output.o
PEM_write_bio_PrivateKey                          output.o
PEM_write_bio_RSAPrivateKey                       output.o
PEM_write_bio_RSAPublicKey                        output.o
PEM_write_bio_RSA_PUBKEY                          output.o
PEM_write_bio_X509                                output.o
PEM_write_bio_X509_CRL                            output.o
PEM_write_bio_X509_REQ                            output.o
PEM_write_bio_X509_REQ_NEW                        output.o
PHGetProtocol                                     output.o
PHSetProtocol                                     output.o
PKCS12_AUTHSAFES_it                               output.o
PKCS12_BAGS_free                                  output.o
PKCS12_BAGS_it                                    output.o
PKCS12_BAGS_new                                   output.o
PKCS12_MAC_DATA_free                              output.o
PKCS12_MAC_DATA_it                                output.o
PKCS12_MAC_DATA_new                               output.o
PKCS12_MAKE_KEYBAG                                output.o
PKCS12_MAKE_SHKEYBAG                              output.o
PKCS12_PBE_add                                    output.o
PKCS12_PBE_keyivgen                               output.o
PKCS12_SAFEBAGS_it                                output.o
PKCS12_SAFEBAG_free                               output.o
PKCS12_SAFEBAG_it                                 output.o
PKCS12_SAFEBAG_new                                output.o
PKCS12_certbag2x509                               output.o
PKCS12_certbag2x509crl                            output.o
PKCS12_decrypt_skey                               output.o
PKCS12_free                                       output.o
PKCS12_it                                         output.o
PKCS12_item_decrypt_d2i                           output.o
PKCS12_item_i2d_encrypt                           output.o
PKCS12_item_pack_safebag                          output.o
PKCS12_key_gen_asc                                output.o
PKCS12_key_gen_uni                                output.o
PKCS12_new                                        output.o
PKCS12_pack_authsafes                             output.o
PKCS12_pack_p7data                                output.o
PKCS12_pack_p7encdata                             output.o
PKCS12_pbe_crypt                                  output.o
PKCS12_unpack_authsafes                           output.o
PKCS12_unpack_p7data                              output.o
PKCS12_unpack_p7encdata                           output.o
PKCS12_x5092certbag                               output.o
PKCS12_x509crl2certbag                            output.o
PKCS1_MGF1                                        output.o
PKCS5_PBE_add                                     output.o
PKCS5_PBE_keyivgen                                output.o
PKCS5_PBKDF2_HMAC                                 output.o
PKCS5_PBKDF2_HMAC_SHA1                            output.o
PKCS5_pbe2_set                                    output.o
PKCS5_pbe2_set_iv                                 output.o
PKCS5_pbe_set                                     output.o
PKCS5_pbe_set0_algor                              output.o
PKCS5_v2_PBE_keyivgen                             output.o
PKCS7_ATTR_SIGN_it                                output.o
PKCS7_ATTR_VERIFY_it                              output.o
PKCS7_DIGEST_free                                 output.o
PKCS7_DIGEST_it                                   output.o
PKCS7_DIGEST_new                                  output.o
PKCS7_ENCRYPT_free                                output.o
PKCS7_ENCRYPT_it                                  output.o
PKCS7_ENCRYPT_new                                 output.o
PKCS7_ENC_CONTENT_free                            output.o
PKCS7_ENC_CONTENT_it                              output.o
PKCS7_ENC_CONTENT_new                             output.o
PKCS7_ENVELOPE_free                               output.o
PKCS7_ENVELOPE_it                                 output.o
PKCS7_ENVELOPE_new                                output.o
PKCS7_ISSUER_AND_SERIAL_digest                    output.o
PKCS7_ISSUER_AND_SERIAL_free                      output.o
PKCS7_ISSUER_AND_SERIAL_it                        output.o
PKCS7_ISSUER_AND_SERIAL_new                       output.o
PKCS7_RECIP_INFO_free                             output.o
PKCS7_RECIP_INFO_get0_alg                         output.o
PKCS7_RECIP_INFO_it                               output.o
PKCS7_RECIP_INFO_new                              output.o
PKCS7_RECIP_INFO_set                              output.o
PKCS7_SIGNED_free                                 output.o
PKCS7_SIGNED_it                                   output.o
PKCS7_SIGNED_new                                  output.o
PKCS7_SIGNER_INFO_free                            output.o
PKCS7_SIGNER_INFO_get0_algs                       output.o
PKCS7_SIGNER_INFO_it                              output.o
PKCS7_SIGNER_INFO_new                             output.o
PKCS7_SIGNER_INFO_set                             output.o
PKCS7_SIGNER_INFO_sign                            output.o
PKCS7_SIGN_ENVELOPE_free                          output.o
PKCS7_SIGN_ENVELOPE_it                            output.o
PKCS7_SIGN_ENVELOPE_new                           output.o
PKCS7_add0_attrib_signing_time                    output.o
PKCS7_add1_attrib_digest                          output.o
PKCS7_add_attrib_content_type                     output.o
PKCS7_add_attrib_smimecap                         output.o
PKCS7_add_attribute                               output.o
PKCS7_add_certificate                             output.o
PKCS7_add_crl                                     output.o
PKCS7_add_recipient                               output.o
PKCS7_add_recipient_info                          output.o
PKCS7_add_signature                               output.o
PKCS7_add_signed_attribute                        output.o
PKCS7_add_signer                                  output.o
PKCS7_cert_from_signer_info                       output.o
PKCS7_content_new                                 output.o
PKCS7_ctrl                                        output.o
PKCS7_dataDecode                                  output.o
PKCS7_dataFinal                                   output.o
PKCS7_dataInit                                    output.o
PKCS7_dataVerify                                  output.o
PKCS7_digest_from_attributes                      output.o
PKCS7_dup                                         output.o
PKCS7_free                                        output.o
PKCS7_get_attribute                               output.o
PKCS7_get_issuer_and_serial                       output.o
PKCS7_get_signed_attribute                        output.o
PKCS7_get_signer_info                             output.o
PKCS7_get_smimecap                                output.o
PKCS7_it                                          output.o
PKCS7_new                                         output.o
PKCS7_print_ctx                                   output.o
PKCS7_set0_type_other                             output.o
PKCS7_set_attributes                              output.o
PKCS7_set_cipher                                  output.o
PKCS7_set_content                                 output.o
PKCS7_set_digest                                  output.o
PKCS7_set_signed_attributes                       output.o
PKCS7_set_type                                    output.o
PKCS7_signatureVerify                             output.o
PKCS7_simple_smimecap                             output.o
PKCS7_stream                                      output.o
PKCS8_PRIV_KEY_INFO_free                          output.o
PKCS8_PRIV_KEY_INFO_it                            output.o
PKCS8_PRIV_KEY_INFO_new                           output.o
PKCS8_decrypt                                     output.o
PKCS8_encrypt                                     output.o
PKCS8_pkey_get0                                   output.o
PKCS8_pkey_set0                                   output.o
PKCS8_set_broken                                  output.o
PKEY_USAGE_PERIOD_free                            output.o
PKEY_USAGE_PERIOD_it                              output.o
PKEY_USAGE_PERIOD_new                             output.o
POLICYINFO_free                                   output.o
POLICYINFO_it                                     output.o
POLICYINFO_new                                    output.o
POLICYQUALINFO_free                               output.o
POLICYQUALINFO_it                                 output.o
POLICYQUALINFO_new                                output.o
POLICY_CONSTRAINTS_free                           output.o
POLICY_CONSTRAINTS_it                             output.o
POLICY_CONSTRAINTS_new                            output.o
POLICY_MAPPINGS_it                                output.o
POLICY_MAPPING_free                               output.o
POLICY_MAPPING_it                                 output.o
POLICY_MAPPING_new                                output.o
PROXY_CERT_INFO_EXTENSION_free                    output.o
PROXY_CERT_INFO_EXTENSION_it                      output.o
PROXY_CERT_INFO_EXTENSION_new                     output.o
PROXY_POLICY_free                                 output.o
PROXY_POLICY_it                                   output.o
PROXY_POLICY_new                                  output.o
PowerOff                                          output.o
PowerOn                                           output.o
RAND_SSLeay                                       output.o
RAND_add                                          output.o
RAND_bytes                                        output.o
RAND_cleanup                                      output.o
RAND_get_rand_method                              output.o
RAND_poll                                         output.o
RAND_pseudo_bytes                                 output.o
RAND_seed                                         output.o
RAND_set_rand_method                              output.o
RAND_status                                       output.o
RAND_version                                      output.o
RC2_cbc_encrypt                                   output.o
RC2_cfb64_encrypt                                 output.o
RC2_decrypt                                       output.o
RC2_ecb_encrypt                                   output.o
RC2_encrypt                                       output.o
RC2_ofb64_encrypt                                 output.o
RC2_set_key                                       output.o
RC2_version                                       output.o
RC4                                               output.o
RC4_options                                       output.o
RC4_set_key                                       output.o
RC4_version                                       output.o
RFAddReader                                       output.o
RFCheckReaderEventState                           output.o
RFReaderInfoById                                  output.o
RFRemoveReader                                    output.o
RIPEMD160_Final                                   output.o
RIPEMD160_Init                                    output.o
RIPEMD160_Transform                               output.o
RIPEMD160_Update                                  output.o
RMD160_version                                    output.o
RSAPrivateKey_dup                                 output.o
RSAPrivateKey_it                                  output.o
RSAPublicKey_dup                                  output.o
RSAPublicKey_it                                   output.o
RSA_PKCS1_SSLeay                                  output.o
RSA_X931_hash_id                                  output.o
RSA_blinding_off                                  output.o
RSA_blinding_on                                   output.o
RSA_flags                                         output.o
RSA_free                                          output.o
RSA_generate_key                                  output.o
RSA_generate_key_ex                               output.o
RSA_get_default_method                            output.o
RSA_get_ex_data                                   output.o
RSA_get_ex_new_index                              output.o
RSA_get_method                                    output.o
RSA_memory_lock                                   output.o
RSA_new                                           output.o
RSA_new_method                                    output.o
RSA_padding_add_PKCS1_OAEP                        output.o
RSA_padding_add_PKCS1_PSS                         output.o
RSA_padding_add_PKCS1_type_1                      output.o
RSA_padding_add_PKCS1_type_2                      output.o
RSA_padding_add_SSLv23                            output.o
RSA_padding_add_X931                              output.o
RSA_padding_add_none                              output.o
RSA_padding_check_PKCS1_OAEP                      output.o
RSA_padding_check_PKCS1_type_1                    output.o
RSA_padding_check_PKCS1_type_2                    output.o
RSA_padding_check_SSLv23                          output.o
RSA_padding_check_X931                            output.o
RSA_padding_check_none                            output.o
RSA_private_decrypt                               output.o
RSA_private_encrypt                               output.o
RSA_public_decrypt                                output.o
RSA_public_encrypt                                output.o
RSA_set_default_method                            output.o
RSA_set_ex_data                                   output.o
RSA_set_method                                    output.o
RSA_setup_blinding                                output.o
RSA_sign                                          output.o
RSA_size                                          output.o
RSA_up_ref                                        output.o
RSA_verify                                        output.o
RSA_verify_PKCS1_PSS                              output.o
RSA_version                                       output.o
ReadBinary                                        output.o
ReadDataT0                                        output.o
ReadUSB                                           output.o
ReceiveReply                                      output.o
SCardBeginTransaction                             output.o
SCardConnect                                      output.o
SCardDisconnect                                   output.o
SCardEndTransaction                               output.o
SCardEstablishContext                             output.o
SCardListReaders                                  output.o
SCardReleaseContext                               output.o
SCardStatus                                       output.o
SCardTransmit                                     output.o
SHA1                                              output.o
SHA1_Final                                        output.o
SHA1_Init                                         output.o
SHA1_Transform                                    output.o
SHA1_Update                                       output.o
SHA1_version                                      output.o
SHA224                                            output.o
SHA224_Final                                      output.o
SHA224_Init                                       output.o
SHA224_Update                                     output.o
SHA256                                            output.o
SHA256_Final                                      output.o
SHA256_Init                                       output.o
SHA256_Transform                                  output.o
SHA256_Update                                     output.o
SHA256_version                                    output.o
SHA384                                            output.o
SHA384_Final                                      output.o
SHA384_Init                                       output.o
SHA384_Update                                     output.o
SHA512                                            output.o
SHA512_Final                                      output.o
SHA512_Init                                       output.o
SHA512_Transform                                  output.o
SHA512_Update                                     output.o
SHA512_version                                    output.o
SHA_Final                                         output.o
SHA_Init                                          output.o
SHA_Transform                                     output.o
SHA_Update                                        output.o
SHA_version                                       output.o
SMIME_crlf_copy                                   output.o
SMIME_read_ASN1                                   output.o
SMIME_read_CMS                                    output.o
SMIME_text                                        output.o
SMIME_write_ASN1                                  output.o
SMIME_write_CMS                                   output.o
STACK_version                                     output.o
SXNETID_free                                      output.o
SXNETID_it                                        output.o
SXNETID_new                                       output.o
SXNET_add_id_INTEGER                              output.o
SXNET_add_id_asc                                  output.o
SXNET_add_id_ulong                                output.o
SXNET_free                                        output.o
SXNET_get_id_INTEGER                              output.o
SXNET_get_id_asc                                  output.o
SXNET_get_id_ulong                                output.o
SXNET_it                                          output.o
SXNET_new                                         output.o
Se4AddArpEntryList                                output.o
Se4AdjustTcpMss                                   output.o
Se4And                                            output.o
Se4BitToHex                                       output.o
Se4BroadcastMacAddress                            output.o
Se4BuildIcmpEchoPacket                            output.o
Se4CheckUnicastAddress                            output.o
Se4Cmp                                            output.o
Se4CmpArpEntry                                    output.o
Se4CmpArpWaitEntry                                output.o
Se4CmpIpCombineList                               output.o
Se4CombineIp                                      output.o
Se4FlushArpEntryList                              output.o
Se4FlushIpCombineList                             output.o
Se4FlushIpWaitList                                output.o
Se4Free                                           output.o
Se4FreeArpEntryList                               output.o
Se4FreeArpWaitList                                output.o
Se4FreeIpCombine                                  output.o
Se4FreeIpCombineList                              output.o
Se4FreeIpFragmentList                             output.o
Se4FreeIpHeaderInfo                               output.o
Se4FreeIpWait                                     output.o
Se4FreeIpWaitList                                 output.o
Se4GenerateSubnetMask                             output.o
Se4GenerateSubnetMask32                           output.o
Se4GetBroadcastAddress                            output.o
Se4GetHostAddress                                 output.o
Se4GetNetworkAddress                              output.o
Se4IPToStr                                        output.o
Se4IPToStr32                                      output.o
Se4IPToUINT                                       output.o
Se4Init                                           output.o
Se4InitArpEntryList                               output.o
Se4InitArpWaitList                                output.o
Se4InitIpCombineList                              output.o
Se4InitIpFragmentList                             output.o
Se4InitIpWaitList                                 output.o
Se4InsertIpCombine                                output.o
Se4InsertIpWait                                   output.o
Se4IpCheckChecksum                                output.o
Se4IpChecksum                                     output.o
Se4IsBroadcastAddress                             output.o
Se4IsInSameNetwork                                output.o
Se4IsSubnetMask                                   output.o
Se4IsZeroIP                                       output.o
Se4MacIpRelationKnown                             output.o
Se4MainProc                                       output.o
Se4Not                                            output.o
Se4Or                                             output.o
Se4ParseIpPacket                                  output.o
Se4ParseIpPacketICMPv4                            output.o
Se4ParseIpPacketUDPv4                             output.o
Se4ProcessArpWaitList                             output.o
Se4RecvArp                                        output.o
Se4RecvArpRequest                                 output.o
Se4RecvArpResponse                                output.o
Se4RecvEthPacket                                  output.o
Se4RecvIp                                         output.o
Se4RecvIpComplete                                 output.o
Se4SearchArpEntryList                             output.o
Se4SearchArpWaitList                              output.o
Se4SearchIpCombineList                            output.o
Se4SendArpDoProcess                               output.o
Se4SendArpRequest                                 output.o
Se4SendArpResponse                                output.o
Se4SendEthPacket                                  output.o
Se4SendIcmp                                       output.o
Se4SendIcmpEchoRequest                            output.o
Se4SendIcmpEchoResponse                           output.o
Se4SendIp                                         output.o
Se4SendIpFragment                                 output.o
Se4SendIpFragmentNow                              output.o
Se4SendRawIp                                      output.o
Se4SendUdp                                        output.o
Se4SendWaitingIpWait                              output.o
Se4StrToIP                                        output.o
Se4StrToIP32                                      output.o
Se4Tick                                           output.o
Se4UINTToIP                                       output.o
Se4ZeroIP                                         output.o
Se6AddGuestNode                                   output.o
Se6AddNeighborEntryList                           output.o
Se6And                                            output.o
Se6BroadcastMacAddress                            output.o
Se6BuildIcmpEchoPacket                            output.o
Se6CalcChecksum                                   output.o
Se6CheckIPItemStr                                 output.o
Se6CheckSubnetLength                              output.o
Se6CheckUnicastAddress                            output.o
Se6Cmp                                            output.o
Se6CmpIpCombineList                               output.o
Se6CmpNdpWaitEntry                                output.o
Se6CmpNeighborEntry                               output.o
Se6CombineIp                                      output.o
Se6FlushIpCombineList                             output.o
Se6FlushIpWaitList                                output.o
Se6FlushNeighborEntryList                         output.o
Se6Free                                           output.o
Se6FreeIpCombine                                  output.o
Se6FreeIpCombineList                              output.o
Se6FreeIpFragmentList                             output.o
Se6FreeIpHeaderInfo                               output.o
Se6FreeIpWait                                     output.o
Se6FreeIpWaitList                                 output.o
Se6FreeNdpWaitList                                output.o
Se6FreeNeighborEntryList                          output.o
Se6GenerateEui64Address                           output.o
Se6GenerateEui64GlobalAddress                     output.o
Se6GenerateEui64LocalAddress                      output.o
Se6GenerateMulticastMacAddress                    output.o
Se6GenerateSubnetMask                             output.o
Se6GetAllNodeMulticastAddr                        output.o
Se6GetAllRouterMulticastAddr                      output.o
Se6GetHostAddress                                 output.o
Se6GetIPAddrType                                  output.o
Se6GetPrefixAddress                               output.o
Se6GetSoliciationMulticastAddr                    output.o
Se6IPItemStrToChars                               output.o
Se6IPToStr                                        output.o
Se6Init                                           output.o
Se6InitIpCombineList                              output.o
Se6InitIpFragmentList                             output.o
Se6InitIpWaitList                                 output.o
Se6InitNdpWaitList                                output.o
Se6InitNeighborEntryList                          output.o
Se6InsertIpCombine                                output.o
Se6InsertIpWait                                   output.o
Se6IpChecksum                                     output.o
Se6IsGuestNode                                    output.o
Se6IsInSameNetwork                                output.o
Se6IsNetworkPrefixAddress                         output.o
Se6IsSubnetMask                                   output.o
Se6IsZeroIP                                       output.o
Se6LocalSubnet                                    output.o
Se6MacIpRelationKnown                             output.o
Se6MainProc                                       output.o
Se6Not                                            output.o
Se6Or                                             output.o
Se6ParseIpPacket                                  output.o
Se6ParseIpPacketICMPv6                            output.o
Se6ParseIpPacketUDPv6                             output.o
Se6ProcessNdpWaitList                             output.o
Se6RecvEthPacket                                  output.o
Se6RecvIp                                         output.o
Se6RecvIpComplete                                 output.o
Se6SearchIpCombineList                            output.o
Se6SearchNdpWaitList                              output.o
Se6SearchNeighborEntryList                        output.o
Se6SendEthPacket                                  output.o
Se6SendIcmp                                       output.o
Se6SendIcmpEchoRequest                            output.o
Se6SendIcmpEchoResponse                           output.o
Se6SendIcmpNeighborAdvertisement                  output.o
Se6SendIcmpNeighborSoliciation                    output.o
Se6SendIcmpRouterAdvertisement                    output.o
Se6SendIp                                         output.o
Se6SendIpFragment                                 output.o
Se6SendIpFragmentNow                              output.o
Se6SendNeighborSoliciation                        output.o
Se6SendNeighborSoliciationDoProcess               output.o
Se6SendRawIp                                      output.o
Se6SendUdp                                        output.o
Se6SendWaitingIpWait                              output.o
Se6StrToIP                                        output.o
Se6SubnetMaskToInt                                output.o
Se6Tick                                           output.o
Se6ZeroIP                                         output.o
SeAdd                                             output.o
SeAddBufStr                                       output.o
SeAdjustBufSize                                   output.o
SeB64CharToCode                                   output.o
SeB64CodeToChar                                   output.o
SeB64Decode                                       output.o
SeB64Encode                                       output.o
SeBSearch                                         output.o
SeBigNumToBuf                                     output.o
SeBigNumToStr                                     output.o
SeBinToBigNum                                     output.o
SeBinToStr                                        output.o
SeBinToStrEx                                      output.o
SeBioToBuf                                        output.o
SeBioToCert                                       output.o
SeBioToKey                                        output.o
SeBufToBigNum                                     output.o
SeBufToBio                                        output.o
SeBufToCert                                       output.o
SeBufToKey                                        output.o
SeBuildAndAddIPv6PacketOptionHeader               output.o
SeBuildICMPv6OptionValue                          output.o
SeBuildICMPv6Options                              output.o
SeBuildIPv6Packet                                 output.o
SeBuildIPv6PacketWithFragment                     output.o
SeCalcReplaceStrEx                                output.o
SeCertToBio                                       output.o
SeCertToBuf                                       output.o
SeCheckCert                                       output.o
SeCheckCertAndKey                                 output.o
SeCheckSignature                                  output.o
SeClearBuf                                        output.o
SeClearFifo                                       output.o
SeClone                                           output.o
SeCloneBuf                                        output.o
SeCloneCert                                       output.o
SeCloneKey                                        output.o
SeCloneList                                       output.o
SeCmp                                             output.o
SeCmpBuf                                          output.o
SeCmpEx                                           output.o
SeCompareCert                                     output.o
SeCompareStr                                      output.o
SeCopy                                            output.o
SeCopyStr                                         output.o
SeCopyToArray                                     output.o
SeDebug                                           output.o
SeDebugBin                                        output.o
SeDefaultTokenSplitChars                          output.o
SeDelete                                          output.o
SeDeleteAll                                       output.o
SeDeleteLock                                      output.o
SeDes3Decrypt                                     output.o
SeDes3Encrypt                                     output.o
SeDes3FreeKey                                     output.o
SeDes3NewKey                                      output.o
SeDes3RandKey                                     output.o
SeDesFreeKey                                      output.o
SeDesFreeKeyValue                                 output.o
SeDesNewKey                                       output.o
SeDesNewKeyValue                                  output.o
SeDesRandKey                                      output.o
SeDesRandKeyValue                                 output.o
SeDhCompute                                       output.o
SeDhFree                                          output.o
SeDhNew                                           output.o
SeDhNewGroup2                                     output.o
SeDumpBuf                                         output.o
SeEndWith                                         output.o
SeEndian16                                        output.o
SeEndian32                                        output.o
SeEndian64                                        output.o
SeError                                           output.o
SeEthAddSenderMacList                             output.o
SeEthDeleteOldSenderMacList                       output.o
SeEthFree                                         output.o
SeEthGenRandMacAddress                            output.o
SeEthGetInfo                                      output.o
SeEthGetNextRecvPacket                            output.o
SeEthIsSenderMacAddressExistsInList               output.o
SeEthNew                                          output.o
SeEthNicCallback                                  output.o
SeEthParseEthernetPacket                          output.o
SeEthSend                                         output.o
SeEthSendAdd                                      output.o
SeEthSendAll                                      output.o
SeFastSwap                                        output.o
SeFatal                                           output.o
SeFifoSize                                        output.o
SeFormat                                          output.o
SeFormatArgs                                      output.o
SeFormatEx                                        output.o
SeFree                                            output.o
SeFreeBio                                         output.o
SeFreeBuf                                         output.o
SeFreeBufWithoutBuffer                            output.o
SeFreeCert                                        output.o
SeFreeConfigEntryList                             output.o
SeFreeCrypto                                      output.o
SeFreeFifo                                        output.o
SeFreeKernel                                      output.o
SeFreeKey                                         output.o
SeFreeList                                        output.o
SeFreePKey                                        output.o
SeFreePacket                                      output.o
SeFreePacketList                                  output.o
SeFreePacketListWithoutBuffer                     output.o
SeFreeQueue                                       output.o
SeFreeStack                                       output.o
SeFreeToken                                       output.o
SeFreeX509                                        output.o
SeGetCertIssuerName                               output.o
SeGetCertMd5                                      output.o
SeGetCertSha1                                     output.o
SeGetCertSubjectName                              output.o
SeGetConfigBin                                    output.o
SeGetConfigBool                                   output.o
SeGetConfigEntry                                  output.o
SeGetConfigInt                                    output.o
SeGetConfigInt64                                  output.o
SeGetConfigStr                                    output.o
SeGetCurrentCpuId                                 output.o
SeGetKeyAndValue                                  output.o
SeGetKeyFromCert                                  output.o
SeGetNext                                         output.o
SeGetNextHeaderFromQueue                          output.o
SeGetNextInt                                      output.o
SeHashForSignBySHA1                               output.o
SeHexTo4Bit                                       output.o
SeHexToInt                                        output.o
SeHexToInt64                                      output.o
SeIkeBuild                                        output.o
SeIkeBuildCertPayload                             output.o
SeIkeBuildCertRequestPayload                      output.o
SeIkeBuildDataPayload                             output.o
SeIkeBuildDeletePayload                           output.o
SeIkeBuildIdPayload                               output.o
SeIkeBuildNoticePayload                           output.o
SeIkeBuildPayload                                 output.o
SeIkeBuildPayloadList                             output.o
SeIkeBuildProposalPayload                         output.o
SeIkeBuildSaPayload                               output.o
SeIkeBuildTransformPayload                        output.o
SeIkeBuildTransformValue                          output.o
SeIkeBuildTransformValueList                      output.o
SeIkeDecrypt                                      output.o
SeIkeEncrypt                                      output.o
SeIkeEncryptWithPadding                           output.o
SeIkeFree                                         output.o
SeIkeFreeCertPayload                              output.o
SeIkeFreeCertRequestPayload                       output.o
SeIkeFreeDataPayload                              output.o
SeIkeFreeDeletePayload                            output.o
SeIkeFreeIdPayload                                output.o
SeIkeFreeNoticePayload                            output.o
SeIkeFreePayload                                  output.o
SeIkeFreePayloadList                              output.o
SeIkeFreeProposalPayload                          output.o
SeIkeFreeSaPayload                                output.o
SeIkeFreeTransformPayload                         output.o
SeIkeFreeTransformValueList                       output.o
SeIkeGetFirstPayloadType                          output.o
SeIkeGetIPv4Address                               output.o
SeIkeGetIPv6Address                               output.o
SeIkeGetPayload                                   output.o
SeIkeGetPayloadNum                                output.o
SeIkeInitIPv4Address                              output.o
SeIkeInitIPv6Address                              output.o
SeIkeIpAddressToStr                               output.o
SeIkeIsZeroIP                                     output.o
SeIkeNew                                          output.o
SeIkeNewCertPayload                               output.o
SeIkeNewCertRequestPayload                        output.o
SeIkeNewDataPayload                               output.o
SeIkeNewDeletePayload                             output.o
SeIkeNewIdPayload                                 output.o
SeIkeNewNoticePayload                             output.o
SeIkeNewPayload                                   output.o
SeIkeNewProposalPayload                           output.o
SeIkeNewSaPayload                                 output.o
SeIkeNewTransformPayload                          output.o
SeIkeNewTransformValue                            output.o
SeIkeParse                                        output.o
SeIkeParseCertPayload                             output.o
SeIkeParseCertRequestPayload                      output.o
SeIkeParseDataPayload                             output.o
SeIkeParseDeletePayload                           output.o
SeIkeParseEx                                      output.o
SeIkeParseHeader                                  output.o
SeIkeParseIdPayload                               output.o
SeIkeParseNoticePayload                           output.o
SeIkeParsePayload                                 output.o
SeIkeParsePayloadList                             output.o
SeIkeParsePayloadListEx                           output.o
SeIkeParseProposalPayload                         output.o
SeIkeParseSaPayload                               output.o
SeIkeParseTransformPayload                        output.o
SeIkeParseTransformValueList                      output.o
SeIkePhase1CryptIdToKeySize                       output.o
SeIkePhase2CryptIdToKeySize                       output.o
SeIkeStrToPassword                                output.o
SeIkeStrToPhase1CryptId                           output.o
SeIkeStrToPhase1HashId                            output.o
SeIkeStrToPhase2CryptId                           output.o
SeIkeStrToPhase2HashId                            output.o
SeInfo                                            output.o
SeInitCrypto                                      output.o
SeInitKernel                                      output.o
SeInsert                                          output.o
SeInsertQueue                                     output.o
SeInsertQueueInt                                  output.o
SeInsertStr                                       output.o
SeIntFree                                         output.o
SeIntInit                                         output.o
SeIsAllLowerStr                                   output.o
SeIsAllUpperStr                                   output.o
SeIsBase64                                        output.o
SeIsBigEndian                                     output.o
SeIsCertSignedByCert                              output.o
SeIsCharInStr                                     output.o
SeIsEmptyStr                                      output.o
SeIsInList                                        output.o
SeIsInListStr                                     output.o
SeIsLittleEndian                                  output.o
SeIsSplitChar                                     output.o
SeIsZero                                          output.o
SeKeyToBio                                        output.o
SeKeyToBuf                                        output.o
SeLoad                                            output.o
SeLoadCert                                        output.o
SeLoadConfigEntryList                             output.o
SeLoadConfigEntryListFromBuf                      output.o
SeLoadKey                                         output.o
SeLock                                            output.o
SeLog                                             output.o
SeLogArgs                                         output.o
SeMacSha1                                         output.o
SeMacSha196                                       output.o
SeMacToStr                                        output.o
SeMakeCharArray                                   output.o
SeMalloc                                          output.o
SeMd5                                             output.o
SeMemSize                                         output.o
SeMemToBuf                                        output.o
SeNewBio                                          output.o
SeNewBuf                                          output.o
SeNewFifo                                         output.o
SeNewList                                         output.o
SeNewLock                                         output.o
SeNewQueue                                        output.o
SeNewStack                                        output.o
SeNormalizeCrlf                                   output.o
SeNullTokenList                                   output.o
SePKeyPasswordCallbackFunction                    output.o
SeParseICMPv6Options                              output.o
SeParseIPv6ExtHeader                              output.o
SeParseIPv6Packet                                 output.o
SeParsePacket                                     output.o
SeParsePacketL2                                   output.o
SeParsePacketL3ARPv4                              output.o
SeParsePacketL3IPv4                               output.o
SeParsePacketL3IPv6                               output.o
SeParseToken                                      output.o
SeParseTokenWithNullStr                           output.o
SePeekFifo                                        output.o
SePeekNext                                        output.o
SePop                                             output.o
SePush                                            output.o
SeQSort                                           output.o
SeRand                                            output.o
SeRand1                                           output.o
SeRand16                                          output.o
SeRand32                                          output.o
SeRand64                                          output.o
SeRand8                                           output.o
SeRandBuf                                         output.o
SeReAlloc                                         output.o
SeReadBuf                                         output.o
SeReadBufFromBuf                                  output.o
SeReadBufInt                                      output.o
SeReadBufInt64                                    output.o
SeReadBufStr                                      output.o
SeReadDump                                        output.o
SeReadFifo                                        output.o
SeReadNextLine                                    output.o
SeReadRemainBuf                                   output.o
SeReplaceListPointer                              output.o
SeReplaceStr                                      output.o
SeReplaceStrEx                                    output.o
SeReplaceStri                                     output.o
SeRsaGen                                          output.o
SeRsaPrivateDecrypt                               output.o
SeRsaPrivateEncrypt                               output.o
SeRsaPublicDecrypt                                output.o
SeRsaPublicEncrypt                                output.o
SeRsaPublicSize                                   output.o
SeRsaPublicToBin                                  output.o
SeRsaPublicToBuf                                  output.o
SeRsaSign                                         output.o
SeRsaSignWithPadding                              output.o
SeRsaSignWithSha1                                 output.o
SeRsaVerifyWithPadding                            output.o
SeRsaVerifyWithSha1                               output.o
SeSave                                            output.o
SeSaveCert                                        output.o
SeSaveKey                                         output.o
SeSearch                                          output.o
SeSearchStr                                       output.o
SeSearchStrEx                                     output.o
SeSearchStri                                      output.o
SeSecAddTimer                                     output.o
SeSecCalcKEYMAT                                   output.o
SeSecCalcKEYMATFull                               output.o
SeSecCalcKa                                       output.o
SeSecCalcP1Iv                                     output.o
SeSecCalcP1KeySet                                 output.o
SeSecCalcP2Iv                                     output.o
SeSecCheckIPsecSaExpires                          output.o
SeSecCheckIkeSaExpires                            output.o
SeSecCmpIkeSa                                     output.o
SeSecDeleteExpiredIPsecSa                         output.o
SeSecDeleteExpiredIkeSa                           output.o
SeSecDoInterval                                   output.o
SeSecEspRecvCallback                              output.o
SeSecForceReconnect                               output.o
SeSecFree                                         output.o
SeSecFreeIPsecSa                                  output.o
SeSecFreeIkeSa                                    output.o
SeSecFreeMain                                     output.o
SeSecFreeP1KeySet                                 output.o
SeSecFreeSaList                                   output.o
SeSecGenIPsecSASpi                                output.o
SeSecGenIkeSaInitCookie                           output.o
SeSecGenIkeSaMessageId                            output.o
SeSecGetIPsecSa                                   output.o
SeSecInit                                         output.o
SeSecInitMain                                     output.o
SeSecInitSaList                                   output.o
SeSecLifeSeconds64bit                             output.o
SeSecNewIPsecSa                                   output.o
SeSecNewIkeSa                                     output.o
SeSecNewSpi                                       output.o
SeSecProcessIkeSaMsg                              output.o
SeSecProcessIkeSaMsgInfo                          output.o
SeSecProcessIkeSaMsgPhase1                        output.o
SeSecProcessIkeSaMsgPhase2                        output.o
SeSecProcessMain                                  output.o
SeSecSearchIPsecSaBySpi                           output.o
SeSecSearchIkeSa                                  output.o
SeSecSearchIkeSaBySpi                             output.o
SeSecSendEsp                                      output.o
SeSecSendIPsecSaDeleteMsg                         output.o
SeSecSendIkeSaDeleteMsg                           output.o
SeSecSendIkeSaMsgInfo                             output.o
SeSecSendIkeSaMsgInfoSimple                       output.o
SeSecSendIkeSaMsgPhase2                           output.o
SeSecSendIkeSaMsgPhase2FinalHash                  output.o
SeSecSendUdp                                      output.o
SeSecSendVirtualIp                                output.o
SeSecSetRecvEspCallback                           output.o
SeSecSetRecvUdpCallback                           output.o
SeSecSetRecvVirtualIpCallback                     output.o
SeSecSetTimerCallback                             output.o
SeSecStartVpnConnect                              output.o
SeSecStrToAuthMethod                              output.o
SeSecTick                                         output.o
SeSecTimerCallback                                output.o
SeSecUdpRecvCallback                              output.o
SeSecVirtualIpRecvCallback                        output.o
SeSeekBuf                                         output.o
SeSetCmp                                          output.o
SeSetSortFlag                                     output.o
SeSha1                                            output.o
SeSort                                            output.o
SeStartWith                                       output.o
SeStrCat                                          output.o
SeStrCheckLen                                     output.o
SeStrCheckSize                                    output.o
SeStrCmp                                          output.o
SeStrCmpi                                         output.o
SeStrCpy                                          output.o
SeStrLen                                          output.o
SeStrLower                                        output.o
SeStrSize                                         output.o
SeStrToBin                                        output.o
SeStrToBinEx                                      output.o
SeStrToMac                                        output.o
SeStrUpper                                        output.o
SeStrnCmp                                         output.o
SeStrnCmpi                                        output.o
SeSwap                                            output.o
SeSwap16                                          output.o
SeSwap32                                          output.o
SeSwap64                                          output.o
SeSysFreeData                                     output.o
SeSysFreeLock                                     output.o
SeSysFreeTimer                                    output.o
SeSysGetCurrentCpuId                              output.o
SeSysGetPhysicalNicInfo                           output.o
SeSysGetTickCount                                 output.o
SeSysGetVirtualNicInfo                            output.o
SeSysLoadData                                     output.o
SeSysLock                                         output.o
SeSysLog                                          output.o
SeSysMemoryAlloc                                  output.o
SeSysMemoryFree                                   output.o
SeSysMemoryReAlloc                                output.o
SeSysNewLock                                      output.o
SeSysNewTimer                                     output.o
SeSysRsaSign                                      output.o
SeSysSaveData                                     output.o
SeSysSendPhysicalNic                              output.o
SeSysSendVirtualNic                               output.o
SeSysSetPhysicalNicRecvCallback                   output.o
SeSysSetTimer                                     output.o
SeSysSetVirtualNicRecvCallback                    output.o
SeSysUnlock                                       output.o
SeTick                                            output.o
SeTick64                                          output.o
SeTick64Internal                                  output.o
SeTimerAdjust                                     output.o
SeTimerCallback                                   output.o
SeTimerEntryCompare                               output.o
SeTimerFree                                       output.o
SeTimerNew                                        output.o
SeTimerSet                                        output.o
SeToArray                                         output.o
SeToHex                                           output.o
SeToHex64                                         output.o
SeToInt                                           output.o
SeToInt64                                         output.o
SeToLower                                         output.o
SeToStr                                           output.o
SeToStr3                                          output.o
SeToStr64                                         output.o
SeToUpper                                         output.o
SeTrim                                            output.o
SeTrimCopy                                        output.o
SeTrimCrlf                                        output.o
SeTrimLeft                                        output.o
SeTrimRight                                       output.o
SeUniqueToken                                     output.o
SeUnlock                                          output.o
SeVpn4ClientAddTimer                              output.o
SeVpn4ClientGetTick                               output.o
SeVpn4ClientSendEsp                               output.o
SeVpn4ClientSendUdp                               output.o
SeVpn4ClientSendVirtualIp                         output.o
SeVpn4ClientSetRecvEspCallback                    output.o
SeVpn4ClientSetRecvUdpCallback                    output.o
SeVpn4ClientSetRecvVirtualIpCallback              output.o
SeVpn4ClientSetTimerCallback                      output.o
SeVpn4DhcpBuildDhcpOptionList                     output.o
SeVpn4DhcpFreeOptionList                          output.o
SeVpn4DhcpOptionsToBuf                            output.o
SeVpn4DhcpParseOptionList                         output.o
SeVpn4DhcpParseOptionListMain                     output.o
SeVpn4DhcpSearchOption                            output.o
SeVpn4DhcpSendResponse                            output.o
SeVpn4DhcpServer                                  output.o
SeVpn4DoInterval                                  output.o
SeVpn4Free                                        output.o
SeVpn4FreeIPsec                                   output.o
SeVpn4IPsecInputFromPhysical                      output.o
SeVpn4IPsecInputFromVirtual                       output.o
SeVpn4IPsecMainProc                               output.o
SeVpn4IPsecSendPing                               output.o
SeVpn4Init                                        output.o
SeVpn4InitIPsec                                   output.o
SeVpn4InitSecConfig                               output.o
SeVpn4MainProc                                    output.o
SeVpn4NewDhcpOption                               output.o
SeVpn4RecvPacketPhysical                          output.o
SeVpn4RecvPacketVirtual                           output.o
SeVpn4SetTimer                                    output.o
SeVpn4Tick                                        output.o
SeVpn6ClientAddTimer                              output.o
SeVpn6ClientGetTick                               output.o
SeVpn6ClientSendEsp                               output.o
SeVpn6ClientSendUdp                               output.o
SeVpn6ClientSendVirtualIp                         output.o
SeVpn6ClientSetRecvEspCallback                    output.o
SeVpn6ClientSetRecvUdpCallback                    output.o
SeVpn6ClientSetRecvVirtualIpCallback              output.o
SeVpn6ClientSetTimerCallback                      output.o
SeVpn6DoInterval                                  output.o
SeVpn6Free                                        output.o
SeVpn6FreeIPsec                                   output.o
SeVpn6IPsecInputFromPhysical                      output.o
SeVpn6IPsecInputFromVirtual                       output.o
SeVpn6IPsecMainProc                               output.o
SeVpn6IPsecSendPing                               output.o
SeVpn6Init                                        output.o
SeVpn6InitIPsec                                   output.o
SeVpn6InitSecConfig                               output.o
SeVpn6MainProc                                    output.o
SeVpn6RecvPacketPhysical                          output.o
SeVpn6RecvPacketVirtual                           output.o
SeVpn6SetTimer                                    output.o
SeVpn6Tick                                        output.o
SeVpn6UpdateGuestOsIpAddress                      output.o
SeVpnAddTimer                                     output.o
SeVpnDoInterval                                   output.o
SeVpnEthRecvCallback                              output.o
SeVpnFree                                         output.o
SeVpnFreeConfig                                   output.o
SeVpnFreeIpStack                                  output.o
SeVpnInit                                         output.o
SeVpnInitIpStack                                  output.o
SeVpnLoadConfig                                   output.o
SeVpnMainFree                                     output.o
SeVpnMainHandler                                  output.o
SeVpnMainInit                                     output.o
SeVpnMainProcRecvEtherPacket                      output.o
SeVpnMainProcess                                  output.o
SeVpnRecvEtherPacket                              output.o
SeVpnRecvIpV4PacketCallback                       output.o
SeVpnRecvIpV6PacketCallback                       output.o
SeVpnSendEtherPacket                              output.o
SeVpnStatusChanged                                output.o
SeVpnTick                                         output.o
SeVpnTimerCallback                                output.o
SeWarning                                         output.o
SeWriteBuf                                        output.o
SeWriteBufBuf                                     output.o
SeWriteBufInt                                     output.o
SeWriteBufInt64                                   output.o
SeWriteBufLine                                    output.o
SeWriteBufStr                                     output.o
SeWriteFifo                                       output.o
SeX509ToCert                                      output.o
SeZero                                            output.o
SeZeroMalloc                                      output.o
SelectFileDF                                      output.o
SelectFileEF                                      output.o
SetATR                                            output.o
SetElem                                           output.o
SetLength                                         output.o
StIsdigit                                         output.o
StIsspace                                         output.o
T0XfrBlockCHAR                                    output.o
T0XfrBlockTPDU                                    output.o
T1NegociateIFSD                                   output.o
T1XfrBlockExtendedAPDU                            output.o
T1XfrBlockTPDU                                    output.o
TransHex2Tex                                      output.o
TransTex2Hex                                      output.o
TransmitCommand                                   output.o
TransmitPPS                                       output.o
UI_OpenSSL                                        output.o
UI_add_error_string                               output.o
UI_add_info_string                                output.o
UI_add_input_boolean                              output.o
UI_add_input_string                               output.o
UI_add_user_data                                  output.o
UI_add_verify_string                              output.o
UI_construct_prompt                               output.o
UI_create_method                                  output.o
UI_ctrl                                           output.o
UI_destroy_method                                 output.o
UI_dup_error_string                               output.o
UI_dup_info_string                                output.o
UI_dup_input_boolean                              output.o
UI_dup_input_string                               output.o
UI_dup_verify_string                              output.o
UI_free                                           output.o
UI_get0_action_string                             output.o
UI_get0_output_string                             output.o
UI_get0_result                                    output.o
UI_get0_result_string                             output.o
UI_get0_test_string                               output.o
UI_get0_user_data                                 output.o
UI_get_default_method                             output.o
UI_get_ex_data                                    output.o
UI_get_ex_new_index                               output.o
UI_get_input_flags                                output.o
UI_get_method                                     output.o
UI_get_result_maxsize                             output.o
UI_get_result_minsize                             output.o
UI_get_string_type                                output.o
UI_method_get_closer                              output.o
UI_method_get_flusher                             output.o
UI_method_get_opener                              output.o
UI_method_get_prompt_constructor                  output.o
UI_method_get_reader                              output.o
UI_method_get_writer                              output.o
UI_method_set_closer                              output.o
UI_method_set_flusher                             output.o
UI_method_set_opener                              output.o
UI_method_set_prompt_constructor                  output.o
UI_method_set_reader                              output.o
UI_method_set_writer                              output.o
UI_new                                            output.o
UI_new_method                                     output.o
UI_process                                        output.o
UI_set_default_method                             output.o
UI_set_ex_data                                    output.o
UI_set_method                                     output.o
UI_set_result                                     output.o
USERNOTICE_free                                   output.o
USERNOTICE_it                                     output.o
USERNOTICE_new                                    output.o
UTF8_getc                                         output.o
UTF8_putc                                         output.o
UpdateBinary                                      output.o
VPN_IPsec_Client_Start                            output.o
VPN_IPsec_Client_Stop                             output.o
VPN_IPsec_Free                                    output.o
VPN_IPsec_Init                                    output.o
Verify                                            output.o
WHIRLPOOL                                         output.o
WHIRLPOOL_BitUpdate                               output.o
WHIRLPOOL_Final                                   output.o
WHIRLPOOL_Init                                    output.o
WHIRLPOOL_Update                                  output.o
WriteUSB                                          output.o
X509V3_EXT_CRL_add_conf                           output.o
X509V3_EXT_CRL_add_nconf                          output.o
X509V3_EXT_REQ_add_conf                           output.o
X509V3_EXT_REQ_add_nconf                          output.o
X509V3_EXT_add                                    output.o
X509V3_EXT_add_alias                              output.o
X509V3_EXT_add_conf                               output.o
X509V3_EXT_add_list                               output.o
X509V3_EXT_add_nconf                              output.o
X509V3_EXT_add_nconf_sk                           output.o
X509V3_EXT_cleanup                                output.o
X509V3_EXT_conf                                   output.o
X509V3_EXT_conf_nid                               output.o
X509V3_EXT_d2i                                    output.o
X509V3_EXT_get                                    output.o
X509V3_EXT_get_nid                                output.o
X509V3_EXT_i2d                                    output.o
X509V3_EXT_nconf                                  output.o
X509V3_EXT_nconf_nid                              output.o
X509V3_EXT_print                                  output.o
X509V3_EXT_val_prn                                output.o
X509V3_NAME_from_section                          output.o
X509V3_add1_i2d                                   output.o
X509V3_add_standard_extensions                    output.o
X509V3_add_value                                  output.o
X509V3_add_value_bool                             output.o
X509V3_add_value_bool_nf                          output.o
X509V3_add_value_int                              output.o
X509V3_add_value_uchar                            output.o
X509V3_conf_free                                  output.o
X509V3_extensions_print                           output.o
X509V3_get_d2i                                    output.o
X509V3_get_section                                output.o
X509V3_get_string                                 output.o
X509V3_get_value_bool                             output.o
X509V3_get_value_int                              output.o
X509V3_parse_list                                 output.o
X509V3_section_free                               output.o
X509V3_set_conf_lhash                             output.o
X509V3_set_ctx                                    output.o
X509V3_set_nconf                                  output.o
X509V3_string_free                                output.o
X509_ALGORS_it                                    output.o
X509_ALGOR_dup                                    output.o
X509_ALGOR_free                                   output.o
X509_ALGOR_get0                                   output.o
X509_ALGOR_it                                     output.o
X509_ALGOR_new                                    output.o
X509_ALGOR_set0                                   output.o
X509_ATTRIBUTE_SET_it                             output.o
X509_ATTRIBUTE_count                              output.o
X509_ATTRIBUTE_create                             output.o
X509_ATTRIBUTE_create_by_NID                      output.o
X509_ATTRIBUTE_create_by_OBJ                      output.o
X509_ATTRIBUTE_create_by_txt                      output.o
X509_ATTRIBUTE_dup                                output.o
X509_ATTRIBUTE_free                               output.o
X509_ATTRIBUTE_get0_data                          output.o
X509_ATTRIBUTE_get0_object                        output.o
X509_ATTRIBUTE_get0_type                          output.o
X509_ATTRIBUTE_it                                 output.o
X509_ATTRIBUTE_new                                output.o
X509_ATTRIBUTE_set1_data                          output.o
X509_ATTRIBUTE_set1_object                        output.o
X509_CERT_AUX_free                                output.o
X509_CERT_AUX_it                                  output.o
X509_CERT_AUX_new                                 output.o
X509_CERT_AUX_print                               output.o
X509_CERT_PAIR_free                               output.o
X509_CERT_PAIR_it                                 output.o
X509_CERT_PAIR_new                                output.o
X509_CINF_free                                    output.o
X509_CINF_it                                      output.o
X509_CINF_new                                     output.o
X509_CRL_INFO_free                                output.o
X509_CRL_INFO_it                                  output.o
X509_CRL_INFO_new                                 output.o
X509_CRL_METHOD_free                              output.o
X509_CRL_METHOD_new                               output.o
X509_CRL_add0_revoked                             output.o
X509_CRL_add1_ext_i2d                             output.o
X509_CRL_add_ext                                  output.o
X509_CRL_cmp                                      output.o
X509_CRL_delete_ext                               output.o
X509_CRL_digest                                   output.o
X509_CRL_dup                                      output.o
X509_CRL_free                                     output.o
X509_CRL_get0_by_cert                             output.o
X509_CRL_get0_by_serial                           output.o
X509_CRL_get_ext                                  output.o
X509_CRL_get_ext_by_NID                           output.o
X509_CRL_get_ext_by_OBJ                           output.o
X509_CRL_get_ext_by_critical                      output.o
X509_CRL_get_ext_count                            output.o
X509_CRL_get_ext_d2i                              output.o
X509_CRL_get_meth_data                            output.o
X509_CRL_it                                       output.o
X509_CRL_match                                    output.o
X509_CRL_new                                      output.o
X509_CRL_set_default_method                       output.o
X509_CRL_set_meth_data                            output.o
X509_CRL_sign                                     output.o
X509_CRL_verify                                   output.o
X509_EXTENSIONS_it                                output.o
X509_EXTENSION_create_by_NID                      output.o
X509_EXTENSION_create_by_OBJ                      output.o
X509_EXTENSION_dup                                output.o
X509_EXTENSION_free                               output.o
X509_EXTENSION_get_critical                       output.o
X509_EXTENSION_get_data                           output.o
X509_EXTENSION_get_object                         output.o
X509_EXTENSION_it                                 output.o
X509_EXTENSION_new                                output.o
X509_EXTENSION_set_critical                       output.o
X509_EXTENSION_set_data                           output.o
X509_EXTENSION_set_object                         output.o
X509_LOOKUP_by_alias                              output.o
X509_LOOKUP_by_fingerprint                        output.o
X509_LOOKUP_by_issuer_serial                      output.o
X509_LOOKUP_by_subject                            output.o
X509_LOOKUP_ctrl                                  output.o
X509_LOOKUP_free                                  output.o
X509_LOOKUP_init                                  output.o
X509_LOOKUP_new                                   output.o
X509_LOOKUP_shutdown                              output.o
X509_NAME_ENTRIES_it                              output.o
X509_NAME_ENTRY_create_by_NID                     output.o
X509_NAME_ENTRY_create_by_OBJ                     output.o
X509_NAME_ENTRY_create_by_txt                     output.o
X509_NAME_ENTRY_dup                               output.o
X509_NAME_ENTRY_free                              output.o
X509_NAME_ENTRY_get_data                          output.o
X509_NAME_ENTRY_get_object                        output.o
X509_NAME_ENTRY_it                                output.o
X509_NAME_ENTRY_new                               output.o
X509_NAME_ENTRY_set_data                          output.o
X509_NAME_ENTRY_set_object                        output.o
X509_NAME_INTERNAL_it                             output.o
X509_NAME_add_entry                               output.o
X509_NAME_add_entry_by_NID                        output.o
X509_NAME_add_entry_by_OBJ                        output.o
X509_NAME_add_entry_by_txt                        output.o
X509_NAME_cmp                                     output.o
X509_NAME_delete_entry                            output.o
X509_NAME_digest                                  output.o
X509_NAME_dup                                     output.o
X509_NAME_entry_count                             output.o
X509_NAME_free                                    output.o
X509_NAME_get_entry                               output.o
X509_NAME_get_index_by_NID                        output.o
X509_NAME_get_index_by_OBJ                        output.o
X509_NAME_get_text_by_NID                         output.o
X509_NAME_get_text_by_OBJ                         output.o
X509_NAME_hash                                    output.o
X509_NAME_hash_old                                output.o
X509_NAME_it                                      output.o
X509_NAME_new                                     output.o
X509_NAME_oneline                                 output.o
X509_NAME_print                                   output.o
X509_NAME_print_ex                                output.o
X509_NAME_set                                     output.o
X509_OBJECT_free_contents                         output.o
X509_OBJECT_idx_by_subject                        output.o
X509_OBJECT_retrieve_by_subject                   output.o
X509_OBJECT_retrieve_match                        output.o
X509_OBJECT_up_ref_count                          output.o
X509_POLICY_NODE_print                            output.o
X509_PUBKEY_free                                  output.o
X509_PUBKEY_get                                   output.o
X509_PUBKEY_get0_param                            output.o
X509_PUBKEY_it                                    output.o
X509_PUBKEY_new                                   output.o
X509_PUBKEY_set                                   output.o
X509_PUBKEY_set0_param                            output.o
X509_PURPOSE_add                                  output.o
X509_PURPOSE_cleanup                              output.o
X509_PURPOSE_get0                                 output.o
X509_PURPOSE_get0_name                            output.o
X509_PURPOSE_get0_sname                           output.o
X509_PURPOSE_get_by_id                            output.o
X509_PURPOSE_get_by_sname                         output.o
X509_PURPOSE_get_count                            output.o
X509_PURPOSE_get_id                               output.o
X509_PURPOSE_get_trust                            output.o
X509_PURPOSE_set                                  output.o
X509_REQ_INFO_free                                output.o
X509_REQ_INFO_it                                  output.o
X509_REQ_INFO_new                                 output.o
X509_REQ_add1_attr                                output.o
X509_REQ_add1_attr_by_NID                         output.o
X509_REQ_add1_attr_by_OBJ                         output.o
X509_REQ_add1_attr_by_txt                         output.o
X509_REQ_add_extensions                           output.o
X509_REQ_add_extensions_nid                       output.o
X509_REQ_check_private_key                        output.o
X509_REQ_delete_attr                              output.o
X509_REQ_digest                                   output.o
X509_REQ_dup                                      output.o
X509_REQ_extension_nid                            output.o
X509_REQ_free                                     output.o
X509_REQ_get1_email                               output.o
X509_REQ_get_attr                                 output.o
X509_REQ_get_attr_by_NID                          output.o
X509_REQ_get_attr_by_OBJ                          output.o
X509_REQ_get_attr_count                           output.o
X509_REQ_get_extension_nids                       output.o
X509_REQ_get_extensions                           output.o
X509_REQ_get_pubkey                               output.o
X509_REQ_it                                       output.o
X509_REQ_new                                      output.o
X509_REQ_set_extension_nids                       output.o
X509_REQ_set_pubkey                               output.o
X509_REQ_set_subject_name                         output.o
X509_REQ_set_version                              output.o
X509_REQ_sign                                     output.o
X509_REQ_verify                                   output.o
X509_REVOKED_add1_ext_i2d                         output.o
X509_REVOKED_add_ext                              output.o
X509_REVOKED_delete_ext                           output.o
X509_REVOKED_free                                 output.o
X509_REVOKED_get_ext                              output.o
X509_REVOKED_get_ext_by_NID                       output.o
X509_REVOKED_get_ext_by_OBJ                       output.o
X509_REVOKED_get_ext_by_critical                  output.o
X509_REVOKED_get_ext_count                        output.o
X509_REVOKED_get_ext_d2i                          output.o
X509_REVOKED_it                                   output.o
X509_REVOKED_new                                  output.o
X509_SIG_free                                     output.o
X509_SIG_it                                       output.o
X509_SIG_new                                      output.o
X509_STORE_CTX_cleanup                            output.o
X509_STORE_CTX_free                               output.o
X509_STORE_CTX_get0_current_crl                   output.o
X509_STORE_CTX_get0_current_issuer                output.o
X509_STORE_CTX_get0_param                         output.o
X509_STORE_CTX_get0_parent_ctx                    output.o
X509_STORE_CTX_get0_policy_tree                   output.o
X509_STORE_CTX_get1_chain                         output.o
X509_STORE_CTX_get1_issuer                        output.o
X509_STORE_CTX_get_chain                          output.o
X509_STORE_CTX_get_current_cert                   output.o
X509_STORE_CTX_get_error                          output.o
X509_STORE_CTX_get_error_depth                    output.o
X509_STORE_CTX_get_ex_data                        output.o
X509_STORE_CTX_get_ex_new_index                   output.o
X509_STORE_CTX_get_explicit_policy                output.o
X509_STORE_CTX_init                               output.o
X509_STORE_CTX_new                                output.o
X509_STORE_CTX_purpose_inherit                    output.o
X509_STORE_CTX_set0_crls                          output.o
X509_STORE_CTX_set0_param                         output.o
X509_STORE_CTX_set_cert                           output.o
X509_STORE_CTX_set_chain                          output.o
X509_STORE_CTX_set_default                        output.o
X509_STORE_CTX_set_depth                          output.o
X509_STORE_CTX_set_error                          output.o
X509_STORE_CTX_set_ex_data                        output.o
X509_STORE_CTX_set_flags                          output.o
X509_STORE_CTX_set_purpose                        output.o
X509_STORE_CTX_set_time                           output.o
X509_STORE_CTX_set_trust                          output.o
X509_STORE_CTX_set_verify_cb                      output.o
X509_STORE_CTX_trusted_stack                      output.o
X509_STORE_add_cert                               output.o
X509_STORE_add_crl                                output.o
X509_STORE_add_lookup                             output.o
X509_STORE_free                                   output.o
X509_STORE_get1_certs                             output.o
X509_STORE_get1_crls                              output.o
X509_STORE_get_by_subject                         output.o
X509_STORE_new                                    output.o
X509_STORE_set1_param                             output.o
X509_STORE_set_depth                              output.o
X509_STORE_set_flags                              output.o
X509_STORE_set_purpose                            output.o
X509_STORE_set_trust                              output.o
X509_STORE_set_verify_cb                          output.o
X509_TRUST_add                                    output.o
X509_TRUST_cleanup                                output.o
X509_TRUST_get0                                   output.o
X509_TRUST_get0_name                              output.o
X509_TRUST_get_by_id                              output.o
X509_TRUST_get_count                              output.o
X509_TRUST_get_flags                              output.o
X509_TRUST_get_trust                              output.o
X509_TRUST_set                                    output.o
X509_TRUST_set_default                            output.o
X509_VAL_free                                     output.o
X509_VAL_it                                       output.o
X509_VAL_new                                      output.o
X509_VERIFY_PARAM_add0_policy                     output.o
X509_VERIFY_PARAM_add0_table                      output.o
X509_VERIFY_PARAM_clear_flags                     output.o
X509_VERIFY_PARAM_free                            output.o
X509_VERIFY_PARAM_get_depth                       output.o
X509_VERIFY_PARAM_get_flags                       output.o
X509_VERIFY_PARAM_inherit                         output.o
X509_VERIFY_PARAM_lookup                          output.o
X509_VERIFY_PARAM_new                             output.o
X509_VERIFY_PARAM_set1                            output.o
X509_VERIFY_PARAM_set1_name                       output.o
X509_VERIFY_PARAM_set1_policies                   output.o
X509_VERIFY_PARAM_set_depth                       output.o
X509_VERIFY_PARAM_set_flags                       output.o
X509_VERIFY_PARAM_set_purpose                     output.o
X509_VERIFY_PARAM_set_time                        output.o
X509_VERIFY_PARAM_set_trust                       output.o
X509_VERIFY_PARAM_table_cleanup                   output.o
X509_add1_ext_i2d                                 output.o
X509_add1_reject_object                           output.o
X509_add1_trust_object                            output.o
X509_add_ext                                      output.o
X509_alias_get0                                   output.o
X509_alias_set1                                   output.o
X509_check_akid                                   output.o
X509_check_ca                                     output.o
X509_check_issued                                 output.o
X509_check_private_key                            output.o
X509_check_purpose                                output.o
X509_check_trust                                  output.o
X509_cmp                                          output.o
X509_cmp_current_time                             output.o
X509_cmp_time                                     output.o
X509_delete_ext                                   output.o
X509_digest                                       output.o
X509_dup                                          output.o
X509_email_free                                   output.o
X509_find_by_issuer_and_serial                    output.o
X509_find_by_subject                              output.o
X509_free                                         output.o
X509_get0_pubkey_bitstr                           output.o
X509_get1_email                                   output.o
X509_get1_ocsp                                    output.o
X509_get_default_cert_area                        output.o
X509_get_default_cert_dir                         output.o
X509_get_default_cert_dir_env                     output.o
X509_get_default_cert_file                        output.o
X509_get_default_cert_file_env                    output.o
X509_get_default_private_dir                      output.o
X509_get_ex_data                                  output.o
X509_get_ex_new_index                             output.o
X509_get_ext                                      output.o
X509_get_ext_by_NID                               output.o
X509_get_ext_by_OBJ                               output.o
X509_get_ext_by_critical                          output.o
X509_get_ext_count                                output.o
X509_get_ext_d2i                                  output.o
X509_get_issuer_name                              output.o
X509_get_pubkey                                   output.o
X509_get_pubkey_parameters                        output.o
X509_get_serialNumber                             output.o
X509_get_subject_name                             output.o
X509_gmtime_adj                                   output.o
X509_issuer_and_serial_cmp                        output.o
X509_issuer_and_serial_hash                       output.o
X509_issuer_name_cmp                              output.o
X509_issuer_name_hash                             output.o
X509_issuer_name_hash_old                         output.o
X509_it                                           output.o
X509_keyid_get0                                   output.o
X509_keyid_set1                                   output.o
X509_new                                          output.o
X509_ocspid_print                                 output.o
X509_policy_check                                 output.o
X509_policy_level_get0_node                       output.o
X509_policy_level_node_count                      output.o
X509_policy_node_get0_parent                      output.o
X509_policy_node_get0_policy                      output.o
X509_policy_node_get0_qualifiers                  output.o
X509_policy_tree_free                             output.o
X509_policy_tree_get0_level                       output.o
X509_policy_tree_get0_policies                    output.o
X509_policy_tree_get0_user_policies               output.o
X509_policy_tree_level_count                      output.o
X509_print                                        output.o
X509_print_ex                                     output.o
X509_pubkey_digest                                output.o
X509_reject_clear                                 output.o
X509_set_ex_data                                  output.o
X509_sign                                         output.o
X509_signature_print                              output.o
X509_subject_name_cmp                             output.o
X509_subject_name_hash                            output.o
X509_subject_name_hash_old                        output.o
X509_supported_extension                          output.o
X509_time_adj                                     output.o
X509_time_adj_ex                                  output.o
X509_to_X509_REQ                                  output.o
X509_trust_clear                                  output.o
X509_verify                                       output.o
X509_verify_cert                                  output.o
X509_version                                      output.o
X509at_add1_attr                                  output.o
X509at_add1_attr_by_NID                           output.o
X509at_add1_attr_by_OBJ                           output.o
X509at_add1_attr_by_txt                           output.o
X509at_delete_attr                                output.o
X509at_get0_data_by_OBJ                           output.o
X509at_get_attr                                   output.o
X509at_get_attr_by_NID                            output.o
X509at_get_attr_by_OBJ                            output.o
X509at_get_attr_count                             output.o
X509v3_add_ext                                    output.o
X509v3_delete_ext                                 output.o
X509v3_get_ext                                    output.o
X509v3_get_ext_by_NID                             output.o
X509v3_get_ext_by_OBJ                             output.o
X509v3_get_ext_by_critical                        output.o
X509v3_get_ext_count                              output.o
X9_62_CHARACTERISTIC_TWO_free                     output.o
X9_62_CHARACTERISTIC_TWO_it                       output.o
X9_62_CHARACTERISTIC_TWO_new                      output.o
X9_62_CURVE_it                                    output.o
X9_62_FIELDID_it                                  output.o
X9_62_PENTANOMIAL_free                            output.o
X9_62_PENTANOMIAL_it                              output.o
X9_62_PENTANOMIAL_new                             output.o
ZLONG_it                                          output.o
_CONF_add_string                                  output.o
_CONF_free_data                                   output.o
_CONF_get_section                                 output.o
_CONF_get_section_values                          output.o
_CONF_get_string                                  output.o
_CONF_new_data                                    output.o
_CONF_new_section                                 output.o
__initfunc_acpi_init_global                       output.o
__initfunc_acpi_init_paral                        output.o
__initfunc_ata_init                               output.o
__initfunc_beep_init_msg                          output.o
__initfunc_cache_init_pass                        output.o
__initfunc_cache_init_pcpu                        output.o
__initfunc_cache_init_vcpu                        output.o
__initfunc_callrealmode_init_global               output.o
__initfunc_callrealmode_panic                     output.o
__initfunc_copy_minios                            output.o
__initfunc_core_init                              output.o
__initfunc_cpu_mmu_spt_init_global                output.o
__initfunc_cpu_mmu_spt_init_pcpu                  output.o
__initfunc_cpuid_init                             output.o
__initfunc_cpuid_pass_init                        output.o
__initfunc_create_pass_vm                         output.o
__initfunc_debug_ata_init                         output.o
__initfunc_debug_on_shift_key                     output.o
__initfunc_ehci_init                              output.o
__initfunc_end                                    output.o
__initfunc_exint_pass_init                        output.o
__initfunc_get_shiftflags                         output.o
__initfunc_gmm_pass_init                          output.o
__initfunc_idman_init                             output.o
__initfunc_idman_init_global                      output.o
__initfunc_idman_kernel_init                      output.o
__initfunc_ieee1394_init                          output.o
__initfunc_ieee1394_init_boot                     output.o
__initfunc_install_int0x15_hook                   output.o
__initfunc_int_init_global                        output.o
__initfunc_int_wakeup                             output.o
__initfunc_io_io_init                             output.o
__initfunc_io_iopass_init                         output.o
__initfunc_iommu_setup                            output.o
__initfunc_keyboard_init_msg                      output.o
__initfunc_localapic_init                         output.o
__initfunc_mm_init_global                         output.o
__initfunc_mmio_debug                             output.o
__initfunc_mmio_init                              output.o
__initfunc_msg_init_global                        output.o
__initfunc_msr_init                               output.o
__initfunc_msr_pass_init                          output.o
__initfunc_nmi_pass_init                          output.o
__initfunc_nmi_pass_init_pcpu                     output.o
__initfunc_panic_init_global                      output.o
__initfunc_panic_init_global3                     output.o
__initfunc_panic_init_msg                         output.o
__initfunc_panic_init_pcpu                        output.o
__initfunc_pci_init                               output.o
__initfunc_print_boot_msg                         output.o
__initfunc_printf_init_global                     output.o
__initfunc_pro100_init                            output.o
__initfunc_process_init_ap                        output.o
__initfunc_process_init_global                    output.o
__initfunc_process_wakeup                         output.o
__initfunc_random_init_config0                    output.o
__initfunc_random_init_global                     output.o
__initfunc_reboot_init_msg                        output.o
__initfunc_resume_pro1000                         output.o
__initfunc_segment_init_global                    output.o
__initfunc_serial_init_msg                        output.o
__initfunc_setiohooks                             output.o
__initfunc_sleep_init_global                      output.o
__initfunc_sleep_init_msg                         output.o
__initfunc_start                                  output.o
__initfunc_storage_io_initfunc                    output.o
__initfunc_storage_kernel_init                    output.o
__initfunc_suspend_pro1000                        output.o
__initfunc_svm_panic                              output.o
__initfunc_sx_init_pass_init                      output.o
__initfunc_thread_init_global                     output.o
__initfunc_thread_init_pcpu                       output.o
__initfunc_time_init_global                       output.o
__initfunc_time_init_global_status                output.o
__initfunc_time_init_msg                          output.o
__initfunc_time_init_pcpu                         output.o
__initfunc_timer_init_global                      output.o
__initfunc_tty_init_global                        output.o
__initfunc_tty_init_global2                       output.o
__initfunc_tty_init_msg                           output.o
__initfunc_uhci_init                              output.o
__initfunc_unmap_user_area                        output.o
__initfunc_vcpu_init_global                       output.o
__initfunc_vga_init                               output.o
__initfunc_virtualization_init_pcpu               output.o
__initfunc_vmmcall_boot_init                      output.o
__initfunc_vmmcall_dbgsh_init                     output.o
__initfunc_vmmcall_dbgsh_init_global              output.o
__initfunc_vmmcall_dbgsh_init_pcpu                output.o
__initfunc_vmmcall_iccard_init                    output.o
__initfunc_vmmcall_init                           output.o
__initfunc_vmmcall_log_init                       output.o
__initfunc_vmmcall_status_init                    output.o
__initfunc_vmmcall_status_init_global             output.o
__initfunc_vpn_kernel_init                        output.o
__initfunc_vpn_pro1000_init                       output.o
__initfunc_vramwrite_init_bsp                     output.o
__initfunc_vramwrite_init_msg                     output.o
__initfunc_vt_panic                               output.o
__initfunc_vt_register_status_callback            output.o
__initfunc_xsetbv_init                            output.o
__initfunc_xsetbv_pass_init                       output.o
__process_builtin                                 output.o
__process_builtin_end                             output.o
_dprintf                                          output.o
_dprintft                                         output.o
_shadow_DES_check_key                             output.o
a2d_ASN1_OBJECT                                   output.o
a2i_ASN1_INTEGER                                  output.o
a2i_ASN1_STRING                                   output.o
a2i_GENERAL_NAME                                  output.o
a2i_IPADDRESS                                     output.o
a2i_IPADDRESS_NC                                  output.o
a2i_ipadd                                         output.o
acpi_dsdt_parse                                   output.o
acpi_dsdt_system_state                            output.o
acpi_iohook                                       output.o
acpi_poweroff                                     output.o
acpi_reset                                        output.o
acpi_smi_hook                                     output.o
add_remap                                         output.o
aes_xts_init                                      output.o
ahci_config_read                                  output.o
ahci_config_write                                 output.o
ahci_new                                          output.o
alloc                                             output.o
alloc2                                            output.o
alloc_handler_descriptor                          output.o
alloc_page                                        output.o
alloc_pages                                       output.o
alloc_realmodemem                                 output.o
allocateNewAppID                                  output.o
allocateNewApplicationIdentifiers                 output.o
allocateNewVMID                                   output.o
allocateNewZeroPage                               output.o
ap_start_addr                                     output.o
apic_available                                    output.o
apinit_lock                                       output.o
apinit_procs                                      output.o
apinitproc0                                       output.o
app_pkey_methods                                  output.o
asm_vmlaunch_regs_32                              output.o
asm_vmlaunch_regs_64                              output.o
asm_vmresume_regs_32                              output.o
asm_vmresume_regs_64                              output.o
asm_vmrun_regs_32                                 output.o
asm_vmrun_regs_64                                 output.o
asn1_Finish                                       output.o
asn1_GetSequence                                  output.o
asn1_add_error                                    output.o
asn1_const_Finish                                 output.o
asn1_do_adb                                       output.o
asn1_do_lock                                      output.o
asn1_enc_free                                     output.o
asn1_enc_init                                     output.o
asn1_enc_restore                                  output.o
asn1_enc_save                                     output.o
asn1_ex_c2i                                       output.o
asn1_ex_i2c                                       output.o
asn1_get_choice_selector                          output.o
asn1_get_field_ptr                                output.o
asn1_set_choice_selector                          output.o
asn1_template_print_ctx                           output.o
assertion_failed                                  output.o
ata_ahci_mode                                     output.o
ata_bm_handle_command                             output.o
ata_bm_handle_device_specific                     output.o
ata_bm_handle_prd_table                           output.o
ata_bm_handle_status                              output.o
ata_bm_handler                                    output.o
ata_bm_handler_table                              output.o
ata_channel_lock                                  output.o
ata_channel_unlock                                output.o
ata_cmdblk_handler                                output.o
ata_cmdblk_handler_table                          output.o
ata_config_read                                   output.o
ata_config_write                                  output.o
ata_ctlblk_handler                                output.o
ata_ctlblk_handler_table                          output.o
ata_get_cmd_type                                  output.o
ata_handle_queued_status                          output.o
ata_init_io_handler                               output.o
ata_init_vendor                                   output.o
ata_set_bm_handler                                output.o
ata_set_cmdblk_handler                            output.o
ata_set_ctlblk_handler                            output.o
atapi_handle_cmd_packet                           output.o
atapi_handle_config_data                          output.o
atapi_handle_interrupt_reason                     output.o
atapi_handle_packet_data                          output.o
atapi_handle_pio_identify_packet                  output.o
auto_reboot                                       output.o
backtrace                                         output.o
beep_off                                          output.o
beep_on                                           output.o
beep_set_freq                                     output.o
bn_add_part_words                                 output.o
bn_add_words                                      output.o
bn_cmp_part_words                                 output.o
bn_cmp_words                                      output.o
bn_div_words                                      output.o
bn_dup_expand                                     output.o
bn_expand2                                        output.o
bn_mul_add_words                                  output.o
bn_mul_comba4                                     output.o
bn_mul_comba8                                     output.o
bn_mul_high                                       output.o
bn_mul_low_normal                                 output.o
bn_mul_low_recursive                              output.o
bn_mul_normal                                     output.o
bn_mul_part_recursive                             output.o
bn_mul_recursive                                  output.o
bn_mul_words                                      output.o
bn_sqr_comba4                                     output.o
bn_sqr_comba8                                     output.o
bn_sqr_normal                                     output.o
bn_sqr_recursive                                  output.o
bn_sqr_words                                      output.o
bn_sub_part_words                                 output.o
bn_sub_words                                      output.o
bss                                               output.o
c2i_ASN1_BIT_STRING                               output.o
c2i_ASN1_INTEGER                                  output.o
c2i_ASN1_OBJECT                                   output.o
cache_get_attr                                    output.o
cache_get_gmsr_amd                                output.o
cache_get_gmtrr                                   output.o
cache_get_gmtrr_attr                              output.o
cache_get_gmtrr_type                              output.o
cache_get_gmtrrcap                                output.o
cache_get_gpat                                    output.o
cache_set_gmsr_amd                                output.o
cache_set_gmtrr                                   output.o
cache_set_gpat                                    output.o
call_cpuid                                        output.o
call_initfunc                                     output.o
call_io                                           output.o
call_read_msr                                     output.o
call_write_msr                                    output.o
call_xsetbv                                       output.o
callfunc_and_getint                               output.o
callrealmode_bootcd_getstatus                     output.o
callrealmode_disk_readlba                         output.o
callrealmode_disk_readmbr                         output.o
callrealmode_end                                  output.o
callrealmode_endofcodeaddr                        output.o
callrealmode_getfontinfo                          output.o
callrealmode_getshiftflags                        output.o
callrealmode_getsysmemmap                         output.o
callrealmode_printmsg                             output.o
callrealmode_reboot                               output.o
callrealmode_setcursorpos                         output.o
callrealmode_setvideomode                         output.o
callrealmode_start                                output.o
callrealmode_start2                               output.o
callrealmode_startkernel32                        output.o
callrealmode_tcgbios                              output.o
callrealmode_usevcpu                              output.o
cancel_sleep                                      output.o
changePageStatus                                  output.o
check_defer                                       output.o
chelp_abort                                       output.o
chelp_bsearch                                     output.o
chelp_div_64_32_32                                output.o
chelp_div_64_32_64                                output.o
chelp_free                                        output.o
chelp_inited                                      output.o
chelp_isalnum                                     output.o
chelp_isalpha                                     output.o
chelp_isdigit                                     output.o
chelp_islower                                     output.o
chelp_isspace                                     output.o
chelp_isupper                                     output.o
chelp_isxdigit                                    output.o
chelp_malloc                                      output.o
chelp_memchr                                      output.o
chelp_memcmp                                      output.o
chelp_memcpy                                      output.o
chelp_memmove                                     output.o
chelp_memset                                      output.o
chelp_mod_64_32_32                                output.o
chelp_mul_64_64_64                                output.o
chelp_print                                       output.o
chelp_printf                                      output.o
chelp_qsort                                       output.o
chelp_realloc                                     output.o
chelp_snprintf                                    output.o
chelp_sprintf                                     output.o
chelp_strcat                                      output.o
chelp_strchr                                      output.o
chelp_strcmp                                      output.o
chelp_strcpy                                      output.o
chelp_stricmp                                     output.o
chelp_strlen                                      output.o
chelp_strncasecmp                                 output.o
chelp_strncmp                                     output.o
chelp_strncpy                                     output.o
chelp_strrchr                                     output.o
chelp_strtol                                      output.o
chelp_strtoul                                     output.o
chelp_strtoul_ex                                  output.o
chelp_swap                                        output.o
chelp_tolower                                     output.o
chelp_toupper                                     output.o
cleanse_ctr                                       output.o
clear_guest_status                                output.o
clflush_size                                      output.o
closePage                                         output.o
cmpxchg_gphys_l                                   output.o
cmpxchg_gphys_q                                   output.o
cmpxchg_hphys_l                                   output.o
cmpxchg_hphys_q                                   output.o
cms_Data_create                                   output.o
cms_DigestAlgorithm_find_ctx                      output.o
cms_DigestAlgorithm_init_bio                      output.o
cms_DigestAlgorithm_set                           output.o
cms_DigestedData_create                           output.o
cms_DigestedData_do_final                         output.o
cms_DigestedData_init_bio                         output.o
cms_EncryptedContent_init                         output.o
cms_EncryptedContent_init_bio                     output.o
cms_EncryptedData_init_bio                        output.o
cms_EnvelopedData_init_bio                        output.o
cms_SignedData_final                              output.o
cms_SignedData_init_bio                           output.o
cms_SignerIdentifier_cert_cmp                     output.o
cms_SignerIdentifier_get0_signer_id               output.o
cms_content_bio                                   output.o
cms_set1_SignerIdentifier                         output.o
config                                            output.o
copy_bootsector                                   output.o
core_init                                         output.o
core_io_handle_default                            output.o
core_io_modify_handler                            output.o
core_io_register_handler                          output.o
core_io_unregister_handler                        output.o
core_mm_read_guest_phys                           output.o
core_mm_write_guest_phys                          output.o
cpu_emul_cli                                      output.o
cpu_emul_cpuid                                    output.o
cpu_emul_hlt                                      output.o
cpu_emul_rdmsr                                    output.o
cpu_emul_realmode_int                             output.o
cpu_emul_sti                                      output.o
cpu_emul_wrmsr                                    output.o
cpu_emul_xsetbv                                   output.o
cpu_interpreter                                   output.o
cpu_mmu_get_pte                                   output.o
cpu_mmu_spt_clear_all                             output.o
cpu_mmu_spt_extern_mapsearch                      output.o
cpu_mmu_spt_init                                  output.o
cpu_mmu_spt_invalidate                            output.o
cpu_mmu_spt_map_1mb                               output.o
cpu_mmu_spt_pagefault                             output.o
cpu_mmu_spt_tlbflush                              output.o
cpu_mmu_spt_updatecr3                             output.o
cpu_seg_read_b                                    output.o
cpu_seg_read_l                                    output.o
cpu_seg_read_q                                    output.o
cpu_seg_read_w                                    output.o
cpu_seg_write_b                                   output.o
cpu_seg_write_l                                   output.o
cpu_seg_write_q                                   output.o
cpu_seg_write_w                                   output.o
cpu_stack_get                                     output.o
cpu_stack_pop                                     output.o
cpu_stack_push                                    output.o
cpu_stack_set                                     output.o
cpuinit_end                                       output.o
cpuinit_start                                     output.o
create_dom                                        output.o
crypt_sys_rsa_sign                                output.o
crypto_find                                       output.o
crypto_init                                       output.o
crypto_none_init                                  output.o
crypto_register                                   output.o
currentProtectedApplication                       output.o
currentRunningApplication                         output.o
curthread                                         output.o
d2i_ACCESS_DESCRIPTION                            output.o
d2i_ASN1_BIT_STRING                               output.o
d2i_ASN1_BMPSTRING                                output.o
d2i_ASN1_BOOLEAN                                  output.o
d2i_ASN1_ENUMERATED                               output.o
d2i_ASN1_GENERALIZEDTIME                          output.o
d2i_ASN1_GENERALSTRING                            output.o
d2i_ASN1_IA5STRING                                output.o
d2i_ASN1_INTEGER                                  output.o
d2i_ASN1_NULL                                     output.o
d2i_ASN1_OBJECT                                   output.o
d2i_ASN1_OCTET_STRING                             output.o
d2i_ASN1_PRINTABLE                                output.o
d2i_ASN1_PRINTABLESTRING                          output.o
d2i_ASN1_SEQUENCE_ANY                             output.o
d2i_ASN1_SET                                      output.o
d2i_ASN1_SET_ANY                                  output.o
d2i_ASN1_T61STRING                                output.o
d2i_ASN1_TIME                                     output.o
d2i_ASN1_TYPE                                     output.o
d2i_ASN1_UINTEGER                                 output.o
d2i_ASN1_UNIVERSALSTRING                          output.o
d2i_ASN1_UTCTIME                                  output.o
d2i_ASN1_UTF8STRING                               output.o
d2i_ASN1_VISIBLESTRING                            output.o
d2i_ASN1_bytes                                    output.o
d2i_ASN1_type_bytes                               output.o
d2i_AUTHORITY_INFO_ACCESS                         output.o
d2i_AUTHORITY_KEYID                               output.o
d2i_AutoPrivateKey                                output.o
d2i_BASIC_CONSTRAINTS                             output.o
d2i_CERTIFICATEPOLICIES                           output.o
d2i_CMS_ContentInfo                               output.o
d2i_CMS_bio                                       output.o
d2i_CRL_DIST_POINTS                               output.o
d2i_DHparams                                      output.o
d2i_DIRECTORYSTRING                               output.o
d2i_DISPLAYTEXT                                   output.o
d2i_DIST_POINT                                    output.o
d2i_DIST_POINT_NAME                               output.o
d2i_DSAPrivateKey                                 output.o
d2i_DSAPrivateKey_bio                             output.o
d2i_DSAPublicKey                                  output.o
d2i_DSA_PUBKEY                                    output.o
d2i_DSA_PUBKEY_bio                                output.o
d2i_DSA_SIG                                       output.o
d2i_DSAparams                                     output.o
d2i_ECDSA_SIG                                     output.o
d2i_ECPKPARAMETERS                                output.o
d2i_ECPKParameters                                output.o
d2i_ECParameters                                  output.o
d2i_ECPrivateKey                                  output.o
d2i_ECPrivateKey_bio                              output.o
d2i_EC_PRIVATEKEY                                 output.o
d2i_EC_PUBKEY                                     output.o
d2i_EC_PUBKEY_bio                                 output.o
d2i_EDIPARTYNAME                                  output.o
d2i_EXTENDED_KEY_USAGE                            output.o
d2i_GENERAL_NAME                                  output.o
d2i_GENERAL_NAMES                                 output.o
d2i_ISSUING_DIST_POINT                            output.o
d2i_NETSCAPE_CERT_SEQUENCE                        output.o
d2i_NETSCAPE_SPKAC                                output.o
d2i_NETSCAPE_SPKI                                 output.o
d2i_NOTICEREF                                     output.o
d2i_OCSP_BASICRESP                                output.o
d2i_OCSP_CERTID                                   output.o
d2i_OCSP_CERTSTATUS                               output.o
d2i_OCSP_CRLID                                    output.o
d2i_OCSP_ONEREQ                                   output.o
d2i_OCSP_REQINFO                                  output.o
d2i_OCSP_REQUEST                                  output.o
d2i_OCSP_RESPBYTES                                output.o
d2i_OCSP_RESPDATA                                 output.o
d2i_OCSP_RESPID                                   output.o
d2i_OCSP_RESPONSE                                 output.o
d2i_OCSP_REVOKEDINFO                              output.o
d2i_OCSP_SERVICELOC                               output.o
d2i_OCSP_SIGNATURE                                output.o
d2i_OCSP_SINGLERESP                               output.o
d2i_OTHERNAME                                     output.o
d2i_PBE2PARAM                                     output.o
d2i_PBEPARAM                                      output.o
d2i_PBKDF2PARAM                                   output.o
d2i_PKCS12                                        output.o
d2i_PKCS12_BAGS                                   output.o
d2i_PKCS12_MAC_DATA                               output.o
d2i_PKCS12_SAFEBAG                                output.o
d2i_PKCS12_bio                                    output.o
d2i_PKCS7                                         output.o
d2i_PKCS7_DIGEST                                  output.o
d2i_PKCS7_ENCRYPT                                 output.o
d2i_PKCS7_ENC_CONTENT                             output.o
d2i_PKCS7_ENVELOPE                                output.o
d2i_PKCS7_ISSUER_AND_SERIAL                       output.o
d2i_PKCS7_RECIP_INFO                              output.o
d2i_PKCS7_SIGNED                                  output.o
d2i_PKCS7_SIGNER_INFO                             output.o
d2i_PKCS7_SIGN_ENVELOPE                           output.o
d2i_PKCS7_bio                                     output.o
d2i_PKCS8PrivateKey_bio                           output.o
d2i_PKCS8_PRIV_KEY_INFO                           output.o
d2i_PKCS8_PRIV_KEY_INFO_bio                       output.o
d2i_PKCS8_bio                                     output.o
d2i_PKEY_USAGE_PERIOD                             output.o
d2i_POLICYINFO                                    output.o
d2i_POLICYQUALINFO                                output.o
d2i_PROXY_CERT_INFO_EXTENSION                     output.o
d2i_PROXY_POLICY                                  output.o
d2i_PUBKEY                                        output.o
d2i_PUBKEY_bio                                    output.o
d2i_PrivateKey                                    output.o
d2i_PrivateKey_bio                                output.o
d2i_RSAPrivateKey                                 output.o
d2i_RSAPrivateKey_bio                             output.o
d2i_RSAPublicKey                                  output.o
d2i_RSAPublicKey_bio                              output.o
d2i_RSA_PUBKEY                                    output.o
d2i_RSA_PUBKEY_bio                                output.o
d2i_SXNET                                         output.o
d2i_SXNETID                                       output.o
d2i_USERNOTICE                                    output.o
d2i_X509                                          output.o
d2i_X509_ALGOR                                    output.o
d2i_X509_ALGORS                                   output.o
d2i_X509_ATTRIBUTE                                output.o
d2i_X509_AUX                                      output.o
d2i_X509_CERT_AUX                                 output.o
d2i_X509_CERT_PAIR                                output.o
d2i_X509_CINF                                     output.o
d2i_X509_CRL                                      output.o
d2i_X509_CRL_INFO                                 output.o
d2i_X509_CRL_bio                                  output.o
d2i_X509_EXTENSION                                output.o
d2i_X509_EXTENSIONS                               output.o
d2i_X509_NAME                                     output.o
d2i_X509_NAME_ENTRY                               output.o
d2i_X509_PUBKEY                                   output.o
d2i_X509_REQ                                      output.o
d2i_X509_REQ_INFO                                 output.o
d2i_X509_REQ_bio                                  output.o
d2i_X509_REVOKED                                  output.o
d2i_X509_SIG                                      output.o
d2i_X509_VAL                                      output.o
d2i_X509_bio                                      output.o
deactivate_and_delete_urb                         output.o
debug_addstr                                      output.o
debug_gdb                                         output.o
debug_iohook                                      output.o
debug_msgregister                                 output.o
debug_msgunregister                               output.o
decryptcfg                                        output.o
default_pctx                                      output.o
dh_asn1_meth                                      output.o
dh_pkey_meth                                      output.o
disable_apic                                      output.o
do_exint_pass                                     output.o
do_externalint_enable                             output.o
do_io_nothing                                     output.o
do_iopass_default                                 output.o
do_panic_reboot                                   output.o
dom_io                                            output.o
dprintf_port                                      output.o
drhd_list_head                                    output.o
dsa_asn1_meths                                    output.o
dsa_builtin_paramgen                              output.o
dsa_pkey_meth                                     output.o
dsa_pub_internal_it                               output.o
dump_frame                                        output.o
dump_qh                                           output.o
dump_td                                           output.o
dump_td_byvirt                                    output.o
dwReaders                                         output.o
e801_fake_ax                                      output.o
e801_fake_bx                                      output.o
ec_GF2m_have_precompute_mult                      output.o
ec_GF2m_precompute_mult                           output.o
ec_GF2m_simple_add                                output.o
ec_GF2m_simple_cmp                                output.o
ec_GF2m_simple_dbl                                output.o
ec_GF2m_simple_field_div                          output.o
ec_GF2m_simple_field_mul                          output.o
ec_GF2m_simple_field_sqr                          output.o
ec_GF2m_simple_group_check_discriminant           output.o
ec_GF2m_simple_group_clear_finish                 output.o
ec_GF2m_simple_group_copy                         output.o
ec_GF2m_simple_group_finish                       output.o
ec_GF2m_simple_group_get_curve                    output.o
ec_GF2m_simple_group_get_degree                   output.o
ec_GF2m_simple_group_init                         output.o
ec_GF2m_simple_group_set_curve                    output.o
ec_GF2m_simple_invert                             output.o
ec_GF2m_simple_is_at_infinity                     output.o
ec_GF2m_simple_is_on_curve                        output.o
ec_GF2m_simple_make_affine                        output.o
ec_GF2m_simple_mul                                output.o
ec_GF2m_simple_oct2point                          output.o
ec_GF2m_simple_point2oct                          output.o
ec_GF2m_simple_point_clear_finish                 output.o
ec_GF2m_simple_point_copy                         output.o
ec_GF2m_simple_point_finish                       output.o
ec_GF2m_simple_point_get_affine_coordinates       output.o
ec_GF2m_simple_point_init                         output.o
ec_GF2m_simple_point_set_affine_coordinates       output.o
ec_GF2m_simple_point_set_to_infinity              output.o
ec_GF2m_simple_points_make_affine                 output.o
ec_GF2m_simple_set_compressed_coordinates         output.o
ec_GFp_mont_field_decode                          output.o
ec_GFp_mont_field_encode                          output.o
ec_GFp_mont_field_mul                             output.o
ec_GFp_mont_field_set_to_one                      output.o
ec_GFp_mont_field_sqr                             output.o
ec_GFp_mont_group_clear_finish                    output.o
ec_GFp_mont_group_copy                            output.o
ec_GFp_mont_group_finish                          output.o
ec_GFp_mont_group_init                            output.o
ec_GFp_mont_group_set_curve                       output.o
ec_GFp_nist_field_mul                             output.o
ec_GFp_nist_field_sqr                             output.o
ec_GFp_nist_group_copy                            output.o
ec_GFp_nist_group_set_curve                       output.o
ec_GFp_simple_add                                 output.o
ec_GFp_simple_cmp                                 output.o
ec_GFp_simple_dbl                                 output.o
ec_GFp_simple_field_mul                           output.o
ec_GFp_simple_field_sqr                           output.o
ec_GFp_simple_get_Jprojective_coordinates_GFp     output.o
ec_GFp_simple_group_check_discriminant            output.o
ec_GFp_simple_group_clear_finish                  output.o
ec_GFp_simple_group_copy                          output.o
ec_GFp_simple_group_finish                        output.o
ec_GFp_simple_group_get_curve                     output.o
ec_GFp_simple_group_get_degree                    output.o
ec_GFp_simple_group_init                          output.o
ec_GFp_simple_group_set_curve                     output.o
ec_GFp_simple_invert                              output.o
ec_GFp_simple_is_at_infinity                      output.o
ec_GFp_simple_is_on_curve                         output.o
ec_GFp_simple_make_affine                         output.o
ec_GFp_simple_oct2point                           output.o
ec_GFp_simple_point2oct                           output.o
ec_GFp_simple_point_clear_finish                  output.o
ec_GFp_simple_point_copy                          output.o
ec_GFp_simple_point_finish                        output.o
ec_GFp_simple_point_get_affine_coordinates        output.o
ec_GFp_simple_point_init                          output.o
ec_GFp_simple_point_set_affine_coordinates        output.o
ec_GFp_simple_point_set_to_infinity               output.o
ec_GFp_simple_points_make_affine                  output.o
ec_GFp_simple_set_Jprojective_coordinates_GFp     output.o
ec_GFp_simple_set_compressed_coordinates          output.o
ec_pkey_meth                                      output.o
ec_wNAF_have_precompute_mult                      output.o
ec_wNAF_mul                                       output.o
ec_wNAF_precompute_mult                           output.o
ecdh_check                                        output.o
ecdsa_check                                       output.o
eckey_asn1_meth                                   output.o
ehci_check_advance                                output.o
ehci_check_urb_advance                            output.o
ehci_cleanup_urbs                                 output.o
ehci_conceal_portroute                            output.o
ehci_deactivate_urb                               output.o
ehci_dump_alist                                   output.o
ehci_dump_all                                     output.o
ehci_dump_async                                   output.o
ehci_dump_qtd                                     output.o
ehci_dump_qtdm                                    output.o
ehci_dump_urb                                     output.o
ehci_dump_urblist                                 output.o
ehci_end_monitor_async                            output.o
ehci_host                                         output.o
ehci_init                                         output.o
ehci_monitor_async_list                           output.o
ehci_shadow_async_list                            output.o
ehci_shadow_buffer                                output.o
ehci_submit_bulk                                  output.o
ehci_submit_control                               output.o
ehci_submit_interrupt                             output.o
end                                               output.o
entry                                             output.o
entry_pd                                          output.o
entry_pd0                                         output.o
entry_pdp                                         output.o
evp_pkey_set_cb_translate                         output.o
exitprocess                                       output.o
findProtectedApplicationFromRIP                   output.o
findUnmappedPage                                  output.o
free                                              output.o
free_config_descriptors                           output.o
free_device                                       output.o
free_page                                         output.o
free_page_phys                                    output.o
g_rgSCardT0Pci                                    output.o
g_rgSCardT1Pci                                    output.o
getCurrentProtectedApplication                    output.o
getGuestRSP                                       output.o
getMemoryOwnershipTableEntry                      output.o
getMemoryOwnershipTableIndex                      output.o
getSystemCallHandlerGPA                           output.o
getTSSGVA                                         output.o
get_acpi_time                                     output.o
get_acpi_time_raw                                 output.o
get_cpu_id                                        output.o
get_cpu_time                                      output.o
get_ept_base_HPA                                  output.o
get_guest_cr3_value                               output.o
get_guest_eptp_value                              output.o
get_gurb_by_address                               output.o
get_idman_session                                 output.o
get_page_table_base_GPA                           output.o
get_seg_access_rights                             output.o
get_seg_base                                      output.o
get_time                                          output.o
getfakesysmemmap                                  output.o
getsysmemmap                                      output.o
gmm_pass_gp2hp                                    output.o
gpaToHPA                                          output.o
gs_current                                        output.o
gs_currentcpu                                     output.o
gs_init_count                                     output.o
gs_inthandling                                    output.o
gs_nmi                                            output.o
gs_syscallstack                                   output.o
guest_int0x15_e801_fake_ax                        output.o
guest_int0x15_e801_fake_bx                        output.o
guest_int0x15_e820_data_minus0x18                 output.o
guest_int0x15_e820_end                            output.o
guest_int0x15_hook                                output.o
guest_int0x15_hook_end                            output.o
guest_int0x15_orig                                output.o
gvaToGPA                                          output.o
hContext                                          output.o
hObjectCnt                                        output.o
hSessionCnt                                       output.o
handleSystemCall                                  output.o
handle_connect_status                             output.o
handle_init_to_bsp                                output.o
handle_port_reset                                 output.o
handler_descriptor                                output.o
handler_descriptor_lock                           output.o
head                                              output.o
hex_to_string                                     output.o
hmac_asn1_meth                                    output.o
hmac_pkey_meth                                    output.o
hub_portdevice_register                           output.o
hypercall_handler                                 output.o
i2a_ACCESS_DESCRIPTION                            output.o
i2a_ASN1_INTEGER                                  output.o
i2a_ASN1_OBJECT                                   output.o
i2a_ASN1_STRING                                   output.o
i2c_ASN1_BIT_STRING                               output.o
i2c_ASN1_INTEGER                                  output.o
i2d_ACCESS_DESCRIPTION                            output.o
i2d_ASN1_BIT_STRING                               output.o
i2d_ASN1_BMPSTRING                                output.o
i2d_ASN1_BOOLEAN                                  output.o
i2d_ASN1_ENUMERATED                               output.o
i2d_ASN1_GENERALIZEDTIME                          output.o
i2d_ASN1_GENERALSTRING                            output.o
i2d_ASN1_IA5STRING                                output.o
i2d_ASN1_INTEGER                                  output.o
i2d_ASN1_NULL                                     output.o
i2d_ASN1_OBJECT                                   output.o
i2d_ASN1_OCTET_STRING                             output.o
i2d_ASN1_PRINTABLE                                output.o
i2d_ASN1_PRINTABLESTRING                          output.o
i2d_ASN1_SEQUENCE_ANY                             output.o
i2d_ASN1_SET                                      output.o
i2d_ASN1_SET_ANY                                  output.o
i2d_ASN1_T61STRING                                output.o
i2d_ASN1_TIME                                     output.o
i2d_ASN1_TYPE                                     output.o
i2d_ASN1_UNIVERSALSTRING                          output.o
i2d_ASN1_UTCTIME                                  output.o
i2d_ASN1_UTF8STRING                               output.o
i2d_ASN1_VISIBLESTRING                            output.o
i2d_ASN1_bio_stream                               output.o
i2d_ASN1_bytes                                    output.o
i2d_AUTHORITY_INFO_ACCESS                         output.o
i2d_AUTHORITY_KEYID                               output.o
i2d_BASIC_CONSTRAINTS                             output.o
i2d_CERTIFICATEPOLICIES                           output.o
i2d_CMS_ContentInfo                               output.o
i2d_CMS_bio                                       output.o
i2d_CMS_bio_stream                                output.o
i2d_CRL_DIST_POINTS                               output.o
i2d_DHparams                                      output.o
i2d_DIRECTORYSTRING                               output.o
i2d_DISPLAYTEXT                                   output.o
i2d_DIST_POINT                                    output.o
i2d_DIST_POINT_NAME                               output.o
i2d_DSAPrivateKey                                 output.o
i2d_DSAPrivateKey_bio                             output.o
i2d_DSAPublicKey                                  output.o
i2d_DSA_PUBKEY                                    output.o
i2d_DSA_PUBKEY_bio                                output.o
i2d_DSA_SIG                                       output.o
i2d_DSAparams                                     output.o
i2d_ECDSA_SIG                                     output.o
i2d_ECPKPARAMETERS                                output.o
i2d_ECPKParameters                                output.o
i2d_ECParameters                                  output.o
i2d_ECPrivateKey                                  output.o
i2d_ECPrivateKey_bio                              output.o
i2d_EC_PRIVATEKEY                                 output.o
i2d_EC_PUBKEY                                     output.o
i2d_EC_PUBKEY_bio                                 output.o
i2d_EDIPARTYNAME                                  output.o
i2d_EXTENDED_KEY_USAGE                            output.o
i2d_GENERAL_NAME                                  output.o
i2d_GENERAL_NAMES                                 output.o
i2d_ISSUING_DIST_POINT                            output.o
i2d_NETSCAPE_CERT_SEQUENCE                        output.o
i2d_NETSCAPE_SPKAC                                output.o
i2d_NETSCAPE_SPKI                                 output.o
i2d_NOTICEREF                                     output.o
i2d_OCSP_BASICRESP                                output.o
i2d_OCSP_CERTID                                   output.o
i2d_OCSP_CERTSTATUS                               output.o
i2d_OCSP_CRLID                                    output.o
i2d_OCSP_ONEREQ                                   output.o
i2d_OCSP_REQINFO                                  output.o
i2d_OCSP_REQUEST                                  output.o
i2d_OCSP_RESPBYTES                                output.o
i2d_OCSP_RESPDATA                                 output.o
i2d_OCSP_RESPID                                   output.o
i2d_OCSP_RESPONSE                                 output.o
i2d_OCSP_REVOKEDINFO                              output.o
i2d_OCSP_SERVICELOC                               output.o
i2d_OCSP_SIGNATURE                                output.o
i2d_OCSP_SINGLERESP                               output.o
i2d_OTHERNAME                                     output.o
i2d_PBE2PARAM                                     output.o
i2d_PBEPARAM                                      output.o
i2d_PBKDF2PARAM                                   output.o
i2d_PKCS12                                        output.o
i2d_PKCS12_BAGS                                   output.o
i2d_PKCS12_MAC_DATA                               output.o
i2d_PKCS12_SAFEBAG                                output.o
i2d_PKCS12_bio                                    output.o
i2d_PKCS7                                         output.o
i2d_PKCS7_DIGEST                                  output.o
i2d_PKCS7_ENCRYPT                                 output.o
i2d_PKCS7_ENC_CONTENT                             output.o
i2d_PKCS7_ENVELOPE                                output.o
i2d_PKCS7_ISSUER_AND_SERIAL                       output.o
i2d_PKCS7_NDEF                                    output.o
i2d_PKCS7_RECIP_INFO                              output.o
i2d_PKCS7_SIGNED                                  output.o
i2d_PKCS7_SIGNER_INFO                             output.o
i2d_PKCS7_SIGN_ENVELOPE                           output.o
i2d_PKCS7_bio                                     output.o
i2d_PKCS8PrivateKeyInfo_bio                       output.o
i2d_PKCS8PrivateKey_bio                           output.o
i2d_PKCS8PrivateKey_nid_bio                       output.o
i2d_PKCS8_PRIV_KEY_INFO                           output.o
i2d_PKCS8_PRIV_KEY_INFO_bio                       output.o
i2d_PKCS8_bio                                     output.o
i2d_PKEY_USAGE_PERIOD                             output.o
i2d_POLICYINFO                                    output.o
i2d_POLICYQUALINFO                                output.o
i2d_PROXY_CERT_INFO_EXTENSION                     output.o
i2d_PROXY_POLICY                                  output.o
i2d_PUBKEY                                        output.o
i2d_PUBKEY_bio                                    output.o
i2d_PrivateKey                                    output.o
i2d_PrivateKey_bio                                output.o
i2d_RSAPrivateKey                                 output.o
i2d_RSAPrivateKey_bio                             output.o
i2d_RSAPublicKey                                  output.o
i2d_RSAPublicKey_bio                              output.o
i2d_RSA_PUBKEY                                    output.o
i2d_RSA_PUBKEY_bio                                output.o
i2d_SXNET                                         output.o
i2d_SXNETID                                       output.o
i2d_USERNOTICE                                    output.o
i2d_X509                                          output.o
i2d_X509_ALGOR                                    output.o
i2d_X509_ALGORS                                   output.o
i2d_X509_ATTRIBUTE                                output.o
i2d_X509_AUX                                      output.o
i2d_X509_CERT_AUX                                 output.o
i2d_X509_CERT_PAIR                                output.o
i2d_X509_CINF                                     output.o
i2d_X509_CRL                                      output.o
i2d_X509_CRL_INFO                                 output.o
i2d_X509_CRL_bio                                  output.o
i2d_X509_EXTENSION                                output.o
i2d_X509_EXTENSIONS                               output.o
i2d_X509_NAME                                     output.o
i2d_X509_NAME_ENTRY                               output.o
i2d_X509_PUBKEY                                   output.o
i2d_X509_REQ                                      output.o
i2d_X509_REQ_INFO                                 output.o
i2d_X509_REQ_bio                                  output.o
i2d_X509_REVOKED                                  output.o
i2d_X509_SIG                                      output.o
i2d_X509_VAL                                      output.o
i2d_X509_bio                                      output.o
i2o_ECPublicKey                                   output.o
i2s_ASN1_ENUMERATED                               output.o
i2s_ASN1_ENUMERATED_TABLE                         output.o
i2s_ASN1_INTEGER                                  output.o
i2s_ASN1_OCTET_STRING                             output.o
i2t_ASN1_OBJECT                                   output.o
i2v_ASN1_BIT_STRING                               output.o
i2v_GENERAL_NAME                                  output.o
i2v_GENERAL_NAMES                                 output.o
idea_cbc_encrypt                                  output.o
idea_cfb64_encrypt                                output.o
idea_ecb_encrypt                                  output.o
idea_encrypt                                      output.o
idea_ofb64_encrypt                                output.o
idea_options                                      output.o
idea_set_decrypt_key                              output.o
idea_set_encrypt_key                              output.o
idman_reinit2                                     output.o
idman_reinit_session                              output.o
idman_user_init                                   output.o
ieee1394_init                                     output.o
initPagePool                                      output.o
init_hframelist                                   output.o
initfunc_init                                     output.o
initializeNewProtectedApplication                 output.o
int1a_TCG_CompactHashLogExtendEvent               output.o
int1a_TCG_HashAll                                 output.o
int1a_TCG_HashLogEvent                            output.o
int1a_TCG_HashLogExtendEvent                      output.o
int1a_TCG_PassThroughToTPM                        output.o
int1a_TCG_StatusCheck                             output.o
int1a_TCG_TSS                                     output.o
int_callfunc                                      output.o
int_exceptionHandler                              output.o
int_fatal                                         output.o
int_handler                                       output.o
int_init_ap                                       output.o
int_rsa_verify                                    output.o
iodom_init                                        output.o
iommu_detected                                    output.o
iommu_setup                                       output.o
ipchecksum                                        output.o
keyboard_flush                                    output.o
keyboard_reset                                    output.o
level_add_node                                    output.o
level_find_node                                   output.o
lh_delete                                         output.o
lh_doall                                          output.o
lh_doall_arg                                      output.o
lh_free                                           output.o
lh_insert                                         output.o
lh_new                                            output.o
lh_num_items                                      output.o
lh_retrieve                                       output.o
lh_strhash                                        output.o
lh_version                                        output.o
libInitFlag                                       output.o
load_bootsector                                   output.o
load_minios                                       output.o
load_new_vcpu                                     output.o
localapic_change_base_msr                         output.o
localapic_mmio_register                           output.o
localapic_wait_for_sipi                           output.o
mapHPAintoHVA                                     output.o
mapmem                                            output.o
mapmem_gphys                                      output.o
mapmem_hphys                                      output.o
matched_drhd_u                                    output.o
md4_block_data_order                              output.o
md5_block_data_order                              output.o
memcmp                                            output.o
memcpy                                            output.o
memorysize                                        output.o
mempool_allocmem                                  output.o
mempool_free                                      output.o
mempool_freemem                                   output.o
mempool_new                                       output.o
memset                                            output.o
message_exitcode                                  output.o
message_exitreason                                output.o
mm_flush_wb_cache                                 output.o
mm_force_unlock                                   output.o
mm_process_alloc                                  output.o
mm_process_free                                   output.o
mm_process_map_alloc                              output.o
mm_process_map_shared                             output.o
mm_process_map_shared_physpage                    output.o
mm_process_map_stack                              output.o
mm_process_switch                                 output.o
mm_process_unmap                                  output.o
mm_process_unmap_stack                            output.o
mm_process_unmapall                               output.o
mmio_access_memory                                output.o
mmio_access_page                                  output.o
mmio_lock                                         output.o
mmio_register                                     output.o
mmio_unlock                                       output.o
mmio_unregister                                   output.o
monitor_memset                                    output.o
monitor_vmcs_read                                 output.o
monitor_vmcs_write                                output.o
move_vmm_area32                                   output.o
move_vmm_area64                                   output.o
mpudiv_128_32                                     output.o
mpumul_64_64                                      output.o
msg_findname                                      output.o
msg_register                                      output.o
msg_unregister                                    output.o
msg_unregister2                                   output.o
msg_unregisterall                                 output.o
msg_usb_bulk_read                                 output.o
msg_usb_bulk_write                                output.o
msg_usb_claim_interface                           output.o
msg_usb_close                                     output.o
msg_usb_control_msg                               output.o
msg_usb_find_busses                               output.o
msg_usb_find_devices                              output.o
msg_usb_get_busses                                output.o
msg_usb_get_string_simple                         output.o
msg_usb_init                                      output.o
msg_usb_open                                      output.o
msg_usb_release_interface                         output.o
msg_usb_reset                                     output.o
msg_vpn_FreeTimer                                 output.o
msg_vpn_GetCurrentCpuId                           output.o
msg_vpn_GetPhysicalNicInfo                        output.o
msg_vpn_GetTickCount                              output.o
msg_vpn_GetVirtualNicInfo                         output.o
msg_vpn_NewTimer                                  output.o
msg_vpn_SendPhysicalNic                           output.o
msg_vpn_SendVirtualNic                            output.o
msg_vpn_SetPhysicalNicRecvCallback                output.o
msg_vpn_SetTimer                                  output.o
msg_vpn_SetVirtualNicRecvCallback                 output.o
msg_vpn_ic_rsa_sign                               output.o
msgclose                                          output.o
msgopen                                           output.o
msgpremapbuf                                      output.o
msgregister                                       output.o
msgsendbuf                                        output.o
msgsenddesc                                       output.o
msgsendint                                        output.o
msgsetfunc                                        output.o
msgunregister                                     output.o
mszReaders                                        output.o
name_cmp                                          output.o
newprocess                                        output.o
num_dom                                           output.o
num_of_available_pages                            output.o
num_of_processors                                 output.o
numberOfProtectedApplications                     output.o
numberOfVMs                                       output.o
o2i_ECPublicKey                                   output.o
obj_cleanup_defer                                 output.o
openPage                                          output.o
packet_handle_command                             output.o
packet_handle_config                              output.o
packet_handle_invalid                             output.o
packet_handle_nondata                             output.o
packet_handle_rw                                  output.o
packet_handle_through                             output.o
panic                                             output.o
panic_oom                                         output.o
panic_test                                        output.o
panic_wakeup_all                                  output.o
parse_dmar_bios_report                            output.o
pci_append_device                                 output.o
pci_conceal_config_data_handler                   output.o
pci_conceal_new_device                            output.o
pci_config_addr_handler                           output.o
pci_config_data_handler                           output.o
pci_device_list_head                              output.o
pci_driver_list_head                              output.o
pci_handle_default_config_write                   output.o
pci_possible_new_device                           output.o
pci_print_device                                  output.o
pci_read_config_data16                            output.o
pci_read_config_data32                            output.o
pci_read_config_data8                             output.o
pci_read_config_data_port                         output.o
pci_register_driver                               output.o
pci_restore_config_addr                           output.o
pci_save_config_addr                              output.o
pci_write_config_data16                           output.o
pci_write_config_data32                           output.o
pci_write_config_data8                            output.o
pci_write_config_data_port                        output.o
pcpu_default                                      output.o
pcpu_init                                         output.o
pcpu_list_add                                     output.o
pcpu_list_foreach                                 output.o
pem_check_suffix                                  output.o
phys_in_vmm                                       output.o
phys_to_virt                                      output.o
pmap_autoalloc                                    output.o
pmap_clear                                        output.o
pmap_close                                        output.o
pmap_dump                                         output.o
pmap_getreadlevel                                 output.o
pmap_open_guest                                   output.o
pmap_open_vmm                                     output.o
pmap_pointer                                      output.o
pmap_read                                         output.o
pmap_seek                                         output.o
pmap_setlevel                                     output.o
pmap_write                                        output.o
policy_cache_find_data                            output.o
policy_cache_free                                 output.o
policy_cache_set                                  output.o
policy_cache_set_mapping                          output.o
policy_data_free                                  output.o
policy_data_new                                   output.o
policy_node_cmp_new                               output.o
policy_node_free                                  output.o
policy_node_match                                 output.o
prepare_for_sleep                                 output.o
printexitcode                                     output.o
printexitreason                                   output.o
printf                                            output.o
pro100_alloc_page                                 output.o
pro100_alloc_recv_buffer                          output.o
pro100_beep                                       output.o
pro100_config_read                                output.o
pro100_config_write                               output.o
pro100_exec_cu_op                                 output.o
pro100_flush                                      output.o
pro100_free_page                                  output.o
pro100_generate_int                               output.o
pro100_get_ctx                                    output.o
pro100_get_cu_command_string                      output.o
pro100_get_int_bit_string                         output.o
pro100_get_op_size                                output.o
pro100_get_ru_command_string                      output.o
pro100_get_stat_ack_string                        output.o
pro100_hook_read                                  output.o
pro100_hook_write                                 output.o
pro100_init                                       output.o
pro100_init_cu_base_addr                          output.o
pro100_init_recv_buffer                           output.o
pro100_init_ru_base_addr                          output.o
pro100_init_vpn_client                            output.o
pro100_io_handler                                 output.o
pro100_mem_read                                   output.o
pro100_mem_write                                  output.o
pro100_mm_handler                                 output.o
pro100_new                                        output.o
pro100_poll_ru                                    output.o
pro100_proc_guest_op                              output.o
pro100_read                                       output.o
pro100_read_send_packet                           output.o
pro100_send_packet_to_line                        output.o
pro100_sleep                                      output.o
pro100_wait_cu_ru_accepable                       output.o
pro100_write                                      output.o
pro100_write_recv_packet                          output.o
process_kill                                      output.o
process_syscall                                   output.o
processuser_no_sysenter                           output.o
processuser_syscall                               output.o
processuser_sysenter                              output.o
prohibit_iccard_init                              output.o
protectCurrentApplication                         output.o
ps2_locked                                        output.o
putchar                                           output.o
putchar_set_func                                  output.o
rand_ssleay_meth                                  output.o
read_gphys_b                                      output.o
read_gphys_l                                      output.o
read_gphys_q                                      output.o
read_gphys_w                                      output.o
read_hphys_b                                      output.o
read_hphys_l                                      output.o
read_hphys_q                                      output.o
read_hphys_w                                      output.o
read_linearaddr_b                                 output.o
read_linearaddr_l                                 output.o
read_linearaddr_q                                 output.o
read_linearaddr_tss                               output.o
read_linearaddr_w                                 output.o
readerState                                       output.o
readerTracker                                     output.o
realloc                                           output.o
reboot_test                                       output.o
register_status_callback                          output.o
remapPage                                         output.o
restore_guest_status                              output.o
restore_register                                  output.o
resume_vm                                         output.o
ret_to_user32                                     output.o
ret_to_user64                                     output.o
ripemd160_block_data_order                        output.o
rsa_asn1_meths                                    output.o
rsa_pkey_meth                                     output.o
rt                                                output.o
s2i_ASN1_INTEGER                                  output.o
s2i_ASN1_OCTET_STRING                             output.o
sReaderContext                                    output.o
saveSystemCallHandlerAddress                      output.o
save_guest_status                                 output.o
savemsr_index                                     output.o
savemsr_load                                      output.o
savemsr_save                                      output.o
scan_gframelist                                   output.o
schedule                                          output.o
security_storage_check_lba                        output.o
segment_init_ap                                   output.o
segment_wakeup                                    output.o
serial_getDebugChar                               output.o
serial_init_iohook                                output.o
serial_putDebugChar                               output.o
serial_putchar                                    output.o
sessionTable                                      output.o
setCurrentProtectedApplication                    output.o
set_int_handler                                   output.o
set_iofunc                                        output.o
setkbdled                                         output.o
shadow_and_activate_urb                           output.o
sig_app                                           output.o
sigx_app                                          output.o
sk_delete                                         output.o
sk_delete_ptr                                     output.o
sk_dup                                            output.o
sk_find                                           output.o
sk_find_ex                                        output.o
sk_free                                           output.o
sk_insert                                         output.o
sk_is_sorted                                      output.o
sk_new                                            output.o
sk_new_null                                       output.o
sk_num                                            output.o
sk_pop                                            output.o
sk_pop_free                                       output.o
sk_push                                           output.o
sk_set                                            output.o
sk_set_cmp_func                                   output.o
sk_shift                                          output.o
sk_sort                                           output.o
sk_unshift                                        output.o
sk_value                                          output.o
sk_zero                                           output.o
sleep_set_timer_counter                           output.o
slotFlag                                          output.o
slotTable                                         output.o
snprintf                                          output.o
start_all_processors                              output.o
storage_free                                      output.o
storage_get_num_hc                                output.o
storage_handle_sectors                            output.o
storage_hc_close                                  output.o
storage_hc_dev_atacommand                         output.o
storage_hc_dev_close                              output.o
storage_hc_dev_open                               output.o
storage_hc_hook_register                          output.o
storage_hc_hook_unregister                        output.o
storage_hc_open                                   output.o
storage_hc_register                               output.o
storage_hc_scandev                                output.o
storage_hc_unregister                             output.o
storage_init                                      output.o
storage_io_aget_size                              output.o
storage_io_aread                                  output.o
storage_io_awrite                                 output.o
storage_io_deinit                                 output.o
storage_io_get_num_devices                        output.o
storage_io_init                                   output.o
storage_new                                       output.o
storage_premap_buf                                output.o
storage_premap_handle_sectors                     output.o
strcmp                                            output.o
string_to_hex                                     output.o
strlen                                            output.o
svm_available                                     output.o
svm_enable_resume                                 output.o
svm_extern_iopass                                 output.o
svm_init                                          output.o
svm_init_signal                                   output.o
svm_ioio                                          output.o
svm_msr_update_lma                                output.o
svm_np_clear_all                                  output.o
svm_np_extern_mapsearch                           output.o
svm_np_init                                       output.o
svm_np_map_1mb                                    output.o
svm_np_pagefault                                  output.o
svm_np_tlbflush                                   output.o
svm_np_updatecr3                                  output.o
svm_paging_apply_fixed_cr0                        output.o
svm_paging_apply_fixed_cr4                        output.o
svm_paging_clear_all                              output.o
svm_paging_extern_flush_tlb_entry                 output.o
svm_paging_flush_guest_tlb                        output.o
svm_paging_get_gpat                               output.o
svm_paging_init                                   output.o
svm_paging_invalidate                             output.o
svm_paging_map_1mb                                output.o
svm_paging_npf                                    output.o
svm_paging_pagefault                              output.o
svm_paging_pg_change                              output.o
svm_paging_set_gpat                               output.o
svm_paging_spt_setcr3                             output.o
svm_paging_start                                  output.o
svm_paging_tlbflush                               output.o
svm_paging_updatecr3                              output.o
svm_panic_dump                                    output.o
svm_read_control_reg                              output.o
svm_read_flags                                    output.o
svm_read_gdtr                                     output.o
svm_read_general_reg                              output.o
svm_read_idtr                                     output.o
svm_read_ip                                       output.o
svm_read_msr                                      output.o
svm_read_sreg_acr                                 output.o
svm_read_sreg_base                                output.o
svm_read_sreg_limit                               output.o
svm_read_sreg_sel                                 output.o
svm_reset                                         output.o
svm_resume                                        output.o
svm_start_vm                                      output.o
svm_vmexit                                        output.o
svm_vminit                                        output.o
svm_write_control_reg                             output.o
svm_write_flags                                   output.o
svm_write_gdtr                                    output.o
svm_write_general_reg                             output.o
svm_write_idtr                                    output.o
svm_write_ip                                      output.o
svm_write_msr                                     output.o
svm_write_realmode_seg                            output.o
svm_writing_sreg                                  output.o
sx_handler                                        output.o
sym_to_phys                                       output.o
sync_all_processors                               output.o
sys_exitprocess                                   output.o
sys_msgclose                                      output.o
sys_msgopen                                       output.o
sys_msgregister                                   output.o
sys_msgret                                        output.o
sys_msgsendbuf                                    output.o
sys_msgsenddesc                                   output.o
sys_msgsendint                                    output.o
sys_msgsetfunc                                    output.o
sys_msgunregister                                 output.o
sys_newprocess                                    output.o
syscallHandlerAddress                             output.o
syscall_entry_lret                                output.o
syscall_entry_sysexit                             output.o
syscall_entry_sysret64                            output.o
syscall_metatata_table                            output.o
tcg_measure                                       output.o
test_gpaToHPA                                     output.o
test_logicalCPUStatus                             output.o
test_start                                        output.o
test_traverseGuestPages                           output.o
thread_exit                                       output.o
thread_gettid                                     output.o
thread_new                                        output.o
thread_set_process_switch                         output.o
thread_start0                                     output.o
thread_start1                                     output.o
thread_switch                                     output.o
thread_wakeup                                     output.o
thread_will_stop                                  output.o
timer_free                                        output.o
timer_new                                         output.o
timer_set                                         output.o
traverseGuestPages                                output.o
traverseIA32ePDPT                                 output.o
traverseIA32ePDT                                  output.o
traverseIA32ePT                                   output.o
traverseIA32ePages                                output.o
tree_find_sk                                      output.o
tty_init_iohook                                   output.o
tty_putchar                                       output.o
tty_udp_register                                  output.o
ttylog_stop                                       output.o
uhci_activate_urb                                 output.o
uhci_check_advance                                output.o
uhci_check_urb_advance                            output.o
uhci_create_urb                                   output.o
uhci_current_frame_number                         output.o
uhci_deactivate_urb                               output.o
uhci_destroy_unlinked_urbs                        output.o
uhci_destroy_urb                                  output.o
uhci_dump_all                                     output.o
uhci_error_status_string                          output.o
uhci_framelist_monitor                            output.o
uhci_init                                         output.o
uhci_monitor_boost_hc                             output.o
uhci_reactivate_urb                               output.o
uhci_shadow_buffer                                output.o
uhci_submit_bulk                                  output.o
uhci_submit_control                               output.o
uhci_submit_interrupt                             output.o
unmapHPAintoHVA                                   output.o
unmapmem                                          output.o
update_mtrr_and_pat                               output.o
usb_bulk_read                                     output.o
usb_bulk_write                                    output.o
usb_busses_head                                   output.o
usb_claim_interface                               output.o
usb_clear_halt                                    output.o
usb_close                                         output.o
usb_control_msg                                   output.o
usb_find_busses                                   output.o
usb_find_devices                                  output.o
usb_get_bus                                       output.o
usb_get_busses                                    output.o
usb_get_descriptor                                output.o
usb_get_descriptor_by_endpoint                    output.o
usb_get_descriptor_early                          output.o
usb_get_string                                    output.o
usb_get_string_simple                             output.o
usb_hc_list_head                                  output.o
usb_hook_process                                  output.o
usb_hook_register                                 output.o
usb_hook_unregister                               output.o
usb_init                                          output.o
usb_init_device_monitor                           output.o
usb_interrupt_read                                output.o
usb_interrupt_write                               output.o
usb_log_level                                     output.o
usb_new_dev_handle                                output.o
usb_open                                          output.o
usb_register_host                                 output.o
usb_release_interface                             output.o
usb_reset                                         output.o
usb_resetep                                       output.o
usb_sc_lock                                       output.o
usb_sc_unlock                                     output.o
usb_set_altinterface                              output.o
usb_set_configuration                             output.o
usb_set_debug                                     output.o
usb_unregister_devices                            output.o
usbccid_init_handle                               output.o
usbhid_init_handle                                output.o
usbhub_init_handle                                output.o
usbmsc_init_handle                                output.o
use_pae                                           output.o
usleep                                            output.o
v2i_ASN1_BIT_STRING                               output.o
v2i_GENERAL_NAME                                  output.o
v2i_GENERAL_NAMES                                 output.o
v2i_GENERAL_NAME_ex                               output.o
v3_akey_id                                        output.o
v3_alt                                            output.o
v3_bcons                                          output.o
v3_cpols                                          output.o
v3_crl_hold                                       output.o
v3_crl_invdate                                    output.o
v3_crl_num                                        output.o
v3_crl_reason                                     output.o
v3_crld                                           output.o
v3_delta_crl                                      output.o
v3_ext_ku                                         output.o
v3_freshest_crl                                   output.o
v3_idp                                            output.o
v3_info                                           output.o
v3_inhibit_anyp                                   output.o
v3_key_usage                                      output.o
v3_name_constraints                               output.o
v3_ns_ia5_list                                    output.o
v3_nscert                                         output.o
v3_ocsp_accresp                                   output.o
v3_ocsp_acutoff                                   output.o
v3_ocsp_crlid                                     output.o
v3_ocsp_nocheck                                   output.o
v3_ocsp_nonce                                     output.o
v3_ocsp_serviceloc                                output.o
v3_pci                                            output.o
v3_pkey_usage_period                              output.o
v3_policy_constraints                             output.o
v3_policy_mappings                                output.o
v3_sinfo                                          output.o
v3_skey_id                                        output.o
v3_sxnet                                          output.o
vcpu_list_foreach                                 output.o
vga_fill_rect                                     output.o
vga_get_screen_size                               output.o
vga_is_ready                                      output.o
vga_register                                      output.o
vga_transfer_image                                output.o
virt_to_phys                                      output.o
vmctl_svm_init                                    output.o
vmctl_vt_init                                     output.o
vmm_base_cr3                                      output.o
vmm_main                                          output.o
vmm_pd                                            output.o
vmm_pd1                                           output.o
vmm_pd2                                           output.o
vmm_pdp                                           output.o
vmm_pml4                                          output.o
vmm_start_inf                                     output.o
vmm_term_inf                                      output.o
vmmcall                                           output.o
vmmcall_boot_continue                             output.o
vmmcall_boot_enable                               output.o
vmmcall_init                                      output.o
vmmcall_register                                  output.o
vmmsize                                           output.o
vpn_FreeTimer                                     output.o
vpn_GetCurrentCpuId                               output.o
vpn_GetPhysicalNicInfo                            output.o
vpn_GetTickCount                                  output.o
vpn_GetVirtualNicInfo                             output.o
vpn_NewTimer                                      output.o
vpn_SendPhysicalNic                               output.o
vpn_SendVirtualNic                                output.o
vpn_SetPhysicalNicRecvCallback                    output.o
vpn_SetTimer                                      output.o
vpn_SetVirtualNicRecvCallback                     output.o
vpn_ic_rsa_sign                                   output.o
vpn_new_nic                                       output.o
vpn_premap_PhysicalNicRecv                        output.o
vpn_premap_VirtualNicRecv                         output.o
vpn_premap_recvbuf                                output.o
vpn_start                                         output.o
vpn_user_init                                     output.o
vprintf                                           output.o
vramwrite_clearscreen                             output.o
vramwrite_exit_global                             output.o
vramwrite_get_cursor_pos                          output.o
vramwrite_init_global                             output.o
vramwrite_mark1                                   output.o
vramwrite_mark2                                   output.o
vramwrite_mark3                                   output.o
vramwrite_putchar                                 output.o
vramwrite_restore_cursor                          output.o
vramwrite_save_and_move_cursor                    output.o
vsnprintf                                         output.o
vt__vmx_init                                      output.o
vt__vmxon                                         output.o
vt_add_guest_msr                                  output.o
vt_available                                      output.o
vt_enable_resume                                  output.o
vt_ept_clear_all                                  output.o
vt_ept_extern_mapsearch                           output.o
vt_ept_init                                       output.o
vt_ept_map_1mb                                    output.o
vt_ept_tlbflush                                   output.o
vt_ept_updatecr3                                  output.o
vt_ept_violation                                  output.o
vt_extern_iopass                                  output.o
vt_generate_external_int                          output.o
vt_generate_pagefault                             output.o
vt_get_current_regs_in_vmcs                       output.o
vt_get_vmcs_regs_in_vmcs                          output.o
vt_init                                           output.o
vt_init_signal                                    output.o
vt_io                                             output.o
vt_iopass                                         output.o
vt_iopass_init                                    output.o
vt_msr_init                                       output.o
vt_msr_update_lma                                 output.o
vt_paging_apply_fixed_cr0                         output.o
vt_paging_apply_fixed_cr4                         output.o
vt_paging_clear_all                               output.o
vt_paging_extern_flush_tlb_entry                  output.o
vt_paging_flush_guest_tlb                         output.o
vt_paging_get_gpat                                output.o
vt_paging_init                                    output.o
vt_paging_invalidate                              output.o
vt_paging_map_1mb                                 output.o
vt_paging_npf                                     output.o
vt_paging_pagefault                               output.o
vt_paging_pg_change                               output.o
vt_paging_set_gpat                                output.o
vt_paging_spt_setcr3                              output.o
vt_paging_start                                   output.o
vt_paging_tlbflush                                output.o
vt_paging_updatecr3                               output.o
vt_panic_dump                                     output.o
vt_read_control_reg                               output.o
vt_read_flags                                     output.o
vt_read_gdtr                                      output.o
vt_read_general_reg                               output.o
vt_read_guest_msr                                 output.o
vt_read_idtr                                      output.o
vt_read_ip                                        output.o
vt_read_msr                                       output.o
vt_read_sreg_acr                                  output.o
vt_read_sreg_base                                 output.o
vt_read_sreg_limit                                output.o
vt_read_sreg_sel                                  output.o
vt_reset                                          output.o
vt_resume                                         output.o
vt_start_vm                                       output.o
vt_update_exception_bmp                           output.o
vt_vmexit                                         output.o
vt_vminit                                         output.o
vt_vmptrld                                        output.o
vt_write_control_reg                              output.o
vt_write_flags                                    output.o
vt_write_gdtr                                     output.o
vt_write_general_reg                              output.o
vt_write_guest_msr                                output.o
vt_write_idtr                                     output.o
vt_write_ip                                       output.o
vt_write_msr                                      output.o
vt_write_realmode_seg                             output.o
vt_writing_sreg                                   output.o
waitcycles                                        output.o
wakeup_cont                                       output.o
wakeup_entry_addr                                 output.o
wakeup_entry_cr0                                  output.o
wakeup_entry_cr3                                  output.o
wakeup_entry_cr4                                  output.o
wakeup_entry_end                                  output.o
wakeup_entry_gdtr                                 output.o
wakeup_entry_start                                output.o
wakeup_init                                       output.o
wakeup_main                                       output.o
whirlpool_block                                   output.o
write_gphys_b                                     output.o
write_gphys_l                                     output.o
write_gphys_q                                     output.o
write_gphys_w                                     output.o
write_hphys_b                                     output.o
write_hphys_l                                     output.o
write_hphys_q                                     output.o
write_hphys_w                                     output.o
write_linearaddr_b                                output.o
write_linearaddr_l                                output.o
write_linearaddr_ok_b                             output.o
write_linearaddr_ok_l                             output.o
write_linearaddr_ok_w                             output.o
write_linearaddr_q                                output.o
write_linearaddr_tss                              output.o
write_linearaddr_w                                output.o
x509_name_ff                                      output.o
zero_page_pool                                    output.o
