
Allocating common symbols
Common symbol       size              file

clflush_size        0x4               output.o
sReaderContext      0x60              output.o
sigx_app            0x8               output.o
num_dom             0x4               output.o
mszReaders          0x400             output.o
prohibit_iccard_init
                    0x4               output.o
curthread           0x8               output.o
sig_app             0x8               output.o
readerState         0x64              output.o
dom_io              0x800             output.o
acpi_dsdt_system_state
                    0x1e              output.o
ehci_host           0x8               output.o
num_of_processors   0x4               output.o
e801_fake_bx        0x2               output.o
iommu_detected      0x1               output.o
dwReaders           0x8               output.o
readerTracker       0x140             output.o
handler_descriptor_lock
                    0x1               output.o
e801_fake_ax        0x2               output.o

Discarded input sections

 .gomi          0x0000000000000000        0xe output.o

Memory Configuration

Name             Origin             Length             Attributes
*default*        0x0000000000000000 0xffffffffffffffff

Linker script and memory map

                0x0000000040100000                virt = 0x40100000
                0x0000000000100000                phys = 0x100000
                0x0000000040100000                . = virt
                0x0000000040100000                head = .
                0x00000000401000b0                . = (virt + SIZEOF_HEADERS)

.text           0x0000000040101000   0x1142b8 load address 0x0000000000101000
                0x0000000040101000                code = .
 *(.entry)
 .entry         0x0000000040101000     0x6000 output.o
                0x000000004010100c                entry
                0x000000004010109a                cpuinit_start
                0x00000000401012c8                vmm_base_cr3
                0x00000000401012e0                apinit_procs
                0x00000000401012e8                apinit_lock
                0x00000000401012f0                cpuinit_end
                0x0000000040103000                entry_pdp
                0x0000000040104000                entry_pd0
                0x0000000040105000                entry_pd
 *(.text)
 .text          0x0000000040107000   0x10e2b8 output.o
                0x0000000040107654                acpi_smi_hook
                0x00000000401076a1                acpi_iohook
                0x00000000401076f3                acpi_reset
                0x00000000401077f1                acpi_poweroff
                0x000000004010782a                get_acpi_time_raw
                0x000000004010c801                acpi_dsdt_parse
                0x000000004010ccf2                apinitproc0
                0x000000004010cd1b                apic_available
                0x000000004010cd49                ap_start_addr
                0x000000004010cfa3                panic_wakeup_all
                0x000000004010d033                disable_apic
                0x000000004010d0a7                sync_all_processors
                0x000000004010d137                start_all_processors
                0x000000004010d178                assertion_failed
                0x000000004010d1b5                beep_set_freq
                0x000000004010d1e3                beep_on
                0x000000004010d1f3                beep_off
                0x000000004010d842                update_mtrr_and_pat
                0x000000004010da91                cache_get_gpat
                0x000000004010dae4                cache_set_gpat
                0x000000004010db2d                cache_get_attr
                0x000000004010dbe2                cache_get_gmtrr_type
                0x000000004010dbed                cache_get_gmtrr_attr
                0x000000004010dc00                cache_get_gmtrrcap
                0x000000004010dc2e                cache_get_gmtrr
                0x000000004010dd8b                cache_set_gmtrr
                0x000000004010dde5                cache_get_gmsr_amd
                0x000000004010de35                cache_set_gmsr_amd
                0x000000004010e271                callrealmode_endofcodeaddr
                0x000000004010e282                callrealmode_usevcpu
                0x000000004010e28f                callrealmode_printmsg
                0x000000004010e2ac                callrealmode_getsysmemmap
                0x000000004010e309                callrealmode_getshiftflags
                0x000000004010e327                callrealmode_setvideomode
                0x000000004010e345                callrealmode_reboot
                0x000000004010e35f                callrealmode_tcgbios
                0x000000004010e3f3                callrealmode_disk_readmbr
                0x000000004010e432                callrealmode_disk_readlba
                0x000000004010e479                callrealmode_bootcd_getstatus
                0x000000004010e4ce                callrealmode_setcursorpos
                0x000000004010e4f3                callrealmode_startkernel32
                0x000000004010e513                callrealmode_getfontinfo
                0x000000004010e594                get_cpu_id
                0x000000004010e5b0                cpu_emul_cpuid
                0x000000004010e664                cpu_emul_rdmsr
                0x000000004010e6dd                cpu_emul_wrmsr
                0x000000004010e74a                cpu_emul_hlt
                0x000000004010e762                cpu_emul_cli
                0x000000004010e79b                cpu_emul_sti
                0x000000004010e7e2                cpu_emul_realmode_int
                0x000000004010e95f                cpu_emul_xsetbv
                0x00000000401111b0                cpu_interpreter
                0x00000000401134ec                cpu_mmu_get_pte
                0x0000000040113e95                write_linearaddr_ok_b
                0x0000000040113eb7                write_linearaddr_ok_w
                0x0000000040113ec2                write_linearaddr_ok_l
                0x0000000040113ecd                write_linearaddr_b
                0x0000000040113f45                write_linearaddr_w
                0x0000000040113fe8                write_linearaddr_l
                0x0000000040114089                write_linearaddr_q
                0x0000000040114128                read_linearaddr_b
                0x000000004011419f                read_linearaddr_w
                0x000000004011423b                read_linearaddr_l
                0x00000000401142d8                read_linearaddr_q
                0x0000000040114375                read_linearaddr_tss
                0x000000004011441a                write_linearaddr_tss
                0x00000000401184ad                cpu_mmu_spt_tlbflush
                0x00000000401184e8                cpu_mmu_spt_updatecr3
                0x0000000040118781                cpu_mmu_spt_invalidate
                0x0000000040118809                cpu_mmu_spt_pagefault
                0x00000000401189f9                cpu_mmu_spt_extern_mapsearch
                0x0000000040118b3a                cpu_mmu_spt_map_1mb
                0x0000000040118c96                cpu_mmu_spt_clear_all
                0x0000000040118df5                cpu_mmu_spt_init
                0x0000000040119464                cpu_seg_read_b
                0x00000000401194db                cpu_seg_read_w
                0x0000000040119552                cpu_seg_read_l
                0x00000000401195c9                cpu_seg_read_q
                0x0000000040119640                cpu_seg_write_b
                0x00000000401196b8                cpu_seg_write_w
                0x0000000040119730                cpu_seg_write_l
                0x00000000401197a7                cpu_seg_write_q
                0x0000000040119820                cpu_stack_get
                0x000000004011988a                cpu_stack_set
                0x000000004011991f                cpu_stack_push
                0x00000000401199d1                cpu_stack_pop
                0x0000000040119ac0                call_cpuid
                0x0000000040119e99                debug_addstr
                0x0000000040119e9f                debug_gdb
                0x0000000040119ea5                debug_iohook
                0x0000000040119eab                debug_msgregister
                0x0000000040119edb                debug_msgunregister
                0x0000000040119f79                do_exint_pass
                0x000000004011a010                read_gphys_b
                0x000000004011a08c                write_gphys_b
                0x000000004011a10f                read_gphys_w
                0x000000004011a1b5                write_gphys_w
                0x000000004011a266                read_gphys_l
                0x000000004011a30c                write_gphys_l
                0x000000004011a3c0                read_gphys_q
                0x000000004011a466                write_gphys_q
                0x000000004011a517                cmpxchg_gphys_l
                0x000000004011a5e3                cmpxchg_gphys_q
                0x000000004011aa11                gmm_pass_gp2hp
                0x000000004011ab82                idman_reinit_session
                0x000000004011abfd                idman_reinit2
                0x000000004011ac1e                get_idman_session
                0x000000004011ac60                call_initfunc
                0x000000004011acc4                initfunc_init
                0x000000004011c84e                int_fatal
                0x000000004011cbcf                callfunc_and_getint
                0x000000004011cbe3                do_externalint_enable
                0x000000004011cbf8                set_int_handler
                0x000000004011cc17                int_exceptionHandler
                0x000000004011cc22                int_init_ap
                0x000000004011cc76                do_io_nothing
                0x000000004011ccb2                set_iofunc
                0x000000004011cd53                call_io
                0x000000004011ce9c                do_iopass_default
                0x000000004011d033                keyboard_reset
                0x000000004011d078                setkbdled
                0x000000004011d0d9                keyboard_flush
                0x000000004011d100                load_bootsector
                0x000000004011d4c9                copy_bootsector
                0x000000004011d76a                localapic_wait_for_sipi
                0x000000004011d7f7                localapic_change_base_msr
                0x000000004011d843                localapic_mmio_register
                0x000000004011e21a                resume_vm
                0x000000004011e2d5                vmm_main
                0x000000004011e6c0                getsysmemmap
                0x000000004011e748                getfakesysmemmap
                0x000000004011e7cc                phys_to_virt
                0x000000004011e7e2                vmm_start_inf
                0x000000004011e7ee                vmm_term_inf
                0x000000004011e7ff                num_of_available_pages
                0x000000004011e86b                alloc_pages
                0x000000004011e8f4                alloc_page
                0x000000004011e904                alloc
                0x000000004011eb81                alloc2
                0x000000004011ebce                free
                0x000000004011eced                realloc
                0x000000004011ee3e                free_page
                0x000000004011ee51                free_page_phys
                0x000000004011ee6c                mempool_new
                0x000000004011eed7                mempool_free
                0x000000004011ef87                mempool_allocmem
                0x000000004011f16a                mempool_freemem
                0x000000004011f420                sym_to_phys
                0x000000004011f434                phys_in_vmm
                0x000000004011f450                mm_force_unlock
                0x000000004011f479                mm_process_alloc
                0x000000004011f649                mm_process_free
                0x000000004011f690                mm_process_switch
                0x000000004011f6ae                pmap_open_vmm
                0x000000004011f6d9                pmap_open_guest
                0x000000004011f71b                pmap_close
                0x000000004011f721                pmap_getreadlevel
                0x000000004011f72d                pmap_setlevel
                0x000000004011f739                pmap_seek
                0x000000004011f7a6                pmap_read
                0x000000004011f9d1                pmap_write
                0x000000004011fb68                mm_process_unmap_stack
                0x000000004011fd4f                mm_process_unmap
                0x000000004011fe31                mm_process_unmapall
                0x000000004011fed8                pmap_pointer
                0x000000004011ff39                pmap_clear
                0x0000000040120026                pmap_autoalloc
                0x000000004012075c                mm_process_map_stack
                0x0000000040120ac1                mm_process_map_shared_physpage
                0x0000000040120b35                mm_process_map_shared
                0x0000000040120d5f                mm_process_map_alloc
                0x0000000040120e91                pmap_dump
                0x0000000040120fa9                unmapmem
                0x000000004012108a                mapmem
                0x000000004012155d                cmpxchg_hphys_q
                0x00000000401215bb                cmpxchg_hphys_l
                0x0000000040121619                write_hphys_q
                0x000000004012164d                read_hphys_q
                0x0000000040121684                write_hphys_l
                0x00000000401216b6                read_hphys_l
                0x00000000401216eb                write_hphys_w
                0x000000004012171e                read_hphys_w
                0x0000000040121755                write_hphys_b
                0x0000000040121787                read_hphys_b
                0x00000000401217ea                mapmem_hphys
                0x0000000040121802                alloc_realmodemem
                0x00000000401218a5                mapmem_gphys
                0x00000000401218bd                mm_flush_wb_cache
                0x0000000040121cdf                mmio_access_memory
                0x0000000040121e36                mmio_access_page
                0x0000000040121ef7                mmio_register
                0x00000000401220fa                mmio_unregister
                0x0000000040122181                mmio_lock
                0x000000004012219c                mmio_unlock
                0x000000004012222e                msg_findname
                0x00000000401222a8                msg_register
                0x000000004012238a                msg_unregister
                0x0000000040122405                msg_unregisterall
                0x0000000040122491                msg_unregister2
                0x000000004012255e                call_read_msr
                0x0000000040122572                call_write_msr
                0x0000000040122850                load_minios
                0x0000000040123070                backtrace
                0x00000000401234a8                panic
                0x00000000401239a0                auto_reboot
                0x00000000401239bd                panic_test
                0x00000000401239e0                pcpu_list_foreach
                0x0000000040123a1f                pcpu_list_add
                0x0000000040123a71                pcpu_init
                0x00000000401244c5                vprintf
                0x0000000040124500                printf
                0x000000004012453e                vsnprintf
                0x0000000040124582                snprintf
                0x00000000401247e9                sys_msgsetfunc
                0x000000004012488e                sys_msgclose
                0x00000000401248ab                sys_msgret
                0x00000000401248bd                sys_exitprocess
                0x0000000040124b6d                sys_msgsenddesc
                0x0000000040124c25                sys_msgunregister
                0x0000000040125341                sys_msgsendbuf
                0x00000000401254f3                sys_msgsendint
                0x0000000040125792                sys_newprocess
                0x0000000040125833                sys_msgopen
                0x0000000040125973                sys_msgregister
                0x00000000401259f1                process_kill
                0x0000000040125a48                msgsetfunc
                0x0000000040125a5d                msgregister
                0x0000000040125a73                msgopen
                0x0000000040125a86                msgclose
                0x0000000040125a98                msgsendint
                0x0000000040125aac                msgsenddesc
                0x0000000040125ac0                newprocess
                0x0000000040125ad3                msgsendbuf
                0x0000000040125aed                msgunregister
                0x0000000040125aff                exitprocess
                0x0000000040125b12                msgpremapbuf
                0x0000000040125c3c                process_syscall
                0x0000000040125ce8                putchar
                0x0000000040125d26                putchar_set_func
                0x0000000040126027                do_panic_reboot
                0x00000000401260b1                handle_init_to_bsp
                0x00000000401260d2                reboot_test
                0x0000000040126102                savemsr_save
                0x000000004012617e                savemsr_load
                0x00000000401267a6                get_seg_base
                0x0000000040126864                get_seg_access_rights
                0x0000000040126884                segment_wakeup
                0x00000000401268c6                segment_init_ap
                0x0000000040126b8b                serial_putDebugChar
                0x0000000040126b9d                serial_getDebugChar
                0x0000000040126bb2                serial_putchar
                0x0000000040126c06                serial_init_iohook
                0x0000000040126c74                waitcycles
                0x0000000040126c96                usleep
                0x0000000040126d6b                sleep_set_timer_counter
                0x0000000040126ed2                vmctl_svm_init
                0x0000000040126f7c                message_exitcode
                0x00000000401274ff                printexitcode
                0x00000000401276b8                svm_available
                0x0000000040127776                svm_reset
                0x000000004012787a                svm_vminit
                0x0000000040127ab5                svm_vmexit
                0x0000000040127abb                svm_init
                0x0000000040127c05                svm_enable_resume
                0x0000000040127d0a                svm_resume
                0x0000000040127e60                svm_ioio
                0x0000000040127f60                svm_extern_iopass
                0x00000000401280d3                svm_init_signal
                0x00000000401280f6                svm_start_vm
                0x0000000040128bb0                svm_msr_update_lma
                0x0000000040128c25                svm_read_msr
                0x0000000040128eca                svm_write_msr
                0x000000004012941a                svm_np_init
                0x0000000040129502                svm_np_pagefault
                0x0000000040129548                svm_np_tlbflush
                0x000000004012954e                svm_np_updatecr3
                0x0000000040129559                svm_np_clear_all
                0x00000000401295ec                svm_np_extern_mapsearch
                0x0000000040129677                svm_np_map_1mb
                0x00000000401296d0                svm_paging_extern_flush_tlb_entry
                0x00000000401296f7                svm_paging_map_1mb
                0x0000000040129721                svm_paging_flush_guest_tlb
                0x0000000040129760                svm_paging_init
                0x000000004012987e                svm_paging_pagefault
                0x00000000401298aa                svm_paging_tlbflush
                0x00000000401298d1                svm_paging_invalidate
                0x00000000401298fd                svm_paging_npf
                0x0000000040129929                svm_paging_updatecr3
                0x0000000040129951                svm_paging_spt_setcr3
                0x0000000040129986                svm_paging_clear_all
                0x00000000401299b1                svm_paging_get_gpat
                0x00000000401299bc                svm_paging_set_gpat
                0x0000000040129a09                svm_paging_apply_fixed_cr0
                0x0000000040129a2c                svm_paging_apply_fixed_cr4
                0x0000000040129a50                svm_paging_pg_change
                0x0000000040129a56                svm_paging_start
                0x0000000040129a68                svm_panic_dump
                0x0000000040129b40                svm_read_general_reg
                0x0000000040129ca9                svm_write_general_reg
                0x0000000040129ddf                svm_read_control_reg
                0x0000000040129e75                svm_write_control_reg
                0x0000000040129f61                svm_read_sreg_sel
                0x000000004012a02d                svm_read_sreg_acr
                0x000000004012a10c                svm_read_sreg_base
                0x000000004012a22e                svm_read_sreg_limit
                0x000000004012a345                svm_read_ip
                0x000000004012a364                svm_write_ip
                0x000000004012a38a                svm_read_flags
                0x000000004012a3a9                svm_write_flags
                0x000000004012a3c5                svm_read_gdtr
                0x000000004012a3fc                svm_write_gdtr
                0x000000004012a425                svm_read_idtr
                0x000000004012a45c                svm_write_idtr
                0x000000004012a485                svm_write_realmode_seg
                0x000000004012a5d5                svm_writing_sreg
                0x000000004012a6f7                int1a_TCG_StatusCheck
                0x000000004012a7bc                int1a_TCG_HashLogExtendEvent
                0x000000004012a84d                int1a_TCG_PassThroughToTPM
                0x000000004012a8de                int1a_TCG_HashLogEvent
                0x000000004012a95f                int1a_TCG_HashAll
                0x000000004012aa17                int1a_TCG_TSS
                0x000000004012aaa8                int1a_TCG_CompactHashLogExtendEvent
                0x000000004012ab09                tcg_measure
                0x000000004012ae4d                thread_gettid
                0x000000004012ae62                schedule
                0x000000004012b073                thread_new
                0x000000004012b196                thread_wakeup
                0x000000004012b273                thread_will_stop
                0x000000004012b2eb                thread_exit
                0x000000004012b38f                thread_start1
                0x000000004012b3bf                thread_set_process_switch
                0x000000004012b570                get_cpu_time
                0x000000004012b643                get_acpi_time
                0x000000004012b6f3                get_time
                0x000000004012b8d5                timer_new
                0x000000004012b956                timer_set
                0x000000004012ba4c                timer_free
                0x000000004012bc52                tty_putchar
                0x000000004012be06                ttylog_stop
                0x000000004012be16                tty_udp_register
                0x000000004012be68                tty_init_iohook
                0x000000004012be90                vcpu_list_foreach
                0x000000004012becf                load_new_vcpu
                0x000000004012bf89                vga_register
                0x000000004012c00b                vga_is_ready
                0x000000004012c06b                vga_transfer_image
                0x000000004012c0b8                vga_fill_rect
                0x000000004012c0f2                vga_get_screen_size
                0x000000004012c21c                vmmcall
                0x000000004012c275                vmmcall_register
                0x000000004012c2b3                vmmcall_init
                0x000000004012c674                vmmcall_boot_continue
                0x000000004012c6bf                vmmcall_boot_enable
                0x000000004012cf27                register_status_callback
                0x000000004012d03f                vramwrite_clearscreen
                0x000000004012d096                vramwrite_putchar
                0x000000004012d26e                vramwrite_mark1
                0x000000004012d2c0                vramwrite_mark2
                0x000000004012d320                vramwrite_mark3
                0x000000004012d380                vramwrite_save_and_move_cursor
                0x000000004012d3c5                vramwrite_restore_cursor
                0x000000004012d3d7                vramwrite_get_cursor_pos
                0x000000004012d437                vramwrite_init_global
                0x000000004012d444                vramwrite_exit_global
                0x000000004012d4ce                vt_generate_external_int
                0x000000004012d521                vt_generate_pagefault
                0x000000004012d5d7                vmctl_vt_init
                0x000000004012d67f                vt_vmptrld
                0x000000004012d96c                vt_ept_init
                0x000000004012da5c                vt_ept_violation
                0x000000004012dae4                vt_ept_tlbflush
                0x000000004012daea                vt_ept_updatecr3
                0x000000004012dbdc                vt_ept_clear_all
                0x000000004012dc6f                vt_ept_extern_mapsearch
                0x000000004012dcfa                vt_ept_map_1mb
                0x000000004012dd4c                message_exitreason
                0x000000004012deb5                printexitreason
                0x000000004012e82c                vt_available
                0x000000004012e8c6                vt__vmx_init
                0x000000004012e90e                vt__vmxon
                0x000000004012e9bb                vt_vminit
                0x000000004012ea17                vt_vmexit
                0x000000004012ea31                vt_init
                0x000000004012ea41                vt_enable_resume
                0x000000004012eb7a                vt_resume
                0x000000004012ed17                vt_io
                0x000000004012ee48                vt_iopass_init
                0x000000004012efdd                vt_iopass
                0x000000004012f02e                vt_extern_iopass
                0x000000004012fc5a                vt_update_exception_bmp
                0x0000000040130213                vt_init_signal
                0x000000004013021e                vt_start_vm
                0x0000000040130601                vt_add_guest_msr
                0x0000000040130744                vt_read_guest_msr
                0x0000000040130775                vt_write_guest_msr
                0x00000000401307a3                vt_msr_update_lma
                0x000000004013087b                vt_read_msr
                0x0000000040130b1f                vt_write_msr
                0x0000000040130de7                vt_msr_init
                0x0000000040130fe3                vt_paging_extern_flush_tlb_entry
                0x0000000040131051                vt_paging_map_1mb
                0x0000000040131071                vt_paging_flush_guest_tlb
                0x00000000401310d1                vt_paging_pagefault
                0x0000000040131114                vt_paging_tlbflush
                0x0000000040131137                vt_paging_invalidate
                0x000000004013116a                vt_paging_npf
                0x00000000401311ad                vt_paging_updatecr3
                0x00000000401311e1                vt_paging_spt_setcr3
                0x000000004013120c                vt_paging_clear_all
                0x000000004013123f                vt_paging_get_gpat
                0x000000004013124a                vt_paging_set_gpat
                0x00000000401312aa                vt_paging_apply_fixed_cr0
                0x0000000040131312                vt_paging_apply_fixed_cr4
                0x000000004013135a                vt_paging_pg_change
                0x00000000401314dd                vt_paging_init
                0x0000000040131558                vt_paging_start
                0x0000000040131587                vt_panic_dump
                0x0000000040131730                vt_read_general_reg
                0x000000004013187e                vt_write_general_reg
                0x000000004013199c                vt_read_control_reg
                0x0000000040131a0c                vt_read_sreg_sel
                0x0000000040131b26                vt_read_sreg_acr
                0x0000000040131b85                vt_read_sreg_base
                0x0000000040131c3d                vt_read_sreg_limit
                0x0000000040131cf0                vt_read_ip
                0x0000000040131cfe                vt_write_ip
                0x0000000040131d1e                vt_read_flags
                0x0000000040131d44                vt_write_flags
                0x0000000040131d6f                vt_read_gdtr
                0x0000000040131d84                vt_write_gdtr
                0x0000000040131d99                vt_read_idtr
                0x0000000040131ddd                vt_write_idtr
                0x0000000040131e13                vt_write_control_reg
                0x00000000401322ef                vt_get_current_regs_in_vmcs
                0x0000000040132597                vt_get_vmcs_regs_in_vmcs
                0x0000000040132714                vt_write_realmode_seg
                0x0000000040132857                vt_writing_sreg
                0x00000000401328e0                vt_reset
                0x0000000040132bbf                prepare_for_sleep
                0x0000000040132c96                cancel_sleep
                0x0000000040132cb8                wakeup_main
                0x0000000040132d40                wakeup_cont
                0x0000000040132e6a                wakeup_init
                0x0000000040132eb4                call_xsetbv
                0x0000000040132f20                mpumul_64_64
                0x0000000040132f40                mpudiv_128_32
                0x0000000040132f60                ipchecksum
                0x0000000040132ff0                asm_vmlaunch_regs_32
                0x0000000040133070                asm_vmresume_regs_32
                0x00000000401330f0                asm_vmrun_regs_32
                0x0000000040133150                asm_vmlaunch_regs_64
                0x0000000040133230                asm_vmresume_regs_64
                0x0000000040133310                asm_vmrun_regs_64
                0x00000000401333b4                callrealmode_start
                0x00000000401333ca                callrealmode_start2
                0x0000000040133856                callrealmode_end
                0x0000000040133858                move_vmm_area32
                0x000000004013387d                move_vmm_area64
                0x00000000401338a8                int_handler
                0x0000000040133920                int_callfunc
                0x0000000040134000                syscall_entry_sysexit
                0x000000004013402c                syscall_entry_lret
                0x000000004013405c                ret_to_user32
                0x0000000040134068                syscall_entry_sysret64
                0x00000000401340b0                ret_to_user64
                0x0000000040135000                processuser_sysenter
                0x0000000040136000                processuser_no_sysenter
                0x0000000040137000                processuser_syscall
                0x0000000040138140                memset
                0x00000000401381c0                memcpy
                0x0000000040138200                strcmp
                0x0000000040138240                memcmp
                0x0000000040138280                strlen
                0x0000000040138298                sx_handler
                0x00000000401382f0                thread_switch
                0x0000000040138310                thread_start0
                0x000000004013834c                monitor_vmcs_read
                0x0000000040138355                get_guest_eptp_value
                0x0000000040138365                get_guest_cr3_value
                0x0000000040138378                hypercall_handler
                0x0000000040138398                get_page_table_base_GPA
                0x00000000401383ae                get_ept_base_HPA
                0x00000000401383c4                traverseGuestPages
                0x00000000401383d0                allocateNewVMID
                0x00000000401383e0                allocateNewAppID
                0x00000000401383f0                allocateNewApplicationIdentifiers
                0x000000004013842b                protectCurrentApplication
                0x0000000040138461                getMemoryOwnershipTableIndex
                0x000000004013846e                changePageStatus
                0x0000000040138589                closePage
                0x0000000040138629                getMemoryOwnershipTableEntry
                0x0000000040138664                traverseIA32ePages
                0x000000004013889a                traverseIA32ePDPT
                0x0000000040138a36                traverseIA32ePDT
                0x0000000040138b4c                traverseIA32ePT
                0x0000000040138bec                mapHPAintoHVA
                0x0000000040138c13                unmapHPAintoHVA
                0x0000000040138c1e                gpaToHPA
                0x0000000040138db8                test_gpaToHPA
                0x0000000040138df2                test_traverseGuestPages
                0x0000000040138e2f                test_start
                0x0000000040138ec3                test_logicalCPUStatus
                0x0000000040138ef0                core_init
                0x0000000040138faa                core_mm_read_guest_phys
                0x0000000040138fbf                core_mm_write_guest_phys
                0x0000000040138fd4                alloc_handler_descriptor
                0x0000000040138fe4                core_io_modify_handler
                0x00000000401390a2                core_io_unregister_handler
                0x0000000040139129                core_io_handle_default
                0x00000000401393b1                panic_oom
                0x00000000401393c4                core_io_register_handler
                0x00000000401394f8                matched_drhd_u
                0x000000004013954d                parse_dmar_bios_report
                0x0000000040139598                ieee1394_init
                0x00000000401395d0                iommu_setup
                0x00000000401395d6                iodom_init
                0x0000000040139797                add_remap
                0x0000000040139824                create_dom
                0x0000000040139b47                pci_conceal_new_device
                0x0000000040139f05                pci_conceal_config_data_handler
                0x0000000040139f1c                pci_save_config_addr
                0x0000000040139f2e                pci_restore_config_addr
                0x0000000040139f40                pci_append_device
                0x0000000040139f72                pci_config_data_handler
                0x000000004013a29b                pci_config_addr_handler
                0x000000004013a2e3                pci_register_driver
                0x000000004013a382                pci_read_config_data8
                0x000000004013a3c8                pci_read_config_data16
                0x000000004013a40f                pci_read_config_data32
                0x000000004013a455                pci_write_config_data8
                0x000000004013a499                pci_write_config_data16
                0x000000004013a4de                pci_write_config_data32
                0x000000004013a522                pci_read_config_data_port
                0x000000004013a554                pci_write_config_data_port
                0x000000004013a58a                pci_handle_default_config_write
                0x000000004013a5cc                pci_print_device
                0x000000004013a92c                pci_possible_new_device
                0x000000004013a950                security_storage_check_lba
                0x000000004013deca                ahci_new
                0x000000004013e160                ahci_config_read
                0x000000004013e1be                ahci_config_write
                0x000000004013e354                ata_bm_handle_prd_table
                0x000000004013e59d                ata_bm_handle_status
                0x000000004013e65d                ata_bm_handle_command
                0x000000004013e7a0                ata_bm_handler
                0x000000004013e8b8                ata_get_cmd_type
                0x000000004013ee72                ata_handle_queued_status
                0x000000004013f6a7                ata_channel_lock
                0x000000004013f723                ata_channel_unlock
                0x00000000401402ab                ata_ctlblk_handler
                0x00000000401403b3                ata_cmdblk_handler
                0x00000000401404dc                ata_ahci_mode
                0x00000000401409df                ata_init_io_handler
                0x0000000040140a82                ata_set_bm_handler
                0x0000000040140ae7                ata_set_cmdblk_handler
                0x0000000040140b2d                ata_set_ctlblk_handler
                0x0000000040140b75                ata_config_read
                0x0000000040140c37                ata_config_write
                0x0000000040140dd0                ata_init_vendor
                0x0000000040140df7                ata_bm_handle_device_specific
                0x0000000040140ef0                atapi_handle_config_data
                0x0000000040141137                atapi_handle_interrupt_reason
                0x0000000040141190                atapi_handle_pio_identify_packet
                0x000000004014131f                atapi_handle_packet_data
                0x000000004014132a                atapi_handle_cmd_packet
                0x00000000401413a4                packet_handle_through
                0x00000000401413d9                packet_handle_nondata
                0x00000000401413f3                packet_handle_config
                0x000000004014143f                packet_handle_rw
                0x00000000401414c1                packet_handle_invalid
                0x00000000401414db                packet_handle_command
                0x0000000040141510                uhci_init
                0x0000000040141db7                uhci_current_frame_number
                0x0000000040141dd0                dump_td_byvirt
                0x0000000040141f9d                dump_td
                0x000000004014207d                dump_qh
                0x0000000040142245                dump_frame
                0x000000004014234a                uhci_dump_all
                0x000000004014250c                uhci_error_status_string
                0x00000000401427ed                uhci_shadow_buffer
                0x0000000040142a72                uhci_framelist_monitor
                0x00000000401449e0                scan_gframelist
                0x00000000401452b3                uhci_create_urb
                0x000000004014540c                uhci_destroy_urb
                0x0000000040145539                uhci_destroy_unlinked_urbs
                0x00000000401455fb                uhci_deactivate_urb
                0x0000000040145984                uhci_activate_urb
                0x0000000040145ed8                uhci_reactivate_urb
                0x0000000040145f7e                uhci_submit_control
                0x0000000040146582                uhci_submit_interrupt
                0x00000000401465e6                uhci_submit_bulk
                0x000000004014664a                uhci_check_urb_advance
                0x000000004014668f                uhci_check_advance
                0x000000004014689a                init_hframelist
                0x0000000040146b1c                ehci_init
                0x00000000401483a9                ehci_conceal_portroute
                0x00000000401489cd                ehci_dump_qtd
                0x0000000040148a53                ehci_dump_qtdm
                0x0000000040148a88                ehci_dump_alist
                0x0000000040148b4b                ehci_dump_urblist
                0x0000000040148be0                ehci_dump_urb
                0x000000004014909d                ehci_dump_async
                0x000000004014952c                ehci_dump_all
                0x000000004014ab0a                ehci_shadow_buffer
                0x000000004014adc4                get_gurb_by_address
                0x000000004014ae58                shadow_and_activate_urb
                0x000000004014b108                ehci_deactivate_urb
                0x000000004014b2a0                deactivate_and_delete_urb
                0x000000004014b517                ehci_check_urb_advance
                0x000000004014b6e7                ehci_check_advance
                0x000000004014b91b                ehci_shadow_async_list
                0x000000004014ba35                ehci_cleanup_urbs
                0x000000004014bb8a                ehci_end_monitor_async
                0x000000004014bbf3                ehci_monitor_async_list
                0x000000004014c29c                ehci_submit_control
                0x000000004014c815                ehci_submit_bulk
                0x000000004014c820                ehci_submit_interrupt
                0x000000004014e3ea                usbmsc_init_handle
                0x000000004014e7c9                usbhub_init_handle
                0x000000004014e842                hub_portdevice_register
                0x000000004014ef05                usbccid_init_handle
                0x000000004014f030                usb_set_debug
                0x000000004014f03c                usb_init
                0x000000004014f042                usb_find_busses
                0x000000004014f122                usb_get_busses
                0x000000004014f12f                usb_get_bus
                0x000000004014f157                usb_find_devices
                0x000000004014f1a0                usb_open
                0x000000004014f20a                usb_close
                0x000000004014f21a                usb_resetep
                0x000000004014f225                usb_clear_halt
                0x000000004014f230                usb_reset
                0x000000004014f23b                usb_claim_interface
                0x000000004014f249                usb_release_interface
                0x000000004014f25b                usb_set_configuration
                0x000000004014f506                usb_set_altinterface
                0x000000004014f7b3                usb_control_msg
                0x000000004014fb0f                usb_get_string
                0x000000004014fe5c                usb_get_string_simple
                0x0000000040150051                usb_get_descriptor
                0x00000000401503a1                usb_get_descriptor_early
                0x00000000401506fc                usb_get_descriptor_by_endpoint
                0x0000000040150a4e                usb_bulk_write
                0x0000000040150ca4                usb_interrupt_write
                0x0000000040150efa                usb_bulk_read
                0x00000000401511d5                usb_interrupt_read
                0x00000000401514b0                usb_register_host
                0x00000000401515c2                usb_unregister_devices
                0x00000000401515f4                usb_sc_lock
                0x000000004015166c                usb_sc_unlock
                0x0000000040151993                free_config_descriptors
                0x000000004015239c                free_device
                0x000000004015250a                handle_connect_status
                0x000000004015261e                handle_port_reset
                0x00000000401526ff                dprintf_port
                0x00000000401531d1                usb_init_device_monitor
                0x000000004015323b                usb_new_dev_handle
                0x00000000401532d4                usbhid_init_handle
                0x0000000040153410                usb_hook_process
                0x00000000401536fb                usb_hook_register
                0x00000000401537df                usb_hook_unregister
                0x0000000040153860                _dprintf
                0x00000000401538ad                _dprintft
                0x0000000040153968                pro100_io_handler
                0x0000000040153973                pro100_init
                0x000000004015398c                pro100_config_write
                0x0000000040153ad1                pro100_config_read
                0x0000000040153c1a                pro100_init_vpn_client
                0x0000000040153c59                pro100_sleep
                0x0000000040153c97                pro100_beep
                0x0000000040153ccf                pro100_get_ctx
                0x0000000040153d72                pro100_alloc_page
                0x0000000040153dac                pro100_free_page
                0x0000000040153dd1                pro100_get_op_size
                0x0000000040153e14                pro100_mem_read
                0x0000000040153e43                pro100_read_send_packet
                0x0000000040154055                pro100_mem_write
                0x000000004015407e                pro100_write
                0x00000000401540ad                pro100_read
                0x00000000401540ea                pro100_flush
                0x0000000040154104                pro100_wait_cu_ru_accepable
                0x000000004015413f                pro100_init_ru_base_addr
                0x000000004015419f                pro100_init_cu_base_addr
                0x00000000401541ff                pro100_send_packet_to_line
                0x0000000040154353                pro100_exec_cu_op
                0x00000000401544ac                pro100_generate_int
                0x00000000401544db                pro100_proc_guest_op
                0x00000000401546d6                pro100_write_recv_packet
                0x000000004015486a                pro100_get_int_bit_string
                0x00000000401548e2                pro100_get_stat_ack_string
                0x000000004015494f                pro100_get_cu_command_string
                0x00000000401549d1                pro100_get_ru_command_string
                0x0000000040154a1b                pro100_init_recv_buffer
                0x0000000040154b52                pro100_alloc_recv_buffer
                0x0000000040154bc1                pro100_new
                0x0000000040154c8e                pro100_poll_ru
                0x0000000040154d87                pro100_hook_read
                0x0000000040154f46                pro100_hook_write
                0x000000004015521c                pro100_mm_handler
                0x00000000401575a3                storage_premap_buf
                0x00000000401575ae                storage_premap_handle_sectors
                0x0000000040157902                storage_get_num_hc
                0x0000000040157934                storage_hc_open
                0x0000000040157a14                storage_hc_close
                0x0000000040157a5e                storage_hc_hook_register
                0x0000000040157ae3                storage_hc_hook_unregister
                0x0000000040157b7d                storage_hc_register
                0x0000000040157d48                storage_hc_unregister
                0x0000000040157e4d                storage_hc_scandev
                0x0000000040157e91                storage_hc_dev_open
                0x0000000040157fcf                storage_hc_dev_atacommand
                0x00000000401581a2                storage_hc_dev_close
                0x000000004015826a                storage_io_init
                0x000000004015827f                storage_io_deinit
                0x000000004015828a                storage_io_get_num_devices
                0x0000000040158348                storage_io_aget_size
                0x00000000401584af                storage_io_aread
                0x00000000401586cb                storage_io_awrite
                0x0000000040158e42                storage_handle_sectors
                0x000000004015908b                storage_new
                0x00000000401592d2                storage_free
                0x00000000401594d1                storage_init
                0x0000000040159705                aes_xts_init
                0x0000000040159738                crypto_find
                0x000000004015978b                crypto_register
                0x00000000401597db                crypto_init
                0x0000000040159832                crypto_none_init
                0x000000004015986a                vpn_GetCurrentCpuId
                0x0000000040159875                vpn_GetTickCount
                0x00000000401598a5                vpn_NewTimer
                0x00000000401598bf                vpn_SetTimer
                0x00000000401598d3                vpn_FreeTimer
                0x00000000401598de                vpn_GetPhysicalNicInfo
                0x00000000401598ed                vpn_SendPhysicalNic
                0x00000000401598fc                vpn_SetPhysicalNicRecvCallback
                0x000000004015990b                vpn_GetVirtualNicInfo
                0x000000004015991b                vpn_SendVirtualNic
                0x000000004015992b                vpn_SetVirtualNicRecvCallback
                0x000000004015993b                vpn_premap_PhysicalNicRecv
                0x0000000040159954                vpn_premap_VirtualNicRecv
                0x000000004015996d                vpn_premap_recvbuf
                0x0000000040159978                vpn_ic_rsa_sign
                0x0000000040159a1f                vpn_new_nic
                0x000000004015a041                msg_vpn_GetCurrentCpuId
                0x000000004015a05b                msg_vpn_ic_rsa_sign
                0x000000004015a107                msg_vpn_GetTickCount
                0x000000004015a145                msg_vpn_GetPhysicalNicInfo
                0x000000004015a1a9                msg_vpn_SendPhysicalNic
                0x000000004015a263                msg_vpn_SetPhysicalNicRecvCallback
                0x000000004015a2af                msg_vpn_GetVirtualNicInfo
                0x000000004015a313                msg_vpn_SendVirtualNic
                0x000000004015a3cd                msg_vpn_SetVirtualNicRecvCallback
                0x000000004015a419                msg_vpn_NewTimer
                0x000000004015a489                msg_vpn_SetTimer
                0x000000004015a55c                msg_vpn_FreeTimer
                0x000000004015a5c2                vpn_start
                0x000000004015a94c                vpn_user_init
                0x000000004015a9b0                SeFreeConfigEntryList
                0x000000004015aa0e                SeGetConfigEntry
                0x000000004015aa7f                SeGetConfigStr
                0x000000004015aaac                SeGetConfigBool
                0x000000004015ab58                SeGetConfigInt
                0x000000004015ab7c                SeGetConfigInt64
                0x000000004015aba0                SeGetConfigBin
                0x000000004015abc4                SeIsSplitChar
                0x000000004015ac37                SeGetKeyAndValue
                0x000000004015adc7                SeLoadConfigEntryListFromBuf
                0x000000004015af3f                SeLoadConfigEntryList
                0x000000004015af90                SePKeyPasswordCallbackFunction
                0x000000004015afbd                SeDhFree
                0x000000004015aff7                SeRsaVerifyWithPadding
                0x000000004015b0d1                SeRsaSignWithPadding
                0x000000004015b195                SeRsaPublicDecrypt
                0x000000004015b23e                SeRsaPrivateEncrypt
                0x000000004015b2e7                SeRsaPrivateDecrypt
                0x000000004015b388                SeRsaPublicEncrypt
                0x000000004015b429                SeGetCertSha1
                0x000000004015b471                SeGetCertMd5
                0x000000004015b4b9                SeBinToBigNum
                0x000000004015b504                SeBufToBigNum
                0x000000004015b51f                SeDhCompute
                0x000000004015b5ab                SeBigNumToBuf
                0x000000004015b644                SeRsaPublicSize
                0x000000004015b68f                SeRsaPublicToBin
                0x000000004015b6f3                SeRsaPublicToBuf
                0x000000004015b737                SeDhNew
                0x000000004015b80d                SeDhNewGroup2
                0x000000004015b822                SeCheckSignature
                0x000000004015b84c                SeGetKeyFromCert
                0x000000004015b888                SeCompareCert
                0x000000004015b8b2                SeCheckCertAndKey
                0x000000004015b8dc                SeIsBase64
                0x000000004015b99d                SeFreePKey
                0x000000004015b9ad                SeFreeKey
                0x000000004015b9d5                SeIsCertSignedByCert
                0x000000004015ba45                SeCheckCert
                0x000000004015baab                SeBioToKey
                0x000000004015bbb9                SeGetCertIssuerName
                0x000000004015bc45                SeGetCertSubjectName
                0x000000004015bccf                SeFreeX509
                0x000000004015bcdf                SeFreeCert
                0x000000004015bd0d                SeFreeBio
                0x000000004015bd1d                SeNewBio
                0x000000004015bd30                SeCertToBio
                0x000000004015bd91                SeKeyToBio
                0x000000004015be8d                SeRsaGen
                0x000000004015bff8                SeBioToBuf
                0x000000004015c099                SeCertToBuf
                0x000000004015c0e4                SeSaveCert
                0x000000004015c145                SeKeyToBuf
                0x000000004015c190                SeSaveKey
                0x000000004015c1f4                SeX509ToCert
                0x000000004015c2ac                SeBioToCert
                0x000000004015c2f7                SeBigNumToStr
                0x000000004015c363                SeBufToBio
                0x000000004015c3bc                SeBufToKey
                0x000000004015c428                SeLoadKey
                0x000000004015c4d3                SeCloneKey
                0x000000004015c53d                SeBufToCert
                0x000000004015c592                SeLoadCert
                0x000000004015c5df                SeCloneCert
                0x000000004015c630                SeSha1
                0x000000004015c650                SeHashForSignBySHA1
                0x000000004015c6fa                SeRsaSignWithSha1
                0x000000004015c79d                SeRsaVerifyWithSha1
                0x000000004015c83f                SeMacSha1
                0x000000004015c996                SeMacSha196
                0x000000004015c9dd                SeMd5
                0x000000004015c9fd                SeDes3Encrypt
                0x000000004015ca95                SeDes3Decrypt
                0x000000004015cb2f                SeDesNewKeyValue
                0x000000004015cb81                SeDes3NewKey
                0x000000004015cc02                SeDesNewKey
                0x000000004015cc13                SeDesRandKeyValue
                0x000000004015cc2f                SeDesRandKey
                0x000000004015cc79                SeDes3RandKey
                0x000000004015ccc2                SeDesFreeKeyValue
                0x000000004015ccea                SeDes3FreeKey
                0x000000004015cd24                SeDesFreeKey
                0x000000004015cd2f                SeRand
                0x000000004015cd43                SeRand64
                0x000000004015cd5f                SeRand32
                0x000000004015cd7a                SeRand16
                0x000000004015cd96                SeRand8
                0x000000004015cdb2                SeRand1
                0x000000004015cdc5                SeInitCrypto
                0x000000004015ce08                SeFreeCrypto
                0x000000004015ce20                SeIkeStrToPassword
                0x000000004015ce8d                SeIkePhase1CryptIdToKeySize
                0x000000004015ceac                SeIkePhase2CryptIdToKeySize
                0x000000004015cecb                SeIkeStrToPhase1CryptId
                0x000000004015cf31                SeIkeStrToPhase1HashId
                0x000000004015cf70                SeIkeStrToPhase2CryptId
                0x000000004015cfdb                SeIkeStrToPhase2HashId
                0x000000004015d01a                SeIkeIsZeroIP
                0x000000004015d048                SeIkeInitIPv6Address
                0x000000004015d095                SeIkeInitIPv4Address
                0x000000004015d0d8                SeIkeGetIPv6Address
                0x000000004015d112                SeIkeGetIPv4Address
                0x000000004015d12b                SeIkeIpAddressToStr
                0x000000004015d185                SeIkeBuildDataPayload
                0x000000004015d1ce                SeIkeBuildTransformValue
                0x000000004015d288                SeIkeBuildTransformValueList
                0x000000004015d2f0                SeIkeBuildTransformPayload
                0x000000004015d36d                SeIkeBuildIdPayload
                0x000000004015d3e4                SeIkeBuildCertPayload
                0x000000004015d447                SeIkeBuildCertRequestPayload
                0x000000004015d4aa                SeIkeBuildNoticePayload
                0x000000004015d537                SeIkeBuildDeletePayload
                0x000000004015d607                SeIkeGetFirstPayloadType
                0x000000004015d626                SeIkeBuildPayloadList
                0x000000004015d731                SeIkeBuildProposalPayload
                0x000000004015d7dc                SeIkeBuildSaPayload
                0x000000004015d865                SeIkeBuildPayload
                0x000000004015d93e                SeIkeGetPayload
                0x000000004015d98c                SeIkeGetPayloadNum
                0x000000004015d9c8                SeIkeNewPayload
                0x000000004015d9e6                SeIkeNewDataPayload
                0x000000004015da36                SeIkeNewSaPayload
                0x000000004015da61                SeIkeNewProposalPayload
                0x000000004015daeb                SeIkeNewTransformPayload
                0x000000004015db36                SeIkeNewIdPayload
                0x000000004015dbb6                SeIkeNewCertPayload
                0x000000004015dc1a                SeIkeNewCertRequestPayload
                0x000000004015dc7e                SeIkeNewNoticePayload
                0x000000004015dd1a                SeIkeNewDeletePayload
                0x000000004015dd56                SeIkeNewTransformValue
                0x000000004015dd85                SeIkeFreeTransformValueList
                0x000000004015ddc1                SeIkeParseTransformValueList
                0x000000004015df2d                SeIkeParseTransformPayload
                0x000000004015df99                SeIkeFreeTransformPayload
                0x000000004015dfc7                SeIkeParseIdPayload
                0x000000004015e044                SeIkeFreeIdPayload
                0x000000004015e072                SeIkeParseCertPayload
                0x000000004015e0db                SeIkeFreeCertPayload
                0x000000004015e109                SeIkeParseCertRequestPayload
                0x000000004015e172                SeIkeFreeCertRequestPayload
                0x000000004015e1a0                SeIkeParseNoticePayload
                0x000000004015e264                SeIkeFreeNoticePayload
                0x000000004015e2a8                SeIkeFreeDeletePayload
                0x000000004015e307                SeIkeParseDeletePayload
                0x000000004015e415                SeIkeParseDataPayload
                0x000000004015e44f                SeIkeFreeDataPayload
                0x000000004015e462                SeIkeFreePayloadList
                0x000000004015e49e                SeIkeParsePayloadListEx
                0x000000004015e621                SeIkeParsePayloadList
                0x000000004015e634                SeIkeParseProposalPayload
                0x000000004015e6e4                SeIkeParseSaPayload
                0x000000004015e7b1                SeIkeParsePayload
                0x000000004015e8b1                SeIkeFreeProposalPayload
                0x000000004015e8f5                SeIkeFreeSaPayload
                0x000000004015e921                SeIkeFreePayload
                0x000000004015e9c8                SeIkeEncrypt
                0x000000004015ea83                SeIkeEncryptWithPadding
                0x000000004015eb33                SeIkeBuild
                0x000000004015ec8c                SeIkeDecrypt
                0x000000004015ed47                SeIkeFree
                0x000000004015ed83                SeIkeParseEx
                0x000000004015ef6b                SeIkeParse
                0x000000004015ef7b                SeIkeParseHeader
                0x000000004015ef8b                SeIkeNew
                0x000000004015f010                VPN_IPsec_Client_Start
                0x000000004015f036                VPN_IPsec_Client_Stop
                0x000000004015f046                SeIntInit
                0x000000004015f069                SeIntFree
                0x000000004015f083                VPN_IPsec_Init
                0x000000004015f0df                VPN_IPsec_Free
                0x000000004015f111                SeSysMemoryAlloc
                0x000000004015f12d                SeSysMemoryReAlloc
                0x000000004015f156                SeSysMemoryFree
                0x000000004015f16e                SeSysGetCurrentCpuId
                0x000000004015f186                SeSysNewLock
                0x000000004015f19e                SeSysLock
                0x000000004015f1b6                SeSysUnlock
                0x000000004015f1ce                SeSysFreeLock
                0x000000004015f1e6                SeSysGetTickCount
                0x000000004015f1fe                SeSysNewTimer
                0x000000004015f222                SeSysSetTimer
                0x000000004015f23a                SeSysFreeTimer
                0x000000004015f252                SeSysGetPhysicalNicInfo
                0x000000004015f26f                SeSysSendPhysicalNic
                0x000000004015f295                SeSysSetPhysicalNicRecvCallback
                0x000000004015f2b7                SeSysGetVirtualNicInfo
                0x000000004015f2d4                SeSysSendVirtualNic
                0x000000004015f2fd                SeSysSetVirtualNicRecvCallback
                0x000000004015f322                SeSysSaveData
                0x000000004015f349                SeSysLoadData
                0x000000004015f370                SeSysFreeData
                0x000000004015f38b                SeSysRsaSign
                0x000000004015f3c3                SeSysLog
                0x000000004015f3f1                SeRsaSign
                0x000000004015f490                Se4ParseIpPacketUDPv4
                0x000000004015f58b                Se4FreeIpHeaderInfo
                0x000000004015f5bf                Se4IpChecksum
                0x000000004015f632                Se4IpCheckChecksum
                0x000000004015f681                Se4ParseIpPacketICMPv4
                0x000000004015f7b0                Se4BuildIcmpEchoPacket
                0x000000004015f86c                Se4AdjustTcpMss
                0x000000004015fa11                Se4Tick
                0x000000004015fa29                Se4BroadcastMacAddress
                0x000000004015fa34                Se4SendEthPacket
                0x000000004015fb0b                Se4SendIpFragmentNow
                0x000000004015fb34                Se4InitArpEntryList
                0x000000004015fb44                Se4FreeArpEntryList
                0x000000004015fb80                Se4FlushArpEntryList
                0x000000004015fc2d                Se4SearchArpEntryList
                0x000000004015fcb9                Se4AddArpEntryList
                0x000000004015fda6                Se4SearchArpWaitList
                0x000000004015fdee                Se4InitArpWaitList
                0x000000004015fdfe                Se4FreeArpWaitList
                0x000000004015fe3a                Se4InsertIpWait
                0x000000004015febc                Se4InitIpWaitList
                0x000000004015fecc                Se4FreeIpWait
                0x000000004015fef5                Se4FlushIpWaitList
                0x000000004015ffb7                Se4FreeIpWaitList
                0x000000004015fff3                Se4InitIpCombineList
                0x0000000040160003                Se4SearchIpCombineList
                0x0000000040160079                Se4InitIpFragmentList
                0x0000000040160089                Se4InsertIpCombine
                0x0000000040160188                Se4FreeIpFragmentList
                0x00000000401601c4                Se4FreeIpCombine
                0x00000000401601fc                Se4FlushIpCombineList
                0x00000000401602e5                Se4FreeIpCombineList
                0x0000000040160333                Se4Free
                0x0000000040160377                Se4And
                0x00000000401603a6                Se4GetNetworkAddress
                0x00000000401603b1                Se4Or
                0x00000000401603e0                Se4Not
                0x000000004016040a                Se4GetBroadcastAddress
                0x000000004016044f                Se4GetHostAddress
                0x0000000040160469                Se4GenerateSubnetMask32
                0x000000004016048a                Se4IPToStr
                0x00000000401604cd                Se4ZeroIP
                0x00000000401604e8                Se4StrToIP
                0x0000000040160589                Se4IPToUINT
                0x00000000401605ab                Se4StrToIP32
                0x00000000401605bd                Se4IsZeroIP
                0x00000000401605d0                Se4Init
                0x00000000401606e6                Se4Cmp
                0x000000004016071f                Se4CheckUnicastAddress
                0x0000000040160770                Se4IsInSameNetwork
                0x00000000401607bf                Se4CmpIpCombineList
                0x000000004016085d                Se4SendWaitingIpWait
                0x000000004016093e                Se4MacIpRelationKnown
                0x00000000401609ea                Se4CmpArpWaitEntry
                0x0000000040160a21                Se4CmpArpEntry
                0x0000000040160a58                Se4ParseIpPacket
                0x0000000040160bae                Se4IsBroadcastAddress
                0x0000000040160bc2                Se4SendArpResponse
                0x0000000040160ca9                Se4SendArpDoProcess
                0x0000000040160daf                Se4ProcessArpWaitList
                0x0000000040160e63                Se4MainProc
                0x0000000040160e94                Se4SendArpRequest
                0x0000000040160f09                Se4UINTToIP
                0x0000000040160f2b                Se4IPToStr32
                0x0000000040160f4f                Se4GenerateSubnetMask
                0x0000000040160f61                Se4IsSubnetMask
                0x0000000040160f9e                Se4RecvArpResponse
                0x0000000040160fe3                Se4RecvArpRequest
                0x000000004016110d                Se4RecvArp
                0x00000000401611ca                Se4SendRawIp
                0x000000004016132d                Se4SendIpFragment
                0x0000000040161460                Se4SendIp
                0x0000000040161542                Se4SendUdp
                0x0000000040161674                Se4SendIcmp
                0x000000004016172d                Se4SendIcmpEchoResponse
                0x00000000401617c2                Se4RecvIpComplete
                0x000000004016188f                Se4CombineIp
                0x0000000040161a8d                Se4SendIcmpEchoRequest
                0x0000000040161b22                Se4RecvIp
                0x0000000040161dbc                Se4RecvEthPacket
                0x0000000040161e50                Se6FreeIpHeaderInfo
                0x0000000040161e84                Se6IpChecksum
                0x0000000040161ef7                Se6CalcChecksum
                0x0000000040161fb8                Se6ParseIpPacketICMPv6
                0x00000000401621f6                Se6ParseIpPacketUDPv6
                0x0000000040162345                Se6BuildIcmpEchoPacket
                0x000000004016242e                Se6BroadcastMacAddress
                0x0000000040162439                Se6SendEthPacket
                0x0000000040162510                Se6SendIpFragmentNow
                0x0000000040162539                Se6InitNeighborEntryList
                0x0000000040162549                Se6FreeNeighborEntryList
                0x0000000040162585                Se6FlushNeighborEntryList
                0x0000000040162632                Se6SearchNeighborEntryList
                0x0000000040162689                Se6AddNeighborEntryList
                0x0000000040162773                Se6SearchNdpWaitList
                0x00000000401627c2                Se6InitNdpWaitList
                0x00000000401627d2                Se6FreeNdpWaitList
                0x000000004016280e                Se6InsertIpWait
                0x000000004016289d                Se6InitIpWaitList
                0x00000000401628ad                Se6FreeIpWait
                0x00000000401628d6                Se6FreeIpWaitList
                0x0000000040162912                Se6InitIpCombineList
                0x0000000040162922                Se6SearchIpCombineList
                0x00000000401629c6                Se6InitIpFragmentList
                0x00000000401629d6                Se6FreeIpFragmentList
                0x0000000040162a12                Se6FreeIpCombine
                0x0000000040162a4d                Se6FreeIpCombineList
                0x0000000040162a9b                Se6Free
                0x0000000040162aeb                Se6Tick
                0x0000000040162b03                Se6InsertIpCombine
                0x0000000040162c3a                Se6FlushIpCombineList
                0x0000000040162d26                Se6FlushIpWaitList
                0x0000000040162dee                Se6GenerateEui64Address
                0x0000000040162e4f                Se6GenerateMulticastMacAddress
                0x0000000040162e85                Se6GetAllNodeMulticastAddr
                0x0000000040162eb1                Se6GetAllRouterMulticastAddr
                0x0000000040162edd                Se6And
                0x0000000040162f1b                Se6GetPrefixAddress
                0x0000000040162f2a                Se6Or
                0x0000000040162f68                Se6Not
                0x0000000040162f9c                Se6GetHostAddress
                0x0000000040162fd8                Se6GenerateSubnetMask
                0x000000004016303d                Se6GetSoliciationMulticastAddr
                0x00000000401630ee                Se6LocalSubnet
                0x0000000040163102                Se6Cmp
                0x000000004016312e                Se6GetIPAddrType
                0x000000004016323c                Se6IsInSameNetwork
                0x0000000040163303                Se6SendRawIp
                0x0000000040163475                Se6SendIpFragment
                0x0000000040163491                Se6SendIp
                0x000000004016360e                Se6SendUdp
                0x000000004016373a                Se6SendIcmp
                0x0000000040163836                Se6SendIcmpNeighborSoliciation
                0x00000000401639ac                Se6SendNeighborSoliciationDoProcess
                0x0000000040163a66                Se6SendNeighborSoliciation
                0x0000000040163aee                Se6ProcessNdpWaitList
                0x0000000040163ba8                Se6SendIcmpNeighborAdvertisement
                0x0000000040163cec                Se6SendIcmpEchoResponse
                0x0000000040163db1                Se6SendIcmpEchoRequest
                0x0000000040163e76                Se6IsSubnetMask
                0x0000000040163ed8                Se6SubnetMaskToInt
                0x0000000040163f32                Se6SendIcmpRouterAdvertisement
                0x000000004016410a                Se6MainProc
                0x0000000040164164                Se6CmpIpCombineList
                0x00000000401641f5                Se6SendWaitingIpWait
                0x00000000401642ec                Se6MacIpRelationKnown
                0x000000004016440e                Se6CmpNdpWaitEntry
                0x000000004016444f                Se6CmpNeighborEntry
                0x0000000040164490                Se6ParseIpPacket
                0x0000000040164632                Se6IsZeroIP
                0x0000000040164652                Se6CheckUnicastAddress
                0x0000000040164686                Se6IsNetworkPrefixAddress
                0x00000000401646c8                Se6IsGuestNode
                0x000000004016476c                Se6AddGuestNode
                0x0000000040164840                Se6RecvIpComplete
                0x0000000040164af7                Se6CombineIp
                0x0000000040164d0d                Se6RecvIp
                0x0000000040164f4a                Se6RecvEthPacket
                0x0000000040164fbc                Se6IPToStr
                0x000000004016511a                Se6IPItemStrToChars
                0x00000000401651fa                Se6CheckIPItemStr
                0x0000000040165263                Se6ZeroIP
                0x0000000040165283                Se6StrToIP
                0x000000004016544f                Se6GenerateEui64LocalAddress
                0x00000000401654c2                Se6Init
                0x0000000040165621                Se6GenerateEui64GlobalAddress
                0x0000000040165722                Se6CheckSubnetLength
                0x0000000040165740                SeTimerEntryCompare
                0x0000000040165780                SeEthGetInfo
                0x00000000401657a4                SeEthSendAdd
                0x00000000401657d7                SeEthParseEthernetPacket
                0x00000000401658d8                SeEthGenRandMacAddress
                0x000000004016592a                SeLoad
                0x000000004016598f                SeSave
                0x00000000401659ab                SeTick
                0x00000000401659bb                SeGetCurrentCpuId
                0x00000000401659cb                SeNewLock
                0x0000000040165a06                SeEthNew
                0x0000000040165b1c                SeTimerNew
                0x0000000040165b92                SeLock
                0x0000000040165bdc                SeUnlock
                0x0000000040165c03                SeTick64Internal
                0x0000000040165c59                SeTick64
                0x0000000040165c78                SeInitKernel
                0x0000000040165cb2                SeEthGetNextRecvPacket
                0x0000000040165cfb                SeEthDeleteOldSenderMacList
                0x0000000040165dcf                SeEthIsSenderMacAddressExistsInList
                0x0000000040165e76                SeEthNicCallback
                0x0000000040165f77                SeEthAddSenderMacList
                0x0000000040166071                SeEthSend
                0x00000000401660f7                SeEthSendAll
                0x00000000401661c8                SeTimerAdjust
                0x000000004016624e                SeTimerSet
                0x00000000401662d4                SeTimerCallback
                0x00000000401663e4                SeDeleteLock
                0x000000004016640c                SeEthFree
                0x00000000401664b5                SeTimerFree
                0x000000004016650f                SeFreeKernel
                0x0000000040166525                SeLogArgs
                0x0000000040166563                SeWarning
                0x00000000401665a9                SeError
                0x00000000401665ef                SeInfo
                0x0000000040166635                SeFatal
                0x000000004016667b                SeDebug
                0x00000000401666c1                SeDebugBin
                0x000000004016672f                SeLog
                0x0000000040166770                SeB64CodeToChar
                0x00000000401667b6                SeB64CharToCode
                0x00000000401667fd                SeIsZero
                0x0000000040166846                SeReplaceListPointer
                0x00000000401668a2                SeIsInListStr
                0x0000000040166913                SeIsInList
                0x000000004016695e                SeCompareStr
                0x0000000040166980                SeSetSortFlag
                0x000000004016698e                SeSetCmp
                0x00000000401669af                SeFastSwap
                0x00000000401669e3                SeQSort
                0x0000000040166cfb                SeSort
                0x0000000040166d33                SeBSearch
                0x0000000040166e02                SeSearch
                0x0000000040166e6a                SeFifoSize
                0x0000000040166e7d                SeDumpBuf
                0x0000000040166ea5                SeSeekBuf
                0x0000000040166edb                SeClearBuf
                0x0000000040166ef4                SeSwap16
                0x0000000040166f0f                SeSwap32
                0x0000000040166f39                SeSwap64
                0x0000000040166f90                SeMalloc
                0x0000000040166fd2                SeNewBuf
                0x0000000040167014                SeNewFifo
                0x0000000040167056                SeReAlloc
                0x00000000401670c7                SeAdjustBufSize
                0x00000000401670fc                SeClearFifo
                0x0000000040167139                SeAdd
                0x00000000401671a3                SeInsert
                0x00000000401672d1                SeInsertStr
                0x0000000040167324                SeDelete
                0x00000000401673df                SeDeleteAll
                0x0000000040167416                SePop
                0x000000004016747d                SePush
                0x00000000401674e0                SeMemSize
                0x0000000040167512                SeFree
                0x0000000040167541                SeFreeBuf
                0x0000000040167569                SeFreeBufWithoutBuffer
                0x0000000040167579                SeFreeFifo
                0x00000000401675a1                SeFreeList
                0x00000000401675ca                SeFreeQueue
                0x00000000401675f3                SeFreeStack
                0x000000004016761c                SeIsLittleEndian
                0x000000004016762f                SeEndian16
                0x0000000040167653                SeEndian32
                0x0000000040167676                SeEndian64
                0x000000004016769d                SeIsBigEndian
                0x00000000401676b5                SeCmp
                0x0000000040167724                SeCmpEx
                0x0000000040167759                SeCmpBuf
                0x000000004016779a                SeCopy
                0x00000000401677c2                SeClone
                0x000000004016780f                SeSwap
                0x0000000040167869                SeWriteBuf
                0x00000000401678e0                SeMemToBuf
                0x0000000040167946                SeRandBuf
                0x000000004016798c                SeCloneBuf
                0x00000000401679a7                SeWriteBufLine
                0x00000000401679ff                SeWriteBufBuf
                0x0000000040167a1a                SeWriteBufInt
                0x0000000040167a5a                SeWriteBufInt64
                0x0000000040167a9d                SeWriteBufStr
                0x0000000040167b0b                SeAddBufStr
                0x0000000040167b4a                SeReadDump
                0x0000000040167baf                SePeekFifo
                0x0000000040167bed                SePeekNext
                0x0000000040167c2b                SeReadFifo
                0x0000000040167d18                SeGetNext
                0x0000000040167d62                SeGetNextInt
                0x0000000040167d98                SeWriteFifo
                0x0000000040167e2c                SeInsertQueue
                0x0000000040167e62                SeInsertQueueInt
                0x0000000040167e96                SeCopyToArray
                0x0000000040167eba                SeToArray
                0x0000000040167eff                SeZero
                0x0000000040167f21                SeZeroMalloc
                0x0000000040167f59                SeNewList
                0x0000000040167fac                SeCloneList
                0x0000000040167ffa                SeNewQueue
                0x000000004016802e                SeNewStack
                0x0000000040168069                SeB64Decode
                0x0000000040168238                SeB64Encode
                0x00000000401683f1                SeReadBuf
                0x000000004016848b                SeReadBufFromBuf
                0x0000000040168527                SeReadRemainBuf
                0x000000004016854f                SeReadBufInt
                0x0000000040168584                SeReadBufInt64
                0x00000000401685bc                SeReadBufStr
                0x0000000040168670                SeBuildICMPv6OptionValue
                0x00000000401686ff                SeBuildICMPv6Options
                0x00000000401687aa                SeParseICMPv6Options
                0x0000000040168883                SeFreePacketList
                0x00000000401688bf                SeFreePacketListWithoutBuffer
                0x00000000401688fb                SeGetNextHeaderFromQueue
                0x0000000040168927                SeBuildAndAddIPv6PacketOptionHeader
                0x00000000401689c4                SeBuildIPv6Packet
                0x0000000040168ba9                SeBuildIPv6PacketWithFragment
                0x0000000040168d65                SeParseIPv6ExtHeader
                0x0000000040168e52                SeParseIPv6Packet
                0x0000000040168ecd                SeParsePacketL3IPv6
                0x0000000040168f0e                SeParsePacketL3IPv4
                0x0000000040168fc7                SeParsePacketL3ARPv4
                0x0000000040168ff1                SeParsePacketL2
                0x0000000040169093                SeFreePacket
                0x00000000401690a3                SeParsePacket
                0x0000000040169140                SeSecCmpIkeSa
                0x0000000040169218                SeSecCalcP2Iv
                0x00000000401692cc                SeSecCalcP1Iv
                0x0000000040169379                SeSecCalcKEYMATFull
                0x0000000040169483                SeSecCalcKEYMAT
                0x000000004016954a                SeSecCalcKa
                0x000000004016961f                SeSecCalcP1KeySet
                0x0000000040169836                SeSecForceReconnect
                0x000000004016986f                SeSecLifeSeconds64bit
                0x000000004016988f                SeSecGetIPsecSa
                0x00000000401698db                SeSecNewIkeSa
                0x000000004016998c                SeSecFreeP1KeySet
                0x00000000401699da                SeSecGenIkeSaMessageId
                0x0000000040169a49                SeSecGenIkeSaInitCookie
                0x0000000040169ab8                SeSecInitSaList
                0x0000000040169af2                SeSecSearchIPsecSaBySpi
                0x0000000040169b81                SeSecSearchIkeSaBySpi
                0x0000000040169c4c                SeSecSearchIkeSa
                0x0000000040169d18                SeSecNewSpi
                0x0000000040169d2f                SeSecGenIPsecSASpi
                0x0000000040169d9e                SeSecStrToAuthMethod
                0x0000000040169e09                SeSecTick
                0x0000000040169e23                SeSecCheckIPsecSaExpires
                0x0000000040169ee6                SeSecCheckIkeSaExpires
                0x0000000040169fa5                SeSecSetTimerCallback
                0x0000000040169fc5                SeSecAddTimer
                0x0000000040169fe5                SeSecDoInterval
                0x000000004016a056                SeSecNewIPsecSa
                0x000000004016a1c3                SeSecSetRecvUdpCallback
                0x000000004016a1e3                SeSecSetRecvEspCallback
                0x000000004016a203                SeSecSetRecvVirtualIpCallback
                0x000000004016a223                SeSecSendUdp
                0x000000004016a26c                SeSecProcessIkeSaMsgPhase1
                0x000000004016ab75                SeSecSendIkeSaMsgPhase2
                0x000000004016b097                SeSecSendIkeSaMsgPhase2FinalHash
                0x000000004016b237                SeSecProcessIkeSaMsgPhase2
                0x000000004016b696                SeSecSendIkeSaMsgInfo
                0x000000004016b8fe                SeSecSendIkeSaMsgInfoSimple
                0x000000004016b966                SeSecSendIPsecSaDeleteMsg
                0x000000004016b9ea                SeSecFreeIPsecSa
                0x000000004016ba6a                SeSecDeleteExpiredIPsecSa
                0x000000004016bb10                SeSecProcessIkeSaMsgInfo
                0x000000004016be35                SeSecProcessIkeSaMsg
                0x000000004016be89                SeSecUdpRecvCallback
                0x000000004016c0f5                SeSecSendIkeSaDeleteMsg
                0x000000004016c192                SeSecFreeIkeSa
                0x000000004016c34b                SeSecFreeSaList
                0x000000004016c3c4                SeSecFreeMain
                0x000000004016c3d4                SeSecFree
                0x000000004016c403                SeSecDeleteExpiredIkeSa
                0x000000004016c566                SeSecStartVpnConnect
                0x000000004016cb9a                SeSecProcessMain
                0x000000004016cc8c                SeSecTimerCallback
                0x000000004016cc9f                SeSecInitMain
                0x000000004016ccc4                SeSecInit
                0x000000004016cdf8                SeSecSendEsp
                0x000000004016ce31                SeSecVirtualIpRecvCallback
                0x000000004016d03a                SeSecSendVirtualIp
                0x000000004016d062                SeSecEspRecvCallback
                0x000000004016d210                SeMakeCharArray
                0x000000004016d244                SeFreeToken
                0x000000004016d292                SeNullTokenList
                0x000000004016d2c6                SeDefaultTokenSplitChars
                0x000000004016d2d1                Se4BitToHex
                0x000000004016d2e6                SeHexTo4Bit
                0x000000004016d322                SeStrCmp
                0x000000004016d3b6                SeStrnCmp
                0x000000004016d483                SeToUpper
                0x000000004016d497                SeStrnCmpi
                0x000000004016d562                SeStrCmpi
                0x000000004016d612                SeToLower
                0x000000004016d626                SeStrCheckLen
                0x000000004016d662                SeStrCheckSize
                0x000000004016d680                SeStrLen
                0x000000004016d6a7                SeStrSize
                0x000000004016d6bf                SeStrCpy
                0x000000004016d78a                SeStrCat
                0x000000004016d82c                SeStrUpper
                0x000000004016d86c                SeStrLower
                0x000000004016d8ac                SeToInt64
                0x000000004016d902                SeToInt
                0x000000004016d950                SeToStr64
                0x000000004016da17                SeToStr
                0x000000004016dad1                SeToHex
                0x000000004016db85                SeToHex64
                0x000000004016dc39                SeHexToInt
                0x000000004016dcc1                SeHexToInt64
                0x000000004016dd4b                SeTrimLeft
                0x000000004016ddf8                SeTrimRight
                0x000000004016df0a                SeTrim
                0x000000004016df2f                SeCopyStr
                0x000000004016df84                SeTrimCopy
                0x000000004016dfb1                SeUniqueToken
                0x000000004016e10b                SeSearchStrEx
                0x000000004016e25f                SeSearchStri
                0x000000004016e26f                SeSearchStr
                0x000000004016e27f                SeCalcReplaceStrEx
                0x000000004016e33a                SeReplaceStrEx
                0x000000004016e48f                SeReplaceStr
                0x000000004016e4a0                SeReplaceStri
                0x000000004016e4b1                SeTrimCrlf
                0x000000004016e4f8                SeStartWith
                0x000000004016e59e                SeEndWith
                0x000000004016e607                SeIsEmptyStr
                0x000000004016e651                SeNormalizeCrlf
                0x000000004016e6e4                SeIsCharInStr
                0x000000004016e73c                SeParseToken
                0x000000004016e8d7                SeParseTokenWithNullStr
                0x000000004016ea34                SeToStr3
                0x000000004016eb82                SeIsAllUpperStr
                0x000000004016ebf4                SeIsAllLowerStr
                0x000000004016ec66                SeFormatEx
                0x000000004016f179                SeFormatArgs
                0x000000004016f1d9                SeFormat
                0x000000004016f20f                SeBinToStr
                0x000000004016f2b6                SeBinToStrEx
                0x000000004016f35f                SeMacToStr
                0x000000004016f3b0                SeStrToBin
                0x000000004016f49f                SeStrToBinEx
                0x000000004016f512                SeStrToMac
                0x000000004016f525                SeReadNextLine
                0x000000004016f5f0                SeVpnRecvIpV6PacketCallback
                0x000000004016f640                SeVpnRecvIpV4PacketCallback
                0x000000004016f690                SeVpnInitIpStack
                0x000000004016f9f2                SeVpnFreeIpStack
                0x000000004016fa92                SeVpnMainInit
                0x000000004016fbab                SeVpnMainFree
                0x000000004016fbcf                SeVpnRecvEtherPacket
                0x000000004016fc36                SeVpnSendEtherPacket
                0x000000004016fc5b                SeVpnMainProcRecvEtherPacket
                0x000000004016fd0a                SeVpnStatusChanged
                0x000000004016fd1c                SeVpnMainProcess
                0x000000004016fe1a                SeVpnMainHandler
                0x000000004016fe67                SeVpnEthRecvCallback
                0x000000004016fe7f                SeVpnTimerCallback
                0x000000004016fe97                SeVpnTick
                0x000000004016feab                SeVpnAddTimer
                0x000000004016febf                SeVpnDoInterval
                0x000000004016ff2f                SeVpnFreeConfig
                0x000000004016ff3f                SeVpnFree
                0x000000004016ff90                SeVpnLoadConfig
                0x00000000401712ee                SeVpnInit
                0x0000000040171410                SeVpn4ClientSetTimerCallback
                0x0000000040171423                SeVpn4ClientSetRecvUdpCallback
                0x0000000040171436                SeVpn4ClientSetRecvEspCallback
                0x0000000040171449                SeVpn4ClientSetRecvVirtualIpCallback
                0x000000004017145c                SeVpn4ClientSendVirtualIp
                0x000000004017149b                SeVpn4ClientSendEsp
                0x000000004017151b                SeVpn4ClientSendUdp
                0x00000000401715a6                SeVpn4IPsecSendPing
                0x00000000401716ee                SeVpn4IPsecInputFromPhysical
                0x00000000401717b9                SeVpn4IPsecInputFromVirtual
                0x000000004017182d                SeVpn4FreeIPsec
                0x0000000040171841                SeVpn4InitSecConfig
                0x0000000040171a22                SeVpn4InitIPsec
                0x0000000040171af3                SeVpn4DoInterval
                0x0000000040171b0b                SeVpn4Tick
                0x0000000040171b23                SeVpn4ClientGetTick
                0x0000000040171b38                SeVpn4IPsecMainProc
                0x0000000040171bc0                SeVpn4MainProc
                0x0000000040171bdb                SeVpn4SetTimer
                0x0000000040171bee                SeVpn4ClientAddTimer
                0x0000000040171c06                SeVpn4DhcpSendResponse
                0x0000000040171d1b                SeVpn4DhcpOptionsToBuf
                0x0000000040171dd9                SeVpn4NewDhcpOption
                0x0000000040171e40                SeVpn4DhcpBuildDhcpOptionList
                0x000000004017201e                SeVpn4DhcpSearchOption
                0x000000004017205a                SeVpn4DhcpFreeOptionList
                0x00000000401720b0                SeVpn4DhcpParseOptionListMain
                0x000000004017219e                SeVpn4DhcpParseOptionList
                0x0000000040172291                SeVpn4DhcpServer
                0x000000004017255c                SeVpn4RecvPacketPhysical
                0x0000000040172631                SeVpn4RecvPacketVirtual
                0x0000000040172793                SeVpn4Init
                0x00000000401727f8                SeVpn4Free
                0x0000000040172830                SeVpn6ClientSetTimerCallback
                0x0000000040172843                SeVpn6ClientSetRecvUdpCallback
                0x0000000040172856                SeVpn6ClientSetRecvEspCallback
                0x0000000040172869                SeVpn6ClientSetRecvVirtualIpCallback
                0x000000004017287c                SeVpn6ClientSendVirtualIp
                0x00000000401728bb                SeVpn6ClientSendEsp
                0x000000004017295b                SeVpn6ClientSendUdp
                0x0000000040172a10                SeVpn6IPsecSendPing
                0x0000000040172bf6                SeVpn6UpdateGuestOsIpAddress
                0x0000000040172cca                SeVpn6IPsecInputFromPhysical
                0x0000000040172d95                SeVpn6IPsecInputFromVirtual
                0x0000000040172dc9                SeVpn6InitSecConfig
                0x0000000040172fbb                SeVpn6InitIPsec
                0x000000004017309c                SeVpn6FreeIPsec
                0x00000000401730b0                SeVpn6DoInterval
                0x00000000401730c8                SeVpn6Tick
                0x00000000401730e0                SeVpn6ClientGetTick
                0x00000000401730f5                SeVpn6IPsecMainProc
                0x0000000040173185                SeVpn6MainProc
                0x00000000401731a0                SeVpn6SetTimer
                0x00000000401731b3                SeVpn6ClientAddTimer
                0x00000000401731cb                SeVpn6RecvPacketPhysical
                0x000000004017324d                SeVpn6RecvPacketVirtual
                0x0000000040173384                SeVpn6Init
                0x00000000401733fa                SeVpn6Free
                0x0000000040173430                crypt_sys_rsa_sign
                0x00000000401737c5                msg_usb_bulk_read
                0x0000000040173825                msg_usb_bulk_write
                0x0000000040173885                msg_usb_claim_interface
                0x00000000401738cb                msg_usb_close
                0x0000000040173925                msg_usb_control_msg
                0x000000004017399a                msg_usb_find_busses
                0x00000000401739d8                msg_usb_find_devices
                0x0000000040173a16                msg_usb_get_busses
                0x0000000040173a7d                msg_usb_get_string_simple
                0x0000000040173ad9                msg_usb_init
                0x0000000040173aee                msg_usb_open
                0x0000000040173b67                msg_usb_release_interface
                0x0000000040173bad                msg_usb_reset
                0x0000000040173bf0                IDMan_StReadSetData
                0x00000000401742d5                idman_user_init
                0x0000000040174330                IDMan_IPIdPassListMalloc
                0x000000004017441b                IDMan_IPRetJudgment
                0x0000000040174497                IDMan_IPFinalizeReader
                0x00000000401744b9                IDMan_IPFinalize
                0x000000004017450f                IDMan_IPInitialize
                0x0000000040174618                IDMan_IPInitializeReader
                0x0000000040174645                IDMan_getMemoryFree
                0x000000004017468d                IDMan_PaddingParamChk
                0x0000000040174752                IDMan_CmPadding
                0x000000004017490e                IDMan_CmPadding2
                0x0000000040174a8a                IDMan_IPgetCertPKCS
                0x0000000040175182                IDMan_IPgetCertIdxPKCS
                0x0000000040175655                IDMan_IPCheckPKC
                0x000000004017587e                IDMan_CheckCardStatus
                0x00000000401758b0                IDMan_IPgSParamChk
                0x00000000401759e0                IDMan_IPgIdxSParamChk
                0x0000000040175a18                IDMan_IPgetPrivateKey
                0x0000000040175c0b                IDMan_IPgetHash
                0x0000000040175d02                IDMan_IPCrSignature
                0x0000000040175e6a                IDMan_generateSignature
                0x0000000040175fa4                IDMan_generateSignatureByIndex
                0x00000000401760cb                IDMan_EncryptByIndex
                0x00000000401761f4                IDMan_IPgCParamChk
                0x00000000401762e6                IDMan_getCertificate
                0x0000000040176608                IDMan_IPgCIndexParamChk
                0x0000000040176641                IDMan_getCertificateByIndex
                0x00000000401769d8                IDMan_getStaticPassword
                0x0000000040176cf0                IDMan_IPuAPKCS11ParamChk
                0x0000000040176df1                IDMan_IPuAPKCS11IdxParamChk
                0x0000000040176e18                IDMan_IPgetCertPkeyPKCSx
                0x00000000401772db                IDMan_IPgetCertPkeyIdxPKCSx
                0x0000000040177704                IDMan_IPgetCertPkeyPKCSy
                0x0000000040177852                IDMan_IPCheckCrlPkcX
                0x000000004017798f                IDMan_IPgetMakeRandData
                0x0000000040177a07                IDMan_IPMkRandHash
                0x0000000040177ac4                IDMan_IPgetPrivateKeyPKCSx
                0x0000000040177c97                IDMan_IPSignatureVerify
                0x0000000040177e10                IDMan_userAuthPKCS11
                0x0000000040178295                IDMan_userAuthPKCS11ByIndex
                0x0000000040178720                IDMan_IPvSParamChk
                0x000000004017889e                IDMan_IPvSIdxParamChk
                0x0000000040178901                IDMan_IPMkPublicKeyObj
                0x0000000040178a45                IDMan_IPCheckSignature
                0x0000000040178bff                IDMan_verifySignature
                0x0000000040178ddc                IDMan_verifySignatureByIndex
                0x0000000040178fa0                CardEstablishContext
                0x0000000040178fb8                CardReleaseContext
                0x0000000040178fe9                CardListReaders
                0x0000000040179001                CardConnect
                0x000000004017903f                CardDisconnect
                0x000000004017905c                CardStatus
                0x00000000401790ad                CardTransmit
                0x00000000401790e9                SelectFileDF
                0x00000000401791dc                SelectFileEF
                0x00000000401792c7                Verify
                0x00000000401793db                InternalAuth
                0x000000004017951f                ReadBinary
                0x0000000040179b0f                UpdateBinary
                0x0000000040179c39                GetICCardData
                0x000000004017a020                GetUlByTxt
                0x000000004017a05f                GetVerByTex
                0x000000004017a147                GetUlByByte
                0x000000004017a18c                TransHex2Tex
                0x000000004017a21f                TransTex2Hex
                0x000000004017a2d6                GetLength
                0x000000004017a343                SetLength
                0x000000004017a3a8                GetTlvByBuf
                0x000000004017a725                GetDirDataByTlv
                0x000000004017a84a                GetOdfDataByTlv
                0x000000004017a9bd                GetTokenDataByTlv
                0x000000004017ae23                AddObjTblByTlv
                0x000000004017b4c7                AddCertDataByBuf
                0x000000004017b5cd                AddIdPassDataByBuf
                0x000000004017b96d                GetValueData
                0x000000004017bd10                AddElem
                0x000000004017bdae                SetElem
                0x000000004017be75                GetElem
                0x000000004017beb1                GetAttrValType
                0x000000004017c025                DestroyAttribute
                0x000000004017c06f                DestroyTlvData
                0x000000004017c084                DestroyElem
                0x000000004017c10a                DestroyList
                0x000000004017c147                DestroySessionData
                0x000000004017c185                DestroyTokenData
                0x000000004017c1e5                DestroySlotData
                0x000000004017c221                DelElem
                0x000000004017c290                C_GetFunctionList
                0x000000004017c2a2                C_Initialize
                0x000000004017c40f                C_Finalize
                0x000000004017c4aa                C_GetInfo
                0x000000004017c530                C_GetSlotList
                0x000000004017ce14                C_GetSlotInfo
                0x000000004017cefc                C_GetTokenInfo
                0x000000004017d733                C_GetMechanismList
                0x000000004017d804                C_GetMechanismInfo
                0x000000004017d8c0                C_OpenSession
                0x000000004017da7b                C_CloseSession
                0x000000004017db54                C_CloseAllSessions
                0x000000004017dc60                C_GetSessionInfo
                0x000000004017dcdc                C_Login
                0x000000004017e133                C_Logout
                0x000000004017e24a                C_FindObjectsInit
                0x000000004017e4c1                C_FindObjects
                0x000000004017ea1a                C_FindObjectsFinal
                0x000000004017ea90                C_GetAttributeValue
                0x000000004017edb1                C_SignInit
                0x000000004017ee78                C_Sign
                0x000000004017f1ff                C_DigestInit
                0x000000004017f27a                C_DigestUpdate
                0x000000004017f302                C_DigestFinal
                0x000000004017f449                C_VerifyInit
                0x000000004017f510                C_Verify
                0x000000004017f682                C_CreateObject
                0x000000004017f92f                C_DestroyObject
                0x000000004017f9ef                C_SetAttributeValue
                0x00000000401805f9                C_GetCardStatus
                0x0000000040180690                IDMan_StFree
                0x00000000401806a0                IDMan_StMemcpy
                0x00000000401806c4                IDMan_StMemset
                0x00000000401806e2                IDMan_StMalloc
                0x0000000040180729                IDMan_StMemcmp
                0x0000000040180782                IDMan_StStrlen
                0x000000004018079c                IDMan_StStrcat
                0x00000000401807d9                IDMan_StStrchr
                0x0000000040180816                IDMan_StStrcpy
                0x000000004018083d                IDMan_StStrcmp
                0x0000000040180888                StIsspace
                0x0000000040180905                StIsdigit
                0x0000000040180917                IDMan_StAtoi
                0x0000000040180973                IDMan_StAtol
                0x00000000401809db                IDMan_CmMkHash
                0x0000000040180b96                IDMan_CmChgRSA
                0x0000000040180d5f                IDMan_CmGetDN
                0x0000000040181006                IDMan_CmGetCertificateSign
                0x0000000040181230                IDMan_CmGetPublicKey
                0x000000004018140c                IDMan_CmMakeRand
                0x00000000401814aa                IDMan_CmCheckCRL
                0x0000000040181830                IDMan_SCardEstablishContext
                0x000000004018184d                IDMan_SCardReleaseContext
                0x0000000040181858                IDMan_SCardListReaders
                0x0000000040181888                IDMan_SCardConnect
                0x00000000401818b8                IDMan_SCardDisconnect
                0x00000000401818c3                IDMan_SCardStatus
                0x0000000040181945                IDMan_SCardSizeLongToChar
                0x0000000040181986                IDMan_SCardSetBinay
                0x0000000040181d25                IDMan_SCardTransmit
                0x0000000040181d90                EHDestroyEventHandler
                0x0000000040181dfd                EHInitEventHandler
                0x0000000040181eb3                EHStatusHandler
                0x0000000040182050                HPSearchHotPluggables
                0x00000000401823a0                PHGetProtocol
                0x000000004018277b                PHSetProtocol
                0x00000000401827e4                RFAddReader
                0x00000000401828ff                RFRemoveReader
                0x00000000401829b9                RFReaderInfoById
                0x00000000401829e9                RFCheckReaderEventState
                0x0000000040182a20                SCardEstablishContext
                0x0000000040182b10                SCardListReaders
                0x0000000040182bbd                SCardConnect
                0x0000000040182e41                SCardDisconnect
                0x0000000040182ff2                SCardBeginTransaction
                0x0000000040183046                SCardEndTransaction
                0x000000004018320e                SCardStatus
                0x0000000040183419                SCardReleaseContext
                0x00000000401834df                SCardTransmit
                0x0000000040183730                SetATR
                0x000000004018399d                GetIFSCData
                0x00000000401839f3                GetBWICWIData
                0x0000000040183a91                IFDHCloseChannel
                0x0000000040183b1d                IFDHGetCapabilities
                0x0000000040183b5c                IFDHSetProtocolParameters
                0x000000004018425b                IFDHPowerICC
                0x000000004018445a                IFDHTransmitToICC
                0x000000004018471a                IFDHControl
                0x0000000040184833                IFDHICCPresence
                0x00000000401848e8                IFDHCreateChannel
                0x000000004018499c                FindBaudRateTable
                0x00000000401849dc                ExchangePPSData
                0x00000000401850c6                InitLeaderCardProtocol
                0x00000000401851df                T1XfrBlockTPDU
                0x000000004018584c                T1NegociateIFSD
                0x0000000040185994                CardStateConfirm
                0x00000000401859c9                GetCardStatus
                0x0000000040185ac0                PowerOn
                0x0000000040185c80                PowerOff
                0x0000000040185de8                CardMechanical
                0x0000000040185f00                TransmitPPS
                0x000000004018609a                TransmitCommand
                0x0000000040186167                ReceiveReply
                0x000000004018632c                BlockSendCardT1
                0x0000000040186584                ReadDataT0
                0x0000000040186649                T0XfrBlockCHAR
                0x0000000040186bcf                T0XfrBlockTPDU
                0x0000000040186c51                T1XfrBlockExtendedAPDU
                0x0000000040186fcb                OpenUSB
                0x0000000040187365                WriteUSB
                0x0000000040187396                ReadUSB
                0x00000000401873f4                CloseUSB
                0x0000000040187464                AES_set_encrypt_key
                0x0000000040187870                AES_set_decrypt_key
                0x0000000040187a96                AES_encrypt
                0x0000000040187f4f                AES_decrypt
                0x00000000401883f0                BIO_set
                0x00000000401884c5                BIO_new
                0x000000004018853e                BIO_free
                0x00000000401885ed                BIO_vfree
                0x00000000401885f8                BIO_clear_flags
                0x0000000040188603                BIO_test_flags
                0x000000004018860e                BIO_set_flags
                0x0000000040188617                BIO_get_callback
                0x0000000040188621                BIO_set_callback
                0x000000004018862b                BIO_set_callback_arg
                0x0000000040188635                BIO_get_callback_arg
                0x000000004018863f                BIO_method_name
                0x000000004018864c                BIO_method_type
                0x0000000040188657                BIO_read
                0x0000000040188752                BIO_write
                0x0000000040188856                BIO_puts
                0x0000000040188948                BIO_gets
                0x0000000040188a38                BIO_indent
                0x0000000040188a7d                BIO_ctrl
                0x0000000040188b53                BIO_ptr_ctrl
                0x0000000040188b7e                BIO_int_ctrl
                0x0000000040188b94                BIO_callback_ctrl
                0x0000000040188c60                BIO_ctrl_pending
                0x0000000040188c7a                BIO_ctrl_wpending
                0x0000000040188c94                BIO_push
                0x0000000040188ce2                BIO_pop
                0x0000000040188d47                BIO_get_retry_BIO
                0x0000000040188d96                BIO_get_retry_reason
                0x0000000040188d9f                BIO_find_type
                0x0000000040188dd4                BIO_next
                0x0000000040188dea                BIO_free_all
                0x0000000040188e18                BIO_dup_chain
                0x0000000040188f07                BIO_copy_next_retry
                0x0000000040188f34                BIO_get_ex_new_index
                0x0000000040188f53                BIO_set_ex_data
                0x0000000040188f62                BIO_get_ex_data
                0x0000000040188f71                BIO_number_read
                0x0000000040188f85                BIO_number_written
                0x00000000401890ef                BN_set_params
                0x0000000040189182                BN_get_params
                0x00000000401891b7                BN_value_one
                0x00000000401891c2                BN_options
                0x0000000040189204                BN_num_bits_word
                0x000000004018925f                BN_num_bits
                0x0000000040189289                BN_clear_free
                0x00000000401892f0                BN_free
                0x0000000040189339                BN_init
                0x000000004018934e                BN_new
                0x00000000401893c1                bn_expand2
                0x0000000040189419                BN_copy
                0x0000000040189507                BN_dup
                0x000000004018955b                bn_dup_expand
                0x00000000401895dd                BN_swap
                0x0000000040189640                BN_clear
                0x0000000040189679                BN_get_word
                0x000000004018969b                BN_set_word
                0x00000000401896fe                BN_bin2bn
                0x0000000040189841                BN_bn2bin
                0x00000000401898af                BN_ucmp
                0x00000000401898fc                BN_cmp
                0x00000000401899b0                BN_set_bit
                0x0000000040189a75                BN_clear_bit
                0x0000000040189af3                BN_is_bit_set
                0x0000000040189b30                BN_mask_bits
                0x0000000040189bcc                BN_set_negative
                0x0000000040189bec                bn_cmp_words
                0x0000000040189c4e                bn_cmp_part_words
                0x0000000040189ce0                BN_bn2hex
                0x0000000040189dc6                BN_bn2dec
                0x0000000040189fd5                BN_hex2bn
                0x000000004018a1b2                BN_dec2bn
                0x000000004018a363                BN_asc2bn
                0x000000004018a3d3                BN_print
                0x000000004018a8b7                BN_pseudo_rand
                0x000000004018a8d1                BN_rand
                0x000000004018a8eb                BN_bntest_rand
                0x000000004018a905                BN_rand_range
                0x000000004018a91b                BN_pseudo_rand_range
                0x000000004018a940                BN_mod_word
                0x000000004018a995                BN_div_word
                0x000000004018aa7b                BN_sub_word
                0x000000004018ab7a                BN_add_word
                0x000000004018ac4d                BN_mul_word
                0x000000004018b134                BIO_s_mem
                0x000000004018b13f                BIO_new_mem_buf
                0x000000004018b1b8                BUF_MEM_new
                0x000000004018b21f                BUF_MEM_free
                0x000000004018b25f                BUF_MEM_grow
                0x000000004018b359                BUF_MEM_grow_clean
                0x000000004018b46f                BUF_memdup
                0x000000004018b4e4                BUF_strlcpy
                0x000000004018b548                BUF_strndup
                0x000000004018b5c7                BUF_strdup
                0x000000004018b5f3                BUF_strlcat
                0x000000004018b62d                BUF_reverse
                0x000000004018b684                OpenSSL_add_all_ciphers
                0x000000004018bb30                OpenSSL_add_all_digests
                0x000000004018bca0                CRYPTO_get_new_lockid
                0x000000004018bd58                CRYPTO_num_locks
                0x000000004018bd63                CRYPTO_get_dynlock_create_callback
                0x000000004018bd70                CRYPTO_get_dynlock_lock_callback
                0x000000004018bd7d                CRYPTO_get_dynlock_destroy_callback
                0x000000004018bd8a                CRYPTO_set_dynlock_create_callback
                0x000000004018bd97                CRYPTO_set_dynlock_lock_callback
                0x000000004018bda4                CRYPTO_set_dynlock_destroy_callback
                0x000000004018bdb1                CRYPTO_get_locking_callback
                0x000000004018bdbe                CRYPTO_get_add_lock_callback
                0x000000004018bdcb                CRYPTO_set_locking_callback
                0x000000004018bdd8                CRYPTO_set_add_lock_callback
                0x000000004018bde5                CRYPTO_THREADID_set_numeric
                0x000000004018be18                CRYPTO_THREADID_set_pointer
                0x000000004018be4e                CRYPTO_THREADID_set_callback
                0x000000004018be6c                CRYPTO_THREADID_get_callback
                0x000000004018be79                CRYPTO_THREADID_current
                0x000000004018bec3                CRYPTO_THREADID_cmp
                0x000000004018bed3                CRYPTO_THREADID_cpy
                0x000000004018bee3                CRYPTO_THREADID_hash
                0x000000004018beed                CRYPTO_get_id_callback
                0x000000004018befa                CRYPTO_set_id_callback
                0x000000004018bf07                CRYPTO_thread_id
                0x000000004018bf20                CRYPTO_get_lock_name
                0x000000004018bf73                OPENSSL_ia32cap_loc
                0x000000004018bf7e                OPENSSL_cpuid_setup
                0x000000004018bf84                OPENSSL_showfatal
                0x000000004018bfcf                OPENSSL_isservice
                0x000000004018bfda                OpenSSLDie
                0x000000004018bffc                CRYPTO_lock
                0x000000004018c093                CRYPTO_add_lock
                0x000000004018c117                CRYPTO_get_dynlock_value
                0x000000004018c1b6                CRYPTO_destroy_dynlockid
                0x000000004018c2ae                CRYPTO_get_new_dynlockid
                0x000000004018c4ca                OPENSSL_stderr
                0x000000004018c4d8                DES_encrypt1
                0x000000004018c8e6                DES_encrypt2
                0x000000004018cbf1                DES_encrypt3
                0x000000004018cd4e                DES_decrypt3
                0x000000004018ceae                DES_ncbc_encrypt
                0x000000004018d4eb                DES_ede3_cbc_encrypt
                0x000000004018df46                DH_generate_key
                0x000000004018df56                DH_compute_key
                0x000000004018df66                DH_OpenSSL
                0x000000004018df74                DH_set_default_method
                0x000000004018df81                DH_get_default_method
                0x000000004018dfa4                DH_set_method
                0x000000004018dff1                DH_new_method
                0x000000004018e107                DH_new
                0x000000004018e117                DH_free
                0x000000004018e1f7                DH_up_ref
                0x000000004018e224                DH_get_ex_new_index
                0x000000004018e243                DH_set_ex_data
                0x000000004018e252                DH_get_ex_data
                0x000000004018e261                DH_size
                0x000000004018ef6a                EVP_aes_128_cbc
                0x000000004018ef75                EVP_aes_128_cfb128
                0x000000004018ef80                EVP_aes_128_ofb
                0x000000004018ef8b                EVP_aes_128_ecb
                0x000000004018ef96                EVP_aes_192_cbc
                0x000000004018efa1                EVP_aes_192_cfb128
                0x000000004018efac                EVP_aes_192_ofb
                0x000000004018efb7                EVP_aes_192_ecb
                0x000000004018efc2                EVP_aes_256_cbc
                0x000000004018efcd                EVP_aes_256_cfb128
                0x000000004018efd8                EVP_aes_256_ofb
                0x000000004018efe3                EVP_aes_256_ecb
                0x000000004018efee                EVP_aes_128_cfb1
                0x000000004018eff9                EVP_aes_192_cfb1
                0x000000004018f004                EVP_aes_256_cfb1
                0x000000004018f00f                EVP_aes_128_cfb8
                0x000000004018f01a                EVP_aes_192_cfb8
                0x000000004018f025                EVP_aes_256_cfb8
                0x000000004018f346                EVP_bf_cbc
                0x000000004018f351                EVP_bf_cfb64
                0x000000004018f35c                EVP_bf_ofb
                0x000000004018f367                EVP_bf_ecb
                0x000000004018f68a                EVP_cast5_cbc
                0x000000004018f695                EVP_cast5_cfb64
                0x000000004018f6a0                EVP_cast5_ofb
                0x000000004018f6ab                EVP_cast5_ecb
                0x000000004018fc6b                EVP_des_cbc
                0x000000004018fc76                EVP_des_cfb64
                0x000000004018fc81                EVP_des_ofb
                0x000000004018fc8c                EVP_des_ecb
                0x000000004018fc97                EVP_des_cfb1
                0x000000004018fca2                EVP_des_cfb8
                0x00000000401902d6                EVP_des_ede_cbc
                0x00000000401902e1                EVP_des_ede_cfb64
                0x00000000401902ec                EVP_des_ede_ofb
                0x00000000401902f7                EVP_des_ede_ecb
                0x0000000040190302                EVP_des_ede3_cbc
                0x000000004019030d                EVP_des_ede3_cfb64
                0x0000000040190318                EVP_des_ede3_ofb
                0x0000000040190323                EVP_des_ede3_ecb
                0x000000004019032e                EVP_des_ede3_cfb1
                0x0000000040190339                EVP_des_ede3_cfb8
                0x0000000040190344                EVP_des_ede
                0x000000004019034f                EVP_des_ede3
                0x00000000401906d7                EVP_idea_cbc
                0x00000000401906e2                EVP_idea_cfb64
                0x00000000401906ed                EVP_idea_ofb
                0x00000000401906f8                EVP_idea_ecb
                0x0000000040190c3f                EVP_rc2_cbc
                0x0000000040190c4a                EVP_rc2_cfb64
                0x0000000040190c55                EVP_rc2_ofb
                0x0000000040190c60                EVP_rc2_ecb
                0x0000000040190c6b                EVP_rc2_64_cbc
                0x0000000040190c76                EVP_rc2_40_cbc
                0x0000000040190cd9                EVP_rc4
                0x0000000040190ce4                EVP_rc4_40
                0x0000000040190e5a                EVP_desx_cbc
                0x0000000040190e68                DES_ecb3_encrypt
                0x0000000040190f38                DES_options
                0x0000000040190f8c                DES_ecb_encrypt
                0x0000000040191754                ERR_get_implementation
                0x0000000040191766                ERR_set_implementation
                0x00000000401917cf                ERR_load_ERR_strings
                0x0000000040191901                ERR_load_strings
                0x0000000040191931                ERR_unload_strings
                0x0000000040191983                ERR_free_strings
                0x0000000040191998                ERR_get_string_table
                0x00000000401919b1                ERR_get_err_state_table
                0x00000000401919cb                ERR_release_err_state_table
                0x00000000401919f0                ERR_lib_error_string
                0x0000000040191a30                ERR_func_error_string
                0x0000000040191a70                ERR_reason_error_string
                0x0000000040191adf                ERR_error_string_n
                0x0000000040191c57                ERR_error_string
                0x0000000040191c86                ERR_remove_thread_state
                0x0000000040191ccb                ERR_remove_state
                0x0000000040191cdb                ERR_get_state
                0x0000000040191fd3                ERR_peek_last_error_line_data
                0x0000000040191ff4                ERR_peek_last_error_line
                0x000000004019201b                ERR_peek_last_error
                0x0000000040192046                ERR_peek_error_line_data
                0x0000000040192067                ERR_peek_error_line
                0x000000004019208e                ERR_peek_error
                0x00000000401920b9                ERR_get_error_line_data
                0x00000000401920da                ERR_get_error_line
                0x0000000040192101                ERR_get_error
                0x000000004019212c                ERR_clear_error
                0x00000000401921e7                ERR_put_error
                0x00000000401922ef                ERR_get_next_error_library
                0x0000000040192304                ERR_set_error_data
                0x0000000040192381                ERR_add_error_data
                0x00000000401924be                ERR_set_mark
                0x00000000401924e9                ERR_pop_to_mark
                0x00000000401925c0                ERR_load_crypto_strings
                0x000000004019265c                ASN1_TYPE_set_octetstring
                0x00000000401926d4                ASN1_TYPE_get_octetstring
                0x0000000040192730                ASN1_TYPE_set_int_octetstring
                0x000000004019285d                ASN1_TYPE_get_int_octetstring
                0x0000000040192a50                EVP_CIPHER_CTX_init
                0x0000000040192a65                EVP_CIPHER_CTX_new
                0x0000000040192a9c                EVP_EncryptUpdate
                0x0000000040192c48                EVP_EncryptFinal_ex
                0x0000000040192d1c                EVP_EncryptFinal
                0x0000000040192d27                EVP_DecryptUpdate
                0x0000000040192e56                EVP_CipherUpdate
                0x0000000040192e71                EVP_DecryptFinal_ex
                0x000000004019300c                EVP_DecryptFinal
                0x0000000040193017                EVP_CipherFinal
                0x0000000040193037                EVP_CipherFinal_ex
                0x0000000040193057                EVP_CIPHER_CTX_cleanup
                0x00000000401930c2                EVP_CIPHER_CTX_free
                0x00000000401930e7                EVP_CIPHER_CTX_set_padding
                0x0000000040193108                EVP_CIPHER_CTX_ctrl
                0x0000000040193198                EVP_CIPHER_CTX_set_key_length
                0x00000000401931f9                EVP_CipherInit_ex
                0x000000004019344a                EVP_DecryptInit_ex
                0x000000004019345b                EVP_EncryptInit_ex
                0x000000004019346c                EVP_CipherInit
                0x00000000401934d0                EVP_DecryptInit
                0x00000000401934e1                EVP_EncryptInit
                0x00000000401934f2                EVP_CIPHER_CTX_rand_key
                0x0000000040193528                EVP_CIPHER_CTX_copy
                0x0000000040193608                ERR_load_EVP_strings
                0x0000000040193640                EVP_CIPHER_param_to_asn1
                0x000000004019365b                EVP_CIPHER_asn1_to_param
                0x0000000040193676                EVP_CIPHER_block_size
                0x000000004019367f                EVP_CIPHER_CTX_block_size
                0x000000004019368b                EVP_Cipher
                0x0000000040193699                EVP_CIPHER_CTX_cipher
                0x00000000401936a2                EVP_CIPHER_flags
                0x00000000401936ac                EVP_CIPHER_CTX_flags
                0x00000000401936b9                EVP_CIPHER_CTX_get_app_data
                0x00000000401936c3                EVP_CIPHER_CTX_set_app_data
                0x00000000401936cd                EVP_CIPHER_iv_length
                0x00000000401936d6                EVP_CIPHER_CTX_iv_length
                0x00000000401936e2                EVP_CIPHER_set_asn1_iv
                0x0000000040193744                EVP_CIPHER_get_asn1_iv
                0x00000000401937dc                EVP_CIPHER_key_length
                0x00000000401937e5                EVP_CIPHER_CTX_key_length
                0x00000000401937ee                EVP_CIPHER_nid
                0x00000000401937f6                EVP_CIPHER_type
                0x0000000040193935                EVP_CIPHER_CTX_nid
                0x0000000040193940                EVP_MD_block_size
                0x0000000040193949                EVP_MD_type
                0x0000000040193951                EVP_MD_pkey_type
                0x000000004019395a                EVP_MD_size
                0x000000004019398c                EVP_MD_flags
                0x0000000040193996                EVP_MD_CTX_md
                0x00000000401939ab                EVP_MD_CTX_set_flags
                0x00000000401939b8                EVP_MD_CTX_clear_flags
                0x00000000401939c7                EVP_MD_CTX_test_flags
                0x00000000401939d2                EVP_CIPHER_CTX_set_flags
                0x00000000401939df                EVP_CIPHER_CTX_clear_flags
                0x00000000401939ee                EVP_CIPHER_CTX_test_flags
                0x0000000040193e09                CRYPTO_get_ex_data_implementation
                0x0000000040193e25                CRYPTO_set_ex_data_implementation
                0x0000000040193e8e                CRYPTO_ex_data_new_class
                0x0000000040193eac                CRYPTO_cleanup_all_ex_data
                0x0000000040193ecb                CRYPTO_get_ex_new_index
                0x0000000040193f3a                CRYPTO_new_ex_data
                0x0000000040193f87                CRYPTO_dup_ex_data
                0x0000000040193fd4                CRYPTO_free_ex_data
                0x0000000040194021                CRYPTO_set_ex_data
                0x00000000401940da                CRYPTO_get_ex_data
                0x00000000401945d4                idea_encrypt
                0x0000000040194f18                idea_cbc_encrypt
                0x0000000040195540                idea_cfb64_encrypt
                0x0000000040195760                idea_options
                0x000000004019576b                idea_ecb_encrypt
                0x0000000040195824                idea_ofb64_encrypt
                0x0000000040195a5d                idea_set_encrypt_key
                0x0000000040195be6                idea_set_decrypt_key
                0x0000000040195ddd                lh_strhash
                0x0000000040195e50                lh_new
                0x0000000040195fb1                lh_free
                0x000000004019601c                lh_insert
                0x00000000401961a8                lh_delete
                0x00000000401962d4                lh_retrieve
                0x0000000040196317                lh_doall
                0x0000000040196335                lh_doall_arg
                0x0000000040196350                lh_num_items
                0x0000000040196397                EVP_dss
                0x00000000401963d7                EVP_dss1
                0x0000000040196417                EVP_ecdsa
                0x0000000040196457                EVP_md4
                0x0000000040196497                EVP_md5
                0x00000000401964d7                EVP_ripemd160
                0x0000000040196517                EVP_sha
                0x00000000401965db                EVP_sha1
                0x00000000401965e6                EVP_sha224
                0x00000000401965f1                EVP_sha256
                0x00000000401965fc                EVP_sha384
                0x0000000040196607                EVP_sha512
                0x0000000040196614                MD4_Init
                0x0000000040196656                md4_block_data_order
                0x0000000040196c19                MD4_Final
                0x0000000040196ce6                MD4_Transform
                0x0000000040196cf6                MD4_Update
                0x0000000040196e38                MD5_Init
                0x0000000040196e7a                md5_block_data_order
                0x00000000401976ba                MD5_Final
                0x0000000040197787                MD5_Transform
                0x0000000040197797                MD5_Update
                0x00000000401978d8                MD5
                0x0000000040197974                CRYPTO_set_mem_functions
                0x00000000401979e4                CRYPTO_set_mem_ex_functions
                0x0000000040197a54                CRYPTO_set_locked_mem_functions
                0x0000000040197a94                CRYPTO_set_locked_mem_ex_functions
                0x0000000040197ad4                CRYPTO_set_mem_debug_functions
                0x0000000040197b0d                CRYPTO_get_mem_functions
                0x0000000040197b62                CRYPTO_get_mem_ex_functions
                0x0000000040197bb3                CRYPTO_get_locked_mem_functions
                0x0000000040197be8                CRYPTO_get_locked_mem_ex_functions
                0x0000000040197c1b                CRYPTO_get_mem_debug_functions
                0x0000000040197c6c                CRYPTO_malloc_locked
                0x0000000040197d28                CRYPTO_free_locked
                0x0000000040197d6f                CRYPTO_malloc
                0x0000000040197e2b                CRYPTO_strdup
                0x0000000040197e7a                CRYPTO_realloc
                0x0000000040197f35                CRYPTO_realloc_clean
                0x0000000040198010                CRYPTO_free
                0x0000000040198057                CRYPTO_remalloc
                0x0000000040198084                CRYPTO_set_mem_debug_options
                0x0000000040198098                CRYPTO_get_mem_debug_options
                0x00000000401980b4                OPENSSL_cleanse
                0x000000004019852c                CRYPTO_mem_ctrl
                0x00000000401986b6                CRYPTO_is_mem_check_on
                0x0000000040198732                CRYPTO_dbg_set_options
                0x000000004019873f                CRYPTO_dbg_get_options
                0x000000004019874c                CRYPTO_push_info_
                0x000000004019882b                CRYPTO_pop_info
                0x000000004019886d                CRYPTO_remove_all_info
                0x00000000401988b0                CRYPTO_dbg_malloc
                0x0000000040198a4f                CRYPTO_dbg_free
                0x0000000040198ac4                CRYPTO_dbg_realloc
                0x0000000040198b64                CRYPTO_mem_leaks
                0x0000000040198c83                CRYPTO_mem_leaks_cb
                0x0000000040198d5e                EVP_add_cipher
                0x0000000040198daa                EVP_add_digest
                0x0000000040198e4b                EVP_get_cipherbyname
                0x0000000040198e5b                EVP_get_digestbyname
                0x0000000040198e6b                EVP_cleanup
                0x0000000040198eb1                EVP_CIPHER_do_all
                0x0000000040198ed6                EVP_CIPHER_do_all_sorted
                0x0000000040198efb                EVP_MD_do_all
                0x0000000040198f20                EVP_MD_do_all_sorted
                0x0000000040199054                OBJ_NAME_init
                0x00000000401990a1                OBJ_NAME_new_index
                0x0000000040199209                OBJ_NAME_get
                0x00000000401992ac                OBJ_NAME_add
                0x0000000040199393                OBJ_NAME_remove
                0x000000004019943e                OBJ_NAME_do_all
                0x0000000040199468                OBJ_NAME_do_all_sorted
                0x000000004019950b                OBJ_NAME_cleanup
                0x00000000401997da                check_defer
                0x00000000401997fb                OBJ_cleanup
                0x000000004019986d                OBJ_new_nid
                0x0000000040199881                OBJ_add_object
                0x0000000040199a33                OBJ_nid2obj
                0x0000000040199aef                OBJ_nid2sn
                0x0000000040199bae                OBJ_nid2ln
                0x0000000040199c6e                OBJ_bsearch_ex_
                0x0000000040199d67                OBJ_bsearch_
                0x0000000040199d78                OBJ_sn2nid
                0x0000000040199df4                OBJ_ln2nid
                0x0000000040199e70                OBJ_txt2obj
                0x0000000040199f78                OBJ_obj2nid
                0x000000004019a000                OBJ_txt2nid
                0x000000004019a03d                OBJ_obj2txt
                0x000000004019a390                OBJ_create
                0x000000004019a495                OBJ_create_objects
                0x000000004019a5e8                ERR_load_OBJ_strings
                0x000000004019a620                OBJ_dup
                0x000000004019a7fa                OBJ_cmp
                0x000000004019a818                ERR_load_OCSP_strings
                0x000000004019a850                DES_ede3_ofb64_encrypt
                0x000000004019aa20                DES_ofb64_encrypt
                0x000000004019ad41                EVP_PKEY_bits
                0x000000004019ad65                EVP_PKEY_size
                0x000000004019ad89                EVP_PKEY_save_parameters
                0x000000004019adbb                EVP_PKEY_missing_parameters
                0x000000004019adda                EVP_PKEY_copy_parameters
                0x000000004019ae7a                EVP_PKEY_cmp_parameters
                0x000000004019aeb0                EVP_PKEY_cmp
                0x000000004019af0b                EVP_PKEY_new
                0x000000004019af96                EVP_PKEY_set_type
                0x000000004019afab                EVP_PKEY_set_type_str
                0x000000004019afc0                EVP_PKEY_assign
                0x000000004019affd                EVP_PKEY_get0
                0x000000004019b007                EVP_PKEY_set1_RSA
                0x000000004019b041                EVP_PKEY_get1_RSA
                0x000000004019b08c                EVP_PKEY_set1_DSA
                0x000000004019b0c6                EVP_PKEY_get1_DSA
                0x000000004019b111                EVP_PKEY_set1_EC_KEY
                0x000000004019b14b                EVP_PKEY_get1_EC_KEY
                0x000000004019b199                EVP_PKEY_set1_DH
                0x000000004019b1d3                EVP_PKEY_get1_DH
                0x000000004019b21e                EVP_PKEY_type
                0x000000004019b241                EVP_PKEY_id
                0x000000004019b249                EVP_PKEY_base_id
                0x000000004019b256                EVP_PKEY_free
                0x000000004019b2b3                EVP_PKEY_print_public
                0x000000004019b2d9                EVP_PKEY_print_private
                0x000000004019b301                EVP_PKEY_print_params
                0x000000004019b32a                EVP_PKEY_get_default_digest_nid
                0x000000004019b364                PEM_read_bio_X509_REQ
                0x000000004019b385                PEM_write_bio_X509_REQ
                0x000000004019b3c9                PEM_write_bio_X509_REQ_NEW
                0x000000004019b40d                PEM_read_bio_X509_CRL
                0x000000004019b42e                PEM_write_bio_X509_CRL
                0x000000004019b472                PEM_read_bio_PKCS7
                0x000000004019b493                PEM_write_bio_PKCS7
                0x000000004019b4d7                PEM_read_bio_NETSCAPE_CERT_SEQUENCE
                0x000000004019b4f8                PEM_write_bio_NETSCAPE_CERT_SEQUENCE
                0x000000004019b53c                PEM_read_bio_RSAPrivateKey
                0x000000004019b5a5                PEM_write_bio_RSAPrivateKey
                0x000000004019b5dc                PEM_read_bio_RSAPublicKey
                0x000000004019b5fd                PEM_write_bio_RSAPublicKey
                0x000000004019b641                PEM_read_bio_RSA_PUBKEY
                0x000000004019b662                PEM_write_bio_RSA_PUBKEY
                0x000000004019b6a6                PEM_read_bio_DSAPrivateKey
                0x000000004019b70f                PEM_write_bio_DSAPrivateKey
                0x000000004019b746                PEM_read_bio_DSA_PUBKEY
                0x000000004019b767                PEM_write_bio_DSA_PUBKEY
                0x000000004019b7ab                PEM_read_bio_DSAparams
                0x000000004019b7cc                PEM_write_bio_DSAparams
                0x000000004019b810                PEM_read_bio_ECPrivateKey
                0x000000004019b879                PEM_read_bio_ECPKParameters
                0x000000004019b89a                PEM_write_bio_ECPKParameters
                0x000000004019b8de                PEM_write_bio_ECPrivateKey
                0x000000004019b915                PEM_read_bio_EC_PUBKEY
                0x000000004019b936                PEM_write_bio_EC_PUBKEY
                0x000000004019b97a                PEM_read_bio_DHparams
                0x000000004019b99b                PEM_write_bio_DHparams
                0x000000004019b9df                PEM_read_bio_PUBKEY
                0x000000004019ba00                PEM_write_bio_PUBKEY
                0x000000004019ba44                ERR_load_PEM_strings
                0x000000004019ba80                PEM_def_callback
                0x000000004019baaa                PEM_proc_type
                0x000000004019bb12                PEM_dek_info
                0x000000004019bbd1                PEM_do_header
                0x000000004019bdaa                PEM_get_EVP_CIPHER_INFO
                0x000000004019c049                PEM_write_bio
                0x000000004019c318                PEM_ASN1_write_bio
                0x000000004019c733                PEM_read_bio
                0x000000004019ce1c                pem_check_suffix
                0x000000004019ce91                PEM_bytes_read_bio
                0x000000004019d1dc                PEM_ASN1_read_bio
                0x000000004019d288                PEM_read_bio_PrivateKey
                0x000000004019d4e4                PEM_write_bio_PrivateKey
                0x000000004019d5b0                PEM_read_bio_Parameters
                0x000000004019d6d2                PEM_write_bio_Parameters
                0x000000004019d754                PEM_read_bio_X509
                0x000000004019d775                PEM_write_bio_X509
                0x000000004019d7bc                ERR_load_PKCS12_strings
                0x000000004019d8ca                d2i_PKCS7
                0x000000004019d8da                i2d_PKCS7
                0x000000004019d8ea                PKCS7_new
                0x000000004019d8fa                PKCS7_free
                0x000000004019d90a                i2d_PKCS7_NDEF
                0x000000004019d91a                PKCS7_dup
                0x000000004019d92d                d2i_PKCS7_SIGNED
                0x000000004019d93d                i2d_PKCS7_SIGNED
                0x000000004019d94d                PKCS7_SIGNED_new
                0x000000004019d95d                PKCS7_SIGNED_free
                0x000000004019d96d                d2i_PKCS7_SIGNER_INFO
                0x000000004019d97d                i2d_PKCS7_SIGNER_INFO
                0x000000004019d98d                PKCS7_SIGNER_INFO_new
                0x000000004019d99d                PKCS7_SIGNER_INFO_free
                0x000000004019d9ad                d2i_PKCS7_ISSUER_AND_SERIAL
                0x000000004019d9bd                i2d_PKCS7_ISSUER_AND_SERIAL
                0x000000004019d9cd                PKCS7_ISSUER_AND_SERIAL_new
                0x000000004019d9dd                PKCS7_ISSUER_AND_SERIAL_free
                0x000000004019d9ed                d2i_PKCS7_ENVELOPE
                0x000000004019d9fd                i2d_PKCS7_ENVELOPE
                0x000000004019da0d                PKCS7_ENVELOPE_new
                0x000000004019da1d                PKCS7_ENVELOPE_free
                0x000000004019da2d                d2i_PKCS7_RECIP_INFO
                0x000000004019da3d                i2d_PKCS7_RECIP_INFO
                0x000000004019da4d                PKCS7_RECIP_INFO_new
                0x000000004019da5d                PKCS7_RECIP_INFO_free
                0x000000004019da6d                d2i_PKCS7_ENC_CONTENT
                0x000000004019da7d                i2d_PKCS7_ENC_CONTENT
                0x000000004019da8d                PKCS7_ENC_CONTENT_new
                0x000000004019da9d                PKCS7_ENC_CONTENT_free
                0x000000004019daad                d2i_PKCS7_SIGN_ENVELOPE
                0x000000004019dabd                i2d_PKCS7_SIGN_ENVELOPE
                0x000000004019dacd                PKCS7_SIGN_ENVELOPE_new
                0x000000004019dadd                PKCS7_SIGN_ENVELOPE_free
                0x000000004019daed                d2i_PKCS7_ENCRYPT
                0x000000004019dafd                i2d_PKCS7_ENCRYPT
                0x000000004019db0d                PKCS7_ENCRYPT_new
                0x000000004019db1d                PKCS7_ENCRYPT_free
                0x000000004019db2d                d2i_PKCS7_DIGEST
                0x000000004019db3d                i2d_PKCS7_DIGEST
                0x000000004019db4d                PKCS7_DIGEST_new
                0x000000004019db5d                PKCS7_DIGEST_free
                0x000000004019db6d                PKCS7_print_ctx
                0x000000004019e0e9                PKCS7_dataInit
                0x000000004019e7be                PKCS7_dataDecode
                0x000000004019ee65                PKCS7_SIGNER_INFO_sign
                0x000000004019f02e                PKCS7_get_issuer_and_serial
                0x000000004019f09d                PKCS7_get_signed_attribute
                0x000000004019f0ac                PKCS7_dataFinal
                0x000000004019f65e                PKCS7_get_attribute
                0x000000004019f66d                PKCS7_digest_from_attributes
                0x000000004019f68d                PKCS7_signatureVerify
                0x000000004019f994                PKCS7_dataVerify
                0x000000004019fb12                PKCS7_set_signed_attributes
                0x000000004019fba5                PKCS7_set_attributes
                0x000000004019fc38                PKCS7_add_signed_attribute
                0x000000004019fc47                PKCS7_add_attribute
                0x000000004019fc60                PKCS7_ctrl
                0x000000004019fd9c                PKCS7_set_content
                0x000000004019fe2d                PKCS7_set_type
                0x00000000401a003e                PKCS7_content_new
                0x00000000401a00aa                PKCS7_set0_type_other
                0x00000000401a00de                PKCS7_add_signer
                0x00000000401a023b                PKCS7_add_certificate
                0x00000000401a031c                PKCS7_add_crl
                0x00000000401a03fc                PKCS7_SIGNER_INFO_set
                0x00000000401a056c                PKCS7_add_signature
                0x00000000401a0640                PKCS7_set_digest
                0x00000000401a070c                PKCS7_get_signer_info
                0x00000000401a0755                PKCS7_SIGNER_INFO_get0_algs
                0x00000000401a077f                PKCS7_RECIP_INFO_get0_alg
                0x00000000401a0791                PKCS7_add_recipient_info
                0x00000000401a0800                PKCS7_RECIP_INFO_set
                0x00000000401a098b                PKCS7_add_recipient
                0x00000000401a09f0                PKCS7_cert_from_signer_info
                0x00000000401a0a42                PKCS7_set_cipher
                0x00000000401a0adc                PKCS7_stream
                0x00000000401a0ba8                ERR_load_PKCS7_strings
                0x00000000401a0be0                ERR_load_RAND_strings
                0x00000000401a0c18                DES_random_key
                0x00000000401a0c60                RAND_set_rand_method
                0x00000000401a0c72                RAND_get_rand_method
                0x00000000401a0c95                RAND_cleanup
                0x00000000401a0cba                RAND_seed
                0x00000000401a0cf2                RAND_add
                0x00000000401a0d3b                RAND_bytes
                0x00000000401a0d82                RAND_pseudo_bytes
                0x00000000401a0dc9                RAND_status
                0x00000000401a0dec                RC2_encrypt
                0x00000000401a0f4a                RC2_decrypt
                0x00000000401a10b0                RC2_cbc_encrypt
                0x00000000401a16d8                RC2_ecb_encrypt
                0x00000000401a17a0                RC2_set_key
                0x00000000401a18d0                RC2_cfb64_encrypt
                0x00000000401a1ae4                RC2_ofb64_encrypt
                0x00000000401a1c98                RC4
                0x00000000401a2134                RC4_options
                0x00000000401a213f                RC4_set_key
                0x00000000401a2244                RIPEMD160_Init
                0x00000000401a228d                ripemd160_block_data_order
                0x00000000401a38e2                RIPEMD160_Final
                0x00000000401a39b7                RIPEMD160_Transform
                0x00000000401a39c7                RIPEMD160_Update
                0x00000000401a3b52                d2i_RSAPrivateKey
                0x00000000401a3b62                i2d_RSAPrivateKey
                0x00000000401a3b72                d2i_RSAPublicKey
                0x00000000401a3b82                i2d_RSAPublicKey
                0x00000000401a3b92                RSAPublicKey_dup
                0x00000000401a3ba5                RSAPrivateKey_dup
                0x00000000401a3bc0                RSA_generate_key
                0x00000000401a3c80                ERR_load_RSA_strings
                0x00000000401a3cc0                RSA_generate_key_ex
                0x00000000401a4290                RSA_set_default_method
                0x00000000401a429d                RSA_get_default_method
                0x00000000401a42c0                RSA_get_method
                0x00000000401a42ca                RSA_set_method
                0x00000000401a4311                RSA_new_method
                0x00000000401a445d                RSA_new
                0x00000000401a446d                RSA_free
                0x00000000401a457d                RSA_up_ref
                0x00000000401a45aa                RSA_get_ex_new_index
                0x00000000401a45c9                RSA_set_ex_data
                0x00000000401a45d8                RSA_get_ex_data
                0x00000000401a45e7                RSA_size
                0x00000000401a4602                RSA_public_encrypt
                0x00000000401a460f                RSA_private_encrypt
                0x00000000401a461c                RSA_private_decrypt
                0x00000000401a4629                RSA_public_decrypt
                0x00000000401a4636                RSA_flags
                0x00000000401a464d                RSA_blinding_off
                0x00000000401a4687                RSA_setup_blinding
                0x00000000401a4930                RSA_blinding_on
                0x00000000401a498e                RSA_memory_lock
                0x00000000401a4ae0                RSA_sign
                0x00000000401a4d45                int_rsa_verify
                0x00000000401a50df                RSA_verify
                0x00000000401a5120                DES_set_odd_parity
                0x00000000401a5143                DES_check_key_parity
                0x00000000401a5184                DES_is_weak_key
                0x00000000401a51d3                DES_set_key_unchecked
                0x00000000401a5477                DES_set_key_checked
                0x00000000401a54c8                DES_set_key
                0x00000000401a54ec                DES_key_sched
                0x00000000401a54f8                SHA1
                0x00000000401a66ab                SHA1_Update
                0x00000000401a67ea                SHA1_Transform
                0x00000000401a67fa                SHA1_Final
                0x00000000401a68dd                SHA1_Init
                0x00000000401a8140                SHA224_Init
                0x00000000401a81a5                SHA256_Init
                0x00000000401a820a                SHA256_Update
                0x00000000401a8349                SHA224_Update
                0x00000000401a8354                SHA256_Transform
                0x00000000401a8364                SHA256_Final
                0x00000000401a848e                SHA224_Final
                0x00000000401a8499                SHA256
                0x00000000401a8514                SHA224
                0x00000000401a9d85                SHA384_Init
                0x00000000401a9e23                SHA512_Init
                0x00000000401a9ec1                SHA512_Final
                0x00000000401aa126                SHA384_Final
                0x00000000401aa131                SHA512_Update
                0x00000000401aa241                SHA384_Update
                0x00000000401aa24c                SHA512_Transform
                0x00000000401aa25c                SHA384
                0x00000000401aa2d7                SHA512
                0x00000000401ab327                SHA_Update
                0x00000000401ab466                SHA_Transform
                0x00000000401ab476                SHA_Final
                0x00000000401ab559                SHA_Init
                0x00000000401ab5b0                sk_set_cmp_func
                0x00000000401ab5ca                sk_new
                0x00000000401ab667                sk_new_null
                0x00000000401ab677                sk_insert
                0x00000000401ab732                sk_delete
                0x00000000401ab78e                sk_delete_ptr
                0x00000000401ab7d4                sk_push
                0x00000000401ab7e1                sk_unshift
                0x00000000401ab7f1                sk_shift
                0x00000000401ab817                sk_pop
                0x00000000401ab83c                sk_zero
                0x00000000401ab871                sk_free
                0x00000000401ab89f                sk_pop_free
                0x00000000401ab8f1                sk_dup
                0x00000000401ab977                sk_num
                0x00000000401ab98b                sk_value
                0x00000000401ab9ba                sk_set
                0x00000000401ab9ee                sk_sort
                0x00000000401abacc                sk_find_ex
                0x00000000401abadc                sk_find
                0x00000000401abaec                sk_is_sorted
                0x00000000401abf92                ASN1_tag2bit
                0x00000000401abfad                asn1_ex_c2i
                0x00000000401ac7fd                ASN1_item_ex_d2i
                0x00000000401ad6da                ASN1_template_d2i
                0x00000000401ad6f7                ASN1_item_d2i
                0x00000000401ad7a1                asn1_ex_i2c
                0x00000000401ada6a                ASN1_item_ex_i2d
                0x00000000401ae2c9                ASN1_template_i2d
                0x00000000401ae3a5                ASN1_item_i2d
                0x00000000401ae3b5                ASN1_item_ndef_i2d
                0x00000000401ae3d0                ASN1_primitive_free
                0x00000000401ae6f6                ASN1_template_free
                0x00000000401ae77a                ASN1_item_ex_free
                0x00000000401ae78a                ASN1_item_free
                0x00000000401ae872                ASN1_primitive_new
                0x00000000401aec9c                ASN1_template_new
                0x00000000401aed29                ASN1_item_ex_new
                0x00000000401aed39                ASN1_item_new
                0x00000000401aed68                d2i_ASN1_INTEGER
                0x00000000401aed78                i2d_ASN1_INTEGER
                0x00000000401aed88                ASN1_INTEGER_new
                0x00000000401aed98                ASN1_INTEGER_free
                0x00000000401aeda8                d2i_ASN1_ENUMERATED
                0x00000000401aedb8                i2d_ASN1_ENUMERATED
                0x00000000401aedc8                ASN1_ENUMERATED_new
                0x00000000401aedd8                ASN1_ENUMERATED_free
                0x00000000401aede8                d2i_ASN1_BIT_STRING
                0x00000000401aedf8                i2d_ASN1_BIT_STRING
                0x00000000401aee08                ASN1_BIT_STRING_new
                0x00000000401aee18                ASN1_BIT_STRING_free
                0x00000000401aee28                d2i_ASN1_OCTET_STRING
                0x00000000401aee38                i2d_ASN1_OCTET_STRING
                0x00000000401aee48                ASN1_OCTET_STRING_new
                0x00000000401aee58                ASN1_OCTET_STRING_free
                0x00000000401aee68                d2i_ASN1_NULL
                0x00000000401aee78                i2d_ASN1_NULL
                0x00000000401aee88                ASN1_NULL_new
                0x00000000401aee98                ASN1_NULL_free
                0x00000000401aeea8                d2i_ASN1_UTF8STRING
                0x00000000401aeeb8                i2d_ASN1_UTF8STRING
                0x00000000401aeec8                ASN1_UTF8STRING_new
                0x00000000401aeed8                ASN1_UTF8STRING_free
                0x00000000401aeee8                d2i_ASN1_PRINTABLESTRING
                0x00000000401aeef8                i2d_ASN1_PRINTABLESTRING
                0x00000000401aef08                ASN1_PRINTABLESTRING_new
                0x00000000401aef18                ASN1_PRINTABLESTRING_free
                0x00000000401aef28                d2i_ASN1_T61STRING
                0x00000000401aef38                i2d_ASN1_T61STRING
                0x00000000401aef48                ASN1_T61STRING_new
                0x00000000401aef58                ASN1_T61STRING_free
                0x00000000401aef68                d2i_ASN1_IA5STRING
                0x00000000401aef78                i2d_ASN1_IA5STRING
                0x00000000401aef88                ASN1_IA5STRING_new
                0x00000000401aef98                ASN1_IA5STRING_free
                0x00000000401aefa8                d2i_ASN1_GENERALSTRING
                0x00000000401aefb8                i2d_ASN1_GENERALSTRING
                0x00000000401aefc8                ASN1_GENERALSTRING_new
                0x00000000401aefd8                ASN1_GENERALSTRING_free
                0x00000000401aefe8                d2i_ASN1_UTCTIME
                0x00000000401aeff8                i2d_ASN1_UTCTIME
                0x00000000401af008                ASN1_UTCTIME_new
                0x00000000401af018                ASN1_UTCTIME_free
                0x00000000401af028                d2i_ASN1_GENERALIZEDTIME
                0x00000000401af038                i2d_ASN1_GENERALIZEDTIME
                0x00000000401af048                ASN1_GENERALIZEDTIME_new
                0x00000000401af058                ASN1_GENERALIZEDTIME_free
                0x00000000401af068                d2i_ASN1_VISIBLESTRING
                0x00000000401af078                i2d_ASN1_VISIBLESTRING
                0x00000000401af088                ASN1_VISIBLESTRING_new
                0x00000000401af098                ASN1_VISIBLESTRING_free
                0x00000000401af0a8                d2i_ASN1_UNIVERSALSTRING
                0x00000000401af0b8                i2d_ASN1_UNIVERSALSTRING
                0x00000000401af0c8                ASN1_UNIVERSALSTRING_new
                0x00000000401af0d8                ASN1_UNIVERSALSTRING_free
                0x00000000401af0e8                d2i_ASN1_BMPSTRING
                0x00000000401af0f8                i2d_ASN1_BMPSTRING
                0x00000000401af108                ASN1_BMPSTRING_new
                0x00000000401af118                ASN1_BMPSTRING_free
                0x00000000401af128                d2i_ASN1_TYPE
                0x00000000401af138                i2d_ASN1_TYPE
                0x00000000401af148                ASN1_TYPE_new
                0x00000000401af158                ASN1_TYPE_free
                0x00000000401af168                d2i_ASN1_PRINTABLE
                0x00000000401af178                i2d_ASN1_PRINTABLE
                0x00000000401af188                ASN1_PRINTABLE_new
                0x00000000401af198                ASN1_PRINTABLE_free
                0x00000000401af1a8                d2i_DISPLAYTEXT
                0x00000000401af1b8                i2d_DISPLAYTEXT
                0x00000000401af1c8                DISPLAYTEXT_new
                0x00000000401af1d8                DISPLAYTEXT_free
                0x00000000401af1e8                d2i_DIRECTORYSTRING
                0x00000000401af1f8                i2d_DIRECTORYSTRING
                0x00000000401af208                DIRECTORYSTRING_new
                0x00000000401af218                DIRECTORYSTRING_free
                0x00000000401af228                d2i_ASN1_SEQUENCE_ANY
                0x00000000401af238                i2d_ASN1_SEQUENCE_ANY
                0x00000000401af248                d2i_ASN1_SET_ANY
                0x00000000401af258                i2d_ASN1_SET_ANY
                0x00000000401af2b3                asn1_get_choice_selector
                0x00000000401af2c3                asn1_set_choice_selector
                0x00000000401af2d7                asn1_do_lock
                0x00000000401af331                asn1_enc_init
                0x00000000401af357                asn1_enc_free
                0x00000000401af397                asn1_enc_save
                0x00000000401af421                asn1_enc_restore
                0x00000000401af49b                asn1_get_field_ptr
                0x00000000401af4b3                asn1_do_adb
                0x00000000401af570                ERR_load_UI_strings
                0x00000000401af5a8                ERR_load_X509V3_strings
                0x00000000401af5e0                X509_issuer_and_serial_hash
                0x00000000401af6af                X509_CRL_match
                0x00000000401af6c7                X509_get_issuer_name
                0x00000000401af6d4                X509_get_subject_name
                0x00000000401af6e1                X509_get_serialNumber
                0x00000000401af6ee                X509_cmp
                0x00000000401af748                X509_NAME_cmp
                0x00000000401af7c1                X509_CRL_cmp
                0x00000000401af7da                X509_subject_name_cmp
                0x00000000401af7f3                X509_issuer_name_cmp
                0x00000000401af80c                X509_issuer_and_serial_cmp
                0x00000000401af84c                X509_NAME_hash
                0x00000000401af8b2                X509_subject_name_hash
                0x00000000401af8c4                X509_issuer_name_hash
                0x00000000401af8d6                X509_NAME_hash_old
                0x00000000401af93f                X509_subject_name_hash_old
                0x00000000401af951                X509_issuer_name_hash_old
                0x00000000401af963                X509_find_by_issuer_and_serial
                0x00000000401af9e6                X509_find_by_subject
                0x00000000401afa43                X509_get_pubkey
                0x00000000401afa6b                X509_get0_pubkey_bitstr
                0x00000000401afa88                X509_check_private_key
                0x00000000401afb44                ERR_load_X509_strings
                0x00000000401afb7c                X509_NAME_oneline
                0x00000000401b03ba                X509_time_adj_ex
                0x00000000401b0407                X509_time_adj
                0x00000000401b041d                X509_gmtime_adj
                0x00000000401b042d                X509_cmp_time
                0x00000000401b14f2                X509_cmp_current_time
                0x00000000401b1502                X509_get_pubkey_parameters
                0x00000000401b162e                X509_verify_cert
                0x00000000401b1fc1                X509_STORE_CTX_get_ex_new_index
                0x00000000401b1fe0                X509_STORE_CTX_set_ex_data
                0x00000000401b1ff2                X509_STORE_CTX_get_ex_data
                0x00000000401b2004                X509_STORE_CTX_get_error
                0x00000000401b2010                X509_STORE_CTX_set_error
                0x00000000401b201c                X509_STORE_CTX_get_error_depth
                0x00000000401b2028                X509_STORE_CTX_get_current_cert
                0x00000000401b2035                X509_STORE_CTX_get_chain
                0x00000000401b2042                X509_STORE_CTX_get1_chain
                0x00000000401b20ae                X509_STORE_CTX_get0_current_issuer
                0x00000000401b20bb                X509_STORE_CTX_get0_current_crl
                0x00000000401b20c8                X509_STORE_CTX_get0_parent_ctx
                0x00000000401b20d5                X509_STORE_CTX_set_cert
                0x00000000401b20df                X509_STORE_CTX_set_chain
                0x00000000401b20e9                X509_STORE_CTX_set0_crls
                0x00000000401b20f3                X509_STORE_CTX_purpose_inherit
                0x00000000401b2220                X509_STORE_CTX_set_trust
                0x00000000401b2237                X509_STORE_CTX_set_purpose
                0x00000000401b224e                X509_STORE_CTX_new
                0x00000000401b22b0                X509_STORE_CTX_init
                0x00000000401b260f                X509_STORE_CTX_trusted_stack
                0x00000000401b2621                X509_STORE_CTX_cleanup
                0x00000000401b26c4                X509_STORE_CTX_free
                0x00000000401b26e4                X509_STORE_CTX_set_depth
                0x00000000401b26f3                X509_STORE_CTX_set_flags
                0x00000000401b2702                X509_STORE_CTX_set_time
                0x00000000401b2713                X509_STORE_CTX_set_verify_cb
                0x00000000401b271d                X509_STORE_CTX_get0_policy_tree
                0x00000000401b272a                X509_STORE_CTX_get_explicit_policy
                0x00000000401b2736                X509_STORE_CTX_set_default
                0x00000000401b2767                X509_STORE_CTX_get0_param
                0x00000000401b2771                X509_STORE_CTX_set0_param
                0x00000000401b2b67                X509_VERIFY_PARAM_free
                0x00000000401b2b87                X509_VERIFY_PARAM_new
                0x00000000401b2bcb                X509_VERIFY_PARAM_set1_name
                0x00000000401b2c0c                X509_VERIFY_PARAM_set_flags
                0x00000000401b2c30                X509_VERIFY_PARAM_clear_flags
                0x00000000401b2c42                X509_VERIFY_PARAM_get_flags
                0x00000000401b2c4c                X509_VERIFY_PARAM_set_purpose
                0x00000000401b2c5b                X509_VERIFY_PARAM_set_trust
                0x00000000401b2c6a                X509_VERIFY_PARAM_set_depth
                0x00000000401b2c73                X509_VERIFY_PARAM_set_time
                0x00000000401b2c81                X509_VERIFY_PARAM_add0_policy
                0x00000000401b2cd2                X509_VERIFY_PARAM_set1_policies
                0x00000000401b2d99                X509_VERIFY_PARAM_inherit
                0x00000000401b2eaf                X509_VERIFY_PARAM_set1
                0x00000000401b2ee4                X509_VERIFY_PARAM_get_depth
                0x00000000401b2eed                X509_VERIFY_PARAM_add0_table
                0x00000000401b2f74                X509_VERIFY_PARAM_lookup
                0x00000000401b2fca                X509_VERIFY_PARAM_table_cleanup
                0x00000000401b2ff4                d2i_X509_ALGOR
                0x00000000401b3004                i2d_X509_ALGOR
                0x00000000401b3014                X509_ALGOR_new
                0x00000000401b3024                X509_ALGOR_free
                0x00000000401b3034                d2i_X509_ALGORS
                0x00000000401b3044                i2d_X509_ALGORS
                0x00000000401b3054                X509_ALGOR_dup
                0x00000000401b3067                X509_ALGOR_set0
                0x00000000401b3119                X509_ALGOR_get0
                0x00000000401b3154                X509_verify
                0x00000000401b3175                X509_REQ_verify
                0x00000000401b3196                NETSCAPE_SPKI_verify
                0x00000000401b31b7                X509_sign
                0x00000000401b31f1                X509_REQ_sign
                0x00000000401b321f                X509_CRL_sign
                0x00000000401b3259                NETSCAPE_SPKI_sign
                0x00000000401b3287                d2i_X509_bio
                0x00000000401b329d                i2d_X509_bio
                0x00000000401b32b3                d2i_X509_CRL_bio
                0x00000000401b32c9                i2d_X509_CRL_bio
                0x00000000401b32df                d2i_PKCS7_bio
                0x00000000401b32f5                i2d_PKCS7_bio
                0x00000000401b330b                d2i_X509_REQ_bio
                0x00000000401b3321                i2d_X509_REQ_bio
                0x00000000401b3337                d2i_RSAPrivateKey_bio
                0x00000000401b334d                i2d_RSAPrivateKey_bio
                0x00000000401b3363                d2i_RSAPublicKey_bio
                0x00000000401b3379                d2i_RSA_PUBKEY_bio
                0x00000000401b3394                i2d_RSAPublicKey_bio
                0x00000000401b33aa                i2d_RSA_PUBKEY_bio
                0x00000000401b33c0                d2i_DSAPrivateKey_bio
                0x00000000401b33db                i2d_DSAPrivateKey_bio
                0x00000000401b33f1                d2i_DSA_PUBKEY_bio
                0x00000000401b340c                i2d_DSA_PUBKEY_bio
                0x00000000401b3422                d2i_EC_PUBKEY_bio
                0x00000000401b343d                i2d_EC_PUBKEY_bio
                0x00000000401b3453                d2i_ECPrivateKey_bio
                0x00000000401b346e                i2d_ECPrivateKey_bio
                0x00000000401b3484                X509_pubkey_digest
                0x00000000401b34dc                X509_digest
                0x00000000401b34f5                X509_CRL_digest
                0x00000000401b350e                X509_REQ_digest
                0x00000000401b3527                X509_NAME_digest
                0x00000000401b3540                PKCS7_ISSUER_AND_SERIAL_digest
                0x00000000401b3559                d2i_PKCS8_bio
                0x00000000401b3574                i2d_PKCS8_bio
                0x00000000401b358a                d2i_PKCS8_PRIV_KEY_INFO_bio
                0x00000000401b35a5                i2d_PKCS8_PRIV_KEY_INFO_bio
                0x00000000401b35bb                i2d_PKCS8PrivateKeyInfo_bio
                0x00000000401b360f                i2d_PrivateKey_bio
                0x00000000401b3625                d2i_PrivateKey_bio
                0x00000000401b3640                i2d_PUBKEY_bio
                0x00000000401b3656                d2i_PUBKEY_bio
                0x00000000401b3674                d2i_X509_ATTRIBUTE
                0x00000000401b3684                i2d_X509_ATTRIBUTE
                0x00000000401b3694                X509_ATTRIBUTE_new
                0x00000000401b36a4                X509_ATTRIBUTE_free
                0x00000000401b36b4                X509_ATTRIBUTE_dup
                0x00000000401b36c7                X509_ATTRIBUTE_create
                0x00000000401b3efe                d2i_X509_REVOKED
                0x00000000401b3f0e                i2d_X509_REVOKED
                0x00000000401b3f1e                X509_REVOKED_new
                0x00000000401b3f2e                X509_REVOKED_free
                0x00000000401b3f3e                d2i_X509_CRL_INFO
                0x00000000401b3f4e                i2d_X509_CRL_INFO
                0x00000000401b3f5e                X509_CRL_INFO_new
                0x00000000401b3f6e                X509_CRL_INFO_free
                0x00000000401b3f7e                d2i_X509_CRL
                0x00000000401b3f8e                i2d_X509_CRL
                0x00000000401b3f9e                X509_CRL_new
                0x00000000401b3fae                X509_CRL_free
                0x00000000401b3fbe                X509_CRL_dup
                0x00000000401b3fd1                X509_CRL_add0_revoked
                0x00000000401b4052                X509_CRL_verify
                0x00000000401b406c                X509_CRL_get0_by_serial
                0x00000000401b408c                X509_CRL_get0_by_cert
                0x00000000401b40fb                X509_CRL_set_default_method
                0x00000000401b4114                X509_CRL_METHOD_new
                0x00000000401b4179                X509_CRL_METHOD_free
                0x00000000401b4189                X509_CRL_set_meth_data
                0x00000000401b4193                X509_CRL_get_meth_data
                0x00000000401b41a0                d2i_X509_EXTENSION
                0x00000000401b41b0                i2d_X509_EXTENSION
                0x00000000401b41c0                X509_EXTENSION_new
                0x00000000401b41d0                X509_EXTENSION_free
                0x00000000401b41e0                d2i_X509_EXTENSIONS
                0x00000000401b41f0                i2d_X509_EXTENSIONS
                0x00000000401b4200                X509_EXTENSION_dup
                0x00000000401b459d                X509_NAME_ENTRY_free
                0x00000000401b45ad                d2i_X509_NAME_ENTRY
                0x00000000401b45bd                i2d_X509_NAME_ENTRY
                0x00000000401b45cd                X509_NAME_ENTRY_new
                0x00000000401b4afc                X509_NAME_ENTRY_dup
                0x00000000401b4b0f                d2i_X509_NAME
                0x00000000401b4b1f                i2d_X509_NAME
                0x00000000401b4b2f                X509_NAME_new
                0x00000000401b4b3f                X509_NAME_free
                0x00000000401b4cf1                X509_NAME_dup
                0x00000000401b4d04                X509_NAME_set
                0x00000000401b4d7c                d2i_X509_PUBKEY
                0x00000000401b4d8c                i2d_X509_PUBKEY
                0x00000000401b4d9c                X509_PUBKEY_new
                0x00000000401b4dac                X509_PUBKEY_free
                0x00000000401b4dbc                X509_PUBKEY_set
                0x00000000401b4ead                X509_PUBKEY_get
                0x00000000401b500c                d2i_PUBKEY
                0x00000000401b5075                i2d_PUBKEY
                0x00000000401b50cd                d2i_RSA_PUBKEY
                0x00000000401b5152                i2d_RSA_PUBKEY
                0x00000000401b51df                d2i_DSA_PUBKEY
                0x00000000401b5264                i2d_DSA_PUBKEY
                0x00000000401b52f1                d2i_EC_PUBKEY
                0x00000000401b5376                i2d_EC_PUBKEY
                0x00000000401b5403                X509_PUBKEY_set0_param
                0x00000000401b5480                X509_PUBKEY_get0_param
                0x00000000401b54eb                d2i_X509_REQ_INFO
                0x00000000401b54fb                i2d_X509_REQ_INFO
                0x00000000401b550b                X509_REQ_INFO_new
                0x00000000401b551b                X509_REQ_INFO_free
                0x00000000401b552b                d2i_X509_REQ
                0x00000000401b553b                i2d_X509_REQ
                0x00000000401b554b                X509_REQ_new
                0x00000000401b555b                X509_REQ_free
                0x00000000401b556b                X509_REQ_dup
                0x00000000401b5580                d2i_X509_SIG
                0x00000000401b5590                i2d_X509_SIG
                0x00000000401b55a0                X509_SIG_new
                0x00000000401b55b0                X509_SIG_free
                0x00000000401b55c0                d2i_NETSCAPE_SPKAC
                0x00000000401b55d0                i2d_NETSCAPE_SPKAC
                0x00000000401b55e0                NETSCAPE_SPKAC_new
                0x00000000401b55f0                NETSCAPE_SPKAC_free
                0x00000000401b5600                d2i_NETSCAPE_SPKI
                0x00000000401b5610                i2d_NETSCAPE_SPKI
                0x00000000401b5620                NETSCAPE_SPKI_new
                0x00000000401b5630                NETSCAPE_SPKI_free
                0x00000000401b575c                d2i_X509_CINF
                0x00000000401b576c                i2d_X509_CINF
                0x00000000401b577c                X509_CINF_new
                0x00000000401b578c                X509_CINF_free
                0x00000000401b579c                d2i_X509
                0x00000000401b57ac                i2d_X509
                0x00000000401b57bc                X509_new
                0x00000000401b57cc                X509_free
                0x00000000401b57dc                X509_dup
                0x00000000401b57ef                X509_get_ex_new_index
                0x00000000401b580e                X509_set_ex_data
                0x00000000401b581d                X509_get_ex_data
                0x00000000401b582c                d2i_X509_AUX
                0x00000000401b589c                i2d_X509_AUX
                0x00000000401b58e8                d2i_X509_CERT_AUX
                0x00000000401b58f8                i2d_X509_CERT_AUX
                0x00000000401b5908                X509_CERT_AUX_new
                0x00000000401b5960                X509_CERT_AUX_free
                0x00000000401b5970                X509_alias_set1
                0x00000000401b5a18                X509_keyid_set1
                0x00000000401b5ac0                X509_alias_get0
                0x00000000401b5b01                X509_keyid_get0
                0x00000000401b5b42                X509_add1_trust_object
                0x00000000401b5baf                X509_add1_reject_object
                0x00000000401b5c11                X509_trust_clear
                0x00000000401b5c50                X509_reject_clear
                0x00000000401b5c91                d2i_X509_CERT_PAIR
                0x00000000401b5ca1                i2d_X509_CERT_PAIR
                0x00000000401b5cb1                X509_CERT_PAIR_new
                0x00000000401b5cc1                X509_CERT_PAIR_free
                0x00000000401b5cd4                DES_xcbc_encrypt
                0x00000000401b644c                ERR_load_TS_strings
                0x00000000401b6484                ERR_load_CMS_strings
                0x00000000401b6506                OBJ_find_sigid_algs
                0x00000000401b658e                OBJ_find_sigid_by_algs
                0x00000000401b6616                OBJ_add_sigid
                0x00000000401b6724                OBJ_sigid_free
                0x00000000401b679b                EVP_whirlpool
                0x00000000401b67cb                EVP_PKEY_meth_find
                0x00000000401b6844                EVP_PKEY_meth_new
                0x00000000401b6962                EVP_PKEY_meth_free
                0x00000000401b6978                EVP_PKEY_meth_add0
                0x00000000401b69db                EVP_PKEY_CTX_free
                0x00000000401b6a2a                EVP_PKEY_CTX_dup
                0x00000000401b6c60                EVP_PKEY_CTX_new_id
                0x00000000401b6c72                EVP_PKEY_CTX_new
                0x00000000401b6c82                EVP_PKEY_CTX_ctrl
                0x00000000401b6d7a                EVP_PKEY_CTX_ctrl_str
                0x00000000401b6e5f                EVP_PKEY_CTX_get_operation
                0x00000000401b6e68                EVP_PKEY_CTX_set0_keygen_info
                0x00000000401b6e75                EVP_PKEY_CTX_set_data
                0x00000000401b6e7f                EVP_PKEY_CTX_get_data
                0x00000000401b6e89                EVP_PKEY_CTX_get0_pkey
                0x00000000401b6e93                EVP_PKEY_CTX_get0_peerkey
                0x00000000401b6e9d                EVP_PKEY_CTX_set_app_data
                0x00000000401b6ea7                EVP_PKEY_CTX_get_app_data
                0x00000000401b6eb1                EVP_PKEY_meth_set_init
                0x00000000401b6ebb                EVP_PKEY_meth_set_copy
                0x00000000401b6ec5                EVP_PKEY_meth_set_cleanup
                0x00000000401b6ecf                EVP_PKEY_meth_set_paramgen
                0x00000000401b6edd                EVP_PKEY_meth_set_keygen
                0x00000000401b6eeb                EVP_PKEY_meth_set_sign
                0x00000000401b6ef9                EVP_PKEY_meth_set_verify
                0x00000000401b6f07                EVP_PKEY_meth_set_verify_recover
                0x00000000401b6f15                EVP_PKEY_meth_set_signctx
                0x00000000401b6f23                EVP_PKEY_meth_set_verifyctx
                0x00000000401b6f37                EVP_PKEY_meth_set_encrypt
                0x00000000401b6f4b                EVP_PKEY_meth_set_decrypt
                0x00000000401b6f5f                EVP_PKEY_meth_set_derive
                0x00000000401b6f73                EVP_PKEY_meth_set_ctrl
                0x00000000401b6fa3                EVP_PKEY_asn1_get_count
                0x00000000401b6fc2                EVP_PKEY_asn1_get0
                0x00000000401b6ff2                EVP_PKEY_asn1_find
                0x00000000401b7095                EVP_PKEY_asn1_find_str
                0x00000000401b711c                EVP_PKEY_asn1_add0
                0x00000000401b717f                EVP_PKEY_asn1_get0_info
                0x00000000401b71d1                EVP_PKEY_get0_asn1
                0x00000000401b71db                EVP_PKEY_asn1_copy
                0x00000000401b72a3                EVP_PKEY_asn1_free
                0x00000000401b72e5                EVP_PKEY_asn1_new
                0x00000000401b745a                EVP_PKEY_asn1_add_alias
                0x00000000401b7497                EVP_PKEY_asn1_set_public
                0x00000000401b74b9                EVP_PKEY_asn1_set_private
                0x00000000401b74cb                EVP_PKEY_asn1_set_param
                0x00000000401b74f6                EVP_PKEY_asn1_set_free
                0x00000000401b7503                EVP_PKEY_asn1_set_ctrl
                0x00000000401b7510                EVP_PKEY_sign_init
                0x00000000401b757f                EVP_PKEY_sign
                0x00000000401b768b                EVP_PKEY_verify_init
                0x00000000401b76fa                EVP_PKEY_verify
                0x00000000401b776a                EVP_PKEY_verify_recover_init
                0x00000000401b77d9                EVP_PKEY_verify_recover
                0x00000000401b78e5                EVP_PKEY_encrypt_init
                0x00000000401b795a                EVP_PKEY_encrypt
                0x00000000401b7a6f                EVP_PKEY_decrypt_init
                0x00000000401b7ae4                EVP_PKEY_decrypt
                0x00000000401b7bf9                EVP_PKEY_derive_init
                0x00000000401b7c6e                EVP_PKEY_derive_set_peer
                0x00000000401b7e50                EVP_PKEY_derive
                0x00000000401b8066                ASN1_PCTX_new
                0x00000000401b80dd                ASN1_PCTX_free
                0x00000000401b80e8                ASN1_PCTX_get_flags
                0x00000000401b80f1                ASN1_PCTX_set_flags
                0x00000000401b80fa                ASN1_PCTX_get_nm_flags
                0x00000000401b8104                ASN1_PCTX_set_nm_flags
                0x00000000401b810e                ASN1_PCTX_get_cert_flags
                0x00000000401b8118                ASN1_PCTX_set_cert_flags
                0x00000000401b8122                ASN1_PCTX_get_oid_flags
                0x00000000401b812c                ASN1_PCTX_set_oid_flags
                0x00000000401b8136                ASN1_PCTX_get_str_flags
                0x00000000401b8140                ASN1_PCTX_set_str_flags
                0x00000000401b814a                asn1_template_print_ctx
                0x00000000401b8a85                ASN1_item_print
                0x00000000401b8c5f                EVP_DigestSignInit
                0x00000000401b8c70                EVP_DigestVerifyInit
                0x00000000401b8c81                EVP_DigestSignFinal
                0x00000000401b8dc0                EVP_DigestVerifyFinal
                0x00000000401b8ea0                WHIRLPOOL_Init
                0x00000000401b8eba                WHIRLPOOL_BitUpdate
                0x00000000401b91c3                WHIRLPOOL_Update
                0x00000000401b927f                WHIRLPOOL_Final
                0x00000000401b9386                WHIRLPOOL
                0x00000000401bc799                DHparams_print
                0x00000000401be77c                whirlpool_block
                0x00000000401bf309                EVP_PKEY_paramgen_init
                0x00000000401bf378                EVP_PKEY_paramgen
                0x00000000401bf431                EVP_PKEY_keygen_init
                0x00000000401bf4a0                EVP_PKEY_keygen
                0x00000000401bf559                EVP_PKEY_CTX_set_cb
                0x00000000401bf563                EVP_PKEY_CTX_get_cb
                0x00000000401bf56d                evp_pkey_set_cb_translate
                0x00000000401bf585                EVP_PKEY_CTX_get_keygen_info
                0x00000000401bf5ad                EVP_PKEY_new_mac_key
                0x00000000401bf73c                CMS_SignedData_init
                0x00000000401bf750                cms_set1_SignerIdentifier
                0x00000000401bf870                cms_SignerIdentifier_get0_signer_id
                0x00000000401bf8c7                cms_SignerIdentifier_cert_cmp
                0x00000000401bf944                CMS_get0_SignerInfos
                0x00000000401bf95f                CMS_get0_signers
                0x00000000401bf9e4                CMS_SignerInfo_set1_signer_cert
                0x00000000401bfa45                CMS_SignerInfo_get0_signer_id
                0x00000000401bfa54                CMS_SignerInfo_cert_cmp
                0x00000000401bfa63                CMS_set1_signers_certs
                0x00000000401bfb95                CMS_SignerInfo_get0_algs
                0x00000000401bfbcb                CMS_SignerInfo_sign
                0x00000000401bfe1f                cms_SignedData_final
                0x00000000401c0040                CMS_SignerInfo_verify
                0x00000000401c016d                cms_SignedData_init_bio
                0x00000000401c033a                CMS_SignerInfo_verify_content
                0x00000000401c04ee                CMS_add_smimecap
                0x00000000401c054e                CMS_add_simple_smimecap
                0x00000000401c0696                CMS_add_standard_smimecap
                0x00000000401c07d3                CMS_add1_signer
                0x00000000401c0d34                CMS_get0_RecipientInfos
                0x00000000401c0d4f                CMS_RecipientInfo_type
                0x00000000401c0d57                CMS_EnvelopedData_create
                0x00000000401c0e62                CMS_add1_recipient_cert
                0x00000000401c1046                CMS_RecipientInfo_ktri_get0_algs
                0x00000000401c10a9                CMS_RecipientInfo_ktri_get0_signer_id
                0x00000000401c10e7                CMS_RecipientInfo_ktri_cert_cmp
                0x00000000401c1125                CMS_RecipientInfo_set0_pkey
                0x00000000401c1163                CMS_RecipientInfo_kekri_id_cmp
                0x00000000401c11c2                CMS_add0_recipient_key
                0x00000000401c1411                CMS_RecipientInfo_kekri_get0_id
                0x00000000401c14b7                CMS_RecipientInfo_set0_key
                0x00000000401c14f9                CMS_RecipientInfo_decrypt
                0x00000000401c18cf                cms_EnvelopedData_init_bio
                0x00000000401c1d4c                EC_KEY_print
                0x00000000401c1dc7                ECParameters_print
                0x00000000401c1e39                ECPKParameters_print
                0x00000000401c2a5c                CMS_signed_get_attr_count
                0x00000000401c2a6b                CMS_signed_get_attr_by_NID
                0x00000000401c2a7a                CMS_signed_get_attr_by_OBJ
                0x00000000401c2a89                CMS_signed_get_attr
                0x00000000401c2a98                CMS_signed_delete_attr
                0x00000000401c2aa7                CMS_signed_add1_attr
                0x00000000401c2abf                CMS_signed_add1_attr_by_OBJ
                0x00000000401c2ad7                CMS_signed_add1_attr_by_NID
                0x00000000401c2aef                CMS_signed_add1_attr_by_txt
                0x00000000401c2b07                CMS_signed_get0_data_by_OBJ
                0x00000000401c2b16                CMS_unsigned_get_attr_count
                0x00000000401c2b25                CMS_unsigned_get_attr_by_NID
                0x00000000401c2b34                CMS_unsigned_get_attr_by_OBJ
                0x00000000401c2b43                CMS_unsigned_get_attr
                0x00000000401c2b52                CMS_unsigned_delete_attr
                0x00000000401c2b61                CMS_unsigned_add1_attr
                0x00000000401c2b79                CMS_unsigned_add1_attr_by_OBJ
                0x00000000401c2b91                CMS_unsigned_add1_attr_by_NID
                0x00000000401c2ba9                CMS_unsigned_add1_attr_by_txt
                0x00000000401c2bc1                CMS_unsigned_get0_data_by_OBJ
                0x00000000401c2d3e                d2i_CMS_ContentInfo
                0x00000000401c2d4e                i2d_CMS_ContentInfo
                0x00000000401c2d5e                CMS_ContentInfo_new
                0x00000000401c2d6e                CMS_ContentInfo_free
                0x00000000401c2d7e                CMS_ContentInfo_print_ctx
                0x00000000401c2d91                CMS_get0_type
                0x00000000401c2d9a                CMS_get0_content
                0x00000000401c2e75                CMS_dataFinal
                0x00000000401c2fe9                cms_content_bio
                0x00000000401c3039                CMS_dataInit
                0x00000000401c313a                CMS_get0_eContentType
                0x00000000401c3154                CMS_set1_eContentType
                0x00000000401c31af                CMS_is_detached
                0x00000000401c31d0                CMS_set_detached
                0x00000000401c3266                cms_Data_create
                0x00000000401c32a0                cms_DigestAlgorithm_set
                0x00000000401c32f1                cms_DigestAlgorithm_init_bio
                0x00000000401c33c4                cms_DigestAlgorithm_find_ctx
                0x00000000401c34a4                CMS_add0_CertificateChoices
                0x00000000401c3515                CMS_add0_cert
                0x00000000401c35be                CMS_add1_cert
                0x00000000401c3607                CMS_add0_RevocationInfoChoice
                0x00000000401c3678                CMS_add0_crl
                0x00000000401c36a9                CMS_add1_crl
                0x00000000401c36f2                CMS_get1_certs
                0x00000000401c37af                CMS_get1_crls
                0x00000000401c39a0                cms_EncryptedContent_init_bio
                0x00000000401c3d86                cms_EncryptedContent_init
                0x00000000401c3e12                CMS_EncryptedData_set1_key
                0x00000000401c3f1c                cms_EncryptedData_init_bio
                0x00000000401c3f48                AES_wrap_key
                0x00000000401c407f                AES_unwrap_key
                0x00000000401c41e0                cms_DigestedData_create
                0x00000000401c4277                cms_DigestedData_init_bio
                0x00000000401c428a                cms_DigestedData_do_final
                0x00000000401c43a8                CMS_stream
                0x00000000401c4424                d2i_CMS_bio
                0x00000000401c443a                i2d_CMS_bio
                0x00000000401c4450                PEM_read_bio_CMS
                0x00000000401c4471                PEM_write_bio_CMS
                0x00000000401c44b5                BIO_new_CMS
                0x00000000401c44c5                i2d_CMS_bio_stream
                0x00000000401c44d6                PEM_write_bio_CMS_stream
                0x00000000401c44ed                SMIME_write_CMS
                0x00000000401c457d                SMIME_read_CMS
                0x00000000401c4ebb                SMIME_read_ASN1
                0x00000000401c52e0                SMIME_crlf_copy
                0x00000000401c540b                i2d_ASN1_bio_stream
                0x00000000401c55a3                SMIME_write_ASN1
                0x00000000401c5c30                PEM_write_bio_ASN1_stream
                0x00000000401c5cb7                SMIME_text
                0x00000000401c6005                BIO_new_NDEF
                0x00000000401c6821                BIO_f_asn1
                0x00000000401c682c                BIO_asn1_set_prefix
                0x00000000401c6842                BIO_asn1_get_prefix
                0x00000000401c6858                BIO_asn1_set_suffix
                0x00000000401c686e                BIO_asn1_get_suffix
                0x00000000401c6890                chelp_snprintf
                0x00000000401c68cd                chelp_sprintf
                0x00000000401c6914                chelp_print
                0x00000000401c692c                chelp_printf
                0x00000000401c6994                chelp_mod_64_32_32
                0x00000000401c69a9                chelp_div_64_32_64
                0x00000000401c69bc                chelp_div_64_32_32
                0x00000000401c69c7                chelp_mul_64_64_64
                0x00000000401c69d4                BIO_printf
                0x00000000401c6a11                BIO_snprintf
                0x00000000401c6a47                chelp_abort
                0x00000000401c6a5a                RAND_poll
                0x00000000401c6a79                InitCryptoLibrary
                0x00000000401c6af0                chelp_malloc
                0x00000000401c6b07                chelp_realloc
                0x00000000401c6b2a                chelp_free
                0x00000000401c6b3a                chelp_swap
                0x00000000401c6b6e                chelp_qsort
                0x00000000401c6e82                chelp_bsearch
                0x00000000401c6f51                chelp_memchr
                0x00000000401c6f8a                chelp_memmove
                0x00000000401c7009                chelp_memcmp
                0x00000000401c7078                chelp_memcpy
                0x00000000401c70a4                chelp_memset
                0x00000000401c70d0                chelp_isupper
                0x00000000401c70e3                chelp_islower
                0x00000000401c70f6                chelp_toupper
                0x00000000401c7102                chelp_tolower
                0x00000000401c710e                chelp_isspace
                0x00000000401c712a                chelp_isdigit
                0x00000000401c713d                chelp_isxdigit
                0x00000000401c7165                chelp_isalpha
                0x00000000401c7182                chelp_isalnum
                0x00000000401c71ab                chelp_strtoul_ex
                0x00000000401c737c                chelp_strtoul
                0x00000000401c738c                chelp_strtol
                0x00000000401c739c                chelp_strcpy
                0x00000000401c73ca                chelp_strncpy
                0x00000000401c7437                chelp_strcat
                0x00000000401c7478                chelp_strcmp
                0x00000000401c74d8                chelp_strncmp
                0x00000000401c765a                chelp_stricmp
                0x00000000401c7699                chelp_strchr
                0x00000000401c76d1                chelp_strrchr
                0x00000000401c7705                chelp_strlen
                0x00000000401c772c                chelp_strncasecmp
                0x00000000401c7780                decryptcfg
                0x00000000401c7808                ASN1_BIT_STRING_set
                0x00000000401c7813                i2c_ASN1_BIT_STRING
                0x00000000401c7920                c2i_ASN1_BIT_STRING
                0x00000000401c7a99                ASN1_BIT_STRING_set_bit
                0x00000000401c7bf8                ASN1_BIT_STRING_get_bit
                0x00000000401c7c40                ASN1_BIT_STRING_check
                0x00000000401c7ca0                d2i_ASN1_type_bytes
                0x00000000401c7e45                i2d_ASN1_bytes
                0x00000000401c7efc                d2i_ASN1_bytes
                0x00000000401c854b                ASN1_d2i_bio
                0x00000000401c85bd                ASN1_item_d2i_bio
                0x00000000401c8634                ASN1_digest
                0x00000000401c86fb                ASN1_item_digest
                0x00000000401c8778                ASN1_dup
                0x00000000401c8833                ASN1_item_dup
                0x00000000401c88bc                ASN1_ENUMERATED_set
                0x00000000401c89d1                ASN1_ENUMERATED_get
                0x00000000401c8a49                BN_to_ASN1_ENUMERATED
                0x00000000401c8b50                ASN1_ENUMERATED_to_BN
                0x00000000401c8bc0                ASN1_GENERALIZEDTIME_check
                0x00000000401c8e32                ASN1_GENERALIZEDTIME_set_string
                0x00000000401c8eaf                ASN1_GENERALIZEDTIME_adj
                0x00000000401c900b                ASN1_GENERALIZEDTIME_set
                0x00000000401c9020                ASN1_i2d_bio
                0x00000000401c90de                ASN1_item_i2d_bio
                0x00000000401c9180                ASN1_INTEGER_dup
                0x00000000401c918b                ASN1_INTEGER_cmp
                0x00000000401c91cb                i2c_ASN1_INTEGER
                0x00000000401c9343                c2i_ASN1_INTEGER
                0x00000000401c953f                d2i_ASN1_UINTEGER
                0x00000000401c96ae                ASN1_INTEGER_set
                0x00000000401c97c3                ASN1_INTEGER_get
                0x00000000401c983d                BN_to_ASN1_INTEGER
                0x00000000401c9955                ASN1_INTEGER_to_BN
                0x00000000401c99d0                i2d_ASN1_OBJECT
                0x00000000401c9a67                a2d_ASN1_OBJECT
                0x00000000401c9f6e                i2t_ASN1_OBJECT
                0x00000000401c9f7e                i2a_ASN1_OBJECT
                0x00000000401ca064                ASN1_OBJECT_new
                0x00000000401ca0e0                ASN1_OBJECT_free
                0x00000000401ca159                c2i_ASN1_OBJECT
                0x00000000401ca304                d2i_ASN1_OBJECT
                0x00000000401ca390                ASN1_OBJECT_create
                0x00000000401ca3bc                ASN1_OCTET_STRING_dup
                0x00000000401ca3c7                ASN1_OCTET_STRING_cmp
                0x00000000401ca3d2                ASN1_OCTET_STRING_set
                0x00000000401ca3e0                ASN1_sign
                0x00000000401ca67e                ASN1_item_sign
                0x00000000401cb092                X509_NAME_print_ex
                0x00000000401cb572                ASN1_STRING_print_ex
                0x00000000401cb588                ASN1_STRING_to_UTF8
                0x00000000401cb5fc                d2i_ASN1_TIME
                0x00000000401cb60c                i2d_ASN1_TIME
                0x00000000401cb61c                ASN1_TIME_new
                0x00000000401cb62c                ASN1_TIME_free
                0x00000000401cb63c                ASN1_TIME_adj
                0x00000000401cb6ff                ASN1_TIME_set
                0x00000000401cb714                ASN1_TIME_check
                0x00000000401cb738                ASN1_TIME_to_generalizedtime
                0x00000000401cb82b                ASN1_TIME_set_string
                0x00000000401cb8ac                ASN1_TYPE_get
                0x00000000401cb8c5                ASN1_TYPE_set
                0x00000000401cb926                ASN1_TYPE_set1
                0x00000000401cb9b2                ASN1_TYPE_cmp
                0x00000000401cba00                ASN1_UTCTIME_check
                0x00000000401cbc24                ASN1_UTCTIME_set_string
                0x00000000401cbca1                ASN1_UTCTIME_adj
                0x00000000401cbe29                ASN1_UTCTIME_set
                0x00000000401cbe3e                ASN1_UTCTIME_cmp_time_t
                0x00000000401cbfb0                UTF8_getc
                0x00000000401cc33f                UTF8_putc
                0x00000000401cc568                ASN1_verify
                0x00000000401cc6d7                ASN1_item_verify
                0x00000000401cc8d0                AES_cbc_encrypt
                0x00000000401cc8f4                AES_cfb128_encrypt
                0x00000000401cc912                AES_cfb1_encrypt
                0x00000000401cc930                AES_cfb8_encrypt
                0x00000000401cc950                AES_ecb_encrypt
                0x00000000401cc968                AES_ofb128_encrypt
                0x00000000401cc980                ERR_load_ASN1_strings
                0x00000000401cc9ef                ASN1_check_infinite_end
                0x00000000401cc9fa                ASN1_const_check_infinite_end
                0x00000000401cca5e                ASN1_get_object
                0x00000000401ccc20                ASN1_put_object
                0x00000000401ccd22                ASN1_put_eoc
                0x00000000401ccd3e                ASN1_object_size
                0x00000000401ccd7a                asn1_Finish
                0x00000000401ccd85                asn1_const_Finish
                0x00000000401ccd90                asn1_GetSequence
                0x00000000401cce3e                ASN1_STRING_set
                0x00000000401ccf40                ASN1_STRING_copy
                0x00000000401ccf91                ASN1_STRING_set0
                0x00000000401ccfd1                ASN1_STRING_type_new
                0x00000000401cd048                ASN1_STRING_new
                0x00000000401cd058                ASN1_STRING_free
                0x00000000401cd08c                ASN1_STRING_dup
                0x00000000401cd0df                ASN1_STRING_cmp
                0x00000000401cd120                asn1_add_error
                0x00000000401cd188                ASN1_STRING_length
                0x00000000401cd190                ASN1_STRING_length_set
                0x00000000401cd198                ASN1_STRING_type
                0x00000000401cd1a1                ASN1_STRING_data
                0x00000000401cd1b0                ASN1_tag2str
                0x00000000401cdd8f                ASN1_parse_dump
                0x00000000401cddb8                ASN1_parse
                0x00000000401cddfa                BIO_dump_indent_cb
                0x00000000401ce20e                BIO_dump_cb
                0x00000000401ce21f                BIO_dump
                0x00000000401ce237                BIO_dump_indent
                0x00000000401cec0c                BIO_f_buffer
                0x00000000401cec20                BF_cfb64_encrypt
                0x00000000401cee08                BF_options
                0x00000000401cee13                BF_ecb_encrypt
                0x00000000401ceec4                BF_encrypt
                0x00000000401cf285                BF_decrypt
                0x00000000401cf646                BF_cbc_encrypt
                0x00000000401cfbd8                BF_ofb64_encrypt
                0x00000000401cfd68                BF_set_key
                0x00000000401d0b91                BIO_f_base64
                0x00000000401d1290                BIO_f_cipher
                0x00000000401d129b                BIO_set_cipher
                0x00000000401d1350                ERR_load_BIO_strings
                0x00000000401d170a                BIO_f_md
                0x00000000401d1720                BN_uadd
                0x00000000401d1864                BN_usub
                0x00000000401d1a5e                BN_add
                0x00000000401d1b09                BN_sub
                0x00000000401d1c1c                bn_mul_add_words
                0x00000000401d1e84                bn_mul_words
                0x00000000401d20d0                bn_sqr_words
                0x00000000401d2223                bn_div_words
                0x00000000401d2373                bn_add_words
                0x00000000401d245f                bn_sub_words
                0x00000000401d2569                bn_mul_comba8
                0x00000000401d3e0e                bn_mul_comba4
                0x00000000401d442d                bn_sqr_comba8
                0x00000000401d5477                bn_sqr_comba4
                0x00000000401d5870                BN_BLINDING_free
                0x00000000401d58c7                BN_BLINDING_new
                0x00000000401d59b2                BN_BLINDING_invert_ex
                0x00000000401d5a15                BN_BLINDING_invert
                0x00000000401d5a2b                BN_BLINDING_get_thread_id
                0x00000000401d5a35                BN_BLINDING_set_thread_id
                0x00000000401d5a3f                BN_BLINDING_thread_id
                0x00000000401d5a49                BN_BLINDING_get_flags
                0x00000000401d5a53                BN_BLINDING_set_flags
                0x00000000401d5a5d                BN_BLINDING_create_param
                0x00000000401d5bf1                BN_BLINDING_update
                0x00000000401d5ce3                BN_BLINDING_convert_ex
                0x00000000401d5dbe                BN_BLINDING_convert
                0x00000000401d5dd4                BN_CTX_init
                0x00000000401d5e4f                BN_CTX_new
                0x00000000401d5eef                BN_CTX_free
                0x00000000401d5f6f                BN_CTX_start
                0x00000000401d6055                BN_CTX_end
                0x00000000401d60ca                BN_CTX_get
                0x00000000401d6230                BN_div
                0x00000000401d6d54                ERR_load_BN_strings
                0x00000000401d6e6d                BN_exp
                0x00000000401d700d                BN_mod_exp_recp
                0x00000000401d7499                BN_mod_exp_mont_consttime
                0x00000000401d7acc                BN_mod_exp_mont
                0x00000000401d80ab                BN_mod_exp_mont_word
                0x00000000401d84ed                BN_mod_exp
                0x00000000401d8539                BN_mod_exp_simple
                0x00000000401d89b0                BN_gcd
                0x00000000401d8bc6                BN_mod_inverse
                0x00000000401d9640                BN_nnmod
                0x00000000401d969c                BN_mod_add
                0x00000000401d96ea                BN_mod_add_quick
                0x00000000401d973e                BN_mod_sub
                0x00000000401d978c                BN_mod_sub_quick
                0x00000000401d97d4                BN_mod_mul
                0x00000000401d988c                BN_mod_sqr
                0x00000000401d98e2                BN_mod_lshift1
                0x00000000401d9930                BN_mod_lshift1_quick
                0x00000000401d9984                BN_mod_lshift_quick
                0x00000000401d9a7f                BN_mod_lshift
                0x00000000401d9e8c                BN_mod_mul_montgomery
                0x00000000401d9f41                BN_from_montgomery
                0x00000000401d9fcb                BN_MONT_CTX_init
                0x00000000401da014                BN_MONT_CTX_new
                0x00000000401da052                BN_MONT_CTX_free
                0x00000000401da093                BN_MONT_CTX_set
                0x00000000401da28d                BN_MONT_CTX_copy
                0x00000000401da30d                BN_MONT_CTX_set_locked
                0x00000000401da410                bn_sub_part_words
                0x00000000401da6a3                bn_add_part_words
                0x00000000401daa61                bn_mul_normal
                0x00000000401dabc9                bn_mul_recursive
                0x00000000401db05b                bn_mul_high
                0x00000000401db4d7                bn_mul_part_recursive
                0x00000000401db9ab                BN_mul
                0x00000000401dbcfb                bn_mul_low_normal
                0x00000000401dbddd                bn_mul_low_recursive
                0x00000000401dc017                BN_GENCB_call
                0x00000000401dc065                BN_is_prime_fasttest_ex
                0x00000000401dc534                BN_is_prime_ex
                0x00000000401dc547                BN_generate_prime_ex
                0x00000000401dca98                BN_RECP_CTX_init
                0x00000000401dcac7                BN_RECP_CTX_new
                0x00000000401dcb05                BN_RECP_CTX_free
                0x00000000401dcb39                BN_RECP_CTX_set
                0x00000000401dcb8f                BN_reciprocal
                0x00000000401dcc28                BN_div_recp
                0x00000000401dced3                BN_mod_mul_reciprocal
                0x00000000401dcf9c                BN_lshift1
                0x00000000401dd05b                BN_rshift1
                0x00000000401dd133                BN_lshift
                0x00000000401dd293                BN_rshift
                0x00000000401dd440                bn_sqr_normal
                0x00000000401dd51c                bn_sqr_recursive
                0x00000000401dd6da                BN_sqr
                0x00000000401dd9c4                BIO_s_null
                0x00000000401dd9d0                ERR_load_BUF_strings
                0x00000000401dda10                CAST_cfb64_encrypt
                0x00000000401ddbf8                CAST_ecb_encrypt
                0x00000000401ddca8                CAST_encrypt
                0x00000000401de104                CAST_decrypt
                0x00000000401de586                CAST_cbc_encrypt
                0x00000000401deb18                CAST_ofb64_encrypt
                0x00000000401deca8                CAST_set_key
                0x00000000401df740                DES_ede3_cfb64_encrypt
                0x00000000401df96b                DES_ede3_cfb_encrypt
                0x00000000401e0170                DES_cfb64_encrypt
                0x00000000401e0390                DES_cfb_encrypt
                0x00000000401e09bc                ERR_load_COMP_strings
                0x00000000401e09f4                ERR_load_CONF_strings
                0x00000000401e0a2c                ERR_load_CRYPTO_strings
                0x00000000401e0a70                d2i_PrivateKey
                0x00000000401e0bd1                d2i_AutoPrivateKey
                0x00000000401e0d3e                d2i_DHparams
                0x00000000401e0d4e                i2d_DHparams
                0x00000000401e0d5e                DHparams_dup
                0x00000000401e0d80                DH_check
                0x00000000401e0eb9                DH_check_pub_key
                0x00000000401e0f64                ERR_load_DH_strings
                0x00000000401e0fa0                DH_generate_parameters_ex
                0x00000000401e11a8                EVP_MD_CTX_init
                0x00000000401e11bd                EVP_MD_CTX_create
                0x00000000401e11f4                EVP_DigestInit_ex
                0x00000000401e12d3                EVP_DigestInit
                0x00000000401e1308                EVP_DigestUpdate
                0x00000000401e1314                EVP_DigestFinal_ex
                0x00000000401e13af                EVP_MD_CTX_cleanup
                0x00000000401e144c                EVP_MD_CTX_destroy
                0x00000000401e146c                EVP_Digest
                0x00000000401e1516                EVP_MD_CTX_copy_ex
                0x00000000401e1653                EVP_MD_CTX_copy
                0x00000000401e1683                EVP_DigestFinal
                0x00000000401e176e                d2i_DSA_SIG
                0x00000000401e177e                i2d_DSA_SIG
                0x00000000401e178e                DSA_SIG_new
                0x00000000401e179e                DSA_SIG_free
                0x00000000401e17ae                d2i_DSAPrivateKey
                0x00000000401e17be                i2d_DSAPrivateKey
                0x00000000401e17ce                d2i_DSAparams
                0x00000000401e17de                i2d_DSAparams
                0x00000000401e17ee                d2i_DSAPublicKey
                0x00000000401e17fe                i2d_DSAPublicKey
                0x00000000401e180e                DSAparams_dup
                0x00000000401e1824                ERR_load_DSA_strings
                0x00000000401e1860                dsa_builtin_paramgen
                0x00000000401e2155                DSA_generate_parameters_ex
                0x00000000401e2200                DSA_generate_key
                0x00000000401e2368                DSA_set_default_method
                0x00000000401e2375                DSA_get_default_method
                0x00000000401e2398                DSA_set_method
                0x00000000401e23df                DSA_new_method
                0x00000000401e24e0                DSA_new
                0x00000000401e24f0                DSA_free
                0x00000000401e25bf                DSA_up_ref
                0x00000000401e25ec                DSA_size
                0x00000000401e2641                DSA_get_ex_new_index
                0x00000000401e2660                DSA_set_ex_data
                0x00000000401e266f                DSA_get_ex_data
                0x00000000401e267e                DSA_dup_DH
                0x00000000401e301c                DSA_OpenSSL
                0x00000000401e3028                DSA_do_sign
                0x00000000401e3035                DSA_sign
                0x00000000401e30b9                DSA_sign_setup
                0x00000000401e30c8                DSA_do_verify
                0x00000000401e30d5                DSA_verify
                0x00000000401e3160                ERR_load_DSO_strings
                0x00000000401e3ab1                EC_GROUP_get_basis_type
                0x00000000401e3b16                EC_GROUP_get_trinomial_basis
                0x00000000401e3b9f                EC_GROUP_get_pentanomial_basis
                0x00000000401e3c76                X9_62_PENTANOMIAL_new
                0x00000000401e3c86                X9_62_PENTANOMIAL_free
                0x00000000401e3c96                X9_62_CHARACTERISTIC_TWO_new
                0x00000000401e3ca6                X9_62_CHARACTERISTIC_TWO_free
                0x00000000401e3cb6                ECPARAMETERS_new
                0x00000000401e3cc6                ECPARAMETERS_free
                0x00000000401e3cd6                d2i_ECPKPARAMETERS
                0x00000000401e3ce6                i2d_ECPKPARAMETERS
                0x00000000401e3cf6                ECPKPARAMETERS_new
                0x00000000401e3d06                ECPKPARAMETERS_free
                0x00000000401e490e                d2i_EC_PRIVATEKEY
                0x00000000401e491e                i2d_EC_PRIVATEKEY
                0x00000000401e492e                EC_PRIVATEKEY_new
                0x00000000401e493e                EC_PRIVATEKEY_free
                0x00000000401e494e                d2i_ECPKParameters
                0x00000000401e4a0b                i2d_ECPKParameters
                0x00000000401e4a99                d2i_ECPrivateKey
                0x00000000401e4d16                i2d_ECPrivateKey
                0x00000000401e50a6                i2d_ECParameters
                0x00000000401e50de                d2i_ECParameters
                0x00000000401e51c4                o2i_ECPublicKey
                0x00000000401e52be                i2o_ECPublicKey
                0x00000000401e5408                EC_GROUP_new_by_curve_name
                0x00000000401e591c                EC_get_builtin_curves
                0x00000000401e5970                EC_GROUP_new_curve_GFp
                0x00000000401e5a58                EC_GROUP_new_curve_GF2m
                0x00000000401e5ad4                ERR_load_EC_strings
                0x00000000401e5b10                EC_KEY_new
                0x00000000401e5b9b                EC_KEY_free
                0x00000000401e5c1d                EC_KEY_new_by_curve_name
                0x00000000401e5c68                EC_KEY_copy
                0x00000000401e5e23                EC_KEY_dup
                0x00000000401e5e6d                EC_KEY_up_ref
                0x00000000401e5e9a                EC_KEY_generate_key
                0x00000000401e6079                EC_KEY_check_key
                0x00000000401e6329                EC_KEY_get0_group
                0x00000000401e6333                EC_KEY_set_group
                0x00000000401e6376                EC_KEY_get0_private_key
                0x00000000401e6380                EC_KEY_set_private_key
                0x00000000401e63c3                EC_KEY_get0_public_key
                0x00000000401e63cd                EC_KEY_set_public_key
                0x00000000401e6414                EC_KEY_get_enc_flags
                0x00000000401e641d                EC_KEY_set_enc_flags
                0x00000000401e6426                EC_KEY_get_conv_form
                0x00000000401e642f                EC_KEY_set_conv_form
                0x00000000401e6446                EC_KEY_get_key_method_data
                0x00000000401e6455                EC_KEY_insert_key_method_data
                0x00000000401e64f4                EC_KEY_set_asn1_flag
                0x00000000401e6508                EC_KEY_precompute_mult
                0x00000000401e6530                EC_GROUP_new
                0x00000000401e6640                EC_GROUP_method_of
                0x00000000401e6649                EC_METHOD_get_field_type
                0x00000000401e6651                EC_GROUP_get0_generator
                0x00000000401e665b                EC_GROUP_get_order
                0x00000000401e6690                EC_GROUP_get_cofactor
                0x00000000401e66c5                EC_GROUP_set_curve_name
                0x00000000401e66ce                EC_GROUP_get_curve_name
                0x00000000401e66d7                EC_GROUP_set_asn1_flag
                0x00000000401e66e0                EC_GROUP_get_asn1_flag
                0x00000000401e66e9                EC_GROUP_set_point_conversion_form
                0x00000000401e66f2                EC_GROUP_get_point_conversion_form
                0x00000000401e66fb                EC_GROUP_set_seed
                0x00000000401e678e                EC_GROUP_get0_seed
                0x00000000401e6798                EC_GROUP_get_seed_len
                0x00000000401e67a2                EC_GROUP_set_curve_GFp
                0x00000000401e67e1                EC_GROUP_get_curve_GFp
                0x00000000401e681b                EC_GROUP_set_curve_GF2m
                0x00000000401e6855                EC_GROUP_get_curve_GF2m
                0x00000000401e6891                EC_GROUP_get_degree
                0x00000000401e68cb                EC_GROUP_check_discriminant
                0x00000000401e6905                EC_EX_DATA_set_data
                0x00000000401e69d5                EC_EX_DATA_get_data
                0x00000000401e6a0a                EC_EX_DATA_free_data
                0x00000000401e6a59                EC_EX_DATA_clear_free_data
                0x00000000401e6aa8                EC_EX_DATA_free_all_data
                0x00000000401e6af4                EC_EX_DATA_clear_free_all_data
                0x00000000401e6b40                EC_POINT_new
                0x00000000401e6c0e                EC_POINT_free
                0x00000000401e6c3c                EC_GROUP_free
                0x00000000401e6ca1                EC_POINT_clear_free
                0x00000000401e6ce9                EC_GROUP_clear_free
                0x00000000401e6d75                EC_POINT_copy
                0x00000000401e6de1                EC_GROUP_set_generator
                0x00000000401e6ed0                EC_GROUP_copy
                0x00000000401e70fa                EC_GROUP_dup
                0x00000000401e7150                EC_POINT_dup
                0x00000000401e71a6                EC_POINT_method_of
                0x00000000401e71af                EC_POINT_set_to_infinity
                0x00000000401e7214                EC_POINT_set_Jprojective_coordinates_GFp
                0x00000000401e7279                EC_POINT_get_Jprojective_coordinates_GFp
                0x00000000401e72e1                EC_POINT_set_affine_coordinates_GFp
                0x00000000401e7349                EC_POINT_set_affine_coordinates_GF2m
                0x00000000401e73b1                EC_POINT_get_affine_coordinates_GFp
                0x00000000401e7419                EC_POINT_get_affine_coordinates_GF2m
                0x00000000401e7481                EC_POINT_set_compressed_coordinates_GFp
                0x00000000401e74e9                EC_POINT_set_compressed_coordinates_GF2m
                0x00000000401e7551                EC_POINT_point2oct
                0x00000000401e75b9                EC_POINT_oct2point
                0x00000000401e7621                EC_POINT_add
                0x00000000401e7693                EC_POINT_dbl
                0x00000000401e7701                EC_POINT_invert
                0x00000000401e776b                EC_POINT_is_at_infinity
                0x00000000401e77d3                EC_POINT_is_on_curve
                0x00000000401e783b                EC_POINT_cmp
                0x00000000401e78a8                EC_GROUP_cmp
                0x00000000401e7b2d                EC_POINT_make_affine
                0x00000000401e7b95                EC_POINTs_make_affine
                0x00000000401e7c21                EC_POINTs_mul
                0x00000000401e7c51                EC_POINT_mul
                0x00000000401e7c89                EC_GROUP_precompute_mult
                0x00000000401e7cb6                EC_GROUP_have_precompute_mult
                0x00000000401e80ee                ec_wNAF_mul
                0x00000000401e8fcf                ec_wNAF_precompute_mult
                0x00000000401e9620                ec_wNAF_have_precompute_mult
                0x00000000401e9650                EC_POINT_point2bn
                0x00000000401e9716                EC_POINT_bn2point
                0x00000000401e980f                EC_POINT_point2hex
                0x00000000401e9918                EC_POINT_hex2point
                0x00000000401e9988                ERR_load_ECDH_strings
                0x00000000401e99c0                ECDH_compute_key
                0x00000000401e9a65                ECDH_set_default_method
                0x00000000401e9a72                ECDH_get_default_method
                0x00000000401e9b29                ecdh_check
                0x00000000401e9b89                ECDH_set_method
                0x00000000401e9bb3                ECDH_get_ex_new_index
                0x00000000401e9bd2                ECDH_set_ex_data
                0x00000000401e9c13                ECDH_get_ex_data
                0x00000000401ea001                ECDH_OpenSSL
                0x00000000401ea00c                ec_GFp_mont_field_set_to_one
                0x00000000401ea056                ec_GFp_mont_field_decode
                0x00000000401ea099                ec_GFp_mont_field_encode
                0x00000000401ea0e6                ec_GFp_mont_field_sqr
                0x00000000401ea12f                ec_GFp_mont_field_mul
                0x00000000401ea178                ec_GFp_mont_group_set_curve
                0x00000000401ea320                ec_GFp_mont_group_copy
                0x00000000401ea408                ec_GFp_mont_group_clear_finish
                0x00000000401ea45b                ec_GFp_mont_group_finish
                0x00000000401ea4ae                ec_GFp_mont_group_init
                0x00000000401ea4dc                EC_GFp_mont_method
                0x00000000401ea4f0                ec_GFp_nist_field_sqr
                0x00000000401ea5cb                ec_GFp_nist_field_mul
                0x00000000401ea6b4                ec_GFp_nist_group_set_curve
                0x00000000401ea83e                ec_GFp_nist_group_copy
                0x00000000401ea857                EC_GFp_nist_method
                0x00000000401ea870                ec_GFp_simple_is_at_infinity
                0x00000000401ea880                ec_GFp_simple_field_sqr
                0x00000000401ea898                ec_GFp_simple_field_mul
                0x00000000401ea8b3                ec_GFp_simple_point_copy
                0x00000000401ea918                ec_GFp_simple_group_copy
                0x00000000401ea98f                ec_GFp_simple_point_set_to_infinity
                0x00000000401ea9af                ec_GFp_simple_get_Jprojective_coordinates_GFp
                0x00000000401eab36                ec_GFp_simple_group_get_curve
                0x00000000401eaca5                ec_GFp_simple_point_clear_finish
                0x00000000401eacda                ec_GFp_simple_group_clear_finish
                0x00000000401ead0e                ec_GFp_simple_points_make_affine
                0x00000000401eb27e                ec_GFp_simple_point_get_affine_coordinates
                0x00000000401eb5bd                ec_GFp_simple_make_affine
                0x00000000401eb6d4                ec_GFp_simple_cmp
                0x00000000401eb987                ec_GFp_simple_is_on_curve
                0x00000000401ebc8f                ec_GFp_simple_invert
                0x00000000401ebcd8                ec_GFp_simple_dbl
                0x00000000401ec184                ec_GFp_simple_add
                0x00000000401ec78b                ec_GFp_simple_group_get_degree
                0x00000000401ec79a                ec_GFp_simple_oct2point
                0x00000000401ecb27                ec_GFp_simple_point2oct
                0x00000000401ecea6                ec_GFp_simple_set_Jprojective_coordinates_GFp
                0x00000000401ed08c                ec_GFp_simple_set_compressed_coordinates
                0x00000000401ed518                ec_GFp_simple_point_set_affine_coordinates
                0x00000000401ed5a5                ec_GFp_simple_point_finish
                0x00000000401ed5d3                ec_GFp_simple_group_finish
                0x00000000401ed607                ec_GFp_simple_point_init
                0x00000000401ed641                ec_GFp_simple_group_init
                0x00000000401ed684                ec_GFp_simple_group_check_discriminant
                0x00000000401ed8b5                ec_GFp_simple_group_set_curve
                0x00000000401edaad                EC_GFp_simple_method
                0x00000000401edab8                ERR_load_ECDSA_strings
                0x00000000401edb29                ECDSA_set_default_method
                0x00000000401edb36                ECDSA_get_default_method
                0x00000000401edbed                ecdsa_check
                0x00000000401edc4d                ECDSA_set_method
                0x00000000401edc77                ECDSA_size
                0x00000000401edd39                ECDSA_get_ex_new_index
                0x00000000401edd58                ECDSA_set_ex_data
                0x00000000401edd99                ECDSA_get_ex_data
                0x00000000401eeacb                ECDSA_OpenSSL
                0x00000000401eead8                ECDSA_do_sign_ex
                0x00000000401eeb44                ECDSA_do_sign
                0x00000000401eeb5c                ECDSA_sign_ex
                0x00000000401eebe8                ECDSA_sign
                0x00000000401eec0a                ECDSA_sign_setup
                0x00000000401eec68                ECDSA_do_verify
                0x00000000401eecc6                ECDSA_verify
                0x00000000401eed50                EVP_EncodeInit
                0x00000000401eed6a                EVP_EncodeBlock
                0x00000000401eeea5                EVP_EncodeFinal
                0x00000000401eef02                EVP_EncodeUpdate
                0x00000000401ef032                EVP_DecodeInit
                0x00000000401ef053                EVP_DecodeBlock
                0x00000000401ef1b5                EVP_DecodeUpdate
                0x00000000401ef48f                EVP_DecodeFinal
                0x00000000401ef4f0                EVP_set_pw_prompt
                0x00000000401ef51d                EVP_get_pw_prompt
                0x00000000401ef538                EVP_read_pw_string_min
                0x00000000401ef612                EVP_read_pw_string
                0x00000000401ef62a                EVP_BytesToKey
                0x00000000401ef8f5                EVP_PBE_alg_add_type
                0x00000000401ef9b5                EVP_PBE_alg_add
                0x00000000401efa25                EVP_PBE_find
                0x00000000401efaec                EVP_PBE_CipherInit
                0x00000000401efcc6                EVP_PBE_cleanup
                0x00000000401efcf0                EVP_PKCS82PKEY
                0x00000000401efe2b                EVP_PKEY2PKCS8_broken
                0x00000000401eff33                EVP_PKEY2PKCS8
                0x00000000401eff43                PKCS8_set_broken
                0x00000000401eff95                EVP_PKEY_get_attr_count
                0x00000000401effa4                EVP_PKEY_get_attr_by_NID
                0x00000000401effb3                EVP_PKEY_get_attr_by_OBJ
                0x00000000401effc2                EVP_PKEY_get_attr
                0x00000000401effd1                EVP_PKEY_delete_attr
                0x00000000401effe0                EVP_PKEY_add1_attr
                0x00000000401efff8                EVP_PKEY_add1_attr_by_OBJ
                0x00000000401f0010                EVP_PKEY_add1_attr_by_NID
                0x00000000401f0028                EVP_PKEY_add1_attr_by_txt
                0x00000000401f0040                HMAC_Init_ex
                0x00000000401f0274                HMAC_Update
                0x00000000401f0283                HMAC_Final
                0x00000000401f0318                HMAC_CTX_init
                0x00000000401f0346                HMAC_Init
                0x00000000401f03a2                HMAC_CTX_copy
                0x00000000401f0438                HMAC_CTX_cleanup
                0x00000000401f0478                HMAC
                0x00000000401f0549                HMAC_CTX_set_flags
                0x00000000401f0590                i2d_PrivateKey
                0x00000000401f0f80                RAND_SSLeay
                0x00000000401f0fb4                d2i_NETSCAPE_CERT_SEQUENCE
                0x00000000401f0fc4                i2d_NETSCAPE_CERT_SEQUENCE
                0x00000000401f0fd4                NETSCAPE_CERT_SEQUENCE_new
                0x00000000401f0fe4                NETSCAPE_CERT_SEQUENCE_free
                0x00000000401f0ff4                OPENSSL_gmtime
                0x00000000401f0fff                OPENSSL_gmtime_adj
                0x00000000401f12a8                PKCS12_PBE_add
                0x00000000401f12ae                PKCS12_PBE_keyivgen
                0x00000000401f14bc                PKCS12_key_gen_uni
                0x00000000401f19d9                PKCS12_key_gen_asc
                0x00000000401f1ab8                PKCS8_decrypt
                0x00000000401f1adc                OPENSSL_asc2uni
                0x00000000401f1b6b                OPENSSL_uni2asc
                0x00000000401f1bec                i2d_PKCS12_bio
                0x00000000401f1c02                d2i_PKCS12_bio
                0x00000000401f1c18                PKCS12_x5092certbag
                0x00000000401f1c32                PKCS12_x509crl2certbag
                0x00000000401f1c4c                PKCS12_certbag2x509
                0x00000000401f1ca3                PKCS12_certbag2x509crl
                0x00000000401f1cfc                PKCS5_PBE_add
                0x00000000401f1d02                PKCS5_PBE_keyivgen
                0x00000000401f1fe4                PKCS5_PBKDF2_HMAC
                0x00000000401f2204                PKCS5_PBKDF2_HMAC_SHA1
                0x00000000401f2272                PKCS5_v2_PBE_keyivgen
                0x00000000401f2674                d2i_PBEPARAM
                0x00000000401f2684                i2d_PBEPARAM
                0x00000000401f2694                PBEPARAM_new
                0x00000000401f26a4                PBEPARAM_free
                0x00000000401f26b4                PKCS5_pbe_set0_algor
                0x00000000401f286f                PKCS5_pbe_set
                0x00000000401f2904                d2i_PBE2PARAM
                0x00000000401f2914                i2d_PBE2PARAM
                0x00000000401f2924                PBE2PARAM_new
                0x00000000401f2934                PBE2PARAM_free
                0x00000000401f2944                d2i_PBKDF2PARAM
                0x00000000401f2954                i2d_PBKDF2PARAM
                0x00000000401f2964                PBKDF2PARAM_new
                0x00000000401f2974                PBKDF2PARAM_free
                0x00000000401f2984                PKCS5_pbe2_set_iv
                0x00000000401f2e9d                PKCS5_pbe2_set
                0x00000000401f2ee0                d2i_PKCS8_PRIV_KEY_INFO
                0x00000000401f2ef0                i2d_PKCS8_PRIV_KEY_INFO
                0x00000000401f2f00                PKCS8_PRIV_KEY_INFO_new
                0x00000000401f2f10                PKCS8_PRIV_KEY_INFO_free
                0x00000000401f2f20                PKCS8_pkey_set0
                0x00000000401f2feb                PKCS8_pkey_get0
                0x00000000401f3080                EVP_SignFinal
                0x00000000401f3260                EVP_VerifyFinal
                0x00000000401f3451                policy_cache_free
                0x00000000401f3491                policy_cache_set
                0x00000000401f37e5                policy_cache_find_data
                0x00000000401f3820                policy_data_free
                0x00000000401f3865                policy_data_new
                0x00000000401f3964                policy_cache_set_mapping
                0x00000000401f3bce                X509_policy_tree_free
                0x00000000401f3c7a                X509_policy_check
                0x00000000401f46e8                d2i_PKCS8PrivateKey_bio
                0x00000000401f47fc                PEM_read_bio_PKCS8
                0x00000000401f481d                PEM_write_bio_PKCS8
                0x00000000401f4861                PEM_read_bio_PKCS8_PRIV_KEY_INFO
                0x00000000401f4882                PEM_write_bio_PKCS8_PRIV_KEY_INFO
                0x00000000401f4ac8                i2d_PKCS8PrivateKey_nid_bio
                0x00000000401f4af9                i2d_PKCS8PrivateKey_bio
                0x00000000401f4b2a                PEM_write_bio_PKCS8PrivateKey
                0x00000000401f4b5b                PEM_write_bio_PKCS8PrivateKey_nid
                0x00000000401f4b8c                PKCS7_add_attrib_smimecap
                0x00000000401f4c0f                PKCS7_get_smimecap
                0x00000000401f4c5e                PKCS7_simple_smimecap
                0x00000000401f4da4                PKCS7_add_attrib_content_type
                0x00000000401f4e03                PKCS7_add0_attrib_signing_time
                0x00000000401f4e66                PKCS7_add1_attrib_digest
                0x00000000401f67e2                RSA_PKCS1_SSLeay
                0x00000000401f67f0                RSA_padding_add_none
                0x00000000401f685c                RSA_padding_check_none
                0x00000000401f68e4                PKCS1_MGF1
                0x00000000401f6ad9                RSA_padding_check_PKCS1_OAEP
                0x00000000401f6d5d                RSA_padding_add_PKCS1_OAEP
                0x00000000401f6f60                RSA_padding_add_PKCS1_type_1
                0x00000000401f6ffb                RSA_padding_check_PKCS1_type_1
                0x00000000401f7144                RSA_padding_add_PKCS1_type_2
                0x00000000401f7205                RSA_padding_check_PKCS1_type_2
                0x00000000401f7320                RSA_verify_PKCS1_PSS
                0x00000000401f76d3                RSA_padding_add_PKCS1_PSS
                0x00000000401f79ac                RSA_padding_add_SSLv23
                0x00000000401f7a80                RSA_padding_check_SSLv23
                0x00000000401f7be0                RSA_padding_add_X931
                0x00000000401f7c96                RSA_padding_check_X931
                0x00000000401f7db2                RSA_X931_hash_id
                0x00000000401f7df4                ASN1_bn_print
                0x00000000401f7ff0                X509_ocspid_print
                0x00000000401f8178                X509_signature_print
                0x00000000401f827a                ASN1_STRING_print
                0x00000000401f8333                ASN1_GENERALIZEDTIME_print
                0x00000000401f85e8                ASN1_UTCTIME_print
                0x00000000401f8754                ASN1_TIME_print
                0x00000000401f878d                X509_print_ex
                0x00000000401f8cd1                X509_print
                0x00000000401f8ce6                X509_NAME_print
                0x00000000401f8ddc                X509_CERT_AUX_print
                0x00000000401f937c                UI_free
                0x00000000401f93bb                UI_add_input_string
                0x00000000401f93ec                UI_dup_input_string
                0x00000000401f9494                UI_add_verify_string
                0x00000000401f94c5                UI_dup_verify_string
                0x00000000401f956d                UI_add_input_boolean
                0x00000000401f9597                UI_dup_input_boolean
                0x00000000401f973f                UI_add_info_string
                0x00000000401f977c                UI_dup_info_string
                0x00000000401f9803                UI_add_error_string
                0x00000000401f9840                UI_dup_error_string
                0x00000000401f98c7                UI_construct_prompt
                0x00000000401f99f7                UI_add_user_data
                0x00000000401f9a05                UI_get0_user_data
                0x00000000401f9a0f                UI_process
                0x00000000401f9b44                UI_ctrl
                0x00000000401f9bd1                UI_get_ex_new_index
                0x00000000401f9bf0                UI_set_ex_data
                0x00000000401f9bff                UI_get_ex_data
                0x00000000401f9c0e                UI_set_default_method
                0x00000000401f9c1b                UI_get_default_method
                0x00000000401f9c3e                UI_new_method
                0x00000000401f9ccd                UI_new
                0x00000000401f9cdd                UI_get_method
                0x00000000401f9ce6                UI_set_method
                0x00000000401f9cf2                UI_create_method
                0x00000000401f9d4b                UI_destroy_method
                0x00000000401f9d75                UI_method_set_opener
                0x00000000401f9d90                UI_method_set_writer
                0x00000000401f9dab                UI_method_set_flusher
                0x00000000401f9dc6                UI_method_set_reader
                0x00000000401f9de1                UI_method_set_closer
                0x00000000401f9dfc                UI_method_set_prompt_constructor
                0x00000000401f9e17                UI_method_get_opener
                0x00000000401f9e2d                UI_method_get_writer
                0x00000000401f9e43                UI_method_get_flusher
                0x00000000401f9e59                UI_method_get_reader
                0x00000000401f9e6f                UI_method_get_closer
                0x00000000401f9e85                UI_method_get_prompt_constructor
                0x00000000401f9e9b                UI_get_string_type
                0x00000000401f9ead                UI_get_input_flags
                0x00000000401f9ec0                UI_get0_output_string
                0x00000000401f9ed6                UI_get0_action_string
                0x00000000401f9eff                UI_get0_result_string
                0x00000000401f9f24                UI_get0_result
                0x00000000401f9fb6                UI_get0_test_string
                0x00000000401f9fd6                UI_get_result_minsize
                0x00000000401f9ffa                UI_get_result_maxsize
                0x00000000401fa01e                UI_set_result
                0x00000000401fa514                UI_OpenSSL
                0x00000000401fa520                d2i_AUTHORITY_KEYID
                0x00000000401fa530                i2d_AUTHORITY_KEYID
                0x00000000401fa540                AUTHORITY_KEYID_new
                0x00000000401fa550                AUTHORITY_KEYID_free
                0x00000000401fa7f3                POLICYINFO_free
                0x00000000401fa803                d2i_CERTIFICATEPOLICIES
                0x00000000401fa813                i2d_CERTIFICATEPOLICIES
                0x00000000401fa823                CERTIFICATEPOLICIES_new
                0x00000000401fa833                CERTIFICATEPOLICIES_free
                0x00000000401fa843                d2i_POLICYINFO
                0x00000000401fa853                i2d_POLICYINFO
                0x00000000401fa863                POLICYINFO_new
                0x00000000401fa873                d2i_POLICYQUALINFO
                0x00000000401fa883                i2d_POLICYQUALINFO
                0x00000000401fa893                POLICYQUALINFO_new
                0x00000000401fa8a3                POLICYQUALINFO_free
                0x00000000401fa8b3                d2i_USERNOTICE
                0x00000000401fa8c3                i2d_USERNOTICE
                0x00000000401fa8d3                USERNOTICE_new
                0x00000000401fa8e3                USERNOTICE_free
                0x00000000401fa8f3                d2i_NOTICEREF
                0x00000000401fa903                i2d_NOTICEREF
                0x00000000401fa913                NOTICEREF_new
                0x00000000401fb258                NOTICEREF_free
                0x00000000401fb268                X509_POLICY_NODE_print
                0x00000000401fb8a0                DIST_POINT_free
                0x00000000401fb8b0                d2i_DIST_POINT_NAME
                0x00000000401fb8c0                i2d_DIST_POINT_NAME
                0x00000000401fb8d0                DIST_POINT_NAME_new
                0x00000000401fbaea                DIST_POINT_NAME_free
                0x00000000401fbafa                d2i_DIST_POINT
                0x00000000401fbb0a                i2d_DIST_POINT
                0x00000000401fbb1a                DIST_POINT_new
                0x00000000401fbdbd                d2i_CRL_DIST_POINTS
                0x00000000401fbdcd                i2d_CRL_DIST_POINTS
                0x00000000401fbddd                CRL_DIST_POINTS_new
                0x00000000401fbded                CRL_DIST_POINTS_free
                0x00000000401fbdfd                d2i_ISSUING_DIST_POINT
                0x00000000401fbe0d                i2d_ISSUING_DIST_POINT
                0x00000000401fbe1d                ISSUING_DIST_POINT_new
                0x00000000401fbe2d                ISSUING_DIST_POINT_free
                0x00000000401fc03a                DIST_POINT_set_dpname
                0x00000000401fc128                i2d_GENERAL_NAME
                0x00000000401fc138                d2i_GENERAL_NAME
                0x00000000401fc148                d2i_OTHERNAME
                0x00000000401fc158                i2d_OTHERNAME
                0x00000000401fc168                OTHERNAME_new
                0x00000000401fc178                OTHERNAME_free
                0x00000000401fc188                d2i_EDIPARTYNAME
                0x00000000401fc198                i2d_EDIPARTYNAME
                0x00000000401fc1a8                EDIPARTYNAME_new
                0x00000000401fc1b8                EDIPARTYNAME_free
                0x00000000401fc1c8                GENERAL_NAME_new
                0x00000000401fc1d8                GENERAL_NAME_free
                0x00000000401fc1e8                d2i_GENERAL_NAMES
                0x00000000401fc1f8                i2d_GENERAL_NAMES
                0x00000000401fc208                GENERAL_NAMES_new
                0x00000000401fc218                GENERAL_NAMES_free
                0x00000000401fc228                GENERAL_NAME_dup
                0x00000000401fc240                OTHERNAME_cmp
                0x00000000401fc28e                GENERAL_NAME_cmp
                0x00000000401fc316                GENERAL_NAME_set0_value
                0x00000000401fc34e                GENERAL_NAME_get0_value
                0x00000000401fc392                GENERAL_NAME_set0_othername
                0x00000000401fc3e8                GENERAL_NAME_get0_otherName
                0x00000000401fca4e                GENERAL_SUBTREE_new
                0x00000000401fca5e                GENERAL_SUBTREE_free
                0x00000000401fca6e                NAME_CONSTRAINTS_new
                0x00000000401fca7e                NAME_CONSTRAINTS_free
                0x00000000401fcc1c                NAME_CONSTRAINTS_check
                0x00000000401fcd4e                POLICY_CONSTRAINTS_new
                0x00000000401fcd5e                POLICY_CONSTRAINTS_free
                0x00000000401fcf63                POLICY_MAPPING_free
                0x00000000401fcf73                POLICY_MAPPING_new
                0x00000000401fd217                X509V3_EXT_val_prn
                0x00000000401fd33e                X509V3_EXT_print
                0x00000000401fd51a                X509V3_extensions_print
                0x00000000401fda21                X509_PURPOSE_get_count
                0x00000000401fda40                X509_PURPOSE_get0
                0x00000000401fda76                X509_PURPOSE_get_by_sname
                0x00000000401fdab6                X509_PURPOSE_get_by_id
                0x00000000401fdaf6                X509_PURPOSE_set
                0x00000000401fdb50                X509_PURPOSE_add
                0x00000000401fdd19                X509_PURPOSE_cleanup
                0x00000000401fdd68                X509_PURPOSE_get_id
                0x00000000401fdd70                X509_PURPOSE_get0_name
                0x00000000401fdd7a                X509_PURPOSE_get0_sname
                0x00000000401fdd84                X509_PURPOSE_get_trust
                0x00000000401fdd8d                X509_supported_extension
                0x00000000401fe2fe                X509_check_purpose
                0x00000000401fe398                X509_check_ca
                0x00000000401fe3f3                X509_check_akid
                0x00000000401fe4d0                X509_check_issued
                0x00000000401fe6b0                X509V3_conf_free
                0x00000000401fe7a9                X509V3_add_value
                0x00000000401fe8da                X509V3_add_value_uchar
                0x00000000401fe8e5                X509V3_add_value_bool
                0x00000000401fe905                X509V3_add_value_bool_nf
                0x00000000401fe91e                i2s_ASN1_ENUMERATED
                0x00000000401fe998                i2s_ASN1_INTEGER
                0x00000000401fea12                s2i_ASN1_INTEGER
                0x00000000401feb4f                X509V3_add_value_int
                0x00000000401febb7                X509V3_get_value_bool
                0x00000000401fed2e                X509V3_get_value_int
                0x00000000401fed9f                X509V3_parse_list
                0x00000000401fefd2                hex_to_string
                0x00000000401ff099                string_to_hex
                0x00000000401ff256                name_cmp
                0x00000000401ff2b5                X509_email_free
                0x00000000401ff421                X509_REQ_get1_email
                0x00000000401ff497                X509_get1_email
                0x00000000401ff4f1                X509_get1_ocsp
                0x00000000401ff590                a2i_ipadd
                0x00000000401ff701                a2i_IPADDRESS_NC
                0x00000000401ff7f1                a2i_IPADDRESS
                0x00000000401ff84d                X509V3_NAME_from_section
                0x00000000401ff940                X509at_get_attr_count
                0x00000000401ff94b                X509at_get_attr_by_OBJ
                0x00000000401ff9b9                X509at_get_attr_by_NID
                0x00000000401ff9f8                X509at_get_attr
                0x00000000401ffa43                X509at_delete_attr
                0x00000000401ffa8e                X509at_add1_attr
                0x00000000401ffb69                X509_ATTRIBUTE_set1_object
                0x00000000401ffbb2                X509_ATTRIBUTE_set1_data
                0x00000000401ffd3a                X509_ATTRIBUTE_create_by_OBJ
                0x00000000401ffe0e                X509_ATTRIBUTE_create_by_txt
                0x00000000401ffec6                X509at_add1_attr_by_txt
                0x00000000401fff1c                X509_ATTRIBUTE_create_by_NID
                0x00000000401fffb6                X509at_add1_attr_by_NID
                0x000000004020000c                X509at_add1_attr_by_OBJ
                0x0000000040200062                X509_ATTRIBUTE_count
                0x0000000040200084                X509_ATTRIBUTE_get0_object
                0x0000000040200099                X509_ATTRIBUTE_get0_type
                0x00000000402000f0                X509_ATTRIBUTE_get0_data
                0x0000000040200156                X509at_get0_data_by_OBJ
                0x0000000040200204                X509_CRL_get_ext_count
                0x0000000040200216                X509_CRL_get_ext_by_NID
                0x0000000040200228                X509_CRL_get_ext_by_OBJ
                0x000000004020023a                X509_CRL_get_ext_by_critical
                0x000000004020024c                X509_CRL_get_ext
                0x000000004020025e                X509_CRL_delete_ext
                0x0000000040200270                X509_CRL_get_ext_d2i
                0x0000000040200282                X509_CRL_add1_ext_i2d
                0x0000000040200294                X509_CRL_add_ext
                0x00000000402002af                X509_get_ext_count
                0x00000000402002c1                X509_get_ext_by_NID
                0x00000000402002d3                X509_get_ext_by_OBJ
                0x00000000402002e5                X509_get_ext_by_critical
                0x00000000402002f7                X509_get_ext
                0x0000000040200309                X509_delete_ext
                0x000000004020031b                X509_add_ext
                0x0000000040200336                X509_get_ext_d2i
                0x0000000040200348                X509_add1_ext_i2d
                0x000000004020035a                X509_REVOKED_get_ext_count
                0x0000000040200369                X509_REVOKED_get_ext_by_NID
                0x0000000040200378                X509_REVOKED_get_ext_by_OBJ
                0x0000000040200387                X509_REVOKED_get_ext_by_critical
                0x0000000040200396                X509_REVOKED_get_ext
                0x00000000402003a5                X509_REVOKED_delete_ext
                0x00000000402003b4                X509_REVOKED_add_ext
                0x00000000402003cc                X509_REVOKED_get_ext_d2i
                0x00000000402003db                X509_REVOKED_add1_ext_i2d
                0x000000004020055e                X509_LOOKUP_new
                0x00000000402005cd                X509_LOOKUP_free
                0x0000000040200601                X509_LOOKUP_init
                0x0000000040200622                X509_LOOKUP_shutdown
                0x0000000040200643                X509_LOOKUP_ctrl
                0x000000004020066a                X509_LOOKUP_by_subject
                0x0000000040200691                X509_LOOKUP_by_issuer_serial
                0x00000000402006b1                X509_LOOKUP_by_fingerprint
                0x00000000402006d1                X509_LOOKUP_by_alias
                0x00000000402006f1                X509_STORE_new
                0x00000000402007e9                X509_STORE_free
                0x0000000040200879                X509_STORE_add_lookup
                0x0000000040200901                X509_OBJECT_up_ref_count
                0x000000004020095b                X509_OBJECT_free_contents
                0x0000000040200983                X509_OBJECT_idx_by_subject
                0x0000000040200993                X509_OBJECT_retrieve_by_subject
                0x00000000402009bf                X509_STORE_get_by_subject
                0x0000000040200ad3                X509_STORE_get1_certs
                0x0000000040200ca5                X509_STORE_get1_crls
                0x0000000040200e68                X509_OBJECT_retrieve_match
                0x0000000040200f3b                X509_STORE_add_crl
                0x000000004020104f                X509_STORE_add_cert
                0x0000000040201163                X509_STORE_CTX_get1_issuer
                0x0000000040201329                X509_STORE_set_flags
                0x0000000040201338                X509_STORE_set_depth
                0x000000004020134c                X509_STORE_set_purpose
                0x000000004020135b                X509_STORE_set_trust
                0x000000004020136a                X509_STORE_set1_param
                0x0000000040201379                X509_STORE_set_verify_cb
                0x0000000040201390                X509_to_X509_REQ
                0x000000004020149c                X509_REQ_get_pubkey
                0x00000000402014c4                X509_REQ_check_private_key
                0x00000000402015f9                X509_REQ_extension_nid
                0x0000000040201638                X509_REQ_get_extension_nids
                0x0000000040201645                X509_REQ_set_extension_nids
                0x0000000040201652                X509_REQ_add_extensions_nid
                0x0000000040201775                X509_REQ_add_extensions
                0x0000000040201785                X509_REQ_get_attr_count
                0x0000000040201797                X509_REQ_get_attr_by_NID
                0x00000000402017a9                X509_REQ_get_attr_by_OBJ
                0x00000000402017bb                X509_REQ_get_attr
                0x00000000402017cd                X509_REQ_get_extensions
                0x00000000402018cf                X509_REQ_delete_attr
                0x00000000402018e1                X509_REQ_add1_attr
                0x00000000402018fc                X509_REQ_add1_attr_by_OBJ
                0x0000000040201917                X509_REQ_add1_attr_by_NID
                0x0000000040201932                X509_REQ_add1_attr_by_txt
                0x0000000040201ad5                X509_TRUST_set_default
                0x0000000040201ae9                X509_TRUST_get_count
                0x0000000040201b08                X509_TRUST_get0
                0x0000000040201b3c                X509_TRUST_get_by_id
                0x0000000040201b7c                X509_check_trust
                0x0000000040201bdf                X509_TRUST_set
                0x0000000040201c39                X509_TRUST_add
                0x0000000040201de5                X509_TRUST_cleanup
                0x0000000040201e31                X509_TRUST_get_flags
                0x0000000040201e3a                X509_TRUST_get0_name
                0x0000000040201e44                X509_TRUST_get_trust
                0x0000000040201e50                X509v3_get_ext_count
                0x0000000040201e65                X509v3_get_ext_by_OBJ
                0x0000000040201ed3                X509v3_get_ext_by_NID
                0x0000000040201f12                X509v3_get_ext_by_critical
                0x0000000040201f88                X509v3_get_ext
                0x0000000040201fd3                X509v3_delete_ext
                0x000000004020201e                X509v3_add_ext
                0x0000000040202123                X509_EXTENSION_set_object
                0x000000004020216c                X509_EXTENSION_set_critical
                0x000000004020218b                X509_EXTENSION_set_data
                0x00000000402021b5                X509_EXTENSION_create_by_OBJ
                0x000000004020228f                X509_EXTENSION_create_by_NID
                0x000000004020231b                X509_EXTENSION_get_object
                0x0000000040202330                X509_EXTENSION_get_data
                0x0000000040202346                X509_EXTENSION_get_critical
                0x0000000040202360                X509_NAME_entry_count
                0x0000000040202378                X509_NAME_get_index_by_OBJ
                0x00000000402023eb                X509_NAME_get_index_by_NID
                0x000000004020242a                X509_NAME_get_entry
                0x0000000040202478                X509_NAME_delete_entry
                0x0000000040202544                X509_NAME_add_entry
                0x00000000402026b8                X509_NAME_ENTRY_set_object
                0x0000000040202724                X509_NAME_ENTRY_set_data
                0x0000000040202809                X509_NAME_ENTRY_create_by_OBJ
                0x00000000402028bc                X509_NAME_ENTRY_create_by_NID
                0x0000000040202952                X509_NAME_add_entry_by_NID
                0x00000000402029b9                X509_NAME_ENTRY_create_by_txt
                0x0000000040202a71                X509_NAME_add_entry_by_txt
                0x0000000040202ad8                X509_NAME_add_entry_by_OBJ
                0x0000000040202b3f                X509_NAME_ENTRY_get_object
                0x0000000040202b54                X509_NAME_ENTRY_get_data
                0x0000000040202b6a                X509_NAME_get_text_by_OBJ
                0x0000000040202bec                X509_NAME_get_text_by_NID
                0x0000000040202c3c                X509_REQ_set_version
                0x0000000040202c58                X509_REQ_set_subject_name
                0x0000000040202c79                X509_REQ_set_pubkey
                0x0000000040202c9c                d2i_X509_VAL
                0x0000000040202cac                i2d_X509_VAL
                0x0000000040202cbc                X509_VAL_new
                0x0000000040202ccc                X509_VAL_free
                0x0000000040202ce0                CRYPTO_cbc128_encrypt
                0x0000000040202e2b                CRYPTO_cbc128_decrypt
                0x0000000040203174                CRYPTO_cfb128_encrypt
                0x0000000040203425                CRYPTO_cfb128_1_encrypt
                0x00000000402034ef                CRYPTO_cfb128_8_encrypt
                0x000000004020355c                CRYPTO_ofb128_encrypt
                0x0000000040203688                i2d_ASN1_BOOLEAN
                0x0000000040203702                d2i_ASN1_BOOLEAN
                0x0000000040203a40                ASN1_mbstring_ncopy
                0x0000000040203f45                ASN1_mbstring_copy
                0x0000000040203f70                ASN1_PRINTABLE_type
                0x0000000040204031                ASN1_UNIVERSALSTRING_to_string
                0x000000004020411f                ASN1_STRING_set_default_mask
                0x000000004020412c                ASN1_STRING_get_default_mask
                0x0000000040204139                ASN1_STRING_set_default_mask_asc
                0x00000000402041fc                ASN1_STRING_TABLE_get
                0x0000000040204262                ASN1_STRING_set_by_NID
                0x0000000040204321                ASN1_STRING_TABLE_add
                0x0000000040204456                ASN1_STRING_TABLE_cleanup
                0x0000000040204480                ASN1_seq_unpack
                0x00000000402044e5                ASN1_seq_pack
                0x00000000402045e3                ASN1_unpack_string
                0x0000000040204636                ASN1_pack_string
                0x0000000040204738                ASN1_item_pack
                0x0000000040204831                ASN1_item_unpack
                0x0000000040204888                BN_mod_exp2_mont
                0x0000000040205114                BN_kronecker
                0x000000004020543a                BN_get0_nist_prime_192
                0x0000000040205445                BN_get0_nist_prime_224
                0x0000000040205450                BN_get0_nist_prime_256
                0x000000004020545b                BN_get0_nist_prime_384
                0x0000000040205466                BN_get0_nist_prime_521
                0x0000000040205471                BN_nist_mod_192
                0x00000000402056df                BN_nist_mod_224
                0x0000000040205a25                BN_nist_mod_256
                0x0000000040205ebd                BN_nist_mod_384
                0x000000004020645d                BN_nist_mod_521
                0x0000000040206640                BN_mod_sqrt
                0x0000000040206feb                CONF_modules_load
                0x000000004020746c                CONF_modules_finish
                0x00000000402074e6                CONF_modules_unload
                0x000000004020759c                CONF_module_add
                0x00000000402075be                CONF_modules_free
                0x00000000402075d3                CONF_imodule_get_name
                0x00000000402075dd                CONF_imodule_get_value
                0x00000000402075e7                CONF_imodule_get_usr_data
                0x00000000402075f1                CONF_imodule_set_usr_data
                0x00000000402075fb                CONF_imodule_get_module
                0x0000000040207604                CONF_imodule_get_flags
                0x000000004020760e                CONF_imodule_set_flags
                0x0000000040207618                CONF_module_get_usr_data
                0x0000000040207622                CONF_module_set_usr_data
                0x000000004020762c                CONF_get1_default_config_file
                0x00000000402076a7                CONF_modules_load_file
                0x0000000040207781                CONF_parse_list
                0x0000000040207890                DSO_set_default_method
                0x000000004020789d                DSO_get_default_method
                0x00000000402078aa                DSO_get_method
                0x00000000402078b3                DSO_set_method
                0x00000000402078bf                DSO_new_method
                0x00000000402079b2                DSO_new
                0x00000000402079c2                DSO_free
                0x0000000040207ad8                DSO_flags
                0x0000000040207aeb                DSO_up_ref
                0x0000000040207b3d                DSO_bind_var
                0x0000000040207bdb                DSO_bind_func
                0x0000000040207c79                DSO_ctrl
                0x0000000040207d11                DSO_set_name_converter
                0x0000000040207d55                DSO_get_filename
                0x0000000040207d88                DSO_set_filename
                0x0000000040207e85                DSO_load
                0x0000000040208034                DSO_merge
                0x0000000040208097                DSO_convert_filename
                0x00000000402081a7                DSO_get_loaded_filename
                0x00000000402081da                DSO_pathbyaddr
                0x000000004020824e                DSO_global_lookup
                0x00000000402082a8                DSO_METHOD_openssl
                0x00000000402082c0                ec_GF2m_simple_is_at_infinity
                0x00000000402082d0                ec_GF2m_simple_points_make_affine
                0x0000000040208339                ec_GF2m_simple_field_div
                0x0000000040208354                ec_GF2m_simple_field_sqr
                0x000000004020836f                ec_GF2m_simple_field_mul
                0x000000004020838d                ec_GF2m_simple_point_copy
                0x00000000402083f2                ec_GF2m_simple_group_get_curve
                0x000000004020847a                ec_GF2m_simple_point_set_to_infinity
                0x000000004020849a                ec_GF2m_simple_make_affine
                0x00000000402085ae                ec_GF2m_simple_cmp
                0x000000004020874b                ec_GF2m_simple_is_on_curve
                0x00000000402088e9                ec_GF2m_simple_invert
                0x0000000040208953                ec_GF2m_simple_add
                0x0000000040208d6a                ec_GF2m_simple_dbl
                0x0000000040208d7b                ec_GF2m_simple_oct2point
                0x000000004020913b                ec_GF2m_simple_group_get_degree
                0x000000004020914d                ec_GF2m_simple_point2oct
                0x00000000402094fe                ec_GF2m_simple_group_check_discriminant
                0x00000000402095d5                ec_GF2m_simple_set_compressed_coordinates
                0x0000000040209869                ec_GF2m_simple_point_get_affine_coordinates
                0x000000004020995d                ec_GF2m_simple_point_set_affine_coordinates
                0x0000000040209a3d                ec_GF2m_simple_point_clear_finish
                0x0000000040209a72                ec_GF2m_simple_group_clear_finish
                0x0000000040209ae2                ec_GF2m_simple_point_finish
                0x0000000040209b10                ec_GF2m_simple_group_finish
                0x0000000040209b44                ec_GF2m_simple_point_init
                0x0000000040209b77                ec_GF2m_simple_group_init
                0x0000000040209bb0                ec_GF2m_simple_group_set_curve
                0x0000000040209d5e                ec_GF2m_simple_group_copy
                0x0000000040209efd                EC_GF2m_simple_method
                0x0000000040209f08                d2i_ECDSA_SIG
                0x0000000040209f18                i2d_ECDSA_SIG
                0x0000000040209f28                ECDSA_SIG_new
                0x0000000040209f38                ECDSA_SIG_free
                0x0000000040209f5e                ERR_print_errors_cb
                0x000000004020a04e                ERR_print_errors
                0x000000004020a064                PKCS12_item_pack_safebag
                0x000000004020a160                PKCS12_MAKE_KEYBAG
                0x000000004020a1bf                PKCS12_MAKE_SHKEYBAG
                0x000000004020a2b0                PKCS12_pack_p7data
                0x000000004020a374                PKCS12_unpack_p7data
                0x000000004020a3c9                PKCS12_pack_p7encdata
                0x000000004020a56a                PKCS12_unpack_p7encdata
                0x000000004020a5d4                PKCS12_decrypt_skey
                0x000000004020a5e3                PKCS12_pack_authsafes
                0x000000004020a60a                PKCS12_unpack_authsafes
                0x000000004020a668                d2i_PKCS12
                0x000000004020a678                i2d_PKCS12
                0x000000004020a688                PKCS12_new
                0x000000004020a698                PKCS12_free
                0x000000004020a6a8                d2i_PKCS12_MAC_DATA
                0x000000004020a6b8                i2d_PKCS12_MAC_DATA
                0x000000004020a6c8                PKCS12_MAC_DATA_new
                0x000000004020a6d8                PKCS12_MAC_DATA_free
                0x000000004020a6e8                d2i_PKCS12_BAGS
                0x000000004020a6f8                i2d_PKCS12_BAGS
                0x000000004020a708                PKCS12_BAGS_new
                0x000000004020a718                PKCS12_BAGS_free
                0x000000004020a728                d2i_PKCS12_SAFEBAG
                0x000000004020a738                i2d_PKCS12_SAFEBAG
                0x000000004020a748                PKCS12_SAFEBAG_new
                0x000000004020a758                PKCS12_SAFEBAG_free
                0x000000004020a768                PKCS12_pbe_crypt
                0x000000004020a8e8                PKCS12_item_decrypt_d2i
                0x000000004020a9b4                PKCS12_item_i2d_encrypt
                0x000000004020aaf0                PKCS8_encrypt
                0x000000004020ac28                X509_policy_tree_level_count
                0x000000004020ac3b                X509_policy_tree_get0_level
                0x000000004020ac6a                X509_policy_tree_get0_policies
                0x000000004020ac80                X509_policy_tree_get0_user_policies
                0x000000004020aca2                X509_policy_level_node_count
                0x000000004020acd9                X509_policy_level_get0_node
                0x000000004020ad04                X509_policy_node_get0_policy
                0x000000004020ad1d                X509_policy_node_get0_qualifiers
                0x000000004020ad36                X509_policy_node_get0_parent
                0x000000004020ad6b                policy_node_cmp_new
                0x000000004020ad7b                tree_find_sk
                0x000000004020adb7                level_find_node
                0x000000004020ae2b                policy_node_free
                0x000000004020ae36                level_add_node
                0x000000004020af32                policy_node_match
                0x000000004020b139                i2v_GENERAL_NAME
                0x000000004020b3c0                i2v_GENERAL_NAMES
                0x000000004020b424                GENERAL_NAME_print
                0x000000004020b5c8                a2i_GENERAL_NAME
                0x000000004020b98c                v2i_GENERAL_NAME_ex
                0x000000004020baf9                v2i_GENERAL_NAME
                0x000000004020be44                v2i_GENERAL_NAMES
                0x000000004020bf3d                d2i_BASIC_CONSTRAINTS
                0x000000004020bf4d                i2d_BASIC_CONSTRAINTS
                0x000000004020bf5d                BASIC_CONSTRAINTS_new
                0x000000004020bf6d                BASIC_CONSTRAINTS_free
                0x000000004020c705                X509V3_EXT_nconf
                0x000000004020c7dc                X509V3_EXT_nconf_nid
                0x000000004020c86c                X509V3_EXT_i2d
                0x000000004020c8d6                X509V3_EXT_add_nconf_sk
                0x000000004020c97e                X509V3_EXT_add_nconf
                0x000000004020c99d                X509V3_EXT_CRL_add_nconf
                0x000000004020c9bc                X509V3_EXT_REQ_add_nconf
                0x000000004020ca1b                X509V3_get_string
                0x000000004020ca66                X509V3_get_section
                0x000000004020cab2                X509V3_string_free
                0x000000004020cad0                X509V3_section_free
                0x000000004020caee                X509V3_set_nconf
                0x000000004020cb00                X509V3_set_ctx
                0x000000004020cb19                X509V3_EXT_conf
                0x000000004020cb62                X509V3_EXT_conf_nid
                0x000000004020cbab                X509V3_set_conf_lhash
                0x000000004020cbbd                X509V3_EXT_add_conf
                0x000000004020cc06                X509V3_EXT_CRL_add_conf
                0x000000004020cc4f                X509V3_EXT_REQ_add_conf
                0x000000004020cdef                ACCESS_DESCRIPTION_free
                0x000000004020cdff                d2i_ACCESS_DESCRIPTION
                0x000000004020ce0f                i2d_ACCESS_DESCRIPTION
                0x000000004020ce1f                ACCESS_DESCRIPTION_new
                0x000000004020d049                d2i_AUTHORITY_INFO_ACCESS
                0x000000004020d059                i2d_AUTHORITY_INFO_ACCESS
                0x000000004020d069                AUTHORITY_INFO_ACCESS_new
                0x000000004020d079                AUTHORITY_INFO_ACCESS_free
                0x000000004020d089                i2a_ACCESS_DESCRIPTION
                0x000000004020d0cc                X509V3_EXT_add
                0x000000004020d160                X509V3_EXT_get_nid
                0x000000004020d1d8                X509V3_EXT_get
                0x000000004020d1f6                X509V3_EXT_add_list
                0x000000004020d234                X509V3_EXT_add_alias
                0x000000004020d32f                X509V3_EXT_cleanup
                0x000000004020d351                X509V3_add_standard_extensions
                0x000000004020d35c                X509V3_EXT_d2i
                0x000000004020d3b7                X509V3_get_d2i
                0x000000004020d4df                X509V3_add1_i2d
                0x000000004020e4a0                d2i_PROXY_POLICY
                0x000000004020e4b0                i2d_PROXY_POLICY
                0x000000004020e4c0                PROXY_POLICY_new
                0x000000004020e4d0                PROXY_POLICY_free
                0x000000004020e4e0                d2i_PROXY_CERT_INFO_EXTENSION
                0x000000004020e4f0                i2d_PROXY_CERT_INFO_EXTENSION
                0x000000004020e500                PROXY_CERT_INFO_EXTENSION_new
                0x000000004020e510                PROXY_CERT_INFO_EXTENSION_free
                0x000000004020e5b1                d2i_PKEY_USAGE_PERIOD
                0x000000004020e5c1                i2d_PKEY_USAGE_PERIOD
                0x000000004020e5d1                PKEY_USAGE_PERIOD_new
                0x000000004020e5e1                PKEY_USAGE_PERIOD_free
                0x000000004020e600                i2s_ASN1_OCTET_STRING
                0x000000004020e615                s2i_ASN1_OCTET_STRING
                0x000000004020e8c7                d2i_SXNETID
                0x000000004020e8d7                i2d_SXNETID
                0x000000004020e8e7                SXNETID_new
                0x000000004020e8f7                SXNETID_free
                0x000000004020e907                d2i_SXNET
                0x000000004020e917                i2d_SXNET
                0x000000004020e927                SXNET_new
                0x000000004020e937                SXNET_free
                0x000000004020e947                SXNET_get_id_INTEGER
                0x000000004020e9a6                SXNET_get_id_ulong
                0x000000004020ea37                SXNET_get_id_asc
                0x000000004020eaa6                SXNET_add_id_INTEGER
                0x000000004020ec66                SXNET_add_id_ulong
                0x000000004020ed04                SXNET_add_id_asc
                0x000000004020edd8                X509_get_default_private_dir
                0x000000004020ede3                X509_get_default_cert_area
                0x000000004020edee                X509_get_default_cert_dir
                0x000000004020edf9                X509_get_default_cert_file
                0x000000004020ee04                X509_get_default_cert_dir_env
                0x000000004020ee0f                X509_get_default_cert_file_env
                0x000000004020ee61                i2d_ASN1_SET
                0x000000004020f0ca                d2i_ASN1_SET
                0x000000004020f98f                ASN1_generate_v3
                0x00000000402102c1                ASN1_generate_nconf
                0x00000000402104cc                BN_GF2m_add
                0x00000000402105aa                BN_GF2m_mod_arr
                0x0000000040210846                BN_GF2m_mod_sqr_arr
                0x00000000402109ea                BN_GF2m_mod_mul_arr
                0x0000000040210c50                BN_GF2m_mod_exp_arr
                0x0000000040210d87                BN_GF2m_mod_sqrt_arr
                0x0000000040210e2f                BN_GF2m_mod_solve_quad_arr
                0x00000000402111f9                BN_GF2m_poly2arr
                0x0000000040211283                BN_GF2m_mod_solve_quad
                0x0000000040211350                BN_GF2m_mod_sqrt
                0x000000004021141d                BN_GF2m_mod_exp
                0x00000000402114f2                BN_GF2m_mod_sqr
                0x00000000402115bf                BN_GF2m_mod_mul
                0x0000000040211694                BN_GF2m_mod
                0x0000000040211759                BN_GF2m_mod_inv
                0x0000000040211939                BN_GF2m_mod_div
                0x00000000402119d6                BN_GF2m_arr2poly
                0x0000000040211a3b                BN_GF2m_mod_div_arr
                0x0000000040211acf                BN_GF2m_mod_inv_arr
                0x0000000040211b60                CONF_set_nconf
                0x0000000040211ba7                CONF_set_default_method
                0x0000000040211bb9                CONF_load
                0x0000000040211be3                NCONF_new
                0x0000000040211c30                NCONF_free
                0x0000000040211c41                NCONF_free_data
                0x0000000040211c52                CONF_free
                0x0000000040211c71                NCONF_load
                0x0000000040211ca6                NCONF_load_bio
                0x0000000040211cdb                CONF_load_bio
                0x0000000040211d25                NCONF_get_section
                0x0000000040211d82                CONF_get_section
                0x0000000040211db7                NCONF_get_string
                0x0000000040211e5e                CONF_get_string
                0x0000000040211ea5                NCONF_get_number_e
                0x0000000040211f40                CONF_get_number
                0x0000000040211f9e                NCONF_dump_bio
                0x0000000040211fd3                CONF_dump_bio
                0x0000000040212000                DSO_METHOD_null
                0x00000000402128ca                ec_GF2m_simple_mul
                0x0000000040212b25                ec_GF2m_precompute_mult
                0x0000000040212b30                ec_GF2m_have_precompute_mult
                0x0000000040212b3c                i2a_ASN1_INTEGER
                0x0000000040212c7d                a2i_ASN1_INTEGER
                0x0000000040212f80                i2a_ASN1_STRING
                0x0000000040213091                a2i_ASN1_STRING
                0x0000000040213348                d2i_OCSP_SIGNATURE
                0x0000000040213358                i2d_OCSP_SIGNATURE
                0x0000000040213368                OCSP_SIGNATURE_new
                0x0000000040213378                OCSP_SIGNATURE_free
                0x0000000040213388                d2i_OCSP_CERTID
                0x0000000040213398                i2d_OCSP_CERTID
                0x00000000402133a8                OCSP_CERTID_new
                0x00000000402133b8                OCSP_CERTID_free
                0x00000000402133c8                d2i_OCSP_ONEREQ
                0x00000000402133d8                i2d_OCSP_ONEREQ
                0x00000000402133e8                OCSP_ONEREQ_new
                0x00000000402133f8                OCSP_ONEREQ_free
                0x0000000040213408                d2i_OCSP_REQINFO
                0x0000000040213418                i2d_OCSP_REQINFO
                0x0000000040213428                OCSP_REQINFO_new
                0x0000000040213438                OCSP_REQINFO_free
                0x0000000040213448                d2i_OCSP_REQUEST
                0x0000000040213458                i2d_OCSP_REQUEST
                0x0000000040213468                OCSP_REQUEST_new
                0x0000000040213478                OCSP_REQUEST_free
                0x0000000040213488                d2i_OCSP_RESPBYTES
                0x0000000040213498                i2d_OCSP_RESPBYTES
                0x00000000402134a8                OCSP_RESPBYTES_new
                0x00000000402134b8                OCSP_RESPBYTES_free
                0x00000000402134c8                d2i_OCSP_RESPONSE
                0x00000000402134d8                i2d_OCSP_RESPONSE
                0x00000000402134e8                OCSP_RESPONSE_new
                0x00000000402134f8                OCSP_RESPONSE_free
                0x0000000040213508                d2i_OCSP_RESPID
                0x0000000040213518                i2d_OCSP_RESPID
                0x0000000040213528                OCSP_RESPID_new
                0x0000000040213538                OCSP_RESPID_free
                0x0000000040213548                d2i_OCSP_REVOKEDINFO
                0x0000000040213558                i2d_OCSP_REVOKEDINFO
                0x0000000040213568                OCSP_REVOKEDINFO_new
                0x0000000040213578                OCSP_REVOKEDINFO_free
                0x0000000040213588                d2i_OCSP_CERTSTATUS
                0x0000000040213598                i2d_OCSP_CERTSTATUS
                0x00000000402135a8                OCSP_CERTSTATUS_new
                0x00000000402135b8                OCSP_CERTSTATUS_free
                0x00000000402135c8                d2i_OCSP_SINGLERESP
                0x00000000402135d8                i2d_OCSP_SINGLERESP
                0x00000000402135e8                OCSP_SINGLERESP_new
                0x00000000402135f8                OCSP_SINGLERESP_free
                0x0000000040213608                d2i_OCSP_RESPDATA
                0x0000000040213618                i2d_OCSP_RESPDATA
                0x0000000040213628                OCSP_RESPDATA_new
                0x0000000040213638                OCSP_RESPDATA_free
                0x0000000040213648                d2i_OCSP_BASICRESP
                0x0000000040213658                i2d_OCSP_BASICRESP
                0x0000000040213668                OCSP_BASICRESP_new
                0x0000000040213678                OCSP_BASICRESP_free
                0x0000000040213688                d2i_OCSP_CRLID
                0x0000000040213698                i2d_OCSP_CRLID
                0x00000000402136a8                OCSP_CRLID_new
                0x00000000402136b8                OCSP_CRLID_free
                0x00000000402136c8                d2i_OCSP_SERVICELOC
                0x00000000402136d8                i2d_OCSP_SERVICELOC
                0x00000000402136e8                OCSP_SERVICELOC_new
                0x00000000402136f8                OCSP_SERVICELOC_free
                0x0000000040213abc                v2i_ASN1_BIT_STRING
                0x0000000040213c3f                i2v_ASN1_BIT_STRING
                0x0000000040213c94                i2s_ASN1_ENUMERATED_TABLE
                0x0000000040213e60                d2i_EXTENDED_KEY_USAGE
                0x0000000040213e70                i2d_EXTENDED_KEY_USAGE
                0x0000000040213e80                EXTENDED_KEY_USAGE_new
                0x0000000040213e90                EXTENDED_KEY_USAGE_free
                0x0000000040214108                _CONF_get_section
                0x000000004021413c                _CONF_get_section_values
                0x0000000040214157                _CONF_add_string
                0x00000000402141e2                _CONF_get_string
                0x0000000040214280                _CONF_new_data
                0x00000000402142c2                _CONF_free_data
                0x0000000040214313                _CONF_new_section
                0x00000000402152a1                NCONF_default
                0x00000000402152ac                NCONF_WIN32
                0x00000000402152b8                codeend = .

.iplt           0x00000000402152c0        0x0 load address 0x00000000002152c0
 .iplt          0x0000000000000000        0x0 output.o

.rodata         0x00000000402152c0    0x34fac load address 0x00000000002152c0
 .rodata        0x00000000402152c0    0x34fac output.o
                0x0000000040223440                BN_version
                0x0000000040223860                DES_SPtrans
                0x0000000040224860                DH_version
                0x0000000040225d40                OSSL_DES_version
                0x0000000040225d80                OSSL_libdes_version
                0x0000000040225e60                EVP_version
                0x0000000040225f20                IDEA_version
                0x0000000040225f60                lh_version
                0x00000000402265a0                MD4_version
                0x00000000402265e0                MD5_version
                0x0000000040233160                PEM_version
                0x00000000402331c0                PKCS7_ATTR_VERIFY_it
                0x0000000040233200                PKCS7_ATTR_SIGN_it
                0x0000000040233240                PKCS7_DIGEST_it
                0x0000000040233280                PKCS7_ENCRYPT_it
                0x00000000402332c0                PKCS7_SIGN_ENVELOPE_it
                0x0000000040233300                PKCS7_ENC_CONTENT_it
                0x0000000040233340                PKCS7_RECIP_INFO_it
                0x0000000040233380                PKCS7_ENVELOPE_it
                0x00000000402333c0                PKCS7_ISSUER_AND_SERIAL_it
                0x0000000040233400                PKCS7_SIGNER_INFO_it
                0x0000000040233440                PKCS7_SIGNED_it
                0x0000000040233480                PKCS7_it
                0x0000000040233f40                RC2_version
                0x0000000040234080                RC4_version
                0x00000000402340c0                RMD160_version
                0x0000000040234100                RSAPublicKey_it
                0x0000000040234140                RSAPrivateKey_it
                0x00000000402343e0                RSA_version
                0x00000000402355e0                SHA1_version
                0x0000000040235620                SHA256_version
                0x0000000040235760                SHA512_version
                0x0000000040235a20                SHA_version
                0x0000000040235a60                STACK_version
                0x0000000040235cc0                ASN1_SET_ANY_it
                0x0000000040235d00                ASN1_SEQUENCE_ANY_it
                0x0000000040235d40                ASN1_OCTET_STRING_NDEF_it
                0x0000000040235d80                ASN1_FBOOLEAN_it
                0x0000000040235dc0                ASN1_TBOOLEAN_it
                0x0000000040235e00                ASN1_BOOLEAN_it
                0x0000000040235e40                DIRECTORYSTRING_it
                0x0000000040235e80                DISPLAYTEXT_it
                0x0000000040235ec0                ASN1_PRINTABLE_it
                0x0000000040235f00                ASN1_SEQUENCE_it
                0x0000000040235f40                ASN1_ANY_it
                0x0000000040235f80                ASN1_BMPSTRING_it
                0x0000000040235fc0                ASN1_UNIVERSALSTRING_it
                0x0000000040236000                ASN1_VISIBLESTRING_it
                0x0000000040236040                ASN1_GENERALIZEDTIME_it
                0x0000000040236080                ASN1_UTCTIME_it
                0x00000000402360c0                ASN1_GENERALSTRING_it
                0x0000000040236100                ASN1_IA5STRING_it
                0x0000000040236140                ASN1_T61STRING_it
                0x0000000040236180                ASN1_PRINTABLESTRING_it
                0x00000000402361c0                ASN1_UTF8STRING_it
                0x0000000040236200                ASN1_OBJECT_it
                0x0000000040236240                ASN1_NULL_it
                0x0000000040236280                ASN1_OCTET_STRING_it
                0x00000000402362c0                ASN1_BIT_STRING_it
                0x0000000040236300                ASN1_ENUMERATED_it
                0x0000000040236340                ASN1_INTEGER_it
                0x0000000040236420                X509_version
                0x0000000040236580                X509_ALGORS_it
                0x00000000402365c0                X509_ALGOR_it
                0x00000000402366a0                X509_ATTRIBUTE_it
                0x00000000402366e0                X509_ATTRIBUTE_SET_it
                0x00000000402367e0                CBIGNUM_it
                0x0000000040236820                BIGNUM_it
                0x0000000040236860                X509_CRL_it
                0x00000000402368a0                X509_CRL_INFO_it
                0x00000000402368e0                X509_REVOKED_it
                0x0000000040236bc0                X509_EXTENSIONS_it
                0x0000000040236c00                X509_EXTENSION_it
                0x0000000040236d00                ZLONG_it
                0x0000000040236d40                LONG_it
                0x0000000040236d80                X509_NAME_it
                0x0000000040236dc0                x509_name_ff
                0x0000000040236e00                X509_NAME_INTERNAL_it
                0x0000000040236e40                X509_NAME_ENTRIES_it
                0x0000000040236e80                X509_NAME_ENTRY_it
                0x0000000040236fa0                X509_PUBKEY_it
                0x0000000040237080                X509_REQ_it
                0x00000000402370c0                X509_REQ_INFO_it
                0x00000000402372a0                X509_SIG_it
                0x0000000040237340                NETSCAPE_SPKI_it
                0x0000000040237380                NETSCAPE_SPKAC_it
                0x00000000402374a0                X509_it
                0x00000000402374e0                X509_CINF_it
                0x00000000402377c0                X509_CERT_PAIR_it
                0x0000000040237800                X509_CERT_AUX_it
                0x0000000040237e00                rsa_pkey_meth
                0x0000000040237ee0                dh_pkey_meth
                0x0000000040237fc0                dsa_pkey_meth
                0x00000000402380a0                ec_pkey_meth
                0x0000000040238180                hmac_pkey_meth
                0x00000000402382a0                rsa_asn1_meths
                0x0000000040238420                dh_asn1_meth
                0x00000000402384e0                dsa_asn1_meths
                0x0000000040238880                eckey_asn1_meth
                0x0000000040238940                hmac_asn1_meth
                0x0000000040239a80                CMS_Receipt_it
                0x0000000040239ac0                CMS_ReceiptRequest_it
                0x0000000040239b00                CMS_ReceiptsFrom_it
                0x0000000040239b40                CMS_Attributes_Verify_it
                0x0000000040239b80                CMS_Attributes_Sign_it
                0x0000000040239bc0                CMS_ContentInfo_it
                0x0000000040239c00                CMS_CompressedData_it
                0x0000000040239c40                CMS_AuthenticatedData_it
                0x0000000040239c80                CMS_EncryptedData_it
                0x0000000040239cc0                CMS_DigestedData_it
                0x0000000040239d00                CMS_EnvelopedData_it
                0x0000000040239d40                CMS_RecipientInfo_it
                0x0000000040239d80                CMS_OtherRecipientInfo_it
                0x0000000040239dc0                CMS_PasswordRecipientInfo_it
                0x0000000040239e00                CMS_KEKRecipientInfo_it
                0x0000000040239e40                CMS_KEKIdentifier_it
                0x0000000040239e80                CMS_KeyAgreeRecipientInfo_it
                0x0000000040239ec0                CMS_OriginatorIdentifierOrKey_it
                0x0000000040239f00                CMS_OriginatorPublicKey_it
                0x0000000040239f40                CMS_RecipientEncryptedKey_it
                0x0000000040239f80                CMS_KeyAgreeRecipientIdentifier_it
                0x0000000040239fc0                CMS_RecipientKeyIdentifier_it
                0x000000004023a000                CMS_OtherKeyAttribute_it
                0x000000004023a040                CMS_KeyTransRecipientInfo_it
                0x000000004023a080                CMS_EncryptedContentInfo_it
                0x000000004023a0c0                CMS_OriginatorInfo_it
                0x000000004023a100                CMS_SignedData_it
                0x000000004023a140                CMS_RevocationInfoChoice_it
                0x000000004023a180                CMS_OtherRevocationInfoFormat_it
                0x000000004023a1c0                CMS_SignerInfo_it
                0x000000004023a200                CMS_EncapsulatedContentInfo_it
                0x000000004023a240                CMS_SignerIdentifier_it
                0x000000004023a280                CMS_CertificateChoices_it
                0x000000004023a2c0                CMS_OtherCertificateFormat_it
                0x000000004023a300                CMS_IssuerAndSerialNumber_it
                0x000000004023bb40                ASN1_TIME_it
                0x000000004023bbc0                ASN1_version
                0x000000004023bd20                BF_version
                0x000000004023dec0                CAST_version
                0x000000004023df80                CAST_S_table7
                0x000000004023e380                CAST_S_table6
                0x000000004023e780                CAST_S_table5
                0x000000004023eb80                CAST_S_table4
                0x000000004023ef80                CAST_S_table3
                0x000000004023f380                CAST_S_table2
                0x000000004023f780                CAST_S_table1
                0x000000004023fb80                CAST_S_table0
                0x00000000402401c0                DHparams_it
                0x00000000402402c0                DSAPublicKey_it
                0x0000000040240300                dsa_pub_internal_it
                0x0000000040240340                DSAparams_it
                0x0000000040240380                DSAPrivateKey_it
                0x00000000402403c0                DSA_SIG_it
                0x00000000402407e0                DSA_version
                0x0000000040240820                EC_PRIVATEKEY_it
                0x0000000040240860                ECPKPARAMETERS_it
                0x00000000402408a0                ECPARAMETERS_it
                0x00000000402408e0                X9_62_CURVE_it
                0x0000000040240920                X9_62_FIELDID_it
                0x0000000040240960                X9_62_CHARACTERISTIC_TWO_it
                0x00000000402409a0                X9_62_PENTANOMIAL_it
                0x0000000040244960                ECDH_version
                0x0000000040244d60                ECDSA_version
                0x0000000040245060                RAND_version
                0x00000000402450a0                NETSCAPE_CERT_SEQUENCE_it
                0x0000000040245180                PBEPARAM_it
                0x0000000040245220                PBKDF2PARAM_it
                0x0000000040245260                PBE2PARAM_it
                0x00000000402453a0                PKCS8_PRIV_KEY_INFO_it
                0x0000000040245560                AUTHORITY_KEYID_it
                0x0000000040245620                NOTICEREF_it
                0x0000000040245660                USERNOTICE_it
                0x00000000402456a0                POLICYQUALINFO_it
                0x00000000402456e0                POLICYINFO_it
                0x0000000040245720                CERTIFICATEPOLICIES_it
                0x0000000040245760                v3_cpols
                0x0000000040245a80                v3_idp
                0x0000000040245b00                ISSUING_DIST_POINT_it
                0x0000000040245b40                CRL_DIST_POINTS_it
                0x0000000040245b80                DIST_POINT_it
                0x0000000040245bc0                DIST_POINT_NAME_it
                0x0000000040245c00                v3_freshest_crl
                0x0000000040245c80                v3_crld
                0x0000000040246140                GENERAL_NAMES_it
                0x0000000040246180                GENERAL_NAME_it
                0x00000000402461c0                EDIPARTYNAME_it
                0x0000000040246200                OTHERNAME_it
                0x00000000402464c0                NAME_CONSTRAINTS_it
                0x0000000040246500                GENERAL_SUBTREE_it
                0x0000000040246540                v3_name_constraints
                0x00000000402466a0                POLICY_CONSTRAINTS_it
                0x00000000402466e0                v3_policy_constraints
                0x00000000402467c0                POLICY_MAPPINGS_it
                0x0000000040246800                POLICY_MAPPING_it
                0x0000000040246840                v3_policy_mappings
                0x00000000402469c0                X509_VAL_it
                0x0000000040247460                ECDSA_SIG_it
                0x0000000040247500                PKCS12_AUTHSAFES_it
                0x0000000040247540                PKCS12_SAFEBAGS_it
                0x0000000040247580                PKCS12_SAFEBAG_it
                0x00000000402475c0                PKCS12_BAGS_it
                0x0000000040247600                PKCS12_MAC_DATA_it
                0x0000000040247640                PKCS12_it
                0x0000000040247c80                v3_alt
                0x0000000040247dc0                BASIC_CONSTRAINTS_it
                0x0000000040247e00                v3_bcons
                0x0000000040247ee0                AUTHORITY_INFO_ACCESS_it
                0x0000000040247f20                ACCESS_DESCRIPTION_it
                0x0000000040247f60                v3_sinfo
                0x0000000040247fe0                v3_info
                0x0000000040248100                v3_ocsp_serviceloc
                0x0000000040248180                v3_ocsp_nocheck
                0x0000000040248200                v3_ocsp_nonce
                0x0000000040248280                v3_crl_hold
                0x0000000040248300                v3_crl_invdate
                0x0000000040248380                v3_ocsp_acutoff
                0x0000000040248400                v3_ocsp_crlid
                0x0000000040248480                v3_pci
                0x0000000040248500                PROXY_CERT_INFO_EXTENSION_it
                0x0000000040248540                PROXY_POLICY_it
                0x0000000040248640                PKEY_USAGE_PERIOD_it
                0x0000000040248680                v3_pkey_usage_period
                0x0000000040248760                v3_skey_id
                0x00000000402487e0                SXNET_it
                0x0000000040248820                SXNETID_it
                0x0000000040248860                v3_sxnet
                0x0000000040248e40                CONF_version
                0x0000000040248e80                OCSP_SERVICELOC_it
                0x0000000040248ec0                OCSP_CRLID_it
                0x0000000040248f00                OCSP_BASICRESP_it
                0x0000000040248f40                OCSP_RESPDATA_it
                0x0000000040248f80                OCSP_SINGLERESP_it
                0x0000000040248fc0                OCSP_CERTSTATUS_it
                0x0000000040249000                OCSP_REVOKEDINFO_it
                0x0000000040249040                OCSP_RESPID_it
                0x0000000040249080                OCSP_RESPONSE_it
                0x00000000402490c0                OCSP_RESPBYTES_it
                0x0000000040249100                OCSP_REQUEST_it
                0x0000000040249140                OCSP_REQINFO_it
                0x0000000040249180                OCSP_ONEREQ_it
                0x00000000402491c0                OCSP_CERTID_it
                0x0000000040249200                OCSP_SIGNATURE_it
                0x0000000040249a00                v3_akey_id
                0x0000000040249a80                v3_key_usage
                0x0000000040249b00                v3_nscert
                0x0000000040249b80                v3_crl_reason
                0x0000000040249c00                EXTENDED_KEY_USAGE_it
                0x0000000040249c40                v3_ocsp_accresp
                0x0000000040249cc0                v3_ext_ku
                0x0000000040249d80                v3_ns_ia5_list
                0x000000004024a0c0                v3_inhibit_anyp
                0x000000004024a140                v3_delta_crl
                0x000000004024a1c0                v3_crl_num
                0x000000004024a240                CONF_def_version

.rodata.str1.1  0x000000004024a26c    0x12ba7 load address 0x000000000024a26c
 .rodata.str1.1
                0x000000004024a26c    0x12ba7 output.o
                                      0x14fc3 (size before relaxing)

.rodata.str1.8  0x000000004025ce18     0x98d0 load address 0x000000000025ce18
 .rodata.str1.8
                0x000000004025ce18     0x98d0 output.o
                                       0x9bf5 (size before relaxing)

.eh_frame       0x00000000402666e8    0x37300 load address 0x00000000002666e8
 .eh_frame      0x00000000402666e8    0x37300 output.o

.eh_frame_hdr   0x000000004029d9e8        0x8 load address 0x000000000029d9e8
 .eh_frame_hdr  0x000000004029d9e8        0x8 output.o

.note.gnu.build-id
                0x000000004029d9f0      0x288 load address 0x000000000029d9f0
 .note.gnu.build-id
                0x000000004029d9f0      0x288 output.o

.rela.dyn       0x000000004029dc78        0x0 load address 0x000000000029dc78
 .rela.iplt     0x0000000000000000        0x0 output.o
 .rela.text     0x0000000000000000        0x0 output.o

.data           0x000000004029e000  0x9d37000 load address 0x000000000029e000
                0x000000004029e000                data = .
 *(.data)
 .data          0x000000004029e000   0x9eaa53 output.o
                0x000000004029e020                config
                0x00000000402ae190                use_pae
                0x00000000402ae3b0                savemsr_index
                0x00000000402af000                vmm_pml4
                0x00000000402b0000                vmm_pdp
                0x00000000402b1000                vmm_pd
                0x00000000402b2000                vmm_pd1
                0x00000000402b3000                vmm_pd2
                0x00000000402b4000                guest_int0x15_hook
                0x00000000402b401d                guest_int0x15_e801_fake_ax
                0x00000000402b4020                guest_int0x15_e801_fake_bx
                0x00000000402b4031                guest_int0x15_orig
                0x00000000402b4046                guest_int0x15_e820_data_minus0x18
                0x00000000402b404e                guest_int0x15_e820_end
                0x00000000402b4074                guest_int0x15_hook_end
                0x00000000402b5078                wakeup_entry_start
                0x00000000402b5081                wakeup_entry_addr
                0x00000000402b50a7                wakeup_entry_cr4
                0x00000000402b50b0                wakeup_entry_cr3
                0x00000000402b50b9                wakeup_entry_cr0
                0x00000000402b50c8                wakeup_entry_gdtr
                0x00000000402b50d2                wakeup_entry_end
                0x00000000402b5160                ata_bm_handler_table
                0x00000000402b51a0                ata_ctlblk_handler_table
                0x00000000402b51c0                ata_cmdblk_handler_table
                0x00000000402b5c70                usb_log_level
                0x00000000402b6600                hSessionCnt
                0x00000000402b6608                hObjectCnt
                0x00000000402b6e00                g_rgSCardT1Pci
                0x00000000402b6e10                g_rgSCardT0Pci
                0x00000000402b6e20                FI
                0x00000000402b6e60                DI
                0x00000000402bb480                default_pctx
                0x00000000402be720                rand_ssleay_meth
                0x0000000040c88a58                . = ALIGN (0x8)
 *fill*         0x0000000040c88a53        0x5 00
                0x0000000040c88a58                __initfunc_start = .
 *(.initfunc)
 .initfunc      0x0000000040c88a58      0x640 output.o
                0x0000000040c88a58                __initfunc_acpi_init_paral
                0x0000000040c88a68                __initfunc_acpi_init_global
                0x0000000040c88a78                __initfunc_beep_init_msg
                0x0000000040c88a88                __initfunc_cache_init_pass
                0x0000000040c88a98                __initfunc_cache_init_vcpu
                0x0000000040c88aa8                __initfunc_cache_init_pcpu
                0x0000000040c88ab8                __initfunc_callrealmode_panic
                0x0000000040c88ac8                __initfunc_callrealmode_init_global
                0x0000000040c88ad8                __initfunc_cpu_mmu_spt_init_pcpu
                0x0000000040c88ae8                __initfunc_cpu_mmu_spt_init_global
                0x0000000040c88af8                __initfunc_cpuid_init
                0x0000000040c88b08                __initfunc_cpuid_pass_init
                0x0000000040c88b18                __initfunc_exint_pass_init
                0x0000000040c88b28                __initfunc_gmm_pass_init
                0x0000000040c88b38                __initfunc_install_int0x15_hook
                0x0000000040c88b48                __initfunc_idman_init
                0x0000000040c88b58                __initfunc_idman_init_global
                0x0000000040c88b68                __initfunc_int_wakeup
                0x0000000040c88b78                __initfunc_int_init_global
                0x0000000040c88b88                __initfunc_io_io_init
                0x0000000040c88b98                __initfunc_setiohooks
                0x0000000040c88ba8                __initfunc_io_iopass_init
                0x0000000040c88bb8                __initfunc_keyboard_init_msg
                0x0000000040c88bc8                __initfunc_localapic_init
                0x0000000040c88bd8                __initfunc_get_shiftflags
                0x0000000040c88be8                __initfunc_copy_minios
                0x0000000040c88bf8                __initfunc_print_boot_msg
                0x0000000040c88c08                __initfunc_debug_on_shift_key
                0x0000000040c88c18                __initfunc_create_pass_vm
                0x0000000040c88c28                __initfunc_virtualization_init_pcpu
                0x0000000040c88c38                __initfunc_unmap_user_area
                0x0000000040c88c48                __initfunc_mm_init_global
                0x0000000040c88c58                __initfunc_mmio_debug
                0x0000000040c88c68                __initfunc_mmio_init
                0x0000000040c88c78                __initfunc_msg_init_global
                0x0000000040c88c88                __initfunc_msr_init
                0x0000000040c88c98                __initfunc_msr_pass_init
                0x0000000040c88ca8                __initfunc_nmi_pass_init_pcpu
                0x0000000040c88cb8                __initfunc_nmi_pass_init
                0x0000000040c88cc8                __initfunc_panic_init_pcpu
                0x0000000040c88cd8                __initfunc_panic_init_msg
                0x0000000040c88ce8                __initfunc_panic_init_global3
                0x0000000040c88cf8                __initfunc_panic_init_global
                0x0000000040c88d08                __initfunc_printf_init_global
                0x0000000040c88d18                __initfunc_process_wakeup
                0x0000000040c88d28                __initfunc_process_init_ap
                0x0000000040c88d38                __initfunc_process_init_global
                0x0000000040c88d48                __initfunc_random_init_config0
                0x0000000040c88d58                __initfunc_random_init_global
                0x0000000040c88d68                __initfunc_reboot_init_msg
                0x0000000040c88d78                __initfunc_segment_init_global
                0x0000000040c88d88                __initfunc_serial_init_msg
                0x0000000040c88d98                __initfunc_sleep_init_msg
                0x0000000040c88da8                __initfunc_sleep_init_global
                0x0000000040c88db8                __initfunc_svm_panic
                0x0000000040c88dc8                __initfunc_sx_init_pass_init
                0x0000000040c88dd8                __initfunc_thread_init_pcpu
                0x0000000040c88de8                __initfunc_thread_init_global
                0x0000000040c88df8                __initfunc_time_init_msg
                0x0000000040c88e08                __initfunc_time_init_pcpu
                0x0000000040c88e18                __initfunc_time_init_global_status
                0x0000000040c88e28                __initfunc_time_init_global
                0x0000000040c88e38                __initfunc_timer_init_global
                0x0000000040c88e48                __initfunc_tty_init_msg
                0x0000000040c88e58                __initfunc_tty_init_global2
                0x0000000040c88e68                __initfunc_tty_init_global
                0x0000000040c88e78                __initfunc_vcpu_init_global
                0x0000000040c88e88                __initfunc_vga_init
                0x0000000040c88e98                __initfunc_vmmcall_init
                0x0000000040c88ea8                __initfunc_vmmcall_boot_init
                0x0000000040c88eb8                __initfunc_vmmcall_dbgsh_init_pcpu
                0x0000000040c88ec8                __initfunc_vmmcall_dbgsh_init_global
                0x0000000040c88ed8                __initfunc_vmmcall_dbgsh_init
                0x0000000040c88ee8                __initfunc_vmmcall_iccard_init
                0x0000000040c88ef8                __initfunc_vmmcall_log_init
                0x0000000040c88f08                __initfunc_vmmcall_status_init
                0x0000000040c88f18                __initfunc_vmmcall_status_init_global
                0x0000000040c88f28                __initfunc_vramwrite_init_bsp
                0x0000000040c88f38                __initfunc_vramwrite_init_msg
                0x0000000040c88f48                __initfunc_vt_register_status_callback
                0x0000000040c88f58                __initfunc_vt_panic
                0x0000000040c88f68                __initfunc_xsetbv_init
                0x0000000040c88f78                __initfunc_xsetbv_pass_init
                0x0000000040c88f88                __initfunc_core_init
                0x0000000040c88f98                __initfunc_ieee1394_init_boot
                0x0000000040c88fa8                __initfunc_ieee1394_init
                0x0000000040c88fb8                __initfunc_iommu_setup
                0x0000000040c88fc8                __initfunc_pci_init
                0x0000000040c88fd8                __initfunc_debug_ata_init
                0x0000000040c88fe8                __initfunc_ata_init
                0x0000000040c88ff8                __initfunc_uhci_init
                0x0000000040c89008                __initfunc_ehci_init
                0x0000000040c89018                __initfunc_pro100_init
                0x0000000040c89028                __initfunc_suspend_pro1000
                0x0000000040c89038                __initfunc_resume_pro1000
                0x0000000040c89048                __initfunc_vpn_pro1000_init
                0x0000000040c89058                __initfunc_storage_kernel_init
                0x0000000040c89068                __initfunc_storage_io_initfunc
                0x0000000040c89078                __initfunc_vpn_kernel_init
                0x0000000040c89088                __initfunc_idman_kernel_init
                0x0000000040c89098                __initfunc_end = .
                0x0000000040c89098                __process_builtin = .
 *(.processes)
 .processes     0x0000000040c89098      0x1a0 output.o
                0x0000000040c89238                __process_builtin_end = .
                0x0000000040c89238                bss = .
 *(.bss)
 *fill*         0x0000000040c89238        0x8 00
 .bss           0x0000000040c89240  0x934a120 output.o
                0x0000000040c8caa0                vmmsize
                0x0000000040c8caa8                memorysize
                0x0000000041690560                pcpu_default
                0x00000000416addc4                ps2_locked
                0x0000000049eae280                handler_descriptor
                0x0000000049eae488                drhd_list_head
                0x0000000049eafcc0                pci_driver_list_head
                0x0000000049eafcc8                pci_device_list_head
                0x0000000049eafe70                uhci_monitor_boost_hc
                0x0000000049eafe88                usb_hc_list_head
                0x0000000049eafe90                usb_busses_head
                0x0000000049eb77a8                rt
                0x0000000049fd11d0                hContext
                0x0000000049fd11d8                sessionTable
                0x0000000049fd11e0                slotTable
                0x0000000049fd11e8                slotFlag
                0x0000000049fd11e9                libInitFlag
                0x0000000049fd1e40                OPENSSL_NONPIC_relocated
                0x0000000049fd1e48                OPENSSL_ia32cap_P
                0x0000000049fd2a88                cleanse_ctr
                0x0000000049fd2ae8                obj_cleanup_defer
                0x0000000049fd2b08                _shadow_DES_check_key
                0x0000000049fd2c08                app_pkey_methods
                0x0000000049fd2c60                chelp_inited
 *(COMMON)
 COMMON         0x0000000049fd3360      0xec4 output.o
                0x0000000049fd3360                clflush_size
                0x0000000049fd3380                sReaderContext
                0x0000000049fd33e0                sigx_app
                0x0000000049fd33e8                num_dom
                0x0000000049fd3400                mszReaders
                0x0000000049fd3800                prohibit_iccard_init
                0x0000000049fd3808                curthread
                0x0000000049fd3810                sig_app
                0x0000000049fd3820                readerState
                0x0000000049fd38a0                dom_io
                0x0000000049fd40a0                acpi_dsdt_system_state
                0x0000000049fd40c0                ehci_host
                0x0000000049fd40c8                num_of_processors
                0x0000000049fd40cc                e801_fake_bx
                0x0000000049fd40ce                iommu_detected
                0x0000000049fd40d0                dwReaders
                0x0000000049fd40e0                readerTracker
                0x0000000049fd4220                handler_descriptor_lock
                0x0000000049fd4222                e801_fake_ax
                0x0000000049fd5000                . = ALIGN (0x1000)
 *fill*         0x0000000049fd4224      0xddc 00
                0x0000000049fd5000                end = .

.igot.plt       0x0000000049fd5000        0x0 load address 0x0000000009fd5000
 .igot.plt      0x0000000000000000        0x0 output.o

/DISCARD/
 *(.gomi)
LOAD output.o
OUTPUT(bitvisor.elf elf64-x86-64)

.comment        0x0000000000000000       0x2a
 .comment       0x0000000000000000       0x2a output.o
                                       0x5d8f (size before relaxing)

.note.GNU-stack
                0x0000000000000000        0x0
 .note.GNU-stack
                0x0000000000000000        0x0 output.o

.debug_aranges  0x0000000000000000     0x69c0
 .debug_aranges
                0x0000000000000000     0x69c0 output.o

.debug_info     0x0000000000000000   0x29bee8
 .debug_info    0x0000000000000000   0x29bee8 output.o

.debug_abbrev   0x0000000000000000    0x4404a
 .debug_abbrev  0x0000000000000000    0x4404a output.o

.debug_line     0x0000000000000000    0x4cdbe
 .debug_line    0x0000000000000000    0x4cdbe output.o

.debug_str      0x0000000000000000    0x36943
 .debug_str     0x0000000000000000    0x36943 output.o
                                     0x1240b3 (size before relaxing)

.debug_loc      0x0000000000000000   0x23eb79
 .debug_loc     0x0000000000000000   0x23eb79 output.o

.debug_ranges   0x0000000000000000     0x79c0
 .debug_ranges  0x0000000000000000     0x79c0 output.o

Cross Reference Table

Symbol                                            File
ACCESS_DESCRIPTION_free                           output.o
ACCESS_DESCRIPTION_it                             output.o
ACCESS_DESCRIPTION_new                            output.o
AES_cbc_encrypt                                   output.o
AES_cfb128_encrypt                                output.o
AES_cfb1_encrypt                                  output.o
AES_cfb8_encrypt                                  output.o
AES_decrypt                                       output.o
AES_ecb_encrypt                                   output.o
AES_encrypt                                       output.o
AES_ofb128_encrypt                                output.o
AES_set_decrypt_key                               output.o
AES_set_encrypt_key                               output.o
AES_unwrap_key                                    output.o
AES_wrap_key                                      output.o
ASN1_ANY_it                                       output.o
ASN1_BIT_STRING_check                             output.o
ASN1_BIT_STRING_free                              output.o
ASN1_BIT_STRING_get_bit                           output.o
ASN1_BIT_STRING_it                                output.o
ASN1_BIT_STRING_new                               output.o
ASN1_BIT_STRING_set                               output.o
ASN1_BIT_STRING_set_bit                           output.o
ASN1_BMPSTRING_free                               output.o
ASN1_BMPSTRING_it                                 output.o
ASN1_BMPSTRING_new                                output.o
ASN1_BOOLEAN_it                                   output.o
ASN1_ENUMERATED_free                              output.o
ASN1_ENUMERATED_get                               output.o
ASN1_ENUMERATED_it                                output.o
ASN1_ENUMERATED_new                               output.o
ASN1_ENUMERATED_set                               output.o
ASN1_ENUMERATED_to_BN                             output.o
ASN1_FBOOLEAN_it                                  output.o
ASN1_GENERALIZEDTIME_adj                          output.o
ASN1_GENERALIZEDTIME_check                        output.o
ASN1_GENERALIZEDTIME_free                         output.o
ASN1_GENERALIZEDTIME_it                           output.o
ASN1_GENERALIZEDTIME_new                          output.o
ASN1_GENERALIZEDTIME_print                        output.o
ASN1_GENERALIZEDTIME_set                          output.o
ASN1_GENERALIZEDTIME_set_string                   output.o
ASN1_GENERALSTRING_free                           output.o
ASN1_GENERALSTRING_it                             output.o
ASN1_GENERALSTRING_new                            output.o
ASN1_IA5STRING_free                               output.o
ASN1_IA5STRING_it                                 output.o
ASN1_IA5STRING_new                                output.o
ASN1_INTEGER_cmp                                  output.o
ASN1_INTEGER_dup                                  output.o
ASN1_INTEGER_free                                 output.o
ASN1_INTEGER_get                                  output.o
ASN1_INTEGER_it                                   output.o
ASN1_INTEGER_new                                  output.o
ASN1_INTEGER_set                                  output.o
ASN1_INTEGER_to_BN                                output.o
ASN1_NULL_free                                    output.o
ASN1_NULL_it                                      output.o
ASN1_NULL_new                                     output.o
ASN1_OBJECT_create                                output.o
ASN1_OBJECT_free                                  output.o
ASN1_OBJECT_it                                    output.o
ASN1_OBJECT_new                                   output.o
ASN1_OCTET_STRING_NDEF_it                         output.o
ASN1_OCTET_STRING_cmp                             output.o
ASN1_OCTET_STRING_dup                             output.o
ASN1_OCTET_STRING_free                            output.o
ASN1_OCTET_STRING_it                              output.o
ASN1_OCTET_STRING_new                             output.o
ASN1_OCTET_STRING_set                             output.o
ASN1_PCTX_free                                    output.o
ASN1_PCTX_get_cert_flags                          output.o
ASN1_PCTX_get_flags                               output.o
ASN1_PCTX_get_nm_flags                            output.o
ASN1_PCTX_get_oid_flags                           output.o
ASN1_PCTX_get_str_flags                           output.o
ASN1_PCTX_new                                     output.o
ASN1_PCTX_set_cert_flags                          output.o
ASN1_PCTX_set_flags                               output.o
ASN1_PCTX_set_nm_flags                            output.o
ASN1_PCTX_set_oid_flags                           output.o
ASN1_PCTX_set_str_flags                           output.o
ASN1_PRINTABLESTRING_free                         output.o
ASN1_PRINTABLESTRING_it                           output.o
ASN1_PRINTABLESTRING_new                          output.o
ASN1_PRINTABLE_free                               output.o
ASN1_PRINTABLE_it                                 output.o
ASN1_PRINTABLE_new                                output.o
ASN1_PRINTABLE_type                               output.o
ASN1_SEQUENCE_ANY_it                              output.o
ASN1_SEQUENCE_it                                  output.o
ASN1_SET_ANY_it                                   output.o
ASN1_STRING_TABLE_add                             output.o
ASN1_STRING_TABLE_cleanup                         output.o
ASN1_STRING_TABLE_get                             output.o
ASN1_STRING_cmp                                   output.o
ASN1_STRING_copy                                  output.o
ASN1_STRING_data                                  output.o
ASN1_STRING_dup                                   output.o
ASN1_STRING_free                                  output.o
ASN1_STRING_get_default_mask                      output.o
ASN1_STRING_length                                output.o
ASN1_STRING_length_set                            output.o
ASN1_STRING_new                                   output.o
ASN1_STRING_print                                 output.o
ASN1_STRING_print_ex                              output.o
ASN1_STRING_set                                   output.o
ASN1_STRING_set0                                  output.o
ASN1_STRING_set_by_NID                            output.o
ASN1_STRING_set_default_mask                      output.o
ASN1_STRING_set_default_mask_asc                  output.o
ASN1_STRING_to_UTF8                               output.o
ASN1_STRING_type                                  output.o
ASN1_STRING_type_new                              output.o
ASN1_T61STRING_free                               output.o
ASN1_T61STRING_it                                 output.o
ASN1_T61STRING_new                                output.o
ASN1_TBOOLEAN_it                                  output.o
ASN1_TIME_adj                                     output.o
ASN1_TIME_check                                   output.o
ASN1_TIME_free                                    output.o
ASN1_TIME_it                                      output.o
ASN1_TIME_new                                     output.o
ASN1_TIME_print                                   output.o
ASN1_TIME_set                                     output.o
ASN1_TIME_set_string                              output.o
ASN1_TIME_to_generalizedtime                      output.o
ASN1_TYPE_cmp                                     output.o
ASN1_TYPE_free                                    output.o
ASN1_TYPE_get                                     output.o
ASN1_TYPE_get_int_octetstring                     output.o
ASN1_TYPE_get_octetstring                         output.o
ASN1_TYPE_new                                     output.o
ASN1_TYPE_set                                     output.o
ASN1_TYPE_set1                                    output.o
ASN1_TYPE_set_int_octetstring                     output.o
ASN1_TYPE_set_octetstring                         output.o
ASN1_UNIVERSALSTRING_free                         output.o
ASN1_UNIVERSALSTRING_it                           output.o
ASN1_UNIVERSALSTRING_new                          output.o
ASN1_UNIVERSALSTRING_to_string                    output.o
ASN1_UTCTIME_adj                                  output.o
ASN1_UTCTIME_check                                output.o
ASN1_UTCTIME_cmp_time_t                           output.o
ASN1_UTCTIME_free                                 output.o
ASN1_UTCTIME_it                                   output.o
ASN1_UTCTIME_new                                  output.o
ASN1_UTCTIME_print                                output.o
ASN1_UTCTIME_set                                  output.o
ASN1_UTCTIME_set_string                           output.o
ASN1_UTF8STRING_free                              output.o
ASN1_UTF8STRING_it                                output.o
ASN1_UTF8STRING_new                               output.o
ASN1_VISIBLESTRING_free                           output.o
ASN1_VISIBLESTRING_it                             output.o
ASN1_VISIBLESTRING_new                            output.o
ASN1_bn_print                                     output.o
ASN1_check_infinite_end                           output.o
ASN1_const_check_infinite_end                     output.o
ASN1_d2i_bio                                      output.o
ASN1_digest                                       output.o
ASN1_dup                                          output.o
ASN1_generate_nconf                               output.o
ASN1_generate_v3                                  output.o
ASN1_get_object                                   output.o
ASN1_i2d_bio                                      output.o
ASN1_item_d2i                                     output.o
ASN1_item_d2i_bio                                 output.o
ASN1_item_digest                                  output.o
ASN1_item_dup                                     output.o
ASN1_item_ex_d2i                                  output.o
ASN1_item_ex_free                                 output.o
ASN1_item_ex_i2d                                  output.o
ASN1_item_ex_new                                  output.o
ASN1_item_free                                    output.o
ASN1_item_i2d                                     output.o
ASN1_item_i2d_bio                                 output.o
ASN1_item_ndef_i2d                                output.o
ASN1_item_new                                     output.o
ASN1_item_pack                                    output.o
ASN1_item_print                                   output.o
ASN1_item_sign                                    output.o
ASN1_item_unpack                                  output.o
ASN1_item_verify                                  output.o
ASN1_mbstring_copy                                output.o
ASN1_mbstring_ncopy                               output.o
ASN1_object_size                                  output.o
ASN1_pack_string                                  output.o
ASN1_parse                                        output.o
ASN1_parse_dump                                   output.o
ASN1_primitive_free                               output.o
ASN1_primitive_new                                output.o
ASN1_put_eoc                                      output.o
ASN1_put_object                                   output.o
ASN1_seq_pack                                     output.o
ASN1_seq_unpack                                   output.o
ASN1_sign                                         output.o
ASN1_tag2bit                                      output.o
ASN1_tag2str                                      output.o
ASN1_template_d2i                                 output.o
ASN1_template_free                                output.o
ASN1_template_i2d                                 output.o
ASN1_template_new                                 output.o
ASN1_unpack_string                                output.o
ASN1_verify                                       output.o
ASN1_version                                      output.o
AUTHORITY_INFO_ACCESS_free                        output.o
AUTHORITY_INFO_ACCESS_it                          output.o
AUTHORITY_INFO_ACCESS_new                         output.o
AUTHORITY_KEYID_free                              output.o
AUTHORITY_KEYID_it                                output.o
AUTHORITY_KEYID_new                               output.o
AddCertDataByBuf                                  output.o
AddElem                                           output.o
AddIdPassDataByBuf                                output.o
AddObjTblByTlv                                    output.o
BASIC_CONSTRAINTS_free                            output.o
BASIC_CONSTRAINTS_it                              output.o
BASIC_CONSTRAINTS_new                             output.o
BF_cbc_encrypt                                    output.o
BF_cfb64_encrypt                                  output.o
BF_decrypt                                        output.o
BF_ecb_encrypt                                    output.o
BF_encrypt                                        output.o
BF_ofb64_encrypt                                  output.o
BF_options                                        output.o
BF_set_key                                        output.o
BF_version                                        output.o
BIGNUM_it                                         output.o
BIO_asn1_get_prefix                               output.o
BIO_asn1_get_suffix                               output.o
BIO_asn1_set_prefix                               output.o
BIO_asn1_set_suffix                               output.o
BIO_callback_ctrl                                 output.o
BIO_clear_flags                                   output.o
BIO_copy_next_retry                               output.o
BIO_ctrl                                          output.o
BIO_ctrl_pending                                  output.o
BIO_ctrl_wpending                                 output.o
BIO_dump                                          output.o
BIO_dump_cb                                       output.o
BIO_dump_indent                                   output.o
BIO_dump_indent_cb                                output.o
BIO_dup_chain                                     output.o
BIO_f_asn1                                        output.o
BIO_f_base64                                      output.o
BIO_f_buffer                                      output.o
BIO_f_cipher                                      output.o
BIO_f_md                                          output.o
BIO_find_type                                     output.o
BIO_free                                          output.o
BIO_free_all                                      output.o
BIO_get_callback                                  output.o
BIO_get_callback_arg                              output.o
BIO_get_ex_data                                   output.o
BIO_get_ex_new_index                              output.o
BIO_get_retry_BIO                                 output.o
BIO_get_retry_reason                              output.o
BIO_gets                                          output.o
BIO_indent                                        output.o
BIO_int_ctrl                                      output.o
BIO_method_name                                   output.o
BIO_method_type                                   output.o
BIO_new                                           output.o
BIO_new_CMS                                       output.o
BIO_new_NDEF                                      output.o
BIO_new_mem_buf                                   output.o
BIO_next                                          output.o
BIO_number_read                                   output.o
BIO_number_written                                output.o
BIO_pop                                           output.o
BIO_printf                                        output.o
BIO_ptr_ctrl                                      output.o
BIO_push                                          output.o
BIO_puts                                          output.o
BIO_read                                          output.o
BIO_s_mem                                         output.o
BIO_s_null                                        output.o
BIO_set                                           output.o
BIO_set_callback                                  output.o
BIO_set_callback_arg                              output.o
BIO_set_cipher                                    output.o
BIO_set_ex_data                                   output.o
BIO_set_flags                                     output.o
BIO_snprintf                                      output.o
BIO_test_flags                                    output.o
BIO_vfree                                         output.o
BIO_write                                         output.o
BN_BLINDING_convert                               output.o
BN_BLINDING_convert_ex                            output.o
BN_BLINDING_create_param                          output.o
BN_BLINDING_free                                  output.o
BN_BLINDING_get_flags                             output.o
BN_BLINDING_get_thread_id                         output.o
BN_BLINDING_invert                                output.o
BN_BLINDING_invert_ex                             output.o
BN_BLINDING_new                                   output.o
BN_BLINDING_set_flags                             output.o
BN_BLINDING_set_thread_id                         output.o
BN_BLINDING_thread_id                             output.o
BN_BLINDING_update                                output.o
BN_CTX_end                                        output.o
BN_CTX_free                                       output.o
BN_CTX_get                                        output.o
BN_CTX_init                                       output.o
BN_CTX_new                                        output.o
BN_CTX_start                                      output.o
BN_GENCB_call                                     output.o
BN_GF2m_add                                       output.o
BN_GF2m_arr2poly                                  output.o
BN_GF2m_mod                                       output.o
BN_GF2m_mod_arr                                   output.o
BN_GF2m_mod_div                                   output.o
BN_GF2m_mod_div_arr                               output.o
BN_GF2m_mod_exp                                   output.o
BN_GF2m_mod_exp_arr                               output.o
BN_GF2m_mod_inv                                   output.o
BN_GF2m_mod_inv_arr                               output.o
BN_GF2m_mod_mul                                   output.o
BN_GF2m_mod_mul_arr                               output.o
BN_GF2m_mod_solve_quad                            output.o
BN_GF2m_mod_solve_quad_arr                        output.o
BN_GF2m_mod_sqr                                   output.o
BN_GF2m_mod_sqr_arr                               output.o
BN_GF2m_mod_sqrt                                  output.o
BN_GF2m_mod_sqrt_arr                              output.o
BN_GF2m_poly2arr                                  output.o
BN_MONT_CTX_copy                                  output.o
BN_MONT_CTX_free                                  output.o
BN_MONT_CTX_init                                  output.o
BN_MONT_CTX_new                                   output.o
BN_MONT_CTX_set                                   output.o
BN_MONT_CTX_set_locked                            output.o
BN_RECP_CTX_free                                  output.o
BN_RECP_CTX_init                                  output.o
BN_RECP_CTX_new                                   output.o
BN_RECP_CTX_set                                   output.o
BN_add                                            output.o
BN_add_word                                       output.o
BN_asc2bn                                         output.o
BN_bin2bn                                         output.o
BN_bn2bin                                         output.o
BN_bn2dec                                         output.o
BN_bn2hex                                         output.o
BN_bntest_rand                                    output.o
BN_clear                                          output.o
BN_clear_bit                                      output.o
BN_clear_free                                     output.o
BN_cmp                                            output.o
BN_copy                                           output.o
BN_dec2bn                                         output.o
BN_div                                            output.o
BN_div_recp                                       output.o
BN_div_word                                       output.o
BN_dup                                            output.o
BN_exp                                            output.o
BN_free                                           output.o
BN_from_montgomery                                output.o
BN_gcd                                            output.o
BN_generate_prime_ex                              output.o
BN_get0_nist_prime_192                            output.o
BN_get0_nist_prime_224                            output.o
BN_get0_nist_prime_256                            output.o
BN_get0_nist_prime_384                            output.o
BN_get0_nist_prime_521                            output.o
BN_get_params                                     output.o
BN_get_word                                       output.o
BN_hex2bn                                         output.o
BN_init                                           output.o
BN_is_bit_set                                     output.o
BN_is_prime_ex                                    output.o
BN_is_prime_fasttest_ex                           output.o
BN_kronecker                                      output.o
BN_lshift                                         output.o
BN_lshift1                                        output.o
BN_mask_bits                                      output.o
BN_mod_add                                        output.o
BN_mod_add_quick                                  output.o
BN_mod_exp                                        output.o
BN_mod_exp2_mont                                  output.o
BN_mod_exp_mont                                   output.o
BN_mod_exp_mont_consttime                         output.o
BN_mod_exp_mont_word                              output.o
BN_mod_exp_recp                                   output.o
BN_mod_exp_simple                                 output.o
BN_mod_inverse                                    output.o
BN_mod_lshift                                     output.o
BN_mod_lshift1                                    output.o
BN_mod_lshift1_quick                              output.o
BN_mod_lshift_quick                               output.o
BN_mod_mul                                        output.o
BN_mod_mul_montgomery                             output.o
BN_mod_mul_reciprocal                             output.o
BN_mod_sqr                                        output.o
BN_mod_sqrt                                       output.o
BN_mod_sub                                        output.o
BN_mod_sub_quick                                  output.o
BN_mod_word                                       output.o
BN_mul                                            output.o
BN_mul_word                                       output.o
BN_new                                            output.o
BN_nist_mod_192                                   output.o
BN_nist_mod_224                                   output.o
BN_nist_mod_256                                   output.o
BN_nist_mod_384                                   output.o
BN_nist_mod_521                                   output.o
BN_nnmod                                          output.o
BN_num_bits                                       output.o
BN_num_bits_word                                  output.o
BN_options                                        output.o
BN_print                                          output.o
BN_pseudo_rand                                    output.o
BN_pseudo_rand_range                              output.o
BN_rand                                           output.o
BN_rand_range                                     output.o
BN_reciprocal                                     output.o
BN_rshift                                         output.o
BN_rshift1                                        output.o
BN_set_bit                                        output.o
BN_set_negative                                   output.o
BN_set_params                                     output.o
BN_set_word                                       output.o
BN_sqr                                            output.o
BN_sub                                            output.o
BN_sub_word                                       output.o
BN_swap                                           output.o
BN_to_ASN1_ENUMERATED                             output.o
BN_to_ASN1_INTEGER                                output.o
BN_uadd                                           output.o
BN_ucmp                                           output.o
BN_usub                                           output.o
BN_value_one                                      output.o
BN_version                                        output.o
BUF_MEM_free                                      output.o
BUF_MEM_grow                                      output.o
BUF_MEM_grow_clean                                output.o
BUF_MEM_new                                       output.o
BUF_memdup                                        output.o
BUF_reverse                                       output.o
BUF_strdup                                        output.o
BUF_strlcat                                       output.o
BUF_strlcpy                                       output.o
BUF_strndup                                       output.o
BlockSendCardT1                                   output.o
CAST_S_table0                                     output.o
CAST_S_table1                                     output.o
CAST_S_table2                                     output.o
CAST_S_table3                                     output.o
CAST_S_table4                                     output.o
CAST_S_table5                                     output.o
CAST_S_table6                                     output.o
CAST_S_table7                                     output.o
CAST_cbc_encrypt                                  output.o
CAST_cfb64_encrypt                                output.o
CAST_decrypt                                      output.o
CAST_ecb_encrypt                                  output.o
CAST_encrypt                                      output.o
CAST_ofb64_encrypt                                output.o
CAST_set_key                                      output.o
CAST_version                                      output.o
CBIGNUM_it                                        output.o
CERTIFICATEPOLICIES_free                          output.o
CERTIFICATEPOLICIES_it                            output.o
CERTIFICATEPOLICIES_new                           output.o
CMS_Attributes_Sign_it                            output.o
CMS_Attributes_Verify_it                          output.o
CMS_AuthenticatedData_it                          output.o
CMS_CertificateChoices_it                         output.o
CMS_CompressedData_it                             output.o
CMS_ContentInfo_free                              output.o
CMS_ContentInfo_it                                output.o
CMS_ContentInfo_new                               output.o
CMS_ContentInfo_print_ctx                         output.o
CMS_DigestedData_it                               output.o
CMS_EncapsulatedContentInfo_it                    output.o
CMS_EncryptedContentInfo_it                       output.o
CMS_EncryptedData_it                              output.o
CMS_EncryptedData_set1_key                        output.o
CMS_EnvelopedData_create                          output.o
CMS_EnvelopedData_it                              output.o
CMS_IssuerAndSerialNumber_it                      output.o
CMS_KEKIdentifier_it                              output.o
CMS_KEKRecipientInfo_it                           output.o
CMS_KeyAgreeRecipientIdentifier_it                output.o
CMS_KeyAgreeRecipientInfo_it                      output.o
CMS_KeyTransRecipientInfo_it                      output.o
CMS_OriginatorIdentifierOrKey_it                  output.o
CMS_OriginatorInfo_it                             output.o
CMS_OriginatorPublicKey_it                        output.o
CMS_OtherCertificateFormat_it                     output.o
CMS_OtherKeyAttribute_it                          output.o
CMS_OtherRecipientInfo_it                         output.o
CMS_OtherRevocationInfoFormat_it                  output.o
CMS_PasswordRecipientInfo_it                      output.o
CMS_ReceiptRequest_it                             output.o
CMS_Receipt_it                                    output.o
CMS_ReceiptsFrom_it                               output.o
CMS_RecipientEncryptedKey_it                      output.o
CMS_RecipientInfo_decrypt                         output.o
CMS_RecipientInfo_it                              output.o
CMS_RecipientInfo_kekri_get0_id                   output.o
CMS_RecipientInfo_kekri_id_cmp                    output.o
CMS_RecipientInfo_ktri_cert_cmp                   output.o
CMS_RecipientInfo_ktri_get0_algs                  output.o
CMS_RecipientInfo_ktri_get0_signer_id             output.o
CMS_RecipientInfo_set0_key                        output.o
CMS_RecipientInfo_set0_pkey                       output.o
CMS_RecipientInfo_type                            output.o
CMS_RecipientKeyIdentifier_it                     output.o
CMS_RevocationInfoChoice_it                       output.o
CMS_SignedData_init                               output.o
CMS_SignedData_it                                 output.o
CMS_SignerIdentifier_it                           output.o
CMS_SignerInfo_cert_cmp                           output.o
CMS_SignerInfo_get0_algs                          output.o
CMS_SignerInfo_get0_signer_id                     output.o
CMS_SignerInfo_it                                 output.o
CMS_SignerInfo_set1_signer_cert                   output.o
CMS_SignerInfo_sign                               output.o
CMS_SignerInfo_verify                             output.o
CMS_SignerInfo_verify_content                     output.o
CMS_add0_CertificateChoices                       output.o
CMS_add0_RevocationInfoChoice                     output.o
CMS_add0_cert                                     output.o
CMS_add0_crl                                      output.o
CMS_add0_recipient_key                            output.o
CMS_add1_cert                                     output.o
CMS_add1_crl                                      output.o
CMS_add1_recipient_cert                           output.o
CMS_add1_signer                                   output.o
CMS_add_simple_smimecap                           output.o
CMS_add_smimecap                                  output.o
CMS_add_standard_smimecap                         output.o
CMS_dataFinal                                     output.o
CMS_dataInit                                      output.o
CMS_get0_RecipientInfos                           output.o
CMS_get0_SignerInfos                              output.o
CMS_get0_content                                  output.o
CMS_get0_eContentType                             output.o
CMS_get0_signers                                  output.o
CMS_get0_type                                     output.o
CMS_get1_certs                                    output.o
CMS_get1_crls                                     output.o
CMS_is_detached                                   output.o
CMS_set1_eContentType                             output.o
CMS_set1_signers_certs                            output.o
CMS_set_detached                                  output.o
CMS_signed_add1_attr                              output.o
CMS_signed_add1_attr_by_NID                       output.o
CMS_signed_add1_attr_by_OBJ                       output.o
CMS_signed_add1_attr_by_txt                       output.o
CMS_signed_delete_attr                            output.o
CMS_signed_get0_data_by_OBJ                       output.o
CMS_signed_get_attr                               output.o
CMS_signed_get_attr_by_NID                        output.o
CMS_signed_get_attr_by_OBJ                        output.o
CMS_signed_get_attr_count                         output.o
CMS_stream                                        output.o
CMS_unsigned_add1_attr                            output.o
CMS_unsigned_add1_attr_by_NID                     output.o
CMS_unsigned_add1_attr_by_OBJ                     output.o
CMS_unsigned_add1_attr_by_txt                     output.o
CMS_unsigned_delete_attr                          output.o
CMS_unsigned_get0_data_by_OBJ                     output.o
CMS_unsigned_get_attr                             output.o
CMS_unsigned_get_attr_by_NID                      output.o
CMS_unsigned_get_attr_by_OBJ                      output.o
CMS_unsigned_get_attr_count                       output.o
CONF_def_version                                  output.o
CONF_dump_bio                                     output.o
CONF_free                                         output.o
CONF_get1_default_config_file                     output.o
CONF_get_number                                   output.o
CONF_get_section                                  output.o
CONF_get_string                                   output.o
CONF_imodule_get_flags                            output.o
CONF_imodule_get_module                           output.o
CONF_imodule_get_name                             output.o
CONF_imodule_get_usr_data                         output.o
CONF_imodule_get_value                            output.o
CONF_imodule_set_flags                            output.o
CONF_imodule_set_usr_data                         output.o
CONF_load                                         output.o
CONF_load_bio                                     output.o
CONF_module_add                                   output.o
CONF_module_get_usr_data                          output.o
CONF_module_set_usr_data                          output.o
CONF_modules_finish                               output.o
CONF_modules_free                                 output.o
CONF_modules_load                                 output.o
CONF_modules_load_file                            output.o
CONF_modules_unload                               output.o
CONF_parse_list                                   output.o
CONF_set_default_method                           output.o
CONF_set_nconf                                    output.o
CONF_version                                      output.o
CRL_DIST_POINTS_free                              output.o
CRL_DIST_POINTS_it                                output.o
CRL_DIST_POINTS_new                               output.o
CRYPTO_THREADID_cmp                               output.o
CRYPTO_THREADID_cpy                               output.o
CRYPTO_THREADID_current                           output.o
CRYPTO_THREADID_get_callback                      output.o
CRYPTO_THREADID_hash                              output.o
CRYPTO_THREADID_set_callback                      output.o
CRYPTO_THREADID_set_numeric                       output.o
CRYPTO_THREADID_set_pointer                       output.o
CRYPTO_add_lock                                   output.o
CRYPTO_cbc128_decrypt                             output.o
CRYPTO_cbc128_encrypt                             output.o
CRYPTO_cfb128_1_encrypt                           output.o
CRYPTO_cfb128_8_encrypt                           output.o
CRYPTO_cfb128_encrypt                             output.o
CRYPTO_cleanup_all_ex_data                        output.o
CRYPTO_dbg_free                                   output.o
CRYPTO_dbg_get_options                            output.o
CRYPTO_dbg_malloc                                 output.o
CRYPTO_dbg_realloc                                output.o
CRYPTO_dbg_set_options                            output.o
CRYPTO_destroy_dynlockid                          output.o
CRYPTO_dup_ex_data                                output.o
CRYPTO_ex_data_new_class                          output.o
CRYPTO_free                                       output.o
CRYPTO_free_ex_data                               output.o
CRYPTO_free_locked                                output.o
CRYPTO_get_add_lock_callback                      output.o
CRYPTO_get_dynlock_create_callback                output.o
CRYPTO_get_dynlock_destroy_callback               output.o
CRYPTO_get_dynlock_lock_callback                  output.o
CRYPTO_get_dynlock_value                          output.o
CRYPTO_get_ex_data                                output.o
CRYPTO_get_ex_data_implementation                 output.o
CRYPTO_get_ex_new_index                           output.o
CRYPTO_get_id_callback                            output.o
CRYPTO_get_lock_name                              output.o
CRYPTO_get_locked_mem_ex_functions                output.o
CRYPTO_get_locked_mem_functions                   output.o
CRYPTO_get_locking_callback                       output.o
CRYPTO_get_mem_debug_functions                    output.o
CRYPTO_get_mem_debug_options                      output.o
CRYPTO_get_mem_ex_functions                       output.o
CRYPTO_get_mem_functions                          output.o
CRYPTO_get_new_dynlockid                          output.o
CRYPTO_get_new_lockid                             output.o
CRYPTO_is_mem_check_on                            output.o
CRYPTO_lock                                       output.o
CRYPTO_malloc                                     output.o
CRYPTO_malloc_locked                              output.o
CRYPTO_mem_ctrl                                   output.o
CRYPTO_mem_leaks                                  output.o
CRYPTO_mem_leaks_cb                               output.o
CRYPTO_new_ex_data                                output.o
CRYPTO_num_locks                                  output.o
CRYPTO_ofb128_encrypt                             output.o
CRYPTO_pop_info                                   output.o
CRYPTO_push_info_                                 output.o
CRYPTO_realloc                                    output.o
CRYPTO_realloc_clean                              output.o
CRYPTO_remalloc                                   output.o
CRYPTO_remove_all_info                            output.o
CRYPTO_set_add_lock_callback                      output.o
CRYPTO_set_dynlock_create_callback                output.o
CRYPTO_set_dynlock_destroy_callback               output.o
CRYPTO_set_dynlock_lock_callback                  output.o
CRYPTO_set_ex_data                                output.o
CRYPTO_set_ex_data_implementation                 output.o
CRYPTO_set_id_callback                            output.o
CRYPTO_set_locked_mem_ex_functions                output.o
CRYPTO_set_locked_mem_functions                   output.o
CRYPTO_set_locking_callback                       output.o
CRYPTO_set_mem_debug_functions                    output.o
CRYPTO_set_mem_debug_options                      output.o
CRYPTO_set_mem_ex_functions                       output.o
CRYPTO_set_mem_functions                          output.o
CRYPTO_strdup                                     output.o
CRYPTO_thread_id                                  output.o
C_CloseAllSessions                                output.o
C_CloseSession                                    output.o
C_CreateObject                                    output.o
C_DestroyObject                                   output.o
C_DigestFinal                                     output.o
C_DigestInit                                      output.o
C_DigestUpdate                                    output.o
C_Finalize                                        output.o
C_FindObjects                                     output.o
C_FindObjectsFinal                                output.o
C_FindObjectsInit                                 output.o
C_GetAttributeValue                               output.o
C_GetCardStatus                                   output.o
C_GetFunctionList                                 output.o
C_GetInfo                                         output.o
C_GetMechanismInfo                                output.o
C_GetMechanismList                                output.o
C_GetSessionInfo                                  output.o
C_GetSlotInfo                                     output.o
C_GetSlotList                                     output.o
C_GetTokenInfo                                    output.o
C_Initialize                                      output.o
C_Login                                           output.o
C_Logout                                          output.o
C_OpenSession                                     output.o
C_SetAttributeValue                               output.o
C_Sign                                            output.o
C_SignInit                                        output.o
C_Verify                                          output.o
C_VerifyInit                                      output.o
CardConnect                                       output.o
CardDisconnect                                    output.o
CardEstablishContext                              output.o
CardListReaders                                   output.o
CardMechanical                                    output.o
CardReleaseContext                                output.o
CardStateConfirm                                  output.o
CardStatus                                        output.o
CardTransmit                                      output.o
CloseUSB                                          output.o
DES_SPtrans                                       output.o
DES_cfb64_encrypt                                 output.o
DES_cfb_encrypt                                   output.o
DES_check_key_parity                              output.o
DES_decrypt3                                      output.o
DES_ecb3_encrypt                                  output.o
DES_ecb_encrypt                                   output.o
DES_ede3_cbc_encrypt                              output.o
DES_ede3_cfb64_encrypt                            output.o
DES_ede3_cfb_encrypt                              output.o
DES_ede3_ofb64_encrypt                            output.o
DES_encrypt1                                      output.o
DES_encrypt2                                      output.o
DES_encrypt3                                      output.o
DES_is_weak_key                                   output.o
DES_key_sched                                     output.o
DES_ncbc_encrypt                                  output.o
DES_ofb64_encrypt                                 output.o
DES_options                                       output.o
DES_random_key                                    output.o
DES_set_key                                       output.o
DES_set_key_checked                               output.o
DES_set_key_unchecked                             output.o
DES_set_odd_parity                                output.o
DES_xcbc_encrypt                                  output.o
DH_OpenSSL                                        output.o
DH_check                                          output.o
DH_check_pub_key                                  output.o
DH_compute_key                                    output.o
DH_free                                           output.o
DH_generate_key                                   output.o
DH_generate_parameters_ex                         output.o
DH_get_default_method                             output.o
DH_get_ex_data                                    output.o
DH_get_ex_new_index                               output.o
DH_new                                            output.o
DH_new_method                                     output.o
DH_set_default_method                             output.o
DH_set_ex_data                                    output.o
DH_set_method                                     output.o
DH_size                                           output.o
DH_up_ref                                         output.o
DH_version                                        output.o
DHparams_dup                                      output.o
DHparams_it                                       output.o
DHparams_print                                    output.o
DI                                                output.o
DIRECTORYSTRING_free                              output.o
DIRECTORYSTRING_it                                output.o
DIRECTORYSTRING_new                               output.o
DISPLAYTEXT_free                                  output.o
DISPLAYTEXT_it                                    output.o
DISPLAYTEXT_new                                   output.o
DIST_POINT_NAME_free                              output.o
DIST_POINT_NAME_it                                output.o
DIST_POINT_NAME_new                               output.o
DIST_POINT_free                                   output.o
DIST_POINT_it                                     output.o
DIST_POINT_new                                    output.o
DIST_POINT_set_dpname                             output.o
DSAPrivateKey_it                                  output.o
DSAPublicKey_it                                   output.o
DSA_OpenSSL                                       output.o
DSA_SIG_free                                      output.o
DSA_SIG_it                                        output.o
DSA_SIG_new                                       output.o
DSA_do_sign                                       output.o
DSA_do_verify                                     output.o
DSA_dup_DH                                        output.o
DSA_free                                          output.o
DSA_generate_key                                  output.o
DSA_generate_parameters_ex                        output.o
DSA_get_default_method                            output.o
DSA_get_ex_data                                   output.o
DSA_get_ex_new_index                              output.o
DSA_new                                           output.o
DSA_new_method                                    output.o
DSA_set_default_method                            output.o
DSA_set_ex_data                                   output.o
DSA_set_method                                    output.o
DSA_sign                                          output.o
DSA_sign_setup                                    output.o
DSA_size                                          output.o
DSA_up_ref                                        output.o
DSA_verify                                        output.o
DSA_version                                       output.o
DSAparams_dup                                     output.o
DSAparams_it                                      output.o
DSO_METHOD_null                                   output.o
DSO_METHOD_openssl                                output.o
DSO_bind_func                                     output.o
DSO_bind_var                                      output.o
DSO_convert_filename                              output.o
DSO_ctrl                                          output.o
DSO_flags                                         output.o
DSO_free                                          output.o
DSO_get_default_method                            output.o
DSO_get_filename                                  output.o
DSO_get_loaded_filename                           output.o
DSO_get_method                                    output.o
DSO_global_lookup                                 output.o
DSO_load                                          output.o
DSO_merge                                         output.o
DSO_new                                           output.o
DSO_new_method                                    output.o
DSO_pathbyaddr                                    output.o
DSO_set_default_method                            output.o
DSO_set_filename                                  output.o
DSO_set_method                                    output.o
DSO_set_name_converter                            output.o
DSO_up_ref                                        output.o
DelElem                                           output.o
DestroyAttribute                                  output.o
DestroyElem                                       output.o
DestroyList                                       output.o
DestroySessionData                                output.o
DestroySlotData                                   output.o
DestroyTlvData                                    output.o
DestroyTokenData                                  output.o
ECDH_OpenSSL                                      output.o
ECDH_compute_key                                  output.o
ECDH_get_default_method                           output.o
ECDH_get_ex_data                                  output.o
ECDH_get_ex_new_index                             output.o
ECDH_set_default_method                           output.o
ECDH_set_ex_data                                  output.o
ECDH_set_method                                   output.o
ECDH_version                                      output.o
ECDSA_OpenSSL                                     output.o
ECDSA_SIG_free                                    output.o
ECDSA_SIG_it                                      output.o
ECDSA_SIG_new                                     output.o
ECDSA_do_sign                                     output.o
ECDSA_do_sign_ex                                  output.o
ECDSA_do_verify                                   output.o
ECDSA_get_default_method                          output.o
ECDSA_get_ex_data                                 output.o
ECDSA_get_ex_new_index                            output.o
ECDSA_set_default_method                          output.o
ECDSA_set_ex_data                                 output.o
ECDSA_set_method                                  output.o
ECDSA_sign                                        output.o
ECDSA_sign_ex                                     output.o
ECDSA_sign_setup                                  output.o
ECDSA_size                                        output.o
ECDSA_verify                                      output.o
ECDSA_version                                     output.o
ECPARAMETERS_free                                 output.o
ECPARAMETERS_it                                   output.o
ECPARAMETERS_new                                  output.o
ECPKPARAMETERS_free                               output.o
ECPKPARAMETERS_it                                 output.o
ECPKPARAMETERS_new                                output.o
ECPKParameters_print                              output.o
ECParameters_print                                output.o
EC_EX_DATA_clear_free_all_data                    output.o
EC_EX_DATA_clear_free_data                        output.o
EC_EX_DATA_free_all_data                          output.o
EC_EX_DATA_free_data                              output.o
EC_EX_DATA_get_data                               output.o
EC_EX_DATA_set_data                               output.o
EC_GF2m_simple_method                             output.o
EC_GFp_mont_method                                output.o
EC_GFp_nist_method                                output.o
EC_GFp_simple_method                              output.o
EC_GROUP_check_discriminant                       output.o
EC_GROUP_clear_free                               output.o
EC_GROUP_cmp                                      output.o
EC_GROUP_copy                                     output.o
EC_GROUP_dup                                      output.o
EC_GROUP_free                                     output.o
EC_GROUP_get0_generator                           output.o
EC_GROUP_get0_seed                                output.o
EC_GROUP_get_asn1_flag                            output.o
EC_GROUP_get_basis_type                           output.o
EC_GROUP_get_cofactor                             output.o
EC_GROUP_get_curve_GF2m                           output.o
EC_GROUP_get_curve_GFp                            output.o
EC_GROUP_get_curve_name                           output.o
EC_GROUP_get_degree                               output.o
EC_GROUP_get_order                                output.o
EC_GROUP_get_pentanomial_basis                    output.o
EC_GROUP_get_point_conversion_form                output.o
EC_GROUP_get_seed_len                             output.o
EC_GROUP_get_trinomial_basis                      output.o
EC_GROUP_have_precompute_mult                     output.o
EC_GROUP_method_of                                output.o
EC_GROUP_new                                      output.o
EC_GROUP_new_by_curve_name                        output.o
EC_GROUP_new_curve_GF2m                           output.o
EC_GROUP_new_curve_GFp                            output.o
EC_GROUP_precompute_mult                          output.o
EC_GROUP_set_asn1_flag                            output.o
EC_GROUP_set_curve_GF2m                           output.o
EC_GROUP_set_curve_GFp                            output.o
EC_GROUP_set_curve_name                           output.o
EC_GROUP_set_generator                            output.o
EC_GROUP_set_point_conversion_form                output.o
EC_GROUP_set_seed                                 output.o
EC_KEY_check_key                                  output.o
EC_KEY_copy                                       output.o
EC_KEY_dup                                        output.o
EC_KEY_free                                       output.o
EC_KEY_generate_key                               output.o
EC_KEY_get0_group                                 output.o
EC_KEY_get0_private_key                           output.o
EC_KEY_get0_public_key                            output.o
EC_KEY_get_conv_form                              output.o
EC_KEY_get_enc_flags                              output.o
EC_KEY_get_key_method_data                        output.o
EC_KEY_insert_key_method_data                     output.o
EC_KEY_new                                        output.o
EC_KEY_new_by_curve_name                          output.o
EC_KEY_precompute_mult                            output.o
EC_KEY_print                                      output.o
EC_KEY_set_asn1_flag                              output.o
EC_KEY_set_conv_form                              output.o
EC_KEY_set_enc_flags                              output.o
EC_KEY_set_group                                  output.o
EC_KEY_set_private_key                            output.o
EC_KEY_set_public_key                             output.o
EC_KEY_up_ref                                     output.o
EC_METHOD_get_field_type                          output.o
EC_POINT_add                                      output.o
EC_POINT_bn2point                                 output.o
EC_POINT_clear_free                               output.o
EC_POINT_cmp                                      output.o
EC_POINT_copy                                     output.o
EC_POINT_dbl                                      output.o
EC_POINT_dup                                      output.o
EC_POINT_free                                     output.o
EC_POINT_get_Jprojective_coordinates_GFp          output.o
EC_POINT_get_affine_coordinates_GF2m              output.o
EC_POINT_get_affine_coordinates_GFp               output.o
EC_POINT_hex2point                                output.o
EC_POINT_invert                                   output.o
EC_POINT_is_at_infinity                           output.o
EC_POINT_is_on_curve                              output.o
EC_POINT_make_affine                              output.o
EC_POINT_method_of                                output.o
EC_POINT_mul                                      output.o
EC_POINT_new                                      output.o
EC_POINT_oct2point                                output.o
EC_POINT_point2bn                                 output.o
EC_POINT_point2hex                                output.o
EC_POINT_point2oct                                output.o
EC_POINT_set_Jprojective_coordinates_GFp          output.o
EC_POINT_set_affine_coordinates_GF2m              output.o
EC_POINT_set_affine_coordinates_GFp               output.o
EC_POINT_set_compressed_coordinates_GF2m          output.o
EC_POINT_set_compressed_coordinates_GFp           output.o
EC_POINT_set_to_infinity                          output.o
EC_POINTs_make_affine                             output.o
EC_POINTs_mul                                     output.o
EC_PRIVATEKEY_free                                output.o
EC_PRIVATEKEY_it                                  output.o
EC_PRIVATEKEY_new                                 output.o
EC_get_builtin_curves                             output.o
EDIPARTYNAME_free                                 output.o
EDIPARTYNAME_it                                   output.o
EDIPARTYNAME_new                                  output.o
EHDestroyEventHandler                             output.o
EHInitEventHandler                                output.o
EHStatusHandler                                   output.o
ERR_add_error_data                                output.o
ERR_clear_error                                   output.o
ERR_error_string                                  output.o
ERR_error_string_n                                output.o
ERR_free_strings                                  output.o
ERR_func_error_string                             output.o
ERR_get_err_state_table                           output.o
ERR_get_error                                     output.o
ERR_get_error_line                                output.o
ERR_get_error_line_data                           output.o
ERR_get_implementation                            output.o
ERR_get_next_error_library                        output.o
ERR_get_state                                     output.o
ERR_get_string_table                              output.o
ERR_lib_error_string                              output.o
ERR_load_ASN1_strings                             output.o
ERR_load_BIO_strings                              output.o
ERR_load_BN_strings                               output.o
ERR_load_BUF_strings                              output.o
ERR_load_CMS_strings                              output.o
ERR_load_COMP_strings                             output.o
ERR_load_CONF_strings                             output.o
ERR_load_CRYPTO_strings                           output.o
ERR_load_DH_strings                               output.o
ERR_load_DSA_strings                              output.o
ERR_load_DSO_strings                              output.o
ERR_load_ECDH_strings                             output.o
ERR_load_ECDSA_strings                            output.o
ERR_load_EC_strings                               output.o
ERR_load_ERR_strings                              output.o
ERR_load_EVP_strings                              output.o
ERR_load_OBJ_strings                              output.o
ERR_load_OCSP_strings                             output.o
ERR_load_PEM_strings                              output.o
ERR_load_PKCS12_strings                           output.o
ERR_load_PKCS7_strings                            output.o
ERR_load_RAND_strings                             output.o
ERR_load_RSA_strings                              output.o
ERR_load_TS_strings                               output.o
ERR_load_UI_strings                               output.o
ERR_load_X509V3_strings                           output.o
ERR_load_X509_strings                             output.o
ERR_load_crypto_strings                           output.o
ERR_load_strings                                  output.o
ERR_peek_error                                    output.o
ERR_peek_error_line                               output.o
ERR_peek_error_line_data                          output.o
ERR_peek_last_error                               output.o
ERR_peek_last_error_line                          output.o
ERR_peek_last_error_line_data                     output.o
ERR_pop_to_mark                                   output.o
ERR_print_errors                                  output.o
ERR_print_errors_cb                               output.o
ERR_put_error                                     output.o
ERR_reason_error_string                           output.o
ERR_release_err_state_table                       output.o
ERR_remove_state                                  output.o
ERR_remove_thread_state                           output.o
ERR_set_error_data                                output.o
ERR_set_implementation                            output.o
ERR_set_mark                                      output.o
ERR_unload_strings                                output.o
EVP_BytesToKey                                    output.o
EVP_CIPHER_CTX_block_size                         output.o
EVP_CIPHER_CTX_cipher                             output.o
EVP_CIPHER_CTX_cleanup                            output.o
EVP_CIPHER_CTX_clear_flags                        output.o
EVP_CIPHER_CTX_copy                               output.o
EVP_CIPHER_CTX_ctrl                               output.o
EVP_CIPHER_CTX_flags                              output.o
EVP_CIPHER_CTX_free                               output.o
EVP_CIPHER_CTX_get_app_data                       output.o
EVP_CIPHER_CTX_init                               output.o
EVP_CIPHER_CTX_iv_length                          output.o
EVP_CIPHER_CTX_key_length                         output.o
EVP_CIPHER_CTX_new                                output.o
EVP_CIPHER_CTX_nid                                output.o
EVP_CIPHER_CTX_rand_key                           output.o
EVP_CIPHER_CTX_set_app_data                       output.o
EVP_CIPHER_CTX_set_flags                          output.o
EVP_CIPHER_CTX_set_key_length                     output.o
EVP_CIPHER_CTX_set_padding                        output.o
EVP_CIPHER_CTX_test_flags                         output.o
EVP_CIPHER_asn1_to_param                          output.o
EVP_CIPHER_block_size                             output.o
EVP_CIPHER_do_all                                 output.o
EVP_CIPHER_do_all_sorted                          output.o
EVP_CIPHER_flags                                  output.o
EVP_CIPHER_get_asn1_iv                            output.o
EVP_CIPHER_iv_length                              output.o
EVP_CIPHER_key_length                             output.o
EVP_CIPHER_nid                                    output.o
EVP_CIPHER_param_to_asn1                          output.o
EVP_CIPHER_set_asn1_iv                            output.o
EVP_CIPHER_type                                   output.o
EVP_Cipher                                        output.o
EVP_CipherFinal                                   output.o
EVP_CipherFinal_ex                                output.o
EVP_CipherInit                                    output.o
EVP_CipherInit_ex                                 output.o
EVP_CipherUpdate                                  output.o
EVP_DecodeBlock                                   output.o
EVP_DecodeFinal                                   output.o
EVP_DecodeInit                                    output.o
EVP_DecodeUpdate                                  output.o
EVP_DecryptFinal                                  output.o
EVP_DecryptFinal_ex                               output.o
EVP_DecryptInit                                   output.o
EVP_DecryptInit_ex                                output.o
EVP_DecryptUpdate                                 output.o
EVP_Digest                                        output.o
EVP_DigestFinal                                   output.o
EVP_DigestFinal_ex                                output.o
EVP_DigestInit                                    output.o
EVP_DigestInit_ex                                 output.o
EVP_DigestSignFinal                               output.o
EVP_DigestSignInit                                output.o
EVP_DigestUpdate                                  output.o
EVP_DigestVerifyFinal                             output.o
EVP_DigestVerifyInit                              output.o
EVP_EncodeBlock                                   output.o
EVP_EncodeFinal                                   output.o
EVP_EncodeInit                                    output.o
EVP_EncodeUpdate                                  output.o
EVP_EncryptFinal                                  output.o
EVP_EncryptFinal_ex                               output.o
EVP_EncryptInit                                   output.o
EVP_EncryptInit_ex                                output.o
EVP_EncryptUpdate                                 output.o
EVP_MD_CTX_cleanup                                output.o
EVP_MD_CTX_clear_flags                            output.o
EVP_MD_CTX_copy                                   output.o
EVP_MD_CTX_copy_ex                                output.o
EVP_MD_CTX_create                                 output.o
EVP_MD_CTX_destroy                                output.o
EVP_MD_CTX_init                                   output.o
EVP_MD_CTX_md                                     output.o
EVP_MD_CTX_set_flags                              output.o
EVP_MD_CTX_test_flags                             output.o
EVP_MD_block_size                                 output.o
EVP_MD_do_all                                     output.o
EVP_MD_do_all_sorted                              output.o
EVP_MD_flags                                      output.o
EVP_MD_pkey_type                                  output.o
EVP_MD_size                                       output.o
EVP_MD_type                                       output.o
EVP_PBE_CipherInit                                output.o
EVP_PBE_alg_add                                   output.o
EVP_PBE_alg_add_type                              output.o
EVP_PBE_cleanup                                   output.o
EVP_PBE_find                                      output.o
EVP_PKCS82PKEY                                    output.o
EVP_PKEY2PKCS8                                    output.o
EVP_PKEY2PKCS8_broken                             output.o
EVP_PKEY_CTX_ctrl                                 output.o
EVP_PKEY_CTX_ctrl_str                             output.o
EVP_PKEY_CTX_dup                                  output.o
EVP_PKEY_CTX_free                                 output.o
EVP_PKEY_CTX_get0_peerkey                         output.o
EVP_PKEY_CTX_get0_pkey                            output.o
EVP_PKEY_CTX_get_app_data                         output.o
EVP_PKEY_CTX_get_cb                               output.o
EVP_PKEY_CTX_get_data                             output.o
EVP_PKEY_CTX_get_keygen_info                      output.o
EVP_PKEY_CTX_get_operation                        output.o
EVP_PKEY_CTX_new                                  output.o
EVP_PKEY_CTX_new_id                               output.o
EVP_PKEY_CTX_set0_keygen_info                     output.o
EVP_PKEY_CTX_set_app_data                         output.o
EVP_PKEY_CTX_set_cb                               output.o
EVP_PKEY_CTX_set_data                             output.o
EVP_PKEY_add1_attr                                output.o
EVP_PKEY_add1_attr_by_NID                         output.o
EVP_PKEY_add1_attr_by_OBJ                         output.o
EVP_PKEY_add1_attr_by_txt                         output.o
EVP_PKEY_asn1_add0                                output.o
EVP_PKEY_asn1_add_alias                           output.o
EVP_PKEY_asn1_copy                                output.o
EVP_PKEY_asn1_find                                output.o
EVP_PKEY_asn1_find_str                            output.o
EVP_PKEY_asn1_free                                output.o
EVP_PKEY_asn1_get0                                output.o
EVP_PKEY_asn1_get0_info                           output.o
EVP_PKEY_asn1_get_count                           output.o
EVP_PKEY_asn1_new                                 output.o
EVP_PKEY_asn1_set_ctrl                            output.o
EVP_PKEY_asn1_set_free                            output.o
EVP_PKEY_asn1_set_param                           output.o
EVP_PKEY_asn1_set_private                         output.o
EVP_PKEY_asn1_set_public                          output.o
EVP_PKEY_assign                                   output.o
EVP_PKEY_base_id                                  output.o
EVP_PKEY_bits                                     output.o
EVP_PKEY_cmp                                      output.o
EVP_PKEY_cmp_parameters                           output.o
EVP_PKEY_copy_parameters                          output.o
EVP_PKEY_decrypt                                  output.o
EVP_PKEY_decrypt_init                             output.o
EVP_PKEY_delete_attr                              output.o
EVP_PKEY_derive                                   output.o
EVP_PKEY_derive_init                              output.o
EVP_PKEY_derive_set_peer                          output.o
EVP_PKEY_encrypt                                  output.o
EVP_PKEY_encrypt_init                             output.o
EVP_PKEY_free                                     output.o
EVP_PKEY_get0                                     output.o
EVP_PKEY_get0_asn1                                output.o
EVP_PKEY_get1_DH                                  output.o
EVP_PKEY_get1_DSA                                 output.o
EVP_PKEY_get1_EC_KEY                              output.o
EVP_PKEY_get1_RSA                                 output.o
EVP_PKEY_get_attr                                 output.o
EVP_PKEY_get_attr_by_NID                          output.o
EVP_PKEY_get_attr_by_OBJ                          output.o
EVP_PKEY_get_attr_count                           output.o
EVP_PKEY_get_default_digest_nid                   output.o
EVP_PKEY_id                                       output.o
EVP_PKEY_keygen                                   output.o
EVP_PKEY_keygen_init                              output.o
EVP_PKEY_meth_add0                                output.o
EVP_PKEY_meth_find                                output.o
EVP_PKEY_meth_free                                output.o
EVP_PKEY_meth_new                                 output.o
EVP_PKEY_meth_set_cleanup                         output.o
EVP_PKEY_meth_set_copy                            output.o
EVP_PKEY_meth_set_ctrl                            output.o
EVP_PKEY_meth_set_decrypt                         output.o
EVP_PKEY_meth_set_derive                          output.o
EVP_PKEY_meth_set_encrypt                         output.o
EVP_PKEY_meth_set_init                            output.o
EVP_PKEY_meth_set_keygen                          output.o
EVP_PKEY_meth_set_paramgen                        output.o
EVP_PKEY_meth_set_sign                            output.o
EVP_PKEY_meth_set_signctx                         output.o
EVP_PKEY_meth_set_verify                          output.o
EVP_PKEY_meth_set_verify_recover                  output.o
EVP_PKEY_meth_set_verifyctx                       output.o
EVP_PKEY_missing_parameters                       output.o
EVP_PKEY_new                                      output.o
EVP_PKEY_new_mac_key                              output.o
EVP_PKEY_paramgen                                 output.o
EVP_PKEY_paramgen_init                            output.o
EVP_PKEY_print_params                             output.o
EVP_PKEY_print_private                            output.o
EVP_PKEY_print_public                             output.o
EVP_PKEY_save_parameters                          output.o
EVP_PKEY_set1_DH                                  output.o
EVP_PKEY_set1_DSA                                 output.o
EVP_PKEY_set1_EC_KEY                              output.o
EVP_PKEY_set1_RSA                                 output.o
EVP_PKEY_set_type                                 output.o
EVP_PKEY_set_type_str                             output.o
EVP_PKEY_sign                                     output.o
EVP_PKEY_sign_init                                output.o
EVP_PKEY_size                                     output.o
EVP_PKEY_type                                     output.o
EVP_PKEY_verify                                   output.o
EVP_PKEY_verify_init                              output.o
EVP_PKEY_verify_recover                           output.o
EVP_PKEY_verify_recover_init                      output.o
EVP_SignFinal                                     output.o
EVP_VerifyFinal                                   output.o
EVP_add_cipher                                    output.o
EVP_add_digest                                    output.o
EVP_aes_128_cbc                                   output.o
EVP_aes_128_cfb1                                  output.o
EVP_aes_128_cfb128                                output.o
EVP_aes_128_cfb8                                  output.o
EVP_aes_128_ecb                                   output.o
EVP_aes_128_ofb                                   output.o
EVP_aes_192_cbc                                   output.o
EVP_aes_192_cfb1                                  output.o
EVP_aes_192_cfb128                                output.o
EVP_aes_192_cfb8                                  output.o
EVP_aes_192_ecb                                   output.o
EVP_aes_192_ofb                                   output.o
EVP_aes_256_cbc                                   output.o
EVP_aes_256_cfb1                                  output.o
EVP_aes_256_cfb128                                output.o
EVP_aes_256_cfb8                                  output.o
EVP_aes_256_ecb                                   output.o
EVP_aes_256_ofb                                   output.o
EVP_bf_cbc                                        output.o
EVP_bf_cfb64                                      output.o
EVP_bf_ecb                                        output.o
EVP_bf_ofb                                        output.o
EVP_cast5_cbc                                     output.o
EVP_cast5_cfb64                                   output.o
EVP_cast5_ecb                                     output.o
EVP_cast5_ofb                                     output.o
EVP_cleanup                                       output.o
EVP_des_cbc                                       output.o
EVP_des_cfb1                                      output.o
EVP_des_cfb64                                     output.o
EVP_des_cfb8                                      output.o
EVP_des_ecb                                       output.o
EVP_des_ede                                       output.o
EVP_des_ede3                                      output.o
EVP_des_ede3_cbc                                  output.o
EVP_des_ede3_cfb1                                 output.o
EVP_des_ede3_cfb64                                output.o
EVP_des_ede3_cfb8                                 output.o
EVP_des_ede3_ecb                                  output.o
EVP_des_ede3_ofb                                  output.o
EVP_des_ede_cbc                                   output.o
EVP_des_ede_cfb64                                 output.o
EVP_des_ede_ecb                                   output.o
EVP_des_ede_ofb                                   output.o
EVP_des_ofb                                       output.o
EVP_desx_cbc                                      output.o
EVP_dss                                           output.o
EVP_dss1                                          output.o
EVP_ecdsa                                         output.o
EVP_get_cipherbyname                              output.o
EVP_get_digestbyname                              output.o
EVP_get_pw_prompt                                 output.o
EVP_idea_cbc                                      output.o
EVP_idea_cfb64                                    output.o
EVP_idea_ecb                                      output.o
EVP_idea_ofb                                      output.o
EVP_md4                                           output.o
EVP_md5                                           output.o
EVP_rc2_40_cbc                                    output.o
EVP_rc2_64_cbc                                    output.o
EVP_rc2_cbc                                       output.o
EVP_rc2_cfb64                                     output.o
EVP_rc2_ecb                                       output.o
EVP_rc2_ofb                                       output.o
EVP_rc4                                           output.o
EVP_rc4_40                                        output.o
EVP_read_pw_string                                output.o
EVP_read_pw_string_min                            output.o
EVP_ripemd160                                     output.o
EVP_set_pw_prompt                                 output.o
EVP_sha                                           output.o
EVP_sha1                                          output.o
EVP_sha224                                        output.o
EVP_sha256                                        output.o
EVP_sha384                                        output.o
EVP_sha512                                        output.o
EVP_version                                       output.o
EVP_whirlpool                                     output.o
EXTENDED_KEY_USAGE_free                           output.o
EXTENDED_KEY_USAGE_it                             output.o
EXTENDED_KEY_USAGE_new                            output.o
ExchangePPSData                                   output.o
FI                                                output.o
FindBaudRateTable                                 output.o
GENERAL_NAMES_free                                output.o
GENERAL_NAMES_it                                  output.o
GENERAL_NAMES_new                                 output.o
GENERAL_NAME_cmp                                  output.o
GENERAL_NAME_dup                                  output.o
GENERAL_NAME_free                                 output.o
GENERAL_NAME_get0_otherName                       output.o
GENERAL_NAME_get0_value                           output.o
GENERAL_NAME_it                                   output.o
GENERAL_NAME_new                                  output.o
GENERAL_NAME_print                                output.o
GENERAL_NAME_set0_othername                       output.o
GENERAL_NAME_set0_value                           output.o
GENERAL_SUBTREE_free                              output.o
GENERAL_SUBTREE_it                                output.o
GENERAL_SUBTREE_new                               output.o
GetAttrValType                                    output.o
GetBWICWIData                                     output.o
GetCardStatus                                     output.o
GetDirDataByTlv                                   output.o
GetElem                                           output.o
GetICCardData                                     output.o
GetIFSCData                                       output.o
GetLength                                         output.o
GetOdfDataByTlv                                   output.o
GetTlvByBuf                                       output.o
GetTokenDataByTlv                                 output.o
GetUlByByte                                       output.o
GetUlByTxt                                        output.o
GetValueData                                      output.o
GetVerByTex                                       output.o
HMAC                                              output.o
HMAC_CTX_cleanup                                  output.o
HMAC_CTX_copy                                     output.o
HMAC_CTX_init                                     output.o
HMAC_CTX_set_flags                                output.o
HMAC_Final                                        output.o
HMAC_Init                                         output.o
HMAC_Init_ex                                      output.o
HMAC_Update                                       output.o
HPSearchHotPluggables                             output.o
IDEA_version                                      output.o
IDMan_CheckCardStatus                             output.o
IDMan_CmCheckCRL                                  output.o
IDMan_CmChgRSA                                    output.o
IDMan_CmGetCertificateSign                        output.o
IDMan_CmGetDN                                     output.o
IDMan_CmGetPublicKey                              output.o
IDMan_CmMakeRand                                  output.o
IDMan_CmMkHash                                    output.o
IDMan_CmPadding                                   output.o
IDMan_CmPadding2                                  output.o
IDMan_EncryptByIndex                              output.o
IDMan_IPCheckCrlPkcX                              output.o
IDMan_IPCheckPKC                                  output.o
IDMan_IPCheckSignature                            output.o
IDMan_IPCrSignature                               output.o
IDMan_IPFinalize                                  output.o
IDMan_IPFinalizeReader                            output.o
IDMan_IPIdPassListMalloc                          output.o
IDMan_IPInitialize                                output.o
IDMan_IPInitializeReader                          output.o
IDMan_IPMkPublicKeyObj                            output.o
IDMan_IPMkRandHash                                output.o
IDMan_IPRetJudgment                               output.o
IDMan_IPSignatureVerify                           output.o
IDMan_IPgCIndexParamChk                           output.o
IDMan_IPgCParamChk                                output.o
IDMan_IPgIdxSParamChk                             output.o
IDMan_IPgSParamChk                                output.o
IDMan_IPgetCertIdxPKCS                            output.o
IDMan_IPgetCertPKCS                               output.o
IDMan_IPgetCertPkeyIdxPKCSx                       output.o
IDMan_IPgetCertPkeyPKCSx                          output.o
IDMan_IPgetCertPkeyPKCSy                          output.o
IDMan_IPgetHash                                   output.o
IDMan_IPgetMakeRandData                           output.o
IDMan_IPgetPrivateKey                             output.o
IDMan_IPgetPrivateKeyPKCSx                        output.o
IDMan_IPuAPKCS11IdxParamChk                       output.o
IDMan_IPuAPKCS11ParamChk                          output.o
IDMan_IPvSIdxParamChk                             output.o
IDMan_IPvSParamChk                                output.o
IDMan_PaddingParamChk                             output.o
IDMan_SCardConnect                                output.o
IDMan_SCardDisconnect                             output.o
IDMan_SCardEstablishContext                       output.o
IDMan_SCardListReaders                            output.o
IDMan_SCardReleaseContext                         output.o
IDMan_SCardSetBinay                               output.o
IDMan_SCardSizeLongToChar                         output.o
IDMan_SCardStatus                                 output.o
IDMan_SCardTransmit                               output.o
IDMan_StAtoi                                      output.o
IDMan_StAtol                                      output.o
IDMan_StFree                                      output.o
IDMan_StMalloc                                    output.o
IDMan_StMemcmp                                    output.o
IDMan_StMemcpy                                    output.o
IDMan_StMemset                                    output.o
IDMan_StReadSetData                               output.o
IDMan_StStrcat                                    output.o
IDMan_StStrchr                                    output.o
IDMan_StStrcmp                                    output.o
IDMan_StStrcpy                                    output.o
IDMan_StStrlen                                    output.o
IDMan_generateSignature                           output.o
IDMan_generateSignatureByIndex                    output.o
IDMan_getCertificate                              output.o
IDMan_getCertificateByIndex                       output.o
IDMan_getMemoryFree                               output.o
IDMan_getStaticPassword                           output.o
IDMan_userAuthPKCS11                              output.o
IDMan_userAuthPKCS11ByIndex                       output.o
IDMan_verifySignature                             output.o
IDMan_verifySignatureByIndex                      output.o
IFDHCloseChannel                                  output.o
IFDHControl                                       output.o
IFDHCreateChannel                                 output.o
IFDHGetCapabilities                               output.o
IFDHICCPresence                                   output.o
IFDHPowerICC                                      output.o
IFDHSetProtocolParameters                         output.o
IFDHTransmitToICC                                 output.o
ISSUING_DIST_POINT_free                           output.o
ISSUING_DIST_POINT_it                             output.o
ISSUING_DIST_POINT_new                            output.o
InitCryptoLibrary                                 output.o
InitLeaderCardProtocol                            output.o
InternalAuth                                      output.o
LONG_it                                           output.o
MD4_Final                                         output.o
MD4_Init                                          output.o
MD4_Transform                                     output.o
MD4_Update                                        output.o
MD4_version                                       output.o
MD5                                               output.o
MD5_Final                                         output.o
MD5_Init                                          output.o
MD5_Transform                                     output.o
MD5_Update                                        output.o
MD5_version                                       output.o
NAME_CONSTRAINTS_check                            output.o
NAME_CONSTRAINTS_free                             output.o
NAME_CONSTRAINTS_it                               output.o
NAME_CONSTRAINTS_new                              output.o
NCONF_WIN32                                       output.o
NCONF_default                                     output.o
NCONF_dump_bio                                    output.o
NCONF_free                                        output.o
NCONF_free_data                                   output.o
NCONF_get_number_e                                output.o
NCONF_get_section                                 output.o
NCONF_get_string                                  output.o
NCONF_load                                        output.o
NCONF_load_bio                                    output.o
NCONF_new                                         output.o
NETSCAPE_CERT_SEQUENCE_free                       output.o
NETSCAPE_CERT_SEQUENCE_it                         output.o
NETSCAPE_CERT_SEQUENCE_new                        output.o
NETSCAPE_SPKAC_free                               output.o
NETSCAPE_SPKAC_it                                 output.o
NETSCAPE_SPKAC_new                                output.o
NETSCAPE_SPKI_free                                output.o
NETSCAPE_SPKI_it                                  output.o
NETSCAPE_SPKI_new                                 output.o
NETSCAPE_SPKI_sign                                output.o
NETSCAPE_SPKI_verify                              output.o
NOTICEREF_free                                    output.o
NOTICEREF_it                                      output.o
NOTICEREF_new                                     output.o
OBJ_NAME_add                                      output.o
OBJ_NAME_cleanup                                  output.o
OBJ_NAME_do_all                                   output.o
OBJ_NAME_do_all_sorted                            output.o
OBJ_NAME_get                                      output.o
OBJ_NAME_init                                     output.o
OBJ_NAME_new_index                                output.o
OBJ_NAME_remove                                   output.o
OBJ_add_object                                    output.o
OBJ_add_sigid                                     output.o
OBJ_bsearch_                                      output.o
OBJ_bsearch_ex_                                   output.o
OBJ_cleanup                                       output.o
OBJ_cmp                                           output.o
OBJ_create                                        output.o
OBJ_create_objects                                output.o
OBJ_dup                                           output.o
OBJ_find_sigid_algs                               output.o
OBJ_find_sigid_by_algs                            output.o
OBJ_ln2nid                                        output.o
OBJ_new_nid                                       output.o
OBJ_nid2ln                                        output.o
OBJ_nid2obj                                       output.o
OBJ_nid2sn                                        output.o
OBJ_obj2nid                                       output.o
OBJ_obj2txt                                       output.o
OBJ_sigid_free                                    output.o
OBJ_sn2nid                                        output.o
OBJ_txt2nid                                       output.o
OBJ_txt2obj                                       output.o
OCSP_BASICRESP_free                               output.o
OCSP_BASICRESP_it                                 output.o
OCSP_BASICRESP_new                                output.o
OCSP_CERTID_free                                  output.o
OCSP_CERTID_it                                    output.o
OCSP_CERTID_new                                   output.o
OCSP_CERTSTATUS_free                              output.o
OCSP_CERTSTATUS_it                                output.o
OCSP_CERTSTATUS_new                               output.o
OCSP_CRLID_free                                   output.o
OCSP_CRLID_it                                     output.o
OCSP_CRLID_new                                    output.o
OCSP_ONEREQ_free                                  output.o
OCSP_ONEREQ_it                                    output.o
OCSP_ONEREQ_new                                   output.o
OCSP_REQINFO_free                                 output.o
OCSP_REQINFO_it                                   output.o
OCSP_REQINFO_new                                  output.o
OCSP_REQUEST_free                                 output.o
OCSP_REQUEST_it                                   output.o
OCSP_REQUEST_new                                  output.o
OCSP_RESPBYTES_free                               output.o
OCSP_RESPBYTES_it                                 output.o
OCSP_RESPBYTES_new                                output.o
OCSP_RESPDATA_free                                output.o
OCSP_RESPDATA_it                                  output.o
OCSP_RESPDATA_new                                 output.o
OCSP_RESPID_free                                  output.o
OCSP_RESPID_it                                    output.o
OCSP_RESPID_new                                   output.o
OCSP_RESPONSE_free                                output.o
OCSP_RESPONSE_it                                  output.o
OCSP_RESPONSE_new                                 output.o
OCSP_REVOKEDINFO_free                             output.o
OCSP_REVOKEDINFO_it                               output.o
OCSP_REVOKEDINFO_new                              output.o
OCSP_SERVICELOC_free                              output.o
OCSP_SERVICELOC_it                                output.o
OCSP_SERVICELOC_new                               output.o
OCSP_SIGNATURE_free                               output.o
OCSP_SIGNATURE_it                                 output.o
OCSP_SIGNATURE_new                                output.o
OCSP_SINGLERESP_free                              output.o
OCSP_SINGLERESP_it                                output.o
OCSP_SINGLERESP_new                               output.o
OPENSSL_NONPIC_relocated                          output.o
OPENSSL_asc2uni                                   output.o
OPENSSL_cleanse                                   output.o
OPENSSL_cpuid_setup                               output.o
OPENSSL_gmtime                                    output.o
OPENSSL_gmtime_adj                                output.o
OPENSSL_ia32cap_P                                 output.o
OPENSSL_ia32cap_loc                               output.o
OPENSSL_isservice                                 output.o
OPENSSL_showfatal                                 output.o
OPENSSL_stderr                                    output.o
OPENSSL_uni2asc                                   output.o
OSSL_DES_version                                  output.o
OSSL_libdes_version                               output.o
OTHERNAME_cmp                                     output.o
OTHERNAME_free                                    output.o
OTHERNAME_it                                      output.o
OTHERNAME_new                                     output.o
OpenSSLDie                                        output.o
OpenSSL_add_all_ciphers                           output.o
OpenSSL_add_all_digests                           output.o
OpenUSB                                           output.o
PBE2PARAM_free                                    output.o
PBE2PARAM_it                                      output.o
PBE2PARAM_new                                     output.o
PBEPARAM_free                                     output.o
PBEPARAM_it                                       output.o
PBEPARAM_new                                      output.o
PBKDF2PARAM_free                                  output.o
PBKDF2PARAM_it                                    output.o
PBKDF2PARAM_new                                   output.o
PEM_ASN1_read_bio                                 output.o
PEM_ASN1_write_bio                                output.o
PEM_bytes_read_bio                                output.o
PEM_def_callback                                  output.o
PEM_dek_info                                      output.o
PEM_do_header                                     output.o
PEM_get_EVP_CIPHER_INFO                           output.o
PEM_proc_type                                     output.o
PEM_read_bio                                      output.o
PEM_read_bio_CMS                                  output.o
PEM_read_bio_DHparams                             output.o
PEM_read_bio_DSAPrivateKey                        output.o
PEM_read_bio_DSA_PUBKEY                           output.o
PEM_read_bio_DSAparams                            output.o
PEM_read_bio_ECPKParameters                       output.o
PEM_read_bio_ECPrivateKey                         output.o
PEM_read_bio_EC_PUBKEY                            output.o
PEM_read_bio_NETSCAPE_CERT_SEQUENCE               output.o
PEM_read_bio_PKCS7                                output.o
PEM_read_bio_PKCS8                                output.o
PEM_read_bio_PKCS8_PRIV_KEY_INFO                  output.o
PEM_read_bio_PUBKEY                               output.o
PEM_read_bio_Parameters                           output.o
PEM_read_bio_PrivateKey                           output.o
PEM_read_bio_RSAPrivateKey                        output.o
PEM_read_bio_RSAPublicKey                         output.o
PEM_read_bio_RSA_PUBKEY                           output.o
PEM_read_bio_X509                                 output.o
PEM_read_bio_X509_CRL                             output.o
PEM_read_bio_X509_REQ                             output.o
PEM_version                                       output.o
PEM_write_bio                                     output.o
PEM_write_bio_ASN1_stream                         output.o
PEM_write_bio_CMS                                 output.o
PEM_write_bio_CMS_stream                          output.o
PEM_write_bio_DHparams                            output.o
PEM_write_bio_DSAPrivateKey                       output.o
PEM_write_bio_DSA_PUBKEY                          output.o
PEM_write_bio_DSAparams                           output.o
PEM_write_bio_ECPKParameters                      output.o
PEM_write_bio_ECPrivateKey                        output.o
PEM_write_bio_EC_PUBKEY                           output.o
PEM_write_bio_NETSCAPE_CERT_SEQUENCE              output.o
PEM_write_bio_PKCS7                               output.o
PEM_write_bio_PKCS8                               output.o
PEM_write_bio_PKCS8PrivateKey                     output.o
PEM_write_bio_PKCS8PrivateKey_nid                 output.o
PEM_write_bio_PKCS8_PRIV_KEY_INFO                 output.o
PEM_write_bio_PUBKEY                              output.o
PEM_write_bio_Parameters                          output.o
PEM_write_bio_PrivateKey                          output.o
PEM_write_bio_RSAPrivateKey                       output.o
PEM_write_bio_RSAPublicKey                        output.o
PEM_write_bio_RSA_PUBKEY                          output.o
PEM_write_bio_X509                                output.o
PEM_write_bio_X509_CRL                            output.o
PEM_write_bio_X509_REQ                            output.o
PEM_write_bio_X509_REQ_NEW                        output.o
PHGetProtocol                                     output.o
PHSetProtocol                                     output.o
PKCS12_AUTHSAFES_it                               output.o
PKCS12_BAGS_free                                  output.o
PKCS12_BAGS_it                                    output.o
PKCS12_BAGS_new                                   output.o
PKCS12_MAC_DATA_free                              output.o
PKCS12_MAC_DATA_it                                output.o
PKCS12_MAC_DATA_new                               output.o
PKCS12_MAKE_KEYBAG                                output.o
PKCS12_MAKE_SHKEYBAG                              output.o
PKCS12_PBE_add                                    output.o
PKCS12_PBE_keyivgen                               output.o
PKCS12_SAFEBAGS_it                                output.o
PKCS12_SAFEBAG_free                               output.o
PKCS12_SAFEBAG_it                                 output.o
PKCS12_SAFEBAG_new                                output.o
PKCS12_certbag2x509                               output.o
PKCS12_certbag2x509crl                            output.o
PKCS12_decrypt_skey                               output.o
PKCS12_free                                       output.o
PKCS12_it                                         output.o
PKCS12_item_decrypt_d2i                           output.o
PKCS12_item_i2d_encrypt                           output.o
PKCS12_item_pack_safebag                          output.o
PKCS12_key_gen_asc                                output.o
PKCS12_key_gen_uni                                output.o
PKCS12_new                                        output.o
PKCS12_pack_authsafes                             output.o
PKCS12_pack_p7data                                output.o
PKCS12_pack_p7encdata                             output.o
PKCS12_pbe_crypt                                  output.o
PKCS12_unpack_authsafes                           output.o
PKCS12_unpack_p7data                              output.o
PKCS12_unpack_p7encdata                           output.o
PKCS12_x5092certbag                               output.o
PKCS12_x509crl2certbag                            output.o
PKCS1_MGF1                                        output.o
PKCS5_PBE_add                                     output.o
PKCS5_PBE_keyivgen                                output.o
PKCS5_PBKDF2_HMAC                                 output.o
PKCS5_PBKDF2_HMAC_SHA1                            output.o
PKCS5_pbe2_set                                    output.o
PKCS5_pbe2_set_iv                                 output.o
PKCS5_pbe_set                                     output.o
PKCS5_pbe_set0_algor                              output.o
PKCS5_v2_PBE_keyivgen                             output.o
PKCS7_ATTR_SIGN_it                                output.o
PKCS7_ATTR_VERIFY_it                              output.o
PKCS7_DIGEST_free                                 output.o
PKCS7_DIGEST_it                                   output.o
PKCS7_DIGEST_new                                  output.o
PKCS7_ENCRYPT_free                                output.o
PKCS7_ENCRYPT_it                                  output.o
PKCS7_ENCRYPT_new                                 output.o
PKCS7_ENC_CONTENT_free                            output.o
PKCS7_ENC_CONTENT_it                              output.o
PKCS7_ENC_CONTENT_new                             output.o
PKCS7_ENVELOPE_free                               output.o
PKCS7_ENVELOPE_it                                 output.o
PKCS7_ENVELOPE_new                                output.o
PKCS7_ISSUER_AND_SERIAL_digest                    output.o
PKCS7_ISSUER_AND_SERIAL_free                      output.o
PKCS7_ISSUER_AND_SERIAL_it                        output.o
PKCS7_ISSUER_AND_SERIAL_new                       output.o
PKCS7_RECIP_INFO_free                             output.o
PKCS7_RECIP_INFO_get0_alg                         output.o
PKCS7_RECIP_INFO_it                               output.o
PKCS7_RECIP_INFO_new                              output.o
PKCS7_RECIP_INFO_set                              output.o
PKCS7_SIGNED_free                                 output.o
PKCS7_SIGNED_it                                   output.o
PKCS7_SIGNED_new                                  output.o
PKCS7_SIGNER_INFO_free                            output.o
PKCS7_SIGNER_INFO_get0_algs                       output.o
PKCS7_SIGNER_INFO_it                              output.o
PKCS7_SIGNER_INFO_new                             output.o
PKCS7_SIGNER_INFO_set                             output.o
PKCS7_SIGNER_INFO_sign                            output.o
PKCS7_SIGN_ENVELOPE_free                          output.o
PKCS7_SIGN_ENVELOPE_it                            output.o
PKCS7_SIGN_ENVELOPE_new                           output.o
PKCS7_add0_attrib_signing_time                    output.o
PKCS7_add1_attrib_digest                          output.o
PKCS7_add_attrib_content_type                     output.o
PKCS7_add_attrib_smimecap                         output.o
PKCS7_add_attribute                               output.o
PKCS7_add_certificate                             output.o
PKCS7_add_crl                                     output.o
PKCS7_add_recipient                               output.o
PKCS7_add_recipient_info                          output.o
PKCS7_add_signature                               output.o
PKCS7_add_signed_attribute                        output.o
PKCS7_add_signer                                  output.o
PKCS7_cert_from_signer_info                       output.o
PKCS7_content_new                                 output.o
PKCS7_ctrl                                        output.o
PKCS7_dataDecode                                  output.o
PKCS7_dataFinal                                   output.o
PKCS7_dataInit                                    output.o
PKCS7_dataVerify                                  output.o
PKCS7_digest_from_attributes                      output.o
PKCS7_dup                                         output.o
PKCS7_free                                        output.o
PKCS7_get_attribute                               output.o
PKCS7_get_issuer_and_serial                       output.o
PKCS7_get_signed_attribute                        output.o
PKCS7_get_signer_info                             output.o
PKCS7_get_smimecap                                output.o
PKCS7_it                                          output.o
PKCS7_new                                         output.o
PKCS7_print_ctx                                   output.o
PKCS7_set0_type_other                             output.o
PKCS7_set_attributes                              output.o
PKCS7_set_cipher                                  output.o
PKCS7_set_content                                 output.o
PKCS7_set_digest                                  output.o
PKCS7_set_signed_attributes                       output.o
PKCS7_set_type                                    output.o
PKCS7_signatureVerify                             output.o
PKCS7_simple_smimecap                             output.o
PKCS7_stream                                      output.o
PKCS8_PRIV_KEY_INFO_free                          output.o
PKCS8_PRIV_KEY_INFO_it                            output.o
PKCS8_PRIV_KEY_INFO_new                           output.o
PKCS8_decrypt                                     output.o
PKCS8_encrypt                                     output.o
PKCS8_pkey_get0                                   output.o
PKCS8_pkey_set0                                   output.o
PKCS8_set_broken                                  output.o
PKEY_USAGE_PERIOD_free                            output.o
PKEY_USAGE_PERIOD_it                              output.o
PKEY_USAGE_PERIOD_new                             output.o
POLICYINFO_free                                   output.o
POLICYINFO_it                                     output.o
POLICYINFO_new                                    output.o
POLICYQUALINFO_free                               output.o
POLICYQUALINFO_it                                 output.o
POLICYQUALINFO_new                                output.o
POLICY_CONSTRAINTS_free                           output.o
POLICY_CONSTRAINTS_it                             output.o
POLICY_CONSTRAINTS_new                            output.o
POLICY_MAPPINGS_it                                output.o
POLICY_MAPPING_free                               output.o
POLICY_MAPPING_it                                 output.o
POLICY_MAPPING_new                                output.o
PROXY_CERT_INFO_EXTENSION_free                    output.o
PROXY_CERT_INFO_EXTENSION_it                      output.o
PROXY_CERT_INFO_EXTENSION_new                     output.o
PROXY_POLICY_free                                 output.o
PROXY_POLICY_it                                   output.o
PROXY_POLICY_new                                  output.o
PowerOff                                          output.o
PowerOn                                           output.o
RAND_SSLeay                                       output.o
RAND_add                                          output.o
RAND_bytes                                        output.o
RAND_cleanup                                      output.o
RAND_get_rand_method                              output.o
RAND_poll                                         output.o
RAND_pseudo_bytes                                 output.o
RAND_seed                                         output.o
RAND_set_rand_method                              output.o
RAND_status                                       output.o
RAND_version                                      output.o
RC2_cbc_encrypt                                   output.o
RC2_cfb64_encrypt                                 output.o
RC2_decrypt                                       output.o
RC2_ecb_encrypt                                   output.o
RC2_encrypt                                       output.o
RC2_ofb64_encrypt                                 output.o
RC2_set_key                                       output.o
RC2_version                                       output.o
RC4                                               output.o
RC4_options                                       output.o
RC4_set_key                                       output.o
RC4_version                                       output.o
RFAddReader                                       output.o
RFCheckReaderEventState                           output.o
RFReaderInfoById                                  output.o
RFRemoveReader                                    output.o
RIPEMD160_Final                                   output.o
RIPEMD160_Init                                    output.o
RIPEMD160_Transform                               output.o
RIPEMD160_Update                                  output.o
RMD160_version                                    output.o
RSAPrivateKey_dup                                 output.o
RSAPrivateKey_it                                  output.o
RSAPublicKey_dup                                  output.o
RSAPublicKey_it                                   output.o
RSA_PKCS1_SSLeay                                  output.o
RSA_X931_hash_id                                  output.o
RSA_blinding_off                                  output.o
RSA_blinding_on                                   output.o
RSA_flags                                         output.o
RSA_free                                          output.o
RSA_generate_key                                  output.o
RSA_generate_key_ex                               output.o
RSA_get_default_method                            output.o
RSA_get_ex_data                                   output.o
RSA_get_ex_new_index                              output.o
RSA_get_method                                    output.o
RSA_memory_lock                                   output.o
RSA_new                                           output.o
RSA_new_method                                    output.o
RSA_padding_add_PKCS1_OAEP                        output.o
RSA_padding_add_PKCS1_PSS                         output.o
RSA_padding_add_PKCS1_type_1                      output.o
RSA_padding_add_PKCS1_type_2                      output.o
RSA_padding_add_SSLv23                            output.o
RSA_padding_add_X931                              output.o
RSA_padding_add_none                              output.o
RSA_padding_check_PKCS1_OAEP                      output.o
RSA_padding_check_PKCS1_type_1                    output.o
RSA_padding_check_PKCS1_type_2                    output.o
RSA_padding_check_SSLv23                          output.o
RSA_padding_check_X931                            output.o
RSA_padding_check_none                            output.o
RSA_private_decrypt                               output.o
RSA_private_encrypt                               output.o
RSA_public_decrypt                                output.o
RSA_public_encrypt                                output.o
RSA_set_default_method                            output.o
RSA_set_ex_data                                   output.o
RSA_set_method                                    output.o
RSA_setup_blinding                                output.o
RSA_sign                                          output.o
RSA_size                                          output.o
RSA_up_ref                                        output.o
RSA_verify                                        output.o
RSA_verify_PKCS1_PSS                              output.o
RSA_version                                       output.o
ReadBinary                                        output.o
ReadDataT0                                        output.o
ReadUSB                                           output.o
ReceiveReply                                      output.o
SCardBeginTransaction                             output.o
SCardConnect                                      output.o
SCardDisconnect                                   output.o
SCardEndTransaction                               output.o
SCardEstablishContext                             output.o
SCardListReaders                                  output.o
SCardReleaseContext                               output.o
SCardStatus                                       output.o
SCardTransmit                                     output.o
SHA1                                              output.o
SHA1_Final                                        output.o
SHA1_Init                                         output.o
SHA1_Transform                                    output.o
SHA1_Update                                       output.o
SHA1_version                                      output.o
SHA224                                            output.o
SHA224_Final                                      output.o
SHA224_Init                                       output.o
SHA224_Update                                     output.o
SHA256                                            output.o
SHA256_Final                                      output.o
SHA256_Init                                       output.o
SHA256_Transform                                  output.o
SHA256_Update                                     output.o
SHA256_version                                    output.o
SHA384                                            output.o
SHA384_Final                                      output.o
SHA384_Init                                       output.o
SHA384_Update                                     output.o
SHA512                                            output.o
SHA512_Final                                      output.o
SHA512_Init                                       output.o
SHA512_Transform                                  output.o
SHA512_Update                                     output.o
SHA512_version                                    output.o
SHA_Final                                         output.o
SHA_Init                                          output.o
SHA_Transform                                     output.o
SHA_Update                                        output.o
SHA_version                                       output.o
SMIME_crlf_copy                                   output.o
SMIME_read_ASN1                                   output.o
SMIME_read_CMS                                    output.o
SMIME_text                                        output.o
SMIME_write_ASN1                                  output.o
SMIME_write_CMS                                   output.o
STACK_version                                     output.o
SXNETID_free                                      output.o
SXNETID_it                                        output.o
SXNETID_new                                       output.o
SXNET_add_id_INTEGER                              output.o
SXNET_add_id_asc                                  output.o
SXNET_add_id_ulong                                output.o
SXNET_free                                        output.o
SXNET_get_id_INTEGER                              output.o
SXNET_get_id_asc                                  output.o
SXNET_get_id_ulong                                output.o
SXNET_it                                          output.o
SXNET_new                                         output.o
Se4AddArpEntryList                                output.o
Se4AdjustTcpMss                                   output.o
Se4And                                            output.o
Se4BitToHex                                       output.o
Se4BroadcastMacAddress                            output.o
Se4BuildIcmpEchoPacket                            output.o
Se4CheckUnicastAddress                            output.o
Se4Cmp                                            output.o
Se4CmpArpEntry                                    output.o
Se4CmpArpWaitEntry                                output.o
Se4CmpIpCombineList                               output.o
Se4CombineIp                                      output.o
Se4FlushArpEntryList                              output.o
Se4FlushIpCombineList                             output.o
Se4FlushIpWaitList                                output.o
Se4Free                                           output.o
Se4FreeArpEntryList                               output.o
Se4FreeArpWaitList                                output.o
Se4FreeIpCombine                                  output.o
Se4FreeIpCombineList                              output.o
Se4FreeIpFragmentList                             output.o
Se4FreeIpHeaderInfo                               output.o
Se4FreeIpWait                                     output.o
Se4FreeIpWaitList                                 output.o
Se4GenerateSubnetMask                             output.o
Se4GenerateSubnetMask32                           output.o
Se4GetBroadcastAddress                            output.o
Se4GetHostAddress                                 output.o
Se4GetNetworkAddress                              output.o
Se4IPToStr                                        output.o
Se4IPToStr32                                      output.o
Se4IPToUINT                                       output.o
Se4Init                                           output.o
Se4InitArpEntryList                               output.o
Se4InitArpWaitList                                output.o
Se4InitIpCombineList                              output.o
Se4InitIpFragmentList                             output.o
Se4InitIpWaitList                                 output.o
Se4InsertIpCombine                                output.o
Se4InsertIpWait                                   output.o
Se4IpCheckChecksum                                output.o
Se4IpChecksum                                     output.o
Se4IsBroadcastAddress                             output.o
Se4IsInSameNetwork                                output.o
Se4IsSubnetMask                                   output.o
Se4IsZeroIP                                       output.o
Se4MacIpRelationKnown                             output.o
Se4MainProc                                       output.o
Se4Not                                            output.o
Se4Or                                             output.o
Se4ParseIpPacket                                  output.o
Se4ParseIpPacketICMPv4                            output.o
Se4ParseIpPacketUDPv4                             output.o
Se4ProcessArpWaitList                             output.o
Se4RecvArp                                        output.o
Se4RecvArpRequest                                 output.o
Se4RecvArpResponse                                output.o
Se4RecvEthPacket                                  output.o
Se4RecvIp                                         output.o
Se4RecvIpComplete                                 output.o
Se4SearchArpEntryList                             output.o
Se4SearchArpWaitList                              output.o
Se4SearchIpCombineList                            output.o
Se4SendArpDoProcess                               output.o
Se4SendArpRequest                                 output.o
Se4SendArpResponse                                output.o
Se4SendEthPacket                                  output.o
Se4SendIcmp                                       output.o
Se4SendIcmpEchoRequest                            output.o
Se4SendIcmpEchoResponse                           output.o
Se4SendIp                                         output.o
Se4SendIpFragment                                 output.o
Se4SendIpFragmentNow                              output.o
Se4SendRawIp                                      output.o
Se4SendUdp                                        output.o
Se4SendWaitingIpWait                              output.o
Se4StrToIP                                        output.o
Se4StrToIP32                                      output.o
Se4Tick                                           output.o
Se4UINTToIP                                       output.o
Se4ZeroIP                                         output.o
Se6AddGuestNode                                   output.o
Se6AddNeighborEntryList                           output.o
Se6And                                            output.o
Se6BroadcastMacAddress                            output.o
Se6BuildIcmpEchoPacket                            output.o
Se6CalcChecksum                                   output.o
Se6CheckIPItemStr                                 output.o
Se6CheckSubnetLength                              output.o
Se6CheckUnicastAddress                            output.o
Se6Cmp                                            output.o
Se6CmpIpCombineList                               output.o
Se6CmpNdpWaitEntry                                output.o
Se6CmpNeighborEntry                               output.o
Se6CombineIp                                      output.o
Se6FlushIpCombineList                             output.o
Se6FlushIpWaitList                                output.o
Se6FlushNeighborEntryList                         output.o
Se6Free                                           output.o
Se6FreeIpCombine                                  output.o
Se6FreeIpCombineList                              output.o
Se6FreeIpFragmentList                             output.o
Se6FreeIpHeaderInfo                               output.o
Se6FreeIpWait                                     output.o
Se6FreeIpWaitList                                 output.o
Se6FreeNdpWaitList                                output.o
Se6FreeNeighborEntryList                          output.o
Se6GenerateEui64Address                           output.o
Se6GenerateEui64GlobalAddress                     output.o
Se6GenerateEui64LocalAddress                      output.o
Se6GenerateMulticastMacAddress                    output.o
Se6GenerateSubnetMask                             output.o
Se6GetAllNodeMulticastAddr                        output.o
Se6GetAllRouterMulticastAddr                      output.o
Se6GetHostAddress                                 output.o
Se6GetIPAddrType                                  output.o
Se6GetPrefixAddress                               output.o
Se6GetSoliciationMulticastAddr                    output.o
Se6IPItemStrToChars                               output.o
Se6IPToStr                                        output.o
Se6Init                                           output.o
Se6InitIpCombineList                              output.o
Se6InitIpFragmentList                             output.o
Se6InitIpWaitList                                 output.o
Se6InitNdpWaitList                                output.o
Se6InitNeighborEntryList                          output.o
Se6InsertIpCombine                                output.o
Se6InsertIpWait                                   output.o
Se6IpChecksum                                     output.o
Se6IsGuestNode                                    output.o
Se6IsInSameNetwork                                output.o
Se6IsNetworkPrefixAddress                         output.o
Se6IsSubnetMask                                   output.o
Se6IsZeroIP                                       output.o
Se6LocalSubnet                                    output.o
Se6MacIpRelationKnown                             output.o
Se6MainProc                                       output.o
Se6Not                                            output.o
Se6Or                                             output.o
Se6ParseIpPacket                                  output.o
Se6ParseIpPacketICMPv6                            output.o
Se6ParseIpPacketUDPv6                             output.o
Se6ProcessNdpWaitList                             output.o
Se6RecvEthPacket                                  output.o
Se6RecvIp                                         output.o
Se6RecvIpComplete                                 output.o
Se6SearchIpCombineList                            output.o
Se6SearchNdpWaitList                              output.o
Se6SearchNeighborEntryList                        output.o
Se6SendEthPacket                                  output.o
Se6SendIcmp                                       output.o
Se6SendIcmpEchoRequest                            output.o
Se6SendIcmpEchoResponse                           output.o
Se6SendIcmpNeighborAdvertisement                  output.o
Se6SendIcmpNeighborSoliciation                    output.o
Se6SendIcmpRouterAdvertisement                    output.o
Se6SendIp                                         output.o
Se6SendIpFragment                                 output.o
Se6SendIpFragmentNow                              output.o
Se6SendNeighborSoliciation                        output.o
Se6SendNeighborSoliciationDoProcess               output.o
Se6SendRawIp                                      output.o
Se6SendUdp                                        output.o
Se6SendWaitingIpWait                              output.o
Se6StrToIP                                        output.o
Se6SubnetMaskToInt                                output.o
Se6Tick                                           output.o
Se6ZeroIP                                         output.o
SeAdd                                             output.o
SeAddBufStr                                       output.o
SeAdjustBufSize                                   output.o
SeB64CharToCode                                   output.o
SeB64CodeToChar                                   output.o
SeB64Decode                                       output.o
SeB64Encode                                       output.o
SeBSearch                                         output.o
SeBigNumToBuf                                     output.o
SeBigNumToStr                                     output.o
SeBinToBigNum                                     output.o
SeBinToStr                                        output.o
SeBinToStrEx                                      output.o
SeBioToBuf                                        output.o
SeBioToCert                                       output.o
SeBioToKey                                        output.o
SeBufToBigNum                                     output.o
SeBufToBio                                        output.o
SeBufToCert                                       output.o
SeBufToKey                                        output.o
SeBuildAndAddIPv6PacketOptionHeader               output.o
SeBuildICMPv6OptionValue                          output.o
SeBuildICMPv6Options                              output.o
SeBuildIPv6Packet                                 output.o
SeBuildIPv6PacketWithFragment                     output.o
SeCalcReplaceStrEx                                output.o
SeCertToBio                                       output.o
SeCertToBuf                                       output.o
SeCheckCert                                       output.o
SeCheckCertAndKey                                 output.o
SeCheckSignature                                  output.o
SeClearBuf                                        output.o
SeClearFifo                                       output.o
SeClone                                           output.o
SeCloneBuf                                        output.o
SeCloneCert                                       output.o
SeCloneKey                                        output.o
SeCloneList                                       output.o
SeCmp                                             output.o
SeCmpBuf                                          output.o
SeCmpEx                                           output.o
SeCompareCert                                     output.o
SeCompareStr                                      output.o
SeCopy                                            output.o
SeCopyStr                                         output.o
SeCopyToArray                                     output.o
SeDebug                                           output.o
SeDebugBin                                        output.o
SeDefaultTokenSplitChars                          output.o
SeDelete                                          output.o
SeDeleteAll                                       output.o
SeDeleteLock                                      output.o
SeDes3Decrypt                                     output.o
SeDes3Encrypt                                     output.o
SeDes3FreeKey                                     output.o
SeDes3NewKey                                      output.o
SeDes3RandKey                                     output.o
SeDesFreeKey                                      output.o
SeDesFreeKeyValue                                 output.o
SeDesNewKey                                       output.o
SeDesNewKeyValue                                  output.o
SeDesRandKey                                      output.o
SeDesRandKeyValue                                 output.o
SeDhCompute                                       output.o
SeDhFree                                          output.o
SeDhNew                                           output.o
SeDhNewGroup2                                     output.o
SeDumpBuf                                         output.o
SeEndWith                                         output.o
SeEndian16                                        output.o
SeEndian32                                        output.o
SeEndian64                                        output.o
SeError                                           output.o
SeEthAddSenderMacList                             output.o
SeEthDeleteOldSenderMacList                       output.o
SeEthFree                                         output.o
SeEthGenRandMacAddress                            output.o
SeEthGetInfo                                      output.o
SeEthGetNextRecvPacket                            output.o
SeEthIsSenderMacAddressExistsInList               output.o
SeEthNew                                          output.o
SeEthNicCallback                                  output.o
SeEthParseEthernetPacket                          output.o
SeEthSend                                         output.o
SeEthSendAdd                                      output.o
SeEthSendAll                                      output.o
SeFastSwap                                        output.o
SeFatal                                           output.o
SeFifoSize                                        output.o
SeFormat                                          output.o
SeFormatArgs                                      output.o
SeFormatEx                                        output.o
SeFree                                            output.o
SeFreeBio                                         output.o
SeFreeBuf                                         output.o
SeFreeBufWithoutBuffer                            output.o
SeFreeCert                                        output.o
SeFreeConfigEntryList                             output.o
SeFreeCrypto                                      output.o
SeFreeFifo                                        output.o
SeFreeKernel                                      output.o
SeFreeKey                                         output.o
SeFreeList                                        output.o
SeFreePKey                                        output.o
SeFreePacket                                      output.o
SeFreePacketList                                  output.o
SeFreePacketListWithoutBuffer                     output.o
SeFreeQueue                                       output.o
SeFreeStack                                       output.o
SeFreeToken                                       output.o
SeFreeX509                                        output.o
SeGetCertIssuerName                               output.o
SeGetCertMd5                                      output.o
SeGetCertSha1                                     output.o
SeGetCertSubjectName                              output.o
SeGetConfigBin                                    output.o
SeGetConfigBool                                   output.o
SeGetConfigEntry                                  output.o
SeGetConfigInt                                    output.o
SeGetConfigInt64                                  output.o
SeGetConfigStr                                    output.o
SeGetCurrentCpuId                                 output.o
SeGetKeyAndValue                                  output.o
SeGetKeyFromCert                                  output.o
SeGetNext                                         output.o
SeGetNextHeaderFromQueue                          output.o
SeGetNextInt                                      output.o
SeHashForSignBySHA1                               output.o
SeHexTo4Bit                                       output.o
SeHexToInt                                        output.o
SeHexToInt64                                      output.o
SeIkeBuild                                        output.o
SeIkeBuildCertPayload                             output.o
SeIkeBuildCertRequestPayload                      output.o
SeIkeBuildDataPayload                             output.o
SeIkeBuildDeletePayload                           output.o
SeIkeBuildIdPayload                               output.o
SeIkeBuildNoticePayload                           output.o
SeIkeBuildPayload                                 output.o
SeIkeBuildPayloadList                             output.o
SeIkeBuildProposalPayload                         output.o
SeIkeBuildSaPayload                               output.o
SeIkeBuildTransformPayload                        output.o
SeIkeBuildTransformValue                          output.o
SeIkeBuildTransformValueList                      output.o
SeIkeDecrypt                                      output.o
SeIkeEncrypt                                      output.o
SeIkeEncryptWithPadding                           output.o
SeIkeFree                                         output.o
SeIkeFreeCertPayload                              output.o
SeIkeFreeCertRequestPayload                       output.o
SeIkeFreeDataPayload                              output.o
SeIkeFreeDeletePayload                            output.o
SeIkeFreeIdPayload                                output.o
SeIkeFreeNoticePayload                            output.o
SeIkeFreePayload                                  output.o
SeIkeFreePayloadList                              output.o
SeIkeFreeProposalPayload                          output.o
SeIkeFreeSaPayload                                output.o
SeIkeFreeTransformPayload                         output.o
SeIkeFreeTransformValueList                       output.o
SeIkeGetFirstPayloadType                          output.o
SeIkeGetIPv4Address                               output.o
SeIkeGetIPv6Address                               output.o
SeIkeGetPayload                                   output.o
SeIkeGetPayloadNum                                output.o
SeIkeInitIPv4Address                              output.o
SeIkeInitIPv6Address                              output.o
SeIkeIpAddressToStr                               output.o
SeIkeIsZeroIP                                     output.o
SeIkeNew                                          output.o
SeIkeNewCertPayload                               output.o
SeIkeNewCertRequestPayload                        output.o
SeIkeNewDataPayload                               output.o
SeIkeNewDeletePayload                             output.o
SeIkeNewIdPayload                                 output.o
SeIkeNewNoticePayload                             output.o
SeIkeNewPayload                                   output.o
SeIkeNewProposalPayload                           output.o
SeIkeNewSaPayload                                 output.o
SeIkeNewTransformPayload                          output.o
SeIkeNewTransformValue                            output.o
SeIkeParse                                        output.o
SeIkeParseCertPayload                             output.o
SeIkeParseCertRequestPayload                      output.o
SeIkeParseDataPayload                             output.o
SeIkeParseDeletePayload                           output.o
SeIkeParseEx                                      output.o
SeIkeParseHeader                                  output.o
SeIkeParseIdPayload                               output.o
SeIkeParseNoticePayload                           output.o
SeIkeParsePayload                                 output.o
SeIkeParsePayloadList                             output.o
SeIkeParsePayloadListEx                           output.o
SeIkeParseProposalPayload                         output.o
SeIkeParseSaPayload                               output.o
SeIkeParseTransformPayload                        output.o
SeIkeParseTransformValueList                      output.o
SeIkePhase1CryptIdToKeySize                       output.o
SeIkePhase2CryptIdToKeySize                       output.o
SeIkeStrToPassword                                output.o
SeIkeStrToPhase1CryptId                           output.o
SeIkeStrToPhase1HashId                            output.o
SeIkeStrToPhase2CryptId                           output.o
SeIkeStrToPhase2HashId                            output.o
SeInfo                                            output.o
SeInitCrypto                                      output.o
SeInitKernel                                      output.o
SeInsert                                          output.o
SeInsertQueue                                     output.o
SeInsertQueueInt                                  output.o
SeInsertStr                                       output.o
SeIntFree                                         output.o
SeIntInit                                         output.o
SeIsAllLowerStr                                   output.o
SeIsAllUpperStr                                   output.o
SeIsBase64                                        output.o
SeIsBigEndian                                     output.o
SeIsCertSignedByCert                              output.o
SeIsCharInStr                                     output.o
SeIsEmptyStr                                      output.o
SeIsInList                                        output.o
SeIsInListStr                                     output.o
SeIsLittleEndian                                  output.o
SeIsSplitChar                                     output.o
SeIsZero                                          output.o
SeKeyToBio                                        output.o
SeKeyToBuf                                        output.o
SeLoad                                            output.o
SeLoadCert                                        output.o
SeLoadConfigEntryList                             output.o
SeLoadConfigEntryListFromBuf                      output.o
SeLoadKey                                         output.o
SeLock                                            output.o
SeLog                                             output.o
SeLogArgs                                         output.o
SeMacSha1                                         output.o
SeMacSha196                                       output.o
SeMacToStr                                        output.o
SeMakeCharArray                                   output.o
SeMalloc                                          output.o
SeMd5                                             output.o
SeMemSize                                         output.o
SeMemToBuf                                        output.o
SeNewBio                                          output.o
SeNewBuf                                          output.o
SeNewFifo                                         output.o
SeNewList                                         output.o
SeNewLock                                         output.o
SeNewQueue                                        output.o
SeNewStack                                        output.o
SeNormalizeCrlf                                   output.o
SeNullTokenList                                   output.o
SePKeyPasswordCallbackFunction                    output.o
SeParseICMPv6Options                              output.o
SeParseIPv6ExtHeader                              output.o
SeParseIPv6Packet                                 output.o
SeParsePacket                                     output.o
SeParsePacketL2                                   output.o
SeParsePacketL3ARPv4                              output.o
SeParsePacketL3IPv4                               output.o
SeParsePacketL3IPv6                               output.o
SeParseToken                                      output.o
SeParseTokenWithNullStr                           output.o
SePeekFifo                                        output.o
SePeekNext                                        output.o
SePop                                             output.o
SePush                                            output.o
SeQSort                                           output.o
SeRand                                            output.o
SeRand1                                           output.o
SeRand16                                          output.o
SeRand32                                          output.o
SeRand64                                          output.o
SeRand8                                           output.o
SeRandBuf                                         output.o
SeReAlloc                                         output.o
SeReadBuf                                         output.o
SeReadBufFromBuf                                  output.o
SeReadBufInt                                      output.o
SeReadBufInt64                                    output.o
SeReadBufStr                                      output.o
SeReadDump                                        output.o
SeReadFifo                                        output.o
SeReadNextLine                                    output.o
SeReadRemainBuf                                   output.o
SeReplaceListPointer                              output.o
SeReplaceStr                                      output.o
SeReplaceStrEx                                    output.o
SeReplaceStri                                     output.o
SeRsaGen                                          output.o
SeRsaPrivateDecrypt                               output.o
SeRsaPrivateEncrypt                               output.o
SeRsaPublicDecrypt                                output.o
SeRsaPublicEncrypt                                output.o
SeRsaPublicSize                                   output.o
SeRsaPublicToBin                                  output.o
SeRsaPublicToBuf                                  output.o
SeRsaSign                                         output.o
SeRsaSignWithPadding                              output.o
SeRsaSignWithSha1                                 output.o
SeRsaVerifyWithPadding                            output.o
SeRsaVerifyWithSha1                               output.o
SeSave                                            output.o
SeSaveCert                                        output.o
SeSaveKey                                         output.o
SeSearch                                          output.o
SeSearchStr                                       output.o
SeSearchStrEx                                     output.o
SeSearchStri                                      output.o
SeSecAddTimer                                     output.o
SeSecCalcKEYMAT                                   output.o
SeSecCalcKEYMATFull                               output.o
SeSecCalcKa                                       output.o
SeSecCalcP1Iv                                     output.o
SeSecCalcP1KeySet                                 output.o
SeSecCalcP2Iv                                     output.o
SeSecCheckIPsecSaExpires                          output.o
SeSecCheckIkeSaExpires                            output.o
SeSecCmpIkeSa                                     output.o
SeSecDeleteExpiredIPsecSa                         output.o
SeSecDeleteExpiredIkeSa                           output.o
SeSecDoInterval                                   output.o
SeSecEspRecvCallback                              output.o
SeSecForceReconnect                               output.o
SeSecFree                                         output.o
SeSecFreeIPsecSa                                  output.o
SeSecFreeIkeSa                                    output.o
SeSecFreeMain                                     output.o
SeSecFreeP1KeySet                                 output.o
SeSecFreeSaList                                   output.o
SeSecGenIPsecSASpi                                output.o
SeSecGenIkeSaInitCookie                           output.o
SeSecGenIkeSaMessageId                            output.o
SeSecGetIPsecSa                                   output.o
SeSecInit                                         output.o
SeSecInitMain                                     output.o
SeSecInitSaList                                   output.o
SeSecLifeSeconds64bit                             output.o
SeSecNewIPsecSa                                   output.o
SeSecNewIkeSa                                     output.o
SeSecNewSpi                                       output.o
SeSecProcessIkeSaMsg                              output.o
SeSecProcessIkeSaMsgInfo                          output.o
SeSecProcessIkeSaMsgPhase1                        output.o
SeSecProcessIkeSaMsgPhase2                        output.o
SeSecProcessMain                                  output.o
SeSecSearchIPsecSaBySpi                           output.o
SeSecSearchIkeSa                                  output.o
SeSecSearchIkeSaBySpi                             output.o
SeSecSendEsp                                      output.o
SeSecSendIPsecSaDeleteMsg                         output.o
SeSecSendIkeSaDeleteMsg                           output.o
SeSecSendIkeSaMsgInfo                             output.o
SeSecSendIkeSaMsgInfoSimple                       output.o
SeSecSendIkeSaMsgPhase2                           output.o
SeSecSendIkeSaMsgPhase2FinalHash                  output.o
SeSecSendUdp                                      output.o
SeSecSendVirtualIp                                output.o
SeSecSetRecvEspCallback                           output.o
SeSecSetRecvUdpCallback                           output.o
SeSecSetRecvVirtualIpCallback                     output.o
SeSecSetTimerCallback                             output.o
SeSecStartVpnConnect                              output.o
SeSecStrToAuthMethod                              output.o
SeSecTick                                         output.o
SeSecTimerCallback                                output.o
SeSecUdpRecvCallback                              output.o
SeSecVirtualIpRecvCallback                        output.o
SeSeekBuf                                         output.o
SeSetCmp                                          output.o
SeSetSortFlag                                     output.o
SeSha1                                            output.o
SeSort                                            output.o
SeStartWith                                       output.o
SeStrCat                                          output.o
SeStrCheckLen                                     output.o
SeStrCheckSize                                    output.o
SeStrCmp                                          output.o
SeStrCmpi                                         output.o
SeStrCpy                                          output.o
SeStrLen                                          output.o
SeStrLower                                        output.o
SeStrSize                                         output.o
SeStrToBin                                        output.o
SeStrToBinEx                                      output.o
SeStrToMac                                        output.o
SeStrUpper                                        output.o
SeStrnCmp                                         output.o
SeStrnCmpi                                        output.o
SeSwap                                            output.o
SeSwap16                                          output.o
SeSwap32                                          output.o
SeSwap64                                          output.o
SeSysFreeData                                     output.o
SeSysFreeLock                                     output.o
SeSysFreeTimer                                    output.o
SeSysGetCurrentCpuId                              output.o
SeSysGetPhysicalNicInfo                           output.o
SeSysGetTickCount                                 output.o
SeSysGetVirtualNicInfo                            output.o
SeSysLoadData                                     output.o
SeSysLock                                         output.o
SeSysLog                                          output.o
SeSysMemoryAlloc                                  output.o
SeSysMemoryFree                                   output.o
SeSysMemoryReAlloc                                output.o
SeSysNewLock                                      output.o
SeSysNewTimer                                     output.o
SeSysRsaSign                                      output.o
SeSysSaveData                                     output.o
SeSysSendPhysicalNic                              output.o
SeSysSendVirtualNic                               output.o
SeSysSetPhysicalNicRecvCallback                   output.o
SeSysSetTimer                                     output.o
SeSysSetVirtualNicRecvCallback                    output.o
SeSysUnlock                                       output.o
SeTick                                            output.o
SeTick64                                          output.o
SeTick64Internal                                  output.o
SeTimerAdjust                                     output.o
SeTimerCallback                                   output.o
SeTimerEntryCompare                               output.o
SeTimerFree                                       output.o
SeTimerNew                                        output.o
SeTimerSet                                        output.o
SeToArray                                         output.o
SeToHex                                           output.o
SeToHex64                                         output.o
SeToInt                                           output.o
SeToInt64                                         output.o
SeToLower                                         output.o
SeToStr                                           output.o
SeToStr3                                          output.o
SeToStr64                                         output.o
SeToUpper                                         output.o
SeTrim                                            output.o
SeTrimCopy                                        output.o
SeTrimCrlf                                        output.o
SeTrimLeft                                        output.o
SeTrimRight                                       output.o
SeUniqueToken                                     output.o
SeUnlock                                          output.o
SeVpn4ClientAddTimer                              output.o
SeVpn4ClientGetTick                               output.o
SeVpn4ClientSendEsp                               output.o
SeVpn4ClientSendUdp                               output.o
SeVpn4ClientSendVirtualIp                         output.o
SeVpn4ClientSetRecvEspCallback                    output.o
SeVpn4ClientSetRecvUdpCallback                    output.o
SeVpn4ClientSetRecvVirtualIpCallback              output.o
SeVpn4ClientSetTimerCallback                      output.o
SeVpn4DhcpBuildDhcpOptionList                     output.o
SeVpn4DhcpFreeOptionList                          output.o
SeVpn4DhcpOptionsToBuf                            output.o
SeVpn4DhcpParseOptionList                         output.o
SeVpn4DhcpParseOptionListMain                     output.o
SeVpn4DhcpSearchOption                            output.o
SeVpn4DhcpSendResponse                            output.o
SeVpn4DhcpServer                                  output.o
SeVpn4DoInterval                                  output.o
SeVpn4Free                                        output.o
SeVpn4FreeIPsec                                   output.o
SeVpn4IPsecInputFromPhysical                      output.o
SeVpn4IPsecInputFromVirtual                       output.o
SeVpn4IPsecMainProc                               output.o
SeVpn4IPsecSendPing                               output.o
SeVpn4Init                                        output.o
SeVpn4InitIPsec                                   output.o
SeVpn4InitSecConfig                               output.o
SeVpn4MainProc                                    output.o
SeVpn4NewDhcpOption                               output.o
SeVpn4RecvPacketPhysical                          output.o
SeVpn4RecvPacketVirtual                           output.o
SeVpn4SetTimer                                    output.o
SeVpn4Tick                                        output.o
SeVpn6ClientAddTimer                              output.o
SeVpn6ClientGetTick                               output.o
SeVpn6ClientSendEsp                               output.o
SeVpn6ClientSendUdp                               output.o
SeVpn6ClientSendVirtualIp                         output.o
SeVpn6ClientSetRecvEspCallback                    output.o
SeVpn6ClientSetRecvUdpCallback                    output.o
SeVpn6ClientSetRecvVirtualIpCallback              output.o
SeVpn6ClientSetTimerCallback                      output.o
SeVpn6DoInterval                                  output.o
SeVpn6Free                                        output.o
SeVpn6FreeIPsec                                   output.o
SeVpn6IPsecInputFromPhysical                      output.o
SeVpn6IPsecInputFromVirtual                       output.o
SeVpn6IPsecMainProc                               output.o
SeVpn6IPsecSendPing                               output.o
SeVpn6Init                                        output.o
SeVpn6InitIPsec                                   output.o
SeVpn6InitSecConfig                               output.o
SeVpn6MainProc                                    output.o
SeVpn6RecvPacketPhysical                          output.o
SeVpn6RecvPacketVirtual                           output.o
SeVpn6SetTimer                                    output.o
SeVpn6Tick                                        output.o
SeVpn6UpdateGuestOsIpAddress                      output.o
SeVpnAddTimer                                     output.o
SeVpnDoInterval                                   output.o
SeVpnEthRecvCallback                              output.o
SeVpnFree                                         output.o
SeVpnFreeConfig                                   output.o
SeVpnFreeIpStack                                  output.o
SeVpnInit                                         output.o
SeVpnInitIpStack                                  output.o
SeVpnLoadConfig                                   output.o
SeVpnMainFree                                     output.o
SeVpnMainHandler                                  output.o
SeVpnMainInit                                     output.o
SeVpnMainProcRecvEtherPacket                      output.o
SeVpnMainProcess                                  output.o
SeVpnRecvEtherPacket                              output.o
SeVpnRecvIpV4PacketCallback                       output.o
SeVpnRecvIpV6PacketCallback                       output.o
SeVpnSendEtherPacket                              output.o
SeVpnStatusChanged                                output.o
SeVpnTick                                         output.o
SeVpnTimerCallback                                output.o
SeWarning                                         output.o
SeWriteBuf                                        output.o
SeWriteBufBuf                                     output.o
SeWriteBufInt                                     output.o
SeWriteBufInt64                                   output.o
SeWriteBufLine                                    output.o
SeWriteBufStr                                     output.o
SeWriteFifo                                       output.o
SeX509ToCert                                      output.o
SeZero                                            output.o
SeZeroMalloc                                      output.o
SelectFileDF                                      output.o
SelectFileEF                                      output.o
SetATR                                            output.o
SetElem                                           output.o
SetLength                                         output.o
StIsdigit                                         output.o
StIsspace                                         output.o
T0XfrBlockCHAR                                    output.o
T0XfrBlockTPDU                                    output.o
T1NegociateIFSD                                   output.o
T1XfrBlockExtendedAPDU                            output.o
T1XfrBlockTPDU                                    output.o
TransHex2Tex                                      output.o
TransTex2Hex                                      output.o
TransmitCommand                                   output.o
TransmitPPS                                       output.o
UI_OpenSSL                                        output.o
UI_add_error_string                               output.o
UI_add_info_string                                output.o
UI_add_input_boolean                              output.o
UI_add_input_string                               output.o
UI_add_user_data                                  output.o
UI_add_verify_string                              output.o
UI_construct_prompt                               output.o
UI_create_method                                  output.o
UI_ctrl                                           output.o
UI_destroy_method                                 output.o
UI_dup_error_string                               output.o
UI_dup_info_string                                output.o
UI_dup_input_boolean                              output.o
UI_dup_input_string                               output.o
UI_dup_verify_string                              output.o
UI_free                                           output.o
UI_get0_action_string                             output.o
UI_get0_output_string                             output.o
UI_get0_result                                    output.o
UI_get0_result_string                             output.o
UI_get0_test_string                               output.o
UI_get0_user_data                                 output.o
UI_get_default_method                             output.o
UI_get_ex_data                                    output.o
UI_get_ex_new_index                               output.o
UI_get_input_flags                                output.o
UI_get_method                                     output.o
UI_get_result_maxsize                             output.o
UI_get_result_minsize                             output.o
UI_get_string_type                                output.o
UI_method_get_closer                              output.o
UI_method_get_flusher                             output.o
UI_method_get_opener                              output.o
UI_method_get_prompt_constructor                  output.o
UI_method_get_reader                              output.o
UI_method_get_writer                              output.o
UI_method_set_closer                              output.o
UI_method_set_flusher                             output.o
UI_method_set_opener                              output.o
UI_method_set_prompt_constructor                  output.o
UI_method_set_reader                              output.o
UI_method_set_writer                              output.o
UI_new                                            output.o
UI_new_method                                     output.o
UI_process                                        output.o
UI_set_default_method                             output.o
UI_set_ex_data                                    output.o
UI_set_method                                     output.o
UI_set_result                                     output.o
USERNOTICE_free                                   output.o
USERNOTICE_it                                     output.o
USERNOTICE_new                                    output.o
UTF8_getc                                         output.o
UTF8_putc                                         output.o
UpdateBinary                                      output.o
VPN_IPsec_Client_Start                            output.o
VPN_IPsec_Client_Stop                             output.o
VPN_IPsec_Free                                    output.o
VPN_IPsec_Init                                    output.o
Verify                                            output.o
WHIRLPOOL                                         output.o
WHIRLPOOL_BitUpdate                               output.o
WHIRLPOOL_Final                                   output.o
WHIRLPOOL_Init                                    output.o
WHIRLPOOL_Update                                  output.o
WriteUSB                                          output.o
X509V3_EXT_CRL_add_conf                           output.o
X509V3_EXT_CRL_add_nconf                          output.o
X509V3_EXT_REQ_add_conf                           output.o
X509V3_EXT_REQ_add_nconf                          output.o
X509V3_EXT_add                                    output.o
X509V3_EXT_add_alias                              output.o
X509V3_EXT_add_conf                               output.o
X509V3_EXT_add_list                               output.o
X509V3_EXT_add_nconf                              output.o
X509V3_EXT_add_nconf_sk                           output.o
X509V3_EXT_cleanup                                output.o
X509V3_EXT_conf                                   output.o
X509V3_EXT_conf_nid                               output.o
X509V3_EXT_d2i                                    output.o
X509V3_EXT_get                                    output.o
X509V3_EXT_get_nid                                output.o
X509V3_EXT_i2d                                    output.o
X509V3_EXT_nconf                                  output.o
X509V3_EXT_nconf_nid                              output.o
X509V3_EXT_print                                  output.o
X509V3_EXT_val_prn                                output.o
X509V3_NAME_from_section                          output.o
X509V3_add1_i2d                                   output.o
X509V3_add_standard_extensions                    output.o
X509V3_add_value                                  output.o
X509V3_add_value_bool                             output.o
X509V3_add_value_bool_nf                          output.o
X509V3_add_value_int                              output.o
X509V3_add_value_uchar                            output.o
X509V3_conf_free                                  output.o
X509V3_extensions_print                           output.o
X509V3_get_d2i                                    output.o
X509V3_get_section                                output.o
X509V3_get_string                                 output.o
X509V3_get_value_bool                             output.o
X509V3_get_value_int                              output.o
X509V3_parse_list                                 output.o
X509V3_section_free                               output.o
X509V3_set_conf_lhash                             output.o
X509V3_set_ctx                                    output.o
X509V3_set_nconf                                  output.o
X509V3_string_free                                output.o
X509_ALGORS_it                                    output.o
X509_ALGOR_dup                                    output.o
X509_ALGOR_free                                   output.o
X509_ALGOR_get0                                   output.o
X509_ALGOR_it                                     output.o
X509_ALGOR_new                                    output.o
X509_ALGOR_set0                                   output.o
X509_ATTRIBUTE_SET_it                             output.o
X509_ATTRIBUTE_count                              output.o
X509_ATTRIBUTE_create                             output.o
X509_ATTRIBUTE_create_by_NID                      output.o
X509_ATTRIBUTE_create_by_OBJ                      output.o
X509_ATTRIBUTE_create_by_txt                      output.o
X509_ATTRIBUTE_dup                                output.o
X509_ATTRIBUTE_free                               output.o
X509_ATTRIBUTE_get0_data                          output.o
X509_ATTRIBUTE_get0_object                        output.o
X509_ATTRIBUTE_get0_type                          output.o
X509_ATTRIBUTE_it                                 output.o
X509_ATTRIBUTE_new                                output.o
X509_ATTRIBUTE_set1_data                          output.o
X509_ATTRIBUTE_set1_object                        output.o
X509_CERT_AUX_free                                output.o
X509_CERT_AUX_it                                  output.o
X509_CERT_AUX_new                                 output.o
X509_CERT_AUX_print                               output.o
X509_CERT_PAIR_free                               output.o
X509_CERT_PAIR_it                                 output.o
X509_CERT_PAIR_new                                output.o
X509_CINF_free                                    output.o
X509_CINF_it                                      output.o
X509_CINF_new                                     output.o
X509_CRL_INFO_free                                output.o
X509_CRL_INFO_it                                  output.o
X509_CRL_INFO_new                                 output.o
X509_CRL_METHOD_free                              output.o
X509_CRL_METHOD_new                               output.o
X509_CRL_add0_revoked                             output.o
X509_CRL_add1_ext_i2d                             output.o
X509_CRL_add_ext                                  output.o
X509_CRL_cmp                                      output.o
X509_CRL_delete_ext                               output.o
X509_CRL_digest                                   output.o
X509_CRL_dup                                      output.o
X509_CRL_free                                     output.o
X509_CRL_get0_by_cert                             output.o
X509_CRL_get0_by_serial                           output.o
X509_CRL_get_ext                                  output.o
X509_CRL_get_ext_by_NID                           output.o
X509_CRL_get_ext_by_OBJ                           output.o
X509_CRL_get_ext_by_critical                      output.o
X509_CRL_get_ext_count                            output.o
X509_CRL_get_ext_d2i                              output.o
X509_CRL_get_meth_data                            output.o
X509_CRL_it                                       output.o
X509_CRL_match                                    output.o
X509_CRL_new                                      output.o
X509_CRL_set_default_method                       output.o
X509_CRL_set_meth_data                            output.o
X509_CRL_sign                                     output.o
X509_CRL_verify                                   output.o
X509_EXTENSIONS_it                                output.o
X509_EXTENSION_create_by_NID                      output.o
X509_EXTENSION_create_by_OBJ                      output.o
X509_EXTENSION_dup                                output.o
X509_EXTENSION_free                               output.o
X509_EXTENSION_get_critical                       output.o
X509_EXTENSION_get_data                           output.o
X509_EXTENSION_get_object                         output.o
X509_EXTENSION_it                                 output.o
X509_EXTENSION_new                                output.o
X509_EXTENSION_set_critical                       output.o
X509_EXTENSION_set_data                           output.o
X509_EXTENSION_set_object                         output.o
X509_LOOKUP_by_alias                              output.o
X509_LOOKUP_by_fingerprint                        output.o
X509_LOOKUP_by_issuer_serial                      output.o
X509_LOOKUP_by_subject                            output.o
X509_LOOKUP_ctrl                                  output.o
X509_LOOKUP_free                                  output.o
X509_LOOKUP_init                                  output.o
X509_LOOKUP_new                                   output.o
X509_LOOKUP_shutdown                              output.o
X509_NAME_ENTRIES_it                              output.o
X509_NAME_ENTRY_create_by_NID                     output.o
X509_NAME_ENTRY_create_by_OBJ                     output.o
X509_NAME_ENTRY_create_by_txt                     output.o
X509_NAME_ENTRY_dup                               output.o
X509_NAME_ENTRY_free                              output.o
X509_NAME_ENTRY_get_data                          output.o
X509_NAME_ENTRY_get_object                        output.o
X509_NAME_ENTRY_it                                output.o
X509_NAME_ENTRY_new                               output.o
X509_NAME_ENTRY_set_data                          output.o
X509_NAME_ENTRY_set_object                        output.o
X509_NAME_INTERNAL_it                             output.o
X509_NAME_add_entry                               output.o
X509_NAME_add_entry_by_NID                        output.o
X509_NAME_add_entry_by_OBJ                        output.o
X509_NAME_add_entry_by_txt                        output.o
X509_NAME_cmp                                     output.o
X509_NAME_delete_entry                            output.o
X509_NAME_digest                                  output.o
X509_NAME_dup                                     output.o
X509_NAME_entry_count                             output.o
X509_NAME_free                                    output.o
X509_NAME_get_entry                               output.o
X509_NAME_get_index_by_NID                        output.o
X509_NAME_get_index_by_OBJ                        output.o
X509_NAME_get_text_by_NID                         output.o
X509_NAME_get_text_by_OBJ                         output.o
X509_NAME_hash                                    output.o
X509_NAME_hash_old                                output.o
X509_NAME_it                                      output.o
X509_NAME_new                                     output.o
X509_NAME_oneline                                 output.o
X509_NAME_print                                   output.o
X509_NAME_print_ex                                output.o
X509_NAME_set                                     output.o
X509_OBJECT_free_contents                         output.o
X509_OBJECT_idx_by_subject                        output.o
X509_OBJECT_retrieve_by_subject                   output.o
X509_OBJECT_retrieve_match                        output.o
X509_OBJECT_up_ref_count                          output.o
X509_POLICY_NODE_print                            output.o
X509_PUBKEY_free                                  output.o
X509_PUBKEY_get                                   output.o
X509_PUBKEY_get0_param                            output.o
X509_PUBKEY_it                                    output.o
X509_PUBKEY_new                                   output.o
X509_PUBKEY_set                                   output.o
X509_PUBKEY_set0_param                            output.o
X509_PURPOSE_add                                  output.o
X509_PURPOSE_cleanup                              output.o
X509_PURPOSE_get0                                 output.o
X509_PURPOSE_get0_name                            output.o
X509_PURPOSE_get0_sname                           output.o
X509_PURPOSE_get_by_id                            output.o
X509_PURPOSE_get_by_sname                         output.o
X509_PURPOSE_get_count                            output.o
X509_PURPOSE_get_id                               output.o
X509_PURPOSE_get_trust                            output.o
X509_PURPOSE_set                                  output.o
X509_REQ_INFO_free                                output.o
X509_REQ_INFO_it                                  output.o
X509_REQ_INFO_new                                 output.o
X509_REQ_add1_attr                                output.o
X509_REQ_add1_attr_by_NID                         output.o
X509_REQ_add1_attr_by_OBJ                         output.o
X509_REQ_add1_attr_by_txt                         output.o
X509_REQ_add_extensions                           output.o
X509_REQ_add_extensions_nid                       output.o
X509_REQ_check_private_key                        output.o
X509_REQ_delete_attr                              output.o
X509_REQ_digest                                   output.o
X509_REQ_dup                                      output.o
X509_REQ_extension_nid                            output.o
X509_REQ_free                                     output.o
X509_REQ_get1_email                               output.o
X509_REQ_get_attr                                 output.o
X509_REQ_get_attr_by_NID                          output.o
X509_REQ_get_attr_by_OBJ                          output.o
X509_REQ_get_attr_count                           output.o
X509_REQ_get_extension_nids                       output.o
X509_REQ_get_extensions                           output.o
X509_REQ_get_pubkey                               output.o
X509_REQ_it                                       output.o
X509_REQ_new                                      output.o
X509_REQ_set_extension_nids                       output.o
X509_REQ_set_pubkey                               output.o
X509_REQ_set_subject_name                         output.o
X509_REQ_set_version                              output.o
X509_REQ_sign                                     output.o
X509_REQ_verify                                   output.o
X509_REVOKED_add1_ext_i2d                         output.o
X509_REVOKED_add_ext                              output.o
X509_REVOKED_delete_ext                           output.o
X509_REVOKED_free                                 output.o
X509_REVOKED_get_ext                              output.o
X509_REVOKED_get_ext_by_NID                       output.o
X509_REVOKED_get_ext_by_OBJ                       output.o
X509_REVOKED_get_ext_by_critical                  output.o
X509_REVOKED_get_ext_count                        output.o
X509_REVOKED_get_ext_d2i                          output.o
X509_REVOKED_it                                   output.o
X509_REVOKED_new                                  output.o
X509_SIG_free                                     output.o
X509_SIG_it                                       output.o
X509_SIG_new                                      output.o
X509_STORE_CTX_cleanup                            output.o
X509_STORE_CTX_free                               output.o
X509_STORE_CTX_get0_current_crl                   output.o
X509_STORE_CTX_get0_current_issuer                output.o
X509_STORE_CTX_get0_param                         output.o
X509_STORE_CTX_get0_parent_ctx                    output.o
X509_STORE_CTX_get0_policy_tree                   output.o
X509_STORE_CTX_get1_chain                         output.o
X509_STORE_CTX_get1_issuer                        output.o
X509_STORE_CTX_get_chain                          output.o
X509_STORE_CTX_get_current_cert                   output.o
X509_STORE_CTX_get_error                          output.o
X509_STORE_CTX_get_error_depth                    output.o
X509_STORE_CTX_get_ex_data                        output.o
X509_STORE_CTX_get_ex_new_index                   output.o
X509_STORE_CTX_get_explicit_policy                output.o
X509_STORE_CTX_init                               output.o
X509_STORE_CTX_new                                output.o
X509_STORE_CTX_purpose_inherit                    output.o
X509_STORE_CTX_set0_crls                          output.o
X509_STORE_CTX_set0_param                         output.o
X509_STORE_CTX_set_cert                           output.o
X509_STORE_CTX_set_chain                          output.o
X509_STORE_CTX_set_default                        output.o
X509_STORE_CTX_set_depth                          output.o
X509_STORE_CTX_set_error                          output.o
X509_STORE_CTX_set_ex_data                        output.o
X509_STORE_CTX_set_flags                          output.o
X509_STORE_CTX_set_purpose                        output.o
X509_STORE_CTX_set_time                           output.o
X509_STORE_CTX_set_trust                          output.o
X509_STORE_CTX_set_verify_cb                      output.o
X509_STORE_CTX_trusted_stack                      output.o
X509_STORE_add_cert                               output.o
X509_STORE_add_crl                                output.o
X509_STORE_add_lookup                             output.o
X509_STORE_free                                   output.o
X509_STORE_get1_certs                             output.o
X509_STORE_get1_crls                              output.o
X509_STORE_get_by_subject                         output.o
X509_STORE_new                                    output.o
X509_STORE_set1_param                             output.o
X509_STORE_set_depth                              output.o
X509_STORE_set_flags                              output.o
X509_STORE_set_purpose                            output.o
X509_STORE_set_trust                              output.o
X509_STORE_set_verify_cb                          output.o
X509_TRUST_add                                    output.o
X509_TRUST_cleanup                                output.o
X509_TRUST_get0                                   output.o
X509_TRUST_get0_name                              output.o
X509_TRUST_get_by_id                              output.o
X509_TRUST_get_count                              output.o
X509_TRUST_get_flags                              output.o
X509_TRUST_get_trust                              output.o
X509_TRUST_set                                    output.o
X509_TRUST_set_default                            output.o
X509_VAL_free                                     output.o
X509_VAL_it                                       output.o
X509_VAL_new                                      output.o
X509_VERIFY_PARAM_add0_policy                     output.o
X509_VERIFY_PARAM_add0_table                      output.o
X509_VERIFY_PARAM_clear_flags                     output.o
X509_VERIFY_PARAM_free                            output.o
X509_VERIFY_PARAM_get_depth                       output.o
X509_VERIFY_PARAM_get_flags                       output.o
X509_VERIFY_PARAM_inherit                         output.o
X509_VERIFY_PARAM_lookup                          output.o
X509_VERIFY_PARAM_new                             output.o
X509_VERIFY_PARAM_set1                            output.o
X509_VERIFY_PARAM_set1_name                       output.o
X509_VERIFY_PARAM_set1_policies                   output.o
X509_VERIFY_PARAM_set_depth                       output.o
X509_VERIFY_PARAM_set_flags                       output.o
X509_VERIFY_PARAM_set_purpose                     output.o
X509_VERIFY_PARAM_set_time                        output.o
X509_VERIFY_PARAM_set_trust                       output.o
X509_VERIFY_PARAM_table_cleanup                   output.o
X509_add1_ext_i2d                                 output.o
X509_add1_reject_object                           output.o
X509_add1_trust_object                            output.o
X509_add_ext                                      output.o
X509_alias_get0                                   output.o
X509_alias_set1                                   output.o
X509_check_akid                                   output.o
X509_check_ca                                     output.o
X509_check_issued                                 output.o
X509_check_private_key                            output.o
X509_check_purpose                                output.o
X509_check_trust                                  output.o
X509_cmp                                          output.o
X509_cmp_current_time                             output.o
X509_cmp_time                                     output.o
X509_delete_ext                                   output.o
X509_digest                                       output.o
X509_dup                                          output.o
X509_email_free                                   output.o
X509_find_by_issuer_and_serial                    output.o
X509_find_by_subject                              output.o
X509_free                                         output.o
X509_get0_pubkey_bitstr                           output.o
X509_get1_email                                   output.o
X509_get1_ocsp                                    output.o
X509_get_default_cert_area                        output.o
X509_get_default_cert_dir                         output.o
X509_get_default_cert_dir_env                     output.o
X509_get_default_cert_file                        output.o
X509_get_default_cert_file_env                    output.o
X509_get_default_private_dir                      output.o
X509_get_ex_data                                  output.o
X509_get_ex_new_index                             output.o
X509_get_ext                                      output.o
X509_get_ext_by_NID                               output.o
X509_get_ext_by_OBJ                               output.o
X509_get_ext_by_critical                          output.o
X509_get_ext_count                                output.o
X509_get_ext_d2i                                  output.o
X509_get_issuer_name                              output.o
X509_get_pubkey                                   output.o
X509_get_pubkey_parameters                        output.o
X509_get_serialNumber                             output.o
X509_get_subject_name                             output.o
X509_gmtime_adj                                   output.o
X509_issuer_and_serial_cmp                        output.o
X509_issuer_and_serial_hash                       output.o
X509_issuer_name_cmp                              output.o
X509_issuer_name_hash                             output.o
X509_issuer_name_hash_old                         output.o
X509_it                                           output.o
X509_keyid_get0                                   output.o
X509_keyid_set1                                   output.o
X509_new                                          output.o
X509_ocspid_print                                 output.o
X509_policy_check                                 output.o
X509_policy_level_get0_node                       output.o
X509_policy_level_node_count                      output.o
X509_policy_node_get0_parent                      output.o
X509_policy_node_get0_policy                      output.o
X509_policy_node_get0_qualifiers                  output.o
X509_policy_tree_free                             output.o
X509_policy_tree_get0_level                       output.o
X509_policy_tree_get0_policies                    output.o
X509_policy_tree_get0_user_policies               output.o
X509_policy_tree_level_count                      output.o
X509_print                                        output.o
X509_print_ex                                     output.o
X509_pubkey_digest                                output.o
X509_reject_clear                                 output.o
X509_set_ex_data                                  output.o
X509_sign                                         output.o
X509_signature_print                              output.o
X509_subject_name_cmp                             output.o
X509_subject_name_hash                            output.o
X509_subject_name_hash_old                        output.o
X509_supported_extension                          output.o
X509_time_adj                                     output.o
X509_time_adj_ex                                  output.o
X509_to_X509_REQ                                  output.o
X509_trust_clear                                  output.o
X509_verify                                       output.o
X509_verify_cert                                  output.o
X509_version                                      output.o
X509at_add1_attr                                  output.o
X509at_add1_attr_by_NID                           output.o
X509at_add1_attr_by_OBJ                           output.o
X509at_add1_attr_by_txt                           output.o
X509at_delete_attr                                output.o
X509at_get0_data_by_OBJ                           output.o
X509at_get_attr                                   output.o
X509at_get_attr_by_NID                            output.o
X509at_get_attr_by_OBJ                            output.o
X509at_get_attr_count                             output.o
X509v3_add_ext                                    output.o
X509v3_delete_ext                                 output.o
X509v3_get_ext                                    output.o
X509v3_get_ext_by_NID                             output.o
X509v3_get_ext_by_OBJ                             output.o
X509v3_get_ext_by_critical                        output.o
X509v3_get_ext_count                              output.o
X9_62_CHARACTERISTIC_TWO_free                     output.o
X9_62_CHARACTERISTIC_TWO_it                       output.o
X9_62_CHARACTERISTIC_TWO_new                      output.o
X9_62_CURVE_it                                    output.o
X9_62_FIELDID_it                                  output.o
X9_62_PENTANOMIAL_free                            output.o
X9_62_PENTANOMIAL_it                              output.o
X9_62_PENTANOMIAL_new                             output.o
ZLONG_it                                          output.o
_CONF_add_string                                  output.o
_CONF_free_data                                   output.o
_CONF_get_section                                 output.o
_CONF_get_section_values                          output.o
_CONF_get_string                                  output.o
_CONF_new_data                                    output.o
_CONF_new_section                                 output.o
__initfunc_acpi_init_global                       output.o
__initfunc_acpi_init_paral                        output.o
__initfunc_ata_init                               output.o
__initfunc_beep_init_msg                          output.o
__initfunc_cache_init_pass                        output.o
__initfunc_cache_init_pcpu                        output.o
__initfunc_cache_init_vcpu                        output.o
__initfunc_callrealmode_init_global               output.o
__initfunc_callrealmode_panic                     output.o
__initfunc_copy_minios                            output.o
__initfunc_core_init                              output.o
__initfunc_cpu_mmu_spt_init_global                output.o
__initfunc_cpu_mmu_spt_init_pcpu                  output.o
__initfunc_cpuid_init                             output.o
__initfunc_cpuid_pass_init                        output.o
__initfunc_create_pass_vm                         output.o
__initfunc_debug_ata_init                         output.o
__initfunc_debug_on_shift_key                     output.o
__initfunc_ehci_init                              output.o
__initfunc_end                                    output.o
__initfunc_exint_pass_init                        output.o
__initfunc_get_shiftflags                         output.o
__initfunc_gmm_pass_init                          output.o
__initfunc_idman_init                             output.o
__initfunc_idman_init_global                      output.o
__initfunc_idman_kernel_init                      output.o
__initfunc_ieee1394_init                          output.o
__initfunc_ieee1394_init_boot                     output.o
__initfunc_install_int0x15_hook                   output.o
__initfunc_int_init_global                        output.o
__initfunc_int_wakeup                             output.o
__initfunc_io_io_init                             output.o
__initfunc_io_iopass_init                         output.o
__initfunc_iommu_setup                            output.o
__initfunc_keyboard_init_msg                      output.o
__initfunc_localapic_init                         output.o
__initfunc_mm_init_global                         output.o
__initfunc_mmio_debug                             output.o
__initfunc_mmio_init                              output.o
__initfunc_msg_init_global                        output.o
__initfunc_msr_init                               output.o
__initfunc_msr_pass_init                          output.o
__initfunc_nmi_pass_init                          output.o
__initfunc_nmi_pass_init_pcpu                     output.o
__initfunc_panic_init_global                      output.o
__initfunc_panic_init_global3                     output.o
__initfunc_panic_init_msg                         output.o
__initfunc_panic_init_pcpu                        output.o
__initfunc_pci_init                               output.o
__initfunc_print_boot_msg                         output.o
__initfunc_printf_init_global                     output.o
__initfunc_pro100_init                            output.o
__initfunc_process_init_ap                        output.o
__initfunc_process_init_global                    output.o
__initfunc_process_wakeup                         output.o
__initfunc_random_init_config0                    output.o
__initfunc_random_init_global                     output.o
__initfunc_reboot_init_msg                        output.o
__initfunc_resume_pro1000                         output.o
__initfunc_segment_init_global                    output.o
__initfunc_serial_init_msg                        output.o
__initfunc_setiohooks                             output.o
__initfunc_sleep_init_global                      output.o
__initfunc_sleep_init_msg                         output.o
__initfunc_start                                  output.o
__initfunc_storage_io_initfunc                    output.o
__initfunc_storage_kernel_init                    output.o
__initfunc_suspend_pro1000                        output.o
__initfunc_svm_panic                              output.o
__initfunc_sx_init_pass_init                      output.o
__initfunc_thread_init_global                     output.o
__initfunc_thread_init_pcpu                       output.o
__initfunc_time_init_global                       output.o
__initfunc_time_init_global_status                output.o
__initfunc_time_init_msg                          output.o
__initfunc_time_init_pcpu                         output.o
__initfunc_timer_init_global                      output.o
__initfunc_tty_init_global                        output.o
__initfunc_tty_init_global2                       output.o
__initfunc_tty_init_msg                           output.o
__initfunc_uhci_init                              output.o
__initfunc_unmap_user_area                        output.o
__initfunc_vcpu_init_global                       output.o
__initfunc_vga_init                               output.o
__initfunc_virtualization_init_pcpu               output.o
__initfunc_vmmcall_boot_init                      output.o
__initfunc_vmmcall_dbgsh_init                     output.o
__initfunc_vmmcall_dbgsh_init_global              output.o
__initfunc_vmmcall_dbgsh_init_pcpu                output.o
__initfunc_vmmcall_iccard_init                    output.o
__initfunc_vmmcall_init                           output.o
__initfunc_vmmcall_log_init                       output.o
__initfunc_vmmcall_status_init                    output.o
__initfunc_vmmcall_status_init_global             output.o
__initfunc_vpn_kernel_init                        output.o
__initfunc_vpn_pro1000_init                       output.o
__initfunc_vramwrite_init_bsp                     output.o
__initfunc_vramwrite_init_msg                     output.o
__initfunc_vt_panic                               output.o
__initfunc_vt_register_status_callback            output.o
__initfunc_xsetbv_init                            output.o
__initfunc_xsetbv_pass_init                       output.o
__process_builtin                                 output.o
__process_builtin_end                             output.o
_dprintf                                          output.o
_dprintft                                         output.o
_shadow_DES_check_key                             output.o
a2d_ASN1_OBJECT                                   output.o
a2i_ASN1_INTEGER                                  output.o
a2i_ASN1_STRING                                   output.o
a2i_GENERAL_NAME                                  output.o
a2i_IPADDRESS                                     output.o
a2i_IPADDRESS_NC                                  output.o
a2i_ipadd                                         output.o
acpi_dsdt_parse                                   output.o
acpi_dsdt_system_state                            output.o
acpi_iohook                                       output.o
acpi_poweroff                                     output.o
acpi_reset                                        output.o
acpi_smi_hook                                     output.o
add_remap                                         output.o
aes_xts_init                                      output.o
ahci_config_read                                  output.o
ahci_config_write                                 output.o
ahci_new                                          output.o
alloc                                             output.o
alloc2                                            output.o
alloc_handler_descriptor                          output.o
alloc_page                                        output.o
alloc_pages                                       output.o
alloc_realmodemem                                 output.o
allocateNewAppID                                  output.o
allocateNewApplicationIdentifiers                 output.o
allocateNewVMID                                   output.o
ap_start_addr                                     output.o
apic_available                                    output.o
apinit_lock                                       output.o
apinit_procs                                      output.o
apinitproc0                                       output.o
app_pkey_methods                                  output.o
asm_vmlaunch_regs_32                              output.o
asm_vmlaunch_regs_64                              output.o
asm_vmresume_regs_32                              output.o
asm_vmresume_regs_64                              output.o
asm_vmrun_regs_32                                 output.o
asm_vmrun_regs_64                                 output.o
asn1_Finish                                       output.o
asn1_GetSequence                                  output.o
asn1_add_error                                    output.o
asn1_const_Finish                                 output.o
asn1_do_adb                                       output.o
asn1_do_lock                                      output.o
asn1_enc_free                                     output.o
asn1_enc_init                                     output.o
asn1_enc_restore                                  output.o
asn1_enc_save                                     output.o
asn1_ex_c2i                                       output.o
asn1_ex_i2c                                       output.o
asn1_get_choice_selector                          output.o
asn1_get_field_ptr                                output.o
asn1_set_choice_selector                          output.o
asn1_template_print_ctx                           output.o
assertion_failed                                  output.o
ata_ahci_mode                                     output.o
ata_bm_handle_command                             output.o
ata_bm_handle_device_specific                     output.o
ata_bm_handle_prd_table                           output.o
ata_bm_handle_status                              output.o
ata_bm_handler                                    output.o
ata_bm_handler_table                              output.o
ata_channel_lock                                  output.o
ata_channel_unlock                                output.o
ata_cmdblk_handler                                output.o
ata_cmdblk_handler_table                          output.o
ata_config_read                                   output.o
ata_config_write                                  output.o
ata_ctlblk_handler                                output.o
ata_ctlblk_handler_table                          output.o
ata_get_cmd_type                                  output.o
ata_handle_queued_status                          output.o
ata_init_io_handler                               output.o
ata_init_vendor                                   output.o
ata_set_bm_handler                                output.o
ata_set_cmdblk_handler                            output.o
ata_set_ctlblk_handler                            output.o
atapi_handle_cmd_packet                           output.o
atapi_handle_config_data                          output.o
atapi_handle_interrupt_reason                     output.o
atapi_handle_packet_data                          output.o
atapi_handle_pio_identify_packet                  output.o
auto_reboot                                       output.o
backtrace                                         output.o
beep_off                                          output.o
beep_on                                           output.o
beep_set_freq                                     output.o
bn_add_part_words                                 output.o
bn_add_words                                      output.o
bn_cmp_part_words                                 output.o
bn_cmp_words                                      output.o
bn_div_words                                      output.o
bn_dup_expand                                     output.o
bn_expand2                                        output.o
bn_mul_add_words                                  output.o
bn_mul_comba4                                     output.o
bn_mul_comba8                                     output.o
bn_mul_high                                       output.o
bn_mul_low_normal                                 output.o
bn_mul_low_recursive                              output.o
bn_mul_normal                                     output.o
bn_mul_part_recursive                             output.o
bn_mul_recursive                                  output.o
bn_mul_words                                      output.o
bn_sqr_comba4                                     output.o
bn_sqr_comba8                                     output.o
bn_sqr_normal                                     output.o
bn_sqr_recursive                                  output.o
bn_sqr_words                                      output.o
bn_sub_part_words                                 output.o
bn_sub_words                                      output.o
bss                                               output.o
c2i_ASN1_BIT_STRING                               output.o
c2i_ASN1_INTEGER                                  output.o
c2i_ASN1_OBJECT                                   output.o
cache_get_attr                                    output.o
cache_get_gmsr_amd                                output.o
cache_get_gmtrr                                   output.o
cache_get_gmtrr_attr                              output.o
cache_get_gmtrr_type                              output.o
cache_get_gmtrrcap                                output.o
cache_get_gpat                                    output.o
cache_set_gmsr_amd                                output.o
cache_set_gmtrr                                   output.o
cache_set_gpat                                    output.o
call_cpuid                                        output.o
call_initfunc                                     output.o
call_io                                           output.o
call_read_msr                                     output.o
call_write_msr                                    output.o
call_xsetbv                                       output.o
callfunc_and_getint                               output.o
callrealmode_bootcd_getstatus                     output.o
callrealmode_disk_readlba                         output.o
callrealmode_disk_readmbr                         output.o
callrealmode_end                                  output.o
callrealmode_endofcodeaddr                        output.o
callrealmode_getfontinfo                          output.o
callrealmode_getshiftflags                        output.o
callrealmode_getsysmemmap                         output.o
callrealmode_printmsg                             output.o
callrealmode_reboot                               output.o
callrealmode_setcursorpos                         output.o
callrealmode_setvideomode                         output.o
callrealmode_start                                output.o
callrealmode_start2                               output.o
callrealmode_startkernel32                        output.o
callrealmode_tcgbios                              output.o
callrealmode_usevcpu                              output.o
cancel_sleep                                      output.o
changePageStatus                                  output.o
check_defer                                       output.o
chelp_abort                                       output.o
chelp_bsearch                                     output.o
chelp_div_64_32_32                                output.o
chelp_div_64_32_64                                output.o
chelp_free                                        output.o
chelp_inited                                      output.o
chelp_isalnum                                     output.o
chelp_isalpha                                     output.o
chelp_isdigit                                     output.o
chelp_islower                                     output.o
chelp_isspace                                     output.o
chelp_isupper                                     output.o
chelp_isxdigit                                    output.o
chelp_malloc                                      output.o
chelp_memchr                                      output.o
chelp_memcmp                                      output.o
chelp_memcpy                                      output.o
chelp_memmove                                     output.o
chelp_memset                                      output.o
chelp_mod_64_32_32                                output.o
chelp_mul_64_64_64                                output.o
chelp_print                                       output.o
chelp_printf                                      output.o
chelp_qsort                                       output.o
chelp_realloc                                     output.o
chelp_snprintf                                    output.o
chelp_sprintf                                     output.o
chelp_strcat                                      output.o
chelp_strchr                                      output.o
chelp_strcmp                                      output.o
chelp_strcpy                                      output.o
chelp_stricmp                                     output.o
chelp_strlen                                      output.o
chelp_strncasecmp                                 output.o
chelp_strncmp                                     output.o
chelp_strncpy                                     output.o
chelp_strrchr                                     output.o
chelp_strtol                                      output.o
chelp_strtoul                                     output.o
chelp_strtoul_ex                                  output.o
chelp_swap                                        output.o
chelp_tolower                                     output.o
chelp_toupper                                     output.o
cleanse_ctr                                       output.o
clflush_size                                      output.o
closePage                                         output.o
cmpxchg_gphys_l                                   output.o
cmpxchg_gphys_q                                   output.o
cmpxchg_hphys_l                                   output.o
cmpxchg_hphys_q                                   output.o
cms_Data_create                                   output.o
cms_DigestAlgorithm_find_ctx                      output.o
cms_DigestAlgorithm_init_bio                      output.o
cms_DigestAlgorithm_set                           output.o
cms_DigestedData_create                           output.o
cms_DigestedData_do_final                         output.o
cms_DigestedData_init_bio                         output.o
cms_EncryptedContent_init                         output.o
cms_EncryptedContent_init_bio                     output.o
cms_EncryptedData_init_bio                        output.o
cms_EnvelopedData_init_bio                        output.o
cms_SignedData_final                              output.o
cms_SignedData_init_bio                           output.o
cms_SignerIdentifier_cert_cmp                     output.o
cms_SignerIdentifier_get0_signer_id               output.o
cms_content_bio                                   output.o
cms_set1_SignerIdentifier                         output.o
config                                            output.o
copy_bootsector                                   output.o
core_init                                         output.o
core_io_handle_default                            output.o
core_io_modify_handler                            output.o
core_io_register_handler                          output.o
core_io_unregister_handler                        output.o
core_mm_read_guest_phys                           output.o
core_mm_write_guest_phys                          output.o
cpu_emul_cli                                      output.o
cpu_emul_cpuid                                    output.o
cpu_emul_hlt                                      output.o
cpu_emul_rdmsr                                    output.o
cpu_emul_realmode_int                             output.o
cpu_emul_sti                                      output.o
cpu_emul_wrmsr                                    output.o
cpu_emul_xsetbv                                   output.o
cpu_interpreter                                   output.o
cpu_mmu_get_pte                                   output.o
cpu_mmu_spt_clear_all                             output.o
cpu_mmu_spt_extern_mapsearch                      output.o
cpu_mmu_spt_init                                  output.o
cpu_mmu_spt_invalidate                            output.o
cpu_mmu_spt_map_1mb                               output.o
cpu_mmu_spt_pagefault                             output.o
cpu_mmu_spt_tlbflush                              output.o
cpu_mmu_spt_updatecr3                             output.o
cpu_seg_read_b                                    output.o
cpu_seg_read_l                                    output.o
cpu_seg_read_q                                    output.o
cpu_seg_read_w                                    output.o
cpu_seg_write_b                                   output.o
cpu_seg_write_l                                   output.o
cpu_seg_write_q                                   output.o
cpu_seg_write_w                                   output.o
cpu_stack_get                                     output.o
cpu_stack_pop                                     output.o
cpu_stack_push                                    output.o
cpu_stack_set                                     output.o
cpuinit_end                                       output.o
cpuinit_start                                     output.o
create_dom                                        output.o
crypt_sys_rsa_sign                                output.o
crypto_find                                       output.o
crypto_init                                       output.o
crypto_none_init                                  output.o
crypto_register                                   output.o
curthread                                         output.o
d2i_ACCESS_DESCRIPTION                            output.o
d2i_ASN1_BIT_STRING                               output.o
d2i_ASN1_BMPSTRING                                output.o
d2i_ASN1_BOOLEAN                                  output.o
d2i_ASN1_ENUMERATED                               output.o
d2i_ASN1_GENERALIZEDTIME                          output.o
d2i_ASN1_GENERALSTRING                            output.o
d2i_ASN1_IA5STRING                                output.o
d2i_ASN1_INTEGER                                  output.o
d2i_ASN1_NULL                                     output.o
d2i_ASN1_OBJECT                                   output.o
d2i_ASN1_OCTET_STRING                             output.o
d2i_ASN1_PRINTABLE                                output.o
d2i_ASN1_PRINTABLESTRING                          output.o
d2i_ASN1_SEQUENCE_ANY                             output.o
d2i_ASN1_SET                                      output.o
d2i_ASN1_SET_ANY                                  output.o
d2i_ASN1_T61STRING                                output.o
d2i_ASN1_TIME                                     output.o
d2i_ASN1_TYPE                                     output.o
d2i_ASN1_UINTEGER                                 output.o
d2i_ASN1_UNIVERSALSTRING                          output.o
d2i_ASN1_UTCTIME                                  output.o
d2i_ASN1_UTF8STRING                               output.o
d2i_ASN1_VISIBLESTRING                            output.o
d2i_ASN1_bytes                                    output.o
d2i_ASN1_type_bytes                               output.o
d2i_AUTHORITY_INFO_ACCESS                         output.o
d2i_AUTHORITY_KEYID                               output.o
d2i_AutoPrivateKey                                output.o
d2i_BASIC_CONSTRAINTS                             output.o
d2i_CERTIFICATEPOLICIES                           output.o
d2i_CMS_ContentInfo                               output.o
d2i_CMS_bio                                       output.o
d2i_CRL_DIST_POINTS                               output.o
d2i_DHparams                                      output.o
d2i_DIRECTORYSTRING                               output.o
d2i_DISPLAYTEXT                                   output.o
d2i_DIST_POINT                                    output.o
d2i_DIST_POINT_NAME                               output.o
d2i_DSAPrivateKey                                 output.o
d2i_DSAPrivateKey_bio                             output.o
d2i_DSAPublicKey                                  output.o
d2i_DSA_PUBKEY                                    output.o
d2i_DSA_PUBKEY_bio                                output.o
d2i_DSA_SIG                                       output.o
d2i_DSAparams                                     output.o
d2i_ECDSA_SIG                                     output.o
d2i_ECPKPARAMETERS                                output.o
d2i_ECPKParameters                                output.o
d2i_ECParameters                                  output.o
d2i_ECPrivateKey                                  output.o
d2i_ECPrivateKey_bio                              output.o
d2i_EC_PRIVATEKEY                                 output.o
d2i_EC_PUBKEY                                     output.o
d2i_EC_PUBKEY_bio                                 output.o
d2i_EDIPARTYNAME                                  output.o
d2i_EXTENDED_KEY_USAGE                            output.o
d2i_GENERAL_NAME                                  output.o
d2i_GENERAL_NAMES                                 output.o
d2i_ISSUING_DIST_POINT                            output.o
d2i_NETSCAPE_CERT_SEQUENCE                        output.o
d2i_NETSCAPE_SPKAC                                output.o
d2i_NETSCAPE_SPKI                                 output.o
d2i_NOTICEREF                                     output.o
d2i_OCSP_BASICRESP                                output.o
d2i_OCSP_CERTID                                   output.o
d2i_OCSP_CERTSTATUS                               output.o
d2i_OCSP_CRLID                                    output.o
d2i_OCSP_ONEREQ                                   output.o
d2i_OCSP_REQINFO                                  output.o
d2i_OCSP_REQUEST                                  output.o
d2i_OCSP_RESPBYTES                                output.o
d2i_OCSP_RESPDATA                                 output.o
d2i_OCSP_RESPID                                   output.o
d2i_OCSP_RESPONSE                                 output.o
d2i_OCSP_REVOKEDINFO                              output.o
d2i_OCSP_SERVICELOC                               output.o
d2i_OCSP_SIGNATURE                                output.o
d2i_OCSP_SINGLERESP                               output.o
d2i_OTHERNAME                                     output.o
d2i_PBE2PARAM                                     output.o
d2i_PBEPARAM                                      output.o
d2i_PBKDF2PARAM                                   output.o
d2i_PKCS12                                        output.o
d2i_PKCS12_BAGS                                   output.o
d2i_PKCS12_MAC_DATA                               output.o
d2i_PKCS12_SAFEBAG                                output.o
d2i_PKCS12_bio                                    output.o
d2i_PKCS7                                         output.o
d2i_PKCS7_DIGEST                                  output.o
d2i_PKCS7_ENCRYPT                                 output.o
d2i_PKCS7_ENC_CONTENT                             output.o
d2i_PKCS7_ENVELOPE                                output.o
d2i_PKCS7_ISSUER_AND_SERIAL                       output.o
d2i_PKCS7_RECIP_INFO                              output.o
d2i_PKCS7_SIGNED                                  output.o
d2i_PKCS7_SIGNER_INFO                             output.o
d2i_PKCS7_SIGN_ENVELOPE                           output.o
d2i_PKCS7_bio                                     output.o
d2i_PKCS8PrivateKey_bio                           output.o
d2i_PKCS8_PRIV_KEY_INFO                           output.o
d2i_PKCS8_PRIV_KEY_INFO_bio                       output.o
d2i_PKCS8_bio                                     output.o
d2i_PKEY_USAGE_PERIOD                             output.o
d2i_POLICYINFO                                    output.o
d2i_POLICYQUALINFO                                output.o
d2i_PROXY_CERT_INFO_EXTENSION                     output.o
d2i_PROXY_POLICY                                  output.o
d2i_PUBKEY                                        output.o
d2i_PUBKEY_bio                                    output.o
d2i_PrivateKey                                    output.o
d2i_PrivateKey_bio                                output.o
d2i_RSAPrivateKey                                 output.o
d2i_RSAPrivateKey_bio                             output.o
d2i_RSAPublicKey                                  output.o
d2i_RSAPublicKey_bio                              output.o
d2i_RSA_PUBKEY                                    output.o
d2i_RSA_PUBKEY_bio                                output.o
d2i_SXNET                                         output.o
d2i_SXNETID                                       output.o
d2i_USERNOTICE                                    output.o
d2i_X509                                          output.o
d2i_X509_ALGOR                                    output.o
d2i_X509_ALGORS                                   output.o
d2i_X509_ATTRIBUTE                                output.o
d2i_X509_AUX                                      output.o
d2i_X509_CERT_AUX                                 output.o
d2i_X509_CERT_PAIR                                output.o
d2i_X509_CINF                                     output.o
d2i_X509_CRL                                      output.o
d2i_X509_CRL_INFO                                 output.o
d2i_X509_CRL_bio                                  output.o
d2i_X509_EXTENSION                                output.o
d2i_X509_EXTENSIONS                               output.o
d2i_X509_NAME                                     output.o
d2i_X509_NAME_ENTRY                               output.o
d2i_X509_PUBKEY                                   output.o
d2i_X509_REQ                                      output.o
d2i_X509_REQ_INFO                                 output.o
d2i_X509_REQ_bio                                  output.o
d2i_X509_REVOKED                                  output.o
d2i_X509_SIG                                      output.o
d2i_X509_VAL                                      output.o
d2i_X509_bio                                      output.o
deactivate_and_delete_urb                         output.o
debug_addstr                                      output.o
debug_gdb                                         output.o
debug_iohook                                      output.o
debug_msgregister                                 output.o
debug_msgunregister                               output.o
decryptcfg                                        output.o
default_pctx                                      output.o
dh_asn1_meth                                      output.o
dh_pkey_meth                                      output.o
disable_apic                                      output.o
do_exint_pass                                     output.o
do_externalint_enable                             output.o
do_io_nothing                                     output.o
do_iopass_default                                 output.o
do_panic_reboot                                   output.o
dom_io                                            output.o
dprintf_port                                      output.o
drhd_list_head                                    output.o
dsa_asn1_meths                                    output.o
dsa_builtin_paramgen                              output.o
dsa_pkey_meth                                     output.o
dsa_pub_internal_it                               output.o
dump_frame                                        output.o
dump_qh                                           output.o
dump_td                                           output.o
dump_td_byvirt                                    output.o
dwReaders                                         output.o
e801_fake_ax                                      output.o
e801_fake_bx                                      output.o
ec_GF2m_have_precompute_mult                      output.o
ec_GF2m_precompute_mult                           output.o
ec_GF2m_simple_add                                output.o
ec_GF2m_simple_cmp                                output.o
ec_GF2m_simple_dbl                                output.o
ec_GF2m_simple_field_div                          output.o
ec_GF2m_simple_field_mul                          output.o
ec_GF2m_simple_field_sqr                          output.o
ec_GF2m_simple_group_check_discriminant           output.o
ec_GF2m_simple_group_clear_finish                 output.o
ec_GF2m_simple_group_copy                         output.o
ec_GF2m_simple_group_finish                       output.o
ec_GF2m_simple_group_get_curve                    output.o
ec_GF2m_simple_group_get_degree                   output.o
ec_GF2m_simple_group_init                         output.o
ec_GF2m_simple_group_set_curve                    output.o
ec_GF2m_simple_invert                             output.o
ec_GF2m_simple_is_at_infinity                     output.o
ec_GF2m_simple_is_on_curve                        output.o
ec_GF2m_simple_make_affine                        output.o
ec_GF2m_simple_mul                                output.o
ec_GF2m_simple_oct2point                          output.o
ec_GF2m_simple_point2oct                          output.o
ec_GF2m_simple_point_clear_finish                 output.o
ec_GF2m_simple_point_copy                         output.o
ec_GF2m_simple_point_finish                       output.o
ec_GF2m_simple_point_get_affine_coordinates       output.o
ec_GF2m_simple_point_init                         output.o
ec_GF2m_simple_point_set_affine_coordinates       output.o
ec_GF2m_simple_point_set_to_infinity              output.o
ec_GF2m_simple_points_make_affine                 output.o
ec_GF2m_simple_set_compressed_coordinates         output.o
ec_GFp_mont_field_decode                          output.o
ec_GFp_mont_field_encode                          output.o
ec_GFp_mont_field_mul                             output.o
ec_GFp_mont_field_set_to_one                      output.o
ec_GFp_mont_field_sqr                             output.o
ec_GFp_mont_group_clear_finish                    output.o
ec_GFp_mont_group_copy                            output.o
ec_GFp_mont_group_finish                          output.o
ec_GFp_mont_group_init                            output.o
ec_GFp_mont_group_set_curve                       output.o
ec_GFp_nist_field_mul                             output.o
ec_GFp_nist_field_sqr                             output.o
ec_GFp_nist_group_copy                            output.o
ec_GFp_nist_group_set_curve                       output.o
ec_GFp_simple_add                                 output.o
ec_GFp_simple_cmp                                 output.o
ec_GFp_simple_dbl                                 output.o
ec_GFp_simple_field_mul                           output.o
ec_GFp_simple_field_sqr                           output.o
ec_GFp_simple_get_Jprojective_coordinates_GFp     output.o
ec_GFp_simple_group_check_discriminant            output.o
ec_GFp_simple_group_clear_finish                  output.o
ec_GFp_simple_group_copy                          output.o
ec_GFp_simple_group_finish                        output.o
ec_GFp_simple_group_get_curve                     output.o
ec_GFp_simple_group_get_degree                    output.o
ec_GFp_simple_group_init                          output.o
ec_GFp_simple_group_set_curve                     output.o
ec_GFp_simple_invert                              output.o
ec_GFp_simple_is_at_infinity                      output.o
ec_GFp_simple_is_on_curve                         output.o
ec_GFp_simple_make_affine                         output.o
ec_GFp_simple_oct2point                           output.o
ec_GFp_simple_point2oct                           output.o
ec_GFp_simple_point_clear_finish                  output.o
ec_GFp_simple_point_copy                          output.o
ec_GFp_simple_point_finish                        output.o
ec_GFp_simple_point_get_affine_coordinates        output.o
ec_GFp_simple_point_init                          output.o
ec_GFp_simple_point_set_affine_coordinates        output.o
ec_GFp_simple_point_set_to_infinity               output.o
ec_GFp_simple_points_make_affine                  output.o
ec_GFp_simple_set_Jprojective_coordinates_GFp     output.o
ec_GFp_simple_set_compressed_coordinates          output.o
ec_pkey_meth                                      output.o
ec_wNAF_have_precompute_mult                      output.o
ec_wNAF_mul                                       output.o
ec_wNAF_precompute_mult                           output.o
ecdh_check                                        output.o
ecdsa_check                                       output.o
eckey_asn1_meth                                   output.o
ehci_check_advance                                output.o
ehci_check_urb_advance                            output.o
ehci_cleanup_urbs                                 output.o
ehci_conceal_portroute                            output.o
ehci_deactivate_urb                               output.o
ehci_dump_alist                                   output.o
ehci_dump_all                                     output.o
ehci_dump_async                                   output.o
ehci_dump_qtd                                     output.o
ehci_dump_qtdm                                    output.o
ehci_dump_urb                                     output.o
ehci_dump_urblist                                 output.o
ehci_end_monitor_async                            output.o
ehci_host                                         output.o
ehci_init                                         output.o
ehci_monitor_async_list                           output.o
ehci_shadow_async_list                            output.o
ehci_shadow_buffer                                output.o
ehci_submit_bulk                                  output.o
ehci_submit_control                               output.o
ehci_submit_interrupt                             output.o
end                                               output.o
entry                                             output.o
entry_pd                                          output.o
entry_pd0                                         output.o
entry_pdp                                         output.o
evp_pkey_set_cb_translate                         output.o
exitprocess                                       output.o
free                                              output.o
free_config_descriptors                           output.o
free_device                                       output.o
free_page                                         output.o
free_page_phys                                    output.o
g_rgSCardT0Pci                                    output.o
g_rgSCardT1Pci                                    output.o
getMemoryOwnershipTableEntry                      output.o
getMemoryOwnershipTableIndex                      output.o
get_acpi_time                                     output.o
get_acpi_time_raw                                 output.o
get_cpu_id                                        output.o
get_cpu_time                                      output.o
get_ept_base_HPA                                  output.o
get_guest_cr3_value                               output.o
get_guest_eptp_value                              output.o
get_gurb_by_address                               output.o
get_idman_session                                 output.o
get_page_table_base_GPA                           output.o
get_seg_access_rights                             output.o
get_seg_base                                      output.o
get_time                                          output.o
getfakesysmemmap                                  output.o
getsysmemmap                                      output.o
gmm_pass_gp2hp                                    output.o
gpaToHPA                                          output.o
gs_current                                        output.o
gs_currentcpu                                     output.o
gs_init_count                                     output.o
gs_inthandling                                    output.o
gs_nmi                                            output.o
gs_syscallstack                                   output.o
guest_int0x15_e801_fake_ax                        output.o
guest_int0x15_e801_fake_bx                        output.o
guest_int0x15_e820_data_minus0x18                 output.o
guest_int0x15_e820_end                            output.o
guest_int0x15_hook                                output.o
guest_int0x15_hook_end                            output.o
guest_int0x15_orig                                output.o
hContext                                          output.o
hObjectCnt                                        output.o
hSessionCnt                                       output.o
handle_connect_status                             output.o
handle_init_to_bsp                                output.o
handle_port_reset                                 output.o
handler_descriptor                                output.o
handler_descriptor_lock                           output.o
head                                              output.o
hex_to_string                                     output.o
hmac_asn1_meth                                    output.o
hmac_pkey_meth                                    output.o
hub_portdevice_register                           output.o
hypercall_handler                                 output.o
i2a_ACCESS_DESCRIPTION                            output.o
i2a_ASN1_INTEGER                                  output.o
i2a_ASN1_OBJECT                                   output.o
i2a_ASN1_STRING                                   output.o
i2c_ASN1_BIT_STRING                               output.o
i2c_ASN1_INTEGER                                  output.o
i2d_ACCESS_DESCRIPTION                            output.o
i2d_ASN1_BIT_STRING                               output.o
i2d_ASN1_BMPSTRING                                output.o
i2d_ASN1_BOOLEAN                                  output.o
i2d_ASN1_ENUMERATED                               output.o
i2d_ASN1_GENERALIZEDTIME                          output.o
i2d_ASN1_GENERALSTRING                            output.o
i2d_ASN1_IA5STRING                                output.o
i2d_ASN1_INTEGER                                  output.o
i2d_ASN1_NULL                                     output.o
i2d_ASN1_OBJECT                                   output.o
i2d_ASN1_OCTET_STRING                             output.o
i2d_ASN1_PRINTABLE                                output.o
i2d_ASN1_PRINTABLESTRING                          output.o
i2d_ASN1_SEQUENCE_ANY                             output.o
i2d_ASN1_SET                                      output.o
i2d_ASN1_SET_ANY                                  output.o
i2d_ASN1_T61STRING                                output.o
i2d_ASN1_TIME                                     output.o
i2d_ASN1_TYPE                                     output.o
i2d_ASN1_UNIVERSALSTRING                          output.o
i2d_ASN1_UTCTIME                                  output.o
i2d_ASN1_UTF8STRING                               output.o
i2d_ASN1_VISIBLESTRING                            output.o
i2d_ASN1_bio_stream                               output.o
i2d_ASN1_bytes                                    output.o
i2d_AUTHORITY_INFO_ACCESS                         output.o
i2d_AUTHORITY_KEYID                               output.o
i2d_BASIC_CONSTRAINTS                             output.o
i2d_CERTIFICATEPOLICIES                           output.o
i2d_CMS_ContentInfo                               output.o
i2d_CMS_bio                                       output.o
i2d_CMS_bio_stream                                output.o
i2d_CRL_DIST_POINTS                               output.o
i2d_DHparams                                      output.o
i2d_DIRECTORYSTRING                               output.o
i2d_DISPLAYTEXT                                   output.o
i2d_DIST_POINT                                    output.o
i2d_DIST_POINT_NAME                               output.o
i2d_DSAPrivateKey                                 output.o
i2d_DSAPrivateKey_bio                             output.o
i2d_DSAPublicKey                                  output.o
i2d_DSA_PUBKEY                                    output.o
i2d_DSA_PUBKEY_bio                                output.o
i2d_DSA_SIG                                       output.o
i2d_DSAparams                                     output.o
i2d_ECDSA_SIG                                     output.o
i2d_ECPKPARAMETERS                                output.o
i2d_ECPKParameters                                output.o
i2d_ECParameters                                  output.o
i2d_ECPrivateKey                                  output.o
i2d_ECPrivateKey_bio                              output.o
i2d_EC_PRIVATEKEY                                 output.o
i2d_EC_PUBKEY                                     output.o
i2d_EC_PUBKEY_bio                                 output.o
i2d_EDIPARTYNAME                                  output.o
i2d_EXTENDED_KEY_USAGE                            output.o
i2d_GENERAL_NAME                                  output.o
i2d_GENERAL_NAMES                                 output.o
i2d_ISSUING_DIST_POINT                            output.o
i2d_NETSCAPE_CERT_SEQUENCE                        output.o
i2d_NETSCAPE_SPKAC                                output.o
i2d_NETSCAPE_SPKI                                 output.o
i2d_NOTICEREF                                     output.o
i2d_OCSP_BASICRESP                                output.o
i2d_OCSP_CERTID                                   output.o
i2d_OCSP_CERTSTATUS                               output.o
i2d_OCSP_CRLID                                    output.o
i2d_OCSP_ONEREQ                                   output.o
i2d_OCSP_REQINFO                                  output.o
i2d_OCSP_REQUEST                                  output.o
i2d_OCSP_RESPBYTES                                output.o
i2d_OCSP_RESPDATA                                 output.o
i2d_OCSP_RESPID                                   output.o
i2d_OCSP_RESPONSE                                 output.o
i2d_OCSP_REVOKEDINFO                              output.o
i2d_OCSP_SERVICELOC                               output.o
i2d_OCSP_SIGNATURE                                output.o
i2d_OCSP_SINGLERESP                               output.o
i2d_OTHERNAME                                     output.o
i2d_PBE2PARAM                                     output.o
i2d_PBEPARAM                                      output.o
i2d_PBKDF2PARAM                                   output.o
i2d_PKCS12                                        output.o
i2d_PKCS12_BAGS                                   output.o
i2d_PKCS12_MAC_DATA                               output.o
i2d_PKCS12_SAFEBAG                                output.o
i2d_PKCS12_bio                                    output.o
i2d_PKCS7                                         output.o
i2d_PKCS7_DIGEST                                  output.o
i2d_PKCS7_ENCRYPT                                 output.o
i2d_PKCS7_ENC_CONTENT                             output.o
i2d_PKCS7_ENVELOPE                                output.o
i2d_PKCS7_ISSUER_AND_SERIAL                       output.o
i2d_PKCS7_NDEF                                    output.o
i2d_PKCS7_RECIP_INFO                              output.o
i2d_PKCS7_SIGNED                                  output.o
i2d_PKCS7_SIGNER_INFO                             output.o
i2d_PKCS7_SIGN_ENVELOPE                           output.o
i2d_PKCS7_bio                                     output.o
i2d_PKCS8PrivateKeyInfo_bio                       output.o
i2d_PKCS8PrivateKey_bio                           output.o
i2d_PKCS8PrivateKey_nid_bio                       output.o
i2d_PKCS8_PRIV_KEY_INFO                           output.o
i2d_PKCS8_PRIV_KEY_INFO_bio                       output.o
i2d_PKCS8_bio                                     output.o
i2d_PKEY_USAGE_PERIOD                             output.o
i2d_POLICYINFO                                    output.o
i2d_POLICYQUALINFO                                output.o
i2d_PROXY_CERT_INFO_EXTENSION                     output.o
i2d_PROXY_POLICY                                  output.o
i2d_PUBKEY                                        output.o
i2d_PUBKEY_bio                                    output.o
i2d_PrivateKey                                    output.o
i2d_PrivateKey_bio                                output.o
i2d_RSAPrivateKey                                 output.o
i2d_RSAPrivateKey_bio                             output.o
i2d_RSAPublicKey                                  output.o
i2d_RSAPublicKey_bio                              output.o
i2d_RSA_PUBKEY                                    output.o
i2d_RSA_PUBKEY_bio                                output.o
i2d_SXNET                                         output.o
i2d_SXNETID                                       output.o
i2d_USERNOTICE                                    output.o
i2d_X509                                          output.o
i2d_X509_ALGOR                                    output.o
i2d_X509_ALGORS                                   output.o
i2d_X509_ATTRIBUTE                                output.o
i2d_X509_AUX                                      output.o
i2d_X509_CERT_AUX                                 output.o
i2d_X509_CERT_PAIR                                output.o
i2d_X509_CINF                                     output.o
i2d_X509_CRL                                      output.o
i2d_X509_CRL_INFO                                 output.o
i2d_X509_CRL_bio                                  output.o
i2d_X509_EXTENSION                                output.o
i2d_X509_EXTENSIONS                               output.o
i2d_X509_NAME                                     output.o
i2d_X509_NAME_ENTRY                               output.o
i2d_X509_PUBKEY                                   output.o
i2d_X509_REQ                                      output.o
i2d_X509_REQ_INFO                                 output.o
i2d_X509_REQ_bio                                  output.o
i2d_X509_REVOKED                                  output.o
i2d_X509_SIG                                      output.o
i2d_X509_VAL                                      output.o
i2d_X509_bio                                      output.o
i2o_ECPublicKey                                   output.o
i2s_ASN1_ENUMERATED                               output.o
i2s_ASN1_ENUMERATED_TABLE                         output.o
i2s_ASN1_INTEGER                                  output.o
i2s_ASN1_OCTET_STRING                             output.o
i2t_ASN1_OBJECT                                   output.o
i2v_ASN1_BIT_STRING                               output.o
i2v_GENERAL_NAME                                  output.o
i2v_GENERAL_NAMES                                 output.o
idea_cbc_encrypt                                  output.o
idea_cfb64_encrypt                                output.o
idea_ecb_encrypt                                  output.o
idea_encrypt                                      output.o
idea_ofb64_encrypt                                output.o
idea_options                                      output.o
idea_set_decrypt_key                              output.o
idea_set_encrypt_key                              output.o
idman_reinit2                                     output.o
idman_reinit_session                              output.o
idman_user_init                                   output.o
ieee1394_init                                     output.o
init_hframelist                                   output.o
initfunc_init                                     output.o
int1a_TCG_CompactHashLogExtendEvent               output.o
int1a_TCG_HashAll                                 output.o
int1a_TCG_HashLogEvent                            output.o
int1a_TCG_HashLogExtendEvent                      output.o
int1a_TCG_PassThroughToTPM                        output.o
int1a_TCG_StatusCheck                             output.o
int1a_TCG_TSS                                     output.o
int_callfunc                                      output.o
int_exceptionHandler                              output.o
int_fatal                                         output.o
int_handler                                       output.o
int_init_ap                                       output.o
int_rsa_verify                                    output.o
iodom_init                                        output.o
iommu_detected                                    output.o
iommu_setup                                       output.o
ipchecksum                                        output.o
keyboard_flush                                    output.o
keyboard_reset                                    output.o
level_add_node                                    output.o
level_find_node                                   output.o
lh_delete                                         output.o
lh_doall                                          output.o
lh_doall_arg                                      output.o
lh_free                                           output.o
lh_insert                                         output.o
lh_new                                            output.o
lh_num_items                                      output.o
lh_retrieve                                       output.o
lh_strhash                                        output.o
lh_version                                        output.o
libInitFlag                                       output.o
load_bootsector                                   output.o
load_minios                                       output.o
load_new_vcpu                                     output.o
localapic_change_base_msr                         output.o
localapic_mmio_register                           output.o
localapic_wait_for_sipi                           output.o
mapHPAintoHVA                                     output.o
mapmem                                            output.o
mapmem_gphys                                      output.o
mapmem_hphys                                      output.o
matched_drhd_u                                    output.o
md4_block_data_order                              output.o
md5_block_data_order                              output.o
memcmp                                            output.o
memcpy                                            output.o
memorysize                                        output.o
mempool_allocmem                                  output.o
mempool_free                                      output.o
mempool_freemem                                   output.o
mempool_new                                       output.o
memset                                            output.o
message_exitcode                                  output.o
message_exitreason                                output.o
mm_flush_wb_cache                                 output.o
mm_force_unlock                                   output.o
mm_process_alloc                                  output.o
mm_process_free                                   output.o
mm_process_map_alloc                              output.o
mm_process_map_shared                             output.o
mm_process_map_shared_physpage                    output.o
mm_process_map_stack                              output.o
mm_process_switch                                 output.o
mm_process_unmap                                  output.o
mm_process_unmap_stack                            output.o
mm_process_unmapall                               output.o
mmio_access_memory                                output.o
mmio_access_page                                  output.o
mmio_lock                                         output.o
mmio_register                                     output.o
mmio_unlock                                       output.o
mmio_unregister                                   output.o
monitor_vmcs_read                                 output.o
move_vmm_area32                                   output.o
move_vmm_area64                                   output.o
mpudiv_128_32                                     output.o
mpumul_64_64                                      output.o
msg_findname                                      output.o
msg_register                                      output.o
msg_unregister                                    output.o
msg_unregister2                                   output.o
msg_unregisterall                                 output.o
msg_usb_bulk_read                                 output.o
msg_usb_bulk_write                                output.o
msg_usb_claim_interface                           output.o
msg_usb_close                                     output.o
msg_usb_control_msg                               output.o
msg_usb_find_busses                               output.o
msg_usb_find_devices                              output.o
msg_usb_get_busses                                output.o
msg_usb_get_string_simple                         output.o
msg_usb_init                                      output.o
msg_usb_open                                      output.o
msg_usb_release_interface                         output.o
msg_usb_reset                                     output.o
msg_vpn_FreeTimer                                 output.o
msg_vpn_GetCurrentCpuId                           output.o
msg_vpn_GetPhysicalNicInfo                        output.o
msg_vpn_GetTickCount                              output.o
msg_vpn_GetVirtualNicInfo                         output.o
msg_vpn_NewTimer                                  output.o
msg_vpn_SendPhysicalNic                           output.o
msg_vpn_SendVirtualNic                            output.o
msg_vpn_SetPhysicalNicRecvCallback                output.o
msg_vpn_SetTimer                                  output.o
msg_vpn_SetVirtualNicRecvCallback                 output.o
msg_vpn_ic_rsa_sign                               output.o
msgclose                                          output.o
msgopen                                           output.o
msgpremapbuf                                      output.o
msgregister                                       output.o
msgsendbuf                                        output.o
msgsenddesc                                       output.o
msgsendint                                        output.o
msgsetfunc                                        output.o
msgunregister                                     output.o
mszReaders                                        output.o
name_cmp                                          output.o
newprocess                                        output.o
num_dom                                           output.o
num_of_available_pages                            output.o
num_of_processors                                 output.o
o2i_ECPublicKey                                   output.o
obj_cleanup_defer                                 output.o
packet_handle_command                             output.o
packet_handle_config                              output.o
packet_handle_invalid                             output.o
packet_handle_nondata                             output.o
packet_handle_rw                                  output.o
packet_handle_through                             output.o
panic                                             output.o
panic_oom                                         output.o
panic_test                                        output.o
panic_wakeup_all                                  output.o
parse_dmar_bios_report                            output.o
pci_append_device                                 output.o
pci_conceal_config_data_handler                   output.o
pci_conceal_new_device                            output.o
pci_config_addr_handler                           output.o
pci_config_data_handler                           output.o
pci_device_list_head                              output.o
pci_driver_list_head                              output.o
pci_handle_default_config_write                   output.o
pci_possible_new_device                           output.o
pci_print_device                                  output.o
pci_read_config_data16                            output.o
pci_read_config_data32                            output.o
pci_read_config_data8                             output.o
pci_read_config_data_port                         output.o
pci_register_driver                               output.o
pci_restore_config_addr                           output.o
pci_save_config_addr                              output.o
pci_write_config_data16                           output.o
pci_write_config_data32                           output.o
pci_write_config_data8                            output.o
pci_write_config_data_port                        output.o
pcpu_default                                      output.o
pcpu_init                                         output.o
pcpu_list_add                                     output.o
pcpu_list_foreach                                 output.o
pem_check_suffix                                  output.o
phys_in_vmm                                       output.o
phys_to_virt                                      output.o
pmap_autoalloc                                    output.o
pmap_clear                                        output.o
pmap_close                                        output.o
pmap_dump                                         output.o
pmap_getreadlevel                                 output.o
pmap_open_guest                                   output.o
pmap_open_vmm                                     output.o
pmap_pointer                                      output.o
pmap_read                                         output.o
pmap_seek                                         output.o
pmap_setlevel                                     output.o
pmap_write                                        output.o
policy_cache_find_data                            output.o
policy_cache_free                                 output.o
policy_cache_set                                  output.o
policy_cache_set_mapping                          output.o
policy_data_free                                  output.o
policy_data_new                                   output.o
policy_node_cmp_new                               output.o
policy_node_free                                  output.o
policy_node_match                                 output.o
prepare_for_sleep                                 output.o
printexitcode                                     output.o
printexitreason                                   output.o
printf                                            output.o
pro100_alloc_page                                 output.o
pro100_alloc_recv_buffer                          output.o
pro100_beep                                       output.o
pro100_config_read                                output.o
pro100_config_write                               output.o
pro100_exec_cu_op                                 output.o
pro100_flush                                      output.o
pro100_free_page                                  output.o
pro100_generate_int                               output.o
pro100_get_ctx                                    output.o
pro100_get_cu_command_string                      output.o
pro100_get_int_bit_string                         output.o
pro100_get_op_size                                output.o
pro100_get_ru_command_string                      output.o
pro100_get_stat_ack_string                        output.o
pro100_hook_read                                  output.o
pro100_hook_write                                 output.o
pro100_init                                       output.o
pro100_init_cu_base_addr                          output.o
pro100_init_recv_buffer                           output.o
pro100_init_ru_base_addr                          output.o
pro100_init_vpn_client                            output.o
pro100_io_handler                                 output.o
pro100_mem_read                                   output.o
pro100_mem_write                                  output.o
pro100_mm_handler                                 output.o
pro100_new                                        output.o
pro100_poll_ru                                    output.o
pro100_proc_guest_op                              output.o
pro100_read                                       output.o
pro100_read_send_packet                           output.o
pro100_send_packet_to_line                        output.o
pro100_sleep                                      output.o
pro100_wait_cu_ru_accepable                       output.o
pro100_write                                      output.o
pro100_write_recv_packet                          output.o
process_kill                                      output.o
process_syscall                                   output.o
processuser_no_sysenter                           output.o
processuser_syscall                               output.o
processuser_sysenter                              output.o
prohibit_iccard_init                              output.o
protectCurrentApplication                         output.o
ps2_locked                                        output.o
putchar                                           output.o
putchar_set_func                                  output.o
rand_ssleay_meth                                  output.o
read_gphys_b                                      output.o
read_gphys_l                                      output.o
read_gphys_q                                      output.o
read_gphys_w                                      output.o
read_hphys_b                                      output.o
read_hphys_l                                      output.o
read_hphys_q                                      output.o
read_hphys_w                                      output.o
read_linearaddr_b                                 output.o
read_linearaddr_l                                 output.o
read_linearaddr_q                                 output.o
read_linearaddr_tss                               output.o
read_linearaddr_w                                 output.o
readerState                                       output.o
readerTracker                                     output.o
realloc                                           output.o
reboot_test                                       output.o
register_status_callback                          output.o
resume_vm                                         output.o
ret_to_user32                                     output.o
ret_to_user64                                     output.o
ripemd160_block_data_order                        output.o
rsa_asn1_meths                                    output.o
rsa_pkey_meth                                     output.o
rt                                                output.o
s2i_ASN1_INTEGER                                  output.o
s2i_ASN1_OCTET_STRING                             output.o
sReaderContext                                    output.o
savemsr_index                                     output.o
savemsr_load                                      output.o
savemsr_save                                      output.o
scan_gframelist                                   output.o
schedule                                          output.o
security_storage_check_lba                        output.o
segment_init_ap                                   output.o
segment_wakeup                                    output.o
serial_getDebugChar                               output.o
serial_init_iohook                                output.o
serial_putDebugChar                               output.o
serial_putchar                                    output.o
sessionTable                                      output.o
set_int_handler                                   output.o
set_iofunc                                        output.o
setkbdled                                         output.o
shadow_and_activate_urb                           output.o
sig_app                                           output.o
sigx_app                                          output.o
sk_delete                                         output.o
sk_delete_ptr                                     output.o
sk_dup                                            output.o
sk_find                                           output.o
sk_find_ex                                        output.o
sk_free                                           output.o
sk_insert                                         output.o
sk_is_sorted                                      output.o
sk_new                                            output.o
sk_new_null                                       output.o
sk_num                                            output.o
sk_pop                                            output.o
sk_pop_free                                       output.o
sk_push                                           output.o
sk_set                                            output.o
sk_set_cmp_func                                   output.o
sk_shift                                          output.o
sk_sort                                           output.o
sk_unshift                                        output.o
sk_value                                          output.o
sk_zero                                           output.o
sleep_set_timer_counter                           output.o
slotFlag                                          output.o
slotTable                                         output.o
snprintf                                          output.o
start_all_processors                              output.o
storage_free                                      output.o
storage_get_num_hc                                output.o
storage_handle_sectors                            output.o
storage_hc_close                                  output.o
storage_hc_dev_atacommand                         output.o
storage_hc_dev_close                              output.o
storage_hc_dev_open                               output.o
storage_hc_hook_register                          output.o
storage_hc_hook_unregister                        output.o
storage_hc_open                                   output.o
storage_hc_register                               output.o
storage_hc_scandev                                output.o
storage_hc_unregister                             output.o
storage_init                                      output.o
storage_io_aget_size                              output.o
storage_io_aread                                  output.o
storage_io_awrite                                 output.o
storage_io_deinit                                 output.o
storage_io_get_num_devices                        output.o
storage_io_init                                   output.o
storage_new                                       output.o
storage_premap_buf                                output.o
storage_premap_handle_sectors                     output.o
strcmp                                            output.o
string_to_hex                                     output.o
strlen                                            output.o
svm_available                                     output.o
svm_enable_resume                                 output.o
svm_extern_iopass                                 output.o
svm_init                                          output.o
svm_init_signal                                   output.o
svm_ioio                                          output.o
svm_msr_update_lma                                output.o
svm_np_clear_all                                  output.o
svm_np_extern_mapsearch                           output.o
svm_np_init                                       output.o
svm_np_map_1mb                                    output.o
svm_np_pagefault                                  output.o
svm_np_tlbflush                                   output.o
svm_np_updatecr3                                  output.o
svm_paging_apply_fixed_cr0                        output.o
svm_paging_apply_fixed_cr4                        output.o
svm_paging_clear_all                              output.o
svm_paging_extern_flush_tlb_entry                 output.o
svm_paging_flush_guest_tlb                        output.o
svm_paging_get_gpat                               output.o
svm_paging_init                                   output.o
svm_paging_invalidate                             output.o
svm_paging_map_1mb                                output.o
svm_paging_npf                                    output.o
svm_paging_pagefault                              output.o
svm_paging_pg_change                              output.o
svm_paging_set_gpat                               output.o
svm_paging_spt_setcr3                             output.o
svm_paging_start                                  output.o
svm_paging_tlbflush                               output.o
svm_paging_updatecr3                              output.o
svm_panic_dump                                    output.o
svm_read_control_reg                              output.o
svm_read_flags                                    output.o
svm_read_gdtr                                     output.o
svm_read_general_reg                              output.o
svm_read_idtr                                     output.o
svm_read_ip                                       output.o
svm_read_msr                                      output.o
svm_read_sreg_acr                                 output.o
svm_read_sreg_base                                output.o
svm_read_sreg_limit                               output.o
svm_read_sreg_sel                                 output.o
svm_reset                                         output.o
svm_resume                                        output.o
svm_start_vm                                      output.o
svm_vmexit                                        output.o
svm_vminit                                        output.o
svm_write_control_reg                             output.o
svm_write_flags                                   output.o
svm_write_gdtr                                    output.o
svm_write_general_reg                             output.o
svm_write_idtr                                    output.o
svm_write_ip                                      output.o
svm_write_msr                                     output.o
svm_write_realmode_seg                            output.o
svm_writing_sreg                                  output.o
sx_handler                                        output.o
sym_to_phys                                       output.o
sync_all_processors                               output.o
sys_exitprocess                                   output.o
sys_msgclose                                      output.o
sys_msgopen                                       output.o
sys_msgregister                                   output.o
sys_msgret                                        output.o
sys_msgsendbuf                                    output.o
sys_msgsenddesc                                   output.o
sys_msgsendint                                    output.o
sys_msgsetfunc                                    output.o
sys_msgunregister                                 output.o
sys_newprocess                                    output.o
syscall_entry_lret                                output.o
syscall_entry_sysexit                             output.o
syscall_entry_sysret64                            output.o
tcg_measure                                       output.o
test_gpaToHPA                                     output.o
test_logicalCPUStatus                             output.o
test_start                                        output.o
test_traverseGuestPages                           output.o
thread_exit                                       output.o
thread_gettid                                     output.o
thread_new                                        output.o
thread_set_process_switch                         output.o
thread_start0                                     output.o
thread_start1                                     output.o
thread_switch                                     output.o
thread_wakeup                                     output.o
thread_will_stop                                  output.o
timer_free                                        output.o
timer_new                                         output.o
timer_set                                         output.o
traverseGuestPages                                output.o
traverseIA32ePDPT                                 output.o
traverseIA32ePDT                                  output.o
traverseIA32ePT                                   output.o
traverseIA32ePages                                output.o
tree_find_sk                                      output.o
tty_init_iohook                                   output.o
tty_putchar                                       output.o
tty_udp_register                                  output.o
ttylog_stop                                       output.o
uhci_activate_urb                                 output.o
uhci_check_advance                                output.o
uhci_check_urb_advance                            output.o
uhci_create_urb                                   output.o
uhci_current_frame_number                         output.o
uhci_deactivate_urb                               output.o
uhci_destroy_unlinked_urbs                        output.o
uhci_destroy_urb                                  output.o
uhci_dump_all                                     output.o
uhci_error_status_string                          output.o
uhci_framelist_monitor                            output.o
uhci_init                                         output.o
uhci_monitor_boost_hc                             output.o
uhci_reactivate_urb                               output.o
uhci_shadow_buffer                                output.o
uhci_submit_bulk                                  output.o
uhci_submit_control                               output.o
uhci_submit_interrupt                             output.o
unmapHPAintoHVA                                   output.o
unmapmem                                          output.o
update_mtrr_and_pat                               output.o
usb_bulk_read                                     output.o
usb_bulk_write                                    output.o
usb_busses_head                                   output.o
usb_claim_interface                               output.o
usb_clear_halt                                    output.o
usb_close                                         output.o
usb_control_msg                                   output.o
usb_find_busses                                   output.o
usb_find_devices                                  output.o
usb_get_bus                                       output.o
usb_get_busses                                    output.o
usb_get_descriptor                                output.o
usb_get_descriptor_by_endpoint                    output.o
usb_get_descriptor_early                          output.o
usb_get_string                                    output.o
usb_get_string_simple                             output.o
usb_hc_list_head                                  output.o
usb_hook_process                                  output.o
usb_hook_register                                 output.o
usb_hook_unregister                               output.o
usb_init                                          output.o
usb_init_device_monitor                           output.o
usb_interrupt_read                                output.o
usb_interrupt_write                               output.o
usb_log_level                                     output.o
usb_new_dev_handle                                output.o
usb_open                                          output.o
usb_register_host                                 output.o
usb_release_interface                             output.o
usb_reset                                         output.o
usb_resetep                                       output.o
usb_sc_lock                                       output.o
usb_sc_unlock                                     output.o
usb_set_altinterface                              output.o
usb_set_configuration                             output.o
usb_set_debug                                     output.o
usb_unregister_devices                            output.o
usbccid_init_handle                               output.o
usbhid_init_handle                                output.o
usbhub_init_handle                                output.o
usbmsc_init_handle                                output.o
use_pae                                           output.o
usleep                                            output.o
v2i_ASN1_BIT_STRING                               output.o
v2i_GENERAL_NAME                                  output.o
v2i_GENERAL_NAMES                                 output.o
v2i_GENERAL_NAME_ex                               output.o
v3_akey_id                                        output.o
v3_alt                                            output.o
v3_bcons                                          output.o
v3_cpols                                          output.o
v3_crl_hold                                       output.o
v3_crl_invdate                                    output.o
v3_crl_num                                        output.o
v3_crl_reason                                     output.o
v3_crld                                           output.o
v3_delta_crl                                      output.o
v3_ext_ku                                         output.o
v3_freshest_crl                                   output.o
v3_idp                                            output.o
v3_info                                           output.o
v3_inhibit_anyp                                   output.o
v3_key_usage                                      output.o
v3_name_constraints                               output.o
v3_ns_ia5_list                                    output.o
v3_nscert                                         output.o
v3_ocsp_accresp                                   output.o
v3_ocsp_acutoff                                   output.o
v3_ocsp_crlid                                     output.o
v3_ocsp_nocheck                                   output.o
v3_ocsp_nonce                                     output.o
v3_ocsp_serviceloc                                output.o
v3_pci                                            output.o
v3_pkey_usage_period                              output.o
v3_policy_constraints                             output.o
v3_policy_mappings                                output.o
v3_sinfo                                          output.o
v3_skey_id                                        output.o
v3_sxnet                                          output.o
vcpu_list_foreach                                 output.o
vga_fill_rect                                     output.o
vga_get_screen_size                               output.o
vga_is_ready                                      output.o
vga_register                                      output.o
vga_transfer_image                                output.o
vmctl_svm_init                                    output.o
vmctl_vt_init                                     output.o
vmm_base_cr3                                      output.o
vmm_main                                          output.o
vmm_pd                                            output.o
vmm_pd1                                           output.o
vmm_pd2                                           output.o
vmm_pdp                                           output.o
vmm_pml4                                          output.o
vmm_start_inf                                     output.o
vmm_term_inf                                      output.o
vmmcall                                           output.o
vmmcall_boot_continue                             output.o
vmmcall_boot_enable                               output.o
vmmcall_init                                      output.o
vmmcall_register                                  output.o
vmmsize                                           output.o
vpn_FreeTimer                                     output.o
vpn_GetCurrentCpuId                               output.o
vpn_GetPhysicalNicInfo                            output.o
vpn_GetTickCount                                  output.o
vpn_GetVirtualNicInfo                             output.o
vpn_NewTimer                                      output.o
vpn_SendPhysicalNic                               output.o
vpn_SendVirtualNic                                output.o
vpn_SetPhysicalNicRecvCallback                    output.o
vpn_SetTimer                                      output.o
vpn_SetVirtualNicRecvCallback                     output.o
vpn_ic_rsa_sign                                   output.o
vpn_new_nic                                       output.o
vpn_premap_PhysicalNicRecv                        output.o
vpn_premap_VirtualNicRecv                         output.o
vpn_premap_recvbuf                                output.o
vpn_start                                         output.o
vpn_user_init                                     output.o
vprintf                                           output.o
vramwrite_clearscreen                             output.o
vramwrite_exit_global                             output.o
vramwrite_get_cursor_pos                          output.o
vramwrite_init_global                             output.o
vramwrite_mark1                                   output.o
vramwrite_mark2                                   output.o
vramwrite_mark3                                   output.o
vramwrite_putchar                                 output.o
vramwrite_restore_cursor                          output.o
vramwrite_save_and_move_cursor                    output.o
vsnprintf                                         output.o
vt__vmx_init                                      output.o
vt__vmxon                                         output.o
vt_add_guest_msr                                  output.o
vt_available                                      output.o
vt_enable_resume                                  output.o
vt_ept_clear_all                                  output.o
vt_ept_extern_mapsearch                           output.o
vt_ept_init                                       output.o
vt_ept_map_1mb                                    output.o
vt_ept_tlbflush                                   output.o
vt_ept_updatecr3                                  output.o
vt_ept_violation                                  output.o
vt_extern_iopass                                  output.o
vt_generate_external_int                          output.o
vt_generate_pagefault                             output.o
vt_get_current_regs_in_vmcs                       output.o
vt_get_vmcs_regs_in_vmcs                          output.o
vt_init                                           output.o
vt_init_signal                                    output.o
vt_io                                             output.o
vt_iopass                                         output.o
vt_iopass_init                                    output.o
vt_msr_init                                       output.o
vt_msr_update_lma                                 output.o
vt_paging_apply_fixed_cr0                         output.o
vt_paging_apply_fixed_cr4                         output.o
vt_paging_clear_all                               output.o
vt_paging_extern_flush_tlb_entry                  output.o
vt_paging_flush_guest_tlb                         output.o
vt_paging_get_gpat                                output.o
vt_paging_init                                    output.o
vt_paging_invalidate                              output.o
vt_paging_map_1mb                                 output.o
vt_paging_npf                                     output.o
vt_paging_pagefault                               output.o
vt_paging_pg_change                               output.o
vt_paging_set_gpat                                output.o
vt_paging_spt_setcr3                              output.o
vt_paging_start                                   output.o
vt_paging_tlbflush                                output.o
vt_paging_updatecr3                               output.o
vt_panic_dump                                     output.o
vt_read_control_reg                               output.o
vt_read_flags                                     output.o
vt_read_gdtr                                      output.o
vt_read_general_reg                               output.o
vt_read_guest_msr                                 output.o
vt_read_idtr                                      output.o
vt_read_ip                                        output.o
vt_read_msr                                       output.o
vt_read_sreg_acr                                  output.o
vt_read_sreg_base                                 output.o
vt_read_sreg_limit                                output.o
vt_read_sreg_sel                                  output.o
vt_reset                                          output.o
vt_resume                                         output.o
vt_start_vm                                       output.o
vt_update_exception_bmp                           output.o
vt_vmexit                                         output.o
vt_vminit                                         output.o
vt_vmptrld                                        output.o
vt_write_control_reg                              output.o
vt_write_flags                                    output.o
vt_write_gdtr                                     output.o
vt_write_general_reg                              output.o
vt_write_guest_msr                                output.o
vt_write_idtr                                     output.o
vt_write_ip                                       output.o
vt_write_msr                                      output.o
vt_write_realmode_seg                             output.o
vt_writing_sreg                                   output.o
waitcycles                                        output.o
wakeup_cont                                       output.o
wakeup_entry_addr                                 output.o
wakeup_entry_cr0                                  output.o
wakeup_entry_cr3                                  output.o
wakeup_entry_cr4                                  output.o
wakeup_entry_end                                  output.o
wakeup_entry_gdtr                                 output.o
wakeup_entry_start                                output.o
wakeup_init                                       output.o
wakeup_main                                       output.o
whirlpool_block                                   output.o
write_gphys_b                                     output.o
write_gphys_l                                     output.o
write_gphys_q                                     output.o
write_gphys_w                                     output.o
write_hphys_b                                     output.o
write_hphys_l                                     output.o
write_hphys_q                                     output.o
write_hphys_w                                     output.o
write_linearaddr_b                                output.o
write_linearaddr_l                                output.o
write_linearaddr_ok_b                             output.o
write_linearaddr_ok_l                             output.o
write_linearaddr_ok_w                             output.o
write_linearaddr_q                                output.o
write_linearaddr_tss                              output.o
write_linearaddr_w                                output.o
x509_name_ff                                      output.o
