
Allocating common symbols
Common symbol       size              file

clflush_size        0x4               output.o
sReaderContext      0x60              output.o
sigx_app            0x8               output.o
num_dom             0x4               output.o
mszReaders          0x400             output.o
prohibit_iccard_init
                    0x4               output.o
curthread           0x8               output.o
sig_app             0x8               output.o
readerState         0x64              output.o
dom_io              0x800             output.o
acpi_dsdt_system_state
                    0x1e              output.o
ehci_host           0x8               output.o
num_of_processors   0x4               output.o
e801_fake_bx        0x2               output.o
iommu_detected      0x1               output.o
dwReaders           0x8               output.o
readerTracker       0x140             output.o
handler_descriptor_lock
                    0x1               output.o
e801_fake_ax        0x2               output.o

Discarded input sections

 .gomi          0x0000000000000000        0xe output.o

Memory Configuration

Name             Origin             Length             Attributes
*default*        0x0000000000000000 0xffffffffffffffff

Linker script and memory map

                0x0000000040100000                virt = 0x40100000
                0x0000000000100000                phys = 0x100000
                0x0000000040100000                . = virt
                0x0000000040100000                head = .
                0x00000000401000b0                . = (virt + SIZEOF_HEADERS)

.text           0x0000000040101000   0x111f16 load address 0x0000000000101000
                0x0000000040101000                code = .
 *(.entry)
 .entry         0x0000000040101000     0x6000 output.o
                0x000000004010100c                entry
                0x000000004010109a                cpuinit_start
                0x00000000401012c8                vmm_base_cr3
                0x00000000401012e0                apinit_procs
                0x00000000401012e8                apinit_lock
                0x00000000401012f0                cpuinit_end
                0x0000000040103000                entry_pdp
                0x0000000040104000                entry_pd0
                0x0000000040105000                entry_pd
 *(.text)
 .text          0x0000000040107000   0x10bf16 output.o
                0x000000004010766c                acpi_smi_hook
                0x00000000401076ba                acpi_iohook
                0x000000004010770c                acpi_reset
                0x0000000040107808                acpi_poweroff
                0x0000000040107841                get_acpi_time_raw
                0x000000004010c811                acpi_dsdt_parse
                0x000000004010ccea                apinitproc0
                0x000000004010cd13                apic_available
                0x000000004010cd3f                ap_start_addr
                0x000000004010cf82                panic_wakeup_all
                0x000000004010d006                disable_apic
                0x000000004010d07d                sync_all_processors
                0x000000004010d10d                start_all_processors
                0x000000004010d14c                assertion_failed
                0x000000004010d185                beep_set_freq
                0x000000004010d1b6                beep_on
                0x000000004010d1c6                beep_off
                0x000000004010d80d                update_mtrr_and_pat
                0x000000004010da52                cache_get_gpat
                0x000000004010daa8                cache_set_gpat
                0x000000004010daf2                cache_get_attr
                0x000000004010db98                cache_get_gmtrr_type
                0x000000004010dba3                cache_get_gmtrr_attr
                0x000000004010dbb6                cache_get_gmtrrcap
                0x000000004010dbe4                cache_get_gmtrr
                0x000000004010dd3d                cache_set_gmtrr
                0x000000004010dd97                cache_get_gmsr_amd
                0x000000004010dde7                cache_set_gmsr_amd
                0x000000004010e22b                callrealmode_endofcodeaddr
                0x000000004010e23c                callrealmode_usevcpu
                0x000000004010e249                callrealmode_printmsg
                0x000000004010e266                callrealmode_getsysmemmap
                0x000000004010e2bd                callrealmode_getshiftflags
                0x000000004010e2db                callrealmode_setvideomode
                0x000000004010e2f9                callrealmode_reboot
                0x000000004010e313                callrealmode_tcgbios
                0x000000004010e3a7                callrealmode_disk_readmbr
                0x000000004010e3e7                callrealmode_disk_readlba
                0x000000004010e42f                callrealmode_bootcd_getstatus
                0x000000004010e484                callrealmode_setcursorpos
                0x000000004010e4a9                callrealmode_startkernel32
                0x000000004010e4c9                callrealmode_getfontinfo
                0x000000004010e539                get_cpu_id
                0x000000004010e54d                cpu_emul_cpuid
                0x000000004010e601                cpu_emul_rdmsr
                0x000000004010e67a                cpu_emul_wrmsr
                0x000000004010e6f0                cpu_emul_hlt
                0x000000004010e708                cpu_emul_cli
                0x000000004010e741                cpu_emul_sti
                0x000000004010e788                cpu_emul_realmode_int
                0x000000004010e8ea                cpu_emul_xsetbv
                0x00000000401110f8                cpu_interpreter
                0x0000000040113420                cpu_mmu_get_pte
                0x0000000040113bb5                write_linearaddr_ok_b
                0x0000000040113bd7                write_linearaddr_ok_w
                0x0000000040113be2                write_linearaddr_ok_l
                0x0000000040113bed                write_linearaddr_b
                0x0000000040113c5b                write_linearaddr_w
                0x0000000040113cf3                write_linearaddr_l
                0x0000000040113d89                write_linearaddr_q
                0x0000000040113e1d                read_linearaddr_b
                0x0000000040113e8a                read_linearaddr_w
                0x0000000040113f1b                read_linearaddr_l
                0x0000000040113fac                read_linearaddr_q
                0x000000004011403d                read_linearaddr_tss
                0x00000000401140d0                write_linearaddr_tss
                0x000000004011802f                cpu_mmu_spt_tlbflush
                0x000000004011806a                cpu_mmu_spt_updatecr3
                0x000000004011830a                cpu_mmu_spt_invalidate
                0x0000000040118392                cpu_mmu_spt_pagefault
                0x0000000040118589                cpu_mmu_spt_extern_mapsearch
                0x00000000401186c8                cpu_mmu_spt_map_1mb
                0x000000004011887c                cpu_mmu_spt_clear_all
                0x00000000401189dd                cpu_mmu_spt_init
                0x0000000040118ff1                cpu_seg_read_b
                0x000000004011905e                cpu_seg_read_w
                0x00000000401190cb                cpu_seg_read_l
                0x0000000040119138                cpu_seg_read_q
                0x00000000401191a5                cpu_seg_write_b
                0x0000000040119213                cpu_seg_write_w
                0x0000000040119281                cpu_seg_write_l
                0x00000000401192ee                cpu_seg_write_q
                0x000000004011935b                cpu_stack_get
                0x00000000401193c5                cpu_stack_set
                0x000000004011945a                cpu_stack_push
                0x0000000040119506                cpu_stack_pop
                0x00000000401195f1                call_cpuid
                0x00000000401199aa                debug_addstr
                0x00000000401199b0                debug_gdb
                0x00000000401199b6                debug_iohook
                0x00000000401199bc                debug_msgregister
                0x00000000401199ec                debug_msgunregister
                0x0000000040119a89                do_exint_pass
                0x0000000040119b1d                read_gphys_b
                0x0000000040119b8f                write_gphys_b
                0x0000000040119c12                read_gphys_w
                0x0000000040119caf                write_gphys_w
                0x0000000040119d60                read_gphys_l
                0x0000000040119dfd                write_gphys_l
                0x0000000040119eb1                read_gphys_q
                0x0000000040119f4e                write_gphys_q
                0x0000000040119fff                cmpxchg_gphys_l
                0x000000004011a0bd                cmpxchg_gphys_q
                0x000000004011a17b                gmm_pass_gp2hp
                0x000000004011a645                idman_reinit_session
                0x000000004011a6c0                idman_reinit2
                0x000000004011a6e1                get_idman_session
                0x000000004011a721                call_initfunc
                0x000000004011a786                initfunc_init
                0x000000004011c305                int_fatal
                0x000000004011c664                callfunc_and_getint
                0x000000004011c678                do_externalint_enable
                0x000000004011c68d                set_int_handler
                0x000000004011c6ac                int_exceptionHandler
                0x000000004011c6b7                int_init_ap
                0x000000004011c70d                do_io_nothing
                0x000000004011c748                set_iofunc
                0x000000004011c7ea                call_io
                0x000000004011c8d0                do_iopass_default
                0x000000004011cab6                keyboard_reset
                0x000000004011cafb                setkbdled
                0x000000004011cb4c                keyboard_flush
                0x000000004011cb66                load_bootsector
                0x000000004011cf21                copy_bootsector
                0x000000004011d1d0                localapic_wait_for_sipi
                0x000000004011d25d                localapic_change_base_msr
                0x000000004011d2a9                localapic_mmio_register
                0x000000004011dc74                resume_vm
                0x000000004011dd2e                vmm_main
                0x000000004011e0b4                getsysmemmap
                0x000000004011e13b                getfakesysmemmap
                0x000000004011e1ad                phys_to_virt
                0x000000004011e1c3                vmm_start_inf
                0x000000004011e1cf                vmm_term_inf
                0x000000004011e1e0                num_of_available_pages
                0x000000004011e253                alloc_pages
                0x000000004011e2c9                alloc_page
                0x000000004011e2d9                alloc
                0x000000004011e571                alloc2
                0x000000004011e5a9                free
                0x000000004011e6bc                realloc
                0x000000004011e808                free_page
                0x000000004011e81b                free_page_phys
                0x000000004011e83e                mempool_new
                0x000000004011e8ac                mempool_free
                0x000000004011e95d                mempool_allocmem
                0x000000004011eb42                mempool_freemem
                0x000000004011edfe                sym_to_phys
                0x000000004011ee12                phys_in_vmm
                0x000000004011ee2e                mm_force_unlock
                0x000000004011ee60                mm_process_alloc
                0x000000004011f030                mm_process_free
                0x000000004011f08d                mm_process_switch
                0x000000004011f0ab                pmap_open_vmm
                0x000000004011f0d6                pmap_open_guest
                0x000000004011f118                pmap_close
                0x000000004011f11e                pmap_getreadlevel
                0x000000004011f12a                pmap_setlevel
                0x000000004011f136                pmap_seek
                0x000000004011f1a6                pmap_read
                0x000000004011f434                pmap_write
                0x000000004011f5cc                mm_process_unmap
                0x000000004011f6b9                mm_process_unmap_stack
                0x000000004011f894                mm_process_unmapall
                0x000000004011f93b                pmap_pointer
                0x000000004011f9a6                pmap_clear
                0x000000004011fa9c                pmap_autoalloc
                0x000000004011fc49                mm_process_map_alloc
                0x000000004011fd8c                mm_process_map_shared_physpage
                0x000000004011fdf6                mm_process_map_shared
                0x0000000040120054                mm_process_map_stack
                0x00000000401208fe                pmap_dump
                0x0000000040120a16                unmapmem
                0x0000000040120af7                mapmem
                0x000000004012103e                read_hphys_b
                0x0000000040121093                write_hphys_b
                0x00000000401210c5                read_hphys_w
                0x00000000401210fc                write_hphys_w
                0x000000004012112f                read_hphys_l
                0x0000000040121164                write_hphys_l
                0x0000000040121196                read_hphys_q
                0x00000000401211cd                write_hphys_q
                0x0000000040121201                cmpxchg_hphys_l
                0x0000000040121255                cmpxchg_hphys_q
                0x00000000401212a9                alloc_realmodemem
                0x000000004012134a                mapmem_hphys
                0x0000000040121362                mapmem_gphys
                0x000000004012137a                mm_flush_wb_cache
                0x0000000040121724                mmio_access_memory
                0x0000000040121882                mmio_access_page
                0x000000004012193e                mmio_register
                0x0000000040121b8d                mmio_unregister
                0x0000000040121c14                mmio_lock
                0x0000000040121c2f                mmio_unlock
                0x0000000040121ccf                msg_findname
                0x0000000040121d3f                msg_register
                0x0000000040121e0e                msg_unregister
                0x0000000040121e89                msg_unregisterall
                0x0000000040121f14                msg_unregister2
                0x0000000040121fe1                call_read_msr
                0x0000000040121ff5                call_write_msr
                0x0000000040122291                load_minios
                0x00000000401225c2                backtrace
                0x0000000040122f18                panic
                0x000000004012341d                auto_reboot
                0x000000004012343a                panic_test
                0x000000004012345d                pcpu_list_foreach
                0x000000004012349c                pcpu_list_add
                0x00000000401234f0                pcpu_init
                0x000000004012407a                vprintf
                0x00000000401240b5                printf
                0x00000000401240f3                vsnprintf
                0x0000000040124137                snprintf
                0x0000000040124373                sys_msgsetfunc
                0x0000000040124420                sys_msgclose
                0x000000004012443d                sys_msgret
                0x0000000040124529                sys_msgregister
                0x000000004012475a                sys_msgsenddesc
                0x0000000040124f6c                sys_msgsendint
                0x000000004012529c                sys_newprocess
                0x00000000401252fd                sys_msgunregister
                0x0000000040125389                sys_exitprocess
                0x00000000401253de                sys_msgsendbuf
                0x0000000040125539                sys_msgopen
                0x000000004012559a                process_kill
                0x00000000401255fb                msgsetfunc
                0x0000000040125610                msgregister
                0x0000000040125626                msgopen
                0x0000000040125639                msgclose
                0x000000004012564b                msgsendint
                0x000000004012565f                msgsenddesc
                0x0000000040125673                newprocess
                0x0000000040125686                msgsendbuf
                0x00000000401256a0                msgunregister
                0x00000000401256d0                exitprocess
                0x00000000401256e3                msgpremapbuf
                0x00000000401257ff                process_syscall
                0x00000000401258aa                putchar
                0x00000000401258e8                putchar_set_func
                0x0000000040125bba                do_panic_reboot
                0x0000000040125c44                handle_init_to_bsp
                0x0000000040125c65                reboot_test
                0x0000000040125c94                savemsr_save
                0x0000000040125d01                savemsr_load
                0x0000000040126069                get_seg_base
                0x0000000040126125                get_seg_access_rights
                0x0000000040126145                segment_wakeup
                0x0000000040126187                segment_init_ap
                0x0000000040126426                serial_putDebugChar
                0x0000000040126438                serial_getDebugChar
                0x000000004012644d                serial_putchar
                0x00000000401264af                serial_init_iohook
                0x00000000401264f5                waitcycles
                0x0000000040126518                usleep
                0x0000000040126637                sleep_set_timer_counter
                0x000000004012679e                vmctl_svm_init
                0x0000000040126846                message_exitcode
                0x0000000040126dc9                printexitcode
                0x0000000040126df6                svm_available
                0x0000000040126ea7                svm_reset
                0x0000000040127124                svm_vminit
                0x00000000401274ce                svm_vmexit
                0x00000000401274d4                svm_init
                0x000000004012761b                svm_enable_resume
                0x0000000040127720                svm_resume
                0x0000000040127872                svm_ioio
                0x000000004012797c                svm_extern_iopass
                0x0000000040127ae4                svm_init_signal
                0x0000000040127b07                svm_start_vm
                0x0000000040128620                svm_msr_update_lma
                0x0000000040128695                svm_read_msr
                0x000000004012893a                svm_write_msr
                0x0000000040128ead                svm_np_init
                0x0000000040128fa1                svm_np_pagefault
                0x0000000040128fd9                svm_np_tlbflush
                0x0000000040128fdf                svm_np_updatecr3
                0x0000000040128fea                svm_np_clear_all
                0x000000004012907d                svm_np_extern_mapsearch
                0x0000000040129106                svm_np_map_1mb
                0x0000000040129160                svm_paging_extern_flush_tlb_entry
                0x0000000040129187                svm_paging_map_1mb
                0x00000000401291b1                svm_paging_flush_guest_tlb
                0x00000000401291f0                svm_paging_init
                0x000000004012930e                svm_paging_pagefault
                0x000000004012933a                svm_paging_tlbflush
                0x0000000040129361                svm_paging_invalidate
                0x000000004012938f                svm_paging_npf
                0x00000000401293bb                svm_paging_updatecr3
                0x00000000401293e7                svm_paging_spt_setcr3
                0x000000004012941b                svm_paging_clear_all
                0x0000000040129447                svm_paging_get_gpat
                0x0000000040129452                svm_paging_set_gpat
                0x0000000040129493                svm_paging_apply_fixed_cr0
                0x00000000401294b6                svm_paging_apply_fixed_cr4
                0x00000000401294da                svm_paging_pg_change
                0x00000000401294e0                svm_paging_start
                0x00000000401294f2                svm_panic_dump
                0x00000000401295c0                svm_read_general_reg
                0x00000000401296fc                svm_write_general_reg
                0x0000000040129808                svm_read_control_reg
                0x00000000401298a3                svm_write_control_reg
                0x000000004012997f                svm_read_sreg_sel
                0x0000000040129a40                svm_read_sreg_acr
                0x0000000040129b1b                svm_read_sreg_base
                0x0000000040129c37                svm_read_sreg_limit
                0x0000000040129d48                svm_read_ip
                0x0000000040129d67                svm_write_ip
                0x0000000040129d8d                svm_read_flags
                0x0000000040129dac                svm_write_flags
                0x0000000040129dc8                svm_read_gdtr
                0x0000000040129dff                svm_write_gdtr
                0x0000000040129e28                svm_read_idtr
                0x0000000040129e5f                svm_write_idtr
                0x0000000040129e88                svm_write_realmode_seg
                0x0000000040129fc7                svm_writing_sreg
                0x000000004012a0de                int1a_TCG_StatusCheck
                0x000000004012a191                int1a_TCG_HashLogExtendEvent
                0x000000004012a21c                int1a_TCG_PassThroughToTPM
                0x000000004012a2a7                int1a_TCG_HashLogEvent
                0x000000004012a328                int1a_TCG_HashAll
                0x000000004012a3e0                int1a_TCG_TSS
                0x000000004012a46b                int1a_TCG_CompactHashLogExtendEvent
                0x000000004012a4cc                tcg_measure
                0x000000004012a7c5                thread_gettid
                0x000000004012a7da                schedule
                0x000000004012aa20                thread_new
                0x000000004012ab4d                thread_wakeup
                0x000000004012ac32                thread_will_stop
                0x000000004012acaa                thread_exit
                0x000000004012ad4e                thread_start1
                0x000000004012ad6c                thread_set_process_switch
                0x000000004012af14                get_cpu_time
                0x000000004012afe7                get_acpi_time
                0x000000004012b098                get_time
                0x000000004012b275                timer_new
                0x000000004012b2f6                timer_set
                0x000000004012b3ec                timer_free
                0x000000004012b5de                tty_putchar
                0x000000004012b768                ttylog_stop
                0x000000004012b778                tty_udp_register
                0x000000004012b7bc                tty_init_iohook
                0x000000004012b7e3                vcpu_list_foreach
                0x000000004012b822                load_new_vcpu
                0x000000004012b8e4                vga_register
                0x000000004012b958                vga_is_ready
                0x000000004012b9b8                vga_transfer_image
                0x000000004012ba06                vga_fill_rect
                0x000000004012ba41                vga_get_screen_size
                0x000000004012bb65                vmmcall
                0x000000004012bbbe                vmmcall_register
                0x000000004012bbfb                vmmcall_init
                0x000000004012bfa5                vmmcall_boot_continue
                0x000000004012bff0                vmmcall_boot_enable
                0x000000004012c877                register_status_callback
                0x000000004012c96c                vramwrite_clearscreen
                0x000000004012c9ce                vramwrite_putchar
                0x000000004012cba5                vramwrite_mark1
                0x000000004012cbe6                vramwrite_mark2
                0x000000004012cc2e                vramwrite_mark3
                0x000000004012cc77                vramwrite_save_and_move_cursor
                0x000000004012ccae                vramwrite_restore_cursor
                0x000000004012ccc0                vramwrite_get_cursor_pos
                0x000000004012cd0e                vramwrite_init_global
                0x000000004012cd1b                vramwrite_exit_global
                0x000000004012cdce                vt_generate_pagefault
                0x000000004012ce57                vt_generate_external_int
                0x000000004012cea9                vmctl_vt_init
                0x000000004012cf51                vt_vmptrld
                0x000000004012d262                vt_ept_init
                0x000000004012d35e                vt_ept_violation
                0x000000004012d3e0                vt_ept_tlbflush
                0x000000004012d3e6                vt_ept_updatecr3
                0x000000004012d4d8                vt_ept_clear_all
                0x000000004012d56b                vt_ept_extern_mapsearch
                0x000000004012d5f4                vt_ept_map_1mb
                0x000000004012d646                message_exitreason
                0x000000004012d7ac                printexitreason
                0x000000004012e03e                vt_available
                0x000000004012e0dd                vt__vmx_init
                0x000000004012e125                vt__vmxon
                0x000000004012e1d2                vt_vminit
                0x000000004012e22e                vt_vmexit
                0x000000004012e248                vt_init
                0x000000004012e258                vt_enable_resume
                0x000000004012e391                vt_resume
                0x000000004012e525                vt_io
                0x000000004012e646                vt_iopass_init
                0x000000004012e7db                vt_iopass
                0x000000004012e81e                vt_extern_iopass
                0x000000004012f44e                vt_update_exception_bmp
                0x000000004012fa79                vt_init_signal
                0x000000004012fa84                vt_start_vm
                0x000000004012fe5a                vt_add_guest_msr
                0x000000004012ffb2                vt_read_guest_msr
                0x000000004012ffe5                vt_write_guest_msr
                0x0000000040130015                vt_msr_update_lma
                0x00000000401300ed                vt_read_msr
                0x0000000040130393                vt_write_msr
                0x0000000040130651                vt_msr_init
                0x0000000040130853                vt_paging_extern_flush_tlb_entry
                0x00000000401308b7                vt_paging_map_1mb
                0x00000000401308d7                vt_paging_flush_guest_tlb
                0x0000000040130937                vt_paging_pagefault
                0x000000004013096c                vt_paging_tlbflush
                0x0000000040130989                vt_paging_invalidate
                0x00000000401309bc                vt_paging_npf
                0x00000000401309f1                vt_paging_updatecr3
                0x0000000040130a21                vt_paging_spt_setcr3
                0x0000000040130a4c                vt_paging_clear_all
                0x0000000040130a7f                vt_paging_get_gpat
                0x0000000040130a8a                vt_paging_set_gpat
                0x0000000040130ade                vt_paging_apply_fixed_cr0
                0x0000000040130b46                vt_paging_apply_fixed_cr4
                0x0000000040130b8e                vt_paging_pg_change
                0x0000000040130d0e                vt_paging_init
                0x0000000040130d89                vt_paging_start
                0x0000000040130db6                vt_panic_dump
                0x0000000040130f60                vt_read_general_reg
                0x0000000040131081                vt_write_general_reg
                0x0000000040131175                vt_read_control_reg
                0x00000000401311e3                vt_read_sreg_sel
                0x00000000401312ec                vt_read_sreg_acr
                0x0000000040131343                vt_read_sreg_base
                0x00000000401313c5                vt_read_sreg_limit
                0x0000000040131442                vt_read_ip
                0x0000000040131450                vt_write_ip
                0x0000000040131470                vt_read_flags
                0x0000000040131496                vt_write_flags
                0x00000000401314c1                vt_read_gdtr
                0x00000000401314d6                vt_write_gdtr
                0x00000000401314eb                vt_read_idtr
                0x000000004013152f                vt_write_idtr
                0x0000000040131565                vt_write_control_reg
                0x0000000040131a38                vt_get_current_regs_in_vmcs
                0x0000000040131cc3                vt_get_vmcs_regs_in_vmcs
                0x0000000040131e40                vt_write_realmode_seg
                0x0000000040131f89                vt_writing_sreg
                0x0000000040132012                vt_reset
                0x00000000401322f0                prepare_for_sleep
                0x00000000401323b1                cancel_sleep
                0x00000000401323d3                wakeup_main
                0x000000004013245b                wakeup_cont
                0x0000000040132590                wakeup_init
                0x00000000401325d9                call_xsetbv
                0x0000000040132650                mpumul_64_64
                0x0000000040132670                mpudiv_128_32
                0x0000000040132690                ipchecksum
                0x0000000040132720                asm_vmlaunch_regs_32
                0x00000000401327a0                asm_vmresume_regs_32
                0x0000000040132820                asm_vmrun_regs_32
                0x0000000040132880                asm_vmlaunch_regs_64
                0x0000000040132960                asm_vmresume_regs_64
                0x0000000040132a40                asm_vmrun_regs_64
                0x0000000040132ae1                callrealmode_start
                0x0000000040132af7                callrealmode_start2
                0x0000000040132f83                move_vmm_area32
                0x0000000040132f83                callrealmode_end
                0x0000000040132fa8                move_vmm_area64
                0x0000000040132fd0                int_handler
                0x0000000040133048                int_callfunc
                0x0000000040134000                syscall_entry_sysexit
                0x000000004013402c                syscall_entry_lret
                0x000000004013405c                ret_to_user32
                0x0000000040134068                syscall_entry_sysret64
                0x00000000401340b0                ret_to_user64
                0x0000000040135000                processuser_sysenter
                0x0000000040136000                processuser_no_sysenter
                0x0000000040137000                processuser_syscall
                0x0000000040138140                memset
                0x00000000401381c0                memcpy
                0x0000000040138200                strcmp
                0x0000000040138240                memcmp
                0x0000000040138280                strlen
                0x0000000040138298                sx_handler
                0x00000000401382f0                thread_switch
                0x0000000040138310                thread_start0
                0x000000004013834a                get_guest_cr3_value
                0x0000000040138358                get_guest_eptp_value
                0x0000000040138366                monitor_vmcs_read
                0x000000004013836f                monitor_vmcs_write
                0x0000000040138378                hypercall_handler
                0x0000000040138397                get_page_table_base_GPA
                0x00000000401383ad                get_ept_base_HPA
                0x00000000401383c3                traverseGuestPages
                0x00000000401383ce                saveSystemCallHandlerAddress
                0x000000004013840f                getSystemCallHandlerGPA
                0x000000004013841c                save_guest_status
                0x000000004013872f                clear_guest_status
                0x0000000040138a1d                restore_guest_status
                0x0000000040138d37                getTSSGVA
                0x0000000040138d47                getKernelESPGVA
                0x0000000040138da6                closePage
                0x0000000040138db1                allocateNewVMID
                0x0000000040138dc7                allocateNewAppID
                0x0000000040138ddf                allocateNewApplicationIdentifiers
                0x0000000040138e09                getMemoryOwnershipTableIndex
                0x0000000040138e16                changePageStatus
                0x0000000040138eff                openPage
                0x0000000040138f7f                getMemoryOwnershipTableEntry
                0x0000000040138fb7                initializeNewProtectedApplication
                0x0000000040138fed                protectCurrentApplication
                0x000000004013904e                getCurrentProtectedApplication
                0x00000000401390a3                traverseIA32ePages
                0x00000000401392e2                traverseIA32ePDPT
                0x0000000040139487                traverseIA32ePDT
                0x00000000401395a6                traverseIA32ePT
                0x0000000040139646                gvaToGPA
                0x000000004013984b                mapHPAintoHVA
                0x0000000040139871                gpaToHPA
                0x00000000401399f6                unmapHPAintoHVA
                0x0000000040139a01                test_start
                0x0000000040139a4d                test_gpaToHPA
                0x0000000040139a86                test_traverseGuestPages
                0x0000000040139ac3                test_logicalCPUStatus
                0x0000000040139af0                core_init
                0x0000000040139b01                core_mm_read_guest_phys
                0x0000000040139b7b                core_mm_write_guest_phys
                0x0000000040139bf5                alloc_handler_descriptor
                0x0000000040139c05                core_io_modify_handler
                0x0000000040139cc6                core_io_unregister_handler
                0x0000000040139d4d                core_io_handle_default
                0x0000000040139fe5                panic_oom
                0x0000000040139ff8                core_io_register_handler
                0x000000004013a140                matched_drhd_u
                0x000000004013a19e                parse_dmar_bios_report
                0x000000004013a1e9                ieee1394_init
                0x000000004013a222                iommu_setup
                0x000000004013a228                iodom_init
                0x000000004013a3f8                add_remap
                0x000000004013a482                create_dom
                0x000000004013a7b1                pci_conceal_new_device
                0x000000004013ab87                pci_conceal_config_data_handler
                0x000000004013abac                pci_save_config_addr
                0x000000004013abbe                pci_restore_config_addr
                0x000000004013abd0                pci_append_device
                0x000000004013ac02                pci_config_data_handler
                0x000000004013af35                pci_config_addr_handler
                0x000000004013af7e                pci_register_driver
                0x000000004013b01d                pci_read_config_data8
                0x000000004013b063                pci_read_config_data16
                0x000000004013b0aa                pci_read_config_data32
                0x000000004013b0f0                pci_write_config_data8
                0x000000004013b136                pci_write_config_data16
                0x000000004013b17d                pci_write_config_data32
                0x000000004013b1c3                pci_read_config_data_port
                0x000000004013b1f5                pci_write_config_data_port
                0x000000004013b22b                pci_handle_default_config_write
                0x000000004013b25e                pci_print_device
                0x000000004013b5c9                pci_possible_new_device
                0x000000004013b5f1                security_storage_check_lba
                0x000000004013e926                ahci_new
                0x000000004013ebb0                ahci_config_read
                0x000000004013ec17                ahci_config_write
                0x000000004013eecf                ata_bm_handle_command
                0x000000004013f006                ata_bm_handle_status
                0x000000004013f0b7                ata_bm_handle_prd_table
                0x000000004013f1b6                ata_bm_handler
                0x000000004013f2b9                ata_get_cmd_type
                0x000000004013f623                ata_handle_queued_status
                0x000000004013ffe9                ata_channel_lock
                0x0000000040140065                ata_channel_unlock
                0x000000004014008c                ata_cmdblk_handler
                0x000000004014019e                ata_ctlblk_handler
                0x0000000040140dcf                ata_ahci_mode
                0x00000000401412d5                ata_init_io_handler
                0x000000004014137a                ata_set_bm_handler
                0x00000000401413d1                ata_set_cmdblk_handler
                0x000000004014140a                ata_set_ctlblk_handler
                0x0000000040141445                ata_config_read
                0x00000000401414eb                ata_config_write
                0x0000000040141665                ata_init_vendor
                0x000000004014168c                ata_bm_handle_device_specific
                0x0000000040141790                atapi_handle_config_data
                0x00000000401419d0                atapi_handle_interrupt_reason
                0x0000000040141a16                atapi_handle_pio_identify_packet
                0x0000000040141bb0                atapi_handle_packet_data
                0x0000000040141bbb                atapi_handle_cmd_packet
                0x0000000040141c39                packet_handle_through
                0x0000000040141c6c                packet_handle_nondata
                0x0000000040141c86                packet_handle_config
                0x0000000040141cd0                packet_handle_rw
                0x0000000040141d51                packet_handle_invalid
                0x0000000040141d6b                packet_handle_command
                0x0000000040141da0                uhci_init
                0x000000004014261f                uhci_current_frame_number
                0x0000000040142640                dump_td_byvirt
                0x0000000040142819                dump_td
                0x00000000401428eb                dump_qh
                0x0000000040142ac0                dump_frame
                0x0000000040142bca                uhci_dump_all
                0x0000000040142d8c                uhci_error_status_string
                0x000000004014306b                uhci_shadow_buffer
                0x00000000401432ee                uhci_framelist_monitor
                0x000000004014526e                scan_gframelist
                0x0000000040145b1b                uhci_create_urb
                0x0000000040145c7f                uhci_destroy_urb
                0x0000000040145dac                uhci_destroy_unlinked_urbs
                0x0000000040145e81                uhci_deactivate_urb
                0x000000004014620e                uhci_activate_urb
                0x00000000401467ca                uhci_reactivate_urb
                0x0000000040146870                uhci_submit_control
                0x0000000040146ea4                uhci_submit_interrupt
                0x0000000040146f0c                uhci_submit_bulk
                0x0000000040146f74                uhci_check_urb_advance
                0x0000000040146faf                uhci_check_advance
                0x00000000401471b5                init_hframelist
                0x0000000040147491                ehci_conceal_portroute
                0x00000000401474d9                ehci_init
                0x0000000040149297                ehci_dump_qtd
                0x000000004014930a                ehci_dump_qtdm
                0x000000004014933f                ehci_dump_alist
                0x0000000040149402                ehci_dump_urblist
                0x0000000040149498                ehci_dump_urb
                0x0000000040149955                ehci_dump_async
                0x0000000040149dd6                ehci_dump_all
                0x000000004014b353                ehci_shadow_buffer
                0x000000004014b60f                get_gurb_by_address
                0x000000004014b6a5                shadow_and_activate_urb
                0x000000004014b989                ehci_deactivate_urb
                0x000000004014bb23                deactivate_and_delete_urb
                0x000000004014bd8c                ehci_check_urb_advance
                0x000000004014bf56                ehci_check_advance
                0x000000004014c1a4                ehci_shadow_async_list
                0x000000004014c2be                ehci_cleanup_urbs
                0x000000004014c42b                ehci_end_monitor_async
                0x000000004014c494                ehci_monitor_async_list
                0x000000004014cb53                ehci_submit_control
                0x000000004014d0e3                ehci_submit_bulk
                0x000000004014d0ee                ehci_submit_interrupt
                0x000000004014ec93                usbmsc_init_handle
                0x000000004014f06e                usbhub_init_handle
                0x000000004014f0e7                hub_portdevice_register
                0x000000004014f7b0                usbccid_init_handle
                0x000000004014f8d0                usb_set_debug
                0x000000004014f8dc                usb_init
                0x000000004014f8e2                usb_find_busses
                0x000000004014f9c3                usb_get_busses
                0x000000004014f9d0                usb_get_bus
                0x000000004014f9ff                usb_find_devices
                0x000000004014fa4f                usb_open
                0x000000004014fab9                usb_close
                0x000000004014fac9                usb_resetep
                0x000000004014fad4                usb_clear_halt
                0x000000004014fadf                usb_reset
                0x000000004014faea                usb_claim_interface
                0x000000004014faf8                usb_release_interface
                0x000000004014fb0a                usb_set_configuration
                0x000000004014fdb5                usb_set_altinterface
                0x0000000040150062                usb_control_msg
                0x00000000401503b1                usb_get_string
                0x00000000401506ec                usb_get_string_simple
                0x00000000401508ec                usb_get_descriptor
                0x0000000040150c2d                usb_get_descriptor_early
                0x0000000040150f76                usb_get_descriptor_by_endpoint
                0x00000000401512bc                usb_bulk_write
                0x00000000401514f0                usb_interrupt_write
                0x0000000040151722                usb_bulk_read
                0x00000000401519de                usb_interrupt_read
                0x0000000040151c9d                usb_register_host
                0x0000000040151db8                usb_unregister_devices
                0x0000000040151dea                usb_sc_lock
                0x0000000040151e62                usb_sc_unlock
                0x0000000040152578                free_config_descriptors
                0x00000000401526c9                free_device
                0x0000000040152835                handle_connect_status
                0x0000000040152930                handle_port_reset
                0x0000000040152a11                dprintf_port
                0x00000000401539b9                usb_init_device_monitor
                0x0000000040153a23                usb_new_dev_handle
                0x0000000040153ad4                usbhid_init_handle
                0x0000000040153c0a                usb_hook_process
                0x0000000040153f0a                usb_hook_register
                0x0000000040153fe4                usb_hook_unregister
                0x0000000040154068                _dprintf
                0x00000000401540b5                _dprintft
                0x0000000040154168                pro100_io_handler
                0x0000000040154173                pro100_config_read
                0x0000000040154188                pro100_config_write
                0x00000000401542b2                pro100_init
                0x00000000401542cc                pro100_init_vpn_client
                0x000000004015430b                pro100_sleep
                0x000000004015433b                pro100_beep
                0x0000000040154365                pro100_get_ctx
                0x0000000040154408                pro100_alloc_page
                0x0000000040154442                pro100_free_page
                0x0000000040154467                pro100_get_op_size
                0x00000000401544aa                pro100_mem_read
                0x0000000040154520                pro100_read_send_packet
                0x0000000040154732                pro100_mem_write
                0x00000000401547a6                pro100_write
                0x0000000040154819                pro100_read
                0x0000000040154898                pro100_wait_cu_ru_accepable
                0x00000000401548d3                pro100_init_cu_base_addr
                0x0000000040154933                pro100_init_ru_base_addr
                0x0000000040154993                pro100_flush
                0x00000000401549ae                pro100_exec_cu_op
                0x0000000040154af2                pro100_send_packet_to_line
                0x0000000040154c2f                pro100_generate_int
                0x0000000040154c5f                pro100_write_recv_packet
                0x0000000040154ddb                pro100_proc_guest_op
                0x0000000040154fe6                pro100_get_int_bit_string
                0x000000004015505c                pro100_get_stat_ack_string
                0x00000000401550c7                pro100_get_cu_command_string
                0x0000000040155149                pro100_get_ru_command_string
                0x0000000040155193                pro100_init_recv_buffer
                0x00000000401552ca                pro100_poll_ru
                0x00000000401553c5                pro100_hook_write
                0x000000004015568b                pro100_hook_read
                0x0000000040155842                pro100_mm_handler
                0x0000000040155996                pro100_alloc_recv_buffer
                0x0000000040155a03                pro100_new
                0x0000000040157c53                storage_premap_buf
                0x0000000040157c5e                storage_premap_handle_sectors
                0x0000000040157f92                storage_get_num_hc
                0x0000000040157fc4                storage_hc_open
                0x00000000401580b8                storage_hc_close
                0x0000000040158102                storage_hc_hook_register
                0x0000000040158179                storage_hc_hook_unregister
                0x0000000040158213                storage_hc_register
                0x00000000401583f1                storage_hc_unregister
                0x00000000401584fa                storage_hc_scandev
                0x0000000040158541                storage_hc_dev_open
                0x000000004015867e                storage_hc_dev_atacommand
                0x0000000040158855                storage_hc_dev_close
                0x000000004015891d                storage_io_init
                0x0000000040158932                storage_io_deinit
                0x000000004015893d                storage_io_get_num_devices
                0x00000000401589fb                storage_io_aget_size
                0x0000000040158b6d                storage_io_aread
                0x0000000040158dae                storage_io_awrite
                0x000000004015954b                storage_handle_sectors
                0x000000004015975d                storage_new
                0x0000000040159baa                storage_free
                0x0000000040159bb5                storage_init
                0x0000000040159dd9                aes_xts_init
                0x0000000040159e10                crypto_find
                0x0000000040159e67                crypto_register
                0x0000000040159eb7                crypto_init
                0x0000000040159f05                crypto_none_init
                0x0000000040159f3a                vpn_GetCurrentCpuId
                0x0000000040159f45                vpn_GetTickCount
                0x0000000040159f75                vpn_NewTimer
                0x0000000040159f8f                vpn_SetTimer
                0x0000000040159fa3                vpn_FreeTimer
                0x0000000040159fae                vpn_GetPhysicalNicInfo
                0x0000000040159fbd                vpn_SendPhysicalNic
                0x0000000040159fcc                vpn_SetPhysicalNicRecvCallback
                0x0000000040159fdb                vpn_GetVirtualNicInfo
                0x0000000040159feb                vpn_SendVirtualNic
                0x0000000040159ffb                vpn_SetVirtualNicRecvCallback
                0x000000004015a00b                vpn_premap_PhysicalNicRecv
                0x000000004015a024                vpn_premap_VirtualNicRecv
                0x000000004015a03d                vpn_premap_recvbuf
                0x000000004015a048                vpn_ic_rsa_sign
                0x000000004015a0e1                vpn_new_nic
                0x000000004015a6f9                msg_vpn_GetCurrentCpuId
                0x000000004015a713                msg_vpn_ic_rsa_sign
                0x000000004015a7bf                msg_vpn_GetTickCount
                0x000000004015a7fd                msg_vpn_GetPhysicalNicInfo
                0x000000004015a861                msg_vpn_SendPhysicalNic
                0x000000004015a916                msg_vpn_SetPhysicalNicRecvCallback
                0x000000004015a962                msg_vpn_GetVirtualNicInfo
                0x000000004015a9c6                msg_vpn_SendVirtualNic
                0x000000004015aa7b                msg_vpn_SetVirtualNicRecvCallback
                0x000000004015aac7                msg_vpn_NewTimer
                0x000000004015ab29                msg_vpn_SetTimer
                0x000000004015abfe                msg_vpn_FreeTimer
                0x000000004015ac67                vpn_start
                0x000000004015afe0                vpn_user_init
                0x000000004015b040                SeFreeConfigEntryList
                0x000000004015b09d                SeGetConfigEntry
                0x000000004015b10e                SeGetConfigStr
                0x000000004015b139                SeGetConfigBin
                0x000000004015b161                SeGetConfigInt64
                0x000000004015b186                SeGetConfigInt
                0x000000004015b1b1                SeGetConfigBool
                0x000000004015b260                SeIsSplitChar
                0x000000004015b2db                SeGetKeyAndValue
                0x000000004015b471                SeLoadConfigEntryListFromBuf
                0x000000004015b5e9                SeLoadConfigEntryList
                0x000000004015b620                SePKeyPasswordCallbackFunction
                0x000000004015b652                SeDhFree
                0x000000004015b68c                SeRsaVerifyWithPadding
                0x000000004015b75e                SeRsaSignWithPadding
                0x000000004015b818                SeRsaPublicDecrypt
                0x000000004015b8af                SeRsaPrivateEncrypt
                0x000000004015b946                SeRsaPrivateDecrypt
                0x000000004015b9d5                SeRsaPublicEncrypt
                0x000000004015ba64                SeGetCertSha1
                0x000000004015baa6                SeGetCertMd5
                0x000000004015bae8                SeBinToBigNum
                0x000000004015bb2b                SeDhCompute
                0x000000004015bbb1                SeBufToBigNum
                0x000000004015bbd1                SeBigNumToBuf
                0x000000004015bc5a                SeDhNew
                0x000000004015bd17                SeDhNewGroup2
                0x000000004015bd2c                SeRsaPublicToBuf
                0x000000004015bd71                SeRsaPublicToBin
                0x000000004015bdc8                SeRsaPublicSize
                0x000000004015be2d                SeCheckSignature
                0x000000004015be58                SeGetKeyFromCert
                0x000000004015be97                SeCompareCert
                0x000000004015bec2                SeCheckCertAndKey
                0x000000004015beed                SeIsBase64
                0x000000004015bf74                SeFreePKey
                0x000000004015bf85                SeFreeKey
                0x000000004015bfad                SeCheckCert
                0x000000004015bff9                SeIsCertSignedByCert
                0x000000004015c058                SeBioToKey
                0x000000004015c159                SeGetCertIssuerName
                0x000000004015c1e9                SeGetCertSubjectName
                0x000000004015c279                SeFreeX509
                0x000000004015c28a                SeFreeCert
                0x000000004015c2b8                SeFreeBio
                0x000000004015c2c9                SeNewBio
                0x000000004015c2dc                SeRsaGen
                0x000000004015c435                SeKeyToBio
                0x000000004015c530                SeCertToBio
                0x000000004015c58a                SeBioToBuf
                0x000000004015c61a                SeBigNumToStr
                0x000000004015c687                SeKeyToBuf
                0x000000004015c6da                SeX509ToCert
                0x000000004015c783                SeBioToCert
                0x000000004015c7cc                SeSaveKey
                0x000000004015c821                SeCertToBuf
                0x000000004015c874                SeSaveCert
                0x000000004015c8c5                SeBufToBio
                0x000000004015c922                SeBufToCert
                0x000000004015c969                SeCloneCert
                0x000000004015c9b4                SeLoadCert
                0x000000004015c9f5                SeBufToKey
                0x000000004015ca46                SeCloneKey
                0x000000004015caa2                SeLoadKey
                0x000000004015cb43                SeSha1
                0x000000004015cb64                SeMacSha1
                0x000000004015cccc                SeMacSha196
                0x000000004015cd13                SeHashForSignBySHA1
                0x000000004015cdb3                SeRsaVerifyWithSha1
                0x000000004015ce5e                SeRsaSignWithSha1
                0x000000004015cef4                SeMd5
                0x000000004015cf15                SeDes3Encrypt
                0x000000004015cf9e                SeDes3Decrypt
                0x000000004015d027                SeDesNewKeyValue
                0x000000004015d07c                SeDes3NewKey
                0x000000004015d0e9                SeDesNewKey
                0x000000004015d0fa                SeDesRandKeyValue
                0x000000004015d116                SeDes3RandKey
                0x000000004015d15f                SeDesRandKey
                0x000000004015d1a9                SeDesFreeKeyValue
                0x000000004015d1d1                SeDes3FreeKey
                0x000000004015d20b                SeDesFreeKey
                0x000000004015d216                SeRand
                0x000000004015d22b                SeRand64
                0x000000004015d247                SeRand32
                0x000000004015d262                SeRand16
                0x000000004015d27e                SeRand8
                0x000000004015d29a                SeRand1
                0x000000004015d2ad                SeInitCrypto
                0x000000004015d2ec                SeFreeCrypto
                0x000000004015d300                SeIkeStrToPassword
                0x000000004015d359                SeIkePhase1CryptIdToKeySize
                0x000000004015d378                SeIkePhase2CryptIdToKeySize
                0x000000004015d397                SeIkeStrToPhase1CryptId
                0x000000004015d3fd                SeIkeStrToPhase1HashId
                0x000000004015d43c                SeIkeStrToPhase2CryptId
                0x000000004015d4a7                SeIkeStrToPhase2HashId
                0x000000004015d4e6                SeIkeIsZeroIP
                0x000000004015d517                SeIkeInitIPv6Address
                0x000000004015d554                SeIkeInitIPv4Address
                0x000000004015d587                SeIkeGetIPv6Address
                0x000000004015d5a6                SeIkeGetIPv4Address
                0x000000004015d5c1                SeIkeIpAddressToStr
                0x000000004015d60b                SeIkeBuildDataPayload
                0x000000004015d647                SeIkeBuildTransformValue
                0x000000004015d705                SeIkeBuildTransformValueList
                0x000000004015d76d                SeIkeBuildTransformPayload
                0x000000004015d7eb                SeIkeBuildIdPayload
                0x000000004015d863                SeIkeBuildCertPayload
                0x000000004015d8c7                SeIkeBuildCertRequestPayload
                0x000000004015d92b                SeIkeBuildNoticePayload
                0x000000004015d9b9                SeIkeBuildDeletePayload
                0x000000004015da91                SeIkeGetFirstPayloadType
                0x000000004015dab7                SeIkeBuildPayloadList
                0x000000004015dbc3                SeIkeBuildSaPayload
                0x000000004015dc4e                SeIkeBuildProposalPayload
                0x000000004015dcfc                SeIkeBuildPayload
                0x000000004015ddd9                SeIkeGetPayload
                0x000000004015de27                SeIkeGetPayloadNum
                0x000000004015de6a                SeIkeNewPayload
                0x000000004015de88                SeIkeNewDeletePayload
                0x000000004015deb8                SeIkeNewNoticePayload
                0x000000004015df43                SeIkeNewCertRequestPayload
                0x000000004015df91                SeIkeNewCertPayload
                0x000000004015dfdf                SeIkeNewIdPayload
                0x000000004015e04c                SeIkeNewTransformPayload
                0x000000004015e08f                SeIkeNewProposalPayload
                0x000000004015e106                SeIkeNewSaPayload
                0x000000004015e133                SeIkeNewDataPayload
                0x000000004015e17c                SeIkeNewTransformValue
                0x000000004015e19d                SeIkeFreeTransformValueList
                0x000000004015e1d9                SeIkeParseTransformValueList
                0x000000004015e350                SeIkeParseTransformPayload
                0x000000004015e3b6                SeIkeFreeTransformPayload
                0x000000004015e3e4                SeIkeParseIdPayload
                0x000000004015e45b                SeIkeFreeIdPayload
                0x000000004015e489                SeIkeParseCertPayload
                0x000000004015e4ec                SeIkeFreeCertPayload
                0x000000004015e51a                SeIkeParseCertRequestPayload
                0x000000004015e57d                SeIkeFreeCertRequestPayload
                0x000000004015e5ab                SeIkeParseNoticePayload
                0x000000004015e669                SeIkeFreeNoticePayload
                0x000000004015e6ad                SeIkeFreeDeletePayload
                0x000000004015e6ff                SeIkeParseDeletePayload
                0x000000004015e7f8                SeIkeParseDataPayload
                0x000000004015e832                SeIkeFreeDataPayload
                0x000000004015e846                SeIkeFreePayloadList
                0x000000004015e882                SeIkeFreeSaPayload
                0x000000004015e8ae                SeIkeFreeProposalPayload
                0x000000004015e8f2                SeIkeFreePayload
                0x000000004015e998                SeIkeParsePayloadListEx
                0x000000004015eb1e                SeIkeParsePayloadList
                0x000000004015eb31                SeIkeParseSaPayload
                0x000000004015ebf4                SeIkeParseProposalPayload
                0x000000004015ec8d                SeIkeParsePayload
                0x000000004015ed85                SeIkeEncrypt
                0x000000004015ee20                SeIkeEncryptWithPadding
                0x000000004015eed1                SeIkeBuild
                0x000000004015f026                SeIkeDecrypt
                0x000000004015f0c1                SeIkeFree
                0x000000004015f0fd                SeIkeParseEx
                0x000000004015f2de                SeIkeParseHeader
                0x000000004015f2ee                SeIkeParse
                0x000000004015f2fe                SeIkeNew
                0x000000004015f370                VPN_IPsec_Client_Start
                0x000000004015f398                VPN_IPsec_Client_Stop
                0x000000004015f3a9                SeIntInit
                0x000000004015f3cc                SeIntFree
                0x000000004015f3e6                VPN_IPsec_Init
                0x000000004015f434                VPN_IPsec_Free
                0x000000004015f467                SeSysMemoryAlloc
                0x000000004015f483                SeSysMemoryReAlloc
                0x000000004015f4b1                SeSysMemoryFree
                0x000000004015f4ca                SeSysGetCurrentCpuId
                0x000000004015f4e2                SeSysNewLock
                0x000000004015f4fa                SeSysLock
                0x000000004015f513                SeSysUnlock
                0x000000004015f52c                SeSysFreeLock
                0x000000004015f545                SeSysGetTickCount
                0x000000004015f55d                SeSysNewTimer
                0x000000004015f582                SeSysSetTimer
                0x000000004015f59b                SeSysFreeTimer
                0x000000004015f5b4                SeSysGetPhysicalNicInfo
                0x000000004015f5d2                SeSysSendPhysicalNic
                0x000000004015f5f8                SeSysSetPhysicalNicRecvCallback
                0x000000004015f61b                SeSysGetVirtualNicInfo
                0x000000004015f639                SeSysSendVirtualNic
                0x000000004015f662                SeSysSetVirtualNicRecvCallback
                0x000000004015f688                SeSysSaveData
                0x000000004015f6b1                SeSysLoadData
                0x000000004015f6d9                SeSysFreeData
                0x000000004015f6f5                SeSysRsaSign
                0x000000004015f72d                SeSysLog
                0x000000004015f75b                SeRsaSign
                0x000000004015f7f0                Se4ParseIpPacketUDPv4
                0x000000004015f8d2                Se4FreeIpHeaderInfo
                0x000000004015f906                Se4IpChecksum
                0x000000004015f97a                Se4AdjustTcpMss
                0x000000004015fb0f                Se4BuildIcmpEchoPacket
                0x000000004015fbb7                Se4ParseIpPacketICMPv4
                0x000000004015fcd9                Se4IpCheckChecksum
                0x000000004015fd1a                Se4Tick
                0x000000004015fd33                Se4BroadcastMacAddress
                0x000000004015fd3e                Se4SendEthPacket
                0x000000004015fdf7                Se4SendIpFragmentNow
                0x000000004015fe20                Se4InitArpEntryList
                0x000000004015fe30                Se4FreeArpEntryList
                0x000000004015fe6c                Se4FlushArpEntryList
                0x000000004015ff19                Se4SearchArpEntryList
                0x000000004015ff9f                Se4AddArpEntryList
                0x000000004016006f                Se4SearchArpWaitList
                0x00000000401600b3                Se4InitArpWaitList
                0x00000000401600c3                Se4FreeArpWaitList
                0x00000000401600ff                Se4InsertIpWait
                0x000000004016016f                Se4InitIpWaitList
                0x000000004016017f                Se4FreeIpWait
                0x00000000401601a8                Se4FlushIpWaitList
                0x0000000040160266                Se4FreeIpWaitList
                0x00000000401602a2                Se4InitIpCombineList
                0x00000000401602b2                Se4SearchIpCombineList
                0x0000000040160318                Se4InitIpFragmentList
                0x0000000040160328                Se4InsertIpCombine
                0x0000000040160417                Se4FreeIpFragmentList
                0x0000000040160453                Se4FreeIpCombine
                0x000000004016048b                Se4FreeIpCombineList
                0x00000000401604d9                Se4FlushIpCombineList
                0x00000000401605be                Se4Free
                0x0000000040160602                Se4And
                0x0000000040160631                Se4GetNetworkAddress
                0x000000004016063c                Se4Or
                0x000000004016066b                Se4Not
                0x0000000040160695                Se4GetHostAddress
                0x00000000401606af                Se4GetBroadcastAddress
                0x00000000401606e2                Se4GenerateSubnetMask32
                0x0000000040160701                Se4IPToStr
                0x0000000040160743                Se4ZeroIP
                0x000000004016075e                Se4StrToIP
                0x00000000401607ff                Se4IPToUINT
                0x0000000040160821                Se4SendArpDoProcess
                0x0000000040160922                Se4SendArpRequest
                0x000000004016098d                Se4ProcessArpWaitList
                0x0000000040160a3d                Se4MainProc
                0x0000000040160a6e                Se4SendArpResponse
                0x0000000040160b47                Se4IsBroadcastAddress
                0x0000000040160b5b                Se4Cmp
                0x0000000040160b86                Se4CmpArpEntry
                0x0000000040160bbd                Se4CmpArpWaitEntry
                0x0000000040160bf4                Se4SendWaitingIpWait
                0x0000000040160cd5                Se4CmpIpCombineList
                0x0000000040160d52                Se4IsInSameNetwork
                0x0000000040160d97                Se4MacIpRelationKnown
                0x0000000040160e2d                Se4ParseIpPacket
                0x0000000040160f70                Se4IsZeroIP
                0x0000000040160f83                Se4Init
                0x0000000040161089                Se4CheckUnicastAddress
                0x00000000401610cc                Se4StrToIP32
                0x00000000401610de                Se4UINTToIP
                0x0000000040161100                Se4SendRawIp
                0x0000000040161250                Se4SendIpFragment
                0x000000004016136e                Se4SendIp
                0x000000004016145c                Se4SendIcmpEchoRequest
                0x00000000401614e4                Se4SendIcmpEchoResponse
                0x000000004016156c                Se4RecvIpComplete
                0x0000000040161629                Se4CombineIp
                0x0000000040161825                Se4SendIcmp
                0x00000000401618ce                Se4SendUdp
                0x00000000401619eb                Se4RecvIp
                0x0000000040161c80                Se4RecvArpRequest
                0x0000000040161d94                Se4RecvArpResponse
                0x0000000040161dcb                Se4RecvArp
                0x0000000040161e7e                Se4RecvEthPacket
                0x0000000040161efa                Se4GenerateSubnetMask
                0x0000000040161f0c                Se4IsSubnetMask
                0x0000000040161f4b                Se4IPToStr32
                0x0000000040161f70                Se6CmpIpCombineList
                0x0000000040162039                Se6CmpNdpWaitEntry
                0x000000004016209b                Se6CmpNeighborEntry
                0x00000000401620fd                Se6IsGuestNode
                0x00000000401621dc                Se6FreeIpHeaderInfo
                0x0000000040162210                Se6IpChecksum
                0x0000000040162284                Se6CalcChecksum
                0x0000000040162329                Se6BuildIcmpEchoPacket
                0x00000000401623ff                Se6ParseIpPacketUDPv6
                0x0000000040162533                Se6ParseIpPacketICMPv6
                0x000000004016275a                Se6BroadcastMacAddress
                0x0000000040162765                Se6SendEthPacket
                0x000000004016281e                Se6SendIpFragmentNow
                0x0000000040162848                Se6InitNeighborEntryList
                0x0000000040162858                Se6FreeNeighborEntryList
                0x0000000040162894                Se6FlushNeighborEntryList
                0x0000000040162941                Se6SearchNeighborEntryList
                0x0000000040162998                Se6AddNeighborEntryList
                0x0000000040162a6a                Se6SearchNdpWaitList
                0x0000000040162ab9                Se6InitNdpWaitList
                0x0000000040162ac9                Se6FreeNdpWaitList
                0x0000000040162b05                Se6InsertIpWait
                0x0000000040162b86                Se6InitIpWaitList
                0x0000000040162b96                Se6FreeIpWait
                0x0000000040162bbf                Se6SendWaitingIpWait
                0x0000000040162cce                Se6FreeIpWaitList
                0x0000000040162d0a                Se6InitIpCombineList
                0x0000000040162d1a                Se6SearchIpCombineList
                0x0000000040162dae                Se6InitIpFragmentList
                0x0000000040162dbe                Se6FreeIpFragmentList
                0x0000000040162dfa                Se6FreeIpCombine
                0x0000000040162e35                Se6FreeIpCombineList
                0x0000000040162e83                Se6Free
                0x0000000040162ed3                Se6Tick
                0x0000000040162eec                Se6FlushIpWaitList
                0x0000000040162fb0                Se6FlushIpCombineList
                0x0000000040163098                Se6InsertIpCombine
                0x00000000401631bb                Se6GenerateEui64Address
                0x000000004016320e                Se6GenerateMulticastMacAddress
                0x0000000040163245                Se6GetAllNodeMulticastAddr
                0x0000000040163271                Se6GetAllRouterMulticastAddr
                0x000000004016329d                Se6GetIPAddrType
                0x00000000401633e7                Se6CheckUnicastAddress
                0x0000000040163432                Se6And
                0x0000000040163470                Se6GetPrefixAddress
                0x000000004016347b                Se6IsInSameNetwork
                0x00000000401634ff                Se6ParseIpPacket
                0x00000000401636ca                Se6Or
                0x0000000040163708                Se6Not
                0x000000004016373c                Se6GetHostAddress
                0x000000004016376a                Se6IsNetworkPrefixAddress
                0x0000000040163797                Se6GenerateSubnetMask
                0x00000000401637fe                Se6LocalSubnet
                0x000000004016380e                Se6MacIpRelationKnown
                0x0000000040163912                Se6AddGuestNode
                0x00000000401639ce                Se6GetSoliciationMulticastAddr
                0x0000000040163a62                Se6SendIcmpNeighborSoliciation
                0x0000000040163ba2                Se6SendNeighborSoliciationDoProcess
                0x0000000040163c32                Se6ProcessNdpWaitList
                0x0000000040163ce8                Se6SendNeighborSoliciation
                0x0000000040163d5c                Se6SendRawIp
                0x0000000040163ee0                Se6SendIpFragment
                0x0000000040163ef9                Se6SendIp
                0x0000000040164058                Se6SendIcmpEchoRequest
                0x0000000040164121                Se6SendIcmpEchoResponse
                0x00000000401641ea                Se6SendIcmp
                0x00000000401642d2                Se6SendIcmpNeighborAdvertisement
                0x000000004016440b                Se6SendUdp
                0x000000004016451a                Se6SubnetMaskToInt
                0x0000000040164580                Se6SendIcmpRouterAdvertisement
                0x0000000040164739                Se6MainProc
                0x0000000040164793                Se6RecvIpComplete
                0x0000000040164ab7                Se6CombineIp
                0x0000000040164ccf                Se6RecvIp
                0x0000000040164eec                Se6RecvEthPacket
                0x0000000040164f50                Se6IsSubnetMask
                0x0000000040164fb9                Se6Cmp
                0x0000000040164fe5                Se6IsZeroIP
                0x0000000040165005                Se6IPToStr
                0x000000004016515c                Se6IPItemStrToChars
                0x0000000040165250                Se6CheckIPItemStr
                0x00000000401652be                Se6ZeroIP
                0x00000000401652de                Se6GenerateEui64GlobalAddress
                0x0000000040165390                Se6GenerateEui64LocalAddress
                0x00000000401653eb                Se6Init
                0x0000000040165554                Se6StrToIP
                0x00000000401656e2                Se6CheckSubnetLength
                0x0000000040165700                SeTimerEntryCompare
                0x0000000040165740                SeEthGetInfo
                0x0000000040165765                SeEthSendAdd
                0x0000000040165798                SeEthParseEthernetPacket
                0x00000000401658a1                SeEthGenRandMacAddress
                0x00000000401658f3                SeLoad
                0x000000004016595f                SeSave
                0x0000000040165981                SeTick
                0x0000000040165991                SeGetCurrentCpuId
                0x00000000401659a1                SeNewLock
                0x00000000401659dc                SeTimerNew
                0x0000000040165a4a                SeEthNew
                0x0000000040165b51                SeLock
                0x0000000040165b8d                SeUnlock
                0x0000000040165bb5                SeEthGetNextRecvPacket
                0x0000000040165bf1                SeTick64Internal
                0x0000000040165c46                SeInitKernel
                0x0000000040165c80                SeTick64
                0x0000000040165c9f                SeTimerAdjust
                0x0000000040165d13                SeTimerCallback
                0x0000000040165e1e                SeTimerSet
                0x0000000040165ea4                SeEthDeleteOldSenderMacList
                0x0000000040165f74                SeEthAddSenderMacList
                0x000000004016605b                SeEthSend
                0x00000000401660ee                SeEthSendAll
                0x00000000401661c4                SeEthIsSenderMacAddressExistsInList
                0x000000004016626a                SeEthNicCallback
                0x0000000040166366                SeDeleteLock
                0x000000004016638e                SeFreeKernel
                0x00000000401663a4                SeTimerFree
                0x00000000401663fe                SeEthFree
                0x00000000401664a5                SeLogArgs
                0x00000000401664d5                SeDebug
                0x000000004016651b                SeDebugBin
                0x0000000040166573                SeFatal
                0x00000000401665b9                SeInfo
                0x00000000401665ff                SeError
                0x0000000040166645                SeWarning
                0x000000004016668b                SeLog
                0x00000000401666d0                SeB64CodeToChar
                0x0000000040166716                SeB64CharToCode
                0x000000004016675a                SeIsZero
                0x00000000401667aa                SeReplaceListPointer
                0x000000004016680b                SeIsInListStr
                0x000000004016687b                SeIsInList
                0x00000000401668c6                SeCompareStr
                0x00000000401668e9                SeSetSortFlag
                0x00000000401668f7                SeSetCmp
                0x0000000040166918                SeFastSwap
                0x000000004016694a                SeQSort
                0x0000000040166d2a                SeSort
                0x0000000040166d62                SeBSearch
                0x0000000040166e39                SeSearch
                0x0000000040166ea1                SeFifoSize
                0x0000000040166eb6                SeDumpBuf
                0x0000000040166ee1                SeSeekBuf
                0x0000000040166f15                SeClearBuf
                0x0000000040166f2e                SeEndian16
                0x0000000040166f53                SeSwap16
                0x0000000040166f6e                SeSwap32
                0x0000000040166f98                SeEndian32
                0x0000000040166faf                SeSwap64
                0x0000000040167006                SeEndian64
                0x000000004016701e                SeMalloc
                0x0000000040167060                SeNewFifo
                0x00000000401670a2                SeNewBuf
                0x00000000401670e4                SeReAlloc
                0x0000000040167159                SePush
                0x00000000401671b2                SePop
                0x000000004016720f                SeDeleteAll
                0x0000000040167246                SeDelete
                0x000000004016730a                SeAdd
                0x000000004016736a                SeInsert
                0x00000000401674ac                SeInsertStr
                0x00000000401674f1                SeClearFifo
                0x000000004016752e                SeAdjustBufSize
                0x0000000040167563                SeMemSize
                0x0000000040167597                SeFree
                0x00000000401675c6                SeFreeStack
                0x00000000401675ef                SeFreeList
                0x0000000040167618                SeFreeFifo
                0x0000000040167640                SeFreeQueue
                0x0000000040167669                SeFreeBufWithoutBuffer
                0x000000004016767a                SeFreeBuf
                0x00000000401676a2                SeIsLittleEndian
                0x00000000401676b5                SeIsBigEndian
                0x00000000401676c8                SeCmp
                0x0000000040167738                SeCmpBuf
                0x0000000040167779                SeCmpEx
                0x00000000401677b0                SeCopy
                0x00000000401677d8                SeCopyToArray
                0x0000000040167801                SeToArray
                0x000000004016783b                SeWriteFifo
                0x00000000401678be                SeInsertQueue
                0x00000000401678f4                SeReadFifo
                0x00000000401679da                SeGetNext
                0x0000000040167a24                SeGetNextInt
                0x0000000040167a5b                SePeekFifo
                0x0000000040167aa1                SePeekNext
                0x0000000040167adf                SeWriteBuf
                0x0000000040167b40                SeReadDump
                0x0000000040167ba6                SeAddBufStr
                0x0000000040167bd7                SeWriteBufInt64
                0x0000000040167c1a                SeWriteBufInt
                0x0000000040167c5a                SeWriteBufStr
                0x0000000040167cbd                SeWriteBufBuf
                0x0000000040167cd9                SeWriteBufLine
                0x0000000040167d23                SeMemToBuf
                0x0000000040167d7e                SeCloneBuf
                0x0000000040167da1                SeRandBuf
                0x0000000040167ddc                SeSwap
                0x0000000040167e38                SeClone
                0x0000000040167e7d                SeInsertQueueInt
                0x0000000040167eb1                SeZero
                0x0000000040167ed5                SeReadBuf
                0x0000000040167f67                SeReadBufInt64
                0x0000000040167fa3                SeReadBufInt
                0x0000000040167fdb                SeReadBufStr
                0x0000000040168095                SeReadBufFromBuf
                0x000000004016811d                SeReadRemainBuf
                0x0000000040168147                SeZeroMalloc
                0x0000000040168171                SeB64Encode
                0x0000000040168352                SeB64Decode
                0x0000000040168530                SeNewStack
                0x000000004016856b                SeNewQueue
                0x000000004016859f                SeNewList
                0x00000000401685e4                SeCloneList
                0x0000000040168640                SeBuildICMPv6OptionValue
                0x00000000401686bb                SeBuildICMPv6Options
                0x0000000040168767                SeParseICMPv6Options
                0x0000000040168847                SeFreePacketList
                0x0000000040168883                SeFreePacketListWithoutBuffer
                0x00000000401688bf                SeGetNextHeaderFromQueue
                0x00000000401688eb                SeBuildAndAddIPv6PacketOptionHeader
                0x0000000040168977                SeBuildIPv6Packet
                0x0000000040168b4b                SeBuildIPv6PacketWithFragment
                0x0000000040168d14                SeParseIPv6ExtHeader
                0x0000000040168e03                SeParseIPv6Packet
                0x0000000040168e71                SeParsePacketL3IPv6
                0x0000000040168eb2                SeParsePacketL3IPv4
                0x0000000040168f61                SeParsePacketL3ARPv4
                0x0000000040168f8b                SeParsePacketL2
                0x0000000040169023                SeFreePacket
                0x0000000040169034                SeParsePacket
                0x00000000401690c0                SeSecCmpIkeSa
                0x000000004016919f                SeSecCalcP2Iv
                0x000000004016923f                SeSecCalcP1Iv
                0x00000000401692db                SeSecCalcKEYMATFull
                0x00000000401693e1                SeSecCalcKEYMAT
                0x0000000040169495                SeSecCalcKa
                0x0000000040169566                SeSecCalcP1KeySet
                0x000000004016976e                SeSecForceReconnect
                0x00000000401697a7                SeSecLifeSeconds64bit
                0x00000000401697c7                SeSecGetIPsecSa
                0x0000000040169813                SeSecNewIkeSa
                0x00000000401698b4                SeSecFreeP1KeySet
                0x0000000040169902                SeSecGenIkeSaMessageId
                0x0000000040169973                SeSecGenIkeSaInitCookie
                0x00000000401699e4                SeSecInitSaList
                0x0000000040169a1e                SeSecSearchIPsecSaBySpi
                0x0000000040169aac                SeSecSearchIkeSaBySpi
                0x0000000040169b76                SeSecSearchIkeSa
                0x0000000040169c39                SeSecNewSpi
                0x0000000040169c50                SeSecGenIPsecSASpi
                0x0000000040169cc1                SeSecStrToAuthMethod
                0x0000000040169d2c                SeSecTick
                0x0000000040169d47                SeSecCheckIkeSaExpires
                0x0000000040169dfc                SeSecCheckIPsecSaExpires
                0x0000000040169eb5                SeSecSetTimerCallback
                0x0000000040169ed6                SeSecAddTimer
                0x0000000040169ef7                SeSecNewIPsecSa
                0x000000004016a054                SeSecDoInterval
                0x000000004016a0bb                SeSecSetRecvUdpCallback
                0x000000004016a0dc                SeSecSetRecvEspCallback
                0x000000004016a0fd                SeSecSetRecvVirtualIpCallback
                0x000000004016a11e                SeSecSendUdp
                0x000000004016a165                SeSecSendIkeSaMsgInfo
                0x000000004016a3c7                SeSecSendIkeSaMsgInfoSimple
                0x000000004016a419                SeSecSendIkeSaDeleteMsg
                0x000000004016a4ac                SeSecSendIPsecSaDeleteMsg
                0x000000004016a519                SeSecFreeIPsecSa
                0x000000004016a58b                SeSecProcessIkeSaMsgInfo
                0x000000004016a8a4                SeSecDeleteExpiredIPsecSa
                0x000000004016a94a                SeSecFreeIkeSa
                0x000000004016ab10                SeSecDeleteExpiredIkeSa
                0x000000004016ac78                SeSecFreeSaList
                0x000000004016acf7                SeSecFreeMain
                0x000000004016ad08                SeSecFree
                0x000000004016ad37                SeSecSendIkeSaMsgPhase2FinalHash
                0x000000004016aec8                SeSecProcessIkeSaMsgPhase2
                0x000000004016b365                SeSecSendIkeSaMsgPhase2
                0x000000004016b88a                SeSecProcessIkeSaMsgPhase1
                0x000000004016c112                SeSecProcessIkeSaMsg
                0x000000004016c169                SeSecUdpRecvCallback
                0x000000004016c3bb                SeSecStartVpnConnect
                0x000000004016c9ea                SeSecProcessMain
                0x000000004016cadd                SeSecInitMain
                0x000000004016cb02                SeSecInit
                0x000000004016cc26                SeSecTimerCallback
                0x000000004016cc3a                SeSecSendEsp
                0x000000004016cc73                SeSecVirtualIpRecvCallback
                0x000000004016ce77                SeSecSendVirtualIp
                0x000000004016ce9f                SeSecEspRecvCallback
                0x000000004016d040                SeMakeCharArray
                0x000000004016d074                SeFreeToken
                0x000000004016d0c2                SeNullTokenList
                0x000000004016d0f6                SeDefaultTokenSplitChars
                0x000000004016d101                Se4BitToHex
                0x000000004016d116                SeHexTo4Bit
                0x000000004016d150                SeStrCmp
                0x000000004016d1fd                SeStrnCmp
                0x000000004016d2ca                SeToUpper
                0x000000004016d2dc                SeStrCmpi
                0x000000004016d38f                SeStrnCmpi
                0x000000004016d468                SeToLower
                0x000000004016d47a                SeStrCheckLen
                0x000000004016d4c5                SeStrCheckSize
                0x000000004016d4e4                SeStrLen
                0x000000004016d518                SeReadNextLine
                0x000000004016d5d9                SeIsAllLowerStr
                0x000000004016d64c                SeIsAllUpperStr
                0x000000004016d6bf                SeIsCharInStr
                0x000000004016d725                SeNormalizeCrlf
                0x000000004016d7c8                SeEndWith
                0x000000004016d822                SeTrimCrlf
                0x000000004016d869                SeHexToInt64
                0x000000004016d8f8                SeHexToInt
                0x000000004016d984                SeToInt
                0x000000004016d9e0                SeToInt64
                0x000000004016da48                SeStrLower
                0x000000004016da83                SeStrUpper
                0x000000004016dabe                SeStrCat
                0x000000004016db4e                SeStrCpy
                0x000000004016dbfc                SeStrToBin
                0x000000004016dcf7                SeStrToBinEx
                0x000000004016dd5b                SeStrToMac
                0x000000004016dd6e                SeSearchStrEx
                0x000000004016deb3                SeSearchStr
                0x000000004016dec3                SeSearchStri
                0x000000004016ded3                SeCalcReplaceStrEx
                0x000000004016df77                SeReplaceStrEx
                0x000000004016e0cb                SeReplaceStri
                0x000000004016e0dc                SeReplaceStr
                0x000000004016e0ed                SeCopyStr
                0x000000004016e139                SeUniqueToken
                0x000000004016e295                SeParseTokenWithNullStr
                0x000000004016e3ee                SeParseToken
                0x000000004016e583                SeStartWith
                0x000000004016e61d                SeTrimRight
                0x000000004016e71f                SeTrimLeft
                0x000000004016e7c5                SeTrim
                0x000000004016e7ea                SeTrimCopy
                0x000000004016e81a                SeIsEmptyStr
                0x000000004016e865                SeToHex64
                0x000000004016e920                SeToHex
                0x000000004016e9db                SeToStr
                0x000000004016ea93                SeToStr64
                0x000000004016eb5c                SeToStr3
                0x000000004016eca4                SeStrSize
                0x000000004016ecbd                SeFormatEx
                0x000000004016f1b5                SeFormatArgs
                0x000000004016f20b                SeFormat
                0x000000004016f241                SeMacToStr
                0x000000004016f292                SeBinToStrEx
                0x000000004016f329                SeBinToStr
                0x000000004016f3d0                SeVpnRecvIpV4PacketCallback
                0x000000004016f421                SeVpnRecvIpV6PacketCallback
                0x000000004016f472                SeVpnInitIpStack
                0x000000004016f790                SeVpnFreeIpStack
                0x000000004016f830                SeVpnMainInit
                0x000000004016f93f                SeVpnMainFree
                0x000000004016f963                SeVpnRecvEtherPacket
                0x000000004016f9dd                SeVpnSendEtherPacket
                0x000000004016fa03                SeVpnMainProcRecvEtherPacket
                0x000000004016faac                SeVpnStatusChanged
                0x000000004016fabe                SeVpnMainProcess
                0x000000004016fbbc                SeVpnMainHandler
                0x000000004016fc09                SeVpnTimerCallback
                0x000000004016fc22                SeVpnEthRecvCallback
                0x000000004016fc3b                SeVpnTick
                0x000000004016fc51                SeVpnAddTimer
                0x000000004016fc66                SeVpnDoInterval
                0x000000004016fcb7                SeVpnFreeConfig
                0x000000004016fcc8                SeVpnFree
                0x000000004016fd19                SeVpnLoadConfig
                0x0000000040171065                SeVpnInit
                0x0000000040171180                SeVpn4ClientSetTimerCallback
                0x0000000040171193                SeVpn4ClientSetRecvUdpCallback
                0x00000000401711a6                SeVpn4ClientSetRecvEspCallback
                0x00000000401711b9                SeVpn4ClientSetRecvVirtualIpCallback
                0x00000000401711cc                SeVpn4ClientSendUdp
                0x0000000040171244                SeVpn4ClientSendEsp
                0x00000000401712b5                SeVpn4ClientSendVirtualIp
                0x00000000401712e7                SeVpn4IPsecSendPing
                0x0000000040171428                SeVpn4IPsecInputFromPhysical
                0x00000000401714e6                SeVpn4IPsecInputFromVirtual
                0x0000000040171550                SeVpn4FreeIPsec
                0x0000000040171565                SeVpn4InitSecConfig
                0x000000004017173c                SeVpn4InitIPsec
                0x000000004017180d                SeVpn4DoInterval
                0x0000000040171826                SeVpn4Tick
                0x000000004017183f                SeVpn4IPsecMainProc
                0x00000000401718af                SeVpn4MainProc
                0x00000000401718cb                SeVpn4ClientGetTick
                0x00000000401718e1                SeVpn4SetTimer
                0x00000000401718f5                SeVpn4ClientAddTimer
                0x000000004017190e                SeVpn4DhcpSendResponse
                0x0000000040171a18                SeVpn4DhcpOptionsToBuf
                0x0000000040171ad6                SeVpn4NewDhcpOption
                0x0000000040171b27                SeVpn4DhcpBuildDhcpOptionList
                0x0000000040171d09                SeVpn4DhcpSearchOption
                0x0000000040171d45                SeVpn4DhcpFreeOptionList
                0x0000000040171d99                SeVpn4DhcpParseOptionListMain
                0x0000000040171e84                SeVpn4DhcpParseOptionList
                0x0000000040171f69                SeVpn4DhcpServer
                0x000000004017222d                SeVpn4RecvPacketPhysical
                0x00000000401722f0                SeVpn4RecvPacketVirtual
                0x0000000040172449                SeVpn4Init
                0x00000000401724af                SeVpn4Free
                0x00000000401724e0                SeVpn6ClientSetTimerCallback
                0x00000000401724f3                SeVpn6ClientSetRecvUdpCallback
                0x0000000040172506                SeVpn6ClientSetRecvEspCallback
                0x0000000040172519                SeVpn6ClientSetRecvVirtualIpCallback
                0x000000004017252c                SeVpn6ClientSendUdp
                0x00000000401725b1                SeVpn6ClientSendEsp
                0x0000000040172633                SeVpn6ClientSendVirtualIp
                0x0000000040172665                SeVpn6IPsecSendPing
                0x0000000040172852                SeVpn6UpdateGuestOsIpAddress
                0x000000004017290e                SeVpn6IPsecInputFromPhysical
                0x00000000401729cc                SeVpn6IPsecInputFromVirtual
                0x0000000040172a02                SeVpn6InitSecConfig
                0x0000000040172beb                SeVpn6InitIPsec
                0x0000000040172cc5                SeVpn6FreeIPsec
                0x0000000040172cda                SeVpn6DoInterval
                0x0000000040172cf3                SeVpn6Tick
                0x0000000040172d0c                SeVpn6IPsecMainProc
                0x0000000040172d86                SeVpn6MainProc
                0x0000000040172da2                SeVpn6ClientGetTick
                0x0000000040172db8                SeVpn6SetTimer
                0x0000000040172dcc                SeVpn6ClientAddTimer
                0x0000000040172de5                SeVpn6RecvPacketPhysical
                0x0000000040172e71                SeVpn6RecvPacketVirtual
                0x0000000040172f92                SeVpn6Init
                0x0000000040173009                SeVpn6Free
                0x0000000040173039                crypt_sys_rsa_sign
                0x00000000401733c2                msg_usb_bulk_read
                0x0000000040173422                msg_usb_bulk_write
                0x0000000040173482                msg_usb_claim_interface
                0x00000000401734c8                msg_usb_close
                0x0000000040173522                msg_usb_control_msg
                0x0000000040173597                msg_usb_find_busses
                0x00000000401735d5                msg_usb_find_devices
                0x0000000040173613                msg_usb_get_busses
                0x000000004017367d                msg_usb_get_string_simple
                0x00000000401736d9                msg_usb_init
                0x00000000401736ee                msg_usb_open
                0x000000004017376e                msg_usb_release_interface
                0x00000000401737b4                msg_usb_reset
                0x00000000401737f7                IDMan_StReadSetData
                0x0000000040173edb                idman_user_init
                0x0000000040173f30                IDMan_IPIdPassListMalloc
                0x0000000040174006                IDMan_IPRetJudgment
                0x0000000040174082                IDMan_IPInitializeReader
                0x00000000401740b3                IDMan_IPInitialize
                0x00000000401741bc                IDMan_IPFinalize
                0x0000000040174204                IDMan_IPFinalizeReader
                0x0000000040174226                IDMan_getMemoryFree
                0x000000004017426e                IDMan_PaddingParamChk
                0x0000000040174384                IDMan_CmPadding
                0x0000000040174535                IDMan_CmPadding2
                0x00000000401746a8                IDMan_IPgetCertPKCS
                0x0000000040174d0f                IDMan_IPgetCertIdxPKCS
                0x0000000040175213                IDMan_IPCheckPKC
                0x000000004017542e                IDMan_CheckCardStatus
                0x0000000040175460                IDMan_IPgSParamChk
                0x00000000401755a9                IDMan_IPgIdxSParamChk
                0x00000000401755e8                IDMan_IPgetPrivateKey
                0x00000000401757ca                IDMan_IPgetHash
                0x00000000401758ac                IDMan_IPCrSignature
                0x0000000040175a0c                IDMan_generateSignature
                0x0000000040175b31                IDMan_generateSignatureByIndex
                0x0000000040175c43                IDMan_EncryptByIndex
                0x0000000040175d60                IDMan_IPgCParamChk
                0x0000000040175e69                IDMan_getCertificate
                0x0000000040176190                IDMan_IPgCIndexParamChk
                0x00000000401761c0                IDMan_getCertificateByIndex
                0x0000000040176540                IDMan_getStaticPassword
                0x0000000040176870                IDMan_IPuAPKCS11ParamChk
                0x000000004017698f                IDMan_IPuAPKCS11IdxParamChk
                0x00000000401769b6                IDMan_IPgetCertPkeyPKCSx
                0x0000000040176e69                IDMan_IPgetCertPkeyIdxPKCSx
                0x000000004017728d                IDMan_IPgetCertPkeyPKCSy
                0x00000000401773d8                IDMan_IPCheckCrlPkcX
                0x0000000040177512                IDMan_IPgetMakeRandData
                0x000000004017758b                IDMan_IPMkRandHash
                0x0000000040177635                IDMan_IPgetPrivateKeyPKCSx
                0x0000000040177813                IDMan_IPSignatureVerify
                0x000000004017798c                IDMan_userAuthPKCS11
                0x0000000040177e07                IDMan_userAuthPKCS11ByIndex
                0x0000000040178290                IDMan_IPvSParamChk
                0x0000000040178436                IDMan_IPvSIdxParamChk
                0x00000000401784ae                IDMan_IPMkPublicKeyObj
                0x00000000401785f2                IDMan_IPCheckSignature
                0x000000004017879d                IDMan_verifySignature
                0x0000000040178964                IDMan_verifySignatureByIndex
                0x0000000040178b10                CardEstablishContext
                0x0000000040178b28                CardReleaseContext
                0x0000000040178b59                CardListReaders
                0x0000000040178b71                CardConnect
                0x0000000040178baf                CardDisconnect
                0x0000000040178bcc                CardStatus
                0x0000000040178c1d                CardTransmit
                0x0000000040178c59                SelectFileDF
                0x0000000040178d3d                SelectFileEF
                0x0000000040178e18                Verify
                0x0000000040178f0c                InternalAuth
                0x0000000040179043                ReadBinary
                0x0000000040179630                UpdateBinary
                0x0000000040179749                GetICCardData
                0x0000000040179b30                GetUlByTxt
                0x0000000040179b6f                GetVerByTex
                0x0000000040179c4f                GetUlByByte
                0x0000000040179c9d                TransHex2Tex
                0x0000000040179d37                TransTex2Hex
                0x0000000040179e00                GetLength
                0x0000000040179e67                SetLength
                0x0000000040179ecc                GetTlvByBuf
                0x000000004017a238                GetDirDataByTlv
                0x000000004017a36a                GetOdfDataByTlv
                0x000000004017a4dd                GetTokenDataByTlv
                0x000000004017a944                AddObjTblByTlv
                0x000000004017af7d                AddCertDataByBuf
                0x000000004017b076                AddIdPassDataByBuf
                0x000000004017b44d                GetValueData
                0x000000004017b7d0                AddElem
                0x000000004017b858                SetElem
                0x000000004017b918                GetElem
                0x000000004017b954                GetAttrValType
                0x000000004017bac6                DestroyAttribute
                0x000000004017bb10                DestroyTlvData
                0x000000004017bb2b                DestroyElem
                0x000000004017bbb4                DestroyList
                0x000000004017bbf1                DestroyTokenData
                0x000000004017bc51                DestroySlotData
                0x000000004017bc8d                DestroySessionData
                0x000000004017bccb                DelElem
                0x000000004017bd40                C_GetFunctionList
                0x000000004017bd52                C_Initialize
                0x000000004017bec0                C_Finalize
                0x000000004017bf5c                C_GetInfo
                0x000000004017bfe2                C_GetSlotList
                0x000000004017c8ac                C_GetSlotInfo
                0x000000004017c994                C_GetTokenInfo
                0x000000004017d256                C_GetMechanismList
                0x000000004017d321                C_GetMechanismInfo
                0x000000004017d3db                C_OpenSession
                0x000000004017d599                C_CloseSession
                0x000000004017d673                C_CloseAllSessions
                0x000000004017d783                C_GetSessionInfo
                0x000000004017d7ff                C_Login
                0x000000004017dc60                C_Logout
                0x000000004017dd6d                C_FindObjectsInit
                0x000000004017dfce                C_FindObjects
                0x000000004017e503                C_FindObjectsFinal
                0x000000004017e579                C_GetAttributeValue
                0x000000004017e878                C_SignInit
                0x000000004017e93f                C_Sign
                0x000000004017ecb5                C_DigestInit
                0x000000004017ed30                C_DigestUpdate
                0x000000004017edb2                C_DigestFinal
                0x000000004017eef2                C_VerifyInit
                0x000000004017efb9                C_Verify
                0x000000004017f120                C_CreateObject
                0x000000004017f3da                C_DestroyObject
                0x000000004017f49a                C_SetAttributeValue
                0x000000004018003a                C_GetCardStatus
                0x00000000401800d0                IDMan_StFree
                0x00000000401800e1                IDMan_StMemcpy
                0x0000000040180109                IDMan_StMemset
                0x0000000040180129                IDMan_StMalloc
                0x0000000040180162                IDMan_StMemcmp
                0x00000000401801b2                IDMan_StStrlen
                0x00000000401801d3                IDMan_StStrcat
                0x0000000040180212                IDMan_StStrchr
                0x000000004018024d                IDMan_StStrcpy
                0x0000000040180279                IDMan_StStrcmp
                0x00000000401802bc                StIsspace
                0x000000004018032b                StIsdigit
                0x000000004018033d                IDMan_StAtoi
                0x000000004018038f                IDMan_StAtol
                0x00000000401803eb                IDMan_CmMkHash
                0x000000004018059d                IDMan_CmChgRSA
                0x0000000040180757                IDMan_CmGetDN
                0x00000000401809f3                IDMan_CmGetCertificateSign
                0x0000000040180c17                IDMan_CmGetPublicKey
                0x0000000040180de7                IDMan_CmMakeRand
                0x0000000040180e85                IDMan_CmCheckCRL
                0x0000000040181200                IDMan_SCardEstablishContext
                0x000000004018121d                IDMan_SCardReleaseContext
                0x0000000040181228                IDMan_SCardListReaders
                0x0000000040181258                IDMan_SCardConnect
                0x0000000040181288                IDMan_SCardDisconnect
                0x0000000040181293                IDMan_SCardStatus
                0x0000000040181307                IDMan_SCardSizeLongToChar
                0x0000000040181348                IDMan_SCardSetBinay
                0x00000000401816db                IDMan_SCardTransmit
                0x0000000040181750                EHDestroyEventHandler
                0x00000000401817bd                EHInitEventHandler
                0x000000004018188d                EHStatusHandler
                0x0000000040181a29                HPSearchHotPluggables
                0x0000000040181d90                PHGetProtocol
                0x000000004018215a                PHSetProtocol
                0x00000000401821be                RFAddReader
                0x00000000401822d5                RFRemoveReader
                0x0000000040182390                RFReaderInfoById
                0x00000000401823c0                RFCheckReaderEventState
                0x0000000040182400                SCardEstablishContext
                0x00000000401824f0                SCardListReaders
                0x000000004018258d                SCardConnect
                0x0000000040182824                SCardDisconnect
                0x00000000401829d2                SCardBeginTransaction
                0x0000000040182a29                SCardEndTransaction
                0x0000000040182bff                SCardStatus
                0x0000000040182e12                SCardReleaseContext
                0x0000000040182eda                SCardTransmit
                0x0000000040183120                SetATR
                0x0000000040183369                GetIFSCData
                0x00000000401833c6                GetBWICWIData
                0x0000000040183473                IFDHCloseChannel
                0x00000000401834f0                IFDHGetCapabilities
                0x0000000040183536                IFDHSetProtocolParameters
                0x0000000040183c40                IFDHPowerICC
                0x0000000040183e2f                IFDHTransmitToICC
                0x00000000401840f5                IFDHControl
                0x0000000040184206                IFDHICCPresence
                0x00000000401842a8                IFDHCreateChannel
                0x0000000040184348                FindBaudRateTable
                0x0000000040184391                ExchangePPSData
                0x0000000040184a5c                InitLeaderCardProtocol
                0x0000000040184b76                T1XfrBlockTPDU
                0x00000000401851ad                T1NegociateIFSD
                0x00000000401852fb                CardStateConfirm
                0x0000000040185330                GetCardStatus
                0x0000000040185435                PowerOn
                0x00000000401855e0                PowerOff
                0x0000000040185730                CardMechanical
                0x000000004018583d                TransmitPPS
                0x00000000401859b6                TransmitCommand
                0x0000000040185a86                ReceiveReply
                0x0000000040185c35                ReadDataT0
                0x0000000040185ce0                BlockSendCardT1
                0x0000000040185efd                T0XfrBlockCHAR
                0x0000000040186401                T0XfrBlockTPDU
                0x000000004018647a                T1XfrBlockExtendedAPDU
                0x00000000401867c3                OpenUSB
                0x0000000040186b78                WriteUSB
                0x0000000040186ba7                ReadUSB
                0x0000000040186c05                CloseUSB
                0x0000000040186c73                AES_set_encrypt_key
                0x0000000040187081                AES_set_decrypt_key
                0x00000000401872ac                AES_encrypt
                0x0000000040187737                AES_decrypt
                0x0000000040187ba0                BIO_set
                0x0000000040187c6e                BIO_new
                0x0000000040187ce1                BIO_free
                0x0000000040187d99                BIO_vfree
                0x0000000040187da4                BIO_clear_flags
                0x0000000040187daf                BIO_test_flags
                0x0000000040187dba                BIO_set_flags
                0x0000000040187dc3                BIO_get_callback
                0x0000000040187dcd                BIO_set_callback
                0x0000000040187dd7                BIO_set_callback_arg
                0x0000000040187de1                BIO_get_callback_arg
                0x0000000040187deb                BIO_method_name
                0x0000000040187df8                BIO_method_type
                0x0000000040187e03                BIO_read
                0x0000000040187eed                BIO_write
                0x0000000040187fe2                BIO_puts
                0x00000000401880cf                BIO_gets
                0x00000000401881b3                BIO_indent
                0x00000000401881f8                BIO_ctrl
                0x00000000401882be                BIO_int_ctrl
                0x00000000401882d4                BIO_ptr_ctrl
                0x00000000401882ff                BIO_callback_ctrl
                0x00000000401883c3                BIO_ctrl_pending
                0x00000000401883dd                BIO_ctrl_wpending
                0x00000000401883f7                BIO_push
                0x0000000040188447                BIO_pop
                0x00000000401884ad                BIO_get_retry_BIO
                0x00000000401884da                BIO_get_retry_reason
                0x00000000401884e3                BIO_find_type
                0x000000004018852e                BIO_next
                0x0000000040188544                BIO_free_all
                0x0000000040188573                BIO_dup_chain
                0x000000004018866b                BIO_copy_next_retry
                0x0000000040188684                BIO_get_ex_new_index
                0x00000000401886a3                BIO_set_ex_data
                0x00000000401886b2                BIO_get_ex_data
                0x00000000401886c1                BIO_number_read
                0x00000000401886d7                BIO_number_written
                0x0000000040188830                BN_set_params
                0x00000000401888c0                BN_get_params
                0x00000000401888f5                BN_value_one
                0x0000000040188900                BN_options
                0x0000000040188948                BN_num_bits_word
                0x00000000401889a6                BN_num_bits
                0x00000000401889cc                BN_clear_free
                0x0000000040188a25                BN_free
                0x0000000040188a6e                BN_init
                0x0000000040188a83                BN_new
                0x0000000040188aeb                bn_expand2
                0x0000000040188b3c                BN_copy
                0x0000000040188c28                BN_dup
                0x0000000040188c7a                bn_dup_expand
                0x0000000040188ceb                BN_swap
                0x0000000040188d4e                BN_clear
                0x0000000040188d8b                BN_get_word
                0x0000000040188dad                BN_set_word
                0x0000000040188e02                BN_bin2bn
                0x0000000040188f41                BN_bn2bin
                0x0000000040188fb0                BN_ucmp
                0x000000004018900d                BN_cmp
                0x00000000401890cd                BN_set_bit
                0x000000004018917c                BN_clear_bit
                0x0000000040189205                BN_is_bit_set
                0x0000000040189249                BN_mask_bits
                0x00000000401892de                BN_set_negative
                0x00000000401892fe                bn_cmp_words
                0x0000000040189364                bn_cmp_part_words
                0x00000000401893f0                BN_bn2hex
                0x00000000401894d2                BN_bn2dec
                0x00000000401896ea                BN_hex2bn
                0x00000000401898cd                BN_dec2bn
                0x0000000040189a7a                BN_asc2bn
                0x0000000040189ae1                BN_print
                0x0000000040189db7                BN_rand
                0x0000000040189dd1                BN_pseudo_rand
                0x0000000040189fbe                BN_bntest_rand
                0x0000000040189fd8                BN_rand_range
                0x0000000040189fee                BN_pseudo_rand_range
                0x000000004018a010                BN_mod_word
                0x000000004018a06a                BN_div_word
                0x000000004018a142                BN_sub_word
                0x000000004018a23c                BN_add_word
                0x000000004018a32a                BN_mul_word
                0x000000004018a7cc                BIO_s_mem
                0x000000004018a7d7                BIO_new_mem_buf
                0x000000004018a850                BUF_MEM_new
                0x000000004018a8ac                BUF_MEM_free
                0x000000004018a8eb                BUF_MEM_grow
                0x000000004018a9e0                BUF_MEM_grow_clean
                0x000000004018aaef                BUF_memdup
                0x000000004018ab58                BUF_strlcpy
                0x000000004018abc8                BUF_strndup
                0x000000004018ac44                BUF_strdup
                0x000000004018ac72                BUF_strlcat
                0x000000004018acba                BUF_reverse
                0x000000004018ad0f                OpenSSL_add_all_ciphers
                0x000000004018b1b0                OpenSSL_add_all_digests
                0x000000004018b320                CRYPTO_get_new_lockid
                0x000000004018b3cf                CRYPTO_num_locks
                0x000000004018b3da                CRYPTO_get_dynlock_create_callback
                0x000000004018b3e7                CRYPTO_get_dynlock_lock_callback
                0x000000004018b3f4                CRYPTO_get_dynlock_destroy_callback
                0x000000004018b401                CRYPTO_set_dynlock_create_callback
                0x000000004018b40e                CRYPTO_set_dynlock_lock_callback
                0x000000004018b41b                CRYPTO_set_dynlock_destroy_callback
                0x000000004018b428                CRYPTO_get_locking_callback
                0x000000004018b435                CRYPTO_get_add_lock_callback
                0x000000004018b442                CRYPTO_set_locking_callback
                0x000000004018b44f                CRYPTO_set_add_lock_callback
                0x000000004018b45c                CRYPTO_THREADID_set_numeric
                0x000000004018b481                CRYPTO_THREADID_set_pointer
                0x000000004018b4a9                CRYPTO_THREADID_set_callback
                0x000000004018b4c7                CRYPTO_THREADID_get_callback
                0x000000004018b4d4                CRYPTO_THREADID_current
                0x000000004018b51c                CRYPTO_THREADID_cmp
                0x000000004018b52c                CRYPTO_THREADID_cpy
                0x000000004018b53c                CRYPTO_THREADID_hash
                0x000000004018b546                CRYPTO_get_id_callback
                0x000000004018b553                CRYPTO_set_id_callback
                0x000000004018b560                CRYPTO_thread_id
                0x000000004018b57a                CRYPTO_get_lock_name
                0x000000004018b5cf                OPENSSL_ia32cap_loc
                0x000000004018b5da                OPENSSL_cpuid_setup
                0x000000004018b5e0                OPENSSL_showfatal
                0x000000004018b62b                OPENSSL_isservice
                0x000000004018b636                OpenSSLDie
                0x000000004018b658                CRYPTO_lock
                0x000000004018b6dd                CRYPTO_get_new_dynlockid
                0x000000004018b8f9                CRYPTO_destroy_dynlockid
                0x000000004018b9f1                CRYPTO_get_dynlock_value
                0x000000004018ba90                CRYPTO_add_lock
                0x000000004018bafe                OPENSSL_stderr
                0x000000004018bb09                DES_encrypt1
                0x000000004018bf1e                DES_encrypt2
                0x000000004018c236                DES_encrypt3
                0x000000004018c390                DES_decrypt3
                0x000000004018c4ed                DES_ncbc_encrypt
                0x000000004018cb29                DES_ede3_cbc_encrypt
                0x000000004018d54a                DH_generate_key
                0x000000004018d55a                DH_compute_key
                0x000000004018d56a                DH_OpenSSL
                0x000000004018d575                DH_set_default_method
                0x000000004018d582                DH_get_default_method
                0x000000004018d5ad                DH_set_method
                0x000000004018d5ec                DH_new_method
                0x000000004018d70d                DH_new
                0x000000004018d71d                DH_free
                0x000000004018d7fd                DH_up_ref
                0x000000004018d82a                DH_get_ex_new_index
                0x000000004018d849                DH_set_ex_data
                0x000000004018d858                DH_get_ex_data
                0x000000004018d867                DH_size
                0x000000004018e5ca                EVP_aes_128_cbc
                0x000000004018e5d5                EVP_aes_128_cfb128
                0x000000004018e5e0                EVP_aes_128_ofb
                0x000000004018e5eb                EVP_aes_128_ecb
                0x000000004018e5f6                EVP_aes_192_cbc
                0x000000004018e601                EVP_aes_192_cfb128
                0x000000004018e60c                EVP_aes_192_ofb
                0x000000004018e617                EVP_aes_192_ecb
                0x000000004018e622                EVP_aes_256_cbc
                0x000000004018e62d                EVP_aes_256_cfb128
                0x000000004018e638                EVP_aes_256_ofb
                0x000000004018e643                EVP_aes_256_ecb
                0x000000004018e64e                EVP_aes_128_cfb1
                0x000000004018e659                EVP_aes_192_cfb1
                0x000000004018e664                EVP_aes_256_cfb1
                0x000000004018e66f                EVP_aes_128_cfb8
                0x000000004018e67a                EVP_aes_192_cfb8
                0x000000004018e685                EVP_aes_256_cfb8
                0x000000004018e9a8                EVP_bf_cbc
                0x000000004018e9b3                EVP_bf_cfb64
                0x000000004018e9be                EVP_bf_ofb
                0x000000004018e9c9                EVP_bf_ecb
                0x000000004018ecec                EVP_cast5_cbc
                0x000000004018ecf7                EVP_cast5_cfb64
                0x000000004018ed02                EVP_cast5_ofb
                0x000000004018ed0d                EVP_cast5_ecb
                0x000000004018f2f5                EVP_des_cbc
                0x000000004018f300                EVP_des_cfb64
                0x000000004018f30b                EVP_des_ofb
                0x000000004018f316                EVP_des_ecb
                0x000000004018f321                EVP_des_cfb1
                0x000000004018f32c                EVP_des_cfb8
                0x000000004018f91a                EVP_des_ede_cbc
                0x000000004018f925                EVP_des_ede_cfb64
                0x000000004018f930                EVP_des_ede_ofb
                0x000000004018f93b                EVP_des_ede_ecb
                0x000000004018f946                EVP_des_ede3_cbc
                0x000000004018f951                EVP_des_ede3_cfb64
                0x000000004018f95c                EVP_des_ede3_ofb
                0x000000004018f967                EVP_des_ede3_ecb
                0x000000004018f972                EVP_des_ede3_cfb1
                0x000000004018f97d                EVP_des_ede3_cfb8
                0x000000004018f988                EVP_des_ede
                0x000000004018f993                EVP_des_ede3
                0x000000004018fd12                EVP_idea_cbc
                0x000000004018fd1d                EVP_idea_cfb64
                0x000000004018fd28                EVP_idea_ofb
                0x000000004018fd33                EVP_idea_ecb
                0x000000004019027e                EVP_rc2_cbc
                0x0000000040190289                EVP_rc2_cfb64
                0x0000000040190294                EVP_rc2_ofb
                0x000000004019029f                EVP_rc2_ecb
                0x00000000401902aa                EVP_rc2_64_cbc
                0x00000000401902b5                EVP_rc2_40_cbc
                0x0000000040190307                EVP_rc4
                0x0000000040190312                EVP_rc4_40
                0x000000004019048d                EVP_desx_cbc
                0x0000000040190498                DES_ecb3_encrypt
                0x0000000040190568                DES_options
                0x00000000401905c2                DES_ecb_encrypt
                0x0000000040190d4d                ERR_get_implementation
                0x0000000040190d5f                ERR_set_implementation
                0x0000000040190dba                ERR_load_ERR_strings
                0x0000000040190ee7                ERR_load_strings
                0x0000000040190f07                ERR_unload_strings
                0x0000000040190f59                ERR_free_strings
                0x0000000040190f6e                ERR_get_string_table
                0x0000000040190f87                ERR_get_err_state_table
                0x0000000040190fa1                ERR_release_err_state_table
                0x0000000040190fc6                ERR_lib_error_string
                0x0000000040191006                ERR_func_error_string
                0x0000000040191046                ERR_reason_error_string
                0x00000000401910af                ERR_error_string_n
                0x0000000040191211                ERR_error_string
                0x0000000040191240                ERR_remove_thread_state
                0x0000000040191285                ERR_remove_state
                0x0000000040191295                ERR_get_state
                0x00000000401913ab                ERR_put_error
                0x000000004019149e                ERR_clear_error
                0x000000004019174a                ERR_get_error
                0x0000000040191775                ERR_get_error_line
                0x000000004019179c                ERR_get_error_line_data
                0x00000000401917bd                ERR_peek_error
                0x00000000401917e8                ERR_peek_error_line
                0x000000004019180f                ERR_peek_error_line_data
                0x0000000040191830                ERR_peek_last_error
                0x000000004019185b                ERR_peek_last_error_line
                0x0000000040191882                ERR_peek_last_error_line_data
                0x00000000401918a3                ERR_get_next_error_library
                0x00000000401918b8                ERR_set_error_data
                0x000000004019192b                ERR_add_error_data
                0x0000000040191a54                ERR_set_mark
                0x0000000040191a81                ERR_pop_to_mark
                0x0000000040191b50                ERR_load_crypto_strings
                0x0000000040191bf0                ASN1_TYPE_set_octetstring
                0x0000000040191c4b                ASN1_TYPE_get_octetstring
                0x0000000040191ca7                ASN1_TYPE_set_int_octetstring
                0x0000000040191dd0                ASN1_TYPE_get_int_octetstring
                0x0000000040191fa0                EVP_CIPHER_CTX_init
                0x0000000040191fb5                EVP_CIPHER_CTX_new
                0x0000000040191fec                EVP_EncryptUpdate
                0x000000004019216f                EVP_EncryptFinal_ex
                0x0000000040192245                EVP_EncryptFinal
                0x0000000040192250                EVP_DecryptUpdate
                0x0000000040192361                EVP_CipherUpdate
                0x0000000040192379                EVP_DecryptFinal_ex
                0x000000004019250a                EVP_CipherFinal_ex
                0x0000000040192527                EVP_DecryptFinal
                0x0000000040192532                EVP_CipherFinal
                0x0000000040192551                EVP_CIPHER_CTX_cleanup
                0x00000000401925b5                EVP_CIPHER_CTX_free
                0x00000000401925da                EVP_CIPHER_CTX_set_padding
                0x00000000401925fb                EVP_CIPHER_CTX_ctrl
                0x000000004019268b                EVP_CipherInit_ex
                0x00000000401928cb                EVP_CipherInit
                0x000000004019291d                EVP_EncryptInit
                0x000000004019292e                EVP_DecryptInit
                0x000000004019293f                EVP_EncryptInit_ex
                0x0000000040192950                EVP_DecryptInit_ex
                0x0000000040192961                EVP_CIPHER_CTX_set_key_length
                0x00000000401929cd                EVP_CIPHER_CTX_rand_key
                0x0000000040192a03                EVP_CIPHER_CTX_copy
                0x0000000040192ae3                ERR_load_EVP_strings
                0x0000000040192b20                EVP_CIPHER_param_to_asn1
                0x0000000040192b41                EVP_CIPHER_asn1_to_param
                0x0000000040192b61                EVP_CIPHER_get_asn1_iv
                0x0000000040192bdd                EVP_CIPHER_set_asn1_iv
                0x0000000040192c38                EVP_CIPHER_type
                0x0000000040192d85                EVP_CIPHER_block_size
                0x0000000040192d8e                EVP_CIPHER_CTX_block_size
                0x0000000040192d9a                EVP_Cipher
                0x0000000040192da8                EVP_CIPHER_CTX_cipher
                0x0000000040192db1                EVP_CIPHER_flags
                0x0000000040192dbb                EVP_CIPHER_CTX_flags
                0x0000000040192dc8                EVP_CIPHER_CTX_get_app_data
                0x0000000040192dd2                EVP_CIPHER_CTX_set_app_data
                0x0000000040192ddc                EVP_CIPHER_iv_length
                0x0000000040192de5                EVP_CIPHER_CTX_iv_length
                0x0000000040192df1                EVP_CIPHER_key_length
                0x0000000040192dfa                EVP_CIPHER_CTX_key_length
                0x0000000040192e03                EVP_CIPHER_nid
                0x0000000040192e0b                EVP_CIPHER_CTX_nid
                0x0000000040192e16                EVP_MD_block_size
                0x0000000040192e1f                EVP_MD_type
                0x0000000040192e27                EVP_MD_pkey_type
                0x0000000040192e30                EVP_MD_size
                0x0000000040192e63                EVP_MD_flags
                0x0000000040192e6d                EVP_MD_CTX_md
                0x0000000040192e82                EVP_MD_CTX_set_flags
                0x0000000040192e8f                EVP_MD_CTX_clear_flags
                0x0000000040192e9e                EVP_MD_CTX_test_flags
                0x0000000040192ea9                EVP_CIPHER_CTX_set_flags
                0x0000000040192eb6                EVP_CIPHER_CTX_clear_flags
                0x0000000040192ec5                EVP_CIPHER_CTX_test_flags
                0x00000000401932d8                CRYPTO_get_ex_data_implementation
                0x00000000401932fc                CRYPTO_set_ex_data_implementation
                0x0000000040193357                CRYPTO_ex_data_new_class
                0x0000000040193375                CRYPTO_cleanup_all_ex_data
                0x0000000040193394                CRYPTO_get_ex_new_index
                0x00000000401933f1                CRYPTO_new_ex_data
                0x0000000040193432                CRYPTO_dup_ex_data
                0x0000000040193473                CRYPTO_free_ex_data
                0x00000000401934b4                CRYPTO_set_ex_data
                0x000000004019357e                CRYPTO_get_ex_data
                0x0000000040193aa2                idea_encrypt
                0x00000000401943a5                idea_cbc_encrypt
                0x00000000401949e0                idea_cfb64_encrypt
                0x0000000040194c01                idea_options
                0x0000000040194c0c                idea_ecb_encrypt
                0x0000000040194cc5                idea_ofb64_encrypt
                0x0000000040194ef2                idea_set_encrypt_key
                0x000000004019507c                idea_set_decrypt_key
                0x00000000401951ef                lh_strhash
                0x0000000040195266                lh_new
                0x00000000401953cf                lh_free
                0x0000000040195439                lh_insert
                0x00000000401955c6                lh_delete
                0x0000000040195709                lh_retrieve
                0x000000004019574c                lh_doall
                0x000000004019579e                lh_doall_arg
                0x0000000040195802                lh_num_items
                0x000000004019584b                EVP_dss
                0x0000000040195889                EVP_dss1
                0x00000000401958c7                EVP_ecdsa
                0x0000000040195905                EVP_md4
                0x0000000040195943                EVP_md5
                0x0000000040195981                EVP_ripemd160
                0x00000000401959bf                EVP_sha
                0x0000000040195a81                EVP_sha1
                0x0000000040195a8c                EVP_sha224
                0x0000000040195a97                EVP_sha256
                0x0000000040195aa2                EVP_sha384
                0x0000000040195aad                EVP_sha512
                0x0000000040195ab8                MD4_Init
                0x0000000040195afa                md4_block_data_order
                0x0000000040196098                MD4_Update
                0x00000000401961b4                MD4_Transform
                0x00000000401961c4                MD4_Final
                0x0000000040196291                MD5_Init
                0x00000000401962d3                md5_block_data_order
                0x0000000040196ace                MD5_Update
                0x0000000040196bea                MD5_Transform
                0x0000000040196bfa                MD5_Final
                0x0000000040196cc7                MD5
                0x0000000040196d64                CRYPTO_set_mem_functions
                0x0000000040196ddb                CRYPTO_set_mem_ex_functions
                0x0000000040196e52                CRYPTO_set_locked_mem_functions
                0x0000000040196e92                CRYPTO_set_locked_mem_ex_functions
                0x0000000040196ed2                CRYPTO_set_mem_debug_functions
                0x0000000040196f0b                CRYPTO_get_mem_functions
                0x0000000040196f60                CRYPTO_get_mem_ex_functions
                0x0000000040196fb1                CRYPTO_get_locked_mem_functions
                0x0000000040196fe6                CRYPTO_get_locked_mem_ex_functions
                0x0000000040197019                CRYPTO_get_mem_debug_functions
                0x000000004019706a                CRYPTO_malloc_locked
                0x000000004019711a                CRYPTO_free_locked
                0x0000000040197161                CRYPTO_malloc
                0x0000000040197211                CRYPTO_strdup
                0x0000000040197256                CRYPTO_realloc
                0x00000000401972fe                CRYPTO_realloc_clean
                0x00000000401973cd                CRYPTO_free
                0x0000000040197414                CRYPTO_remalloc
                0x0000000040197441                CRYPTO_set_mem_debug_options
                0x0000000040197456                CRYPTO_get_mem_debug_options
                0x0000000040197470                OPENSSL_cleanse
                0x00000000401978f8                CRYPTO_mem_ctrl
                0x0000000040197a89                CRYPTO_is_mem_check_on
                0x0000000040197b05                CRYPTO_dbg_set_options
                0x0000000040197b12                CRYPTO_dbg_get_options
                0x0000000040197b1f                CRYPTO_push_info_
                0x0000000040197be8                CRYPTO_pop_info
                0x0000000040197c2a                CRYPTO_remove_all_info
                0x0000000040197c6d                CRYPTO_dbg_malloc
                0x0000000040197dfb                CRYPTO_dbg_free
                0x0000000040197e71                CRYPTO_dbg_realloc
                0x0000000040197f11                CRYPTO_mem_leaks
                0x0000000040198030                CRYPTO_mem_leaks_cb
                0x00000000401980fd                EVP_add_cipher
                0x0000000040198152                EVP_add_digest
                0x00000000401981fa                EVP_get_cipherbyname
                0x000000004019820a                EVP_get_digestbyname
                0x000000004019821a                EVP_cleanup
                0x0000000040198260                EVP_CIPHER_do_all
                0x0000000040198285                EVP_CIPHER_do_all_sorted
                0x00000000401982aa                EVP_MD_do_all
                0x00000000401982cf                EVP_MD_do_all_sorted
                0x00000000401983f4                OBJ_NAME_init
                0x0000000040198442                OBJ_NAME_new_index
                0x00000000401985ab                OBJ_NAME_get
                0x000000004019864e                OBJ_NAME_add
                0x000000004019872a                OBJ_NAME_remove
                0x00000000401987d8                OBJ_NAME_do_all
                0x0000000040198802                OBJ_NAME_do_all_sorted
                0x00000000401988a5                OBJ_NAME_cleanup
                0x0000000040198b6c                check_defer
                0x0000000040198b8d                OBJ_cleanup
                0x0000000040198bff                OBJ_new_nid
                0x0000000040198c13                OBJ_add_object
                0x0000000040198ddd                OBJ_nid2obj
                0x0000000040198e9b                OBJ_nid2sn
                0x0000000040198f5c                OBJ_nid2ln
                0x000000004019901e                OBJ_bsearch_ex_
                0x0000000040199139                OBJ_bsearch_
                0x000000004019914a                OBJ_obj2nid
                0x00000000401991d4                OBJ_obj2txt
                0x0000000040199530                OBJ_ln2nid
                0x00000000401995ab                OBJ_sn2nid
                0x0000000040199626                OBJ_txt2obj
                0x000000004019971b                OBJ_txt2nid
                0x000000004019974a                OBJ_create
                0x000000004019983e                OBJ_create_objects
                0x0000000040199990                ERR_load_OBJ_strings
                0x00000000401999d0                OBJ_dup
                0x0000000040199ba9                OBJ_cmp
                0x0000000040199bcb                ERR_load_OCSP_strings
                0x0000000040199c00                DES_ede3_ofb64_encrypt
                0x0000000040199dcf                DES_ofb64_encrypt
                0x000000004019a0da                EVP_PKEY_bits
                0x000000004019a10d                EVP_PKEY_size
                0x000000004019a142                EVP_PKEY_save_parameters
                0x000000004019a174                EVP_PKEY_missing_parameters
                0x000000004019a1a2                EVP_PKEY_copy_parameters
                0x000000004019a22f                EVP_PKEY_cmp_parameters
                0x000000004019a266                EVP_PKEY_cmp
                0x000000004019a2c1                EVP_PKEY_new
                0x000000004019a341                EVP_PKEY_set_type
                0x000000004019a356                EVP_PKEY_set_type_str
                0x000000004019a36b                EVP_PKEY_assign
                0x000000004019a393                EVP_PKEY_get0
                0x000000004019a39d                EVP_PKEY_set1_RSA
                0x000000004019a3c9                EVP_PKEY_get1_RSA
                0x000000004019a414                EVP_PKEY_set1_DSA
                0x000000004019a440                EVP_PKEY_get1_DSA
                0x000000004019a48b                EVP_PKEY_set1_EC_KEY
                0x000000004019a4b7                EVP_PKEY_get1_EC_KEY
                0x000000004019a505                EVP_PKEY_set1_DH
                0x000000004019a531                EVP_PKEY_get1_DH
                0x000000004019a57c                EVP_PKEY_type
                0x000000004019a59f                EVP_PKEY_id
                0x000000004019a5a7                EVP_PKEY_base_id
                0x000000004019a5b4                EVP_PKEY_free
                0x000000004019a611                EVP_PKEY_print_public
                0x000000004019a637                EVP_PKEY_print_private
                0x000000004019a65e                EVP_PKEY_print_params
                0x000000004019a687                EVP_PKEY_get_default_digest_nid
                0x000000004019a6c1                PEM_read_bio_X509_REQ
                0x000000004019a6e2                PEM_write_bio_X509_REQ
                0x000000004019a726                PEM_write_bio_X509_REQ_NEW
                0x000000004019a76a                PEM_read_bio_X509_CRL
                0x000000004019a78b                PEM_write_bio_X509_CRL
                0x000000004019a7cf                PEM_read_bio_PKCS7
                0x000000004019a7f0                PEM_write_bio_PKCS7
                0x000000004019a834                PEM_read_bio_NETSCAPE_CERT_SEQUENCE
                0x000000004019a855                PEM_write_bio_NETSCAPE_CERT_SEQUENCE
                0x000000004019a899                PEM_read_bio_RSAPrivateKey
                0x000000004019a904                PEM_write_bio_RSAPrivateKey
                0x000000004019a93b                PEM_read_bio_RSAPublicKey
                0x000000004019a95c                PEM_write_bio_RSAPublicKey
                0x000000004019a9a0                PEM_read_bio_RSA_PUBKEY
                0x000000004019a9c1                PEM_write_bio_RSA_PUBKEY
                0x000000004019aa05                PEM_read_bio_DSAPrivateKey
                0x000000004019aa70                PEM_write_bio_DSAPrivateKey
                0x000000004019aaa7                PEM_read_bio_DSA_PUBKEY
                0x000000004019aac8                PEM_write_bio_DSA_PUBKEY
                0x000000004019ab0c                PEM_read_bio_DSAparams
                0x000000004019ab2d                PEM_write_bio_DSAparams
                0x000000004019ab71                PEM_read_bio_ECPrivateKey
                0x000000004019abdc                PEM_read_bio_ECPKParameters
                0x000000004019abfd                PEM_write_bio_ECPKParameters
                0x000000004019ac41                PEM_write_bio_ECPrivateKey
                0x000000004019ac78                PEM_read_bio_EC_PUBKEY
                0x000000004019ac99                PEM_write_bio_EC_PUBKEY
                0x000000004019acdd                PEM_read_bio_DHparams
                0x000000004019acfe                PEM_write_bio_DHparams
                0x000000004019ad42                PEM_read_bio_PUBKEY
                0x000000004019ad63                PEM_write_bio_PUBKEY
                0x000000004019ada7                ERR_load_PEM_strings
                0x000000004019ade0                PEM_def_callback
                0x000000004019ae0a                PEM_proc_type
                0x000000004019ae79                PEM_dek_info
                0x000000004019af3e                PEM_do_header
                0x000000004019b10a                PEM_get_EVP_CIPHER_INFO
                0x000000004019b3ba                PEM_write_bio
                0x000000004019b66d                PEM_ASN1_write_bio
                0x000000004019ba88                PEM_read_bio
                0x000000004019c1a8                pem_check_suffix
                0x000000004019c215                PEM_bytes_read_bio
                0x000000004019c569                PEM_ASN1_read_bio
                0x000000004019c606                PEM_read_bio_PrivateKey
                0x000000004019c85d                PEM_write_bio_PrivateKey
                0x000000004019c914                PEM_read_bio_Parameters
                0x000000004019ca3a                PEM_write_bio_Parameters
                0x000000004019cac3                PEM_read_bio_X509
                0x000000004019cae4                PEM_write_bio_X509
                0x000000004019cb28                ERR_load_PKCS12_strings
                0x000000004019cc29                d2i_PKCS7
                0x000000004019cc39                i2d_PKCS7
                0x000000004019cc49                PKCS7_new
                0x000000004019cc59                PKCS7_free
                0x000000004019cc69                i2d_PKCS7_NDEF
                0x000000004019cc79                PKCS7_dup
                0x000000004019cc8c                d2i_PKCS7_SIGNED
                0x000000004019cc9c                i2d_PKCS7_SIGNED
                0x000000004019ccac                PKCS7_SIGNED_new
                0x000000004019ccbc                PKCS7_SIGNED_free
                0x000000004019cccc                d2i_PKCS7_SIGNER_INFO
                0x000000004019ccdc                i2d_PKCS7_SIGNER_INFO
                0x000000004019ccec                PKCS7_SIGNER_INFO_new
                0x000000004019ccfc                PKCS7_SIGNER_INFO_free
                0x000000004019cd0c                d2i_PKCS7_ISSUER_AND_SERIAL
                0x000000004019cd1c                i2d_PKCS7_ISSUER_AND_SERIAL
                0x000000004019cd2c                PKCS7_ISSUER_AND_SERIAL_new
                0x000000004019cd3c                PKCS7_ISSUER_AND_SERIAL_free
                0x000000004019cd4c                d2i_PKCS7_ENVELOPE
                0x000000004019cd5c                i2d_PKCS7_ENVELOPE
                0x000000004019cd6c                PKCS7_ENVELOPE_new
                0x000000004019cd7c                PKCS7_ENVELOPE_free
                0x000000004019cd8c                d2i_PKCS7_RECIP_INFO
                0x000000004019cd9c                i2d_PKCS7_RECIP_INFO
                0x000000004019cdac                PKCS7_RECIP_INFO_new
                0x000000004019cdbc                PKCS7_RECIP_INFO_free
                0x000000004019cdcc                d2i_PKCS7_ENC_CONTENT
                0x000000004019cddc                i2d_PKCS7_ENC_CONTENT
                0x000000004019cdec                PKCS7_ENC_CONTENT_new
                0x000000004019cdfc                PKCS7_ENC_CONTENT_free
                0x000000004019ce0c                d2i_PKCS7_SIGN_ENVELOPE
                0x000000004019ce1c                i2d_PKCS7_SIGN_ENVELOPE
                0x000000004019ce2c                PKCS7_SIGN_ENVELOPE_new
                0x000000004019ce3c                PKCS7_SIGN_ENVELOPE_free
                0x000000004019ce4c                d2i_PKCS7_ENCRYPT
                0x000000004019ce5c                i2d_PKCS7_ENCRYPT
                0x000000004019ce6c                PKCS7_ENCRYPT_new
                0x000000004019ce7c                PKCS7_ENCRYPT_free
                0x000000004019ce8c                d2i_PKCS7_DIGEST
                0x000000004019ce9c                i2d_PKCS7_DIGEST
                0x000000004019ceac                PKCS7_DIGEST_new
                0x000000004019cebc                PKCS7_DIGEST_free
                0x000000004019cecc                PKCS7_print_ctx
                0x000000004019d43d                PKCS7_dataInit
                0x000000004019db2d                PKCS7_dataDecode
                0x000000004019e168                PKCS7_SIGNER_INFO_sign
                0x000000004019e331                PKCS7_get_issuer_and_serial
                0x000000004019e3a7                PKCS7_get_signed_attribute
                0x000000004019e3b6                PKCS7_dataFinal
                0x000000004019e969                PKCS7_get_attribute
                0x000000004019e978                PKCS7_digest_from_attributes
                0x000000004019e998                PKCS7_signatureVerify
                0x000000004019ecaf                PKCS7_dataVerify
                0x000000004019ee21                PKCS7_set_signed_attributes
                0x000000004019eeb1                PKCS7_set_attributes
                0x000000004019ef41                PKCS7_add_signed_attribute
                0x000000004019ef50                PKCS7_add_attribute
                0x000000004019ef60                PKCS7_ctrl
                0x000000004019f098                PKCS7_set_content
                0x000000004019f125                PKCS7_set_type
                0x000000004019f324                PKCS7_content_new
                0x000000004019f386                PKCS7_set0_type_other
                0x000000004019f3ac                PKCS7_add_signer
                0x000000004019f510                PKCS7_add_certificate
                0x000000004019f5eb                PKCS7_add_crl
                0x000000004019f6cb                PKCS7_SIGNER_INFO_set
                0x000000004019f826                PKCS7_add_signature
                0x000000004019f8ea                PKCS7_set_digest
                0x000000004019f9a9                PKCS7_get_signer_info
                0x000000004019f9f2                PKCS7_SIGNER_INFO_get0_algs
                0x000000004019fa1c                PKCS7_RECIP_INFO_get0_alg
                0x000000004019fa2e                PKCS7_add_recipient_info
                0x000000004019fa9d                PKCS7_RECIP_INFO_set
                0x000000004019fc36                PKCS7_add_recipient
                0x000000004019fc96                PKCS7_cert_from_signer_info
                0x000000004019fcda                PKCS7_set_cipher
                0x000000004019fd74                PKCS7_stream
                0x000000004019fe3a                ERR_load_PKCS7_strings
                0x000000004019fe6f                ERR_load_RAND_strings
                0x000000004019feb0                DES_random_key
                0x000000004019fef0                RAND_set_rand_method
                0x000000004019ff02                RAND_get_rand_method
                0x000000004019ff2d                RAND_cleanup
                0x000000004019ff53                RAND_seed
                0x000000004019ff7f                RAND_add
                0x000000004019ffbe                RAND_bytes
                0x000000004019fff9                RAND_pseudo_bytes
                0x00000000401a0034                RAND_status
                0x00000000401a005b                RC2_encrypt
                0x00000000401a01ae                RC2_decrypt
                0x00000000401a0312                RC2_cbc_encrypt
                0x00000000401a093a                RC2_ecb_encrypt
                0x00000000401a0a01                RC2_set_key
                0x00000000401a0b30                RC2_cfb64_encrypt
                0x00000000401a0d45                RC2_ofb64_encrypt
                0x00000000401a0ef8                RC4
                0x00000000401a1353                RC4_options
                0x00000000401a135e                RC4_set_key
                0x00000000401a1461                RIPEMD160_Init
                0x00000000401a14aa                ripemd160_block_data_order
                0x00000000401a2b4b                RIPEMD160_Update
                0x00000000401a2c67                RIPEMD160_Transform
                0x00000000401a2c77                RIPEMD160_Final
                0x00000000401a2d96                d2i_RSAPrivateKey
                0x00000000401a2da6                i2d_RSAPrivateKey
                0x00000000401a2db6                d2i_RSAPublicKey
                0x00000000401a2dc6                i2d_RSAPublicKey
                0x00000000401a2dd6                RSAPublicKey_dup
                0x00000000401a2de9                RSAPrivateKey_dup
                0x00000000401a2dfc                RSA_generate_key
                0x00000000401a2ebe                ERR_load_RSA_strings
                0x00000000401a2f00                RSA_generate_key_ex
                0x00000000401a3509                RSA_set_default_method
                0x00000000401a3516                RSA_get_default_method
                0x00000000401a3541                RSA_get_method
                0x00000000401a354b                RSA_set_method
                0x00000000401a3584                RSA_new_method
                0x00000000401a36db                RSA_new
                0x00000000401a36eb                RSA_free
                0x00000000401a37fb                RSA_up_ref
                0x00000000401a3828                RSA_get_ex_new_index
                0x00000000401a3847                RSA_set_ex_data
                0x00000000401a3856                RSA_get_ex_data
                0x00000000401a3865                RSA_size
                0x00000000401a3880                RSA_public_encrypt
                0x00000000401a388d                RSA_private_encrypt
                0x00000000401a389a                RSA_private_decrypt
                0x00000000401a38a7                RSA_public_decrypt
                0x00000000401a38b4                RSA_flags
                0x00000000401a38cd                RSA_blinding_off
                0x00000000401a3907                RSA_setup_blinding
                0x00000000401a3ba3                RSA_blinding_on
                0x00000000401a3bf2                RSA_memory_lock
                0x00000000401a3d40                RSA_sign
                0x00000000401a3f9a                int_rsa_verify
                0x00000000401a4337                RSA_verify
                0x00000000401a4380                DES_set_odd_parity
                0x00000000401a43a3                DES_check_key_parity
                0x00000000401a43eb                DES_is_weak_key
                0x00000000401a443c                DES_set_key_unchecked
                0x00000000401a46dc                DES_set_key_checked
                0x00000000401a472a                DES_set_key
                0x00000000401a474c                DES_key_sched
                0x00000000401a4757                SHA1
                0x00000000401a597e                SHA1_Update
                0x00000000401a5a9a                SHA1_Transform
                0x00000000401a5aaa                SHA1_Final
                0x00000000401a5b8d                SHA1_Init
                0x00000000401a736e                SHA224_Init
                0x00000000401a73d3                SHA256_Init
                0x00000000401a7438                SHA256_Update
                0x00000000401a7554                SHA224_Update
                0x00000000401a755f                SHA256_Transform
                0x00000000401a756f                SHA256_Final
                0x00000000401a76ab                SHA224
                0x00000000401a7719                SHA256
                0x00000000401a7787                SHA224_Final
                0x00000000401a8ed3                SHA384_Init
                0x00000000401a8f71                SHA512_Init
                0x00000000401a900f                SHA512_Final
                0x00000000401a9277                SHA384_Final
                0x00000000401a9282                SHA512_Update
                0x00000000401a937b                SHA384_Update
                0x00000000401a9386                SHA512_Transform
                0x00000000401a9396                SHA384
                0x00000000401a940a                SHA512
                0x00000000401aa4d4                SHA_Update
                0x00000000401aa5f0                SHA_Transform
                0x00000000401aa600                SHA_Final
                0x00000000401aa6e3                SHA_Init
                0x00000000401aa730                sk_set_cmp_func
                0x00000000401aa74a                sk_new
                0x00000000401aa7dc                sk_new_null
                0x00000000401aa7ec                sk_insert
                0x00000000401aa8a2                sk_delete
                0x00000000401aa900                sk_delete_ptr
                0x00000000401aa94e                sk_push
                0x00000000401aa95b                sk_unshift
                0x00000000401aa96b                sk_shift
                0x00000000401aa993                sk_pop
                0x00000000401aa9ba                sk_zero
                0x00000000401aa9ef                sk_free
                0x00000000401aaa1d                sk_dup
                0x00000000401aaab3                sk_pop_free
                0x00000000401aab05                sk_num
                0x00000000401aab19                sk_value
                0x00000000401aab4a                sk_set
                0x00000000401aab7e                sk_sort
                0x00000000401aac68                sk_find
                0x00000000401aac78                sk_find_ex
                0x00000000401aac88                sk_is_sorted
                0x00000000401ab145                ASN1_tag2bit
                0x00000000401ab160                asn1_ex_c2i
                0x00000000401ab9a0                ASN1_item_ex_d2i
                0x00000000401ac346                ASN1_item_d2i
                0x00000000401ac8bd                ASN1_template_d2i
                0x00000000401ac915                asn1_ex_i2c
                0x00000000401acc05                ASN1_item_ex_i2d
                0x00000000401ad066                ASN1_item_ndef_i2d
                0x00000000401ad076                ASN1_item_i2d
                0x00000000401ad533                ASN1_template_i2d
                0x00000000401ad550                ASN1_primitive_free
                0x00000000401ad86a                ASN1_item_free
                0x00000000401ad886                ASN1_item_ex_free
                0x00000000401ad896                ASN1_template_free
                0x00000000401ad9d2                ASN1_primitive_new
                0x00000000401addfd                ASN1_item_ex_new
                0x00000000401ade0d                ASN1_item_new
                0x00000000401ade3a                ASN1_template_new
                0x00000000401adede                d2i_ASN1_INTEGER
                0x00000000401adeee                i2d_ASN1_INTEGER
                0x00000000401adefe                ASN1_INTEGER_new
                0x00000000401adf0e                ASN1_INTEGER_free
                0x00000000401adf1e                d2i_ASN1_ENUMERATED
                0x00000000401adf2e                i2d_ASN1_ENUMERATED
                0x00000000401adf3e                ASN1_ENUMERATED_new
                0x00000000401adf4e                ASN1_ENUMERATED_free
                0x00000000401adf5e                d2i_ASN1_BIT_STRING
                0x00000000401adf6e                i2d_ASN1_BIT_STRING
                0x00000000401adf7e                ASN1_BIT_STRING_new
                0x00000000401adf8e                ASN1_BIT_STRING_free
                0x00000000401adf9e                d2i_ASN1_OCTET_STRING
                0x00000000401adfae                i2d_ASN1_OCTET_STRING
                0x00000000401adfbe                ASN1_OCTET_STRING_new
                0x00000000401adfce                ASN1_OCTET_STRING_free
                0x00000000401adfde                d2i_ASN1_NULL
                0x00000000401adfee                i2d_ASN1_NULL
                0x00000000401adffe                ASN1_NULL_new
                0x00000000401ae00e                ASN1_NULL_free
                0x00000000401ae01e                d2i_ASN1_UTF8STRING
                0x00000000401ae02e                i2d_ASN1_UTF8STRING
                0x00000000401ae03e                ASN1_UTF8STRING_new
                0x00000000401ae04e                ASN1_UTF8STRING_free
                0x00000000401ae05e                d2i_ASN1_PRINTABLESTRING
                0x00000000401ae06e                i2d_ASN1_PRINTABLESTRING
                0x00000000401ae07e                ASN1_PRINTABLESTRING_new
                0x00000000401ae08e                ASN1_PRINTABLESTRING_free
                0x00000000401ae09e                d2i_ASN1_T61STRING
                0x00000000401ae0ae                i2d_ASN1_T61STRING
                0x00000000401ae0be                ASN1_T61STRING_new
                0x00000000401ae0ce                ASN1_T61STRING_free
                0x00000000401ae0de                d2i_ASN1_IA5STRING
                0x00000000401ae0ee                i2d_ASN1_IA5STRING
                0x00000000401ae0fe                ASN1_IA5STRING_new
                0x00000000401ae10e                ASN1_IA5STRING_free
                0x00000000401ae11e                d2i_ASN1_GENERALSTRING
                0x00000000401ae12e                i2d_ASN1_GENERALSTRING
                0x00000000401ae13e                ASN1_GENERALSTRING_new
                0x00000000401ae14e                ASN1_GENERALSTRING_free
                0x00000000401ae15e                d2i_ASN1_UTCTIME
                0x00000000401ae16e                i2d_ASN1_UTCTIME
                0x00000000401ae17e                ASN1_UTCTIME_new
                0x00000000401ae18e                ASN1_UTCTIME_free
                0x00000000401ae19e                d2i_ASN1_GENERALIZEDTIME
                0x00000000401ae1ae                i2d_ASN1_GENERALIZEDTIME
                0x00000000401ae1be                ASN1_GENERALIZEDTIME_new
                0x00000000401ae1ce                ASN1_GENERALIZEDTIME_free
                0x00000000401ae1de                d2i_ASN1_VISIBLESTRING
                0x00000000401ae1ee                i2d_ASN1_VISIBLESTRING
                0x00000000401ae1fe                ASN1_VISIBLESTRING_new
                0x00000000401ae20e                ASN1_VISIBLESTRING_free
                0x00000000401ae21e                d2i_ASN1_UNIVERSALSTRING
                0x00000000401ae22e                i2d_ASN1_UNIVERSALSTRING
                0x00000000401ae23e                ASN1_UNIVERSALSTRING_new
                0x00000000401ae24e                ASN1_UNIVERSALSTRING_free
                0x00000000401ae25e                d2i_ASN1_BMPSTRING
                0x00000000401ae26e                i2d_ASN1_BMPSTRING
                0x00000000401ae27e                ASN1_BMPSTRING_new
                0x00000000401ae28e                ASN1_BMPSTRING_free
                0x00000000401ae29e                d2i_ASN1_TYPE
                0x00000000401ae2ae                i2d_ASN1_TYPE
                0x00000000401ae2be                ASN1_TYPE_new
                0x00000000401ae2ce                ASN1_TYPE_free
                0x00000000401ae2de                d2i_ASN1_PRINTABLE
                0x00000000401ae2ee                i2d_ASN1_PRINTABLE
                0x00000000401ae2fe                ASN1_PRINTABLE_new
                0x00000000401ae30e                ASN1_PRINTABLE_free
                0x00000000401ae31e                d2i_DISPLAYTEXT
                0x00000000401ae32e                i2d_DISPLAYTEXT
                0x00000000401ae33e                DISPLAYTEXT_new
                0x00000000401ae34e                DISPLAYTEXT_free
                0x00000000401ae35e                d2i_DIRECTORYSTRING
                0x00000000401ae36e                i2d_DIRECTORYSTRING
                0x00000000401ae37e                DIRECTORYSTRING_new
                0x00000000401ae38e                DIRECTORYSTRING_free
                0x00000000401ae39e                d2i_ASN1_SEQUENCE_ANY
                0x00000000401ae3ae                i2d_ASN1_SEQUENCE_ANY
                0x00000000401ae3be                d2i_ASN1_SET_ANY
                0x00000000401ae3ce                i2d_ASN1_SET_ANY
                0x00000000401ae425                asn1_get_choice_selector
                0x00000000401ae435                asn1_set_choice_selector
                0x00000000401ae449                asn1_do_lock
                0x00000000401ae4a8                asn1_enc_init
                0x00000000401ae4ce                asn1_enc_free
                0x00000000401ae50e                asn1_enc_save
                0x00000000401ae590                asn1_enc_restore
                0x00000000401ae608                asn1_get_field_ptr
                0x00000000401ae621                asn1_do_adb
                0x00000000401ae6e0                ERR_load_UI_strings
                0x00000000401ae715                ERR_load_X509V3_strings
                0x00000000401ae750                X509_issuer_and_serial_hash
                0x00000000401ae821                X509_CRL_match
                0x00000000401ae839                X509_get_issuer_name
                0x00000000401ae846                X509_get_subject_name
                0x00000000401ae853                X509_get_serialNumber
                0x00000000401ae860                X509_cmp
                0x00000000401ae8ac                X509_NAME_cmp
                0x00000000401ae929                X509_issuer_and_serial_cmp
                0x00000000401ae95d                X509_issuer_name_cmp
                0x00000000401ae976                X509_subject_name_cmp
                0x00000000401ae98f                X509_CRL_cmp
                0x00000000401ae9a8                X509_NAME_hash
                0x00000000401aea0e                X509_issuer_name_hash
                0x00000000401aea20                X509_subject_name_hash
                0x00000000401aea32                X509_NAME_hash_old
                0x00000000401aea9b                X509_issuer_name_hash_old
                0x00000000401aeaad                X509_subject_name_hash_old
                0x00000000401aeabf                X509_find_by_issuer_and_serial
                0x00000000401aeb42                X509_find_by_subject
                0x00000000401aeb9c                X509_get_pubkey
                0x00000000401aebc6                X509_get0_pubkey_bitstr
                0x00000000401aebe3                X509_check_private_key
                0x00000000401aec9a                ERR_load_X509_strings
                0x00000000401aeccf                X509_NAME_oneline
                0x00000000401af4b2                X509_time_adj_ex
                0x00000000401af503                X509_time_adj
                0x00000000401af519                X509_cmp_time
                0x00000000401af9ce                X509_cmp_current_time
                0x00000000401b054c                X509_gmtime_adj
                0x00000000401b055c                X509_get_pubkey_parameters
                0x00000000401b0693                X509_verify_cert
                0x00000000401b101f                X509_STORE_CTX_get_ex_new_index
                0x00000000401b103e                X509_STORE_CTX_set_ex_data
                0x00000000401b1050                X509_STORE_CTX_get_ex_data
                0x00000000401b1062                X509_STORE_CTX_get_error
                0x00000000401b106e                X509_STORE_CTX_set_error
                0x00000000401b107a                X509_STORE_CTX_get_error_depth
                0x00000000401b1086                X509_STORE_CTX_get_current_cert
                0x00000000401b1093                X509_STORE_CTX_get_chain
                0x00000000401b10a0                X509_STORE_CTX_get1_chain
                0x00000000401b1111                X509_STORE_CTX_get0_current_issuer
                0x00000000401b111e                X509_STORE_CTX_get0_current_crl
                0x00000000401b112b                X509_STORE_CTX_get0_parent_ctx
                0x00000000401b1138                X509_STORE_CTX_set_cert
                0x00000000401b1142                X509_STORE_CTX_set_chain
                0x00000000401b114c                X509_STORE_CTX_set0_crls
                0x00000000401b1156                X509_STORE_CTX_purpose_inherit
                0x00000000401b126d                X509_STORE_CTX_set_purpose
                0x00000000401b1284                X509_STORE_CTX_set_trust
                0x00000000401b129b                X509_STORE_CTX_new
                0x00000000401b1302                X509_STORE_CTX_init
                0x00000000401b1664                X509_STORE_CTX_trusted_stack
                0x00000000401b1676                X509_STORE_CTX_cleanup
                0x00000000401b1719                X509_STORE_CTX_free
                0x00000000401b1739                X509_STORE_CTX_set_depth
                0x00000000401b1748                X509_STORE_CTX_set_flags
                0x00000000401b1757                X509_STORE_CTX_set_time
                0x00000000401b1768                X509_STORE_CTX_set_verify_cb
                0x00000000401b1772                X509_STORE_CTX_get0_policy_tree
                0x00000000401b177f                X509_STORE_CTX_get_explicit_policy
                0x00000000401b178b                X509_STORE_CTX_set_default
                0x00000000401b17bc                X509_STORE_CTX_get0_param
                0x00000000401b17c6                X509_STORE_CTX_set0_param
                0x00000000401b1af0                X509_VERIFY_PARAM_free
                0x00000000401b1b7f                X509_VERIFY_PARAM_new
                0x00000000401b1c07                X509_VERIFY_PARAM_set1_name
                0x00000000401b1c3a                X509_VERIFY_PARAM_set_flags
                0x00000000401b1c60                X509_VERIFY_PARAM_clear_flags
                0x00000000401b1c72                X509_VERIFY_PARAM_get_flags
                0x00000000401b1c7c                X509_VERIFY_PARAM_set_purpose
                0x00000000401b1c8b                X509_VERIFY_PARAM_set_trust
                0x00000000401b1c9a                X509_VERIFY_PARAM_set_depth
                0x00000000401b1ca3                X509_VERIFY_PARAM_set_time
                0x00000000401b1cb1                X509_VERIFY_PARAM_add0_policy
                0x00000000401b1cf3                X509_VERIFY_PARAM_set1_policies
                0x00000000401b1dd1                X509_VERIFY_PARAM_inherit
                0x00000000401b1f25                X509_VERIFY_PARAM_set1
                0x00000000401b1f4c                X509_VERIFY_PARAM_get_depth
                0x00000000401b1f55                X509_VERIFY_PARAM_add0_table
                0x00000000401b1fdb                X509_VERIFY_PARAM_lookup
                0x00000000401b2031                X509_VERIFY_PARAM_table_cleanup
                0x00000000401b2064                d2i_X509_ALGOR
                0x00000000401b2074                i2d_X509_ALGOR
                0x00000000401b2084                X509_ALGOR_new
                0x00000000401b2094                X509_ALGOR_free
                0x00000000401b20a4                d2i_X509_ALGORS
                0x00000000401b20b4                i2d_X509_ALGORS
                0x00000000401b20c4                X509_ALGOR_dup
                0x00000000401b20d7                X509_ALGOR_set0
                0x00000000401b217b                X509_ALGOR_get0
                0x00000000401b21b6                X509_verify
                0x00000000401b21d4                X509_REQ_verify
                0x00000000401b21f2                NETSCAPE_SPKI_verify
                0x00000000401b2210                X509_sign
                0x00000000401b2247                X509_REQ_sign
                0x00000000401b2272                X509_CRL_sign
                0x00000000401b22a9                NETSCAPE_SPKI_sign
                0x00000000401b22d4                d2i_X509_bio
                0x00000000401b22ea                i2d_X509_bio
                0x00000000401b2300                d2i_X509_CRL_bio
                0x00000000401b2316                i2d_X509_CRL_bio
                0x00000000401b232c                d2i_PKCS7_bio
                0x00000000401b2342                i2d_PKCS7_bio
                0x00000000401b2358                d2i_X509_REQ_bio
                0x00000000401b236e                i2d_X509_REQ_bio
                0x00000000401b2384                d2i_RSAPrivateKey_bio
                0x00000000401b239a                i2d_RSAPrivateKey_bio
                0x00000000401b23b0                d2i_RSAPublicKey_bio
                0x00000000401b23c6                d2i_RSA_PUBKEY_bio
                0x00000000401b23e1                i2d_RSAPublicKey_bio
                0x00000000401b23f7                i2d_RSA_PUBKEY_bio
                0x00000000401b240d                d2i_DSAPrivateKey_bio
                0x00000000401b2428                i2d_DSAPrivateKey_bio
                0x00000000401b243e                d2i_DSA_PUBKEY_bio
                0x00000000401b2459                i2d_DSA_PUBKEY_bio
                0x00000000401b246f                d2i_EC_PUBKEY_bio
                0x00000000401b248a                i2d_EC_PUBKEY_bio
                0x00000000401b24a0                d2i_ECPrivateKey_bio
                0x00000000401b24bb                i2d_ECPrivateKey_bio
                0x00000000401b24d1                X509_pubkey_digest
                0x00000000401b251f                X509_digest
                0x00000000401b2538                X509_CRL_digest
                0x00000000401b2551                X509_REQ_digest
                0x00000000401b256a                X509_NAME_digest
                0x00000000401b2583                PKCS7_ISSUER_AND_SERIAL_digest
                0x00000000401b259c                d2i_PKCS8_bio
                0x00000000401b25b7                i2d_PKCS8_bio
                0x00000000401b25cd                d2i_PKCS8_PRIV_KEY_INFO_bio
                0x00000000401b25e8                i2d_PKCS8_PRIV_KEY_INFO_bio
                0x00000000401b25fe                i2d_PKCS8PrivateKeyInfo_bio
                0x00000000401b263b                i2d_PrivateKey_bio
                0x00000000401b2651                d2i_PrivateKey_bio
                0x00000000401b266c                i2d_PUBKEY_bio
                0x00000000401b2682                d2i_PUBKEY_bio
                0x00000000401b269d                d2i_X509_ATTRIBUTE
                0x00000000401b26ad                i2d_X509_ATTRIBUTE
                0x00000000401b26bd                X509_ATTRIBUTE_new
                0x00000000401b26cd                X509_ATTRIBUTE_free
                0x00000000401b26dd                X509_ATTRIBUTE_dup
                0x00000000401b26f0                X509_ATTRIBUTE_create
                0x00000000401b2ead                d2i_X509_REVOKED
                0x00000000401b2ebd                i2d_X509_REVOKED
                0x00000000401b2ecd                X509_REVOKED_new
                0x00000000401b2edd                X509_REVOKED_free
                0x00000000401b2eed                d2i_X509_CRL_INFO
                0x00000000401b2efd                i2d_X509_CRL_INFO
                0x00000000401b2f0d                X509_CRL_INFO_new
                0x00000000401b2f1d                X509_CRL_INFO_free
                0x00000000401b2f2d                d2i_X509_CRL
                0x00000000401b2f3d                i2d_X509_CRL
                0x00000000401b2f4d                X509_CRL_new
                0x00000000401b2f5d                X509_CRL_free
                0x00000000401b2f6d                X509_CRL_dup
                0x00000000401b2f80                X509_CRL_add0_revoked
                0x00000000401b2fef                X509_CRL_verify
                0x00000000401b300a                X509_CRL_get0_by_serial
                0x00000000401b302b                X509_CRL_get0_by_cert
                0x00000000401b3087                X509_CRL_set_default_method
                0x00000000401b30a0                X509_CRL_METHOD_new
                0x00000000401b30ef                X509_CRL_METHOD_free
                0x00000000401b3100                X509_CRL_set_meth_data
                0x00000000401b310a                X509_CRL_get_meth_data
                0x00000000401b3114                d2i_X509_EXTENSION
                0x00000000401b3124                i2d_X509_EXTENSION
                0x00000000401b3134                X509_EXTENSION_new
                0x00000000401b3144                X509_EXTENSION_free
                0x00000000401b3154                d2i_X509_EXTENSIONS
                0x00000000401b3164                i2d_X509_EXTENSIONS
                0x00000000401b3174                X509_EXTENSION_dup
                0x00000000401b3350                X509_NAME_ENTRY_free
                0x00000000401b351f                d2i_X509_NAME_ENTRY
                0x00000000401b352f                i2d_X509_NAME_ENTRY
                0x00000000401b353f                X509_NAME_ENTRY_new
                0x00000000401b3a3d                X509_NAME_ENTRY_dup
                0x00000000401b3a50                d2i_X509_NAME
                0x00000000401b3a60                i2d_X509_NAME
                0x00000000401b3a70                X509_NAME_new
                0x00000000401b3a80                X509_NAME_free
                0x00000000401b3c20                X509_NAME_dup
                0x00000000401b3c33                X509_NAME_set
                0x00000000401b3ca2                d2i_X509_PUBKEY
                0x00000000401b3cb2                i2d_X509_PUBKEY
                0x00000000401b3cc2                X509_PUBKEY_new
                0x00000000401b3cd2                X509_PUBKEY_free
                0x00000000401b3ce2                X509_PUBKEY_set
                0x00000000401b3dcd                X509_PUBKEY_get
                0x00000000401b3f31                d2i_PUBKEY
                0x00000000401b3f9c                i2d_PUBKEY
                0x00000000401b3fea                d2i_RSA_PUBKEY
                0x00000000401b406e                i2d_RSA_PUBKEY
                0x00000000401b40ed                d2i_DSA_PUBKEY
                0x00000000401b4171                i2d_DSA_PUBKEY
                0x00000000401b41f0                d2i_EC_PUBKEY
                0x00000000401b4274                i2d_EC_PUBKEY
                0x00000000401b42f3                X509_PUBKEY_set0_param
                0x00000000401b4364                X509_PUBKEY_get0_param
                0x00000000401b43cf                d2i_X509_REQ_INFO
                0x00000000401b43df                i2d_X509_REQ_INFO
                0x00000000401b43ef                X509_REQ_INFO_new
                0x00000000401b43ff                X509_REQ_INFO_free
                0x00000000401b440f                d2i_X509_REQ
                0x00000000401b441f                i2d_X509_REQ
                0x00000000401b442f                X509_REQ_new
                0x00000000401b443f                X509_REQ_free
                0x00000000401b444f                X509_REQ_dup
                0x00000000401b4462                d2i_X509_SIG
                0x00000000401b4472                i2d_X509_SIG
                0x00000000401b4482                X509_SIG_new
                0x00000000401b4492                X509_SIG_free
                0x00000000401b44a2                d2i_NETSCAPE_SPKAC
                0x00000000401b44b2                i2d_NETSCAPE_SPKAC
                0x00000000401b44c2                NETSCAPE_SPKAC_new
                0x00000000401b44d2                NETSCAPE_SPKAC_free
                0x00000000401b44e2                d2i_NETSCAPE_SPKI
                0x00000000401b44f2                i2d_NETSCAPE_SPKI
                0x00000000401b4502                NETSCAPE_SPKI_new
                0x00000000401b4512                NETSCAPE_SPKI_free
                0x00000000401b463e                d2i_X509_CINF
                0x00000000401b464e                i2d_X509_CINF
                0x00000000401b465e                X509_CINF_new
                0x00000000401b466e                X509_CINF_free
                0x00000000401b467e                d2i_X509
                0x00000000401b468e                i2d_X509
                0x00000000401b469e                X509_new
                0x00000000401b46ae                X509_free
                0x00000000401b46be                X509_dup
                0x00000000401b46d1                X509_get_ex_new_index
                0x00000000401b46f0                X509_set_ex_data
                0x00000000401b46ff                X509_get_ex_data
                0x00000000401b470e                d2i_X509_AUX
                0x00000000401b4770                i2d_X509_AUX
                0x00000000401b47b0                d2i_X509_CERT_AUX
                0x00000000401b47c0                i2d_X509_CERT_AUX
                0x00000000401b47d0                X509_CERT_AUX_new
                0x00000000401b4821                X509_CERT_AUX_free
                0x00000000401b4831                X509_alias_set1
                0x00000000401b48de                X509_keyid_set1
                0x00000000401b498b                X509_alias_get0
                0x00000000401b49cc                X509_keyid_get0
                0x00000000401b4a0d                X509_add1_trust_object
                0x00000000401b4a6d                X509_add1_reject_object
                0x00000000401b4ad0                X509_trust_clear
                0x00000000401b4b0f                X509_reject_clear
                0x00000000401b4b50                d2i_X509_CERT_PAIR
                0x00000000401b4b60                i2d_X509_CERT_PAIR
                0x00000000401b4b70                X509_CERT_PAIR_new
                0x00000000401b4b80                X509_CERT_PAIR_free
                0x00000000401b4b90                DES_xcbc_encrypt
                0x00000000401b52f2                ERR_load_TS_strings
                0x00000000401b5327                ERR_load_CMS_strings
                0x00000000401b53ae                OBJ_find_sigid_algs
                0x00000000401b5432                OBJ_find_sigid_by_algs
                0x00000000401b54bb                OBJ_add_sigid
                0x00000000401b55c0                OBJ_sigid_free
                0x00000000401b5636                EVP_whirlpool
                0x00000000401b5661                EVP_PKEY_meth_find
                0x00000000401b56da                EVP_PKEY_meth_new
                0x00000000401b57f7                EVP_PKEY_meth_free
                0x00000000401b580e                EVP_PKEY_meth_add0
                0x00000000401b586c                EVP_PKEY_CTX_free
                0x00000000401b59f2                EVP_PKEY_CTX_new
                0x00000000401b5a02                EVP_PKEY_CTX_new_id
                0x00000000401b5a14                EVP_PKEY_CTX_dup
                0x00000000401b5b12                EVP_PKEY_CTX_ctrl
                0x00000000401b5c06                EVP_PKEY_CTX_ctrl_str
                0x00000000401b5ce8                EVP_PKEY_CTX_get_operation
                0x00000000401b5cf1                EVP_PKEY_CTX_set0_keygen_info
                0x00000000401b5cfe                EVP_PKEY_CTX_set_data
                0x00000000401b5d08                EVP_PKEY_CTX_get_data
                0x00000000401b5d12                EVP_PKEY_CTX_get0_pkey
                0x00000000401b5d1c                EVP_PKEY_CTX_get0_peerkey
                0x00000000401b5d26                EVP_PKEY_CTX_set_app_data
                0x00000000401b5d30                EVP_PKEY_CTX_get_app_data
                0x00000000401b5d3a                EVP_PKEY_meth_set_init
                0x00000000401b5d44                EVP_PKEY_meth_set_copy
                0x00000000401b5d4e                EVP_PKEY_meth_set_cleanup
                0x00000000401b5d58                EVP_PKEY_meth_set_paramgen
                0x00000000401b5d66                EVP_PKEY_meth_set_keygen
                0x00000000401b5d74                EVP_PKEY_meth_set_sign
                0x00000000401b5d82                EVP_PKEY_meth_set_verify
                0x00000000401b5d90                EVP_PKEY_meth_set_verify_recover
                0x00000000401b5d9e                EVP_PKEY_meth_set_signctx
                0x00000000401b5dac                EVP_PKEY_meth_set_verifyctx
                0x00000000401b5dc0                EVP_PKEY_meth_set_encrypt
                0x00000000401b5dd4                EVP_PKEY_meth_set_decrypt
                0x00000000401b5de8                EVP_PKEY_meth_set_derive
                0x00000000401b5dfc                EVP_PKEY_meth_set_ctrl
                0x00000000401b5e30                EVP_PKEY_asn1_get_count
                0x00000000401b5e50                EVP_PKEY_asn1_get0
                0x00000000401b5e82                EVP_PKEY_asn1_find
                0x00000000401b5f2a                EVP_PKEY_asn1_find_str
                0x00000000401b5fb2                EVP_PKEY_asn1_add0
                0x00000000401b6010                EVP_PKEY_asn1_get0_info
                0x00000000401b6066                EVP_PKEY_get0_asn1
                0x00000000401b6070                EVP_PKEY_asn1_copy
                0x00000000401b6138                EVP_PKEY_asn1_free
                0x00000000401b617a                EVP_PKEY_asn1_new
                0x00000000401b62e4                EVP_PKEY_asn1_add_alias
                0x00000000401b6321                EVP_PKEY_asn1_set_public
                0x00000000401b6343                EVP_PKEY_asn1_set_private
                0x00000000401b6355                EVP_PKEY_asn1_set_param
                0x00000000401b6380                EVP_PKEY_asn1_set_free
                0x00000000401b638d                EVP_PKEY_asn1_set_ctrl
                0x00000000401b63a0                EVP_PKEY_sign_init
                0x00000000401b6413                EVP_PKEY_sign
                0x00000000401b650d                EVP_PKEY_verify_init
                0x00000000401b6580                EVP_PKEY_verify
                0x00000000401b65f1                EVP_PKEY_verify_recover_init
                0x00000000401b6664                EVP_PKEY_verify_recover
                0x00000000401b675e                EVP_PKEY_encrypt_init
                0x00000000401b67d7                EVP_PKEY_encrypt
                0x00000000401b68da                EVP_PKEY_decrypt_init
                0x00000000401b6953                EVP_PKEY_decrypt
                0x00000000401b6a56                EVP_PKEY_derive_init
                0x00000000401b6acf                EVP_PKEY_derive_set_peer
                0x00000000401b6caf                EVP_PKEY_derive
                0x00000000401b6eec                ASN1_PCTX_new
                0x00000000401b6f58                ASN1_PCTX_free
                0x00000000401b6f63                ASN1_PCTX_get_flags
                0x00000000401b6f6c                ASN1_PCTX_set_flags
                0x00000000401b6f75                ASN1_PCTX_get_nm_flags
                0x00000000401b6f7f                ASN1_PCTX_set_nm_flags
                0x00000000401b6f89                ASN1_PCTX_get_cert_flags
                0x00000000401b6f93                ASN1_PCTX_set_cert_flags
                0x00000000401b6f9d                ASN1_PCTX_get_oid_flags
                0x00000000401b6fa7                ASN1_PCTX_set_oid_flags
                0x00000000401b6fb1                ASN1_PCTX_get_str_flags
                0x00000000401b6fbb                ASN1_PCTX_set_str_flags
                0x00000000401b6fc5                asn1_template_print_ctx
                0x00000000401b78e7                ASN1_item_print
                0x00000000401b7aba                EVP_DigestSignInit
                0x00000000401b7acb                EVP_DigestVerifyInit
                0x00000000401b7adc                EVP_DigestSignFinal
                0x00000000401b7c20                EVP_DigestVerifyFinal
                0x00000000401b7cf0                WHIRLPOOL_Init
                0x00000000401b7d0a                WHIRLPOOL_BitUpdate
                0x00000000401b8015                WHIRLPOOL_Update
                0x00000000401b80dd                WHIRLPOOL_Final
                0x00000000401b81e7                WHIRLPOOL
                0x00000000401bb3dc                DHparams_print
                0x00000000401bd22e                whirlpool_block
                0x00000000401bdd4f                EVP_PKEY_paramgen_init
                0x00000000401bddc2                EVP_PKEY_paramgen
                0x00000000401bde7b                EVP_PKEY_keygen_init
                0x00000000401bdeee                EVP_PKEY_keygen
                0x00000000401bdfa7                EVP_PKEY_CTX_set_cb
                0x00000000401bdfb1                EVP_PKEY_CTX_get_cb
                0x00000000401bdfbb                evp_pkey_set_cb_translate
                0x00000000401bdfd3                EVP_PKEY_CTX_get_keygen_info
                0x00000000401be002                EVP_PKEY_new_mac_key
                0x00000000401be179                CMS_SignedData_init
                0x00000000401be18d                cms_set1_SignerIdentifier
                0x00000000401be2a2                cms_SignerIdentifier_get0_signer_id
                0x00000000401be2f3                cms_SignerIdentifier_cert_cmp
                0x00000000401be372                CMS_get0_SignerInfos
                0x00000000401be38d                CMS_get0_signers
                0x00000000401be415                CMS_SignerInfo_set1_signer_cert
                0x00000000401be476                CMS_SignerInfo_get0_signer_id
                0x00000000401be485                CMS_SignerInfo_cert_cmp
                0x00000000401be494                CMS_set1_signers_certs
                0x00000000401be5c1                CMS_SignerInfo_get0_algs
                0x00000000401be5f7                CMS_SignerInfo_sign
                0x00000000401be857                cms_SignedData_final
                0x00000000401bea8e                CMS_SignerInfo_verify
                0x00000000401bebb9                cms_SignedData_init_bio
                0x00000000401bed7f                CMS_SignerInfo_verify_content
                0x00000000401bef55                CMS_add_smimecap
                0x00000000401befac                CMS_add_simple_smimecap
                0x00000000401bf0f0                CMS_add_standard_smimecap
                0x00000000401bf207                CMS_add1_signer
                0x00000000401bf74a                CMS_get0_RecipientInfos
                0x00000000401bf765                CMS_RecipientInfo_type
                0x00000000401bf76d                CMS_EnvelopedData_create
                0x00000000401bf86b                CMS_add1_recipient_cert
                0x00000000401bfa62                CMS_RecipientInfo_ktri_get0_algs
                0x00000000401bfac7                CMS_RecipientInfo_ktri_get0_signer_id
                0x00000000401bfb05                CMS_RecipientInfo_ktri_cert_cmp
                0x00000000401bfb43                CMS_RecipientInfo_set0_pkey
                0x00000000401bfb82                CMS_RecipientInfo_kekri_id_cmp
                0x00000000401bfbe1                CMS_add0_recipient_key
                0x00000000401bfe5f                CMS_RecipientInfo_kekri_get0_id
                0x00000000401bff06                CMS_RecipientInfo_set0_key
                0x00000000401bff49                CMS_RecipientInfo_decrypt
                0x00000000401c031d                cms_EnvelopedData_init_bio
                0x00000000401c07c0                EC_KEY_print
                0x00000000401c081f                ECParameters_print
                0x00000000401c0881                ECPKParameters_print
                0x00000000401c1475                CMS_signed_get_attr_count
                0x00000000401c1484                CMS_signed_get_attr_by_NID
                0x00000000401c1493                CMS_signed_get_attr_by_OBJ
                0x00000000401c14a2                CMS_signed_get_attr
                0x00000000401c14b1                CMS_signed_delete_attr
                0x00000000401c14c0                CMS_signed_add1_attr
                0x00000000401c14d8                CMS_signed_add1_attr_by_OBJ
                0x00000000401c14f0                CMS_signed_add1_attr_by_NID
                0x00000000401c1508                CMS_signed_add1_attr_by_txt
                0x00000000401c1520                CMS_signed_get0_data_by_OBJ
                0x00000000401c152f                CMS_unsigned_get_attr_count
                0x00000000401c153e                CMS_unsigned_get_attr_by_NID
                0x00000000401c154d                CMS_unsigned_get_attr_by_OBJ
                0x00000000401c155c                CMS_unsigned_get_attr
                0x00000000401c156b                CMS_unsigned_delete_attr
                0x00000000401c157a                CMS_unsigned_add1_attr
                0x00000000401c1592                CMS_unsigned_add1_attr_by_OBJ
                0x00000000401c15aa                CMS_unsigned_add1_attr_by_NID
                0x00000000401c15c2                CMS_unsigned_add1_attr_by_txt
                0x00000000401c15da                CMS_unsigned_get0_data_by_OBJ
                0x00000000401c175b                d2i_CMS_ContentInfo
                0x00000000401c176b                i2d_CMS_ContentInfo
                0x00000000401c177b                CMS_ContentInfo_new
                0x00000000401c178b                CMS_ContentInfo_free
                0x00000000401c179b                CMS_ContentInfo_print_ctx
                0x00000000401c17ae                CMS_get0_type
                0x00000000401c17b7                CMS_get0_content
                0x00000000401c1893                cms_content_bio
                0x00000000401c18e3                CMS_dataInit
                0x00000000401c19d5                CMS_dataFinal
                0x00000000401c1b39                CMS_get0_eContentType
                0x00000000401c1b53                CMS_set1_eContentType
                0x00000000401c1ba5                CMS_is_detached
                0x00000000401c1bc6                CMS_set_detached
                0x00000000401c1c53                cms_Data_create
                0x00000000401c1c8d                cms_DigestAlgorithm_set
                0x00000000401c1cd0                cms_DigestAlgorithm_init_bio
                0x00000000401c1dc9                cms_DigestAlgorithm_find_ctx
                0x00000000401c1ea9                CMS_add0_CertificateChoices
                0x00000000401c1f21                CMS_add0_cert
                0x00000000401c1fdf                CMS_add1_cert
                0x00000000401c201a                CMS_add0_RevocationInfoChoice
                0x00000000401c2092                CMS_add0_crl
                0x00000000401c20c5                CMS_add1_crl
                0x00000000401c2100                CMS_get1_certs
                0x00000000401c21c0                CMS_get1_crls
                0x00000000401c23b9                cms_EncryptedContent_init_bio
                0x00000000401c27a8                cms_EncryptedContent_init
                0x00000000401c281e                CMS_EncryptedData_set1_key
                0x00000000401c2912                cms_EncryptedData_init_bio
                0x00000000401c293a                AES_wrap_key
                0x00000000401c2a64                AES_unwrap_key
                0x00000000401c2bbb                cms_DigestedData_create
                0x00000000401c2c41                cms_DigestedData_init_bio
                0x00000000401c2c54                cms_DigestedData_do_final
                0x00000000401c2d68                CMS_stream
                0x00000000401c2de6                d2i_CMS_bio
                0x00000000401c2dfc                i2d_CMS_bio
                0x00000000401c2e12                PEM_read_bio_CMS
                0x00000000401c2e33                PEM_write_bio_CMS
                0x00000000401c2e77                BIO_new_CMS
                0x00000000401c2e87                i2d_CMS_bio_stream
                0x00000000401c2e98                PEM_write_bio_CMS_stream
                0x00000000401c2eaf                SMIME_write_CMS
                0x00000000401c2f2d                SMIME_read_CMS
                0x00000000401c3849                SMIME_read_ASN1
                0x00000000401c3c69                SMIME_crlf_copy
                0x00000000401c3db7                i2d_ASN1_bio_stream
                0x00000000401c3f26                PEM_write_bio_ASN1_stream
                0x00000000401c3f9b                SMIME_write_ASN1
                0x00000000401c4640                SMIME_text
                0x00000000401c4974                BIO_new_NDEF
                0x00000000401c50ee                BIO_f_asn1
                0x00000000401c50f9                BIO_asn1_set_prefix
                0x00000000401c511e                BIO_asn1_get_prefix
                0x00000000401c515e                BIO_asn1_set_suffix
                0x00000000401c5183                BIO_asn1_get_suffix
                0x00000000401c51d0                chelp_snprintf
                0x00000000401c520d                chelp_sprintf
                0x00000000401c5254                chelp_print
                0x00000000401c526c                chelp_printf
                0x00000000401c52d4                chelp_mod_64_32_32
                0x00000000401c52e9                chelp_div_64_32_32
                0x00000000401c52fc                chelp_div_64_32_64
                0x00000000401c530f                chelp_mul_64_64_64
                0x00000000401c531c                BIO_printf
                0x00000000401c5359                BIO_snprintf
                0x00000000401c538f                chelp_abort
                0x00000000401c53a2                RAND_poll
                0x00000000401c53c1                InitCryptoLibrary
                0x00000000401c5440                chelp_malloc
                0x00000000401c5457                chelp_realloc
                0x00000000401c5481                chelp_free
                0x00000000401c5492                chelp_swap
                0x00000000401c54c4                chelp_qsort
                0x00000000401c58a3                chelp_bsearch
                0x00000000401c597a                chelp_memchr
                0x00000000401c59bf                chelp_memmove
                0x00000000401c5a46                chelp_memcmp
                0x00000000401c5ab6                chelp_memcpy
                0x00000000401c5ae3                chelp_memset
                0x00000000401c5b10                chelp_isupper
                0x00000000401c5b23                chelp_islower
                0x00000000401c5b36                chelp_toupper
                0x00000000401c5b42                chelp_tolower
                0x00000000401c5b4e                chelp_isspace
                0x00000000401c5b6c                chelp_isdigit
                0x00000000401c5b7f                chelp_isxdigit
                0x00000000401c5ba2                chelp_isalpha
                0x00000000401c5bb8                chelp_isalnum
                0x00000000401c5bd9                chelp_strtoul_ex
                0x00000000401c5dc3                chelp_strtol
                0x00000000401c5dd3                chelp_strtoul
                0x00000000401c5de3                chelp_strcpy
                0x00000000401c5e13                chelp_strncpy
                0x00000000401c5e87                chelp_strcat
                0x00000000401c5ecc                chelp_strcmp
                0x00000000401c5f30                chelp_strncmp
                0x00000000401c6089                chelp_stricmp
                0x00000000401c60c9                chelp_strchr
                0x00000000401c6107                chelp_strrchr
                0x00000000401c6137                chelp_strlen
                0x00000000401c616b                chelp_strncasecmp
                0x00000000401c61c2                decryptcfg
                0x00000000401c6241                ASN1_BIT_STRING_set
                0x00000000401c624c                i2c_ASN1_BIT_STRING
                0x00000000401c634b                c2i_ASN1_BIT_STRING
                0x00000000401c64be                ASN1_BIT_STRING_set_bit
                0x00000000401c662f                ASN1_BIT_STRING_get_bit
                0x00000000401c6685                ASN1_BIT_STRING_check
                0x00000000401c66f0                d2i_ASN1_type_bytes
                0x00000000401c6897                i2d_ASN1_bytes
                0x00000000401c693f                d2i_ASN1_bytes
                0x00000000401c6f8d                ASN1_d2i_bio
                0x00000000401c6ff2                ASN1_item_d2i_bio
                0x00000000401c705d                ASN1_digest
                0x00000000401c7112                ASN1_item_digest
                0x00000000401c7185                ASN1_dup
                0x00000000401c7234                ASN1_item_dup
                0x00000000401c72c0                ASN1_ENUMERATED_set
                0x00000000401c73db                ASN1_ENUMERATED_get
                0x00000000401c7463                BN_to_ASN1_ENUMERATED
                0x00000000401c7563                ASN1_ENUMERATED_to_BN
                0x00000000401c75d0                ASN1_GENERALIZEDTIME_check
                0x00000000401c7850                ASN1_GENERALIZEDTIME_set_string
                0x00000000401c78bd                ASN1_GENERALIZEDTIME_adj
                0x00000000401c7a0c                ASN1_GENERALIZEDTIME_set
                0x00000000401c7a30                ASN1_i2d_bio
                0x00000000401c7aee                ASN1_item_i2d_bio
                0x00000000401c7ba0                ASN1_INTEGER_dup
                0x00000000401c7bab                ASN1_INTEGER_cmp
                0x00000000401c7beb                i2c_ASN1_INTEGER
                0x00000000401c7d88                c2i_ASN1_INTEGER
                0x00000000401c7f71                d2i_ASN1_UINTEGER
                0x00000000401c80df                ASN1_INTEGER_set
                0x00000000401c81fa                ASN1_INTEGER_get
                0x00000000401c8286                BN_to_ASN1_INTEGER
                0x00000000401c839c                ASN1_INTEGER_to_BN
                0x00000000401c8400                i2d_ASN1_OBJECT
                0x00000000401c8493                a2d_ASN1_OBJECT
                0x00000000401c89a4                i2t_ASN1_OBJECT
                0x00000000401c89b4                i2a_ASN1_OBJECT
                0x00000000401c8a86                ASN1_OBJECT_new
                0x00000000401c8af7                ASN1_OBJECT_free
                0x00000000401c8b70                c2i_ASN1_OBJECT
                0x00000000401c8d18                d2i_ASN1_OBJECT
                0x00000000401c8da4                ASN1_OBJECT_create
                0x00000000401c8dd0                ASN1_OCTET_STRING_dup
                0x00000000401c8ddb                ASN1_OCTET_STRING_cmp
                0x00000000401c8de6                ASN1_OCTET_STRING_set
                0x00000000401c8e00                ASN1_sign
                0x00000000401c90a0                ASN1_item_sign
                0x00000000401c9aac                X509_NAME_print_ex
                0x00000000401c9f83                ASN1_STRING_print_ex
                0x00000000401c9f99                ASN1_STRING_to_UTF8
                0x00000000401ca020                d2i_ASN1_TIME
                0x00000000401ca030                i2d_ASN1_TIME
                0x00000000401ca040                ASN1_TIME_new
                0x00000000401ca050                ASN1_TIME_free
                0x00000000401ca060                ASN1_TIME_adj
                0x00000000401ca115                ASN1_TIME_set
                0x00000000401ca12a                ASN1_TIME_check
                0x00000000401ca14e                ASN1_TIME_to_generalizedtime
                0x00000000401ca256                ASN1_TIME_set_string
                0x00000000401ca2d0                ASN1_TYPE_get
                0x00000000401ca2e9                ASN1_TYPE_set
                0x00000000401ca342                ASN1_TYPE_set1
                0x00000000401ca3c0                ASN1_TYPE_cmp
                0x00000000401ca420                ASN1_UTCTIME_check
                0x00000000401ca64c                ASN1_UTCTIME_set_string
                0x00000000401ca6b9                ASN1_UTCTIME_adj
                0x00000000401ca833                ASN1_UTCTIME_set
                0x00000000401ca848                ASN1_UTCTIME_cmp_time_t
                0x00000000401ca9d0                UTF8_getc
                0x00000000401cad30                UTF8_putc
                0x00000000401cafa0                ASN1_verify
                0x00000000401cb0fe                ASN1_item_verify
                0x00000000401cb2f0                AES_cbc_encrypt
                0x00000000401cb313                AES_cfb128_encrypt
                0x00000000401cb331                AES_cfb1_encrypt
                0x00000000401cb34f                AES_cfb8_encrypt
                0x00000000401cb370                AES_ecb_encrypt
                0x00000000401cb387                AES_ofb128_encrypt
                0x00000000401cb39e                ERR_load_ASN1_strings
                0x00000000401cb474                ASN1_check_infinite_end
                0x00000000401cb47f                ASN1_const_check_infinite_end
                0x00000000401cb48a                ASN1_get_object
                0x00000000401cb62e                ASN1_put_object
                0x00000000401cb75d                ASN1_put_eoc
                0x00000000401cb779                ASN1_object_size
                0x00000000401cb7ad                asn1_Finish
                0x00000000401cb7b8                asn1_const_Finish
                0x00000000401cb7c3                asn1_GetSequence
                0x00000000401cb860                ASN1_STRING_set
                0x00000000401cb94c                ASN1_STRING_copy
                0x00000000401cb98b                ASN1_STRING_set0
                0x00000000401cb9c1                ASN1_STRING_type_new
                0x00000000401cba2b                ASN1_STRING_new
                0x00000000401cba3b                ASN1_STRING_free
                0x00000000401cba6f                ASN1_STRING_dup
                0x00000000401cbac0                ASN1_STRING_cmp
                0x00000000401cbaf9                asn1_add_error
                0x00000000401cbb61                ASN1_STRING_length
                0x00000000401cbb69                ASN1_STRING_length_set
                0x00000000401cbb71                ASN1_STRING_type
                0x00000000401cbb7a                ASN1_STRING_data
                0x00000000401cbb90                ASN1_tag2str
                0x00000000401cc759                ASN1_parse
                0x00000000401cc785                ASN1_parse_dump
                0x00000000401cc7c4                BIO_dump_indent_cb
                0x00000000401ccbbc                BIO_dump_cb
                0x00000000401ccbcd                BIO_dump
                0x00000000401ccbe5                BIO_dump_indent
                0x00000000401cd5b8                BIO_f_buffer
                0x00000000401cd5d0                BF_cfb64_encrypt
                0x00000000401cd7b9                BF_options
                0x00000000401cd7c4                BF_ecb_encrypt
                0x00000000401cd873                BF_encrypt
                0x00000000401cdc71                BF_decrypt
                0x00000000401ce06f                BF_cbc_encrypt
                0x00000000401ce622                BF_ofb64_encrypt
                0x00000000401ce7b2                BF_set_key
                0x00000000401cf544                BIO_f_base64
                0x00000000401cfc02                BIO_f_cipher
                0x00000000401cfc0d                BIO_set_cipher
                0x00000000401cfcb0                ERR_load_BIO_strings
                0x00000000401d0047                BIO_f_md
                0x00000000401d0060                BN_uadd
                0x00000000401d01a6                BN_usub
                0x00000000401d03ad                BN_add
                0x00000000401d043a                BN_sub
                0x00000000401d051f                bn_mul_add_words
                0x00000000401d076a                bn_mul_words
                0x00000000401d0976                bn_sqr_words
                0x00000000401d0ab8                bn_div_words
                0x00000000401d0be7                bn_add_words
                0x00000000401d0cd9                bn_sub_words
                0x00000000401d0dea                bn_mul_comba8
                0x00000000401d27ac                bn_mul_comba4
                0x00000000401d2e01                bn_sqr_comba8
                0x00000000401d3efe                bn_sqr_comba4
                0x00000000401d4330                BN_BLINDING_free
                0x00000000401d4387                BN_BLINDING_new
                0x00000000401d4461                BN_BLINDING_invert_ex
                0x00000000401d44be                BN_BLINDING_invert
                0x00000000401d44d4                BN_BLINDING_get_thread_id
                0x00000000401d44de                BN_BLINDING_set_thread_id
                0x00000000401d44e8                BN_BLINDING_thread_id
                0x00000000401d44f2                BN_BLINDING_get_flags
                0x00000000401d44fc                BN_BLINDING_set_flags
                0x00000000401d4506                BN_BLINDING_create_param
                0x00000000401d4697                BN_BLINDING_update
                0x00000000401d4789                BN_BLINDING_convert_ex
                0x00000000401d4843                BN_BLINDING_convert
                0x00000000401d4859                BN_CTX_init
                0x00000000401d48d4                BN_CTX_new
                0x00000000401d4969                BN_CTX_free
                0x00000000401d49eb                BN_CTX_start
                0x00000000401d4abb                BN_CTX_end
                0x00000000401d4b2a                BN_CTX_get
                0x00000000401d4c71                BN_div
                0x00000000401d56e9                ERR_load_BN_strings
                0x00000000401d57fe                BN_exp
                0x00000000401d5985                BN_mod_exp_recp
                0x00000000401d5e44                BN_mod_exp_mont_consttime
                0x00000000401d6411                BN_mod_exp_mont
                0x00000000401d69cf                BN_mod_exp_mont_word
                0x00000000401d6e53                BN_mod_exp
                0x00000000401d6ea1                BN_mod_exp_simple
                0x00000000401d7340                BN_gcd
                0x00000000401d7555                BN_mod_inverse
                0x00000000401d7f60                BN_nnmod
                0x00000000401d7fb6                BN_mod_add
                0x00000000401d7ff1                BN_mod_add_quick
                0x00000000401d8030                BN_mod_sub
                0x00000000401d806b                BN_mod_sub_quick
                0x00000000401d809f                BN_mod_mul
                0x00000000401d8150                BN_mod_sqr
                0x00000000401d8193                BN_mod_lshift1
                0x00000000401d81ce                BN_mod_lshift1_quick
                0x00000000401d820d                BN_mod_lshift_quick
                0x00000000401d82fa                BN_mod_lshift
                0x00000000401d86ee                BN_mod_mul_montgomery
                0x00000000401d879c                BN_from_montgomery
                0x00000000401d8814                BN_MONT_CTX_init
                0x00000000401d885d                BN_MONT_CTX_new
                0x00000000401d889b                BN_MONT_CTX_free
                0x00000000401d88dc                BN_MONT_CTX_set
                0x00000000401d8ac6                BN_MONT_CTX_copy
                0x00000000401d8b46                BN_MONT_CTX_set_locked
                0x00000000401d8c30                bn_sub_part_words
                0x00000000401d8e88                bn_add_part_words
                0x00000000401d9205                bn_mul_normal
                0x00000000401d9341                bn_mul_recursive
                0x00000000401d97c5                bn_mul_high
                0x00000000401d9c65                bn_mul_part_recursive
                0x00000000401da12d                BN_mul
                0x00000000401da460                bn_mul_low_normal
                0x00000000401da531                bn_mul_low_recursive
                0x00000000401da759                BN_GENCB_call
                0x00000000401da7a9                BN_is_prime_fasttest_ex
                0x00000000401daca8                BN_generate_prime_ex
                0x00000000401db280                BN_is_prime_ex
                0x00000000401db293                BN_RECP_CTX_init
                0x00000000401db2c2                BN_RECP_CTX_new
                0x00000000401db300                BN_RECP_CTX_free
                0x00000000401db334                BN_RECP_CTX_set
                0x00000000401db37c                BN_reciprocal
                0x00000000401db40b                BN_div_recp
                0x00000000401db6b1                BN_mod_mul_reciprocal
                0x00000000401db76a                BN_lshift1
                0x00000000401db834                BN_rshift1
                0x00000000401db90b                BN_lshift
                0x00000000401dba6e                BN_rshift
                0x00000000401dbbf0                bn_sqr_normal
                0x00000000401dbcce                bn_sqr_recursive
                0x00000000401dbe8a                BN_sqr
                0x00000000401dc146                BIO_s_null
                0x00000000401dc151                ERR_load_BUF_strings
                0x00000000401dc190                CAST_cfb64_encrypt
                0x00000000401dc379                CAST_ecb_encrypt
                0x00000000401dc428                CAST_encrypt
                0x00000000401dc890                CAST_decrypt
                0x00000000401dccdf                CAST_cbc_encrypt
                0x00000000401dd292                CAST_ofb64_encrypt
                0x00000000401dd422                CAST_set_key
                0x00000000401ddea0                DES_ede3_cfb64_encrypt
                0x00000000401de0d4                DES_ede3_cfb_encrypt
                0x00000000401de8e6                DES_cfb64_encrypt
                0x00000000401deb0b                DES_cfb_encrypt
                0x00000000401df139                ERR_load_COMP_strings
                0x00000000401df16e                ERR_load_CONF_strings
                0x00000000401df1a3                ERR_load_CRYPTO_strings
                0x00000000401df1d8                d2i_PrivateKey
                0x00000000401df338                d2i_AutoPrivateKey
                0x00000000401df494                d2i_DHparams
                0x00000000401df4a4                i2d_DHparams
                0x00000000401df4b4                DHparams_dup
                0x00000000401df4d0                DH_check
                0x00000000401df5fb                DH_check_pub_key
                0x00000000401df68b                ERR_load_DH_strings
                0x00000000401df6c0                DH_generate_parameters_ex
                0x00000000401df8bd                EVP_MD_CTX_init
                0x00000000401df8d2                EVP_MD_CTX_create
                0x00000000401df909                EVP_DigestInit_ex
                0x00000000401df9e8                EVP_DigestInit
                0x00000000401dfa0f                EVP_DigestUpdate
                0x00000000401dfa1b                EVP_DigestFinal_ex
                0x00000000401dfaac                EVP_MD_CTX_cleanup
                0x00000000401dfb49                EVP_DigestFinal
                0x00000000401dfb6b                EVP_MD_CTX_copy_ex
                0x00000000401dfca8                EVP_MD_CTX_copy
                0x00000000401dfcca                EVP_Digest
                0x00000000401dfd62                EVP_MD_CTX_destroy
                0x00000000401dfe3d                d2i_DSA_SIG
                0x00000000401dfe4d                i2d_DSA_SIG
                0x00000000401dfe5d                DSA_SIG_new
                0x00000000401dfe6d                DSA_SIG_free
                0x00000000401dfe7d                d2i_DSAPrivateKey
                0x00000000401dfe8d                i2d_DSAPrivateKey
                0x00000000401dfe9d                d2i_DSAparams
                0x00000000401dfead                i2d_DSAparams
                0x00000000401dfebd                d2i_DSAPublicKey
                0x00000000401dfecd                i2d_DSAPublicKey
                0x00000000401dfedd                DSAparams_dup
                0x00000000401dfef0                ERR_load_DSA_strings
                0x00000000401dff30                dsa_builtin_paramgen
                0x00000000401e07f7                DSA_generate_parameters_ex
                0x00000000401e0890                DSA_generate_key
                0x00000000401e09ec                DSA_set_default_method
                0x00000000401e09f9                DSA_get_default_method
                0x00000000401e0a24                DSA_set_method
                0x00000000401e0a5d                DSA_new_method
                0x00000000401e0b69                DSA_new
                0x00000000401e0b79                DSA_free
                0x00000000401e0c48                DSA_up_ref
                0x00000000401e0c75                DSA_size
                0x00000000401e0cca                DSA_get_ex_new_index
                0x00000000401e0ce9                DSA_set_ex_data
                0x00000000401e0cf8                DSA_get_ex_data
                0x00000000401e0d07                DSA_dup_DH
                0x00000000401e16b7                DSA_OpenSSL
                0x00000000401e16c2                DSA_do_sign
                0x00000000401e16cf                DSA_sign
                0x00000000401e1745                DSA_sign_setup
                0x00000000401e1752                DSA_do_verify
                0x00000000401e175f                DSA_verify
                0x00000000401e17d9                ERR_load_DSO_strings
                0x00000000401e2133                EC_GROUP_get_basis_type
                0x00000000401e219a                EC_GROUP_get_trinomial_basis
                0x00000000401e221c                EC_GROUP_get_pentanomial_basis
                0x00000000401e22df                X9_62_PENTANOMIAL_new
                0x00000000401e22ef                X9_62_PENTANOMIAL_free
                0x00000000401e22ff                X9_62_CHARACTERISTIC_TWO_new
                0x00000000401e230f                X9_62_CHARACTERISTIC_TWO_free
                0x00000000401e231f                ECPARAMETERS_new
                0x00000000401e232f                ECPARAMETERS_free
                0x00000000401e233f                d2i_ECPKPARAMETERS
                0x00000000401e234f                i2d_ECPKPARAMETERS
                0x00000000401e235f                ECPKPARAMETERS_new
                0x00000000401e236f                ECPKPARAMETERS_free
                0x00000000401e2f59                d2i_EC_PRIVATEKEY
                0x00000000401e2f69                i2d_EC_PRIVATEKEY
                0x00000000401e2f79                EC_PRIVATEKEY_new
                0x00000000401e2f89                EC_PRIVATEKEY_free
                0x00000000401e2f99                d2i_ECPKParameters
                0x00000000401e3054                i2d_ECPKParameters
                0x00000000401e30e6                d2i_ECPrivateKey
                0x00000000401e339d                i2d_ECPrivateKey
                0x00000000401e3719                i2d_ECParameters
                0x00000000401e3751                d2i_ECParameters
                0x00000000401e3840                o2i_ECPublicKey
                0x00000000401e3930                i2o_ECPublicKey
                0x00000000401e3a90                EC_GROUP_new_by_curve_name
                0x00000000401e3fa2                EC_get_builtin_curves
                0x00000000401e3ff3                EC_GROUP_new_curve_GFp
                0x00000000401e40e1                EC_GROUP_new_curve_GF2m
                0x00000000401e4154                ERR_load_EC_strings
                0x00000000401e4190                EC_KEY_new
                0x00000000401e4210                EC_KEY_free
                0x00000000401e4292                EC_KEY_new_by_curve_name
                0x00000000401e42d8                EC_KEY_copy
                0x00000000401e447f                EC_KEY_dup
                0x00000000401e44c6                EC_KEY_up_ref
                0x00000000401e44f3                EC_KEY_generate_key
                0x00000000401e46d2                EC_KEY_check_key
                0x00000000401e4973                EC_KEY_get0_group
                0x00000000401e497d                EC_KEY_set_group
                0x00000000401e49b2                EC_KEY_get0_private_key
                0x00000000401e49bc                EC_KEY_set_private_key
                0x00000000401e49f1                EC_KEY_get0_public_key
                0x00000000401e49fb                EC_KEY_set_public_key
                0x00000000401e4a34                EC_KEY_get_enc_flags
                0x00000000401e4a3d                EC_KEY_set_enc_flags
                0x00000000401e4a46                EC_KEY_get_conv_form
                0x00000000401e4a4f                EC_KEY_set_conv_form
                0x00000000401e4a67                EC_KEY_get_key_method_data
                0x00000000401e4a76                EC_KEY_insert_key_method_data
                0x00000000401e4b03                EC_KEY_set_asn1_flag
                0x00000000401e4b18                EC_KEY_precompute_mult
                0x00000000401e4b40                EC_GROUP_new
                0x00000000401e4c58                EC_GROUP_method_of
                0x00000000401e4c61                EC_METHOD_get_field_type
                0x00000000401e4c69                EC_GROUP_get0_generator
                0x00000000401e4c73                EC_GROUP_get_order
                0x00000000401e4ca8                EC_GROUP_get_cofactor
                0x00000000401e4cdd                EC_GROUP_set_curve_name
                0x00000000401e4ce6                EC_GROUP_get_curve_name
                0x00000000401e4cef                EC_GROUP_set_asn1_flag
                0x00000000401e4cf8                EC_GROUP_get_asn1_flag
                0x00000000401e4d01                EC_GROUP_set_point_conversion_form
                0x00000000401e4d0a                EC_GROUP_get_point_conversion_form
                0x00000000401e4d13                EC_GROUP_set_seed
                0x00000000401e4d98                EC_GROUP_get0_seed
                0x00000000401e4da2                EC_GROUP_get_seed_len
                0x00000000401e4dac                EC_GROUP_set_curve_GFp
                0x00000000401e4de6                EC_GROUP_get_curve_GFp
                0x00000000401e4e21                EC_GROUP_set_curve_GF2m
                0x00000000401e4e5b                EC_GROUP_get_curve_GF2m
                0x00000000401e4e95                EC_GROUP_get_degree
                0x00000000401e4ed1                EC_GROUP_check_discriminant
                0x00000000401e4f0b                EC_EX_DATA_set_data
                0x00000000401e4fdc                EC_EX_DATA_get_data
                0x00000000401e5015                EC_EX_DATA_free_data
                0x00000000401e5064                EC_EX_DATA_clear_free_data
                0x00000000401e50b3                EC_EX_DATA_free_all_data
                0x00000000401e50ff                EC_EX_DATA_clear_free_all_data
                0x00000000401e514b                EC_POINT_new
                0x00000000401e521e                EC_POINT_free
                0x00000000401e524c                EC_GROUP_free
                0x00000000401e52b1                EC_POINT_clear_free
                0x00000000401e52f9                EC_GROUP_clear_free
                0x00000000401e5385                EC_POINT_copy
                0x00000000401e53f1                EC_GROUP_copy
                0x00000000401e55fd                EC_GROUP_dup
                0x00000000401e5651                EC_GROUP_set_generator
                0x00000000401e5727                EC_POINT_dup
                0x00000000401e577b                EC_POINT_method_of
                0x00000000401e5784                EC_POINT_set_to_infinity
                0x00000000401e57e6                EC_POINT_set_Jprojective_coordinates_GFp
                0x00000000401e584c                EC_POINT_get_Jprojective_coordinates_GFp
                0x00000000401e58b2                EC_POINT_set_affine_coordinates_GFp
                0x00000000401e591b                EC_POINT_set_affine_coordinates_GF2m
                0x00000000401e5984                EC_POINT_get_affine_coordinates_GFp
                0x00000000401e59f1                EC_POINT_get_affine_coordinates_GF2m
                0x00000000401e5a5a                EC_POINT_set_compressed_coordinates_GFp
                0x00000000401e5ac3                EC_POINT_set_compressed_coordinates_GF2m
                0x00000000401e5b2c                EC_POINT_point2oct
                0x00000000401e5b95                EC_POINT_oct2point
                0x00000000401e5c01                EC_POINT_add
                0x00000000401e5c74                EC_POINT_dbl
                0x00000000401e5ce1                EC_POINT_invert
                0x00000000401e5d4b                EC_POINT_is_at_infinity
                0x00000000401e5db1                EC_POINT_is_on_curve
                0x00000000401e5e19                EC_POINT_cmp
                0x00000000401e5e86                EC_GROUP_cmp
                0x00000000401e60f1                EC_POINT_make_affine
                0x00000000401e6159                EC_POINTs_make_affine
                0x00000000401e61e3                EC_POINTs_mul
                0x00000000401e6215                EC_POINT_mul
                0x00000000401e624a                EC_GROUP_precompute_mult
                0x00000000401e6277                EC_GROUP_have_precompute_mult
                0x00000000401e66ac                ec_wNAF_mul
                0x00000000401e74f9                ec_wNAF_precompute_mult
                0x00000000401e7afb                ec_wNAF_have_precompute_mult
                0x00000000401e7b22                EC_POINT_point2bn
                0x00000000401e7bdb                EC_POINT_bn2point
                0x00000000401e7cea                EC_POINT_point2hex
                0x00000000401e7e08                EC_POINT_hex2point
                0x00000000401e7e67                ERR_load_ECDH_strings
                0x00000000401e7e9c                ECDH_compute_key
                0x00000000401e7f39                ECDH_set_default_method
                0x00000000401e7f46                ECDH_get_default_method
                0x00000000401e8011                ecdh_check
                0x00000000401e806a                ECDH_set_method
                0x00000000401e8097                ECDH_get_ex_new_index
                0x00000000401e80b6                ECDH_set_ex_data
                0x00000000401e80e7                ECDH_get_ex_data
                0x00000000401e84dc                ECDH_OpenSSL
                0x00000000401e84e7                ec_GFp_mont_group_init
                0x00000000401e8515                ec_GFp_mont_group_finish
                0x00000000401e8568                ec_GFp_mont_group_clear_finish
                0x00000000401e85bb                ec_GFp_mont_group_copy
                0x00000000401e869f                ec_GFp_mont_field_mul
                0x00000000401e86e8                ec_GFp_mont_field_sqr
                0x00000000401e8731                ec_GFp_mont_field_encode
                0x00000000401e877e                ec_GFp_mont_group_set_curve
                0x00000000401e891f                ec_GFp_mont_field_decode
                0x00000000401e8962                ec_GFp_mont_field_set_to_one
                0x00000000401e89ac                EC_GFp_mont_method
                0x00000000401e89b7                ec_GFp_nist_group_copy
                0x00000000401e89d0                ec_GFp_nist_group_set_curve
                0x00000000401e8b4c                ec_GFp_nist_field_mul
                0x00000000401e8c24                ec_GFp_nist_field_sqr
                0x00000000401e8ce4                EC_GFp_nist_method
                0x00000000401e8cf0                ec_GFp_simple_is_at_infinity
                0x00000000401e8d00                ec_GFp_simple_group_init
                0x00000000401e8d43                ec_GFp_simple_point_init
                0x00000000401e8d7d                ec_GFp_simple_group_finish
                0x00000000401e8db1                ec_GFp_simple_point_finish
                0x00000000401e8ddf                ec_GFp_simple_group_clear_finish
                0x00000000401e8e13                ec_GFp_simple_point_clear_finish
                0x00000000401e8e48                ec_GFp_simple_group_copy
                0x00000000401e8ec4                ec_GFp_simple_point_copy
                0x00000000401e8f2e                ec_GFp_simple_group_get_degree
                0x00000000401e8f3d                ec_GFp_simple_group_set_curve
                0x00000000401e9121                ec_GFp_simple_group_get_curve
                0x00000000401e927c                ec_GFp_simple_set_Jprojective_coordinates_GFp
                0x00000000401e9479                ec_GFp_simple_get_Jprojective_coordinates_GFp
                0x00000000401e95df                ec_GFp_simple_field_sqr
                0x00000000401e95f7                ec_GFp_simple_field_mul
                0x00000000401e9612                ec_GFp_simple_group_check_discriminant
                0x00000000401e9853                ec_GFp_simple_point_set_to_infinity
                0x00000000401e9873                ec_GFp_simple_point_set_affine_coordinates
                0x00000000401e98ee                ec_GFp_simple_cmp
                0x00000000401e9bbb                ec_GFp_simple_point_get_affine_coordinates
                0x00000000401e9f11                ec_GFp_simple_invert
                0x00000000401e9f4c                ec_GFp_simple_set_compressed_coordinates
                0x00000000401ea3e5                ec_GFp_simple_make_affine
                0x00000000401ea4fb                ec_GFp_simple_point2oct
                0x00000000401ea864                ec_GFp_simple_is_on_curve
                0x00000000401eab8a                ec_GFp_simple_oct2point
                0x00000000401eaeff                ec_GFp_simple_add
                0x00000000401eb5f2                ec_GFp_simple_dbl
                0x00000000401ebb7c                ec_GFp_simple_points_make_affine
                0x00000000401ec102                EC_GFp_simple_method
                0x00000000401ec10d                ERR_load_ECDSA_strings
                0x00000000401ec189                ECDSA_set_default_method
                0x00000000401ec196                ECDSA_get_default_method
                0x00000000401ec261                ecdsa_check
                0x00000000401ec2ba                ECDSA_set_method
                0x00000000401ec2e7                ECDSA_size
                0x00000000401ec3a1                ECDSA_get_ex_new_index
                0x00000000401ec3c0                ECDSA_set_ex_data
                0x00000000401ec3f1                ECDSA_get_ex_data
                0x00000000401ed126                ECDSA_OpenSSL
                0x00000000401ed131                ECDSA_do_sign_ex
                0x00000000401ed18a                ECDSA_do_sign
                0x00000000401ed1a2                ECDSA_sign_ex
                0x00000000401ed220                ECDSA_sign
                0x00000000401ed242                ECDSA_sign_setup
                0x00000000401ed287                ECDSA_do_verify
                0x00000000401ed2cf                ECDSA_verify
                0x00000000401ed350                EVP_EncodeInit
                0x00000000401ed36a                EVP_EncodeBlock
                0x00000000401ed4ae                EVP_EncodeUpdate
                0x00000000401ed5da                EVP_EncodeFinal
                0x00000000401ed625                EVP_DecodeInit
                0x00000000401ed646                EVP_DecodeBlock
                0x00000000401ed7f3                EVP_DecodeUpdate
                0x00000000401edb0a                EVP_DecodeFinal
                0x00000000401edb60                EVP_set_pw_prompt
                0x00000000401edb8c                EVP_get_pw_prompt
                0x00000000401edba7                EVP_read_pw_string_min
                0x00000000401edc77                EVP_read_pw_string
                0x00000000401edc8f                EVP_BytesToKey
                0x00000000401edf6d                EVP_PBE_alg_add_type
                0x00000000401ee01d                EVP_PBE_alg_add
                0x00000000401ee077                EVP_PBE_find
                0x00000000401ee133                EVP_PBE_CipherInit
                0x00000000401ee302                EVP_PBE_cleanup
                0x00000000401ee324                EVP_PKCS82PKEY
                0x00000000401ee467                EVP_PKEY2PKCS8_broken
                0x00000000401ee56a                EVP_PKEY2PKCS8
                0x00000000401ee57a                PKCS8_set_broken
                0x00000000401ee5cd                EVP_PKEY_get_attr_count
                0x00000000401ee5dc                EVP_PKEY_get_attr_by_NID
                0x00000000401ee5eb                EVP_PKEY_get_attr_by_OBJ
                0x00000000401ee5fa                EVP_PKEY_get_attr
                0x00000000401ee609                EVP_PKEY_delete_attr
                0x00000000401ee618                EVP_PKEY_add1_attr
                0x00000000401ee630                EVP_PKEY_add1_attr_by_OBJ
                0x00000000401ee648                EVP_PKEY_add1_attr_by_NID
                0x00000000401ee660                EVP_PKEY_add1_attr_by_txt
                0x00000000401ee680                HMAC_Init_ex
                0x00000000401ee882                HMAC_Update
                0x00000000401ee891                HMAC_Final
                0x00000000401ee908                HMAC_CTX_init
                0x00000000401ee936                HMAC_Init
                0x00000000401ee97c                HMAC_CTX_copy
                0x00000000401ee9f6                HMAC_CTX_cleanup
                0x00000000401eea36                HMAC
                0x00000000401eeaf5                HMAC_CTX_set_flags
                0x00000000401eeb30                i2d_PrivateKey
                0x00000000401ef525                RAND_SSLeay
                0x00000000401ef55e                d2i_NETSCAPE_CERT_SEQUENCE
                0x00000000401ef56e                i2d_NETSCAPE_CERT_SEQUENCE
                0x00000000401ef57e                NETSCAPE_CERT_SEQUENCE_new
                0x00000000401ef58e                NETSCAPE_CERT_SEQUENCE_free
                0x00000000401ef59e                OPENSSL_gmtime
                0x00000000401ef5a9                OPENSSL_gmtime_adj
                0x00000000401ef849                PKCS12_PBE_add
                0x00000000401ef84f                PKCS12_PBE_keyivgen
                0x00000000401efa60                PKCS12_key_gen_uni
                0x00000000401eff77                PKCS12_key_gen_asc
                0x00000000401f0047                PKCS8_decrypt
                0x00000000401f0069                OPENSSL_asc2uni
                0x00000000401f00fe                OPENSSL_uni2asc
                0x00000000401f0184                i2d_PKCS12_bio
                0x00000000401f019a                d2i_PKCS12_bio
                0x00000000401f01b0                PKCS12_x5092certbag
                0x00000000401f01ca                PKCS12_x509crl2certbag
                0x00000000401f01e4                PKCS12_certbag2x509
                0x00000000401f023b                PKCS12_certbag2x509crl
                0x00000000401f0292                PKCS5_PBE_add
                0x00000000401f0298                PKCS5_PBE_keyivgen
                0x00000000401f0578                PKCS5_PBKDF2_HMAC
                0x00000000401f0777                PKCS5_PBKDF2_HMAC_SHA1
                0x00000000401f07d2                PKCS5_v2_PBE_keyivgen
                0x00000000401f0bc2                d2i_PBEPARAM
                0x00000000401f0bd2                i2d_PBEPARAM
                0x00000000401f0be2                PBEPARAM_new
                0x00000000401f0bf2                PBEPARAM_free
                0x00000000401f0c02                PKCS5_pbe_set0_algor
                0x00000000401f0dad                PKCS5_pbe_set
                0x00000000401f0e37                d2i_PBE2PARAM
                0x00000000401f0e47                i2d_PBE2PARAM
                0x00000000401f0e57                PBE2PARAM_new
                0x00000000401f0e67                PBE2PARAM_free
                0x00000000401f0e77                d2i_PBKDF2PARAM
                0x00000000401f0e87                i2d_PBKDF2PARAM
                0x00000000401f0e97                PBKDF2PARAM_new
                0x00000000401f0ea7                PBKDF2PARAM_free
                0x00000000401f0eb7                PKCS5_pbe2_set_iv
                0x00000000401f13d3                PKCS5_pbe2_set
                0x00000000401f1422                d2i_PKCS8_PRIV_KEY_INFO
                0x00000000401f1432                i2d_PKCS8_PRIV_KEY_INFO
                0x00000000401f1442                PKCS8_PRIV_KEY_INFO_new
                0x00000000401f1452                PKCS8_PRIV_KEY_INFO_free
                0x00000000401f1462                PKCS8_pkey_set0
                0x00000000401f151b                PKCS8_pkey_get0
                0x00000000401f15a6                EVP_SignFinal
                0x00000000401f176d                EVP_VerifyFinal
                0x00000000401f1919                policy_cache_free
                0x00000000401f1959                policy_cache_set
                0x00000000401f1ce8                policy_cache_find_data
                0x00000000401f1d23                policy_data_free
                0x00000000401f1d68                policy_data_new
                0x00000000401f1e63                policy_cache_set_mapping
                0x00000000401f20b2                X509_policy_tree_free
                0x00000000401f215e                X509_policy_check
                0x00000000401f2b01                d2i_PKCS8PrivateKey_bio
                0x00000000401f2c18                PEM_read_bio_PKCS8
                0x00000000401f2c39                PEM_write_bio_PKCS8
                0x00000000401f2c7d                PEM_read_bio_PKCS8_PRIV_KEY_INFO
                0x00000000401f2c9e                PEM_write_bio_PKCS8_PRIV_KEY_INFO
                0x00000000401f2ecc                PEM_write_bio_PKCS8PrivateKey_nid
                0x00000000401f2efd                PEM_write_bio_PKCS8PrivateKey
                0x00000000401f2f2e                i2d_PKCS8PrivateKey_bio
                0x00000000401f2f5f                i2d_PKCS8PrivateKey_nid_bio
                0x00000000401f2f90                PKCS7_add_attrib_smimecap
                0x00000000401f3009                PKCS7_get_smimecap
                0x00000000401f3058                PKCS7_simple_smimecap
                0x00000000401f318d                PKCS7_add_attrib_content_type
                0x00000000401f31de                PKCS7_add0_attrib_signing_time
                0x00000000401f3241                PKCS7_add1_attrib_digest
                0x00000000401f4b22                RSA_PKCS1_SSLeay
                0x00000000401f4b2d                RSA_padding_add_none
                0x00000000401f4b99                RSA_padding_check_none
                0x00000000401f4c09                PKCS1_MGF1
                0x00000000401f4dae                RSA_padding_check_PKCS1_OAEP
                0x00000000401f503c                RSA_padding_add_PKCS1_OAEP
                0x00000000401f5250                RSA_padding_add_PKCS1_type_1
                0x00000000401f52d6                RSA_padding_check_PKCS1_type_1
                0x00000000401f5433                RSA_padding_add_PKCS1_type_2
                0x00000000401f54f2                RSA_padding_check_PKCS1_type_2
                0x00000000401f5620                RSA_verify_PKCS1_PSS
                0x00000000401f59ad                RSA_padding_add_PKCS1_PSS
                0x00000000401f5c70                RSA_padding_add_SSLv23
                0x00000000401f5d40                RSA_padding_check_SSLv23
                0x00000000401f5eae                RSA_padding_add_X931
                0x00000000401f5f50                RSA_padding_check_X931
                0x00000000401f606e                RSA_X931_hash_id
                0x00000000401f60b3                ASN1_bn_print
                0x00000000401f62c0                X509_ocspid_print
                0x00000000401f6430                X509_signature_print
                0x00000000401f6537                ASN1_STRING_print
                0x00000000401f65fb                ASN1_GENERALIZEDTIME_print
                0x00000000401f687f                ASN1_UTCTIME_print
                0x00000000401f69f4                ASN1_TIME_print
                0x00000000401f6a2d                X509_print_ex
                0x00000000401f6f72                X509_print
                0x00000000401f6f87                X509_NAME_print
                0x00000000401f707c                X509_CERT_AUX_print
                0x00000000401f75f3                UI_free
                0x00000000401f7632                UI_add_input_string
                0x00000000401f7663                UI_dup_input_string
                0x00000000401f76fa                UI_add_verify_string
                0x00000000401f772b                UI_dup_verify_string
                0x00000000401f77c2                UI_add_input_boolean
                0x00000000401f77ec                UI_dup_input_boolean
                0x00000000401f7977                UI_add_info_string
                0x00000000401f79b4                UI_dup_info_string
                0x00000000401f7a3b                UI_add_error_string
                0x00000000401f7a78                UI_dup_error_string
                0x00000000401f7aff                UI_construct_prompt
                0x00000000401f7c24                UI_add_user_data
                0x00000000401f7c32                UI_get0_user_data
                0x00000000401f7c3c                UI_process
                0x00000000401f7d73                UI_ctrl
                0x00000000401f7dfa                UI_get_ex_new_index
                0x00000000401f7e19                UI_set_ex_data
                0x00000000401f7e28                UI_get_ex_data
                0x00000000401f7e37                UI_set_default_method
                0x00000000401f7e44                UI_get_default_method
                0x00000000401f7e6f                UI_new_method
                0x00000000401f7efd                UI_new
                0x00000000401f7f0d                UI_get_method
                0x00000000401f7f16                UI_set_method
                0x00000000401f7f22                UI_create_method
                0x00000000401f7f6d                UI_destroy_method
                0x00000000401f7f97                UI_method_set_opener
                0x00000000401f7fb2                UI_method_set_writer
                0x00000000401f7fcd                UI_method_set_flusher
                0x00000000401f7fe8                UI_method_set_reader
                0x00000000401f8003                UI_method_set_closer
                0x00000000401f801e                UI_method_set_prompt_constructor
                0x00000000401f8039                UI_method_get_opener
                0x00000000401f804f                UI_method_get_writer
                0x00000000401f8065                UI_method_get_flusher
                0x00000000401f807b                UI_method_get_reader
                0x00000000401f8091                UI_method_get_closer
                0x00000000401f80a7                UI_method_get_prompt_constructor
                0x00000000401f80bd                UI_get_string_type
                0x00000000401f80d1                UI_get_input_flags
                0x00000000401f80e6                UI_get0_output_string
                0x00000000401f80fc                UI_get0_action_string
                0x00000000401f8125                UI_get0_result_string
                0x00000000401f814c                UI_get0_result
                0x00000000401f81ce                UI_get0_test_string
                0x00000000401f81f0                UI_get_result_minsize
                0x00000000401f8216                UI_get_result_maxsize
                0x00000000401f823c                UI_set_result
                0x00000000401f8705                UI_OpenSSL
                0x00000000401f8710                d2i_AUTHORITY_KEYID
                0x00000000401f8720                i2d_AUTHORITY_KEYID
                0x00000000401f8730                AUTHORITY_KEYID_new
                0x00000000401f8740                AUTHORITY_KEYID_free
                0x00000000401f89dd                POLICYINFO_free
                0x00000000401f89ed                d2i_CERTIFICATEPOLICIES
                0x00000000401f89fd                i2d_CERTIFICATEPOLICIES
                0x00000000401f8a0d                CERTIFICATEPOLICIES_new
                0x00000000401f8a1d                CERTIFICATEPOLICIES_free
                0x00000000401f8a2d                d2i_POLICYINFO
                0x00000000401f8a3d                i2d_POLICYINFO
                0x00000000401f8a4d                POLICYINFO_new
                0x00000000401f8a5d                d2i_POLICYQUALINFO
                0x00000000401f8a6d                i2d_POLICYQUALINFO
                0x00000000401f8a7d                POLICYQUALINFO_new
                0x00000000401f8a8d                POLICYQUALINFO_free
                0x00000000401f8a9d                d2i_USERNOTICE
                0x00000000401f8aad                i2d_USERNOTICE
                0x00000000401f8abd                USERNOTICE_new
                0x00000000401f8acd                USERNOTICE_free
                0x00000000401f8add                d2i_NOTICEREF
                0x00000000401f8aed                i2d_NOTICEREF
                0x00000000401f8afd                NOTICEREF_new
                0x00000000401f9439                NOTICEREF_free
                0x00000000401f9449                X509_POLICY_NODE_print
                0x00000000401f9a5d                DIST_POINT_free
                0x00000000401f9a6d                d2i_DIST_POINT_NAME
                0x00000000401f9a7d                i2d_DIST_POINT_NAME
                0x00000000401f9a8d                DIST_POINT_NAME_new
                0x00000000401f9c95                DIST_POINT_NAME_free
                0x00000000401f9ca5                d2i_DIST_POINT
                0x00000000401f9cb5                i2d_DIST_POINT
                0x00000000401f9cc5                DIST_POINT_new
                0x00000000401f9f7a                d2i_CRL_DIST_POINTS
                0x00000000401f9f8a                i2d_CRL_DIST_POINTS
                0x00000000401f9f9a                CRL_DIST_POINTS_new
                0x00000000401f9faa                CRL_DIST_POINTS_free
                0x00000000401f9fba                d2i_ISSUING_DIST_POINT
                0x00000000401f9fca                i2d_ISSUING_DIST_POINT
                0x00000000401f9fda                ISSUING_DIST_POINT_new
                0x00000000401f9fea                ISSUING_DIST_POINT_free
                0x00000000401fa1f6                DIST_POINT_set_dpname
                0x00000000401fa2f0                d2i_GENERAL_NAME
                0x00000000401fa300                i2d_GENERAL_NAME
                0x00000000401fa310                d2i_OTHERNAME
                0x00000000401fa320                i2d_OTHERNAME
                0x00000000401fa330                OTHERNAME_new
                0x00000000401fa340                OTHERNAME_free
                0x00000000401fa350                d2i_EDIPARTYNAME
                0x00000000401fa360                i2d_EDIPARTYNAME
                0x00000000401fa370                EDIPARTYNAME_new
                0x00000000401fa380                EDIPARTYNAME_free
                0x00000000401fa390                GENERAL_NAME_new
                0x00000000401fa3a0                GENERAL_NAME_free
                0x00000000401fa3b0                d2i_GENERAL_NAMES
                0x00000000401fa3c0                i2d_GENERAL_NAMES
                0x00000000401fa3d0                GENERAL_NAMES_new
                0x00000000401fa3e0                GENERAL_NAMES_free
                0x00000000401fa3f0                GENERAL_NAME_dup
                0x00000000401fa408                OTHERNAME_cmp
                0x00000000401fa44a                GENERAL_NAME_cmp
                0x00000000401fa4d4                GENERAL_NAME_set0_value
                0x00000000401fa50c                GENERAL_NAME_get0_value
                0x00000000401fa552                GENERAL_NAME_set0_othername
                0x00000000401fa598                GENERAL_NAME_get0_otherName
                0x00000000401fabcb                GENERAL_SUBTREE_new
                0x00000000401fabdb                GENERAL_SUBTREE_free
                0x00000000401fabeb                NAME_CONSTRAINTS_new
                0x00000000401fabfb                NAME_CONSTRAINTS_free
                0x00000000401fadb8                NAME_CONSTRAINTS_check
                0x00000000401faee2                POLICY_CONSTRAINTS_new
                0x00000000401faef2                POLICY_CONSTRAINTS_free
                0x00000000401fb0f9                POLICY_MAPPING_free
                0x00000000401fb109                POLICY_MAPPING_new
                0x00000000401fb3a8                X509V3_EXT_val_prn
                0x00000000401fb4cf                X509V3_EXT_print
                0x00000000401fb69d                X509V3_extensions_print
                0x00000000401fbba8                X509_PURPOSE_get_count
                0x00000000401fbbc8                X509_PURPOSE_get0
                0x00000000401fbc01                X509_PURPOSE_get_by_sname
                0x00000000401fbc43                X509_PURPOSE_get_by_id
                0x00000000401fbc84                X509_PURPOSE_set
                0x00000000401fbcd0                X509_PURPOSE_add
                0x00000000401fbe8b                X509_PURPOSE_cleanup
                0x00000000401fbecf                X509_PURPOSE_get_id
                0x00000000401fbed7                X509_PURPOSE_get0_name
                0x00000000401fbee1                X509_PURPOSE_get0_sname
                0x00000000401fbeeb                X509_PURPOSE_get_trust
                0x00000000401fbef4                X509_supported_extension
                0x00000000401fc43f                X509_check_purpose
                0x00000000401fc4d2                X509_check_ca
                0x00000000401fc52d                X509_check_akid
                0x00000000401fc610                X509_check_issued
                0x00000000401fc788                X509V3_conf_free
                0x00000000401fc887                X509V3_add_value
                0x00000000401fc9ac                X509V3_add_value_uchar
                0x00000000401fc9b7                X509V3_add_value_bool
                0x00000000401fc9d7                X509V3_add_value_bool_nf
                0x00000000401fc9f1                i2s_ASN1_ENUMERATED
                0x00000000401fca61                i2s_ASN1_INTEGER
                0x00000000401fcad1                s2i_ASN1_INTEGER
                0x00000000401fcc32                X509V3_add_value_int
                0x00000000401fcc8e                X509V3_get_value_bool
                0x00000000401fcdfb                X509V3_get_value_int
                0x00000000401fce66                X509V3_parse_list
                0x00000000401fd0a4                hex_to_string
                0x00000000401fd15f                string_to_hex
                0x00000000401fd31f                name_cmp
                0x00000000401fd376                X509_email_free
                0x00000000401fd4db                X509_get1_email
                0x00000000401fd527                X509_REQ_get1_email
                0x00000000401fd594                X509_get1_ocsp
                0x00000000401fd630                a2i_ipadd
                0x00000000401fd773                a2i_IPADDRESS
                0x00000000401fd7d9                a2i_IPADDRESS_NC
                0x00000000401fd8be                X509V3_NAME_from_section
                0x00000000401fd9b0                X509at_get_attr_count
                0x00000000401fd9bb                X509at_get_attr_by_OBJ
                0x00000000401fda30                X509at_get_attr_by_NID
                0x00000000401fda63                X509at_get_attr
                0x00000000401fdaa9                X509at_delete_attr
                0x00000000401fdaef                X509at_add1_attr
                0x00000000401fdbdf                X509_ATTRIBUTE_set1_object
                0x00000000401fdc1a                X509_ATTRIBUTE_set1_data
                0x00000000401fdd95                X509_ATTRIBUTE_create_by_OBJ
                0x00000000401fde61                X509at_add1_attr_by_OBJ
                0x00000000401fdea2                X509_ATTRIBUTE_create_by_NID
                0x00000000401fdf2a                X509at_add1_attr_by_NID
                0x00000000401fdf6b                X509_ATTRIBUTE_create_by_txt
                0x00000000401fe010                X509at_add1_attr_by_txt
                0x00000000401fe051                X509_ATTRIBUTE_count
                0x00000000401fe074                X509_ATTRIBUTE_get0_object
                0x00000000401fe089                X509_ATTRIBUTE_get0_type
                0x00000000401fe0d0                X509_ATTRIBUTE_get0_data
                0x00000000401fe12a                X509at_get0_data_by_OBJ
                0x00000000401fe1c5                X509_CRL_get_ext_count
                0x00000000401fe1d7                X509_CRL_get_ext_by_NID
                0x00000000401fe1e9                X509_CRL_get_ext_by_OBJ
                0x00000000401fe1fb                X509_CRL_get_ext_by_critical
                0x00000000401fe20d                X509_CRL_get_ext
                0x00000000401fe21f                X509_CRL_delete_ext
                0x00000000401fe231                X509_CRL_get_ext_d2i
                0x00000000401fe243                X509_CRL_add1_ext_i2d
                0x00000000401fe255                X509_CRL_add_ext
                0x00000000401fe270                X509_get_ext_count
                0x00000000401fe282                X509_get_ext_by_NID
                0x00000000401fe294                X509_get_ext_by_OBJ
                0x00000000401fe2a6                X509_get_ext_by_critical
                0x00000000401fe2b8                X509_get_ext
                0x00000000401fe2ca                X509_delete_ext
                0x00000000401fe2dc                X509_add_ext
                0x00000000401fe2f7                X509_get_ext_d2i
                0x00000000401fe309                X509_add1_ext_i2d
                0x00000000401fe31b                X509_REVOKED_get_ext_count
                0x00000000401fe32a                X509_REVOKED_get_ext_by_NID
                0x00000000401fe339                X509_REVOKED_get_ext_by_OBJ
                0x00000000401fe348                X509_REVOKED_get_ext_by_critical
                0x00000000401fe357                X509_REVOKED_get_ext
                0x00000000401fe366                X509_REVOKED_delete_ext
                0x00000000401fe375                X509_REVOKED_add_ext
                0x00000000401fe38d                X509_REVOKED_get_ext_d2i
                0x00000000401fe39c                X509_REVOKED_add1_ext_i2d
                0x00000000401fe52a                X509_LOOKUP_new
                0x00000000401fe5a6                X509_LOOKUP_free
                0x00000000401fe5da                X509_LOOKUP_init
                0x00000000401fe604                X509_LOOKUP_shutdown
                0x00000000401fe632                X509_LOOKUP_ctrl
                0x00000000401fe65b                X509_LOOKUP_by_subject
                0x00000000401fe692                X509_LOOKUP_by_issuer_serial
                0x00000000401fe6bb                X509_LOOKUP_by_fingerprint
                0x00000000401fe6e4                X509_LOOKUP_by_alias
                0x00000000401fe712                X509_STORE_new
                0x00000000401fe811                X509_STORE_free
                0x00000000401fe8a1                X509_STORE_add_lookup
                0x00000000401fe922                X509_OBJECT_up_ref_count
                0x00000000401fe97c                X509_OBJECT_free_contents
                0x00000000401fe9a4                X509_OBJECT_idx_by_subject
                0x00000000401fe9b4                X509_OBJECT_retrieve_by_subject
                0x00000000401fe9e2                X509_STORE_get_by_subject
                0x00000000401feaf9                X509_STORE_get1_certs
                0x00000000401fecbc                X509_STORE_get1_crls
                0x00000000401fee78                X509_OBJECT_retrieve_match
                0x00000000401fef4e                X509_STORE_add_cert
                0x00000000401ff05d                X509_STORE_add_crl
                0x00000000401ff16c                X509_STORE_CTX_get1_issuer
                0x00000000401ff324                X509_STORE_set_flags
                0x00000000401ff333                X509_STORE_set_depth
                0x00000000401ff347                X509_STORE_set_purpose
                0x00000000401ff356                X509_STORE_set_trust
                0x00000000401ff365                X509_STORE_set1_param
                0x00000000401ff374                X509_STORE_set_verify_cb
                0x00000000401ff380                X509_to_X509_REQ
                0x00000000401ff481                X509_REQ_get_pubkey
                0x00000000401ff4ab                X509_REQ_check_private_key
                0x00000000401ff5e3                X509_REQ_extension_nid
                0x00000000401ff62c                X509_REQ_get_extension_nids
                0x00000000401ff639                X509_REQ_set_extension_nids
                0x00000000401ff646                X509_REQ_add_extensions_nid
                0x00000000401ff759                X509_REQ_add_extensions
                0x00000000401ff769                X509_REQ_get_attr_count
                0x00000000401ff77b                X509_REQ_get_attr_by_NID
                0x00000000401ff78d                X509_REQ_get_attr_by_OBJ
                0x00000000401ff79f                X509_REQ_get_attr
                0x00000000401ff7b1                X509_REQ_get_extensions
                0x00000000401ff8ad                X509_REQ_delete_attr
                0x00000000401ff8bf                X509_REQ_add1_attr
                0x00000000401ff8da                X509_REQ_add1_attr_by_OBJ
                0x00000000401ff8f5                X509_REQ_add1_attr_by_NID
                0x00000000401ff910                X509_REQ_add1_attr_by_txt
                0x00000000401ffab5                X509_TRUST_set_default
                0x00000000401ffac9                X509_TRUST_get_count
                0x00000000401ffae9                X509_TRUST_get0
                0x00000000401ffb21                X509_TRUST_get_by_id
                0x00000000401ffb62                X509_check_trust
                0x00000000401ffbbb                X509_TRUST_set
                0x00000000401ffc07                X509_TRUST_add
                0x00000000401ffda5                X509_TRUST_cleanup
                0x00000000401ffde9                X509_TRUST_get_flags
                0x00000000401ffdf2                X509_TRUST_get0_name
                0x00000000401ffdfc                X509_TRUST_get_trust
                0x00000000401ffe10                X509v3_get_ext_count
                0x00000000401ffe26                X509v3_get_ext_by_OBJ
                0x00000000401ffe97                X509v3_get_ext_by_NID
                0x00000000401ffeca                X509v3_get_ext_by_critical
                0x00000000401fff46                X509v3_get_ext
                0x00000000401fff8c                X509v3_delete_ext
                0x00000000401fffd2                X509v3_add_ext
                0x00000000402000eb                X509_EXTENSION_set_object
                0x0000000040200126                X509_EXTENSION_set_critical
                0x0000000040200147                X509_EXTENSION_set_data
                0x0000000040200172                X509_EXTENSION_create_by_OBJ
                0x0000000040200244                X509_EXTENSION_create_by_NID
                0x00000000402002ba                X509_EXTENSION_get_object
                0x00000000402002cf                X509_EXTENSION_get_data
                0x00000000402002e5                X509_EXTENSION_get_critical
                0x0000000040200310                X509_NAME_entry_count
                0x0000000040200329                X509_NAME_get_index_by_OBJ
                0x00000000402003a0                X509_NAME_get_index_by_NID
                0x00000000402003d3                X509_NAME_get_entry
                0x000000004020041c                X509_NAME_get_text_by_OBJ
                0x0000000040200497                X509_NAME_get_text_by_NID
                0x00000000402004dc                X509_NAME_delete_entry
                0x00000000402005be                X509_NAME_add_entry
                0x0000000040200756                X509_NAME_ENTRY_set_object
                0x00000000402007b4                X509_NAME_ENTRY_set_data
                0x000000004020088f                X509_NAME_ENTRY_create_by_OBJ
                0x000000004020093c                X509_NAME_add_entry_by_OBJ
                0x0000000040200990                X509_NAME_ENTRY_create_by_txt
                0x0000000040200a35                X509_NAME_add_entry_by_txt
                0x0000000040200a89                X509_NAME_ENTRY_create_by_NID
                0x0000000040200b0c                X509_NAME_add_entry_by_NID
                0x0000000040200b60                X509_NAME_ENTRY_get_object
                0x0000000040200b75                X509_NAME_ENTRY_get_data
                0x0000000040200b90                X509_REQ_set_version
                0x0000000040200bad                X509_REQ_set_subject_name
                0x0000000040200bd7                X509_REQ_set_pubkey
                0x0000000040200c02                d2i_X509_VAL
                0x0000000040200c12                i2d_X509_VAL
                0x0000000040200c22                X509_VAL_new
                0x0000000040200c32                X509_VAL_free
                0x0000000040200c42                CRYPTO_cbc128_encrypt
                0x0000000040200d88                CRYPTO_cbc128_decrypt
                0x00000000402010d4                CRYPTO_cfb128_encrypt
                0x0000000040201383                CRYPTO_cfb128_1_encrypt
                0x000000004020144e                CRYPTO_cfb128_8_encrypt
                0x00000000402014b9                CRYPTO_ofb128_encrypt
                0x00000000402015f2                i2d_ASN1_BOOLEAN
                0x000000004020166a                d2i_ASN1_BOOLEAN
                0x0000000040201995                ASN1_mbstring_ncopy
                0x0000000040201eb3                ASN1_mbstring_copy
                0x0000000040201ed0                ASN1_PRINTABLE_type
                0x0000000040201f5f                ASN1_UNIVERSALSTRING_to_string
                0x0000000040202066                ASN1_STRING_set_default_mask
                0x0000000040202073                ASN1_STRING_get_default_mask
                0x0000000040202080                ASN1_STRING_set_default_mask_asc
                0x0000000040202147                ASN1_STRING_TABLE_get
                0x00000000402021ad                ASN1_STRING_set_by_NID
                0x000000004020225d                ASN1_STRING_TABLE_add
                0x0000000040202380                ASN1_STRING_TABLE_cleanup
                0x00000000402023b0                ASN1_seq_unpack
                0x0000000040202415                ASN1_seq_pack
                0x0000000040202509                ASN1_unpack_string
                0x000000004020255c                ASN1_pack_string
                0x0000000040202679                ASN1_item_pack
                0x0000000040202788                ASN1_item_unpack
                0x00000000402027e0                BN_mod_exp2_mont
                0x0000000040203090                BN_kronecker
                0x000000004020336a                BN_get0_nist_prime_192
                0x0000000040203375                BN_get0_nist_prime_224
                0x0000000040203380                BN_get0_nist_prime_256
                0x000000004020338b                BN_get0_nist_prime_384
                0x0000000040203396                BN_get0_nist_prime_521
                0x00000000402033a1                BN_nist_mod_192
                0x0000000040203614                BN_nist_mod_224
                0x000000004020394f                BN_nist_mod_256
                0x0000000040203de4                BN_nist_mod_384
                0x000000004020437e                BN_nist_mod_521
                0x0000000040204560                BN_mod_sqrt
                0x0000000040204ea3                CONF_modules_load
                0x0000000040205350                CONF_modules_finish
                0x00000000402053ca                CONF_modules_unload
                0x000000004020547c                CONF_module_add
                0x000000004020549e                CONF_modules_free
                0x00000000402054b3                CONF_imodule_get_name
                0x00000000402054bd                CONF_imodule_get_value
                0x00000000402054c7                CONF_imodule_get_usr_data
                0x00000000402054d1                CONF_imodule_set_usr_data
                0x00000000402054db                CONF_imodule_get_module
                0x00000000402054e4                CONF_imodule_get_flags
                0x00000000402054ee                CONF_imodule_set_flags
                0x00000000402054f8                CONF_module_get_usr_data
                0x0000000040205502                CONF_module_set_usr_data
                0x000000004020550c                CONF_get1_default_config_file
                0x0000000040205589                CONF_modules_load_file
                0x0000000040205651                CONF_parse_list
                0x0000000040205770                DSO_set_default_method
                0x000000004020577d                DSO_get_default_method
                0x000000004020578a                DSO_get_method
                0x0000000040205793                DSO_set_method
                0x000000004020579f                DSO_new_method
                0x000000004020589d                DSO_new
                0x00000000402058ad                DSO_free
                0x00000000402059bf                DSO_flags
                0x00000000402059d4                DSO_up_ref
                0x0000000040205a26                DSO_bind_var
                0x0000000040205ac6                DSO_bind_func
                0x0000000040205b66                DSO_ctrl
                0x0000000040205bfb                DSO_set_name_converter
                0x0000000040205c40                DSO_get_filename
                0x0000000040205c74                DSO_set_filename
                0x0000000040205d67                DSO_load
                0x0000000040205f06                DSO_merge
                0x0000000040205f67                DSO_convert_filename
                0x0000000040206066                DSO_get_loaded_filename
                0x000000004020609a                DSO_pathbyaddr
                0x0000000040206106                DSO_global_lookup
                0x000000004020615e                DSO_METHOD_openssl
                0x0000000040206170                ec_GF2m_simple_is_at_infinity
                0x0000000040206180                ec_GF2m_simple_points_make_affine
                0x00000000402061e5                ec_GF2m_simple_group_init
                0x000000004020621e                ec_GF2m_simple_point_init
                0x0000000040206251                ec_GF2m_simple_group_finish
                0x0000000040206285                ec_GF2m_simple_point_finish
                0x00000000402062b3                ec_GF2m_simple_group_clear_finish
                0x0000000040206323                ec_GF2m_simple_point_clear_finish
                0x0000000040206358                ec_GF2m_simple_group_get_curve
                0x00000000402063d8                ec_GF2m_simple_point_copy
                0x0000000040206442                ec_GF2m_simple_group_copy
                0x00000000402065eb                ec_GF2m_simple_group_set_curve
                0x0000000040206792                ec_GF2m_simple_group_get_degree
                0x00000000402067a4                ec_GF2m_simple_group_check_discriminant
                0x000000004020686e                ec_GF2m_simple_point_set_to_infinity
                0x000000004020688e                ec_GF2m_simple_point_set_affine_coordinates
                0x0000000040206964                ec_GF2m_simple_point_get_affine_coordinates
                0x0000000040206a56                ec_GF2m_simple_is_on_curve
                0x0000000040206bf2                ec_GF2m_simple_set_compressed_coordinates
                0x0000000040206e81                ec_GF2m_simple_cmp
                0x000000004020701b                ec_GF2m_simple_make_affine
                0x000000004020712e                ec_GF2m_simple_point2oct
                0x00000000402074d8                ec_GF2m_simple_oct2point
                0x0000000040207882                ec_GF2m_simple_add
                0x0000000040207d1c                ec_GF2m_simple_dbl
                0x0000000040207d2d                ec_GF2m_simple_invert
                0x0000000040207d8a                ec_GF2m_simple_field_mul
                0x0000000040207da8                ec_GF2m_simple_field_sqr
                0x0000000040207dc3                ec_GF2m_simple_field_div
                0x0000000040207dde                EC_GF2m_simple_method
                0x0000000040207de9                d2i_ECDSA_SIG
                0x0000000040207df9                i2d_ECDSA_SIG
                0x0000000040207e09                ECDSA_SIG_new
                0x0000000040207e19                ECDSA_SIG_free
                0x0000000040207e3f                ERR_print_errors_cb
                0x0000000040207f31                ERR_print_errors
                0x0000000040207f44                PKCS12_item_pack_safebag
                0x0000000040208031                PKCS12_MAKE_KEYBAG
                0x0000000040208087                PKCS12_MAKE_SHKEYBAG
                0x0000000040208170                PKCS12_pack_p7data
                0x000000004020823b                PKCS12_unpack_p7data
                0x0000000040208290                PKCS12_pack_p7encdata
                0x0000000040208426                PKCS12_unpack_p7encdata
                0x0000000040208486                PKCS12_decrypt_skey
                0x0000000040208495                PKCS12_pack_authsafes
                0x00000000402084bc                PKCS12_unpack_authsafes
                0x0000000040208519                d2i_PKCS12
                0x0000000040208529                i2d_PKCS12
                0x0000000040208539                PKCS12_new
                0x0000000040208549                PKCS12_free
                0x0000000040208559                d2i_PKCS12_MAC_DATA
                0x0000000040208569                i2d_PKCS12_MAC_DATA
                0x0000000040208579                PKCS12_MAC_DATA_new
                0x0000000040208589                PKCS12_MAC_DATA_free
                0x0000000040208599                d2i_PKCS12_BAGS
                0x00000000402085a9                i2d_PKCS12_BAGS
                0x00000000402085b9                PKCS12_BAGS_new
                0x00000000402085c9                PKCS12_BAGS_free
                0x00000000402085d9                d2i_PKCS12_SAFEBAG
                0x00000000402085e9                i2d_PKCS12_SAFEBAG
                0x00000000402085f9                PKCS12_SAFEBAG_new
                0x0000000040208609                PKCS12_SAFEBAG_free
                0x0000000040208619                PKCS12_pbe_crypt
                0x0000000040208789                PKCS12_item_decrypt_d2i
                0x0000000040208858                PKCS12_item_i2d_encrypt
                0x0000000040208984                PKCS8_encrypt
                0x0000000040208aac                X509_policy_tree_level_count
                0x0000000040208ac1                X509_policy_tree_get0_level
                0x0000000040208af2                X509_policy_tree_get0_policies
                0x0000000040208b08                X509_policy_tree_get0_user_policies
                0x0000000040208b2a                X509_policy_level_node_count
                0x0000000040208b63                X509_policy_level_get0_node
                0x0000000040208b8e                X509_policy_node_get0_policy
                0x0000000040208ba7                X509_policy_node_get0_qualifiers
                0x0000000040208bc0                X509_policy_node_get0_parent
                0x0000000040208bf5                policy_node_cmp_new
                0x0000000040208c05                tree_find_sk
                0x0000000040208c43                level_find_node
                0x0000000040208cb6                level_add_node
                0x0000000040208dac                policy_node_free
                0x0000000040208db7                policy_node_match
                0x0000000040208fc2                i2v_GENERAL_NAME
                0x000000004020922e                i2v_GENERAL_NAMES
                0x0000000040209289                GENERAL_NAME_print
                0x0000000040209423                a2i_GENERAL_NAME
                0x00000000402097c5                v2i_GENERAL_NAME_ex
                0x0000000040209924                v2i_GENERAL_NAME
                0x0000000040209c73                v2i_GENERAL_NAMES
                0x0000000040209d61                d2i_BASIC_CONSTRAINTS
                0x0000000040209d71                i2d_BASIC_CONSTRAINTS
                0x0000000040209d81                BASIC_CONSTRAINTS_new
                0x0000000040209d91                BASIC_CONSTRAINTS_free
                0x000000004020a508                X509V3_EXT_nconf
                0x000000004020a5cd                X509V3_EXT_nconf_nid
                0x000000004020a64b                X509V3_EXT_i2d
                0x000000004020a6ab                X509V3_EXT_add_nconf_sk
                0x000000004020a751                X509V3_EXT_add_nconf
                0x000000004020a76f                X509V3_EXT_CRL_add_nconf
                0x000000004020a78d                X509V3_EXT_REQ_add_nconf
                0x000000004020a7e6                X509V3_get_string
                0x000000004020a831                X509V3_get_section
                0x000000004020a881                X509V3_string_free
                0x000000004020a8a0                X509V3_section_free
                0x000000004020a8bf                X509V3_set_nconf
                0x000000004020a8d1                X509V3_set_ctx
                0x000000004020a8ea                X509V3_EXT_conf
                0x000000004020a929                X509V3_EXT_conf_nid
                0x000000004020a968                X509V3_set_conf_lhash
                0x000000004020a97a                X509V3_EXT_add_conf
                0x000000004020a9b9                X509V3_EXT_CRL_add_conf
                0x000000004020a9f8                X509V3_EXT_REQ_add_conf
                0x000000004020ab8b                ACCESS_DESCRIPTION_free
                0x000000004020ab9b                d2i_ACCESS_DESCRIPTION
                0x000000004020abab                i2d_ACCESS_DESCRIPTION
                0x000000004020abbb                ACCESS_DESCRIPTION_new
                0x000000004020addf                d2i_AUTHORITY_INFO_ACCESS
                0x000000004020adef                i2d_AUTHORITY_INFO_ACCESS
                0x000000004020adff                AUTHORITY_INFO_ACCESS_new
                0x000000004020ae0f                AUTHORITY_INFO_ACCESS_free
                0x000000004020ae1f                i2a_ACCESS_DESCRIPTION
                0x000000004020ae72                X509V3_EXT_add
                0x000000004020af08                X509V3_EXT_get_nid
                0x000000004020af86                X509V3_EXT_get
                0x000000004020afa4                X509V3_EXT_add_list
                0x000000004020afdf                X509V3_EXT_add_alias
                0x000000004020b0da                X509V3_EXT_cleanup
                0x000000004020b0fc                X509V3_add_standard_extensions
                0x000000004020b107                X509V3_EXT_d2i
                0x000000004020b162                X509V3_get_d2i
                0x000000004020b2a1                X509V3_add1_i2d
                0x000000004020c242                d2i_PROXY_POLICY
                0x000000004020c252                i2d_PROXY_POLICY
                0x000000004020c262                PROXY_POLICY_new
                0x000000004020c272                PROXY_POLICY_free
                0x000000004020c282                d2i_PROXY_CERT_INFO_EXTENSION
                0x000000004020c292                i2d_PROXY_CERT_INFO_EXTENSION
                0x000000004020c2a2                PROXY_CERT_INFO_EXTENSION_new
                0x000000004020c2b2                PROXY_CERT_INFO_EXTENSION_free
                0x000000004020c358                d2i_PKEY_USAGE_PERIOD
                0x000000004020c368                i2d_PKEY_USAGE_PERIOD
                0x000000004020c378                PKEY_USAGE_PERIOD_new
                0x000000004020c388                PKEY_USAGE_PERIOD_free
                0x000000004020c398                i2s_ASN1_OCTET_STRING
                0x000000004020c3ad                s2i_ASN1_OCTET_STRING
                0x000000004020c64e                d2i_SXNETID
                0x000000004020c65e                i2d_SXNETID
                0x000000004020c66e                SXNETID_new
                0x000000004020c67e                SXNETID_free
                0x000000004020c68e                d2i_SXNET
                0x000000004020c69e                i2d_SXNET
                0x000000004020c6ae                SXNET_new
                0x000000004020c6be                SXNET_free
                0x000000004020c6ce                SXNET_get_id_INTEGER
                0x000000004020c729                SXNET_add_id_INTEGER
                0x000000004020c8d9                SXNET_add_id_asc
                0x000000004020c9a4                SXNET_add_id_ulong
                0x000000004020ca30                SXNET_get_id_asc
                0x000000004020ca90                SXNET_get_id_ulong
                0x000000004020cb16                X509_get_default_private_dir
                0x000000004020cb21                X509_get_default_cert_area
                0x000000004020cb2c                X509_get_default_cert_dir
                0x000000004020cb37                X509_get_default_cert_file
                0x000000004020cb42                X509_get_default_cert_dir_env
                0x000000004020cb4d                X509_get_default_cert_file_env
                0x000000004020cb95                i2d_ASN1_SET
                0x000000004020ce06                d2i_ASN1_SET
                0x000000004020d6c8                ASN1_generate_v3
                0x000000004020e00a                ASN1_generate_nconf
                0x000000004020e20c                BN_GF2m_add
                0x000000004020e2f5                BN_GF2m_mod_arr
                0x000000004020e5a9                BN_GF2m_mod_sqr_arr
                0x000000004020e746                BN_GF2m_mod_mul_arr
                0x000000004020e9b4                BN_GF2m_mod_exp_arr
                0x000000004020ead7                BN_GF2m_mod_sqrt_arr
                0x000000004020eb6e                BN_GF2m_mod_solve_quad_arr
                0x000000004020ef2b                BN_GF2m_poly2arr
                0x000000004020efc6                BN_GF2m_mod
                0x000000004020f075                BN_GF2m_mod_inv
                0x000000004020f257                BN_GF2m_mod_mul
                0x000000004020f316                BN_GF2m_mod_div
                0x000000004020f3a5                BN_GF2m_mod_sqr
                0x000000004020f45c                BN_GF2m_mod_exp
                0x000000004020f51b                BN_GF2m_mod_sqrt
                0x000000004020f5d2                BN_GF2m_mod_solve_quad
                0x000000004020f689                BN_GF2m_arr2poly
                0x000000004020f6ec                BN_GF2m_mod_inv_arr
                0x000000004020f766                BN_GF2m_mod_div_arr
                0x000000004020f7f0                CONF_set_nconf
                0x000000004020f829                CONF_set_default_method
                0x000000004020f83b                CONF_load
                0x000000004020f865                NCONF_new
                0x000000004020f8b2                NCONF_free
                0x000000004020f8c4                NCONF_free_data
                0x000000004020f8d6                CONF_free
                0x000000004020f8f5                NCONF_load
                0x000000004020f92a                NCONF_load_bio
                0x000000004020f95f                CONF_load_bio
                0x000000004020f9a3                NCONF_get_section
                0x000000004020fa01                CONF_get_section
                0x000000004020fa39                NCONF_get_string
                0x000000004020fad5                CONF_get_string
                0x000000004020fb16                NCONF_get_number_e
                0x000000004020fbb3                CONF_get_number
                0x000000004020fc11                NCONF_dump_bio
                0x000000004020fc46                CONF_dump_bio
                0x000000004020fc71                DSO_METHOD_null
                0x0000000040210545                ec_GF2m_simple_mul
                0x0000000040210797                ec_GF2m_precompute_mult
                0x00000000402107a2                ec_GF2m_have_precompute_mult
                0x00000000402107b0                i2a_ASN1_INTEGER
                0x00000000402108f6                a2i_ASN1_INTEGER
                0x0000000040210bdc                i2a_ASN1_STRING
                0x0000000040210cf5                a2i_ASN1_STRING
                0x0000000040210fa4                d2i_OCSP_SIGNATURE
                0x0000000040210fb4                i2d_OCSP_SIGNATURE
                0x0000000040210fc4                OCSP_SIGNATURE_new
                0x0000000040210fd4                OCSP_SIGNATURE_free
                0x0000000040210fe4                d2i_OCSP_CERTID
                0x0000000040210ff4                i2d_OCSP_CERTID
                0x0000000040211004                OCSP_CERTID_new
                0x0000000040211014                OCSP_CERTID_free
                0x0000000040211024                d2i_OCSP_ONEREQ
                0x0000000040211034                i2d_OCSP_ONEREQ
                0x0000000040211044                OCSP_ONEREQ_new
                0x0000000040211054                OCSP_ONEREQ_free
                0x0000000040211064                d2i_OCSP_REQINFO
                0x0000000040211074                i2d_OCSP_REQINFO
                0x0000000040211084                OCSP_REQINFO_new
                0x0000000040211094                OCSP_REQINFO_free
                0x00000000402110a4                d2i_OCSP_REQUEST
                0x00000000402110b4                i2d_OCSP_REQUEST
                0x00000000402110c4                OCSP_REQUEST_new
                0x00000000402110d4                OCSP_REQUEST_free
                0x00000000402110e4                d2i_OCSP_RESPBYTES
                0x00000000402110f4                i2d_OCSP_RESPBYTES
                0x0000000040211104                OCSP_RESPBYTES_new
                0x0000000040211114                OCSP_RESPBYTES_free
                0x0000000040211124                d2i_OCSP_RESPONSE
                0x0000000040211134                i2d_OCSP_RESPONSE
                0x0000000040211144                OCSP_RESPONSE_new
                0x0000000040211154                OCSP_RESPONSE_free
                0x0000000040211164                d2i_OCSP_RESPID
                0x0000000040211174                i2d_OCSP_RESPID
                0x0000000040211184                OCSP_RESPID_new
                0x0000000040211194                OCSP_RESPID_free
                0x00000000402111a4                d2i_OCSP_REVOKEDINFO
                0x00000000402111b4                i2d_OCSP_REVOKEDINFO
                0x00000000402111c4                OCSP_REVOKEDINFO_new
                0x00000000402111d4                OCSP_REVOKEDINFO_free
                0x00000000402111e4                d2i_OCSP_CERTSTATUS
                0x00000000402111f4                i2d_OCSP_CERTSTATUS
                0x0000000040211204                OCSP_CERTSTATUS_new
                0x0000000040211214                OCSP_CERTSTATUS_free
                0x0000000040211224                d2i_OCSP_SINGLERESP
                0x0000000040211234                i2d_OCSP_SINGLERESP
                0x0000000040211244                OCSP_SINGLERESP_new
                0x0000000040211254                OCSP_SINGLERESP_free
                0x0000000040211264                d2i_OCSP_RESPDATA
                0x0000000040211274                i2d_OCSP_RESPDATA
                0x0000000040211284                OCSP_RESPDATA_new
                0x0000000040211294                OCSP_RESPDATA_free
                0x00000000402112a4                d2i_OCSP_BASICRESP
                0x00000000402112b4                i2d_OCSP_BASICRESP
                0x00000000402112c4                OCSP_BASICRESP_new
                0x00000000402112d4                OCSP_BASICRESP_free
                0x00000000402112e4                d2i_OCSP_CRLID
                0x00000000402112f4                i2d_OCSP_CRLID
                0x0000000040211304                OCSP_CRLID_new
                0x0000000040211314                OCSP_CRLID_free
                0x0000000040211324                d2i_OCSP_SERVICELOC
                0x0000000040211334                i2d_OCSP_SERVICELOC
                0x0000000040211344                OCSP_SERVICELOC_new
                0x0000000040211354                OCSP_SERVICELOC_free
                0x000000004021171a                i2v_ASN1_BIT_STRING
                0x000000004021176f                v2i_ASN1_BIT_STRING
                0x00000000402118f0                i2s_ASN1_ENUMERATED_TABLE
                0x0000000040211ab7                d2i_EXTENDED_KEY_USAGE
                0x0000000040211ac7                i2d_EXTENDED_KEY_USAGE
                0x0000000040211ad7                EXTENDED_KEY_USAGE_new
                0x0000000040211ae7                EXTENDED_KEY_USAGE_free
                0x0000000040211d39                _CONF_get_section
                0x0000000040211d71                _CONF_get_section_values
                0x0000000040211d8c                _CONF_add_string
                0x0000000040211e06                _CONF_get_string
                0x0000000040211e9b                _CONF_new_data
                0x0000000040211ee2                _CONF_free_data
                0x0000000040211f33                _CONF_new_section
                0x0000000040212f00                NCONF_default
                0x0000000040212f0b                NCONF_WIN32
                0x0000000040212f16                codeend = .

.iplt           0x0000000040212f20        0x0 load address 0x0000000000212f20
 .iplt          0x0000000000000000        0x0 output.o

.rodata         0x0000000040212f20    0x3534c load address 0x0000000000212f20
 .rodata        0x0000000040212f20    0x3534c output.o
                0x0000000040221520                BN_version
                0x0000000040221800                DES_SPtrans
                0x0000000040222800                DH_version
                0x0000000040223ce0                OSSL_DES_version
                0x0000000040223d20                OSSL_libdes_version
                0x0000000040223e00                EVP_version
                0x0000000040223ec0                IDEA_version
                0x0000000040223f00                lh_version
                0x0000000040224540                MD4_version
                0x0000000040224580                MD5_version
                0x0000000040231120                PEM_version
                0x0000000040231160                PKCS7_ATTR_VERIFY_it
                0x00000000402311e0                PKCS7_ATTR_SIGN_it
                0x0000000040231260                PKCS7_DIGEST_it
                0x0000000040231340                PKCS7_ENCRYPT_it
                0x00000000402313e0                PKCS7_SIGN_ENVELOPE_it
                0x0000000040231540                PKCS7_ENC_CONTENT_it
                0x0000000040231600                PKCS7_RECIP_INFO_it
                0x0000000040231720                PKCS7_ENVELOPE_it
                0x00000000402317e0                PKCS7_ISSUER_AND_SERIAL_it
                0x0000000040231880                PKCS7_SIGNER_INFO_it
                0x0000000040231a20                PKCS7_SIGNED_it
                0x0000000040231b60                PKCS7_it
                0x0000000040231ee0                RC2_version
                0x0000000040232020                RC4_version
                0x0000000040232060                RMD160_version
                0x00000000402320a0                RSAPublicKey_it
                0x0000000040232180                RSAPrivateKey_it
                0x0000000040232380                RSA_version
                0x0000000040233580                SHA1_version
                0x00000000402336c0                SHA256_version
                0x0000000040233980                SHA512_version
                0x00000000402339c0                SHA_version
                0x0000000040233a00                STACK_version
                0x0000000040233c60                ASN1_SET_ANY_it
                0x0000000040233ce0                ASN1_SEQUENCE_ANY_it
                0x0000000040233d60                ASN1_OCTET_STRING_NDEF_it
                0x0000000040233da0                ASN1_FBOOLEAN_it
                0x0000000040233de0                ASN1_TBOOLEAN_it
                0x0000000040233e20                ASN1_BOOLEAN_it
                0x0000000040233e60                DIRECTORYSTRING_it
                0x0000000040233ea0                DISPLAYTEXT_it
                0x0000000040233ee0                ASN1_PRINTABLE_it
                0x0000000040233f20                ASN1_SEQUENCE_it
                0x0000000040233f60                ASN1_ANY_it
                0x0000000040233fa0                ASN1_BMPSTRING_it
                0x0000000040233fe0                ASN1_UNIVERSALSTRING_it
                0x0000000040234020                ASN1_VISIBLESTRING_it
                0x0000000040234060                ASN1_GENERALIZEDTIME_it
                0x00000000402340a0                ASN1_UTCTIME_it
                0x00000000402340e0                ASN1_GENERALSTRING_it
                0x0000000040234120                ASN1_IA5STRING_it
                0x0000000040234160                ASN1_T61STRING_it
                0x00000000402341a0                ASN1_PRINTABLESTRING_it
                0x00000000402341e0                ASN1_UTF8STRING_it
                0x0000000040234220                ASN1_OBJECT_it
                0x0000000040234260                ASN1_NULL_it
                0x00000000402342a0                ASN1_OCTET_STRING_it
                0x00000000402342e0                ASN1_BIT_STRING_it
                0x0000000040234320                ASN1_ENUMERATED_it
                0x0000000040234360                ASN1_INTEGER_it
                0x00000000402343c0                X509_version
                0x0000000040234520                X509_ALGORS_it
                0x00000000402345a0                X509_ALGOR_it
                0x0000000040234640                X509_ATTRIBUTE_it
                0x00000000402346e0                X509_ATTRIBUTE_SET_it
                0x0000000040234780                CBIGNUM_it
                0x00000000402347c0                BIGNUM_it
                0x0000000040234800                X509_CRL_it
                0x0000000040234900                X509_CRL_INFO_it
                0x0000000040234aa0                X509_REVOKED_it
                0x0000000040234b60                X509_EXTENSIONS_it
                0x0000000040234be0                X509_EXTENSION_it
                0x0000000040234ca0                ZLONG_it
                0x0000000040234ce0                LONG_it
                0x0000000040234d20                X509_NAME_it
                0x0000000040234d60                x509_name_ff
                0x0000000040234da0                X509_NAME_INTERNAL_it
                0x0000000040234e20                X509_NAME_ENTRIES_it
                0x0000000040234ea0                X509_NAME_ENTRY_it
                0x0000000040234f40                X509_PUBKEY_it
                0x0000000040235020                X509_REQ_it
                0x0000000040235120                X509_REQ_INFO_it
                0x0000000040235240                X509_SIG_it
                0x00000000402352e0                NETSCAPE_SPKI_it
                0x00000000402353a0                NETSCAPE_SPKAC_it
                0x0000000040235440                X509_it
                0x0000000040235540                X509_CINF_it
                0x0000000040235760                X509_CERT_PAIR_it
                0x0000000040235800                X509_CERT_AUX_it
                0x0000000040235da0                rsa_pkey_meth
                0x0000000040235e80                dh_pkey_meth
                0x0000000040235f60                dsa_pkey_meth
                0x0000000040236040                ec_pkey_meth
                0x0000000040236120                hmac_pkey_meth
                0x0000000040236240                rsa_asn1_meths
                0x00000000402363c0                dh_asn1_meth
                0x0000000040236480                dsa_asn1_meths
                0x0000000040236820                eckey_asn1_meth
                0x00000000402368e0                hmac_asn1_meth
                0x0000000040237a20                CMS_Receipt_it
                0x0000000040237b00                CMS_ReceiptRequest_it
                0x0000000040237bc0                CMS_ReceiptsFrom_it
                0x0000000040237c60                CMS_Attributes_Verify_it
                0x0000000040237ce0                CMS_Attributes_Sign_it
                0x0000000040237d60                CMS_ContentInfo_it
                0x0000000040238020                CMS_CompressedData_it
                0x00000000402380e0                CMS_AuthenticatedData_it
                0x00000000402382a0                CMS_EncryptedData_it
                0x0000000040238360                CMS_DigestedData_it
                0x0000000040238440                CMS_EnvelopedData_it
                0x0000000040238560                CMS_RecipientInfo_it
                0x00000000402386c0                CMS_OtherRecipientInfo_it
                0x0000000040238760                CMS_PasswordRecipientInfo_it
                0x0000000040238840                CMS_KEKRecipientInfo_it
                0x0000000040238920                CMS_KEKIdentifier_it
                0x00000000402389e0                CMS_KeyAgreeRecipientInfo_it
                0x0000000040238b00                CMS_OriginatorIdentifierOrKey_it
                0x0000000040238bc0                CMS_OriginatorPublicKey_it
                0x0000000040238c60                CMS_RecipientEncryptedKey_it
                0x0000000040238d00                CMS_KeyAgreeRecipientIdentifier_it
                0x0000000040238da0                CMS_RecipientKeyIdentifier_it
                0x0000000040238e60                CMS_OtherKeyAttribute_it
                0x0000000040238f00                CMS_KeyTransRecipientInfo_it
                0x0000000040238fe0                CMS_EncryptedContentInfo_it
                0x00000000402390a0                CMS_OriginatorInfo_it
                0x0000000040239140                CMS_SignedData_it
                0x0000000040239280                CMS_RevocationInfoChoice_it
                0x0000000040239320                CMS_OtherRevocationInfoFormat_it
                0x00000000402393c0                CMS_SignerInfo_it
                0x0000000040239560                CMS_EncapsulatedContentInfo_it
                0x0000000040239600                CMS_SignerIdentifier_it
                0x00000000402396a0                CMS_CertificateChoices_it
                0x00000000402397c0                CMS_OtherCertificateFormat_it
                0x0000000040239860                CMS_IssuerAndSerialNumber_it
                0x0000000040239ae0                ASN1_TIME_it
                0x0000000040239b60                ASN1_version
                0x0000000040239ca0                BF_version
                0x000000004023bec0                CAST_version
                0x000000004023bf80                CAST_S_table7
                0x000000004023c380                CAST_S_table6
                0x000000004023c780                CAST_S_table5
                0x000000004023cb80                CAST_S_table4
                0x000000004023cf80                CAST_S_table3
                0x000000004023d380                CAST_S_table2
                0x000000004023d780                CAST_S_table1
                0x000000004023db80                CAST_S_table0
                0x000000004023e1c0                DHparams_it
                0x000000004023e2c0                DSAPublicKey_it
                0x000000004023e3a0                dsa_pub_internal_it
                0x000000004023e480                DSAparams_it
                0x000000004023e580                DSAPrivateKey_it
                0x000000004023e700                DSA_SIG_it
                0x000000004023e7e0                DSA_version
                0x000000004023e820                EC_PRIVATEKEY_it
                0x000000004023e900                ECPKPARAMETERS_it
                0x000000004023e9c0                ECPARAMETERS_it
                0x000000004023eb00                X9_62_CURVE_it
                0x000000004023ebc0                X9_62_FIELDID_it
                0x000000004023ed40                X9_62_CHARACTERISTIC_TWO_it
                0x000000004023ef20                X9_62_PENTANOMIAL_it
                0x0000000040242960                ECDH_version
                0x0000000040242d60                ECDSA_version
                0x0000000040243060                RAND_version
                0x00000000402430a0                NETSCAPE_CERT_SEQUENCE_it
                0x0000000040243180                PBEPARAM_it
                0x0000000040243220                PBKDF2PARAM_it
                0x0000000040243300                PBE2PARAM_it
                0x00000000402433a0                PKCS8_PRIV_KEY_INFO_it
                0x0000000040243560                AUTHORITY_KEYID_it
                0x0000000040243620                NOTICEREF_it
                0x00000000402436c0                USERNOTICE_it
                0x0000000040243760                POLICYQUALINFO_it
                0x00000000402438e0                POLICYINFO_it
                0x0000000040243980                CERTIFICATEPOLICIES_it
                0x0000000040243a00                v3_cpols
                0x0000000040243a80                v3_idp
                0x0000000040243b00                ISSUING_DIST_POINT_it
                0x0000000040243c40                CRL_DIST_POINTS_it
                0x0000000040243cc0                DIST_POINT_it
                0x0000000040243d80                DIST_POINT_NAME_it
                0x0000000040243f60                v3_freshest_crl
                0x0000000040243fe0                v3_crld
                0x0000000040244140                GENERAL_NAMES_it
                0x00000000402441c0                GENERAL_NAME_it
                0x0000000040244380                EDIPARTYNAME_it
                0x0000000040244420                OTHERNAME_it
                0x00000000402444c0                NAME_CONSTRAINTS_it
                0x0000000040244560                GENERAL_SUBTREE_it
                0x0000000040244620                v3_name_constraints
                0x00000000402446a0                POLICY_CONSTRAINTS_it
                0x0000000040244740                v3_policy_constraints
                0x00000000402447c0                POLICY_MAPPINGS_it
                0x0000000040244840                POLICY_MAPPING_it
                0x00000000402448e0                v3_policy_mappings
                0x00000000402449c0                X509_VAL_it
                0x0000000040245460                ECDSA_SIG_it
                0x0000000040245500                PKCS12_AUTHSAFES_it
                0x0000000040245580                PKCS12_SAFEBAGS_it
                0x0000000040245600                PKCS12_SAFEBAG_it
                0x0000000040245860                PKCS12_BAGS_it
                0x0000000040245a20                PKCS12_MAC_DATA_it
                0x0000000040245ae0                PKCS12_it
                0x0000000040245c80                v3_alt
                0x0000000040245dc0                BASIC_CONSTRAINTS_it
                0x0000000040245e60                v3_bcons
                0x0000000040245ee0                AUTHORITY_INFO_ACCESS_it
                0x0000000040245f60                ACCESS_DESCRIPTION_it
                0x0000000040246000                v3_sinfo
                0x0000000040246080                v3_info
                0x0000000040246100                v3_ocsp_serviceloc
                0x0000000040246180                v3_ocsp_nocheck
                0x0000000040246200                v3_ocsp_nonce
                0x0000000040246280                v3_crl_hold
                0x0000000040246300                v3_crl_invdate
                0x0000000040246380                v3_ocsp_acutoff
                0x0000000040246400                v3_ocsp_crlid
                0x0000000040246480                v3_pci
                0x0000000040246500                PROXY_CERT_INFO_EXTENSION_it
                0x00000000402465a0                PROXY_POLICY_it
                0x0000000040246640                PKEY_USAGE_PERIOD_it
                0x00000000402466e0                v3_pkey_usage_period
                0x0000000040246760                v3_skey_id
                0x00000000402467e0                SXNET_it
                0x0000000040246880                SXNETID_it
                0x0000000040246920                v3_sxnet
                0x0000000040246e40                CONF_version
                0x0000000040246e80                OCSP_SERVICELOC_it
                0x0000000040246f20                OCSP_CRLID_it
                0x0000000040246fe0                OCSP_BASICRESP_it
                0x00000000402470c0                OCSP_RESPDATA_it
                0x00000000402471e0                OCSP_SINGLERESP_it
                0x0000000040247300                OCSP_CERTSTATUS_it
                0x00000000402473c0                OCSP_REVOKEDINFO_it
                0x0000000040247460                OCSP_RESPID_it
                0x0000000040247500                OCSP_RESPONSE_it
                0x00000000402475a0                OCSP_RESPBYTES_it
                0x0000000040247640                OCSP_REQUEST_it
                0x00000000402476e0                OCSP_REQINFO_it
                0x00000000402477c0                OCSP_ONEREQ_it
                0x0000000040247860                OCSP_CERTID_it
                0x0000000040247940                OCSP_SIGNATURE_it
                0x0000000040247a00                v3_akey_id
                0x0000000040247a80                v3_key_usage
                0x0000000040247b00                v3_nscert
                0x0000000040247b80                v3_crl_reason
                0x0000000040247c00                EXTENDED_KEY_USAGE_it
                0x0000000040247c80                v3_ocsp_accresp
                0x0000000040247d00                v3_ext_ku
                0x0000000040247d80                v3_ns_ia5_list
                0x00000000402480c0                v3_inhibit_anyp
                0x0000000040248140                v3_delta_crl
                0x00000000402481c0                v3_crl_num
                0x0000000040248240                CONF_def_version

.rodata.str1.8  0x0000000040248270     0x97c0 load address 0x0000000000248270
 .rodata.str1.8
                0x0000000040248270     0x97c0 output.o
                                       0x9ae5 (size before relaxing)

.rodata.str1.1  0x0000000040251a30    0x12b32 load address 0x0000000000251a30
 .rodata.str1.1
                0x0000000040251a30    0x12b32 output.o
                                      0x14f35 (size before relaxing)

.eh_frame       0x0000000040264568    0x38030 load address 0x0000000000264568
 .eh_frame      0x0000000040264568    0x38030 output.o

.eh_frame_hdr   0x000000004029c598        0x8 load address 0x000000000029c598
 .eh_frame_hdr  0x000000004029c598        0x8 output.o

.note.gnu.build-id
                0x000000004029c5a0      0x288 load address 0x000000000029c5a0
 .note.gnu.build-id
                0x000000004029c5a0      0x288 output.o

.rela.dyn       0x000000004029c828        0x0 load address 0x000000000029c828
 .rela.iplt     0x0000000000000000        0x0 output.o
 .rela.text     0x0000000000000000        0x0 output.o

.data           0x000000004029d000  0x974e000 load address 0x000000000029d000
                0x000000004029d000                data = .
 *(.data)
 .data          0x000000004029d000   0xb81688 output.o
                0x000000004029d020                config
                0x00000000402ad190                use_pae
                0x00000000402ad3b0                savemsr_index
                0x00000000402ae000                vmm_pml4
                0x00000000402af000                vmm_pdp
                0x00000000402b0000                vmm_pd
                0x00000000402b1000                vmm_pd1
                0x00000000402b2000                vmm_pd2
                0x00000000402b3000                guest_int0x15_hook
                0x00000000402b301d                guest_int0x15_e801_fake_ax
                0x00000000402b3020                guest_int0x15_e801_fake_bx
                0x00000000402b3031                guest_int0x15_orig
                0x00000000402b3046                guest_int0x15_e820_data_minus0x18
                0x00000000402b304e                guest_int0x15_e820_end
                0x00000000402b3074                guest_int0x15_hook_end
                0x00000000402b4078                wakeup_entry_start
                0x00000000402b4081                wakeup_entry_addr
                0x00000000402b40a7                wakeup_entry_cr4
                0x00000000402b40b0                wakeup_entry_cr3
                0x00000000402b40b9                wakeup_entry_cr0
                0x00000000402b40c8                wakeup_entry_gdtr
                0x00000000402b40d2                wakeup_entry_end
                0x00000000402b4160                ata_bm_handler_table
                0x00000000402b41c0                ata_ctlblk_handler_table
                0x00000000402b41e0                ata_cmdblk_handler_table
                0x00000000402b4c70                usb_log_level
                0x00000000402b5600                hSessionCnt
                0x00000000402b5608                hObjectCnt
                0x00000000402b5e00                g_rgSCardT1Pci
                0x00000000402b5e10                g_rgSCardT0Pci
                0x00000000402b5e20                FI
                0x00000000402b5e60                DI
                0x00000000402ba4a0                default_pctx
                0x00000000402bd720                rand_ssleay_meth
                0x0000000040e1e688                . = ALIGN (0x8)
                0x0000000040e1e688                __initfunc_start = .
 *(.initfunc)
 .initfunc      0x0000000040e1e688      0x640 output.o
                0x0000000040e1e688                __initfunc_acpi_init_paral
                0x0000000040e1e698                __initfunc_acpi_init_global
                0x0000000040e1e6a8                __initfunc_beep_init_msg
                0x0000000040e1e6b8                __initfunc_cache_init_pass
                0x0000000040e1e6c8                __initfunc_cache_init_vcpu
                0x0000000040e1e6d8                __initfunc_cache_init_pcpu
                0x0000000040e1e6e8                __initfunc_callrealmode_panic
                0x0000000040e1e6f8                __initfunc_callrealmode_init_global
                0x0000000040e1e708                __initfunc_cpu_mmu_spt_init_pcpu
                0x0000000040e1e718                __initfunc_cpu_mmu_spt_init_global
                0x0000000040e1e728                __initfunc_cpuid_init
                0x0000000040e1e738                __initfunc_cpuid_pass_init
                0x0000000040e1e748                __initfunc_exint_pass_init
                0x0000000040e1e758                __initfunc_gmm_pass_init
                0x0000000040e1e768                __initfunc_install_int0x15_hook
                0x0000000040e1e778                __initfunc_idman_init
                0x0000000040e1e788                __initfunc_idman_init_global
                0x0000000040e1e798                __initfunc_int_wakeup
                0x0000000040e1e7a8                __initfunc_int_init_global
                0x0000000040e1e7b8                __initfunc_io_io_init
                0x0000000040e1e7c8                __initfunc_setiohooks
                0x0000000040e1e7d8                __initfunc_io_iopass_init
                0x0000000040e1e7e8                __initfunc_keyboard_init_msg
                0x0000000040e1e7f8                __initfunc_localapic_init
                0x0000000040e1e808                __initfunc_get_shiftflags
                0x0000000040e1e818                __initfunc_copy_minios
                0x0000000040e1e828                __initfunc_print_boot_msg
                0x0000000040e1e838                __initfunc_debug_on_shift_key
                0x0000000040e1e848                __initfunc_create_pass_vm
                0x0000000040e1e858                __initfunc_virtualization_init_pcpu
                0x0000000040e1e868                __initfunc_unmap_user_area
                0x0000000040e1e878                __initfunc_mm_init_global
                0x0000000040e1e888                __initfunc_mmio_debug
                0x0000000040e1e898                __initfunc_mmio_init
                0x0000000040e1e8a8                __initfunc_msg_init_global
                0x0000000040e1e8b8                __initfunc_msr_init
                0x0000000040e1e8c8                __initfunc_msr_pass_init
                0x0000000040e1e8d8                __initfunc_nmi_pass_init_pcpu
                0x0000000040e1e8e8                __initfunc_nmi_pass_init
                0x0000000040e1e8f8                __initfunc_panic_init_pcpu
                0x0000000040e1e908                __initfunc_panic_init_msg
                0x0000000040e1e918                __initfunc_panic_init_global3
                0x0000000040e1e928                __initfunc_panic_init_global
                0x0000000040e1e938                __initfunc_printf_init_global
                0x0000000040e1e948                __initfunc_process_wakeup
                0x0000000040e1e958                __initfunc_process_init_ap
                0x0000000040e1e968                __initfunc_process_init_global
                0x0000000040e1e978                __initfunc_random_init_config0
                0x0000000040e1e988                __initfunc_random_init_global
                0x0000000040e1e998                __initfunc_reboot_init_msg
                0x0000000040e1e9a8                __initfunc_segment_init_global
                0x0000000040e1e9b8                __initfunc_serial_init_msg
                0x0000000040e1e9c8                __initfunc_sleep_init_msg
                0x0000000040e1e9d8                __initfunc_sleep_init_global
                0x0000000040e1e9e8                __initfunc_svm_panic
                0x0000000040e1e9f8                __initfunc_sx_init_pass_init
                0x0000000040e1ea08                __initfunc_thread_init_pcpu
                0x0000000040e1ea18                __initfunc_thread_init_global
                0x0000000040e1ea28                __initfunc_time_init_msg
                0x0000000040e1ea38                __initfunc_time_init_pcpu
                0x0000000040e1ea48                __initfunc_time_init_global_status
                0x0000000040e1ea58                __initfunc_time_init_global
                0x0000000040e1ea68                __initfunc_timer_init_global
                0x0000000040e1ea78                __initfunc_tty_init_msg
                0x0000000040e1ea88                __initfunc_tty_init_global2
                0x0000000040e1ea98                __initfunc_tty_init_global
                0x0000000040e1eaa8                __initfunc_vcpu_init_global
                0x0000000040e1eab8                __initfunc_vga_init
                0x0000000040e1eac8                __initfunc_vmmcall_init
                0x0000000040e1ead8                __initfunc_vmmcall_boot_init
                0x0000000040e1eae8                __initfunc_vmmcall_dbgsh_init_pcpu
                0x0000000040e1eaf8                __initfunc_vmmcall_dbgsh_init_global
                0x0000000040e1eb08                __initfunc_vmmcall_dbgsh_init
                0x0000000040e1eb18                __initfunc_vmmcall_iccard_init
                0x0000000040e1eb28                __initfunc_vmmcall_log_init
                0x0000000040e1eb38                __initfunc_vmmcall_status_init
                0x0000000040e1eb48                __initfunc_vmmcall_status_init_global
                0x0000000040e1eb58                __initfunc_vramwrite_init_bsp
                0x0000000040e1eb68                __initfunc_vramwrite_init_msg
                0x0000000040e1eb78                __initfunc_vt_register_status_callback
                0x0000000040e1eb88                __initfunc_vt_panic
                0x0000000040e1eb98                __initfunc_xsetbv_init
                0x0000000040e1eba8                __initfunc_xsetbv_pass_init
                0x0000000040e1ebb8                __initfunc_core_init
                0x0000000040e1ebc8                __initfunc_ieee1394_init_boot
                0x0000000040e1ebd8                __initfunc_ieee1394_init
                0x0000000040e1ebe8                __initfunc_iommu_setup
                0x0000000040e1ebf8                __initfunc_pci_init
                0x0000000040e1ec08                __initfunc_debug_ata_init
                0x0000000040e1ec18                __initfunc_ata_init
                0x0000000040e1ec28                __initfunc_uhci_init
                0x0000000040e1ec38                __initfunc_ehci_init
                0x0000000040e1ec48                __initfunc_pro100_init
                0x0000000040e1ec58                __initfunc_suspend_pro1000
                0x0000000040e1ec68                __initfunc_resume_pro1000
                0x0000000040e1ec78                __initfunc_vpn_pro1000_init
                0x0000000040e1ec88                __initfunc_storage_kernel_init
                0x0000000040e1ec98                __initfunc_storage_io_initfunc
                0x0000000040e1eca8                __initfunc_vpn_kernel_init
                0x0000000040e1ecb8                __initfunc_idman_kernel_init
                0x0000000040e1ecc8                __initfunc_end = .
                0x0000000040e1ecc8                __process_builtin = .
 *(.processes)
 .processes     0x0000000040e1ecc8      0x1a0 output.o
                0x0000000040e1ee68                __process_builtin_end = .
                0x0000000040e1ee68                bss = .
 *(.bss)
 *fill*         0x0000000040e1ee68       0x18 
 .bss           0x0000000040e1ee80  0x8bca7a8 output.o
                0x0000000040e226a0                vmmsize
                0x0000000040e226a8                memorysize
                0x00000000410a6140                pcpu_default
                0x00000000410c3964                ps2_locked
                0x00000000410c3e08                syscallHandlerAddress
                0x00000000410c3e20                numberOfVMs
                0x00000000410c3e28                numberOfProtectedApplications
                0x00000000410c3e30                currentRunningApplication
                0x00000000498c4560                handler_descriptor
                0x00000000498c4768                drhd_list_head
                0x00000000498c5fa0                pci_driver_list_head
                0x00000000498c5fa8                pci_device_list_head
                0x00000000498c6150                uhci_monitor_boost_hc
                0x00000000498c6168                usb_hc_list_head
                0x00000000498c6170                usb_busses_head
                0x00000000498cda68                rt
                0x00000000499e7490                hContext
                0x00000000499e7498                sessionTable
                0x00000000499e74a0                slotTable
                0x00000000499e74a8                slotFlag
                0x00000000499e74a9                libInitFlag
                0x00000000499e80f8                OPENSSL_NONPIC_relocated
                0x00000000499e8100                OPENSSL_ia32cap_P
                0x00000000499e8d48                cleanse_ctr
                0x00000000499e8da8                obj_cleanup_defer
                0x00000000499e8dc8                _shadow_DES_check_key
                0x00000000499e8eb8                app_pkey_methods
                0x00000000499e8f20                chelp_inited
 *(COMMON)
 *fill*         0x00000000499e9628       0x18 
 COMMON         0x00000000499e9640      0xec4 output.o
                0x00000000499e9640                clflush_size
                0x00000000499e9660                sReaderContext
                0x00000000499e96c0                sigx_app
                0x00000000499e96c8                num_dom
                0x00000000499e96e0                mszReaders
                0x00000000499e9ae0                prohibit_iccard_init
                0x00000000499e9ae8                curthread
                0x00000000499e9af0                sig_app
                0x00000000499e9b00                readerState
                0x00000000499e9b80                dom_io
                0x00000000499ea380                acpi_dsdt_system_state
                0x00000000499ea3a0                ehci_host
                0x00000000499ea3a8                num_of_processors
                0x00000000499ea3ac                e801_fake_bx
                0x00000000499ea3ae                iommu_detected
                0x00000000499ea3b0                dwReaders
                0x00000000499ea3c0                readerTracker
                0x00000000499ea500                handler_descriptor_lock
                0x00000000499ea502                e801_fake_ax
                0x00000000499eb000                . = ALIGN (0x1000)
 *fill*         0x00000000499ea504      0xafc 
                0x00000000499eb000                end = .

.igot.plt       0x00000000499eb000        0x0 load address 0x00000000099eb000
 .igot.plt      0x0000000000000000        0x0 output.o

/DISCARD/
 *(.gomi)
LOAD output.o
OUTPUT(bitvisor.elf elf64-x86-64)

.comment        0x0000000000000000       0x2b
 .comment       0x0000000000000000       0x2b output.o
                                       0x5fbc (size before relaxing)

.note.GNU-stack
                0x0000000000000000        0x0
 .note.GNU-stack
                0x0000000000000000        0x0 output.o

.debug_aranges  0x0000000000000000     0x6a20
 .debug_aranges
                0x0000000000000000     0x6a20 output.o

.debug_info     0x0000000000000000   0x35d6bd
 .debug_info    0x0000000000000000   0x35d6bd output.o

.debug_abbrev   0x0000000000000000    0x56954
 .debug_abbrev  0x0000000000000000    0x56954 output.o

.debug_line     0x0000000000000000    0x4f726
 .debug_line    0x0000000000000000    0x4f726 output.o

.debug_str      0x0000000000000000    0x36e1b
 .debug_str     0x0000000000000000    0x36e1b output.o
                                     0x157dfd (size before relaxing)

.debug_loc      0x0000000000000000   0x27a21f
 .debug_loc     0x0000000000000000   0x27a21f output.o

.debug_ranges   0x0000000000000000     0x5fa0
 .debug_ranges  0x0000000000000000     0x5fa0 output.o

Cross Reference Table

Symbol                                            File
ACCESS_DESCRIPTION_free                           output.o
ACCESS_DESCRIPTION_it                             output.o
ACCESS_DESCRIPTION_new                            output.o
AES_cbc_encrypt                                   output.o
AES_cfb128_encrypt                                output.o
AES_cfb1_encrypt                                  output.o
AES_cfb8_encrypt                                  output.o
AES_decrypt                                       output.o
AES_ecb_encrypt                                   output.o
AES_encrypt                                       output.o
AES_ofb128_encrypt                                output.o
AES_set_decrypt_key                               output.o
AES_set_encrypt_key                               output.o
AES_unwrap_key                                    output.o
AES_wrap_key                                      output.o
ASN1_ANY_it                                       output.o
ASN1_BIT_STRING_check                             output.o
ASN1_BIT_STRING_free                              output.o
ASN1_BIT_STRING_get_bit                           output.o
ASN1_BIT_STRING_it                                output.o
ASN1_BIT_STRING_new                               output.o
ASN1_BIT_STRING_set                               output.o
ASN1_BIT_STRING_set_bit                           output.o
ASN1_BMPSTRING_free                               output.o
ASN1_BMPSTRING_it                                 output.o
ASN1_BMPSTRING_new                                output.o
ASN1_BOOLEAN_it                                   output.o
ASN1_ENUMERATED_free                              output.o
ASN1_ENUMERATED_get                               output.o
ASN1_ENUMERATED_it                                output.o
ASN1_ENUMERATED_new                               output.o
ASN1_ENUMERATED_set                               output.o
ASN1_ENUMERATED_to_BN                             output.o
ASN1_FBOOLEAN_it                                  output.o
ASN1_GENERALIZEDTIME_adj                          output.o
ASN1_GENERALIZEDTIME_check                        output.o
ASN1_GENERALIZEDTIME_free                         output.o
ASN1_GENERALIZEDTIME_it                           output.o
ASN1_GENERALIZEDTIME_new                          output.o
ASN1_GENERALIZEDTIME_print                        output.o
ASN1_GENERALIZEDTIME_set                          output.o
ASN1_GENERALIZEDTIME_set_string                   output.o
ASN1_GENERALSTRING_free                           output.o
ASN1_GENERALSTRING_it                             output.o
ASN1_GENERALSTRING_new                            output.o
ASN1_IA5STRING_free                               output.o
ASN1_IA5STRING_it                                 output.o
ASN1_IA5STRING_new                                output.o
ASN1_INTEGER_cmp                                  output.o
ASN1_INTEGER_dup                                  output.o
ASN1_INTEGER_free                                 output.o
ASN1_INTEGER_get                                  output.o
ASN1_INTEGER_it                                   output.o
ASN1_INTEGER_new                                  output.o
ASN1_INTEGER_set                                  output.o
ASN1_INTEGER_to_BN                                output.o
ASN1_NULL_free                                    output.o
ASN1_NULL_it                                      output.o
ASN1_NULL_new                                     output.o
ASN1_OBJECT_create                                output.o
ASN1_OBJECT_free                                  output.o
ASN1_OBJECT_it                                    output.o
ASN1_OBJECT_new                                   output.o
ASN1_OCTET_STRING_NDEF_it                         output.o
ASN1_OCTET_STRING_cmp                             output.o
ASN1_OCTET_STRING_dup                             output.o
ASN1_OCTET_STRING_free                            output.o
ASN1_OCTET_STRING_it                              output.o
ASN1_OCTET_STRING_new                             output.o
ASN1_OCTET_STRING_set                             output.o
ASN1_PCTX_free                                    output.o
ASN1_PCTX_get_cert_flags                          output.o
ASN1_PCTX_get_flags                               output.o
ASN1_PCTX_get_nm_flags                            output.o
ASN1_PCTX_get_oid_flags                           output.o
ASN1_PCTX_get_str_flags                           output.o
ASN1_PCTX_new                                     output.o
ASN1_PCTX_set_cert_flags                          output.o
ASN1_PCTX_set_flags                               output.o
ASN1_PCTX_set_nm_flags                            output.o
ASN1_PCTX_set_oid_flags                           output.o
ASN1_PCTX_set_str_flags                           output.o
ASN1_PRINTABLESTRING_free                         output.o
ASN1_PRINTABLESTRING_it                           output.o
ASN1_PRINTABLESTRING_new                          output.o
ASN1_PRINTABLE_free                               output.o
ASN1_PRINTABLE_it                                 output.o
ASN1_PRINTABLE_new                                output.o
ASN1_PRINTABLE_type                               output.o
ASN1_SEQUENCE_ANY_it                              output.o
ASN1_SEQUENCE_it                                  output.o
ASN1_SET_ANY_it                                   output.o
ASN1_STRING_TABLE_add                             output.o
ASN1_STRING_TABLE_cleanup                         output.o
ASN1_STRING_TABLE_get                             output.o
ASN1_STRING_cmp                                   output.o
ASN1_STRING_copy                                  output.o
ASN1_STRING_data                                  output.o
ASN1_STRING_dup                                   output.o
ASN1_STRING_free                                  output.o
ASN1_STRING_get_default_mask                      output.o
ASN1_STRING_length                                output.o
ASN1_STRING_length_set                            output.o
ASN1_STRING_new                                   output.o
ASN1_STRING_print                                 output.o
ASN1_STRING_print_ex                              output.o
ASN1_STRING_set                                   output.o
ASN1_STRING_set0                                  output.o
ASN1_STRING_set_by_NID                            output.o
ASN1_STRING_set_default_mask                      output.o
ASN1_STRING_set_default_mask_asc                  output.o
ASN1_STRING_to_UTF8                               output.o
ASN1_STRING_type                                  output.o
ASN1_STRING_type_new                              output.o
ASN1_T61STRING_free                               output.o
ASN1_T61STRING_it                                 output.o
ASN1_T61STRING_new                                output.o
ASN1_TBOOLEAN_it                                  output.o
ASN1_TIME_adj                                     output.o
ASN1_TIME_check                                   output.o
ASN1_TIME_free                                    output.o
ASN1_TIME_it                                      output.o
ASN1_TIME_new                                     output.o
ASN1_TIME_print                                   output.o
ASN1_TIME_set                                     output.o
ASN1_TIME_set_string                              output.o
ASN1_TIME_to_generalizedtime                      output.o
ASN1_TYPE_cmp                                     output.o
ASN1_TYPE_free                                    output.o
ASN1_TYPE_get                                     output.o
ASN1_TYPE_get_int_octetstring                     output.o
ASN1_TYPE_get_octetstring                         output.o
ASN1_TYPE_new                                     output.o
ASN1_TYPE_set                                     output.o
ASN1_TYPE_set1                                    output.o
ASN1_TYPE_set_int_octetstring                     output.o
ASN1_TYPE_set_octetstring                         output.o
ASN1_UNIVERSALSTRING_free                         output.o
ASN1_UNIVERSALSTRING_it                           output.o
ASN1_UNIVERSALSTRING_new                          output.o
ASN1_UNIVERSALSTRING_to_string                    output.o
ASN1_UTCTIME_adj                                  output.o
ASN1_UTCTIME_check                                output.o
ASN1_UTCTIME_cmp_time_t                           output.o
ASN1_UTCTIME_free                                 output.o
ASN1_UTCTIME_it                                   output.o
ASN1_UTCTIME_new                                  output.o
ASN1_UTCTIME_print                                output.o
ASN1_UTCTIME_set                                  output.o
ASN1_UTCTIME_set_string                           output.o
ASN1_UTF8STRING_free                              output.o
ASN1_UTF8STRING_it                                output.o
ASN1_UTF8STRING_new                               output.o
ASN1_VISIBLESTRING_free                           output.o
ASN1_VISIBLESTRING_it                             output.o
ASN1_VISIBLESTRING_new                            output.o
ASN1_bn_print                                     output.o
ASN1_check_infinite_end                           output.o
ASN1_const_check_infinite_end                     output.o
ASN1_d2i_bio                                      output.o
ASN1_digest                                       output.o
ASN1_dup                                          output.o
ASN1_generate_nconf                               output.o
ASN1_generate_v3                                  output.o
ASN1_get_object                                   output.o
ASN1_i2d_bio                                      output.o
ASN1_item_d2i                                     output.o
ASN1_item_d2i_bio                                 output.o
ASN1_item_digest                                  output.o
ASN1_item_dup                                     output.o
ASN1_item_ex_d2i                                  output.o
ASN1_item_ex_free                                 output.o
ASN1_item_ex_i2d                                  output.o
ASN1_item_ex_new                                  output.o
ASN1_item_free                                    output.o
ASN1_item_i2d                                     output.o
ASN1_item_i2d_bio                                 output.o
ASN1_item_ndef_i2d                                output.o
ASN1_item_new                                     output.o
ASN1_item_pack                                    output.o
ASN1_item_print                                   output.o
ASN1_item_sign                                    output.o
ASN1_item_unpack                                  output.o
ASN1_item_verify                                  output.o
ASN1_mbstring_copy                                output.o
ASN1_mbstring_ncopy                               output.o
ASN1_object_size                                  output.o
ASN1_pack_string                                  output.o
ASN1_parse                                        output.o
ASN1_parse_dump                                   output.o
ASN1_primitive_free                               output.o
ASN1_primitive_new                                output.o
ASN1_put_eoc                                      output.o
ASN1_put_object                                   output.o
ASN1_seq_pack                                     output.o
ASN1_seq_unpack                                   output.o
ASN1_sign                                         output.o
ASN1_tag2bit                                      output.o
ASN1_tag2str                                      output.o
ASN1_template_d2i                                 output.o
ASN1_template_free                                output.o
ASN1_template_i2d                                 output.o
ASN1_template_new                                 output.o
ASN1_unpack_string                                output.o
ASN1_verify                                       output.o
ASN1_version                                      output.o
AUTHORITY_INFO_ACCESS_free                        output.o
AUTHORITY_INFO_ACCESS_it                          output.o
AUTHORITY_INFO_ACCESS_new                         output.o
AUTHORITY_KEYID_free                              output.o
AUTHORITY_KEYID_it                                output.o
AUTHORITY_KEYID_new                               output.o
AddCertDataByBuf                                  output.o
AddElem                                           output.o
AddIdPassDataByBuf                                output.o
AddObjTblByTlv                                    output.o
BASIC_CONSTRAINTS_free                            output.o
BASIC_CONSTRAINTS_it                              output.o
BASIC_CONSTRAINTS_new                             output.o
BF_cbc_encrypt                                    output.o
BF_cfb64_encrypt                                  output.o
BF_decrypt                                        output.o
BF_ecb_encrypt                                    output.o
BF_encrypt                                        output.o
BF_ofb64_encrypt                                  output.o
BF_options                                        output.o
BF_set_key                                        output.o
BF_version                                        output.o
BIGNUM_it                                         output.o
BIO_asn1_get_prefix                               output.o
BIO_asn1_get_suffix                               output.o
BIO_asn1_set_prefix                               output.o
BIO_asn1_set_suffix                               output.o
BIO_callback_ctrl                                 output.o
BIO_clear_flags                                   output.o
BIO_copy_next_retry                               output.o
BIO_ctrl                                          output.o
BIO_ctrl_pending                                  output.o
BIO_ctrl_wpending                                 output.o
BIO_dump                                          output.o
BIO_dump_cb                                       output.o
BIO_dump_indent                                   output.o
BIO_dump_indent_cb                                output.o
BIO_dup_chain                                     output.o
BIO_f_asn1                                        output.o
BIO_f_base64                                      output.o
BIO_f_buffer                                      output.o
BIO_f_cipher                                      output.o
BIO_f_md                                          output.o
BIO_find_type                                     output.o
BIO_free                                          output.o
BIO_free_all                                      output.o
BIO_get_callback                                  output.o
BIO_get_callback_arg                              output.o
BIO_get_ex_data                                   output.o
BIO_get_ex_new_index                              output.o
BIO_get_retry_BIO                                 output.o
BIO_get_retry_reason                              output.o
BIO_gets                                          output.o
BIO_indent                                        output.o
BIO_int_ctrl                                      output.o
BIO_method_name                                   output.o
BIO_method_type                                   output.o
BIO_new                                           output.o
BIO_new_CMS                                       output.o
BIO_new_NDEF                                      output.o
BIO_new_mem_buf                                   output.o
BIO_next                                          output.o
BIO_number_read                                   output.o
BIO_number_written                                output.o
BIO_pop                                           output.o
BIO_printf                                        output.o
BIO_ptr_ctrl                                      output.o
BIO_push                                          output.o
BIO_puts                                          output.o
BIO_read                                          output.o
BIO_s_mem                                         output.o
BIO_s_null                                        output.o
BIO_set                                           output.o
BIO_set_callback                                  output.o
BIO_set_callback_arg                              output.o
BIO_set_cipher                                    output.o
BIO_set_ex_data                                   output.o
BIO_set_flags                                     output.o
BIO_snprintf                                      output.o
BIO_test_flags                                    output.o
BIO_vfree                                         output.o
BIO_write                                         output.o
BN_BLINDING_convert                               output.o
BN_BLINDING_convert_ex                            output.o
BN_BLINDING_create_param                          output.o
BN_BLINDING_free                                  output.o
BN_BLINDING_get_flags                             output.o
BN_BLINDING_get_thread_id                         output.o
BN_BLINDING_invert                                output.o
BN_BLINDING_invert_ex                             output.o
BN_BLINDING_new                                   output.o
BN_BLINDING_set_flags                             output.o
BN_BLINDING_set_thread_id                         output.o
BN_BLINDING_thread_id                             output.o
BN_BLINDING_update                                output.o
BN_CTX_end                                        output.o
BN_CTX_free                                       output.o
BN_CTX_get                                        output.o
BN_CTX_init                                       output.o
BN_CTX_new                                        output.o
BN_CTX_start                                      output.o
BN_GENCB_call                                     output.o
BN_GF2m_add                                       output.o
BN_GF2m_arr2poly                                  output.o
BN_GF2m_mod                                       output.o
BN_GF2m_mod_arr                                   output.o
BN_GF2m_mod_div                                   output.o
BN_GF2m_mod_div_arr                               output.o
BN_GF2m_mod_exp                                   output.o
BN_GF2m_mod_exp_arr                               output.o
BN_GF2m_mod_inv                                   output.o
BN_GF2m_mod_inv_arr                               output.o
BN_GF2m_mod_mul                                   output.o
BN_GF2m_mod_mul_arr                               output.o
BN_GF2m_mod_solve_quad                            output.o
BN_GF2m_mod_solve_quad_arr                        output.o
BN_GF2m_mod_sqr                                   output.o
BN_GF2m_mod_sqr_arr                               output.o
BN_GF2m_mod_sqrt                                  output.o
BN_GF2m_mod_sqrt_arr                              output.o
BN_GF2m_poly2arr                                  output.o
BN_MONT_CTX_copy                                  output.o
BN_MONT_CTX_free                                  output.o
BN_MONT_CTX_init                                  output.o
BN_MONT_CTX_new                                   output.o
BN_MONT_CTX_set                                   output.o
BN_MONT_CTX_set_locked                            output.o
BN_RECP_CTX_free                                  output.o
BN_RECP_CTX_init                                  output.o
BN_RECP_CTX_new                                   output.o
BN_RECP_CTX_set                                   output.o
BN_add                                            output.o
BN_add_word                                       output.o
BN_asc2bn                                         output.o
BN_bin2bn                                         output.o
BN_bn2bin                                         output.o
BN_bn2dec                                         output.o
BN_bn2hex                                         output.o
BN_bntest_rand                                    output.o
BN_clear                                          output.o
BN_clear_bit                                      output.o
BN_clear_free                                     output.o
BN_cmp                                            output.o
BN_copy                                           output.o
BN_dec2bn                                         output.o
BN_div                                            output.o
BN_div_recp                                       output.o
BN_div_word                                       output.o
BN_dup                                            output.o
BN_exp                                            output.o
BN_free                                           output.o
BN_from_montgomery                                output.o
BN_gcd                                            output.o
BN_generate_prime_ex                              output.o
BN_get0_nist_prime_192                            output.o
BN_get0_nist_prime_224                            output.o
BN_get0_nist_prime_256                            output.o
BN_get0_nist_prime_384                            output.o
BN_get0_nist_prime_521                            output.o
BN_get_params                                     output.o
BN_get_word                                       output.o
BN_hex2bn                                         output.o
BN_init                                           output.o
BN_is_bit_set                                     output.o
BN_is_prime_ex                                    output.o
BN_is_prime_fasttest_ex                           output.o
BN_kronecker                                      output.o
BN_lshift                                         output.o
BN_lshift1                                        output.o
BN_mask_bits                                      output.o
BN_mod_add                                        output.o
BN_mod_add_quick                                  output.o
BN_mod_exp                                        output.o
BN_mod_exp2_mont                                  output.o
BN_mod_exp_mont                                   output.o
BN_mod_exp_mont_consttime                         output.o
BN_mod_exp_mont_word                              output.o
BN_mod_exp_recp                                   output.o
BN_mod_exp_simple                                 output.o
BN_mod_inverse                                    output.o
BN_mod_lshift                                     output.o
BN_mod_lshift1                                    output.o
BN_mod_lshift1_quick                              output.o
BN_mod_lshift_quick                               output.o
BN_mod_mul                                        output.o
BN_mod_mul_montgomery                             output.o
BN_mod_mul_reciprocal                             output.o
BN_mod_sqr                                        output.o
BN_mod_sqrt                                       output.o
BN_mod_sub                                        output.o
BN_mod_sub_quick                                  output.o
BN_mod_word                                       output.o
BN_mul                                            output.o
BN_mul_word                                       output.o
BN_new                                            output.o
BN_nist_mod_192                                   output.o
BN_nist_mod_224                                   output.o
BN_nist_mod_256                                   output.o
BN_nist_mod_384                                   output.o
BN_nist_mod_521                                   output.o
BN_nnmod                                          output.o
BN_num_bits                                       output.o
BN_num_bits_word                                  output.o
BN_options                                        output.o
BN_print                                          output.o
BN_pseudo_rand                                    output.o
BN_pseudo_rand_range                              output.o
BN_rand                                           output.o
BN_rand_range                                     output.o
BN_reciprocal                                     output.o
BN_rshift                                         output.o
BN_rshift1                                        output.o
BN_set_bit                                        output.o
BN_set_negative                                   output.o
BN_set_params                                     output.o
BN_set_word                                       output.o
BN_sqr                                            output.o
BN_sub                                            output.o
BN_sub_word                                       output.o
BN_swap                                           output.o
BN_to_ASN1_ENUMERATED                             output.o
BN_to_ASN1_INTEGER                                output.o
BN_uadd                                           output.o
BN_ucmp                                           output.o
BN_usub                                           output.o
BN_value_one                                      output.o
BN_version                                        output.o
BUF_MEM_free                                      output.o
BUF_MEM_grow                                      output.o
BUF_MEM_grow_clean                                output.o
BUF_MEM_new                                       output.o
BUF_memdup                                        output.o
BUF_reverse                                       output.o
BUF_strdup                                        output.o
BUF_strlcat                                       output.o
BUF_strlcpy                                       output.o
BUF_strndup                                       output.o
BlockSendCardT1                                   output.o
CAST_S_table0                                     output.o
CAST_S_table1                                     output.o
CAST_S_table2                                     output.o
CAST_S_table3                                     output.o
CAST_S_table4                                     output.o
CAST_S_table5                                     output.o
CAST_S_table6                                     output.o
CAST_S_table7                                     output.o
CAST_cbc_encrypt                                  output.o
CAST_cfb64_encrypt                                output.o
CAST_decrypt                                      output.o
CAST_ecb_encrypt                                  output.o
CAST_encrypt                                      output.o
CAST_ofb64_encrypt                                output.o
CAST_set_key                                      output.o
CAST_version                                      output.o
CBIGNUM_it                                        output.o
CERTIFICATEPOLICIES_free                          output.o
CERTIFICATEPOLICIES_it                            output.o
CERTIFICATEPOLICIES_new                           output.o
CMS_Attributes_Sign_it                            output.o
CMS_Attributes_Verify_it                          output.o
CMS_AuthenticatedData_it                          output.o
CMS_CertificateChoices_it                         output.o
CMS_CompressedData_it                             output.o
CMS_ContentInfo_free                              output.o
CMS_ContentInfo_it                                output.o
CMS_ContentInfo_new                               output.o
CMS_ContentInfo_print_ctx                         output.o
CMS_DigestedData_it                               output.o
CMS_EncapsulatedContentInfo_it                    output.o
CMS_EncryptedContentInfo_it                       output.o
CMS_EncryptedData_it                              output.o
CMS_EncryptedData_set1_key                        output.o
CMS_EnvelopedData_create                          output.o
CMS_EnvelopedData_it                              output.o
CMS_IssuerAndSerialNumber_it                      output.o
CMS_KEKIdentifier_it                              output.o
CMS_KEKRecipientInfo_it                           output.o
CMS_KeyAgreeRecipientIdentifier_it                output.o
CMS_KeyAgreeRecipientInfo_it                      output.o
CMS_KeyTransRecipientInfo_it                      output.o
CMS_OriginatorIdentifierOrKey_it                  output.o
CMS_OriginatorInfo_it                             output.o
CMS_OriginatorPublicKey_it                        output.o
CMS_OtherCertificateFormat_it                     output.o
CMS_OtherKeyAttribute_it                          output.o
CMS_OtherRecipientInfo_it                         output.o
CMS_OtherRevocationInfoFormat_it                  output.o
CMS_PasswordRecipientInfo_it                      output.o
CMS_ReceiptRequest_it                             output.o
CMS_Receipt_it                                    output.o
CMS_ReceiptsFrom_it                               output.o
CMS_RecipientEncryptedKey_it                      output.o
CMS_RecipientInfo_decrypt                         output.o
CMS_RecipientInfo_it                              output.o
CMS_RecipientInfo_kekri_get0_id                   output.o
CMS_RecipientInfo_kekri_id_cmp                    output.o
CMS_RecipientInfo_ktri_cert_cmp                   output.o
CMS_RecipientInfo_ktri_get0_algs                  output.o
CMS_RecipientInfo_ktri_get0_signer_id             output.o
CMS_RecipientInfo_set0_key                        output.o
CMS_RecipientInfo_set0_pkey                       output.o
CMS_RecipientInfo_type                            output.o
CMS_RecipientKeyIdentifier_it                     output.o
CMS_RevocationInfoChoice_it                       output.o
CMS_SignedData_init                               output.o
CMS_SignedData_it                                 output.o
CMS_SignerIdentifier_it                           output.o
CMS_SignerInfo_cert_cmp                           output.o
CMS_SignerInfo_get0_algs                          output.o
CMS_SignerInfo_get0_signer_id                     output.o
CMS_SignerInfo_it                                 output.o
CMS_SignerInfo_set1_signer_cert                   output.o
CMS_SignerInfo_sign                               output.o
CMS_SignerInfo_verify                             output.o
CMS_SignerInfo_verify_content                     output.o
CMS_add0_CertificateChoices                       output.o
CMS_add0_RevocationInfoChoice                     output.o
CMS_add0_cert                                     output.o
CMS_add0_crl                                      output.o
CMS_add0_recipient_key                            output.o
CMS_add1_cert                                     output.o
CMS_add1_crl                                      output.o
CMS_add1_recipient_cert                           output.o
CMS_add1_signer                                   output.o
CMS_add_simple_smimecap                           output.o
CMS_add_smimecap                                  output.o
CMS_add_standard_smimecap                         output.o
CMS_dataFinal                                     output.o
CMS_dataInit                                      output.o
CMS_get0_RecipientInfos                           output.o
CMS_get0_SignerInfos                              output.o
CMS_get0_content                                  output.o
CMS_get0_eContentType                             output.o
CMS_get0_signers                                  output.o
CMS_get0_type                                     output.o
CMS_get1_certs                                    output.o
CMS_get1_crls                                     output.o
CMS_is_detached                                   output.o
CMS_set1_eContentType                             output.o
CMS_set1_signers_certs                            output.o
CMS_set_detached                                  output.o
CMS_signed_add1_attr                              output.o
CMS_signed_add1_attr_by_NID                       output.o
CMS_signed_add1_attr_by_OBJ                       output.o
CMS_signed_add1_attr_by_txt                       output.o
CMS_signed_delete_attr                            output.o
CMS_signed_get0_data_by_OBJ                       output.o
CMS_signed_get_attr                               output.o
CMS_signed_get_attr_by_NID                        output.o
CMS_signed_get_attr_by_OBJ                        output.o
CMS_signed_get_attr_count                         output.o
CMS_stream                                        output.o
CMS_unsigned_add1_attr                            output.o
CMS_unsigned_add1_attr_by_NID                     output.o
CMS_unsigned_add1_attr_by_OBJ                     output.o
CMS_unsigned_add1_attr_by_txt                     output.o
CMS_unsigned_delete_attr                          output.o
CMS_unsigned_get0_data_by_OBJ                     output.o
CMS_unsigned_get_attr                             output.o
CMS_unsigned_get_attr_by_NID                      output.o
CMS_unsigned_get_attr_by_OBJ                      output.o
CMS_unsigned_get_attr_count                       output.o
CONF_def_version                                  output.o
CONF_dump_bio                                     output.o
CONF_free                                         output.o
CONF_get1_default_config_file                     output.o
CONF_get_number                                   output.o
CONF_get_section                                  output.o
CONF_get_string                                   output.o
CONF_imodule_get_flags                            output.o
CONF_imodule_get_module                           output.o
CONF_imodule_get_name                             output.o
CONF_imodule_get_usr_data                         output.o
CONF_imodule_get_value                            output.o
CONF_imodule_set_flags                            output.o
CONF_imodule_set_usr_data                         output.o
CONF_load                                         output.o
CONF_load_bio                                     output.o
CONF_module_add                                   output.o
CONF_module_get_usr_data                          output.o
CONF_module_set_usr_data                          output.o
CONF_modules_finish                               output.o
CONF_modules_free                                 output.o
CONF_modules_load                                 output.o
CONF_modules_load_file                            output.o
CONF_modules_unload                               output.o
CONF_parse_list                                   output.o
CONF_set_default_method                           output.o
CONF_set_nconf                                    output.o
CONF_version                                      output.o
CRL_DIST_POINTS_free                              output.o
CRL_DIST_POINTS_it                                output.o
CRL_DIST_POINTS_new                               output.o
CRYPTO_THREADID_cmp                               output.o
CRYPTO_THREADID_cpy                               output.o
CRYPTO_THREADID_current                           output.o
CRYPTO_THREADID_get_callback                      output.o
CRYPTO_THREADID_hash                              output.o
CRYPTO_THREADID_set_callback                      output.o
CRYPTO_THREADID_set_numeric                       output.o
CRYPTO_THREADID_set_pointer                       output.o
CRYPTO_add_lock                                   output.o
CRYPTO_cbc128_decrypt                             output.o
CRYPTO_cbc128_encrypt                             output.o
CRYPTO_cfb128_1_encrypt                           output.o
CRYPTO_cfb128_8_encrypt                           output.o
CRYPTO_cfb128_encrypt                             output.o
CRYPTO_cleanup_all_ex_data                        output.o
CRYPTO_dbg_free                                   output.o
CRYPTO_dbg_get_options                            output.o
CRYPTO_dbg_malloc                                 output.o
CRYPTO_dbg_realloc                                output.o
CRYPTO_dbg_set_options                            output.o
CRYPTO_destroy_dynlockid                          output.o
CRYPTO_dup_ex_data                                output.o
CRYPTO_ex_data_new_class                          output.o
CRYPTO_free                                       output.o
CRYPTO_free_ex_data                               output.o
CRYPTO_free_locked                                output.o
CRYPTO_get_add_lock_callback                      output.o
CRYPTO_get_dynlock_create_callback                output.o
CRYPTO_get_dynlock_destroy_callback               output.o
CRYPTO_get_dynlock_lock_callback                  output.o
CRYPTO_get_dynlock_value                          output.o
CRYPTO_get_ex_data                                output.o
CRYPTO_get_ex_data_implementation                 output.o
CRYPTO_get_ex_new_index                           output.o
CRYPTO_get_id_callback                            output.o
CRYPTO_get_lock_name                              output.o
CRYPTO_get_locked_mem_ex_functions                output.o
CRYPTO_get_locked_mem_functions                   output.o
CRYPTO_get_locking_callback                       output.o
CRYPTO_get_mem_debug_functions                    output.o
CRYPTO_get_mem_debug_options                      output.o
CRYPTO_get_mem_ex_functions                       output.o
CRYPTO_get_mem_functions                          output.o
CRYPTO_get_new_dynlockid                          output.o
CRYPTO_get_new_lockid                             output.o
CRYPTO_is_mem_check_on                            output.o
CRYPTO_lock                                       output.o
CRYPTO_malloc                                     output.o
CRYPTO_malloc_locked                              output.o
CRYPTO_mem_ctrl                                   output.o
CRYPTO_mem_leaks                                  output.o
CRYPTO_mem_leaks_cb                               output.o
CRYPTO_new_ex_data                                output.o
CRYPTO_num_locks                                  output.o
CRYPTO_ofb128_encrypt                             output.o
CRYPTO_pop_info                                   output.o
CRYPTO_push_info_                                 output.o
CRYPTO_realloc                                    output.o
CRYPTO_realloc_clean                              output.o
CRYPTO_remalloc                                   output.o
CRYPTO_remove_all_info                            output.o
CRYPTO_set_add_lock_callback                      output.o
CRYPTO_set_dynlock_create_callback                output.o
CRYPTO_set_dynlock_destroy_callback               output.o
CRYPTO_set_dynlock_lock_callback                  output.o
CRYPTO_set_ex_data                                output.o
CRYPTO_set_ex_data_implementation                 output.o
CRYPTO_set_id_callback                            output.o
CRYPTO_set_locked_mem_ex_functions                output.o
CRYPTO_set_locked_mem_functions                   output.o
CRYPTO_set_locking_callback                       output.o
CRYPTO_set_mem_debug_functions                    output.o
CRYPTO_set_mem_debug_options                      output.o
CRYPTO_set_mem_ex_functions                       output.o
CRYPTO_set_mem_functions                          output.o
CRYPTO_strdup                                     output.o
CRYPTO_thread_id                                  output.o
C_CloseAllSessions                                output.o
C_CloseSession                                    output.o
C_CreateObject                                    output.o
C_DestroyObject                                   output.o
C_DigestFinal                                     output.o
C_DigestInit                                      output.o
C_DigestUpdate                                    output.o
C_Finalize                                        output.o
C_FindObjects                                     output.o
C_FindObjectsFinal                                output.o
C_FindObjectsInit                                 output.o
C_GetAttributeValue                               output.o
C_GetCardStatus                                   output.o
C_GetFunctionList                                 output.o
C_GetInfo                                         output.o
C_GetMechanismInfo                                output.o
C_GetMechanismList                                output.o
C_GetSessionInfo                                  output.o
C_GetSlotInfo                                     output.o
C_GetSlotList                                     output.o
C_GetTokenInfo                                    output.o
C_Initialize                                      output.o
C_Login                                           output.o
C_Logout                                          output.o
C_OpenSession                                     output.o
C_SetAttributeValue                               output.o
C_Sign                                            output.o
C_SignInit                                        output.o
C_Verify                                          output.o
C_VerifyInit                                      output.o
CardConnect                                       output.o
CardDisconnect                                    output.o
CardEstablishContext                              output.o
CardListReaders                                   output.o
CardMechanical                                    output.o
CardReleaseContext                                output.o
CardStateConfirm                                  output.o
CardStatus                                        output.o
CardTransmit                                      output.o
CloseUSB                                          output.o
DES_SPtrans                                       output.o
DES_cfb64_encrypt                                 output.o
DES_cfb_encrypt                                   output.o
DES_check_key_parity                              output.o
DES_decrypt3                                      output.o
DES_ecb3_encrypt                                  output.o
DES_ecb_encrypt                                   output.o
DES_ede3_cbc_encrypt                              output.o
DES_ede3_cfb64_encrypt                            output.o
DES_ede3_cfb_encrypt                              output.o
DES_ede3_ofb64_encrypt                            output.o
DES_encrypt1                                      output.o
DES_encrypt2                                      output.o
DES_encrypt3                                      output.o
DES_is_weak_key                                   output.o
DES_key_sched                                     output.o
DES_ncbc_encrypt                                  output.o
DES_ofb64_encrypt                                 output.o
DES_options                                       output.o
DES_random_key                                    output.o
DES_set_key                                       output.o
DES_set_key_checked                               output.o
DES_set_key_unchecked                             output.o
DES_set_odd_parity                                output.o
DES_xcbc_encrypt                                  output.o
DH_OpenSSL                                        output.o
DH_check                                          output.o
DH_check_pub_key                                  output.o
DH_compute_key                                    output.o
DH_free                                           output.o
DH_generate_key                                   output.o
DH_generate_parameters_ex                         output.o
DH_get_default_method                             output.o
DH_get_ex_data                                    output.o
DH_get_ex_new_index                               output.o
DH_new                                            output.o
DH_new_method                                     output.o
DH_set_default_method                             output.o
DH_set_ex_data                                    output.o
DH_set_method                                     output.o
DH_size                                           output.o
DH_up_ref                                         output.o
DH_version                                        output.o
DHparams_dup                                      output.o
DHparams_it                                       output.o
DHparams_print                                    output.o
DI                                                output.o
DIRECTORYSTRING_free                              output.o
DIRECTORYSTRING_it                                output.o
DIRECTORYSTRING_new                               output.o
DISPLAYTEXT_free                                  output.o
DISPLAYTEXT_it                                    output.o
DISPLAYTEXT_new                                   output.o
DIST_POINT_NAME_free                              output.o
DIST_POINT_NAME_it                                output.o
DIST_POINT_NAME_new                               output.o
DIST_POINT_free                                   output.o
DIST_POINT_it                                     output.o
DIST_POINT_new                                    output.o
DIST_POINT_set_dpname                             output.o
DSAPrivateKey_it                                  output.o
DSAPublicKey_it                                   output.o
DSA_OpenSSL                                       output.o
DSA_SIG_free                                      output.o
DSA_SIG_it                                        output.o
DSA_SIG_new                                       output.o
DSA_do_sign                                       output.o
DSA_do_verify                                     output.o
DSA_dup_DH                                        output.o
DSA_free                                          output.o
DSA_generate_key                                  output.o
DSA_generate_parameters_ex                        output.o
DSA_get_default_method                            output.o
DSA_get_ex_data                                   output.o
DSA_get_ex_new_index                              output.o
DSA_new                                           output.o
DSA_new_method                                    output.o
DSA_set_default_method                            output.o
DSA_set_ex_data                                   output.o
DSA_set_method                                    output.o
DSA_sign                                          output.o
DSA_sign_setup                                    output.o
DSA_size                                          output.o
DSA_up_ref                                        output.o
DSA_verify                                        output.o
DSA_version                                       output.o
DSAparams_dup                                     output.o
DSAparams_it                                      output.o
DSO_METHOD_null                                   output.o
DSO_METHOD_openssl                                output.o
DSO_bind_func                                     output.o
DSO_bind_var                                      output.o
DSO_convert_filename                              output.o
DSO_ctrl                                          output.o
DSO_flags                                         output.o
DSO_free                                          output.o
DSO_get_default_method                            output.o
DSO_get_filename                                  output.o
DSO_get_loaded_filename                           output.o
DSO_get_method                                    output.o
DSO_global_lookup                                 output.o
DSO_load                                          output.o
DSO_merge                                         output.o
DSO_new                                           output.o
DSO_new_method                                    output.o
DSO_pathbyaddr                                    output.o
DSO_set_default_method                            output.o
DSO_set_filename                                  output.o
DSO_set_method                                    output.o
DSO_set_name_converter                            output.o
DSO_up_ref                                        output.o
DelElem                                           output.o
DestroyAttribute                                  output.o
DestroyElem                                       output.o
DestroyList                                       output.o
DestroySessionData                                output.o
DestroySlotData                                   output.o
DestroyTlvData                                    output.o
DestroyTokenData                                  output.o
ECDH_OpenSSL                                      output.o
ECDH_compute_key                                  output.o
ECDH_get_default_method                           output.o
ECDH_get_ex_data                                  output.o
ECDH_get_ex_new_index                             output.o
ECDH_set_default_method                           output.o
ECDH_set_ex_data                                  output.o
ECDH_set_method                                   output.o
ECDH_version                                      output.o
ECDSA_OpenSSL                                     output.o
ECDSA_SIG_free                                    output.o
ECDSA_SIG_it                                      output.o
ECDSA_SIG_new                                     output.o
ECDSA_do_sign                                     output.o
ECDSA_do_sign_ex                                  output.o
ECDSA_do_verify                                   output.o
ECDSA_get_default_method                          output.o
ECDSA_get_ex_data                                 output.o
ECDSA_get_ex_new_index                            output.o
ECDSA_set_default_method                          output.o
ECDSA_set_ex_data                                 output.o
ECDSA_set_method                                  output.o
ECDSA_sign                                        output.o
ECDSA_sign_ex                                     output.o
ECDSA_sign_setup                                  output.o
ECDSA_size                                        output.o
ECDSA_verify                                      output.o
ECDSA_version                                     output.o
ECPARAMETERS_free                                 output.o
ECPARAMETERS_it                                   output.o
ECPARAMETERS_new                                  output.o
ECPKPARAMETERS_free                               output.o
ECPKPARAMETERS_it                                 output.o
ECPKPARAMETERS_new                                output.o
ECPKParameters_print                              output.o
ECParameters_print                                output.o
EC_EX_DATA_clear_free_all_data                    output.o
EC_EX_DATA_clear_free_data                        output.o
EC_EX_DATA_free_all_data                          output.o
EC_EX_DATA_free_data                              output.o
EC_EX_DATA_get_data                               output.o
EC_EX_DATA_set_data                               output.o
EC_GF2m_simple_method                             output.o
EC_GFp_mont_method                                output.o
EC_GFp_nist_method                                output.o
EC_GFp_simple_method                              output.o
EC_GROUP_check_discriminant                       output.o
EC_GROUP_clear_free                               output.o
EC_GROUP_cmp                                      output.o
EC_GROUP_copy                                     output.o
EC_GROUP_dup                                      output.o
EC_GROUP_free                                     output.o
EC_GROUP_get0_generator                           output.o
EC_GROUP_get0_seed                                output.o
EC_GROUP_get_asn1_flag                            output.o
EC_GROUP_get_basis_type                           output.o
EC_GROUP_get_cofactor                             output.o
EC_GROUP_get_curve_GF2m                           output.o
EC_GROUP_get_curve_GFp                            output.o
EC_GROUP_get_curve_name                           output.o
EC_GROUP_get_degree                               output.o
EC_GROUP_get_order                                output.o
EC_GROUP_get_pentanomial_basis                    output.o
EC_GROUP_get_point_conversion_form                output.o
EC_GROUP_get_seed_len                             output.o
EC_GROUP_get_trinomial_basis                      output.o
EC_GROUP_have_precompute_mult                     output.o
EC_GROUP_method_of                                output.o
EC_GROUP_new                                      output.o
EC_GROUP_new_by_curve_name                        output.o
EC_GROUP_new_curve_GF2m                           output.o
EC_GROUP_new_curve_GFp                            output.o
EC_GROUP_precompute_mult                          output.o
EC_GROUP_set_asn1_flag                            output.o
EC_GROUP_set_curve_GF2m                           output.o
EC_GROUP_set_curve_GFp                            output.o
EC_GROUP_set_curve_name                           output.o
EC_GROUP_set_generator                            output.o
EC_GROUP_set_point_conversion_form                output.o
EC_GROUP_set_seed                                 output.o
EC_KEY_check_key                                  output.o
EC_KEY_copy                                       output.o
EC_KEY_dup                                        output.o
EC_KEY_free                                       output.o
EC_KEY_generate_key                               output.o
EC_KEY_get0_group                                 output.o
EC_KEY_get0_private_key                           output.o
EC_KEY_get0_public_key                            output.o
EC_KEY_get_conv_form                              output.o
EC_KEY_get_enc_flags                              output.o
EC_KEY_get_key_method_data                        output.o
EC_KEY_insert_key_method_data                     output.o
EC_KEY_new                                        output.o
EC_KEY_new_by_curve_name                          output.o
EC_KEY_precompute_mult                            output.o
EC_KEY_print                                      output.o
EC_KEY_set_asn1_flag                              output.o
EC_KEY_set_conv_form                              output.o
EC_KEY_set_enc_flags                              output.o
EC_KEY_set_group                                  output.o
EC_KEY_set_private_key                            output.o
EC_KEY_set_public_key                             output.o
EC_KEY_up_ref                                     output.o
EC_METHOD_get_field_type                          output.o
EC_POINT_add                                      output.o
EC_POINT_bn2point                                 output.o
EC_POINT_clear_free                               output.o
EC_POINT_cmp                                      output.o
EC_POINT_copy                                     output.o
EC_POINT_dbl                                      output.o
EC_POINT_dup                                      output.o
EC_POINT_free                                     output.o
EC_POINT_get_Jprojective_coordinates_GFp          output.o
EC_POINT_get_affine_coordinates_GF2m              output.o
EC_POINT_get_affine_coordinates_GFp               output.o
EC_POINT_hex2point                                output.o
EC_POINT_invert                                   output.o
EC_POINT_is_at_infinity                           output.o
EC_POINT_is_on_curve                              output.o
EC_POINT_make_affine                              output.o
EC_POINT_method_of                                output.o
EC_POINT_mul                                      output.o
EC_POINT_new                                      output.o
EC_POINT_oct2point                                output.o
EC_POINT_point2bn                                 output.o
EC_POINT_point2hex                                output.o
EC_POINT_point2oct                                output.o
EC_POINT_set_Jprojective_coordinates_GFp          output.o
EC_POINT_set_affine_coordinates_GF2m              output.o
EC_POINT_set_affine_coordinates_GFp               output.o
EC_POINT_set_compressed_coordinates_GF2m          output.o
EC_POINT_set_compressed_coordinates_GFp           output.o
EC_POINT_set_to_infinity                          output.o
EC_POINTs_make_affine                             output.o
EC_POINTs_mul                                     output.o
EC_PRIVATEKEY_free                                output.o
EC_PRIVATEKEY_it                                  output.o
EC_PRIVATEKEY_new                                 output.o
EC_get_builtin_curves                             output.o
EDIPARTYNAME_free                                 output.o
EDIPARTYNAME_it                                   output.o
EDIPARTYNAME_new                                  output.o
EHDestroyEventHandler                             output.o
EHInitEventHandler                                output.o
EHStatusHandler                                   output.o
ERR_add_error_data                                output.o
ERR_clear_error                                   output.o
ERR_error_string                                  output.o
ERR_error_string_n                                output.o
ERR_free_strings                                  output.o
ERR_func_error_string                             output.o
ERR_get_err_state_table                           output.o
ERR_get_error                                     output.o
ERR_get_error_line                                output.o
ERR_get_error_line_data                           output.o
ERR_get_implementation                            output.o
ERR_get_next_error_library                        output.o
ERR_get_state                                     output.o
ERR_get_string_table                              output.o
ERR_lib_error_string                              output.o
ERR_load_ASN1_strings                             output.o
ERR_load_BIO_strings                              output.o
ERR_load_BN_strings                               output.o
ERR_load_BUF_strings                              output.o
ERR_load_CMS_strings                              output.o
ERR_load_COMP_strings                             output.o
ERR_load_CONF_strings                             output.o
ERR_load_CRYPTO_strings                           output.o
ERR_load_DH_strings                               output.o
ERR_load_DSA_strings                              output.o
ERR_load_DSO_strings                              output.o
ERR_load_ECDH_strings                             output.o
ERR_load_ECDSA_strings                            output.o
ERR_load_EC_strings                               output.o
ERR_load_ERR_strings                              output.o
ERR_load_EVP_strings                              output.o
ERR_load_OBJ_strings                              output.o
ERR_load_OCSP_strings                             output.o
ERR_load_PEM_strings                              output.o
ERR_load_PKCS12_strings                           output.o
ERR_load_PKCS7_strings                            output.o
ERR_load_RAND_strings                             output.o
ERR_load_RSA_strings                              output.o
ERR_load_TS_strings                               output.o
ERR_load_UI_strings                               output.o
ERR_load_X509V3_strings                           output.o
ERR_load_X509_strings                             output.o
ERR_load_crypto_strings                           output.o
ERR_load_strings                                  output.o
ERR_peek_error                                    output.o
ERR_peek_error_line                               output.o
ERR_peek_error_line_data                          output.o
ERR_peek_last_error                               output.o
ERR_peek_last_error_line                          output.o
ERR_peek_last_error_line_data                     output.o
ERR_pop_to_mark                                   output.o
ERR_print_errors                                  output.o
ERR_print_errors_cb                               output.o
ERR_put_error                                     output.o
ERR_reason_error_string                           output.o
ERR_release_err_state_table                       output.o
ERR_remove_state                                  output.o
ERR_remove_thread_state                           output.o
ERR_set_error_data                                output.o
ERR_set_implementation                            output.o
ERR_set_mark                                      output.o
ERR_unload_strings                                output.o
EVP_BytesToKey                                    output.o
EVP_CIPHER_CTX_block_size                         output.o
EVP_CIPHER_CTX_cipher                             output.o
EVP_CIPHER_CTX_cleanup                            output.o
EVP_CIPHER_CTX_clear_flags                        output.o
EVP_CIPHER_CTX_copy                               output.o
EVP_CIPHER_CTX_ctrl                               output.o
EVP_CIPHER_CTX_flags                              output.o
EVP_CIPHER_CTX_free                               output.o
EVP_CIPHER_CTX_get_app_data                       output.o
EVP_CIPHER_CTX_init                               output.o
EVP_CIPHER_CTX_iv_length                          output.o
EVP_CIPHER_CTX_key_length                         output.o
EVP_CIPHER_CTX_new                                output.o
EVP_CIPHER_CTX_nid                                output.o
EVP_CIPHER_CTX_rand_key                           output.o
EVP_CIPHER_CTX_set_app_data                       output.o
EVP_CIPHER_CTX_set_flags                          output.o
EVP_CIPHER_CTX_set_key_length                     output.o
EVP_CIPHER_CTX_set_padding                        output.o
EVP_CIPHER_CTX_test_flags                         output.o
EVP_CIPHER_asn1_to_param                          output.o
EVP_CIPHER_block_size                             output.o
EVP_CIPHER_do_all                                 output.o
EVP_CIPHER_do_all_sorted                          output.o
EVP_CIPHER_flags                                  output.o
EVP_CIPHER_get_asn1_iv                            output.o
EVP_CIPHER_iv_length                              output.o
EVP_CIPHER_key_length                             output.o
EVP_CIPHER_nid                                    output.o
EVP_CIPHER_param_to_asn1                          output.o
EVP_CIPHER_set_asn1_iv                            output.o
EVP_CIPHER_type                                   output.o
EVP_Cipher                                        output.o
EVP_CipherFinal                                   output.o
EVP_CipherFinal_ex                                output.o
EVP_CipherInit                                    output.o
EVP_CipherInit_ex                                 output.o
EVP_CipherUpdate                                  output.o
EVP_DecodeBlock                                   output.o
EVP_DecodeFinal                                   output.o
EVP_DecodeInit                                    output.o
EVP_DecodeUpdate                                  output.o
EVP_DecryptFinal                                  output.o
EVP_DecryptFinal_ex                               output.o
EVP_DecryptInit                                   output.o
EVP_DecryptInit_ex                                output.o
EVP_DecryptUpdate                                 output.o
EVP_Digest                                        output.o
EVP_DigestFinal                                   output.o
EVP_DigestFinal_ex                                output.o
EVP_DigestInit                                    output.o
EVP_DigestInit_ex                                 output.o
EVP_DigestSignFinal                               output.o
EVP_DigestSignInit                                output.o
EVP_DigestUpdate                                  output.o
EVP_DigestVerifyFinal                             output.o
EVP_DigestVerifyInit                              output.o
EVP_EncodeBlock                                   output.o
EVP_EncodeFinal                                   output.o
EVP_EncodeInit                                    output.o
EVP_EncodeUpdate                                  output.o
EVP_EncryptFinal                                  output.o
EVP_EncryptFinal_ex                               output.o
EVP_EncryptInit                                   output.o
EVP_EncryptInit_ex                                output.o
EVP_EncryptUpdate                                 output.o
EVP_MD_CTX_cleanup                                output.o
EVP_MD_CTX_clear_flags                            output.o
EVP_MD_CTX_copy                                   output.o
EVP_MD_CTX_copy_ex                                output.o
EVP_MD_CTX_create                                 output.o
EVP_MD_CTX_destroy                                output.o
EVP_MD_CTX_init                                   output.o
EVP_MD_CTX_md                                     output.o
EVP_MD_CTX_set_flags                              output.o
EVP_MD_CTX_test_flags                             output.o
EVP_MD_block_size                                 output.o
EVP_MD_do_all                                     output.o
EVP_MD_do_all_sorted                              output.o
EVP_MD_flags                                      output.o
EVP_MD_pkey_type                                  output.o
EVP_MD_size                                       output.o
EVP_MD_type                                       output.o
EVP_PBE_CipherInit                                output.o
EVP_PBE_alg_add                                   output.o
EVP_PBE_alg_add_type                              output.o
EVP_PBE_cleanup                                   output.o
EVP_PBE_find                                      output.o
EVP_PKCS82PKEY                                    output.o
EVP_PKEY2PKCS8                                    output.o
EVP_PKEY2PKCS8_broken                             output.o
EVP_PKEY_CTX_ctrl                                 output.o
EVP_PKEY_CTX_ctrl_str                             output.o
EVP_PKEY_CTX_dup                                  output.o
EVP_PKEY_CTX_free                                 output.o
EVP_PKEY_CTX_get0_peerkey                         output.o
EVP_PKEY_CTX_get0_pkey                            output.o
EVP_PKEY_CTX_get_app_data                         output.o
EVP_PKEY_CTX_get_cb                               output.o
EVP_PKEY_CTX_get_data                             output.o
EVP_PKEY_CTX_get_keygen_info                      output.o
EVP_PKEY_CTX_get_operation                        output.o
EVP_PKEY_CTX_new                                  output.o
EVP_PKEY_CTX_new_id                               output.o
EVP_PKEY_CTX_set0_keygen_info                     output.o
EVP_PKEY_CTX_set_app_data                         output.o
EVP_PKEY_CTX_set_cb                               output.o
EVP_PKEY_CTX_set_data                             output.o
EVP_PKEY_add1_attr                                output.o
EVP_PKEY_add1_attr_by_NID                         output.o
EVP_PKEY_add1_attr_by_OBJ                         output.o
EVP_PKEY_add1_attr_by_txt                         output.o
EVP_PKEY_asn1_add0                                output.o
EVP_PKEY_asn1_add_alias                           output.o
EVP_PKEY_asn1_copy                                output.o
EVP_PKEY_asn1_find                                output.o
EVP_PKEY_asn1_find_str                            output.o
EVP_PKEY_asn1_free                                output.o
EVP_PKEY_asn1_get0                                output.o
EVP_PKEY_asn1_get0_info                           output.o
EVP_PKEY_asn1_get_count                           output.o
EVP_PKEY_asn1_new                                 output.o
EVP_PKEY_asn1_set_ctrl                            output.o
EVP_PKEY_asn1_set_free                            output.o
EVP_PKEY_asn1_set_param                           output.o
EVP_PKEY_asn1_set_private                         output.o
EVP_PKEY_asn1_set_public                          output.o
EVP_PKEY_assign                                   output.o
EVP_PKEY_base_id                                  output.o
EVP_PKEY_bits                                     output.o
EVP_PKEY_cmp                                      output.o
EVP_PKEY_cmp_parameters                           output.o
EVP_PKEY_copy_parameters                          output.o
EVP_PKEY_decrypt                                  output.o
EVP_PKEY_decrypt_init                             output.o
EVP_PKEY_delete_attr                              output.o
EVP_PKEY_derive                                   output.o
EVP_PKEY_derive_init                              output.o
EVP_PKEY_derive_set_peer                          output.o
EVP_PKEY_encrypt                                  output.o
EVP_PKEY_encrypt_init                             output.o
EVP_PKEY_free                                     output.o
EVP_PKEY_get0                                     output.o
EVP_PKEY_get0_asn1                                output.o
EVP_PKEY_get1_DH                                  output.o
EVP_PKEY_get1_DSA                                 output.o
EVP_PKEY_get1_EC_KEY                              output.o
EVP_PKEY_get1_RSA                                 output.o
EVP_PKEY_get_attr                                 output.o
EVP_PKEY_get_attr_by_NID                          output.o
EVP_PKEY_get_attr_by_OBJ                          output.o
EVP_PKEY_get_attr_count                           output.o
EVP_PKEY_get_default_digest_nid                   output.o
EVP_PKEY_id                                       output.o
EVP_PKEY_keygen                                   output.o
EVP_PKEY_keygen_init                              output.o
EVP_PKEY_meth_add0                                output.o
EVP_PKEY_meth_find                                output.o
EVP_PKEY_meth_free                                output.o
EVP_PKEY_meth_new                                 output.o
EVP_PKEY_meth_set_cleanup                         output.o
EVP_PKEY_meth_set_copy                            output.o
EVP_PKEY_meth_set_ctrl                            output.o
EVP_PKEY_meth_set_decrypt                         output.o
EVP_PKEY_meth_set_derive                          output.o
EVP_PKEY_meth_set_encrypt                         output.o
EVP_PKEY_meth_set_init                            output.o
EVP_PKEY_meth_set_keygen                          output.o
EVP_PKEY_meth_set_paramgen                        output.o
EVP_PKEY_meth_set_sign                            output.o
EVP_PKEY_meth_set_signctx                         output.o
EVP_PKEY_meth_set_verify                          output.o
EVP_PKEY_meth_set_verify_recover                  output.o
EVP_PKEY_meth_set_verifyctx                       output.o
EVP_PKEY_missing_parameters                       output.o
EVP_PKEY_new                                      output.o
EVP_PKEY_new_mac_key                              output.o
EVP_PKEY_paramgen                                 output.o
EVP_PKEY_paramgen_init                            output.o
EVP_PKEY_print_params                             output.o
EVP_PKEY_print_private                            output.o
EVP_PKEY_print_public                             output.o
EVP_PKEY_save_parameters                          output.o
EVP_PKEY_set1_DH                                  output.o
EVP_PKEY_set1_DSA                                 output.o
EVP_PKEY_set1_EC_KEY                              output.o
EVP_PKEY_set1_RSA                                 output.o
EVP_PKEY_set_type                                 output.o
EVP_PKEY_set_type_str                             output.o
EVP_PKEY_sign                                     output.o
EVP_PKEY_sign_init                                output.o
EVP_PKEY_size                                     output.o
EVP_PKEY_type                                     output.o
EVP_PKEY_verify                                   output.o
EVP_PKEY_verify_init                              output.o
EVP_PKEY_verify_recover                           output.o
EVP_PKEY_verify_recover_init                      output.o
EVP_SignFinal                                     output.o
EVP_VerifyFinal                                   output.o
EVP_add_cipher                                    output.o
EVP_add_digest                                    output.o
EVP_aes_128_cbc                                   output.o
EVP_aes_128_cfb1                                  output.o
EVP_aes_128_cfb128                                output.o
EVP_aes_128_cfb8                                  output.o
EVP_aes_128_ecb                                   output.o
EVP_aes_128_ofb                                   output.o
EVP_aes_192_cbc                                   output.o
EVP_aes_192_cfb1                                  output.o
EVP_aes_192_cfb128                                output.o
EVP_aes_192_cfb8                                  output.o
EVP_aes_192_ecb                                   output.o
EVP_aes_192_ofb                                   output.o
EVP_aes_256_cbc                                   output.o
EVP_aes_256_cfb1                                  output.o
EVP_aes_256_cfb128                                output.o
EVP_aes_256_cfb8                                  output.o
EVP_aes_256_ecb                                   output.o
EVP_aes_256_ofb                                   output.o
EVP_bf_cbc                                        output.o
EVP_bf_cfb64                                      output.o
EVP_bf_ecb                                        output.o
EVP_bf_ofb                                        output.o
EVP_cast5_cbc                                     output.o
EVP_cast5_cfb64                                   output.o
EVP_cast5_ecb                                     output.o
EVP_cast5_ofb                                     output.o
EVP_cleanup                                       output.o
EVP_des_cbc                                       output.o
EVP_des_cfb1                                      output.o
EVP_des_cfb64                                     output.o
EVP_des_cfb8                                      output.o
EVP_des_ecb                                       output.o
EVP_des_ede                                       output.o
EVP_des_ede3                                      output.o
EVP_des_ede3_cbc                                  output.o
EVP_des_ede3_cfb1                                 output.o
EVP_des_ede3_cfb64                                output.o
EVP_des_ede3_cfb8                                 output.o
EVP_des_ede3_ecb                                  output.o
EVP_des_ede3_ofb                                  output.o
EVP_des_ede_cbc                                   output.o
EVP_des_ede_cfb64                                 output.o
EVP_des_ede_ecb                                   output.o
EVP_des_ede_ofb                                   output.o
EVP_des_ofb                                       output.o
EVP_desx_cbc                                      output.o
EVP_dss                                           output.o
EVP_dss1                                          output.o
EVP_ecdsa                                         output.o
EVP_get_cipherbyname                              output.o
EVP_get_digestbyname                              output.o
EVP_get_pw_prompt                                 output.o
EVP_idea_cbc                                      output.o
EVP_idea_cfb64                                    output.o
EVP_idea_ecb                                      output.o
EVP_idea_ofb                                      output.o
EVP_md4                                           output.o
EVP_md5                                           output.o
EVP_rc2_40_cbc                                    output.o
EVP_rc2_64_cbc                                    output.o
EVP_rc2_cbc                                       output.o
EVP_rc2_cfb64                                     output.o
EVP_rc2_ecb                                       output.o
EVP_rc2_ofb                                       output.o
EVP_rc4                                           output.o
EVP_rc4_40                                        output.o
EVP_read_pw_string                                output.o
EVP_read_pw_string_min                            output.o
EVP_ripemd160                                     output.o
EVP_set_pw_prompt                                 output.o
EVP_sha                                           output.o
EVP_sha1                                          output.o
EVP_sha224                                        output.o
EVP_sha256                                        output.o
EVP_sha384                                        output.o
EVP_sha512                                        output.o
EVP_version                                       output.o
EVP_whirlpool                                     output.o
EXTENDED_KEY_USAGE_free                           output.o
EXTENDED_KEY_USAGE_it                             output.o
EXTENDED_KEY_USAGE_new                            output.o
ExchangePPSData                                   output.o
FI                                                output.o
FindBaudRateTable                                 output.o
GENERAL_NAMES_free                                output.o
GENERAL_NAMES_it                                  output.o
GENERAL_NAMES_new                                 output.o
GENERAL_NAME_cmp                                  output.o
GENERAL_NAME_dup                                  output.o
GENERAL_NAME_free                                 output.o
GENERAL_NAME_get0_otherName                       output.o
GENERAL_NAME_get0_value                           output.o
GENERAL_NAME_it                                   output.o
GENERAL_NAME_new                                  output.o
GENERAL_NAME_print                                output.o
GENERAL_NAME_set0_othername                       output.o
GENERAL_NAME_set0_value                           output.o
GENERAL_SUBTREE_free                              output.o
GENERAL_SUBTREE_it                                output.o
GENERAL_SUBTREE_new                               output.o
GetAttrValType                                    output.o
GetBWICWIData                                     output.o
GetCardStatus                                     output.o
GetDirDataByTlv                                   output.o
GetElem                                           output.o
GetICCardData                                     output.o
GetIFSCData                                       output.o
GetLength                                         output.o
GetOdfDataByTlv                                   output.o
GetTlvByBuf                                       output.o
GetTokenDataByTlv                                 output.o
GetUlByByte                                       output.o
GetUlByTxt                                        output.o
GetValueData                                      output.o
GetVerByTex                                       output.o
HMAC                                              output.o
HMAC_CTX_cleanup                                  output.o
HMAC_CTX_copy                                     output.o
HMAC_CTX_init                                     output.o
HMAC_CTX_set_flags                                output.o
HMAC_Final                                        output.o
HMAC_Init                                         output.o
HMAC_Init_ex                                      output.o
HMAC_Update                                       output.o
HPSearchHotPluggables                             output.o
IDEA_version                                      output.o
IDMan_CheckCardStatus                             output.o
IDMan_CmCheckCRL                                  output.o
IDMan_CmChgRSA                                    output.o
IDMan_CmGetCertificateSign                        output.o
IDMan_CmGetDN                                     output.o
IDMan_CmGetPublicKey                              output.o
IDMan_CmMakeRand                                  output.o
IDMan_CmMkHash                                    output.o
IDMan_CmPadding                                   output.o
IDMan_CmPadding2                                  output.o
IDMan_EncryptByIndex                              output.o
IDMan_IPCheckCrlPkcX                              output.o
IDMan_IPCheckPKC                                  output.o
IDMan_IPCheckSignature                            output.o
IDMan_IPCrSignature                               output.o
IDMan_IPFinalize                                  output.o
IDMan_IPFinalizeReader                            output.o
IDMan_IPIdPassListMalloc                          output.o
IDMan_IPInitialize                                output.o
IDMan_IPInitializeReader                          output.o
IDMan_IPMkPublicKeyObj                            output.o
IDMan_IPMkRandHash                                output.o
IDMan_IPRetJudgment                               output.o
IDMan_IPSignatureVerify                           output.o
IDMan_IPgCIndexParamChk                           output.o
IDMan_IPgCParamChk                                output.o
IDMan_IPgIdxSParamChk                             output.o
IDMan_IPgSParamChk                                output.o
IDMan_IPgetCertIdxPKCS                            output.o
IDMan_IPgetCertPKCS                               output.o
IDMan_IPgetCertPkeyIdxPKCSx                       output.o
IDMan_IPgetCertPkeyPKCSx                          output.o
IDMan_IPgetCertPkeyPKCSy                          output.o
IDMan_IPgetHash                                   output.o
IDMan_IPgetMakeRandData                           output.o
IDMan_IPgetPrivateKey                             output.o
IDMan_IPgetPrivateKeyPKCSx                        output.o
IDMan_IPuAPKCS11IdxParamChk                       output.o
IDMan_IPuAPKCS11ParamChk                          output.o
IDMan_IPvSIdxParamChk                             output.o
IDMan_IPvSParamChk                                output.o
IDMan_PaddingParamChk                             output.o
IDMan_SCardConnect                                output.o
IDMan_SCardDisconnect                             output.o
IDMan_SCardEstablishContext                       output.o
IDMan_SCardListReaders                            output.o
IDMan_SCardReleaseContext                         output.o
IDMan_SCardSetBinay                               output.o
IDMan_SCardSizeLongToChar                         output.o
IDMan_SCardStatus                                 output.o
IDMan_SCardTransmit                               output.o
IDMan_StAtoi                                      output.o
IDMan_StAtol                                      output.o
IDMan_StFree                                      output.o
IDMan_StMalloc                                    output.o
IDMan_StMemcmp                                    output.o
IDMan_StMemcpy                                    output.o
IDMan_StMemset                                    output.o
IDMan_StReadSetData                               output.o
IDMan_StStrcat                                    output.o
IDMan_StStrchr                                    output.o
IDMan_StStrcmp                                    output.o
IDMan_StStrcpy                                    output.o
IDMan_StStrlen                                    output.o
IDMan_generateSignature                           output.o
IDMan_generateSignatureByIndex                    output.o
IDMan_getCertificate                              output.o
IDMan_getCertificateByIndex                       output.o
IDMan_getMemoryFree                               output.o
IDMan_getStaticPassword                           output.o
IDMan_userAuthPKCS11                              output.o
IDMan_userAuthPKCS11ByIndex                       output.o
IDMan_verifySignature                             output.o
IDMan_verifySignatureByIndex                      output.o
IFDHCloseChannel                                  output.o
IFDHControl                                       output.o
IFDHCreateChannel                                 output.o
IFDHGetCapabilities                               output.o
IFDHICCPresence                                   output.o
IFDHPowerICC                                      output.o
IFDHSetProtocolParameters                         output.o
IFDHTransmitToICC                                 output.o
ISSUING_DIST_POINT_free                           output.o
ISSUING_DIST_POINT_it                             output.o
ISSUING_DIST_POINT_new                            output.o
InitCryptoLibrary                                 output.o
InitLeaderCardProtocol                            output.o
InternalAuth                                      output.o
LONG_it                                           output.o
MD4_Final                                         output.o
MD4_Init                                          output.o
MD4_Transform                                     output.o
MD4_Update                                        output.o
MD4_version                                       output.o
MD5                                               output.o
MD5_Final                                         output.o
MD5_Init                                          output.o
MD5_Transform                                     output.o
MD5_Update                                        output.o
MD5_version                                       output.o
NAME_CONSTRAINTS_check                            output.o
NAME_CONSTRAINTS_free                             output.o
NAME_CONSTRAINTS_it                               output.o
NAME_CONSTRAINTS_new                              output.o
NCONF_WIN32                                       output.o
NCONF_default                                     output.o
NCONF_dump_bio                                    output.o
NCONF_free                                        output.o
NCONF_free_data                                   output.o
NCONF_get_number_e                                output.o
NCONF_get_section                                 output.o
NCONF_get_string                                  output.o
NCONF_load                                        output.o
NCONF_load_bio                                    output.o
NCONF_new                                         output.o
NETSCAPE_CERT_SEQUENCE_free                       output.o
NETSCAPE_CERT_SEQUENCE_it                         output.o
NETSCAPE_CERT_SEQUENCE_new                        output.o
NETSCAPE_SPKAC_free                               output.o
NETSCAPE_SPKAC_it                                 output.o
NETSCAPE_SPKAC_new                                output.o
NETSCAPE_SPKI_free                                output.o
NETSCAPE_SPKI_it                                  output.o
NETSCAPE_SPKI_new                                 output.o
NETSCAPE_SPKI_sign                                output.o
NETSCAPE_SPKI_verify                              output.o
NOTICEREF_free                                    output.o
NOTICEREF_it                                      output.o
NOTICEREF_new                                     output.o
OBJ_NAME_add                                      output.o
OBJ_NAME_cleanup                                  output.o
OBJ_NAME_do_all                                   output.o
OBJ_NAME_do_all_sorted                            output.o
OBJ_NAME_get                                      output.o
OBJ_NAME_init                                     output.o
OBJ_NAME_new_index                                output.o
OBJ_NAME_remove                                   output.o
OBJ_add_object                                    output.o
OBJ_add_sigid                                     output.o
OBJ_bsearch_                                      output.o
OBJ_bsearch_ex_                                   output.o
OBJ_cleanup                                       output.o
OBJ_cmp                                           output.o
OBJ_create                                        output.o
OBJ_create_objects                                output.o
OBJ_dup                                           output.o
OBJ_find_sigid_algs                               output.o
OBJ_find_sigid_by_algs                            output.o
OBJ_ln2nid                                        output.o
OBJ_new_nid                                       output.o
OBJ_nid2ln                                        output.o
OBJ_nid2obj                                       output.o
OBJ_nid2sn                                        output.o
OBJ_obj2nid                                       output.o
OBJ_obj2txt                                       output.o
OBJ_sigid_free                                    output.o
OBJ_sn2nid                                        output.o
OBJ_txt2nid                                       output.o
OBJ_txt2obj                                       output.o
OCSP_BASICRESP_free                               output.o
OCSP_BASICRESP_it                                 output.o
OCSP_BASICRESP_new                                output.o
OCSP_CERTID_free                                  output.o
OCSP_CERTID_it                                    output.o
OCSP_CERTID_new                                   output.o
OCSP_CERTSTATUS_free                              output.o
OCSP_CERTSTATUS_it                                output.o
OCSP_CERTSTATUS_new                               output.o
OCSP_CRLID_free                                   output.o
OCSP_CRLID_it                                     output.o
OCSP_CRLID_new                                    output.o
OCSP_ONEREQ_free                                  output.o
OCSP_ONEREQ_it                                    output.o
OCSP_ONEREQ_new                                   output.o
OCSP_REQINFO_free                                 output.o
OCSP_REQINFO_it                                   output.o
OCSP_REQINFO_new                                  output.o
OCSP_REQUEST_free                                 output.o
OCSP_REQUEST_it                                   output.o
OCSP_REQUEST_new                                  output.o
OCSP_RESPBYTES_free                               output.o
OCSP_RESPBYTES_it                                 output.o
OCSP_RESPBYTES_new                                output.o
OCSP_RESPDATA_free                                output.o
OCSP_RESPDATA_it                                  output.o
OCSP_RESPDATA_new                                 output.o
OCSP_RESPID_free                                  output.o
OCSP_RESPID_it                                    output.o
OCSP_RESPID_new                                   output.o
OCSP_RESPONSE_free                                output.o
OCSP_RESPONSE_it                                  output.o
OCSP_RESPONSE_new                                 output.o
OCSP_REVOKEDINFO_free                             output.o
OCSP_REVOKEDINFO_it                               output.o
OCSP_REVOKEDINFO_new                              output.o
OCSP_SERVICELOC_free                              output.o
OCSP_SERVICELOC_it                                output.o
OCSP_SERVICELOC_new                               output.o
OCSP_SIGNATURE_free                               output.o
OCSP_SIGNATURE_it                                 output.o
OCSP_SIGNATURE_new                                output.o
OCSP_SINGLERESP_free                              output.o
OCSP_SINGLERESP_it                                output.o
OCSP_SINGLERESP_new                               output.o
OPENSSL_NONPIC_relocated                          output.o
OPENSSL_asc2uni                                   output.o
OPENSSL_cleanse                                   output.o
OPENSSL_cpuid_setup                               output.o
OPENSSL_gmtime                                    output.o
OPENSSL_gmtime_adj                                output.o
OPENSSL_ia32cap_P                                 output.o
OPENSSL_ia32cap_loc                               output.o
OPENSSL_isservice                                 output.o
OPENSSL_showfatal                                 output.o
OPENSSL_stderr                                    output.o
OPENSSL_uni2asc                                   output.o
OSSL_DES_version                                  output.o
OSSL_libdes_version                               output.o
OTHERNAME_cmp                                     output.o
OTHERNAME_free                                    output.o
OTHERNAME_it                                      output.o
OTHERNAME_new                                     output.o
OpenSSLDie                                        output.o
OpenSSL_add_all_ciphers                           output.o
OpenSSL_add_all_digests                           output.o
OpenUSB                                           output.o
PBE2PARAM_free                                    output.o
PBE2PARAM_it                                      output.o
PBE2PARAM_new                                     output.o
PBEPARAM_free                                     output.o
PBEPARAM_it                                       output.o
PBEPARAM_new                                      output.o
PBKDF2PARAM_free                                  output.o
PBKDF2PARAM_it                                    output.o
PBKDF2PARAM_new                                   output.o
PEM_ASN1_read_bio                                 output.o
PEM_ASN1_write_bio                                output.o
PEM_bytes_read_bio                                output.o
PEM_def_callback                                  output.o
PEM_dek_info                                      output.o
PEM_do_header                                     output.o
PEM_get_EVP_CIPHER_INFO                           output.o
PEM_proc_type                                     output.o
PEM_read_bio                                      output.o
PEM_read_bio_CMS                                  output.o
PEM_read_bio_DHparams                             output.o
PEM_read_bio_DSAPrivateKey                        output.o
PEM_read_bio_DSA_PUBKEY                           output.o
PEM_read_bio_DSAparams                            output.o
PEM_read_bio_ECPKParameters                       output.o
PEM_read_bio_ECPrivateKey                         output.o
PEM_read_bio_EC_PUBKEY                            output.o
PEM_read_bio_NETSCAPE_CERT_SEQUENCE               output.o
PEM_read_bio_PKCS7                                output.o
PEM_read_bio_PKCS8                                output.o
PEM_read_bio_PKCS8_PRIV_KEY_INFO                  output.o
PEM_read_bio_PUBKEY                               output.o
PEM_read_bio_Parameters                           output.o
PEM_read_bio_PrivateKey                           output.o
PEM_read_bio_RSAPrivateKey                        output.o
PEM_read_bio_RSAPublicKey                         output.o
PEM_read_bio_RSA_PUBKEY                           output.o
PEM_read_bio_X509                                 output.o
PEM_read_bio_X509_CRL                             output.o
PEM_read_bio_X509_REQ                             output.o
PEM_version                                       output.o
PEM_write_bio                                     output.o
PEM_write_bio_ASN1_stream                         output.o
PEM_write_bio_CMS                                 output.o
PEM_write_bio_CMS_stream                          output.o
PEM_write_bio_DHparams                            output.o
PEM_write_bio_DSAPrivateKey                       output.o
PEM_write_bio_DSA_PUBKEY                          output.o
PEM_write_bio_DSAparams                           output.o
PEM_write_bio_ECPKParameters                      output.o
PEM_write_bio_ECPrivateKey                        output.o
PEM_write_bio_EC_PUBKEY                           output.o
PEM_write_bio_NETSCAPE_CERT_SEQUENCE              output.o
PEM_write_bio_PKCS7                               output.o
PEM_write_bio_PKCS8                               output.o
PEM_write_bio_PKCS8PrivateKey                     output.o
PEM_write_bio_PKCS8PrivateKey_nid                 output.o
PEM_write_bio_PKCS8_PRIV_KEY_INFO                 output.o
PEM_write_bio_PUBKEY                              output.o
PEM_write_bio_Parameters                          output.o
PEM_write_bio_PrivateKey                          output.o
PEM_write_bio_RSAPrivateKey                       output.o
PEM_write_bio_RSAPublicKey                        output.o
PEM_write_bio_RSA_PUBKEY                          output.o
PEM_write_bio_X509                                output.o
PEM_write_bio_X509_CRL                            output.o
PEM_write_bio_X509_REQ                            output.o
PEM_write_bio_X509_REQ_NEW                        output.o
PHGetProtocol                                     output.o
PHSetProtocol                                     output.o
PKCS12_AUTHSAFES_it                               output.o
PKCS12_BAGS_free                                  output.o
PKCS12_BAGS_it                                    output.o
PKCS12_BAGS_new                                   output.o
PKCS12_MAC_DATA_free                              output.o
PKCS12_MAC_DATA_it                                output.o
PKCS12_MAC_DATA_new                               output.o
PKCS12_MAKE_KEYBAG                                output.o
PKCS12_MAKE_SHKEYBAG                              output.o
PKCS12_PBE_add                                    output.o
PKCS12_PBE_keyivgen                               output.o
PKCS12_SAFEBAGS_it                                output.o
PKCS12_SAFEBAG_free                               output.o
PKCS12_SAFEBAG_it                                 output.o
PKCS12_SAFEBAG_new                                output.o
PKCS12_certbag2x509                               output.o
PKCS12_certbag2x509crl                            output.o
PKCS12_decrypt_skey                               output.o
PKCS12_free                                       output.o
PKCS12_it                                         output.o
PKCS12_item_decrypt_d2i                           output.o
PKCS12_item_i2d_encrypt                           output.o
PKCS12_item_pack_safebag                          output.o
PKCS12_key_gen_asc                                output.o
PKCS12_key_gen_uni                                output.o
PKCS12_new                                        output.o
PKCS12_pack_authsafes                             output.o
PKCS12_pack_p7data                                output.o
PKCS12_pack_p7encdata                             output.o
PKCS12_pbe_crypt                                  output.o
PKCS12_unpack_authsafes                           output.o
PKCS12_unpack_p7data                              output.o
PKCS12_unpack_p7encdata                           output.o
PKCS12_x5092certbag                               output.o
PKCS12_x509crl2certbag                            output.o
PKCS1_MGF1                                        output.o
PKCS5_PBE_add                                     output.o
PKCS5_PBE_keyivgen                                output.o
PKCS5_PBKDF2_HMAC                                 output.o
PKCS5_PBKDF2_HMAC_SHA1                            output.o
PKCS5_pbe2_set                                    output.o
PKCS5_pbe2_set_iv                                 output.o
PKCS5_pbe_set                                     output.o
PKCS5_pbe_set0_algor                              output.o
PKCS5_v2_PBE_keyivgen                             output.o
PKCS7_ATTR_SIGN_it                                output.o
PKCS7_ATTR_VERIFY_it                              output.o
PKCS7_DIGEST_free                                 output.o
PKCS7_DIGEST_it                                   output.o
PKCS7_DIGEST_new                                  output.o
PKCS7_ENCRYPT_free                                output.o
PKCS7_ENCRYPT_it                                  output.o
PKCS7_ENCRYPT_new                                 output.o
PKCS7_ENC_CONTENT_free                            output.o
PKCS7_ENC_CONTENT_it                              output.o
PKCS7_ENC_CONTENT_new                             output.o
PKCS7_ENVELOPE_free                               output.o
PKCS7_ENVELOPE_it                                 output.o
PKCS7_ENVELOPE_new                                output.o
PKCS7_ISSUER_AND_SERIAL_digest                    output.o
PKCS7_ISSUER_AND_SERIAL_free                      output.o
PKCS7_ISSUER_AND_SERIAL_it                        output.o
PKCS7_ISSUER_AND_SERIAL_new                       output.o
PKCS7_RECIP_INFO_free                             output.o
PKCS7_RECIP_INFO_get0_alg                         output.o
PKCS7_RECIP_INFO_it                               output.o
PKCS7_RECIP_INFO_new                              output.o
PKCS7_RECIP_INFO_set                              output.o
PKCS7_SIGNED_free                                 output.o
PKCS7_SIGNED_it                                   output.o
PKCS7_SIGNED_new                                  output.o
PKCS7_SIGNER_INFO_free                            output.o
PKCS7_SIGNER_INFO_get0_algs                       output.o
PKCS7_SIGNER_INFO_it                              output.o
PKCS7_SIGNER_INFO_new                             output.o
PKCS7_SIGNER_INFO_set                             output.o
PKCS7_SIGNER_INFO_sign                            output.o
PKCS7_SIGN_ENVELOPE_free                          output.o
PKCS7_SIGN_ENVELOPE_it                            output.o
PKCS7_SIGN_ENVELOPE_new                           output.o
PKCS7_add0_attrib_signing_time                    output.o
PKCS7_add1_attrib_digest                          output.o
PKCS7_add_attrib_content_type                     output.o
PKCS7_add_attrib_smimecap                         output.o
PKCS7_add_attribute                               output.o
PKCS7_add_certificate                             output.o
PKCS7_add_crl                                     output.o
PKCS7_add_recipient                               output.o
PKCS7_add_recipient_info                          output.o
PKCS7_add_signature                               output.o
PKCS7_add_signed_attribute                        output.o
PKCS7_add_signer                                  output.o
PKCS7_cert_from_signer_info                       output.o
PKCS7_content_new                                 output.o
PKCS7_ctrl                                        output.o
PKCS7_dataDecode                                  output.o
PKCS7_dataFinal                                   output.o
PKCS7_dataInit                                    output.o
PKCS7_dataVerify                                  output.o
PKCS7_digest_from_attributes                      output.o
PKCS7_dup                                         output.o
PKCS7_free                                        output.o
PKCS7_get_attribute                               output.o
PKCS7_get_issuer_and_serial                       output.o
PKCS7_get_signed_attribute                        output.o
PKCS7_get_signer_info                             output.o
PKCS7_get_smimecap                                output.o
PKCS7_it                                          output.o
PKCS7_new                                         output.o
PKCS7_print_ctx                                   output.o
PKCS7_set0_type_other                             output.o
PKCS7_set_attributes                              output.o
PKCS7_set_cipher                                  output.o
PKCS7_set_content                                 output.o
PKCS7_set_digest                                  output.o
PKCS7_set_signed_attributes                       output.o
PKCS7_set_type                                    output.o
PKCS7_signatureVerify                             output.o
PKCS7_simple_smimecap                             output.o
PKCS7_stream                                      output.o
PKCS8_PRIV_KEY_INFO_free                          output.o
PKCS8_PRIV_KEY_INFO_it                            output.o
PKCS8_PRIV_KEY_INFO_new                           output.o
PKCS8_decrypt                                     output.o
PKCS8_encrypt                                     output.o
PKCS8_pkey_get0                                   output.o
PKCS8_pkey_set0                                   output.o
PKCS8_set_broken                                  output.o
PKEY_USAGE_PERIOD_free                            output.o
PKEY_USAGE_PERIOD_it                              output.o
PKEY_USAGE_PERIOD_new                             output.o
POLICYINFO_free                                   output.o
POLICYINFO_it                                     output.o
POLICYINFO_new                                    output.o
POLICYQUALINFO_free                               output.o
POLICYQUALINFO_it                                 output.o
POLICYQUALINFO_new                                output.o
POLICY_CONSTRAINTS_free                           output.o
POLICY_CONSTRAINTS_it                             output.o
POLICY_CONSTRAINTS_new                            output.o
POLICY_MAPPINGS_it                                output.o
POLICY_MAPPING_free                               output.o
POLICY_MAPPING_it                                 output.o
POLICY_MAPPING_new                                output.o
PROXY_CERT_INFO_EXTENSION_free                    output.o
PROXY_CERT_INFO_EXTENSION_it                      output.o
PROXY_CERT_INFO_EXTENSION_new                     output.o
PROXY_POLICY_free                                 output.o
PROXY_POLICY_it                                   output.o
PROXY_POLICY_new                                  output.o
PowerOff                                          output.o
PowerOn                                           output.o
RAND_SSLeay                                       output.o
RAND_add                                          output.o
RAND_bytes                                        output.o
RAND_cleanup                                      output.o
RAND_get_rand_method                              output.o
RAND_poll                                         output.o
RAND_pseudo_bytes                                 output.o
RAND_seed                                         output.o
RAND_set_rand_method                              output.o
RAND_status                                       output.o
RAND_version                                      output.o
RC2_cbc_encrypt                                   output.o
RC2_cfb64_encrypt                                 output.o
RC2_decrypt                                       output.o
RC2_ecb_encrypt                                   output.o
RC2_encrypt                                       output.o
RC2_ofb64_encrypt                                 output.o
RC2_set_key                                       output.o
RC2_version                                       output.o
RC4                                               output.o
RC4_options                                       output.o
RC4_set_key                                       output.o
RC4_version                                       output.o
RFAddReader                                       output.o
RFCheckReaderEventState                           output.o
RFReaderInfoById                                  output.o
RFRemoveReader                                    output.o
RIPEMD160_Final                                   output.o
RIPEMD160_Init                                    output.o
RIPEMD160_Transform                               output.o
RIPEMD160_Update                                  output.o
RMD160_version                                    output.o
RSAPrivateKey_dup                                 output.o
RSAPrivateKey_it                                  output.o
RSAPublicKey_dup                                  output.o
RSAPublicKey_it                                   output.o
RSA_PKCS1_SSLeay                                  output.o
RSA_X931_hash_id                                  output.o
RSA_blinding_off                                  output.o
RSA_blinding_on                                   output.o
RSA_flags                                         output.o
RSA_free                                          output.o
RSA_generate_key                                  output.o
RSA_generate_key_ex                               output.o
RSA_get_default_method                            output.o
RSA_get_ex_data                                   output.o
RSA_get_ex_new_index                              output.o
RSA_get_method                                    output.o
RSA_memory_lock                                   output.o
RSA_new                                           output.o
RSA_new_method                                    output.o
RSA_padding_add_PKCS1_OAEP                        output.o
RSA_padding_add_PKCS1_PSS                         output.o
RSA_padding_add_PKCS1_type_1                      output.o
RSA_padding_add_PKCS1_type_2                      output.o
RSA_padding_add_SSLv23                            output.o
RSA_padding_add_X931                              output.o
RSA_padding_add_none                              output.o
RSA_padding_check_PKCS1_OAEP                      output.o
RSA_padding_check_PKCS1_type_1                    output.o
RSA_padding_check_PKCS1_type_2                    output.o
RSA_padding_check_SSLv23                          output.o
RSA_padding_check_X931                            output.o
RSA_padding_check_none                            output.o
RSA_private_decrypt                               output.o
RSA_private_encrypt                               output.o
RSA_public_decrypt                                output.o
RSA_public_encrypt                                output.o
RSA_set_default_method                            output.o
RSA_set_ex_data                                   output.o
RSA_set_method                                    output.o
RSA_setup_blinding                                output.o
RSA_sign                                          output.o
RSA_size                                          output.o
RSA_up_ref                                        output.o
RSA_verify                                        output.o
RSA_verify_PKCS1_PSS                              output.o
RSA_version                                       output.o
ReadBinary                                        output.o
ReadDataT0                                        output.o
ReadUSB                                           output.o
ReceiveReply                                      output.o
SCardBeginTransaction                             output.o
SCardConnect                                      output.o
SCardDisconnect                                   output.o
SCardEndTransaction                               output.o
SCardEstablishContext                             output.o
SCardListReaders                                  output.o
SCardReleaseContext                               output.o
SCardStatus                                       output.o
SCardTransmit                                     output.o
SHA1                                              output.o
SHA1_Final                                        output.o
SHA1_Init                                         output.o
SHA1_Transform                                    output.o
SHA1_Update                                       output.o
SHA1_version                                      output.o
SHA224                                            output.o
SHA224_Final                                      output.o
SHA224_Init                                       output.o
SHA224_Update                                     output.o
SHA256                                            output.o
SHA256_Final                                      output.o
SHA256_Init                                       output.o
SHA256_Transform                                  output.o
SHA256_Update                                     output.o
SHA256_version                                    output.o
SHA384                                            output.o
SHA384_Final                                      output.o
SHA384_Init                                       output.o
SHA384_Update                                     output.o
SHA512                                            output.o
SHA512_Final                                      output.o
SHA512_Init                                       output.o
SHA512_Transform                                  output.o
SHA512_Update                                     output.o
SHA512_version                                    output.o
SHA_Final                                         output.o
SHA_Init                                          output.o
SHA_Transform                                     output.o
SHA_Update                                        output.o
SHA_version                                       output.o
SMIME_crlf_copy                                   output.o
SMIME_read_ASN1                                   output.o
SMIME_read_CMS                                    output.o
SMIME_text                                        output.o
SMIME_write_ASN1                                  output.o
SMIME_write_CMS                                   output.o
STACK_version                                     output.o
SXNETID_free                                      output.o
SXNETID_it                                        output.o
SXNETID_new                                       output.o
SXNET_add_id_INTEGER                              output.o
SXNET_add_id_asc                                  output.o
SXNET_add_id_ulong                                output.o
SXNET_free                                        output.o
SXNET_get_id_INTEGER                              output.o
SXNET_get_id_asc                                  output.o
SXNET_get_id_ulong                                output.o
SXNET_it                                          output.o
SXNET_new                                         output.o
Se4AddArpEntryList                                output.o
Se4AdjustTcpMss                                   output.o
Se4And                                            output.o
Se4BitToHex                                       output.o
Se4BroadcastMacAddress                            output.o
Se4BuildIcmpEchoPacket                            output.o
Se4CheckUnicastAddress                            output.o
Se4Cmp                                            output.o
Se4CmpArpEntry                                    output.o
Se4CmpArpWaitEntry                                output.o
Se4CmpIpCombineList                               output.o
Se4CombineIp                                      output.o
Se4FlushArpEntryList                              output.o
Se4FlushIpCombineList                             output.o
Se4FlushIpWaitList                                output.o
Se4Free                                           output.o
Se4FreeArpEntryList                               output.o
Se4FreeArpWaitList                                output.o
Se4FreeIpCombine                                  output.o
Se4FreeIpCombineList                              output.o
Se4FreeIpFragmentList                             output.o
Se4FreeIpHeaderInfo                               output.o
Se4FreeIpWait                                     output.o
Se4FreeIpWaitList                                 output.o
Se4GenerateSubnetMask                             output.o
Se4GenerateSubnetMask32                           output.o
Se4GetBroadcastAddress                            output.o
Se4GetHostAddress                                 output.o
Se4GetNetworkAddress                              output.o
Se4IPToStr                                        output.o
Se4IPToStr32                                      output.o
Se4IPToUINT                                       output.o
Se4Init                                           output.o
Se4InitArpEntryList                               output.o
Se4InitArpWaitList                                output.o
Se4InitIpCombineList                              output.o
Se4InitIpFragmentList                             output.o
Se4InitIpWaitList                                 output.o
Se4InsertIpCombine                                output.o
Se4InsertIpWait                                   output.o
Se4IpCheckChecksum                                output.o
Se4IpChecksum                                     output.o
Se4IsBroadcastAddress                             output.o
Se4IsInSameNetwork                                output.o
Se4IsSubnetMask                                   output.o
Se4IsZeroIP                                       output.o
Se4MacIpRelationKnown                             output.o
Se4MainProc                                       output.o
Se4Not                                            output.o
Se4Or                                             output.o
Se4ParseIpPacket                                  output.o
Se4ParseIpPacketICMPv4                            output.o
Se4ParseIpPacketUDPv4                             output.o
Se4ProcessArpWaitList                             output.o
Se4RecvArp                                        output.o
Se4RecvArpRequest                                 output.o
Se4RecvArpResponse                                output.o
Se4RecvEthPacket                                  output.o
Se4RecvIp                                         output.o
Se4RecvIpComplete                                 output.o
Se4SearchArpEntryList                             output.o
Se4SearchArpWaitList                              output.o
Se4SearchIpCombineList                            output.o
Se4SendArpDoProcess                               output.o
Se4SendArpRequest                                 output.o
Se4SendArpResponse                                output.o
Se4SendEthPacket                                  output.o
Se4SendIcmp                                       output.o
Se4SendIcmpEchoRequest                            output.o
Se4SendIcmpEchoResponse                           output.o
Se4SendIp                                         output.o
Se4SendIpFragment                                 output.o
Se4SendIpFragmentNow                              output.o
Se4SendRawIp                                      output.o
Se4SendUdp                                        output.o
Se4SendWaitingIpWait                              output.o
Se4StrToIP                                        output.o
Se4StrToIP32                                      output.o
Se4Tick                                           output.o
Se4UINTToIP                                       output.o
Se4ZeroIP                                         output.o
Se6AddGuestNode                                   output.o
Se6AddNeighborEntryList                           output.o
Se6And                                            output.o
Se6BroadcastMacAddress                            output.o
Se6BuildIcmpEchoPacket                            output.o
Se6CalcChecksum                                   output.o
Se6CheckIPItemStr                                 output.o
Se6CheckSubnetLength                              output.o
Se6CheckUnicastAddress                            output.o
Se6Cmp                                            output.o
Se6CmpIpCombineList                               output.o
Se6CmpNdpWaitEntry                                output.o
Se6CmpNeighborEntry                               output.o
Se6CombineIp                                      output.o
Se6FlushIpCombineList                             output.o
Se6FlushIpWaitList                                output.o
Se6FlushNeighborEntryList                         output.o
Se6Free                                           output.o
Se6FreeIpCombine                                  output.o
Se6FreeIpCombineList                              output.o
Se6FreeIpFragmentList                             output.o
Se6FreeIpHeaderInfo                               output.o
Se6FreeIpWait                                     output.o
Se6FreeIpWaitList                                 output.o
Se6FreeNdpWaitList                                output.o
Se6FreeNeighborEntryList                          output.o
Se6GenerateEui64Address                           output.o
Se6GenerateEui64GlobalAddress                     output.o
Se6GenerateEui64LocalAddress                      output.o
Se6GenerateMulticastMacAddress                    output.o
Se6GenerateSubnetMask                             output.o
Se6GetAllNodeMulticastAddr                        output.o
Se6GetAllRouterMulticastAddr                      output.o
Se6GetHostAddress                                 output.o
Se6GetIPAddrType                                  output.o
Se6GetPrefixAddress                               output.o
Se6GetSoliciationMulticastAddr                    output.o
Se6IPItemStrToChars                               output.o
Se6IPToStr                                        output.o
Se6Init                                           output.o
Se6InitIpCombineList                              output.o
Se6InitIpFragmentList                             output.o
Se6InitIpWaitList                                 output.o
Se6InitNdpWaitList                                output.o
Se6InitNeighborEntryList                          output.o
Se6InsertIpCombine                                output.o
Se6InsertIpWait                                   output.o
Se6IpChecksum                                     output.o
Se6IsGuestNode                                    output.o
Se6IsInSameNetwork                                output.o
Se6IsNetworkPrefixAddress                         output.o
Se6IsSubnetMask                                   output.o
Se6IsZeroIP                                       output.o
Se6LocalSubnet                                    output.o
Se6MacIpRelationKnown                             output.o
Se6MainProc                                       output.o
Se6Not                                            output.o
Se6Or                                             output.o
Se6ParseIpPacket                                  output.o
Se6ParseIpPacketICMPv6                            output.o
Se6ParseIpPacketUDPv6                             output.o
Se6ProcessNdpWaitList                             output.o
Se6RecvEthPacket                                  output.o
Se6RecvIp                                         output.o
Se6RecvIpComplete                                 output.o
Se6SearchIpCombineList                            output.o
Se6SearchNdpWaitList                              output.o
Se6SearchNeighborEntryList                        output.o
Se6SendEthPacket                                  output.o
Se6SendIcmp                                       output.o
Se6SendIcmpEchoRequest                            output.o
Se6SendIcmpEchoResponse                           output.o
Se6SendIcmpNeighborAdvertisement                  output.o
Se6SendIcmpNeighborSoliciation                    output.o
Se6SendIcmpRouterAdvertisement                    output.o
Se6SendIp                                         output.o
Se6SendIpFragment                                 output.o
Se6SendIpFragmentNow                              output.o
Se6SendNeighborSoliciation                        output.o
Se6SendNeighborSoliciationDoProcess               output.o
Se6SendRawIp                                      output.o
Se6SendUdp                                        output.o
Se6SendWaitingIpWait                              output.o
Se6StrToIP                                        output.o
Se6SubnetMaskToInt                                output.o
Se6Tick                                           output.o
Se6ZeroIP                                         output.o
SeAdd                                             output.o
SeAddBufStr                                       output.o
SeAdjustBufSize                                   output.o
SeB64CharToCode                                   output.o
SeB64CodeToChar                                   output.o
SeB64Decode                                       output.o
SeB64Encode                                       output.o
SeBSearch                                         output.o
SeBigNumToBuf                                     output.o
SeBigNumToStr                                     output.o
SeBinToBigNum                                     output.o
SeBinToStr                                        output.o
SeBinToStrEx                                      output.o
SeBioToBuf                                        output.o
SeBioToCert                                       output.o
SeBioToKey                                        output.o
SeBufToBigNum                                     output.o
SeBufToBio                                        output.o
SeBufToCert                                       output.o
SeBufToKey                                        output.o
SeBuildAndAddIPv6PacketOptionHeader               output.o
SeBuildICMPv6OptionValue                          output.o
SeBuildICMPv6Options                              output.o
SeBuildIPv6Packet                                 output.o
SeBuildIPv6PacketWithFragment                     output.o
SeCalcReplaceStrEx                                output.o
SeCertToBio                                       output.o
SeCertToBuf                                       output.o
SeCheckCert                                       output.o
SeCheckCertAndKey                                 output.o
SeCheckSignature                                  output.o
SeClearBuf                                        output.o
SeClearFifo                                       output.o
SeClone                                           output.o
SeCloneBuf                                        output.o
SeCloneCert                                       output.o
SeCloneKey                                        output.o
SeCloneList                                       output.o
SeCmp                                             output.o
SeCmpBuf                                          output.o
SeCmpEx                                           output.o
SeCompareCert                                     output.o
SeCompareStr                                      output.o
SeCopy                                            output.o
SeCopyStr                                         output.o
SeCopyToArray                                     output.o
SeDebug                                           output.o
SeDebugBin                                        output.o
SeDefaultTokenSplitChars                          output.o
SeDelete                                          output.o
SeDeleteAll                                       output.o
SeDeleteLock                                      output.o
SeDes3Decrypt                                     output.o
SeDes3Encrypt                                     output.o
SeDes3FreeKey                                     output.o
SeDes3NewKey                                      output.o
SeDes3RandKey                                     output.o
SeDesFreeKey                                      output.o
SeDesFreeKeyValue                                 output.o
SeDesNewKey                                       output.o
SeDesNewKeyValue                                  output.o
SeDesRandKey                                      output.o
SeDesRandKeyValue                                 output.o
SeDhCompute                                       output.o
SeDhFree                                          output.o
SeDhNew                                           output.o
SeDhNewGroup2                                     output.o
SeDumpBuf                                         output.o
SeEndWith                                         output.o
SeEndian16                                        output.o
SeEndian32                                        output.o
SeEndian64                                        output.o
SeError                                           output.o
SeEthAddSenderMacList                             output.o
SeEthDeleteOldSenderMacList                       output.o
SeEthFree                                         output.o
SeEthGenRandMacAddress                            output.o
SeEthGetInfo                                      output.o
SeEthGetNextRecvPacket                            output.o
SeEthIsSenderMacAddressExistsInList               output.o
SeEthNew                                          output.o
SeEthNicCallback                                  output.o
SeEthParseEthernetPacket                          output.o
SeEthSend                                         output.o
SeEthSendAdd                                      output.o
SeEthSendAll                                      output.o
SeFastSwap                                        output.o
SeFatal                                           output.o
SeFifoSize                                        output.o
SeFormat                                          output.o
SeFormatArgs                                      output.o
SeFormatEx                                        output.o
SeFree                                            output.o
SeFreeBio                                         output.o
SeFreeBuf                                         output.o
SeFreeBufWithoutBuffer                            output.o
SeFreeCert                                        output.o
SeFreeConfigEntryList                             output.o
SeFreeCrypto                                      output.o
SeFreeFifo                                        output.o
SeFreeKernel                                      output.o
SeFreeKey                                         output.o
SeFreeList                                        output.o
SeFreePKey                                        output.o
SeFreePacket                                      output.o
SeFreePacketList                                  output.o
SeFreePacketListWithoutBuffer                     output.o
SeFreeQueue                                       output.o
SeFreeStack                                       output.o
SeFreeToken                                       output.o
SeFreeX509                                        output.o
SeGetCertIssuerName                               output.o
SeGetCertMd5                                      output.o
SeGetCertSha1                                     output.o
SeGetCertSubjectName                              output.o
SeGetConfigBin                                    output.o
SeGetConfigBool                                   output.o
SeGetConfigEntry                                  output.o
SeGetConfigInt                                    output.o
SeGetConfigInt64                                  output.o
SeGetConfigStr                                    output.o
SeGetCurrentCpuId                                 output.o
SeGetKeyAndValue                                  output.o
SeGetKeyFromCert                                  output.o
SeGetNext                                         output.o
SeGetNextHeaderFromQueue                          output.o
SeGetNextInt                                      output.o
SeHashForSignBySHA1                               output.o
SeHexTo4Bit                                       output.o
SeHexToInt                                        output.o
SeHexToInt64                                      output.o
SeIkeBuild                                        output.o
SeIkeBuildCertPayload                             output.o
SeIkeBuildCertRequestPayload                      output.o
SeIkeBuildDataPayload                             output.o
SeIkeBuildDeletePayload                           output.o
SeIkeBuildIdPayload                               output.o
SeIkeBuildNoticePayload                           output.o
SeIkeBuildPayload                                 output.o
SeIkeBuildPayloadList                             output.o
SeIkeBuildProposalPayload                         output.o
SeIkeBuildSaPayload                               output.o
SeIkeBuildTransformPayload                        output.o
SeIkeBuildTransformValue                          output.o
SeIkeBuildTransformValueList                      output.o
SeIkeDecrypt                                      output.o
SeIkeEncrypt                                      output.o
SeIkeEncryptWithPadding                           output.o
SeIkeFree                                         output.o
SeIkeFreeCertPayload                              output.o
SeIkeFreeCertRequestPayload                       output.o
SeIkeFreeDataPayload                              output.o
SeIkeFreeDeletePayload                            output.o
SeIkeFreeIdPayload                                output.o
SeIkeFreeNoticePayload                            output.o
SeIkeFreePayload                                  output.o
SeIkeFreePayloadList                              output.o
SeIkeFreeProposalPayload                          output.o
SeIkeFreeSaPayload                                output.o
SeIkeFreeTransformPayload                         output.o
SeIkeFreeTransformValueList                       output.o
SeIkeGetFirstPayloadType                          output.o
SeIkeGetIPv4Address                               output.o
SeIkeGetIPv6Address                               output.o
SeIkeGetPayload                                   output.o
SeIkeGetPayloadNum                                output.o
SeIkeInitIPv4Address                              output.o
SeIkeInitIPv6Address                              output.o
SeIkeIpAddressToStr                               output.o
SeIkeIsZeroIP                                     output.o
SeIkeNew                                          output.o
SeIkeNewCertPayload                               output.o
SeIkeNewCertRequestPayload                        output.o
SeIkeNewDataPayload                               output.o
SeIkeNewDeletePayload                             output.o
SeIkeNewIdPayload                                 output.o
SeIkeNewNoticePayload                             output.o
SeIkeNewPayload                                   output.o
SeIkeNewProposalPayload                           output.o
SeIkeNewSaPayload                                 output.o
SeIkeNewTransformPayload                          output.o
SeIkeNewTransformValue                            output.o
SeIkeParse                                        output.o
SeIkeParseCertPayload                             output.o
SeIkeParseCertRequestPayload                      output.o
SeIkeParseDataPayload                             output.o
SeIkeParseDeletePayload                           output.o
SeIkeParseEx                                      output.o
SeIkeParseHeader                                  output.o
SeIkeParseIdPayload                               output.o
SeIkeParseNoticePayload                           output.o
SeIkeParsePayload                                 output.o
SeIkeParsePayloadList                             output.o
SeIkeParsePayloadListEx                           output.o
SeIkeParseProposalPayload                         output.o
SeIkeParseSaPayload                               output.o
SeIkeParseTransformPayload                        output.o
SeIkeParseTransformValueList                      output.o
SeIkePhase1CryptIdToKeySize                       output.o
SeIkePhase2CryptIdToKeySize                       output.o
SeIkeStrToPassword                                output.o
SeIkeStrToPhase1CryptId                           output.o
SeIkeStrToPhase1HashId                            output.o
SeIkeStrToPhase2CryptId                           output.o
SeIkeStrToPhase2HashId                            output.o
SeInfo                                            output.o
SeInitCrypto                                      output.o
SeInitKernel                                      output.o
SeInsert                                          output.o
SeInsertQueue                                     output.o
SeInsertQueueInt                                  output.o
SeInsertStr                                       output.o
SeIntFree                                         output.o
SeIntInit                                         output.o
SeIsAllLowerStr                                   output.o
SeIsAllUpperStr                                   output.o
SeIsBase64                                        output.o
SeIsBigEndian                                     output.o
SeIsCertSignedByCert                              output.o
SeIsCharInStr                                     output.o
SeIsEmptyStr                                      output.o
SeIsInList                                        output.o
SeIsInListStr                                     output.o
SeIsLittleEndian                                  output.o
SeIsSplitChar                                     output.o
SeIsZero                                          output.o
SeKeyToBio                                        output.o
SeKeyToBuf                                        output.o
SeLoad                                            output.o
SeLoadCert                                        output.o
SeLoadConfigEntryList                             output.o
SeLoadConfigEntryListFromBuf                      output.o
SeLoadKey                                         output.o
SeLock                                            output.o
SeLog                                             output.o
SeLogArgs                                         output.o
SeMacSha1                                         output.o
SeMacSha196                                       output.o
SeMacToStr                                        output.o
SeMakeCharArray                                   output.o
SeMalloc                                          output.o
SeMd5                                             output.o
SeMemSize                                         output.o
SeMemToBuf                                        output.o
SeNewBio                                          output.o
SeNewBuf                                          output.o
SeNewFifo                                         output.o
SeNewList                                         output.o
SeNewLock                                         output.o
SeNewQueue                                        output.o
SeNewStack                                        output.o
SeNormalizeCrlf                                   output.o
SeNullTokenList                                   output.o
SePKeyPasswordCallbackFunction                    output.o
SeParseICMPv6Options                              output.o
SeParseIPv6ExtHeader                              output.o
SeParseIPv6Packet                                 output.o
SeParsePacket                                     output.o
SeParsePacketL2                                   output.o
SeParsePacketL3ARPv4                              output.o
SeParsePacketL3IPv4                               output.o
SeParsePacketL3IPv6                               output.o
SeParseToken                                      output.o
SeParseTokenWithNullStr                           output.o
SePeekFifo                                        output.o
SePeekNext                                        output.o
SePop                                             output.o
SePush                                            output.o
SeQSort                                           output.o
SeRand                                            output.o
SeRand1                                           output.o
SeRand16                                          output.o
SeRand32                                          output.o
SeRand64                                          output.o
SeRand8                                           output.o
SeRandBuf                                         output.o
SeReAlloc                                         output.o
SeReadBuf                                         output.o
SeReadBufFromBuf                                  output.o
SeReadBufInt                                      output.o
SeReadBufInt64                                    output.o
SeReadBufStr                                      output.o
SeReadDump                                        output.o
SeReadFifo                                        output.o
SeReadNextLine                                    output.o
SeReadRemainBuf                                   output.o
SeReplaceListPointer                              output.o
SeReplaceStr                                      output.o
SeReplaceStrEx                                    output.o
SeReplaceStri                                     output.o
SeRsaGen                                          output.o
SeRsaPrivateDecrypt                               output.o
SeRsaPrivateEncrypt                               output.o
SeRsaPublicDecrypt                                output.o
SeRsaPublicEncrypt                                output.o
SeRsaPublicSize                                   output.o
SeRsaPublicToBin                                  output.o
SeRsaPublicToBuf                                  output.o
SeRsaSign                                         output.o
SeRsaSignWithPadding                              output.o
SeRsaSignWithSha1                                 output.o
SeRsaVerifyWithPadding                            output.o
SeRsaVerifyWithSha1                               output.o
SeSave                                            output.o
SeSaveCert                                        output.o
SeSaveKey                                         output.o
SeSearch                                          output.o
SeSearchStr                                       output.o
SeSearchStrEx                                     output.o
SeSearchStri                                      output.o
SeSecAddTimer                                     output.o
SeSecCalcKEYMAT                                   output.o
SeSecCalcKEYMATFull                               output.o
SeSecCalcKa                                       output.o
SeSecCalcP1Iv                                     output.o
SeSecCalcP1KeySet                                 output.o
SeSecCalcP2Iv                                     output.o
SeSecCheckIPsecSaExpires                          output.o
SeSecCheckIkeSaExpires                            output.o
SeSecCmpIkeSa                                     output.o
SeSecDeleteExpiredIPsecSa                         output.o
SeSecDeleteExpiredIkeSa                           output.o
SeSecDoInterval                                   output.o
SeSecEspRecvCallback                              output.o
SeSecForceReconnect                               output.o
SeSecFree                                         output.o
SeSecFreeIPsecSa                                  output.o
SeSecFreeIkeSa                                    output.o
SeSecFreeMain                                     output.o
SeSecFreeP1KeySet                                 output.o
SeSecFreeSaList                                   output.o
SeSecGenIPsecSASpi                                output.o
SeSecGenIkeSaInitCookie                           output.o
SeSecGenIkeSaMessageId                            output.o
SeSecGetIPsecSa                                   output.o
SeSecInit                                         output.o
SeSecInitMain                                     output.o
SeSecInitSaList                                   output.o
SeSecLifeSeconds64bit                             output.o
SeSecNewIPsecSa                                   output.o
SeSecNewIkeSa                                     output.o
SeSecNewSpi                                       output.o
SeSecProcessIkeSaMsg                              output.o
SeSecProcessIkeSaMsgInfo                          output.o
SeSecProcessIkeSaMsgPhase1                        output.o
SeSecProcessIkeSaMsgPhase2                        output.o
SeSecProcessMain                                  output.o
SeSecSearchIPsecSaBySpi                           output.o
SeSecSearchIkeSa                                  output.o
SeSecSearchIkeSaBySpi                             output.o
SeSecSendEsp                                      output.o
SeSecSendIPsecSaDeleteMsg                         output.o
SeSecSendIkeSaDeleteMsg                           output.o
SeSecSendIkeSaMsgInfo                             output.o
SeSecSendIkeSaMsgInfoSimple                       output.o
SeSecSendIkeSaMsgPhase2                           output.o
SeSecSendIkeSaMsgPhase2FinalHash                  output.o
SeSecSendUdp                                      output.o
SeSecSendVirtualIp                                output.o
SeSecSetRecvEspCallback                           output.o
SeSecSetRecvUdpCallback                           output.o
SeSecSetRecvVirtualIpCallback                     output.o
SeSecSetTimerCallback                             output.o
SeSecStartVpnConnect                              output.o
SeSecStrToAuthMethod                              output.o
SeSecTick                                         output.o
SeSecTimerCallback                                output.o
SeSecUdpRecvCallback                              output.o
SeSecVirtualIpRecvCallback                        output.o
SeSeekBuf                                         output.o
SeSetCmp                                          output.o
SeSetSortFlag                                     output.o
SeSha1                                            output.o
SeSort                                            output.o
SeStartWith                                       output.o
SeStrCat                                          output.o
SeStrCheckLen                                     output.o
SeStrCheckSize                                    output.o
SeStrCmp                                          output.o
SeStrCmpi                                         output.o
SeStrCpy                                          output.o
SeStrLen                                          output.o
SeStrLower                                        output.o
SeStrSize                                         output.o
SeStrToBin                                        output.o
SeStrToBinEx                                      output.o
SeStrToMac                                        output.o
SeStrUpper                                        output.o
SeStrnCmp                                         output.o
SeStrnCmpi                                        output.o
SeSwap                                            output.o
SeSwap16                                          output.o
SeSwap32                                          output.o
SeSwap64                                          output.o
SeSysFreeData                                     output.o
SeSysFreeLock                                     output.o
SeSysFreeTimer                                    output.o
SeSysGetCurrentCpuId                              output.o
SeSysGetPhysicalNicInfo                           output.o
SeSysGetTickCount                                 output.o
SeSysGetVirtualNicInfo                            output.o
SeSysLoadData                                     output.o
SeSysLock                                         output.o
SeSysLog                                          output.o
SeSysMemoryAlloc                                  output.o
SeSysMemoryFree                                   output.o
SeSysMemoryReAlloc                                output.o
SeSysNewLock                                      output.o
SeSysNewTimer                                     output.o
SeSysRsaSign                                      output.o
SeSysSaveData                                     output.o
SeSysSendPhysicalNic                              output.o
SeSysSendVirtualNic                               output.o
SeSysSetPhysicalNicRecvCallback                   output.o
SeSysSetTimer                                     output.o
SeSysSetVirtualNicRecvCallback                    output.o
SeSysUnlock                                       output.o
SeTick                                            output.o
SeTick64                                          output.o
SeTick64Internal                                  output.o
SeTimerAdjust                                     output.o
SeTimerCallback                                   output.o
SeTimerEntryCompare                               output.o
SeTimerFree                                       output.o
SeTimerNew                                        output.o
SeTimerSet                                        output.o
SeToArray                                         output.o
SeToHex                                           output.o
SeToHex64                                         output.o
SeToInt                                           output.o
SeToInt64                                         output.o
SeToLower                                         output.o
SeToStr                                           output.o
SeToStr3                                          output.o
SeToStr64                                         output.o
SeToUpper                                         output.o
SeTrim                                            output.o
SeTrimCopy                                        output.o
SeTrimCrlf                                        output.o
SeTrimLeft                                        output.o
SeTrimRight                                       output.o
SeUniqueToken                                     output.o
SeUnlock                                          output.o
SeVpn4ClientAddTimer                              output.o
SeVpn4ClientGetTick                               output.o
SeVpn4ClientSendEsp                               output.o
SeVpn4ClientSendUdp                               output.o
SeVpn4ClientSendVirtualIp                         output.o
SeVpn4ClientSetRecvEspCallback                    output.o
SeVpn4ClientSetRecvUdpCallback                    output.o
SeVpn4ClientSetRecvVirtualIpCallback              output.o
SeVpn4ClientSetTimerCallback                      output.o
SeVpn4DhcpBuildDhcpOptionList                     output.o
SeVpn4DhcpFreeOptionList                          output.o
SeVpn4DhcpOptionsToBuf                            output.o
SeVpn4DhcpParseOptionList                         output.o
SeVpn4DhcpParseOptionListMain                     output.o
SeVpn4DhcpSearchOption                            output.o
SeVpn4DhcpSendResponse                            output.o
SeVpn4DhcpServer                                  output.o
SeVpn4DoInterval                                  output.o
SeVpn4Free                                        output.o
SeVpn4FreeIPsec                                   output.o
SeVpn4IPsecInputFromPhysical                      output.o
SeVpn4IPsecInputFromVirtual                       output.o
SeVpn4IPsecMainProc                               output.o
SeVpn4IPsecSendPing                               output.o
SeVpn4Init                                        output.o
SeVpn4InitIPsec                                   output.o
SeVpn4InitSecConfig                               output.o
SeVpn4MainProc                                    output.o
SeVpn4NewDhcpOption                               output.o
SeVpn4RecvPacketPhysical                          output.o
SeVpn4RecvPacketVirtual                           output.o
SeVpn4SetTimer                                    output.o
SeVpn4Tick                                        output.o
SeVpn6ClientAddTimer                              output.o
SeVpn6ClientGetTick                               output.o
SeVpn6ClientSendEsp                               output.o
SeVpn6ClientSendUdp                               output.o
SeVpn6ClientSendVirtualIp                         output.o
SeVpn6ClientSetRecvEspCallback                    output.o
SeVpn6ClientSetRecvUdpCallback                    output.o
SeVpn6ClientSetRecvVirtualIpCallback              output.o
SeVpn6ClientSetTimerCallback                      output.o
SeVpn6DoInterval                                  output.o
SeVpn6Free                                        output.o
SeVpn6FreeIPsec                                   output.o
SeVpn6IPsecInputFromPhysical                      output.o
SeVpn6IPsecInputFromVirtual                       output.o
SeVpn6IPsecMainProc                               output.o
SeVpn6IPsecSendPing                               output.o
SeVpn6Init                                        output.o
SeVpn6InitIPsec                                   output.o
SeVpn6InitSecConfig                               output.o
SeVpn6MainProc                                    output.o
SeVpn6RecvPacketPhysical                          output.o
SeVpn6RecvPacketVirtual                           output.o
SeVpn6SetTimer                                    output.o
SeVpn6Tick                                        output.o
SeVpn6UpdateGuestOsIpAddress                      output.o
SeVpnAddTimer                                     output.o
SeVpnDoInterval                                   output.o
SeVpnEthRecvCallback                              output.o
SeVpnFree                                         output.o
SeVpnFreeConfig                                   output.o
SeVpnFreeIpStack                                  output.o
SeVpnInit                                         output.o
SeVpnInitIpStack                                  output.o
SeVpnLoadConfig                                   output.o
SeVpnMainFree                                     output.o
SeVpnMainHandler                                  output.o
SeVpnMainInit                                     output.o
SeVpnMainProcRecvEtherPacket                      output.o
SeVpnMainProcess                                  output.o
SeVpnRecvEtherPacket                              output.o
SeVpnRecvIpV4PacketCallback                       output.o
SeVpnRecvIpV6PacketCallback                       output.o
SeVpnSendEtherPacket                              output.o
SeVpnStatusChanged                                output.o
SeVpnTick                                         output.o
SeVpnTimerCallback                                output.o
SeWarning                                         output.o
SeWriteBuf                                        output.o
SeWriteBufBuf                                     output.o
SeWriteBufInt                                     output.o
SeWriteBufInt64                                   output.o
SeWriteBufLine                                    output.o
SeWriteBufStr                                     output.o
SeWriteFifo                                       output.o
SeX509ToCert                                      output.o
SeZero                                            output.o
SeZeroMalloc                                      output.o
SelectFileDF                                      output.o
SelectFileEF                                      output.o
SetATR                                            output.o
SetElem                                           output.o
SetLength                                         output.o
StIsdigit                                         output.o
StIsspace                                         output.o
T0XfrBlockCHAR                                    output.o
T0XfrBlockTPDU                                    output.o
T1NegociateIFSD                                   output.o
T1XfrBlockExtendedAPDU                            output.o
T1XfrBlockTPDU                                    output.o
TransHex2Tex                                      output.o
TransTex2Hex                                      output.o
TransmitCommand                                   output.o
TransmitPPS                                       output.o
UI_OpenSSL                                        output.o
UI_add_error_string                               output.o
UI_add_info_string                                output.o
UI_add_input_boolean                              output.o
UI_add_input_string                               output.o
UI_add_user_data                                  output.o
UI_add_verify_string                              output.o
UI_construct_prompt                               output.o
UI_create_method                                  output.o
UI_ctrl                                           output.o
UI_destroy_method                                 output.o
UI_dup_error_string                               output.o
UI_dup_info_string                                output.o
UI_dup_input_boolean                              output.o
UI_dup_input_string                               output.o
UI_dup_verify_string                              output.o
UI_free                                           output.o
UI_get0_action_string                             output.o
UI_get0_output_string                             output.o
UI_get0_result                                    output.o
UI_get0_result_string                             output.o
UI_get0_test_string                               output.o
UI_get0_user_data                                 output.o
UI_get_default_method                             output.o
UI_get_ex_data                                    output.o
UI_get_ex_new_index                               output.o
UI_get_input_flags                                output.o
UI_get_method                                     output.o
UI_get_result_maxsize                             output.o
UI_get_result_minsize                             output.o
UI_get_string_type                                output.o
UI_method_get_closer                              output.o
UI_method_get_flusher                             output.o
UI_method_get_opener                              output.o
UI_method_get_prompt_constructor                  output.o
UI_method_get_reader                              output.o
UI_method_get_writer                              output.o
UI_method_set_closer                              output.o
UI_method_set_flusher                             output.o
UI_method_set_opener                              output.o
UI_method_set_prompt_constructor                  output.o
UI_method_set_reader                              output.o
UI_method_set_writer                              output.o
UI_new                                            output.o
UI_new_method                                     output.o
UI_process                                        output.o
UI_set_default_method                             output.o
UI_set_ex_data                                    output.o
UI_set_method                                     output.o
UI_set_result                                     output.o
USERNOTICE_free                                   output.o
USERNOTICE_it                                     output.o
USERNOTICE_new                                    output.o
UTF8_getc                                         output.o
UTF8_putc                                         output.o
UpdateBinary                                      output.o
VPN_IPsec_Client_Start                            output.o
VPN_IPsec_Client_Stop                             output.o
VPN_IPsec_Free                                    output.o
VPN_IPsec_Init                                    output.o
Verify                                            output.o
WHIRLPOOL                                         output.o
WHIRLPOOL_BitUpdate                               output.o
WHIRLPOOL_Final                                   output.o
WHIRLPOOL_Init                                    output.o
WHIRLPOOL_Update                                  output.o
WriteUSB                                          output.o
X509V3_EXT_CRL_add_conf                           output.o
X509V3_EXT_CRL_add_nconf                          output.o
X509V3_EXT_REQ_add_conf                           output.o
X509V3_EXT_REQ_add_nconf                          output.o
X509V3_EXT_add                                    output.o
X509V3_EXT_add_alias                              output.o
X509V3_EXT_add_conf                               output.o
X509V3_EXT_add_list                               output.o
X509V3_EXT_add_nconf                              output.o
X509V3_EXT_add_nconf_sk                           output.o
X509V3_EXT_cleanup                                output.o
X509V3_EXT_conf                                   output.o
X509V3_EXT_conf_nid                               output.o
X509V3_EXT_d2i                                    output.o
X509V3_EXT_get                                    output.o
X509V3_EXT_get_nid                                output.o
X509V3_EXT_i2d                                    output.o
X509V3_EXT_nconf                                  output.o
X509V3_EXT_nconf_nid                              output.o
X509V3_EXT_print                                  output.o
X509V3_EXT_val_prn                                output.o
X509V3_NAME_from_section                          output.o
X509V3_add1_i2d                                   output.o
X509V3_add_standard_extensions                    output.o
X509V3_add_value                                  output.o
X509V3_add_value_bool                             output.o
X509V3_add_value_bool_nf                          output.o
X509V3_add_value_int                              output.o
X509V3_add_value_uchar                            output.o
X509V3_conf_free                                  output.o
X509V3_extensions_print                           output.o
X509V3_get_d2i                                    output.o
X509V3_get_section                                output.o
X509V3_get_string                                 output.o
X509V3_get_value_bool                             output.o
X509V3_get_value_int                              output.o
X509V3_parse_list                                 output.o
X509V3_section_free                               output.o
X509V3_set_conf_lhash                             output.o
X509V3_set_ctx                                    output.o
X509V3_set_nconf                                  output.o
X509V3_string_free                                output.o
X509_ALGORS_it                                    output.o
X509_ALGOR_dup                                    output.o
X509_ALGOR_free                                   output.o
X509_ALGOR_get0                                   output.o
X509_ALGOR_it                                     output.o
X509_ALGOR_new                                    output.o
X509_ALGOR_set0                                   output.o
X509_ATTRIBUTE_SET_it                             output.o
X509_ATTRIBUTE_count                              output.o
X509_ATTRIBUTE_create                             output.o
X509_ATTRIBUTE_create_by_NID                      output.o
X509_ATTRIBUTE_create_by_OBJ                      output.o
X509_ATTRIBUTE_create_by_txt                      output.o
X509_ATTRIBUTE_dup                                output.o
X509_ATTRIBUTE_free                               output.o
X509_ATTRIBUTE_get0_data                          output.o
X509_ATTRIBUTE_get0_object                        output.o
X509_ATTRIBUTE_get0_type                          output.o
X509_ATTRIBUTE_it                                 output.o
X509_ATTRIBUTE_new                                output.o
X509_ATTRIBUTE_set1_data                          output.o
X509_ATTRIBUTE_set1_object                        output.o
X509_CERT_AUX_free                                output.o
X509_CERT_AUX_it                                  output.o
X509_CERT_AUX_new                                 output.o
X509_CERT_AUX_print                               output.o
X509_CERT_PAIR_free                               output.o
X509_CERT_PAIR_it                                 output.o
X509_CERT_PAIR_new                                output.o
X509_CINF_free                                    output.o
X509_CINF_it                                      output.o
X509_CINF_new                                     output.o
X509_CRL_INFO_free                                output.o
X509_CRL_INFO_it                                  output.o
X509_CRL_INFO_new                                 output.o
X509_CRL_METHOD_free                              output.o
X509_CRL_METHOD_new                               output.o
X509_CRL_add0_revoked                             output.o
X509_CRL_add1_ext_i2d                             output.o
X509_CRL_add_ext                                  output.o
X509_CRL_cmp                                      output.o
X509_CRL_delete_ext                               output.o
X509_CRL_digest                                   output.o
X509_CRL_dup                                      output.o
X509_CRL_free                                     output.o
X509_CRL_get0_by_cert                             output.o
X509_CRL_get0_by_serial                           output.o
X509_CRL_get_ext                                  output.o
X509_CRL_get_ext_by_NID                           output.o
X509_CRL_get_ext_by_OBJ                           output.o
X509_CRL_get_ext_by_critical                      output.o
X509_CRL_get_ext_count                            output.o
X509_CRL_get_ext_d2i                              output.o
X509_CRL_get_meth_data                            output.o
X509_CRL_it                                       output.o
X509_CRL_match                                    output.o
X509_CRL_new                                      output.o
X509_CRL_set_default_method                       output.o
X509_CRL_set_meth_data                            output.o
X509_CRL_sign                                     output.o
X509_CRL_verify                                   output.o
X509_EXTENSIONS_it                                output.o
X509_EXTENSION_create_by_NID                      output.o
X509_EXTENSION_create_by_OBJ                      output.o
X509_EXTENSION_dup                                output.o
X509_EXTENSION_free                               output.o
X509_EXTENSION_get_critical                       output.o
X509_EXTENSION_get_data                           output.o
X509_EXTENSION_get_object                         output.o
X509_EXTENSION_it                                 output.o
X509_EXTENSION_new                                output.o
X509_EXTENSION_set_critical                       output.o
X509_EXTENSION_set_data                           output.o
X509_EXTENSION_set_object                         output.o
X509_LOOKUP_by_alias                              output.o
X509_LOOKUP_by_fingerprint                        output.o
X509_LOOKUP_by_issuer_serial                      output.o
X509_LOOKUP_by_subject                            output.o
X509_LOOKUP_ctrl                                  output.o
X509_LOOKUP_free                                  output.o
X509_LOOKUP_init                                  output.o
X509_LOOKUP_new                                   output.o
X509_LOOKUP_shutdown                              output.o
X509_NAME_ENTRIES_it                              output.o
X509_NAME_ENTRY_create_by_NID                     output.o
X509_NAME_ENTRY_create_by_OBJ                     output.o
X509_NAME_ENTRY_create_by_txt                     output.o
X509_NAME_ENTRY_dup                               output.o
X509_NAME_ENTRY_free                              output.o
X509_NAME_ENTRY_get_data                          output.o
X509_NAME_ENTRY_get_object                        output.o
X509_NAME_ENTRY_it                                output.o
X509_NAME_ENTRY_new                               output.o
X509_NAME_ENTRY_set_data                          output.o
X509_NAME_ENTRY_set_object                        output.o
X509_NAME_INTERNAL_it                             output.o
X509_NAME_add_entry                               output.o
X509_NAME_add_entry_by_NID                        output.o
X509_NAME_add_entry_by_OBJ                        output.o
X509_NAME_add_entry_by_txt                        output.o
X509_NAME_cmp                                     output.o
X509_NAME_delete_entry                            output.o
X509_NAME_digest                                  output.o
X509_NAME_dup                                     output.o
X509_NAME_entry_count                             output.o
X509_NAME_free                                    output.o
X509_NAME_get_entry                               output.o
X509_NAME_get_index_by_NID                        output.o
X509_NAME_get_index_by_OBJ                        output.o
X509_NAME_get_text_by_NID                         output.o
X509_NAME_get_text_by_OBJ                         output.o
X509_NAME_hash                                    output.o
X509_NAME_hash_old                                output.o
X509_NAME_it                                      output.o
X509_NAME_new                                     output.o
X509_NAME_oneline                                 output.o
X509_NAME_print                                   output.o
X509_NAME_print_ex                                output.o
X509_NAME_set                                     output.o
X509_OBJECT_free_contents                         output.o
X509_OBJECT_idx_by_subject                        output.o
X509_OBJECT_retrieve_by_subject                   output.o
X509_OBJECT_retrieve_match                        output.o
X509_OBJECT_up_ref_count                          output.o
X509_POLICY_NODE_print                            output.o
X509_PUBKEY_free                                  output.o
X509_PUBKEY_get                                   output.o
X509_PUBKEY_get0_param                            output.o
X509_PUBKEY_it                                    output.o
X509_PUBKEY_new                                   output.o
X509_PUBKEY_set                                   output.o
X509_PUBKEY_set0_param                            output.o
X509_PURPOSE_add                                  output.o
X509_PURPOSE_cleanup                              output.o
X509_PURPOSE_get0                                 output.o
X509_PURPOSE_get0_name                            output.o
X509_PURPOSE_get0_sname                           output.o
X509_PURPOSE_get_by_id                            output.o
X509_PURPOSE_get_by_sname                         output.o
X509_PURPOSE_get_count                            output.o
X509_PURPOSE_get_id                               output.o
X509_PURPOSE_get_trust                            output.o
X509_PURPOSE_set                                  output.o
X509_REQ_INFO_free                                output.o
X509_REQ_INFO_it                                  output.o
X509_REQ_INFO_new                                 output.o
X509_REQ_add1_attr                                output.o
X509_REQ_add1_attr_by_NID                         output.o
X509_REQ_add1_attr_by_OBJ                         output.o
X509_REQ_add1_attr_by_txt                         output.o
X509_REQ_add_extensions                           output.o
X509_REQ_add_extensions_nid                       output.o
X509_REQ_check_private_key                        output.o
X509_REQ_delete_attr                              output.o
X509_REQ_digest                                   output.o
X509_REQ_dup                                      output.o
X509_REQ_extension_nid                            output.o
X509_REQ_free                                     output.o
X509_REQ_get1_email                               output.o
X509_REQ_get_attr                                 output.o
X509_REQ_get_attr_by_NID                          output.o
X509_REQ_get_attr_by_OBJ                          output.o
X509_REQ_get_attr_count                           output.o
X509_REQ_get_extension_nids                       output.o
X509_REQ_get_extensions                           output.o
X509_REQ_get_pubkey                               output.o
X509_REQ_it                                       output.o
X509_REQ_new                                      output.o
X509_REQ_set_extension_nids                       output.o
X509_REQ_set_pubkey                               output.o
X509_REQ_set_subject_name                         output.o
X509_REQ_set_version                              output.o
X509_REQ_sign                                     output.o
X509_REQ_verify                                   output.o
X509_REVOKED_add1_ext_i2d                         output.o
X509_REVOKED_add_ext                              output.o
X509_REVOKED_delete_ext                           output.o
X509_REVOKED_free                                 output.o
X509_REVOKED_get_ext                              output.o
X509_REVOKED_get_ext_by_NID                       output.o
X509_REVOKED_get_ext_by_OBJ                       output.o
X509_REVOKED_get_ext_by_critical                  output.o
X509_REVOKED_get_ext_count                        output.o
X509_REVOKED_get_ext_d2i                          output.o
X509_REVOKED_it                                   output.o
X509_REVOKED_new                                  output.o
X509_SIG_free                                     output.o
X509_SIG_it                                       output.o
X509_SIG_new                                      output.o
X509_STORE_CTX_cleanup                            output.o
X509_STORE_CTX_free                               output.o
X509_STORE_CTX_get0_current_crl                   output.o
X509_STORE_CTX_get0_current_issuer                output.o
X509_STORE_CTX_get0_param                         output.o
X509_STORE_CTX_get0_parent_ctx                    output.o
X509_STORE_CTX_get0_policy_tree                   output.o
X509_STORE_CTX_get1_chain                         output.o
X509_STORE_CTX_get1_issuer                        output.o
X509_STORE_CTX_get_chain                          output.o
X509_STORE_CTX_get_current_cert                   output.o
X509_STORE_CTX_get_error                          output.o
X509_STORE_CTX_get_error_depth                    output.o
X509_STORE_CTX_get_ex_data                        output.o
X509_STORE_CTX_get_ex_new_index                   output.o
X509_STORE_CTX_get_explicit_policy                output.o
X509_STORE_CTX_init                               output.o
X509_STORE_CTX_new                                output.o
X509_STORE_CTX_purpose_inherit                    output.o
X509_STORE_CTX_set0_crls                          output.o
X509_STORE_CTX_set0_param                         output.o
X509_STORE_CTX_set_cert                           output.o
X509_STORE_CTX_set_chain                          output.o
X509_STORE_CTX_set_default                        output.o
X509_STORE_CTX_set_depth                          output.o
X509_STORE_CTX_set_error                          output.o
X509_STORE_CTX_set_ex_data                        output.o
X509_STORE_CTX_set_flags                          output.o
X509_STORE_CTX_set_purpose                        output.o
X509_STORE_CTX_set_time                           output.o
X509_STORE_CTX_set_trust                          output.o
X509_STORE_CTX_set_verify_cb                      output.o
X509_STORE_CTX_trusted_stack                      output.o
X509_STORE_add_cert                               output.o
X509_STORE_add_crl                                output.o
X509_STORE_add_lookup                             output.o
X509_STORE_free                                   output.o
X509_STORE_get1_certs                             output.o
X509_STORE_get1_crls                              output.o
X509_STORE_get_by_subject                         output.o
X509_STORE_new                                    output.o
X509_STORE_set1_param                             output.o
X509_STORE_set_depth                              output.o
X509_STORE_set_flags                              output.o
X509_STORE_set_purpose                            output.o
X509_STORE_set_trust                              output.o
X509_STORE_set_verify_cb                          output.o
X509_TRUST_add                                    output.o
X509_TRUST_cleanup                                output.o
X509_TRUST_get0                                   output.o
X509_TRUST_get0_name                              output.o
X509_TRUST_get_by_id                              output.o
X509_TRUST_get_count                              output.o
X509_TRUST_get_flags                              output.o
X509_TRUST_get_trust                              output.o
X509_TRUST_set                                    output.o
X509_TRUST_set_default                            output.o
X509_VAL_free                                     output.o
X509_VAL_it                                       output.o
X509_VAL_new                                      output.o
X509_VERIFY_PARAM_add0_policy                     output.o
X509_VERIFY_PARAM_add0_table                      output.o
X509_VERIFY_PARAM_clear_flags                     output.o
X509_VERIFY_PARAM_free                            output.o
X509_VERIFY_PARAM_get_depth                       output.o
X509_VERIFY_PARAM_get_flags                       output.o
X509_VERIFY_PARAM_inherit                         output.o
X509_VERIFY_PARAM_lookup                          output.o
X509_VERIFY_PARAM_new                             output.o
X509_VERIFY_PARAM_set1                            output.o
X509_VERIFY_PARAM_set1_name                       output.o
X509_VERIFY_PARAM_set1_policies                   output.o
X509_VERIFY_PARAM_set_depth                       output.o
X509_VERIFY_PARAM_set_flags                       output.o
X509_VERIFY_PARAM_set_purpose                     output.o
X509_VERIFY_PARAM_set_time                        output.o
X509_VERIFY_PARAM_set_trust                       output.o
X509_VERIFY_PARAM_table_cleanup                   output.o
X509_add1_ext_i2d                                 output.o
X509_add1_reject_object                           output.o
X509_add1_trust_object                            output.o
X509_add_ext                                      output.o
X509_alias_get0                                   output.o
X509_alias_set1                                   output.o
X509_check_akid                                   output.o
X509_check_ca                                     output.o
X509_check_issued                                 output.o
X509_check_private_key                            output.o
X509_check_purpose                                output.o
X509_check_trust                                  output.o
X509_cmp                                          output.o
X509_cmp_current_time                             output.o
X509_cmp_time                                     output.o
X509_delete_ext                                   output.o
X509_digest                                       output.o
X509_dup                                          output.o
X509_email_free                                   output.o
X509_find_by_issuer_and_serial                    output.o
X509_find_by_subject                              output.o
X509_free                                         output.o
X509_get0_pubkey_bitstr                           output.o
X509_get1_email                                   output.o
X509_get1_ocsp                                    output.o
X509_get_default_cert_area                        output.o
X509_get_default_cert_dir                         output.o
X509_get_default_cert_dir_env                     output.o
X509_get_default_cert_file                        output.o
X509_get_default_cert_file_env                    output.o
X509_get_default_private_dir                      output.o
X509_get_ex_data                                  output.o
X509_get_ex_new_index                             output.o
X509_get_ext                                      output.o
X509_get_ext_by_NID                               output.o
X509_get_ext_by_OBJ                               output.o
X509_get_ext_by_critical                          output.o
X509_get_ext_count                                output.o
X509_get_ext_d2i                                  output.o
X509_get_issuer_name                              output.o
X509_get_pubkey                                   output.o
X509_get_pubkey_parameters                        output.o
X509_get_serialNumber                             output.o
X509_get_subject_name                             output.o
X509_gmtime_adj                                   output.o
X509_issuer_and_serial_cmp                        output.o
X509_issuer_and_serial_hash                       output.o
X509_issuer_name_cmp                              output.o
X509_issuer_name_hash                             output.o
X509_issuer_name_hash_old                         output.o
X509_it                                           output.o
X509_keyid_get0                                   output.o
X509_keyid_set1                                   output.o
X509_new                                          output.o
X509_ocspid_print                                 output.o
X509_policy_check                                 output.o
X509_policy_level_get0_node                       output.o
X509_policy_level_node_count                      output.o
X509_policy_node_get0_parent                      output.o
X509_policy_node_get0_policy                      output.o
X509_policy_node_get0_qualifiers                  output.o
X509_policy_tree_free                             output.o
X509_policy_tree_get0_level                       output.o
X509_policy_tree_get0_policies                    output.o
X509_policy_tree_get0_user_policies               output.o
X509_policy_tree_level_count                      output.o
X509_print                                        output.o
X509_print_ex                                     output.o
X509_pubkey_digest                                output.o
X509_reject_clear                                 output.o
X509_set_ex_data                                  output.o
X509_sign                                         output.o
X509_signature_print                              output.o
X509_subject_name_cmp                             output.o
X509_subject_name_hash                            output.o
X509_subject_name_hash_old                        output.o
X509_supported_extension                          output.o
X509_time_adj                                     output.o
X509_time_adj_ex                                  output.o
X509_to_X509_REQ                                  output.o
X509_trust_clear                                  output.o
X509_verify                                       output.o
X509_verify_cert                                  output.o
X509_version                                      output.o
X509at_add1_attr                                  output.o
X509at_add1_attr_by_NID                           output.o
X509at_add1_attr_by_OBJ                           output.o
X509at_add1_attr_by_txt                           output.o
X509at_delete_attr                                output.o
X509at_get0_data_by_OBJ                           output.o
X509at_get_attr                                   output.o
X509at_get_attr_by_NID                            output.o
X509at_get_attr_by_OBJ                            output.o
X509at_get_attr_count                             output.o
X509v3_add_ext                                    output.o
X509v3_delete_ext                                 output.o
X509v3_get_ext                                    output.o
X509v3_get_ext_by_NID                             output.o
X509v3_get_ext_by_OBJ                             output.o
X509v3_get_ext_by_critical                        output.o
X509v3_get_ext_count                              output.o
X9_62_CHARACTERISTIC_TWO_free                     output.o
X9_62_CHARACTERISTIC_TWO_it                       output.o
X9_62_CHARACTERISTIC_TWO_new                      output.o
X9_62_CURVE_it                                    output.o
X9_62_FIELDID_it                                  output.o
X9_62_PENTANOMIAL_free                            output.o
X9_62_PENTANOMIAL_it                              output.o
X9_62_PENTANOMIAL_new                             output.o
ZLONG_it                                          output.o
_CONF_add_string                                  output.o
_CONF_free_data                                   output.o
_CONF_get_section                                 output.o
_CONF_get_section_values                          output.o
_CONF_get_string                                  output.o
_CONF_new_data                                    output.o
_CONF_new_section                                 output.o
__initfunc_acpi_init_global                       output.o
__initfunc_acpi_init_paral                        output.o
__initfunc_ata_init                               output.o
__initfunc_beep_init_msg                          output.o
__initfunc_cache_init_pass                        output.o
__initfunc_cache_init_pcpu                        output.o
__initfunc_cache_init_vcpu                        output.o
__initfunc_callrealmode_init_global               output.o
__initfunc_callrealmode_panic                     output.o
__initfunc_copy_minios                            output.o
__initfunc_core_init                              output.o
__initfunc_cpu_mmu_spt_init_global                output.o
__initfunc_cpu_mmu_spt_init_pcpu                  output.o
__initfunc_cpuid_init                             output.o
__initfunc_cpuid_pass_init                        output.o
__initfunc_create_pass_vm                         output.o
__initfunc_debug_ata_init                         output.o
__initfunc_debug_on_shift_key                     output.o
__initfunc_ehci_init                              output.o
__initfunc_end                                    output.o
__initfunc_exint_pass_init                        output.o
__initfunc_get_shiftflags                         output.o
__initfunc_gmm_pass_init                          output.o
__initfunc_idman_init                             output.o
__initfunc_idman_init_global                      output.o
__initfunc_idman_kernel_init                      output.o
__initfunc_ieee1394_init                          output.o
__initfunc_ieee1394_init_boot                     output.o
__initfunc_install_int0x15_hook                   output.o
__initfunc_int_init_global                        output.o
__initfunc_int_wakeup                             output.o
__initfunc_io_io_init                             output.o
__initfunc_io_iopass_init                         output.o
__initfunc_iommu_setup                            output.o
__initfunc_keyboard_init_msg                      output.o
__initfunc_localapic_init                         output.o
__initfunc_mm_init_global                         output.o
__initfunc_mmio_debug                             output.o
__initfunc_mmio_init                              output.o
__initfunc_msg_init_global                        output.o
__initfunc_msr_init                               output.o
__initfunc_msr_pass_init                          output.o
__initfunc_nmi_pass_init                          output.o
__initfunc_nmi_pass_init_pcpu                     output.o
__initfunc_panic_init_global                      output.o
__initfunc_panic_init_global3                     output.o
__initfunc_panic_init_msg                         output.o
__initfunc_panic_init_pcpu                        output.o
__initfunc_pci_init                               output.o
__initfunc_print_boot_msg                         output.o
__initfunc_printf_init_global                     output.o
__initfunc_pro100_init                            output.o
__initfunc_process_init_ap                        output.o
__initfunc_process_init_global                    output.o
__initfunc_process_wakeup                         output.o
__initfunc_random_init_config0                    output.o
__initfunc_random_init_global                     output.o
__initfunc_reboot_init_msg                        output.o
__initfunc_resume_pro1000                         output.o
__initfunc_segment_init_global                    output.o
__initfunc_serial_init_msg                        output.o
__initfunc_setiohooks                             output.o
__initfunc_sleep_init_global                      output.o
__initfunc_sleep_init_msg                         output.o
__initfunc_start                                  output.o
__initfunc_storage_io_initfunc                    output.o
__initfunc_storage_kernel_init                    output.o
__initfunc_suspend_pro1000                        output.o
__initfunc_svm_panic                              output.o
__initfunc_sx_init_pass_init                      output.o
__initfunc_thread_init_global                     output.o
__initfunc_thread_init_pcpu                       output.o
__initfunc_time_init_global                       output.o
__initfunc_time_init_global_status                output.o
__initfunc_time_init_msg                          output.o
__initfunc_time_init_pcpu                         output.o
__initfunc_timer_init_global                      output.o
__initfunc_tty_init_global                        output.o
__initfunc_tty_init_global2                       output.o
__initfunc_tty_init_msg                           output.o
__initfunc_uhci_init                              output.o
__initfunc_unmap_user_area                        output.o
__initfunc_vcpu_init_global                       output.o
__initfunc_vga_init                               output.o
__initfunc_virtualization_init_pcpu               output.o
__initfunc_vmmcall_boot_init                      output.o
__initfunc_vmmcall_dbgsh_init                     output.o
__initfunc_vmmcall_dbgsh_init_global              output.o
__initfunc_vmmcall_dbgsh_init_pcpu                output.o
__initfunc_vmmcall_iccard_init                    output.o
__initfunc_vmmcall_init                           output.o
__initfunc_vmmcall_log_init                       output.o
__initfunc_vmmcall_status_init                    output.o
__initfunc_vmmcall_status_init_global             output.o
__initfunc_vpn_kernel_init                        output.o
__initfunc_vpn_pro1000_init                       output.o
__initfunc_vramwrite_init_bsp                     output.o
__initfunc_vramwrite_init_msg                     output.o
__initfunc_vt_panic                               output.o
__initfunc_vt_register_status_callback            output.o
__initfunc_xsetbv_init                            output.o
__initfunc_xsetbv_pass_init                       output.o
__process_builtin                                 output.o
__process_builtin_end                             output.o
_dprintf                                          output.o
_dprintft                                         output.o
_shadow_DES_check_key                             output.o
a2d_ASN1_OBJECT                                   output.o
a2i_ASN1_INTEGER                                  output.o
a2i_ASN1_STRING                                   output.o
a2i_GENERAL_NAME                                  output.o
a2i_IPADDRESS                                     output.o
a2i_IPADDRESS_NC                                  output.o
a2i_ipadd                                         output.o
acpi_dsdt_parse                                   output.o
acpi_dsdt_system_state                            output.o
acpi_iohook                                       output.o
acpi_poweroff                                     output.o
acpi_reset                                        output.o
acpi_smi_hook                                     output.o
add_remap                                         output.o
aes_xts_init                                      output.o
ahci_config_read                                  output.o
ahci_config_write                                 output.o
ahci_new                                          output.o
alloc                                             output.o
alloc2                                            output.o
alloc_handler_descriptor                          output.o
alloc_page                                        output.o
alloc_pages                                       output.o
alloc_realmodemem                                 output.o
allocateNewAppID                                  output.o
allocateNewApplicationIdentifiers                 output.o
allocateNewVMID                                   output.o
ap_start_addr                                     output.o
apic_available                                    output.o
apinit_lock                                       output.o
apinit_procs                                      output.o
apinitproc0                                       output.o
app_pkey_methods                                  output.o
asm_vmlaunch_regs_32                              output.o
asm_vmlaunch_regs_64                              output.o
asm_vmresume_regs_32                              output.o
asm_vmresume_regs_64                              output.o
asm_vmrun_regs_32                                 output.o
asm_vmrun_regs_64                                 output.o
asn1_Finish                                       output.o
asn1_GetSequence                                  output.o
asn1_add_error                                    output.o
asn1_const_Finish                                 output.o
asn1_do_adb                                       output.o
asn1_do_lock                                      output.o
asn1_enc_free                                     output.o
asn1_enc_init                                     output.o
asn1_enc_restore                                  output.o
asn1_enc_save                                     output.o
asn1_ex_c2i                                       output.o
asn1_ex_i2c                                       output.o
asn1_get_choice_selector                          output.o
asn1_get_field_ptr                                output.o
asn1_set_choice_selector                          output.o
asn1_template_print_ctx                           output.o
assertion_failed                                  output.o
ata_ahci_mode                                     output.o
ata_bm_handle_command                             output.o
ata_bm_handle_device_specific                     output.o
ata_bm_handle_prd_table                           output.o
ata_bm_handle_status                              output.o
ata_bm_handler                                    output.o
ata_bm_handler_table                              output.o
ata_channel_lock                                  output.o
ata_channel_unlock                                output.o
ata_cmdblk_handler                                output.o
ata_cmdblk_handler_table                          output.o
ata_config_read                                   output.o
ata_config_write                                  output.o
ata_ctlblk_handler                                output.o
ata_ctlblk_handler_table                          output.o
ata_get_cmd_type                                  output.o
ata_handle_queued_status                          output.o
ata_init_io_handler                               output.o
ata_init_vendor                                   output.o
ata_set_bm_handler                                output.o
ata_set_cmdblk_handler                            output.o
ata_set_ctlblk_handler                            output.o
atapi_handle_cmd_packet                           output.o
atapi_handle_config_data                          output.o
atapi_handle_interrupt_reason                     output.o
atapi_handle_packet_data                          output.o
atapi_handle_pio_identify_packet                  output.o
auto_reboot                                       output.o
backtrace                                         output.o
beep_off                                          output.o
beep_on                                           output.o
beep_set_freq                                     output.o
bn_add_part_words                                 output.o
bn_add_words                                      output.o
bn_cmp_part_words                                 output.o
bn_cmp_words                                      output.o
bn_div_words                                      output.o
bn_dup_expand                                     output.o
bn_expand2                                        output.o
bn_mul_add_words                                  output.o
bn_mul_comba4                                     output.o
bn_mul_comba8                                     output.o
bn_mul_high                                       output.o
bn_mul_low_normal                                 output.o
bn_mul_low_recursive                              output.o
bn_mul_normal                                     output.o
bn_mul_part_recursive                             output.o
bn_mul_recursive                                  output.o
bn_mul_words                                      output.o
bn_sqr_comba4                                     output.o
bn_sqr_comba8                                     output.o
bn_sqr_normal                                     output.o
bn_sqr_recursive                                  output.o
bn_sqr_words                                      output.o
bn_sub_part_words                                 output.o
bn_sub_words                                      output.o
bss                                               output.o
c2i_ASN1_BIT_STRING                               output.o
c2i_ASN1_INTEGER                                  output.o
c2i_ASN1_OBJECT                                   output.o
cache_get_attr                                    output.o
cache_get_gmsr_amd                                output.o
cache_get_gmtrr                                   output.o
cache_get_gmtrr_attr                              output.o
cache_get_gmtrr_type                              output.o
cache_get_gmtrrcap                                output.o
cache_get_gpat                                    output.o
cache_set_gmsr_amd                                output.o
cache_set_gmtrr                                   output.o
cache_set_gpat                                    output.o
call_cpuid                                        output.o
call_initfunc                                     output.o
call_io                                           output.o
call_read_msr                                     output.o
call_write_msr                                    output.o
call_xsetbv                                       output.o
callfunc_and_getint                               output.o
callrealmode_bootcd_getstatus                     output.o
callrealmode_disk_readlba                         output.o
callrealmode_disk_readmbr                         output.o
callrealmode_end                                  output.o
callrealmode_endofcodeaddr                        output.o
callrealmode_getfontinfo                          output.o
callrealmode_getshiftflags                        output.o
callrealmode_getsysmemmap                         output.o
callrealmode_printmsg                             output.o
callrealmode_reboot                               output.o
callrealmode_setcursorpos                         output.o
callrealmode_setvideomode                         output.o
callrealmode_start                                output.o
callrealmode_start2                               output.o
callrealmode_startkernel32                        output.o
callrealmode_tcgbios                              output.o
callrealmode_usevcpu                              output.o
cancel_sleep                                      output.o
changePageStatus                                  output.o
check_defer                                       output.o
chelp_abort                                       output.o
chelp_bsearch                                     output.o
chelp_div_64_32_32                                output.o
chelp_div_64_32_64                                output.o
chelp_free                                        output.o
chelp_inited                                      output.o
chelp_isalnum                                     output.o
chelp_isalpha                                     output.o
chelp_isdigit                                     output.o
chelp_islower                                     output.o
chelp_isspace                                     output.o
chelp_isupper                                     output.o
chelp_isxdigit                                    output.o
chelp_malloc                                      output.o
chelp_memchr                                      output.o
chelp_memcmp                                      output.o
chelp_memcpy                                      output.o
chelp_memmove                                     output.o
chelp_memset                                      output.o
chelp_mod_64_32_32                                output.o
chelp_mul_64_64_64                                output.o
chelp_print                                       output.o
chelp_printf                                      output.o
chelp_qsort                                       output.o
chelp_realloc                                     output.o
chelp_snprintf                                    output.o
chelp_sprintf                                     output.o
chelp_strcat                                      output.o
chelp_strchr                                      output.o
chelp_strcmp                                      output.o
chelp_strcpy                                      output.o
chelp_stricmp                                     output.o
chelp_strlen                                      output.o
chelp_strncasecmp                                 output.o
chelp_strncmp                                     output.o
chelp_strncpy                                     output.o
chelp_strrchr                                     output.o
chelp_strtol                                      output.o
chelp_strtoul                                     output.o
chelp_strtoul_ex                                  output.o
chelp_swap                                        output.o
chelp_tolower                                     output.o
chelp_toupper                                     output.o
cleanse_ctr                                       output.o
clear_guest_status                                output.o
clflush_size                                      output.o
closePage                                         output.o
cmpxchg_gphys_l                                   output.o
cmpxchg_gphys_q                                   output.o
cmpxchg_hphys_l                                   output.o
cmpxchg_hphys_q                                   output.o
cms_Data_create                                   output.o
cms_DigestAlgorithm_find_ctx                      output.o
cms_DigestAlgorithm_init_bio                      output.o
cms_DigestAlgorithm_set                           output.o
cms_DigestedData_create                           output.o
cms_DigestedData_do_final                         output.o
cms_DigestedData_init_bio                         output.o
cms_EncryptedContent_init                         output.o
cms_EncryptedContent_init_bio                     output.o
cms_EncryptedData_init_bio                        output.o
cms_EnvelopedData_init_bio                        output.o
cms_SignedData_final                              output.o
cms_SignedData_init_bio                           output.o
cms_SignerIdentifier_cert_cmp                     output.o
cms_SignerIdentifier_get0_signer_id               output.o
cms_content_bio                                   output.o
cms_set1_SignerIdentifier                         output.o
config                                            output.o
copy_bootsector                                   output.o
core_init                                         output.o
core_io_handle_default                            output.o
core_io_modify_handler                            output.o
core_io_register_handler                          output.o
core_io_unregister_handler                        output.o
core_mm_read_guest_phys                           output.o
core_mm_write_guest_phys                          output.o
cpu_emul_cli                                      output.o
cpu_emul_cpuid                                    output.o
cpu_emul_hlt                                      output.o
cpu_emul_rdmsr                                    output.o
cpu_emul_realmode_int                             output.o
cpu_emul_sti                                      output.o
cpu_emul_wrmsr                                    output.o
cpu_emul_xsetbv                                   output.o
cpu_interpreter                                   output.o
cpu_mmu_get_pte                                   output.o
cpu_mmu_spt_clear_all                             output.o
cpu_mmu_spt_extern_mapsearch                      output.o
cpu_mmu_spt_init                                  output.o
cpu_mmu_spt_invalidate                            output.o
cpu_mmu_spt_map_1mb                               output.o
cpu_mmu_spt_pagefault                             output.o
cpu_mmu_spt_tlbflush                              output.o
cpu_mmu_spt_updatecr3                             output.o
cpu_seg_read_b                                    output.o
cpu_seg_read_l                                    output.o
cpu_seg_read_q                                    output.o
cpu_seg_read_w                                    output.o
cpu_seg_write_b                                   output.o
cpu_seg_write_l                                   output.o
cpu_seg_write_q                                   output.o
cpu_seg_write_w                                   output.o
cpu_stack_get                                     output.o
cpu_stack_pop                                     output.o
cpu_stack_push                                    output.o
cpu_stack_set                                     output.o
cpuinit_end                                       output.o
cpuinit_start                                     output.o
create_dom                                        output.o
crypt_sys_rsa_sign                                output.o
crypto_find                                       output.o
crypto_init                                       output.o
crypto_none_init                                  output.o
crypto_register                                   output.o
currentRunningApplication                         output.o
curthread                                         output.o
d2i_ACCESS_DESCRIPTION                            output.o
d2i_ASN1_BIT_STRING                               output.o
d2i_ASN1_BMPSTRING                                output.o
d2i_ASN1_BOOLEAN                                  output.o
d2i_ASN1_ENUMERATED                               output.o
d2i_ASN1_GENERALIZEDTIME                          output.o
d2i_ASN1_GENERALSTRING                            output.o
d2i_ASN1_IA5STRING                                output.o
d2i_ASN1_INTEGER                                  output.o
d2i_ASN1_NULL                                     output.o
d2i_ASN1_OBJECT                                   output.o
d2i_ASN1_OCTET_STRING                             output.o
d2i_ASN1_PRINTABLE                                output.o
d2i_ASN1_PRINTABLESTRING                          output.o
d2i_ASN1_SEQUENCE_ANY                             output.o
d2i_ASN1_SET                                      output.o
d2i_ASN1_SET_ANY                                  output.o
d2i_ASN1_T61STRING                                output.o
d2i_ASN1_TIME                                     output.o
d2i_ASN1_TYPE                                     output.o
d2i_ASN1_UINTEGER                                 output.o
d2i_ASN1_UNIVERSALSTRING                          output.o
d2i_ASN1_UTCTIME                                  output.o
d2i_ASN1_UTF8STRING                               output.o
d2i_ASN1_VISIBLESTRING                            output.o
d2i_ASN1_bytes                                    output.o
d2i_ASN1_type_bytes                               output.o
d2i_AUTHORITY_INFO_ACCESS                         output.o
d2i_AUTHORITY_KEYID                               output.o
d2i_AutoPrivateKey                                output.o
d2i_BASIC_CONSTRAINTS                             output.o
d2i_CERTIFICATEPOLICIES                           output.o
d2i_CMS_ContentInfo                               output.o
d2i_CMS_bio                                       output.o
d2i_CRL_DIST_POINTS                               output.o
d2i_DHparams                                      output.o
d2i_DIRECTORYSTRING                               output.o
d2i_DISPLAYTEXT                                   output.o
d2i_DIST_POINT                                    output.o
d2i_DIST_POINT_NAME                               output.o
d2i_DSAPrivateKey                                 output.o
d2i_DSAPrivateKey_bio                             output.o
d2i_DSAPublicKey                                  output.o
d2i_DSA_PUBKEY                                    output.o
d2i_DSA_PUBKEY_bio                                output.o
d2i_DSA_SIG                                       output.o
d2i_DSAparams                                     output.o
d2i_ECDSA_SIG                                     output.o
d2i_ECPKPARAMETERS                                output.o
d2i_ECPKParameters                                output.o
d2i_ECParameters                                  output.o
d2i_ECPrivateKey                                  output.o
d2i_ECPrivateKey_bio                              output.o
d2i_EC_PRIVATEKEY                                 output.o
d2i_EC_PUBKEY                                     output.o
d2i_EC_PUBKEY_bio                                 output.o
d2i_EDIPARTYNAME                                  output.o
d2i_EXTENDED_KEY_USAGE                            output.o
d2i_GENERAL_NAME                                  output.o
d2i_GENERAL_NAMES                                 output.o
d2i_ISSUING_DIST_POINT                            output.o
d2i_NETSCAPE_CERT_SEQUENCE                        output.o
d2i_NETSCAPE_SPKAC                                output.o
d2i_NETSCAPE_SPKI                                 output.o
d2i_NOTICEREF                                     output.o
d2i_OCSP_BASICRESP                                output.o
d2i_OCSP_CERTID                                   output.o
d2i_OCSP_CERTSTATUS                               output.o
d2i_OCSP_CRLID                                    output.o
d2i_OCSP_ONEREQ                                   output.o
d2i_OCSP_REQINFO                                  output.o
d2i_OCSP_REQUEST                                  output.o
d2i_OCSP_RESPBYTES                                output.o
d2i_OCSP_RESPDATA                                 output.o
d2i_OCSP_RESPID                                   output.o
d2i_OCSP_RESPONSE                                 output.o
d2i_OCSP_REVOKEDINFO                              output.o
d2i_OCSP_SERVICELOC                               output.o
d2i_OCSP_SIGNATURE                                output.o
d2i_OCSP_SINGLERESP                               output.o
d2i_OTHERNAME                                     output.o
d2i_PBE2PARAM                                     output.o
d2i_PBEPARAM                                      output.o
d2i_PBKDF2PARAM                                   output.o
d2i_PKCS12                                        output.o
d2i_PKCS12_BAGS                                   output.o
d2i_PKCS12_MAC_DATA                               output.o
d2i_PKCS12_SAFEBAG                                output.o
d2i_PKCS12_bio                                    output.o
d2i_PKCS7                                         output.o
d2i_PKCS7_DIGEST                                  output.o
d2i_PKCS7_ENCRYPT                                 output.o
d2i_PKCS7_ENC_CONTENT                             output.o
d2i_PKCS7_ENVELOPE                                output.o
d2i_PKCS7_ISSUER_AND_SERIAL                       output.o
d2i_PKCS7_RECIP_INFO                              output.o
d2i_PKCS7_SIGNED                                  output.o
d2i_PKCS7_SIGNER_INFO                             output.o
d2i_PKCS7_SIGN_ENVELOPE                           output.o
d2i_PKCS7_bio                                     output.o
d2i_PKCS8PrivateKey_bio                           output.o
d2i_PKCS8_PRIV_KEY_INFO                           output.o
d2i_PKCS8_PRIV_KEY_INFO_bio                       output.o
d2i_PKCS8_bio                                     output.o
d2i_PKEY_USAGE_PERIOD                             output.o
d2i_POLICYINFO                                    output.o
d2i_POLICYQUALINFO                                output.o
d2i_PROXY_CERT_INFO_EXTENSION                     output.o
d2i_PROXY_POLICY                                  output.o
d2i_PUBKEY                                        output.o
d2i_PUBKEY_bio                                    output.o
d2i_PrivateKey                                    output.o
d2i_PrivateKey_bio                                output.o
d2i_RSAPrivateKey                                 output.o
d2i_RSAPrivateKey_bio                             output.o
d2i_RSAPublicKey                                  output.o
d2i_RSAPublicKey_bio                              output.o
d2i_RSA_PUBKEY                                    output.o
d2i_RSA_PUBKEY_bio                                output.o
d2i_SXNET                                         output.o
d2i_SXNETID                                       output.o
d2i_USERNOTICE                                    output.o
d2i_X509                                          output.o
d2i_X509_ALGOR                                    output.o
d2i_X509_ALGORS                                   output.o
d2i_X509_ATTRIBUTE                                output.o
d2i_X509_AUX                                      output.o
d2i_X509_CERT_AUX                                 output.o
d2i_X509_CERT_PAIR                                output.o
d2i_X509_CINF                                     output.o
d2i_X509_CRL                                      output.o
d2i_X509_CRL_INFO                                 output.o
d2i_X509_CRL_bio                                  output.o
d2i_X509_EXTENSION                                output.o
d2i_X509_EXTENSIONS                               output.o
d2i_X509_NAME                                     output.o
d2i_X509_NAME_ENTRY                               output.o
d2i_X509_PUBKEY                                   output.o
d2i_X509_REQ                                      output.o
d2i_X509_REQ_INFO                                 output.o
d2i_X509_REQ_bio                                  output.o
d2i_X509_REVOKED                                  output.o
d2i_X509_SIG                                      output.o
d2i_X509_VAL                                      output.o
d2i_X509_bio                                      output.o
deactivate_and_delete_urb                         output.o
debug_addstr                                      output.o
debug_gdb                                         output.o
debug_iohook                                      output.o
debug_msgregister                                 output.o
debug_msgunregister                               output.o
decryptcfg                                        output.o
default_pctx                                      output.o
dh_asn1_meth                                      output.o
dh_pkey_meth                                      output.o
disable_apic                                      output.o
do_exint_pass                                     output.o
do_externalint_enable                             output.o
do_io_nothing                                     output.o
do_iopass_default                                 output.o
do_panic_reboot                                   output.o
dom_io                                            output.o
dprintf_port                                      output.o
drhd_list_head                                    output.o
dsa_asn1_meths                                    output.o
dsa_builtin_paramgen                              output.o
dsa_pkey_meth                                     output.o
dsa_pub_internal_it                               output.o
dump_frame                                        output.o
dump_qh                                           output.o
dump_td                                           output.o
dump_td_byvirt                                    output.o
dwReaders                                         output.o
e801_fake_ax                                      output.o
e801_fake_bx                                      output.o
ec_GF2m_have_precompute_mult                      output.o
ec_GF2m_precompute_mult                           output.o
ec_GF2m_simple_add                                output.o
ec_GF2m_simple_cmp                                output.o
ec_GF2m_simple_dbl                                output.o
ec_GF2m_simple_field_div                          output.o
ec_GF2m_simple_field_mul                          output.o
ec_GF2m_simple_field_sqr                          output.o
ec_GF2m_simple_group_check_discriminant           output.o
ec_GF2m_simple_group_clear_finish                 output.o
ec_GF2m_simple_group_copy                         output.o
ec_GF2m_simple_group_finish                       output.o
ec_GF2m_simple_group_get_curve                    output.o
ec_GF2m_simple_group_get_degree                   output.o
ec_GF2m_simple_group_init                         output.o
ec_GF2m_simple_group_set_curve                    output.o
ec_GF2m_simple_invert                             output.o
ec_GF2m_simple_is_at_infinity                     output.o
ec_GF2m_simple_is_on_curve                        output.o
ec_GF2m_simple_make_affine                        output.o
ec_GF2m_simple_mul                                output.o
ec_GF2m_simple_oct2point                          output.o
ec_GF2m_simple_point2oct                          output.o
ec_GF2m_simple_point_clear_finish                 output.o
ec_GF2m_simple_point_copy                         output.o
ec_GF2m_simple_point_finish                       output.o
ec_GF2m_simple_point_get_affine_coordinates       output.o
ec_GF2m_simple_point_init                         output.o
ec_GF2m_simple_point_set_affine_coordinates       output.o
ec_GF2m_simple_point_set_to_infinity              output.o
ec_GF2m_simple_points_make_affine                 output.o
ec_GF2m_simple_set_compressed_coordinates         output.o
ec_GFp_mont_field_decode                          output.o
ec_GFp_mont_field_encode                          output.o
ec_GFp_mont_field_mul                             output.o
ec_GFp_mont_field_set_to_one                      output.o
ec_GFp_mont_field_sqr                             output.o
ec_GFp_mont_group_clear_finish                    output.o
ec_GFp_mont_group_copy                            output.o
ec_GFp_mont_group_finish                          output.o
ec_GFp_mont_group_init                            output.o
ec_GFp_mont_group_set_curve                       output.o
ec_GFp_nist_field_mul                             output.o
ec_GFp_nist_field_sqr                             output.o
ec_GFp_nist_group_copy                            output.o
ec_GFp_nist_group_set_curve                       output.o
ec_GFp_simple_add                                 output.o
ec_GFp_simple_cmp                                 output.o
ec_GFp_simple_dbl                                 output.o
ec_GFp_simple_field_mul                           output.o
ec_GFp_simple_field_sqr                           output.o
ec_GFp_simple_get_Jprojective_coordinates_GFp     output.o
ec_GFp_simple_group_check_discriminant            output.o
ec_GFp_simple_group_clear_finish                  output.o
ec_GFp_simple_group_copy                          output.o
ec_GFp_simple_group_finish                        output.o
ec_GFp_simple_group_get_curve                     output.o
ec_GFp_simple_group_get_degree                    output.o
ec_GFp_simple_group_init                          output.o
ec_GFp_simple_group_set_curve                     output.o
ec_GFp_simple_invert                              output.o
ec_GFp_simple_is_at_infinity                      output.o
ec_GFp_simple_is_on_curve                         output.o
ec_GFp_simple_make_affine                         output.o
ec_GFp_simple_oct2point                           output.o
ec_GFp_simple_point2oct                           output.o
ec_GFp_simple_point_clear_finish                  output.o
ec_GFp_simple_point_copy                          output.o
ec_GFp_simple_point_finish                        output.o
ec_GFp_simple_point_get_affine_coordinates        output.o
ec_GFp_simple_point_init                          output.o
ec_GFp_simple_point_set_affine_coordinates        output.o
ec_GFp_simple_point_set_to_infinity               output.o
ec_GFp_simple_points_make_affine                  output.o
ec_GFp_simple_set_Jprojective_coordinates_GFp     output.o
ec_GFp_simple_set_compressed_coordinates          output.o
ec_pkey_meth                                      output.o
ec_wNAF_have_precompute_mult                      output.o
ec_wNAF_mul                                       output.o
ec_wNAF_precompute_mult                           output.o
ecdh_check                                        output.o
ecdsa_check                                       output.o
eckey_asn1_meth                                   output.o
ehci_check_advance                                output.o
ehci_check_urb_advance                            output.o
ehci_cleanup_urbs                                 output.o
ehci_conceal_portroute                            output.o
ehci_deactivate_urb                               output.o
ehci_dump_alist                                   output.o
ehci_dump_all                                     output.o
ehci_dump_async                                   output.o
ehci_dump_qtd                                     output.o
ehci_dump_qtdm                                    output.o
ehci_dump_urb                                     output.o
ehci_dump_urblist                                 output.o
ehci_end_monitor_async                            output.o
ehci_host                                         output.o
ehci_init                                         output.o
ehci_monitor_async_list                           output.o
ehci_shadow_async_list                            output.o
ehci_shadow_buffer                                output.o
ehci_submit_bulk                                  output.o
ehci_submit_control                               output.o
ehci_submit_interrupt                             output.o
end                                               output.o
entry                                             output.o
entry_pd                                          output.o
entry_pd0                                         output.o
entry_pdp                                         output.o
evp_pkey_set_cb_translate                         output.o
exitprocess                                       output.o
free                                              output.o
free_config_descriptors                           output.o
free_device                                       output.o
free_page                                         output.o
free_page_phys                                    output.o
g_rgSCardT0Pci                                    output.o
g_rgSCardT1Pci                                    output.o
getCurrentProtectedApplication                    output.o
getKernelESPGVA                                   output.o
getMemoryOwnershipTableEntry                      output.o
getMemoryOwnershipTableIndex                      output.o
getSystemCallHandlerGPA                           output.o
getTSSGVA                                         output.o
get_acpi_time                                     output.o
get_acpi_time_raw                                 output.o
get_cpu_id                                        output.o
get_cpu_time                                      output.o
get_ept_base_HPA                                  output.o
get_guest_cr3_value                               output.o
get_guest_eptp_value                              output.o
get_gurb_by_address                               output.o
get_idman_session                                 output.o
get_page_table_base_GPA                           output.o
get_seg_access_rights                             output.o
get_seg_base                                      output.o
get_time                                          output.o
getfakesysmemmap                                  output.o
getsysmemmap                                      output.o
gmm_pass_gp2hp                                    output.o
gpaToHPA                                          output.o
gs_current                                        output.o
gs_currentcpu                                     output.o
gs_init_count                                     output.o
gs_inthandling                                    output.o
gs_nmi                                            output.o
gs_syscallstack                                   output.o
guest_int0x15_e801_fake_ax                        output.o
guest_int0x15_e801_fake_bx                        output.o
guest_int0x15_e820_data_minus0x18                 output.o
guest_int0x15_e820_end                            output.o
guest_int0x15_hook                                output.o
guest_int0x15_hook_end                            output.o
guest_int0x15_orig                                output.o
gvaToGPA                                          output.o
hContext                                          output.o
hObjectCnt                                        output.o
hSessionCnt                                       output.o
handle_connect_status                             output.o
handle_init_to_bsp                                output.o
handle_port_reset                                 output.o
handler_descriptor                                output.o
handler_descriptor_lock                           output.o
head                                              output.o
hex_to_string                                     output.o
hmac_asn1_meth                                    output.o
hmac_pkey_meth                                    output.o
hub_portdevice_register                           output.o
hypercall_handler                                 output.o
i2a_ACCESS_DESCRIPTION                            output.o
i2a_ASN1_INTEGER                                  output.o
i2a_ASN1_OBJECT                                   output.o
i2a_ASN1_STRING                                   output.o
i2c_ASN1_BIT_STRING                               output.o
i2c_ASN1_INTEGER                                  output.o
i2d_ACCESS_DESCRIPTION                            output.o
i2d_ASN1_BIT_STRING                               output.o
i2d_ASN1_BMPSTRING                                output.o
i2d_ASN1_BOOLEAN                                  output.o
i2d_ASN1_ENUMERATED                               output.o
i2d_ASN1_GENERALIZEDTIME                          output.o
i2d_ASN1_GENERALSTRING                            output.o
i2d_ASN1_IA5STRING                                output.o
i2d_ASN1_INTEGER                                  output.o
i2d_ASN1_NULL                                     output.o
i2d_ASN1_OBJECT                                   output.o
i2d_ASN1_OCTET_STRING                             output.o
i2d_ASN1_PRINTABLE                                output.o
i2d_ASN1_PRINTABLESTRING                          output.o
i2d_ASN1_SEQUENCE_ANY                             output.o
i2d_ASN1_SET                                      output.o
i2d_ASN1_SET_ANY                                  output.o
i2d_ASN1_T61STRING                                output.o
i2d_ASN1_TIME                                     output.o
i2d_ASN1_TYPE                                     output.o
i2d_ASN1_UNIVERSALSTRING                          output.o
i2d_ASN1_UTCTIME                                  output.o
i2d_ASN1_UTF8STRING                               output.o
i2d_ASN1_VISIBLESTRING                            output.o
i2d_ASN1_bio_stream                               output.o
i2d_ASN1_bytes                                    output.o
i2d_AUTHORITY_INFO_ACCESS                         output.o
i2d_AUTHORITY_KEYID                               output.o
i2d_BASIC_CONSTRAINTS                             output.o
i2d_CERTIFICATEPOLICIES                           output.o
i2d_CMS_ContentInfo                               output.o
i2d_CMS_bio                                       output.o
i2d_CMS_bio_stream                                output.o
i2d_CRL_DIST_POINTS                               output.o
i2d_DHparams                                      output.o
i2d_DIRECTORYSTRING                               output.o
i2d_DISPLAYTEXT                                   output.o
i2d_DIST_POINT                                    output.o
i2d_DIST_POINT_NAME                               output.o
i2d_DSAPrivateKey                                 output.o
i2d_DSAPrivateKey_bio                             output.o
i2d_DSAPublicKey                                  output.o
i2d_DSA_PUBKEY                                    output.o
i2d_DSA_PUBKEY_bio                                output.o
i2d_DSA_SIG                                       output.o
i2d_DSAparams                                     output.o
i2d_ECDSA_SIG                                     output.o
i2d_ECPKPARAMETERS                                output.o
i2d_ECPKParameters                                output.o
i2d_ECParameters                                  output.o
i2d_ECPrivateKey                                  output.o
i2d_ECPrivateKey_bio                              output.o
i2d_EC_PRIVATEKEY                                 output.o
i2d_EC_PUBKEY                                     output.o
i2d_EC_PUBKEY_bio                                 output.o
i2d_EDIPARTYNAME                                  output.o
i2d_EXTENDED_KEY_USAGE                            output.o
i2d_GENERAL_NAME                                  output.o
i2d_GENERAL_NAMES                                 output.o
i2d_ISSUING_DIST_POINT                            output.o
i2d_NETSCAPE_CERT_SEQUENCE                        output.o
i2d_NETSCAPE_SPKAC                                output.o
i2d_NETSCAPE_SPKI                                 output.o
i2d_NOTICEREF                                     output.o
i2d_OCSP_BASICRESP                                output.o
i2d_OCSP_CERTID                                   output.o
i2d_OCSP_CERTSTATUS                               output.o
i2d_OCSP_CRLID                                    output.o
i2d_OCSP_ONEREQ                                   output.o
i2d_OCSP_REQINFO                                  output.o
i2d_OCSP_REQUEST                                  output.o
i2d_OCSP_RESPBYTES                                output.o
i2d_OCSP_RESPDATA                                 output.o
i2d_OCSP_RESPID                                   output.o
i2d_OCSP_RESPONSE                                 output.o
i2d_OCSP_REVOKEDINFO                              output.o
i2d_OCSP_SERVICELOC                               output.o
i2d_OCSP_SIGNATURE                                output.o
i2d_OCSP_SINGLERESP                               output.o
i2d_OTHERNAME                                     output.o
i2d_PBE2PARAM                                     output.o
i2d_PBEPARAM                                      output.o
i2d_PBKDF2PARAM                                   output.o
i2d_PKCS12                                        output.o
i2d_PKCS12_BAGS                                   output.o
i2d_PKCS12_MAC_DATA                               output.o
i2d_PKCS12_SAFEBAG                                output.o
i2d_PKCS12_bio                                    output.o
i2d_PKCS7                                         output.o
i2d_PKCS7_DIGEST                                  output.o
i2d_PKCS7_ENCRYPT                                 output.o
i2d_PKCS7_ENC_CONTENT                             output.o
i2d_PKCS7_ENVELOPE                                output.o
i2d_PKCS7_ISSUER_AND_SERIAL                       output.o
i2d_PKCS7_NDEF                                    output.o
i2d_PKCS7_RECIP_INFO                              output.o
i2d_PKCS7_SIGNED                                  output.o
i2d_PKCS7_SIGNER_INFO                             output.o
i2d_PKCS7_SIGN_ENVELOPE                           output.o
i2d_PKCS7_bio                                     output.o
i2d_PKCS8PrivateKeyInfo_bio                       output.o
i2d_PKCS8PrivateKey_bio                           output.o
i2d_PKCS8PrivateKey_nid_bio                       output.o
i2d_PKCS8_PRIV_KEY_INFO                           output.o
i2d_PKCS8_PRIV_KEY_INFO_bio                       output.o
i2d_PKCS8_bio                                     output.o
i2d_PKEY_USAGE_PERIOD                             output.o
i2d_POLICYINFO                                    output.o
i2d_POLICYQUALINFO                                output.o
i2d_PROXY_CERT_INFO_EXTENSION                     output.o
i2d_PROXY_POLICY                                  output.o
i2d_PUBKEY                                        output.o
i2d_PUBKEY_bio                                    output.o
i2d_PrivateKey                                    output.o
i2d_PrivateKey_bio                                output.o
i2d_RSAPrivateKey                                 output.o
i2d_RSAPrivateKey_bio                             output.o
i2d_RSAPublicKey                                  output.o
i2d_RSAPublicKey_bio                              output.o
i2d_RSA_PUBKEY                                    output.o
i2d_RSA_PUBKEY_bio                                output.o
i2d_SXNET                                         output.o
i2d_SXNETID                                       output.o
i2d_USERNOTICE                                    output.o
i2d_X509                                          output.o
i2d_X509_ALGOR                                    output.o
i2d_X509_ALGORS                                   output.o
i2d_X509_ATTRIBUTE                                output.o
i2d_X509_AUX                                      output.o
i2d_X509_CERT_AUX                                 output.o
i2d_X509_CERT_PAIR                                output.o
i2d_X509_CINF                                     output.o
i2d_X509_CRL                                      output.o
i2d_X509_CRL_INFO                                 output.o
i2d_X509_CRL_bio                                  output.o
i2d_X509_EXTENSION                                output.o
i2d_X509_EXTENSIONS                               output.o
i2d_X509_NAME                                     output.o
i2d_X509_NAME_ENTRY                               output.o
i2d_X509_PUBKEY                                   output.o
i2d_X509_REQ                                      output.o
i2d_X509_REQ_INFO                                 output.o
i2d_X509_REQ_bio                                  output.o
i2d_X509_REVOKED                                  output.o
i2d_X509_SIG                                      output.o
i2d_X509_VAL                                      output.o
i2d_X509_bio                                      output.o
i2o_ECPublicKey                                   output.o
i2s_ASN1_ENUMERATED                               output.o
i2s_ASN1_ENUMERATED_TABLE                         output.o
i2s_ASN1_INTEGER                                  output.o
i2s_ASN1_OCTET_STRING                             output.o
i2t_ASN1_OBJECT                                   output.o
i2v_ASN1_BIT_STRING                               output.o
i2v_GENERAL_NAME                                  output.o
i2v_GENERAL_NAMES                                 output.o
idea_cbc_encrypt                                  output.o
idea_cfb64_encrypt                                output.o
idea_ecb_encrypt                                  output.o
idea_encrypt                                      output.o
idea_ofb64_encrypt                                output.o
idea_options                                      output.o
idea_set_decrypt_key                              output.o
idea_set_encrypt_key                              output.o
idman_reinit2                                     output.o
idman_reinit_session                              output.o
idman_user_init                                   output.o
ieee1394_init                                     output.o
init_hframelist                                   output.o
initfunc_init                                     output.o
initializeNewProtectedApplication                 output.o
int1a_TCG_CompactHashLogExtendEvent               output.o
int1a_TCG_HashAll                                 output.o
int1a_TCG_HashLogEvent                            output.o
int1a_TCG_HashLogExtendEvent                      output.o
int1a_TCG_PassThroughToTPM                        output.o
int1a_TCG_StatusCheck                             output.o
int1a_TCG_TSS                                     output.o
int_callfunc                                      output.o
int_exceptionHandler                              output.o
int_fatal                                         output.o
int_handler                                       output.o
int_init_ap                                       output.o
int_rsa_verify                                    output.o
iodom_init                                        output.o
iommu_detected                                    output.o
iommu_setup                                       output.o
ipchecksum                                        output.o
keyboard_flush                                    output.o
keyboard_reset                                    output.o
level_add_node                                    output.o
level_find_node                                   output.o
lh_delete                                         output.o
lh_doall                                          output.o
lh_doall_arg                                      output.o
lh_free                                           output.o
lh_insert                                         output.o
lh_new                                            output.o
lh_num_items                                      output.o
lh_retrieve                                       output.o
lh_strhash                                        output.o
lh_version                                        output.o
libInitFlag                                       output.o
load_bootsector                                   output.o
load_minios                                       output.o
load_new_vcpu                                     output.o
localapic_change_base_msr                         output.o
localapic_mmio_register                           output.o
localapic_wait_for_sipi                           output.o
mapHPAintoHVA                                     output.o
mapmem                                            output.o
mapmem_gphys                                      output.o
mapmem_hphys                                      output.o
matched_drhd_u                                    output.o
md4_block_data_order                              output.o
md5_block_data_order                              output.o
memcmp                                            output.o
memcpy                                            output.o
memorysize                                        output.o
mempool_allocmem                                  output.o
mempool_free                                      output.o
mempool_freemem                                   output.o
mempool_new                                       output.o
memset                                            output.o
message_exitcode                                  output.o
message_exitreason                                output.o
mm_flush_wb_cache                                 output.o
mm_force_unlock                                   output.o
mm_process_alloc                                  output.o
mm_process_free                                   output.o
mm_process_map_alloc                              output.o
mm_process_map_shared                             output.o
mm_process_map_shared_physpage                    output.o
mm_process_map_stack                              output.o
mm_process_switch                                 output.o
mm_process_unmap                                  output.o
mm_process_unmap_stack                            output.o
mm_process_unmapall                               output.o
mmio_access_memory                                output.o
mmio_access_page                                  output.o
mmio_lock                                         output.o
mmio_register                                     output.o
mmio_unlock                                       output.o
mmio_unregister                                   output.o
monitor_vmcs_read                                 output.o
monitor_vmcs_write                                output.o
move_vmm_area32                                   output.o
move_vmm_area64                                   output.o
mpudiv_128_32                                     output.o
mpumul_64_64                                      output.o
msg_findname                                      output.o
msg_register                                      output.o
msg_unregister                                    output.o
msg_unregister2                                   output.o
msg_unregisterall                                 output.o
msg_usb_bulk_read                                 output.o
msg_usb_bulk_write                                output.o
msg_usb_claim_interface                           output.o
msg_usb_close                                     output.o
msg_usb_control_msg                               output.o
msg_usb_find_busses                               output.o
msg_usb_find_devices                              output.o
msg_usb_get_busses                                output.o
msg_usb_get_string_simple                         output.o
msg_usb_init                                      output.o
msg_usb_open                                      output.o
msg_usb_release_interface                         output.o
msg_usb_reset                                     output.o
msg_vpn_FreeTimer                                 output.o
msg_vpn_GetCurrentCpuId                           output.o
msg_vpn_GetPhysicalNicInfo                        output.o
msg_vpn_GetTickCount                              output.o
msg_vpn_GetVirtualNicInfo                         output.o
msg_vpn_NewTimer                                  output.o
msg_vpn_SendPhysicalNic                           output.o
msg_vpn_SendVirtualNic                            output.o
msg_vpn_SetPhysicalNicRecvCallback                output.o
msg_vpn_SetTimer                                  output.o
msg_vpn_SetVirtualNicRecvCallback                 output.o
msg_vpn_ic_rsa_sign                               output.o
msgclose                                          output.o
msgopen                                           output.o
msgpremapbuf                                      output.o
msgregister                                       output.o
msgsendbuf                                        output.o
msgsenddesc                                       output.o
msgsendint                                        output.o
msgsetfunc                                        output.o
msgunregister                                     output.o
mszReaders                                        output.o
name_cmp                                          output.o
newprocess                                        output.o
num_dom                                           output.o
num_of_available_pages                            output.o
num_of_processors                                 output.o
numberOfProtectedApplications                     output.o
numberOfVMs                                       output.o
o2i_ECPublicKey                                   output.o
obj_cleanup_defer                                 output.o
openPage                                          output.o
packet_handle_command                             output.o
packet_handle_config                              output.o
packet_handle_invalid                             output.o
packet_handle_nondata                             output.o
packet_handle_rw                                  output.o
packet_handle_through                             output.o
panic                                             output.o
panic_oom                                         output.o
panic_test                                        output.o
panic_wakeup_all                                  output.o
parse_dmar_bios_report                            output.o
pci_append_device                                 output.o
pci_conceal_config_data_handler                   output.o
pci_conceal_new_device                            output.o
pci_config_addr_handler                           output.o
pci_config_data_handler                           output.o
pci_device_list_head                              output.o
pci_driver_list_head                              output.o
pci_handle_default_config_write                   output.o
pci_possible_new_device                           output.o
pci_print_device                                  output.o
pci_read_config_data16                            output.o
pci_read_config_data32                            output.o
pci_read_config_data8                             output.o
pci_read_config_data_port                         output.o
pci_register_driver                               output.o
pci_restore_config_addr                           output.o
pci_save_config_addr                              output.o
pci_write_config_data16                           output.o
pci_write_config_data32                           output.o
pci_write_config_data8                            output.o
pci_write_config_data_port                        output.o
pcpu_default                                      output.o
pcpu_init                                         output.o
pcpu_list_add                                     output.o
pcpu_list_foreach                                 output.o
pem_check_suffix                                  output.o
phys_in_vmm                                       output.o
phys_to_virt                                      output.o
pmap_autoalloc                                    output.o
pmap_clear                                        output.o
pmap_close                                        output.o
pmap_dump                                         output.o
pmap_getreadlevel                                 output.o
pmap_open_guest                                   output.o
pmap_open_vmm                                     output.o
pmap_pointer                                      output.o
pmap_read                                         output.o
pmap_seek                                         output.o
pmap_setlevel                                     output.o
pmap_write                                        output.o
policy_cache_find_data                            output.o
policy_cache_free                                 output.o
policy_cache_set                                  output.o
policy_cache_set_mapping                          output.o
policy_data_free                                  output.o
policy_data_new                                   output.o
policy_node_cmp_new                               output.o
policy_node_free                                  output.o
policy_node_match                                 output.o
prepare_for_sleep                                 output.o
printexitcode                                     output.o
printexitreason                                   output.o
printf                                            output.o
pro100_alloc_page                                 output.o
pro100_alloc_recv_buffer                          output.o
pro100_beep                                       output.o
pro100_config_read                                output.o
pro100_config_write                               output.o
pro100_exec_cu_op                                 output.o
pro100_flush                                      output.o
pro100_free_page                                  output.o
pro100_generate_int                               output.o
pro100_get_ctx                                    output.o
pro100_get_cu_command_string                      output.o
pro100_get_int_bit_string                         output.o
pro100_get_op_size                                output.o
pro100_get_ru_command_string                      output.o
pro100_get_stat_ack_string                        output.o
pro100_hook_read                                  output.o
pro100_hook_write                                 output.o
pro100_init                                       output.o
pro100_init_cu_base_addr                          output.o
pro100_init_recv_buffer                           output.o
pro100_init_ru_base_addr                          output.o
pro100_init_vpn_client                            output.o
pro100_io_handler                                 output.o
pro100_mem_read                                   output.o
pro100_mem_write                                  output.o
pro100_mm_handler                                 output.o
pro100_new                                        output.o
pro100_poll_ru                                    output.o
pro100_proc_guest_op                              output.o
pro100_read                                       output.o
pro100_read_send_packet                           output.o
pro100_send_packet_to_line                        output.o
pro100_sleep                                      output.o
pro100_wait_cu_ru_accepable                       output.o
pro100_write                                      output.o
pro100_write_recv_packet                          output.o
process_kill                                      output.o
process_syscall                                   output.o
processuser_no_sysenter                           output.o
processuser_syscall                               output.o
processuser_sysenter                              output.o
prohibit_iccard_init                              output.o
protectCurrentApplication                         output.o
ps2_locked                                        output.o
putchar                                           output.o
putchar_set_func                                  output.o
rand_ssleay_meth                                  output.o
read_gphys_b                                      output.o
read_gphys_l                                      output.o
read_gphys_q                                      output.o
read_gphys_w                                      output.o
read_hphys_b                                      output.o
read_hphys_l                                      output.o
read_hphys_q                                      output.o
read_hphys_w                                      output.o
read_linearaddr_b                                 output.o
read_linearaddr_l                                 output.o
read_linearaddr_q                                 output.o
read_linearaddr_tss                               output.o
read_linearaddr_w                                 output.o
readerState                                       output.o
readerTracker                                     output.o
realloc                                           output.o
reboot_test                                       output.o
register_status_callback                          output.o
restore_guest_status                              output.o
resume_vm                                         output.o
ret_to_user32                                     output.o
ret_to_user64                                     output.o
ripemd160_block_data_order                        output.o
rsa_asn1_meths                                    output.o
rsa_pkey_meth                                     output.o
rt                                                output.o
s2i_ASN1_INTEGER                                  output.o
s2i_ASN1_OCTET_STRING                             output.o
sReaderContext                                    output.o
saveSystemCallHandlerAddress                      output.o
save_guest_status                                 output.o
savemsr_index                                     output.o
savemsr_load                                      output.o
savemsr_save                                      output.o
scan_gframelist                                   output.o
schedule                                          output.o
security_storage_check_lba                        output.o
segment_init_ap                                   output.o
segment_wakeup                                    output.o
serial_getDebugChar                               output.o
serial_init_iohook                                output.o
serial_putDebugChar                               output.o
serial_putchar                                    output.o
sessionTable                                      output.o
set_int_handler                                   output.o
set_iofunc                                        output.o
setkbdled                                         output.o
shadow_and_activate_urb                           output.o
sig_app                                           output.o
sigx_app                                          output.o
sk_delete                                         output.o
sk_delete_ptr                                     output.o
sk_dup                                            output.o
sk_find                                           output.o
sk_find_ex                                        output.o
sk_free                                           output.o
sk_insert                                         output.o
sk_is_sorted                                      output.o
sk_new                                            output.o
sk_new_null                                       output.o
sk_num                                            output.o
sk_pop                                            output.o
sk_pop_free                                       output.o
sk_push                                           output.o
sk_set                                            output.o
sk_set_cmp_func                                   output.o
sk_shift                                          output.o
sk_sort                                           output.o
sk_unshift                                        output.o
sk_value                                          output.o
sk_zero                                           output.o
sleep_set_timer_counter                           output.o
slotFlag                                          output.o
slotTable                                         output.o
snprintf                                          output.o
start_all_processors                              output.o
storage_free                                      output.o
storage_get_num_hc                                output.o
storage_handle_sectors                            output.o
storage_hc_close                                  output.o
storage_hc_dev_atacommand                         output.o
storage_hc_dev_close                              output.o
storage_hc_dev_open                               output.o
storage_hc_hook_register                          output.o
storage_hc_hook_unregister                        output.o
storage_hc_open                                   output.o
storage_hc_register                               output.o
storage_hc_scandev                                output.o
storage_hc_unregister                             output.o
storage_init                                      output.o
storage_io_aget_size                              output.o
storage_io_aread                                  output.o
storage_io_awrite                                 output.o
storage_io_deinit                                 output.o
storage_io_get_num_devices                        output.o
storage_io_init                                   output.o
storage_new                                       output.o
storage_premap_buf                                output.o
storage_premap_handle_sectors                     output.o
strcmp                                            output.o
string_to_hex                                     output.o
strlen                                            output.o
svm_available                                     output.o
svm_enable_resume                                 output.o
svm_extern_iopass                                 output.o
svm_init                                          output.o
svm_init_signal                                   output.o
svm_ioio                                          output.o
svm_msr_update_lma                                output.o
svm_np_clear_all                                  output.o
svm_np_extern_mapsearch                           output.o
svm_np_init                                       output.o
svm_np_map_1mb                                    output.o
svm_np_pagefault                                  output.o
svm_np_tlbflush                                   output.o
svm_np_updatecr3                                  output.o
svm_paging_apply_fixed_cr0                        output.o
svm_paging_apply_fixed_cr4                        output.o
svm_paging_clear_all                              output.o
svm_paging_extern_flush_tlb_entry                 output.o
svm_paging_flush_guest_tlb                        output.o
svm_paging_get_gpat                               output.o
svm_paging_init                                   output.o
svm_paging_invalidate                             output.o
svm_paging_map_1mb                                output.o
svm_paging_npf                                    output.o
svm_paging_pagefault                              output.o
svm_paging_pg_change                              output.o
svm_paging_set_gpat                               output.o
svm_paging_spt_setcr3                             output.o
svm_paging_start                                  output.o
svm_paging_tlbflush                               output.o
svm_paging_updatecr3                              output.o
svm_panic_dump                                    output.o
svm_read_control_reg                              output.o
svm_read_flags                                    output.o
svm_read_gdtr                                     output.o
svm_read_general_reg                              output.o
svm_read_idtr                                     output.o
svm_read_ip                                       output.o
svm_read_msr                                      output.o
svm_read_sreg_acr                                 output.o
svm_read_sreg_base                                output.o
svm_read_sreg_limit                               output.o
svm_read_sreg_sel                                 output.o
svm_reset                                         output.o
svm_resume                                        output.o
svm_start_vm                                      output.o
svm_vmexit                                        output.o
svm_vminit                                        output.o
svm_write_control_reg                             output.o
svm_write_flags                                   output.o
svm_write_gdtr                                    output.o
svm_write_general_reg                             output.o
svm_write_idtr                                    output.o
svm_write_ip                                      output.o
svm_write_msr                                     output.o
svm_write_realmode_seg                            output.o
svm_writing_sreg                                  output.o
sx_handler                                        output.o
sym_to_phys                                       output.o
sync_all_processors                               output.o
sys_exitprocess                                   output.o
sys_msgclose                                      output.o
sys_msgopen                                       output.o
sys_msgregister                                   output.o
sys_msgret                                        output.o
sys_msgsendbuf                                    output.o
sys_msgsenddesc                                   output.o
sys_msgsendint                                    output.o
sys_msgsetfunc                                    output.o
sys_msgunregister                                 output.o
sys_newprocess                                    output.o
syscallHandlerAddress                             output.o
syscall_entry_lret                                output.o
syscall_entry_sysexit                             output.o
syscall_entry_sysret64                            output.o
tcg_measure                                       output.o
test_gpaToHPA                                     output.o
test_logicalCPUStatus                             output.o
test_start                                        output.o
test_traverseGuestPages                           output.o
thread_exit                                       output.o
thread_gettid                                     output.o
thread_new                                        output.o
thread_set_process_switch                         output.o
thread_start0                                     output.o
thread_start1                                     output.o
thread_switch                                     output.o
thread_wakeup                                     output.o
thread_will_stop                                  output.o
timer_free                                        output.o
timer_new                                         output.o
timer_set                                         output.o
traverseGuestPages                                output.o
traverseIA32ePDPT                                 output.o
traverseIA32ePDT                                  output.o
traverseIA32ePT                                   output.o
traverseIA32ePages                                output.o
tree_find_sk                                      output.o
tty_init_iohook                                   output.o
tty_putchar                                       output.o
tty_udp_register                                  output.o
ttylog_stop                                       output.o
uhci_activate_urb                                 output.o
uhci_check_advance                                output.o
uhci_check_urb_advance                            output.o
uhci_create_urb                                   output.o
uhci_current_frame_number                         output.o
uhci_deactivate_urb                               output.o
uhci_destroy_unlinked_urbs                        output.o
uhci_destroy_urb                                  output.o
uhci_dump_all                                     output.o
uhci_error_status_string                          output.o
uhci_framelist_monitor                            output.o
uhci_init                                         output.o
uhci_monitor_boost_hc                             output.o
uhci_reactivate_urb                               output.o
uhci_shadow_buffer                                output.o
uhci_submit_bulk                                  output.o
uhci_submit_control                               output.o
uhci_submit_interrupt                             output.o
unmapHPAintoHVA                                   output.o
unmapmem                                          output.o
update_mtrr_and_pat                               output.o
usb_bulk_read                                     output.o
usb_bulk_write                                    output.o
usb_busses_head                                   output.o
usb_claim_interface                               output.o
usb_clear_halt                                    output.o
usb_close                                         output.o
usb_control_msg                                   output.o
usb_find_busses                                   output.o
usb_find_devices                                  output.o
usb_get_bus                                       output.o
usb_get_busses                                    output.o
usb_get_descriptor                                output.o
usb_get_descriptor_by_endpoint                    output.o
usb_get_descriptor_early                          output.o
usb_get_string                                    output.o
usb_get_string_simple                             output.o
usb_hc_list_head                                  output.o
usb_hook_process                                  output.o
usb_hook_register                                 output.o
usb_hook_unregister                               output.o
usb_init                                          output.o
usb_init_device_monitor                           output.o
usb_interrupt_read                                output.o
usb_interrupt_write                               output.o
usb_log_level                                     output.o
usb_new_dev_handle                                output.o
usb_open                                          output.o
usb_register_host                                 output.o
usb_release_interface                             output.o
usb_reset                                         output.o
usb_resetep                                       output.o
usb_sc_lock                                       output.o
usb_sc_unlock                                     output.o
usb_set_altinterface                              output.o
usb_set_configuration                             output.o
usb_set_debug                                     output.o
usb_unregister_devices                            output.o
usbccid_init_handle                               output.o
usbhid_init_handle                                output.o
usbhub_init_handle                                output.o
usbmsc_init_handle                                output.o
use_pae                                           output.o
usleep                                            output.o
v2i_ASN1_BIT_STRING                               output.o
v2i_GENERAL_NAME                                  output.o
v2i_GENERAL_NAMES                                 output.o
v2i_GENERAL_NAME_ex                               output.o
v3_akey_id                                        output.o
v3_alt                                            output.o
v3_bcons                                          output.o
v3_cpols                                          output.o
v3_crl_hold                                       output.o
v3_crl_invdate                                    output.o
v3_crl_num                                        output.o
v3_crl_reason                                     output.o
v3_crld                                           output.o
v3_delta_crl                                      output.o
v3_ext_ku                                         output.o
v3_freshest_crl                                   output.o
v3_idp                                            output.o
v3_info                                           output.o
v3_inhibit_anyp                                   output.o
v3_key_usage                                      output.o
v3_name_constraints                               output.o
v3_ns_ia5_list                                    output.o
v3_nscert                                         output.o
v3_ocsp_accresp                                   output.o
v3_ocsp_acutoff                                   output.o
v3_ocsp_crlid                                     output.o
v3_ocsp_nocheck                                   output.o
v3_ocsp_nonce                                     output.o
v3_ocsp_serviceloc                                output.o
v3_pci                                            output.o
v3_pkey_usage_period                              output.o
v3_policy_constraints                             output.o
v3_policy_mappings                                output.o
v3_sinfo                                          output.o
v3_skey_id                                        output.o
v3_sxnet                                          output.o
vcpu_list_foreach                                 output.o
vga_fill_rect                                     output.o
vga_get_screen_size                               output.o
vga_is_ready                                      output.o
vga_register                                      output.o
vga_transfer_image                                output.o
vmctl_svm_init                                    output.o
vmctl_vt_init                                     output.o
vmm_base_cr3                                      output.o
vmm_main                                          output.o
vmm_pd                                            output.o
vmm_pd1                                           output.o
vmm_pd2                                           output.o
vmm_pdp                                           output.o
vmm_pml4                                          output.o
vmm_start_inf                                     output.o
vmm_term_inf                                      output.o
vmmcall                                           output.o
vmmcall_boot_continue                             output.o
vmmcall_boot_enable                               output.o
vmmcall_init                                      output.o
vmmcall_register                                  output.o
vmmsize                                           output.o
vpn_FreeTimer                                     output.o
vpn_GetCurrentCpuId                               output.o
vpn_GetPhysicalNicInfo                            output.o
vpn_GetTickCount                                  output.o
vpn_GetVirtualNicInfo                             output.o
vpn_NewTimer                                      output.o
vpn_SendPhysicalNic                               output.o
vpn_SendVirtualNic                                output.o
vpn_SetPhysicalNicRecvCallback                    output.o
vpn_SetTimer                                      output.o
vpn_SetVirtualNicRecvCallback                     output.o
vpn_ic_rsa_sign                                   output.o
vpn_new_nic                                       output.o
vpn_premap_PhysicalNicRecv                        output.o
vpn_premap_VirtualNicRecv                         output.o
vpn_premap_recvbuf                                output.o
vpn_start                                         output.o
vpn_user_init                                     output.o
vprintf                                           output.o
vramwrite_clearscreen                             output.o
vramwrite_exit_global                             output.o
vramwrite_get_cursor_pos                          output.o
vramwrite_init_global                             output.o
vramwrite_mark1                                   output.o
vramwrite_mark2                                   output.o
vramwrite_mark3                                   output.o
vramwrite_putchar                                 output.o
vramwrite_restore_cursor                          output.o
vramwrite_save_and_move_cursor                    output.o
vsnprintf                                         output.o
vt__vmx_init                                      output.o
vt__vmxon                                         output.o
vt_add_guest_msr                                  output.o
vt_available                                      output.o
vt_enable_resume                                  output.o
vt_ept_clear_all                                  output.o
vt_ept_extern_mapsearch                           output.o
vt_ept_init                                       output.o
vt_ept_map_1mb                                    output.o
vt_ept_tlbflush                                   output.o
vt_ept_updatecr3                                  output.o
vt_ept_violation                                  output.o
vt_extern_iopass                                  output.o
vt_generate_external_int                          output.o
vt_generate_pagefault                             output.o
vt_get_current_regs_in_vmcs                       output.o
vt_get_vmcs_regs_in_vmcs                          output.o
vt_init                                           output.o
vt_init_signal                                    output.o
vt_io                                             output.o
vt_iopass                                         output.o
vt_iopass_init                                    output.o
vt_msr_init                                       output.o
vt_msr_update_lma                                 output.o
vt_paging_apply_fixed_cr0                         output.o
vt_paging_apply_fixed_cr4                         output.o
vt_paging_clear_all                               output.o
vt_paging_extern_flush_tlb_entry                  output.o
vt_paging_flush_guest_tlb                         output.o
vt_paging_get_gpat                                output.o
vt_paging_init                                    output.o
vt_paging_invalidate                              output.o
vt_paging_map_1mb                                 output.o
vt_paging_npf                                     output.o
vt_paging_pagefault                               output.o
vt_paging_pg_change                               output.o
vt_paging_set_gpat                                output.o
vt_paging_spt_setcr3                              output.o
vt_paging_start                                   output.o
vt_paging_tlbflush                                output.o
vt_paging_updatecr3                               output.o
vt_panic_dump                                     output.o
vt_read_control_reg                               output.o
vt_read_flags                                     output.o
vt_read_gdtr                                      output.o
vt_read_general_reg                               output.o
vt_read_guest_msr                                 output.o
vt_read_idtr                                      output.o
vt_read_ip                                        output.o
vt_read_msr                                       output.o
vt_read_sreg_acr                                  output.o
vt_read_sreg_base                                 output.o
vt_read_sreg_limit                                output.o
vt_read_sreg_sel                                  output.o
vt_reset                                          output.o
vt_resume                                         output.o
vt_start_vm                                       output.o
vt_update_exception_bmp                           output.o
vt_vmexit                                         output.o
vt_vminit                                         output.o
vt_vmptrld                                        output.o
vt_write_control_reg                              output.o
vt_write_flags                                    output.o
vt_write_gdtr                                     output.o
vt_write_general_reg                              output.o
vt_write_guest_msr                                output.o
vt_write_idtr                                     output.o
vt_write_ip                                       output.o
vt_write_msr                                      output.o
vt_write_realmode_seg                             output.o
vt_writing_sreg                                   output.o
waitcycles                                        output.o
wakeup_cont                                       output.o
wakeup_entry_addr                                 output.o
wakeup_entry_cr0                                  output.o
wakeup_entry_cr3                                  output.o
wakeup_entry_cr4                                  output.o
wakeup_entry_end                                  output.o
wakeup_entry_gdtr                                 output.o
wakeup_entry_start                                output.o
wakeup_init                                       output.o
wakeup_main                                       output.o
whirlpool_block                                   output.o
write_gphys_b                                     output.o
write_gphys_l                                     output.o
write_gphys_q                                     output.o
write_gphys_w                                     output.o
write_hphys_b                                     output.o
write_hphys_l                                     output.o
write_hphys_q                                     output.o
write_hphys_w                                     output.o
write_linearaddr_b                                output.o
write_linearaddr_l                                output.o
write_linearaddr_ok_b                             output.o
write_linearaddr_ok_l                             output.o
write_linearaddr_ok_w                             output.o
write_linearaddr_q                                output.o
write_linearaddr_tss                              output.o
write_linearaddr_w                                output.o
x509_name_ff                                      output.o
