
Allocating common symbols
Common symbol       size              file

clflush_size        0x4               output.o
sReaderContext      0x60              output.o
sigx_app            0x8               output.o
num_dom             0x4               output.o
mszReaders          0x400             output.o
prohibit_iccard_init
                    0x4               output.o
curthread           0x8               output.o
sig_app             0x8               output.o
readerState         0x64              output.o
dom_io              0x800             output.o
acpi_dsdt_system_state
                    0x1e              output.o
ehci_host           0x8               output.o
num_of_processors   0x4               output.o
e801_fake_bx        0x2               output.o
iommu_detected      0x1               output.o
dwReaders           0x8               output.o
readerTracker       0x140             output.o
handler_descriptor_lock
                    0x1               output.o
e801_fake_ax        0x2               output.o

Discarded input sections

 .gomi          0x0000000000000000        0xe output.o

Memory Configuration

Name             Origin             Length             Attributes
*default*        0x0000000000000000 0xffffffffffffffff

Linker script and memory map

                0x0000000040100000                virt = 0x40100000
                0x0000000000100000                phys = 0x100000
                0x0000000040100000                . = virt
                0x0000000040100000                head = .
                0x00000000401000b0                . = (virt + SIZEOF_HEADERS)

.text           0x0000000040101000   0x1142d8 load address 0x0000000000101000
                0x0000000040101000                code = .
 *(.entry)
 .entry         0x0000000040101000     0x6000 output.o
                0x000000004010100c                entry
                0x000000004010109a                cpuinit_start
                0x00000000401012c8                vmm_base_cr3
                0x00000000401012e0                apinit_procs
                0x00000000401012e8                apinit_lock
                0x00000000401012f0                cpuinit_end
                0x0000000040103000                entry_pdp
                0x0000000040104000                entry_pd0
                0x0000000040105000                entry_pd
 *(.text)
 .text          0x0000000040107000   0x10e2d8 output.o
                0x0000000040107654                acpi_smi_hook
                0x00000000401076a1                acpi_iohook
                0x00000000401076f3                acpi_reset
                0x00000000401077f1                acpi_poweroff
                0x000000004010782a                get_acpi_time_raw
                0x000000004010c801                acpi_dsdt_parse
                0x000000004010ccf2                apinitproc0
                0x000000004010cd1b                apic_available
                0x000000004010cd49                ap_start_addr
                0x000000004010cfa3                panic_wakeup_all
                0x000000004010d033                disable_apic
                0x000000004010d0a7                sync_all_processors
                0x000000004010d137                start_all_processors
                0x000000004010d178                assertion_failed
                0x000000004010d1b5                beep_set_freq
                0x000000004010d1e3                beep_on
                0x000000004010d1f3                beep_off
                0x000000004010d842                update_mtrr_and_pat
                0x000000004010da91                cache_get_gpat
                0x000000004010dae4                cache_set_gpat
                0x000000004010db2d                cache_get_attr
                0x000000004010dbe2                cache_get_gmtrr_type
                0x000000004010dbed                cache_get_gmtrr_attr
                0x000000004010dc00                cache_get_gmtrrcap
                0x000000004010dc2e                cache_get_gmtrr
                0x000000004010dd8b                cache_set_gmtrr
                0x000000004010dde5                cache_get_gmsr_amd
                0x000000004010de35                cache_set_gmsr_amd
                0x000000004010e271                callrealmode_endofcodeaddr
                0x000000004010e282                callrealmode_usevcpu
                0x000000004010e28f                callrealmode_printmsg
                0x000000004010e2ac                callrealmode_getsysmemmap
                0x000000004010e309                callrealmode_getshiftflags
                0x000000004010e327                callrealmode_setvideomode
                0x000000004010e345                callrealmode_reboot
                0x000000004010e35f                callrealmode_tcgbios
                0x000000004010e3f3                callrealmode_disk_readmbr
                0x000000004010e432                callrealmode_disk_readlba
                0x000000004010e479                callrealmode_bootcd_getstatus
                0x000000004010e4ce                callrealmode_setcursorpos
                0x000000004010e4f3                callrealmode_startkernel32
                0x000000004010e513                callrealmode_getfontinfo
                0x000000004010e594                get_cpu_id
                0x000000004010e5b0                cpu_emul_cpuid
                0x000000004010e664                cpu_emul_rdmsr
                0x000000004010e6dd                cpu_emul_wrmsr
                0x000000004010e74a                cpu_emul_hlt
                0x000000004010e762                cpu_emul_cli
                0x000000004010e79b                cpu_emul_sti
                0x000000004010e7e2                cpu_emul_realmode_int
                0x000000004010e95f                cpu_emul_xsetbv
                0x00000000401111b0                cpu_interpreter
                0x00000000401134ec                cpu_mmu_get_pte
                0x0000000040113e95                write_linearaddr_ok_b
                0x0000000040113eb7                write_linearaddr_ok_w
                0x0000000040113ec2                write_linearaddr_ok_l
                0x0000000040113ecd                write_linearaddr_b
                0x0000000040113f45                write_linearaddr_w
                0x0000000040113fe8                write_linearaddr_l
                0x0000000040114089                write_linearaddr_q
                0x0000000040114128                read_linearaddr_b
                0x000000004011419f                read_linearaddr_w
                0x000000004011423b                read_linearaddr_l
                0x00000000401142d8                read_linearaddr_q
                0x0000000040114375                read_linearaddr_tss
                0x000000004011441a                write_linearaddr_tss
                0x00000000401184ad                cpu_mmu_spt_tlbflush
                0x00000000401184e8                cpu_mmu_spt_updatecr3
                0x0000000040118781                cpu_mmu_spt_invalidate
                0x0000000040118809                cpu_mmu_spt_pagefault
                0x00000000401189f9                cpu_mmu_spt_extern_mapsearch
                0x0000000040118b3a                cpu_mmu_spt_map_1mb
                0x0000000040118c96                cpu_mmu_spt_clear_all
                0x0000000040118df5                cpu_mmu_spt_init
                0x0000000040119464                cpu_seg_read_b
                0x00000000401194db                cpu_seg_read_w
                0x0000000040119552                cpu_seg_read_l
                0x00000000401195c9                cpu_seg_read_q
                0x0000000040119640                cpu_seg_write_b
                0x00000000401196b8                cpu_seg_write_w
                0x0000000040119730                cpu_seg_write_l
                0x00000000401197a7                cpu_seg_write_q
                0x0000000040119820                cpu_stack_get
                0x000000004011988a                cpu_stack_set
                0x000000004011991f                cpu_stack_push
                0x00000000401199d1                cpu_stack_pop
                0x0000000040119ac0                call_cpuid
                0x0000000040119e99                debug_addstr
                0x0000000040119e9f                debug_gdb
                0x0000000040119ea5                debug_iohook
                0x0000000040119eab                debug_msgregister
                0x0000000040119edb                debug_msgunregister
                0x0000000040119f79                do_exint_pass
                0x000000004011a010                read_gphys_b
                0x000000004011a08c                write_gphys_b
                0x000000004011a10f                read_gphys_w
                0x000000004011a1b5                write_gphys_w
                0x000000004011a266                read_gphys_l
                0x000000004011a30c                write_gphys_l
                0x000000004011a3c0                read_gphys_q
                0x000000004011a466                write_gphys_q
                0x000000004011a517                cmpxchg_gphys_l
                0x000000004011a5e3                cmpxchg_gphys_q
                0x000000004011aa11                gmm_pass_gp2hp
                0x000000004011ab82                idman_reinit_session
                0x000000004011abfd                idman_reinit2
                0x000000004011ac1e                get_idman_session
                0x000000004011ac60                call_initfunc
                0x000000004011acc4                initfunc_init
                0x000000004011c84e                int_fatal
                0x000000004011cbcf                callfunc_and_getint
                0x000000004011cbe3                do_externalint_enable
                0x000000004011cbf8                set_int_handler
                0x000000004011cc17                int_exceptionHandler
                0x000000004011cc22                int_init_ap
                0x000000004011cc76                do_io_nothing
                0x000000004011ccb2                set_iofunc
                0x000000004011cd53                call_io
                0x000000004011ce9c                do_iopass_default
                0x000000004011d033                keyboard_reset
                0x000000004011d078                setkbdled
                0x000000004011d0d9                keyboard_flush
                0x000000004011d100                load_bootsector
                0x000000004011d4c9                copy_bootsector
                0x000000004011d76a                localapic_wait_for_sipi
                0x000000004011d7f7                localapic_change_base_msr
                0x000000004011d843                localapic_mmio_register
                0x000000004011e21a                resume_vm
                0x000000004011e2d5                vmm_main
                0x000000004011e6c0                getsysmemmap
                0x000000004011e748                getfakesysmemmap
                0x000000004011e7cc                phys_to_virt
                0x000000004011e7e2                vmm_start_inf
                0x000000004011e7ee                vmm_term_inf
                0x000000004011e7ff                num_of_available_pages
                0x000000004011e86b                alloc_pages
                0x000000004011e8f4                alloc_page
                0x000000004011e904                alloc
                0x000000004011eb81                alloc2
                0x000000004011ebce                free
                0x000000004011eced                realloc
                0x000000004011ee3e                free_page
                0x000000004011ee51                free_page_phys
                0x000000004011ee6c                mempool_new
                0x000000004011eed7                mempool_free
                0x000000004011ef87                mempool_allocmem
                0x000000004011f16a                mempool_freemem
                0x000000004011f420                sym_to_phys
                0x000000004011f434                phys_in_vmm
                0x000000004011f450                mm_force_unlock
                0x000000004011f479                mm_process_alloc
                0x000000004011f649                mm_process_free
                0x000000004011f690                mm_process_switch
                0x000000004011f6ae                pmap_open_vmm
                0x000000004011f6d9                pmap_open_guest
                0x000000004011f71b                pmap_close
                0x000000004011f721                pmap_getreadlevel
                0x000000004011f72d                pmap_setlevel
                0x000000004011f739                pmap_seek
                0x000000004011f7a6                pmap_read
                0x000000004011f9d1                pmap_write
                0x000000004011fb68                mm_process_unmap_stack
                0x000000004011fd4f                mm_process_unmap
                0x000000004011fe31                mm_process_unmapall
                0x000000004011fed8                pmap_pointer
                0x000000004011ff39                pmap_clear
                0x0000000040120026                pmap_autoalloc
                0x000000004012075c                mm_process_map_stack
                0x0000000040120ac1                mm_process_map_shared_physpage
                0x0000000040120b35                mm_process_map_shared
                0x0000000040120d5f                mm_process_map_alloc
                0x0000000040120e91                pmap_dump
                0x0000000040120fa9                unmapmem
                0x000000004012108a                mapmem
                0x000000004012155d                cmpxchg_hphys_q
                0x00000000401215bb                cmpxchg_hphys_l
                0x0000000040121619                write_hphys_q
                0x000000004012164d                read_hphys_q
                0x0000000040121684                write_hphys_l
                0x00000000401216b6                read_hphys_l
                0x00000000401216eb                write_hphys_w
                0x000000004012171e                read_hphys_w
                0x0000000040121755                write_hphys_b
                0x0000000040121787                read_hphys_b
                0x00000000401217ea                mapmem_hphys
                0x0000000040121802                alloc_realmodemem
                0x00000000401218a5                mapmem_gphys
                0x00000000401218bd                mm_flush_wb_cache
                0x0000000040121cdf                mmio_access_memory
                0x0000000040121e36                mmio_access_page
                0x0000000040121ef7                mmio_register
                0x00000000401220fa                mmio_unregister
                0x0000000040122181                mmio_lock
                0x000000004012219c                mmio_unlock
                0x000000004012222e                msg_findname
                0x00000000401222a8                msg_register
                0x000000004012238a                msg_unregister
                0x0000000040122405                msg_unregisterall
                0x0000000040122491                msg_unregister2
                0x000000004012255e                call_read_msr
                0x0000000040122572                call_write_msr
                0x0000000040122850                load_minios
                0x0000000040123070                backtrace
                0x00000000401234a8                panic
                0x00000000401239a0                auto_reboot
                0x00000000401239bd                panic_test
                0x00000000401239e0                pcpu_list_foreach
                0x0000000040123a1f                pcpu_list_add
                0x0000000040123a71                pcpu_init
                0x00000000401244c5                vprintf
                0x0000000040124500                printf
                0x000000004012453e                vsnprintf
                0x0000000040124582                snprintf
                0x00000000401247e9                sys_msgsetfunc
                0x000000004012488e                sys_msgclose
                0x00000000401248ab                sys_msgret
                0x00000000401248bd                sys_exitprocess
                0x0000000040124b6d                sys_msgsenddesc
                0x0000000040124c25                sys_msgunregister
                0x0000000040125341                sys_msgsendbuf
                0x00000000401254f3                sys_msgsendint
                0x0000000040125792                sys_newprocess
                0x0000000040125833                sys_msgopen
                0x0000000040125973                sys_msgregister
                0x00000000401259f1                process_kill
                0x0000000040125a48                msgsetfunc
                0x0000000040125a5d                msgregister
                0x0000000040125a73                msgopen
                0x0000000040125a86                msgclose
                0x0000000040125a98                msgsendint
                0x0000000040125aac                msgsenddesc
                0x0000000040125ac0                newprocess
                0x0000000040125ad3                msgsendbuf
                0x0000000040125aed                msgunregister
                0x0000000040125aff                exitprocess
                0x0000000040125b12                msgpremapbuf
                0x0000000040125c3c                process_syscall
                0x0000000040125ce8                putchar
                0x0000000040125d26                putchar_set_func
                0x0000000040126027                do_panic_reboot
                0x00000000401260b1                handle_init_to_bsp
                0x00000000401260d2                reboot_test
                0x0000000040126102                savemsr_save
                0x000000004012617e                savemsr_load
                0x00000000401267a6                get_seg_base
                0x0000000040126864                get_seg_access_rights
                0x0000000040126884                segment_wakeup
                0x00000000401268c6                segment_init_ap
                0x0000000040126b8b                serial_putDebugChar
                0x0000000040126b9d                serial_getDebugChar
                0x0000000040126bb2                serial_putchar
                0x0000000040126c06                serial_init_iohook
                0x0000000040126c74                waitcycles
                0x0000000040126c96                usleep
                0x0000000040126d6b                sleep_set_timer_counter
                0x0000000040126ed2                vmctl_svm_init
                0x0000000040126f7c                message_exitcode
                0x00000000401274ff                printexitcode
                0x00000000401276b8                svm_available
                0x0000000040127776                svm_reset
                0x000000004012787a                svm_vminit
                0x0000000040127ab5                svm_vmexit
                0x0000000040127abb                svm_init
                0x0000000040127c05                svm_enable_resume
                0x0000000040127d0a                svm_resume
                0x0000000040127e60                svm_ioio
                0x0000000040127f60                svm_extern_iopass
                0x00000000401280d3                svm_init_signal
                0x00000000401280f6                svm_start_vm
                0x0000000040128bb0                svm_msr_update_lma
                0x0000000040128c25                svm_read_msr
                0x0000000040128eca                svm_write_msr
                0x000000004012941a                svm_np_init
                0x0000000040129502                svm_np_pagefault
                0x0000000040129548                svm_np_tlbflush
                0x000000004012954e                svm_np_updatecr3
                0x0000000040129559                svm_np_clear_all
                0x00000000401295ec                svm_np_extern_mapsearch
                0x0000000040129677                svm_np_map_1mb
                0x00000000401296d0                svm_paging_extern_flush_tlb_entry
                0x00000000401296f7                svm_paging_map_1mb
                0x0000000040129721                svm_paging_flush_guest_tlb
                0x0000000040129760                svm_paging_init
                0x000000004012987e                svm_paging_pagefault
                0x00000000401298aa                svm_paging_tlbflush
                0x00000000401298d1                svm_paging_invalidate
                0x00000000401298fd                svm_paging_npf
                0x0000000040129929                svm_paging_updatecr3
                0x0000000040129951                svm_paging_spt_setcr3
                0x0000000040129986                svm_paging_clear_all
                0x00000000401299b1                svm_paging_get_gpat
                0x00000000401299bc                svm_paging_set_gpat
                0x0000000040129a09                svm_paging_apply_fixed_cr0
                0x0000000040129a2c                svm_paging_apply_fixed_cr4
                0x0000000040129a50                svm_paging_pg_change
                0x0000000040129a56                svm_paging_start
                0x0000000040129a68                svm_panic_dump
                0x0000000040129b40                svm_read_general_reg
                0x0000000040129ca9                svm_write_general_reg
                0x0000000040129ddf                svm_read_control_reg
                0x0000000040129e75                svm_write_control_reg
                0x0000000040129f61                svm_read_sreg_sel
                0x000000004012a02d                svm_read_sreg_acr
                0x000000004012a10c                svm_read_sreg_base
                0x000000004012a22e                svm_read_sreg_limit
                0x000000004012a345                svm_read_ip
                0x000000004012a364                svm_write_ip
                0x000000004012a38a                svm_read_flags
                0x000000004012a3a9                svm_write_flags
                0x000000004012a3c5                svm_read_gdtr
                0x000000004012a3fc                svm_write_gdtr
                0x000000004012a425                svm_read_idtr
                0x000000004012a45c                svm_write_idtr
                0x000000004012a485                svm_write_realmode_seg
                0x000000004012a5d5                svm_writing_sreg
                0x000000004012a6f7                int1a_TCG_StatusCheck
                0x000000004012a7bc                int1a_TCG_HashLogExtendEvent
                0x000000004012a84d                int1a_TCG_PassThroughToTPM
                0x000000004012a8de                int1a_TCG_HashLogEvent
                0x000000004012a95f                int1a_TCG_HashAll
                0x000000004012aa17                int1a_TCG_TSS
                0x000000004012aaa8                int1a_TCG_CompactHashLogExtendEvent
                0x000000004012ab09                tcg_measure
                0x000000004012ae4d                thread_gettid
                0x000000004012ae62                schedule
                0x000000004012b073                thread_new
                0x000000004012b196                thread_wakeup
                0x000000004012b273                thread_will_stop
                0x000000004012b2eb                thread_exit
                0x000000004012b38f                thread_start1
                0x000000004012b3bf                thread_set_process_switch
                0x000000004012b570                get_cpu_time
                0x000000004012b643                get_acpi_time
                0x000000004012b6f3                get_time
                0x000000004012b8d5                timer_new
                0x000000004012b956                timer_set
                0x000000004012ba4c                timer_free
                0x000000004012bc52                tty_putchar
                0x000000004012be06                ttylog_stop
                0x000000004012be16                tty_udp_register
                0x000000004012be68                tty_init_iohook
                0x000000004012be90                vcpu_list_foreach
                0x000000004012becf                load_new_vcpu
                0x000000004012bf89                vga_register
                0x000000004012c00b                vga_is_ready
                0x000000004012c06b                vga_transfer_image
                0x000000004012c0b8                vga_fill_rect
                0x000000004012c0f2                vga_get_screen_size
                0x000000004012c21c                vmmcall
                0x000000004012c275                vmmcall_register
                0x000000004012c2b3                vmmcall_init
                0x000000004012c674                vmmcall_boot_continue
                0x000000004012c6bf                vmmcall_boot_enable
                0x000000004012cf27                register_status_callback
                0x000000004012d03f                vramwrite_clearscreen
                0x000000004012d096                vramwrite_putchar
                0x000000004012d26e                vramwrite_mark1
                0x000000004012d2c0                vramwrite_mark2
                0x000000004012d320                vramwrite_mark3
                0x000000004012d380                vramwrite_save_and_move_cursor
                0x000000004012d3c5                vramwrite_restore_cursor
                0x000000004012d3d7                vramwrite_get_cursor_pos
                0x000000004012d437                vramwrite_init_global
                0x000000004012d444                vramwrite_exit_global
                0x000000004012d4ce                vt_generate_external_int
                0x000000004012d521                vt_generate_pagefault
                0x000000004012d5d7                vmctl_vt_init
                0x000000004012d67f                vt_vmptrld
                0x000000004012d96c                vt_ept_init
                0x000000004012da5c                vt_ept_violation
                0x000000004012dae4                vt_ept_tlbflush
                0x000000004012daea                vt_ept_updatecr3
                0x000000004012dbdc                vt_ept_clear_all
                0x000000004012dc6f                vt_ept_extern_mapsearch
                0x000000004012dcfa                vt_ept_map_1mb
                0x000000004012dd4c                message_exitreason
                0x000000004012deb5                printexitreason
                0x000000004012e82c                vt_available
                0x000000004012e8c6                vt__vmx_init
                0x000000004012e90e                vt__vmxon
                0x000000004012e9bb                vt_vminit
                0x000000004012ea17                vt_vmexit
                0x000000004012ea31                vt_init
                0x000000004012ea41                vt_enable_resume
                0x000000004012eb7a                vt_resume
                0x000000004012ed17                vt_io
                0x000000004012ee48                vt_iopass_init
                0x000000004012efdd                vt_iopass
                0x000000004012f02e                vt_extern_iopass
                0x000000004012fc5a                vt_update_exception_bmp
                0x0000000040130213                vt_init_signal
                0x000000004013021e                vt_start_vm
                0x0000000040130601                vt_add_guest_msr
                0x0000000040130744                vt_read_guest_msr
                0x0000000040130775                vt_write_guest_msr
                0x00000000401307a3                vt_msr_update_lma
                0x000000004013087b                vt_read_msr
                0x0000000040130b1f                vt_write_msr
                0x0000000040130de7                vt_msr_init
                0x0000000040130fe3                vt_paging_extern_flush_tlb_entry
                0x0000000040131051                vt_paging_map_1mb
                0x0000000040131071                vt_paging_flush_guest_tlb
                0x00000000401310d1                vt_paging_pagefault
                0x0000000040131114                vt_paging_tlbflush
                0x0000000040131137                vt_paging_invalidate
                0x000000004013116a                vt_paging_npf
                0x00000000401311ad                vt_paging_updatecr3
                0x00000000401311e1                vt_paging_spt_setcr3
                0x000000004013120c                vt_paging_clear_all
                0x000000004013123f                vt_paging_get_gpat
                0x000000004013124a                vt_paging_set_gpat
                0x00000000401312aa                vt_paging_apply_fixed_cr0
                0x0000000040131312                vt_paging_apply_fixed_cr4
                0x000000004013135a                vt_paging_pg_change
                0x00000000401314dd                vt_paging_init
                0x0000000040131558                vt_paging_start
                0x0000000040131587                vt_panic_dump
                0x0000000040131730                vt_read_general_reg
                0x000000004013187e                vt_write_general_reg
                0x000000004013199c                vt_read_control_reg
                0x0000000040131a0c                vt_read_sreg_sel
                0x0000000040131b26                vt_read_sreg_acr
                0x0000000040131b85                vt_read_sreg_base
                0x0000000040131c3d                vt_read_sreg_limit
                0x0000000040131cf0                vt_read_ip
                0x0000000040131cfe                vt_write_ip
                0x0000000040131d1e                vt_read_flags
                0x0000000040131d44                vt_write_flags
                0x0000000040131d6f                vt_read_gdtr
                0x0000000040131d84                vt_write_gdtr
                0x0000000040131d99                vt_read_idtr
                0x0000000040131ddd                vt_write_idtr
                0x0000000040131e13                vt_write_control_reg
                0x00000000401322ef                vt_get_current_regs_in_vmcs
                0x0000000040132597                vt_get_vmcs_regs_in_vmcs
                0x0000000040132714                vt_write_realmode_seg
                0x0000000040132857                vt_writing_sreg
                0x00000000401328e0                vt_reset
                0x0000000040132bbf                prepare_for_sleep
                0x0000000040132c96                cancel_sleep
                0x0000000040132cb8                wakeup_main
                0x0000000040132d40                wakeup_cont
                0x0000000040132e6a                wakeup_init
                0x0000000040132eb4                call_xsetbv
                0x0000000040132f20                mpumul_64_64
                0x0000000040132f40                mpudiv_128_32
                0x0000000040132f60                ipchecksum
                0x0000000040132ff0                asm_vmlaunch_regs_32
                0x0000000040133070                asm_vmresume_regs_32
                0x00000000401330f0                asm_vmrun_regs_32
                0x0000000040133150                asm_vmlaunch_regs_64
                0x0000000040133230                asm_vmresume_regs_64
                0x0000000040133310                asm_vmrun_regs_64
                0x00000000401333b4                callrealmode_start
                0x00000000401333ca                callrealmode_start2
                0x0000000040133856                callrealmode_end
                0x0000000040133858                move_vmm_area32
                0x000000004013387d                move_vmm_area64
                0x00000000401338a8                int_handler
                0x0000000040133920                int_callfunc
                0x0000000040134000                syscall_entry_sysexit
                0x000000004013402c                syscall_entry_lret
                0x000000004013405c                ret_to_user32
                0x0000000040134068                syscall_entry_sysret64
                0x00000000401340b0                ret_to_user64
                0x0000000040135000                processuser_sysenter
                0x0000000040136000                processuser_no_sysenter
                0x0000000040137000                processuser_syscall
                0x0000000040138140                memset
                0x00000000401381c0                memcpy
                0x0000000040138200                strcmp
                0x0000000040138240                memcmp
                0x0000000040138280                strlen
                0x0000000040138298                sx_handler
                0x00000000401382f0                thread_switch
                0x0000000040138310                thread_start0
                0x000000004013834c                monitor_vmcs_read
                0x0000000040138355                get_guest_eptp_value
                0x0000000040138365                get_guest_cr3_value
                0x0000000040138378                hypercall_handler
                0x00000000401383a8                get_page_table_base_GPA
                0x00000000401383be                get_ept_base_HPA
                0x00000000401383d4                traverseGuestPages
                0x00000000401383e0                allocateNewVMID
                0x00000000401383f0                allocateNewAppID
                0x0000000040138400                allocateNewApplicationIdentifiers
                0x000000004013843b                protectCurrentApplication
                0x0000000040138480                getMemoryOwnershipTableIndex
                0x000000004013848d                changePageStatus
                0x00000000401385a8                closePage
                0x0000000040138648                getMemoryOwnershipTableEntry
                0x0000000040138680                traverseIA32ePages
                0x00000000401388b6                traverseIA32ePDPT
                0x0000000040138a52                traverseIA32ePDT
                0x0000000040138b68                traverseIA32ePT
                0x0000000040138c08                mapHPAintoHVA
                0x0000000040138c2f                unmapHPAintoHVA
                0x0000000040138c3a                gpaToHPA
                0x0000000040138dd4                test_gpaToHPA
                0x0000000040138e0e                test_traverseGuestPages
                0x0000000040138e4b                test_start
                0x0000000040138edf                test_logicalCPUStatus
                0x0000000040138f10                core_init
                0x0000000040138fca                core_mm_read_guest_phys
                0x0000000040138fdf                core_mm_write_guest_phys
                0x0000000040138ff4                alloc_handler_descriptor
                0x0000000040139004                core_io_modify_handler
                0x00000000401390c2                core_io_unregister_handler
                0x0000000040139149                core_io_handle_default
                0x00000000401393d1                panic_oom
                0x00000000401393e4                core_io_register_handler
                0x0000000040139518                matched_drhd_u
                0x000000004013956d                parse_dmar_bios_report
                0x00000000401395b8                ieee1394_init
                0x00000000401395f0                iommu_setup
                0x00000000401395f6                iodom_init
                0x00000000401397b7                add_remap
                0x0000000040139844                create_dom
                0x0000000040139b67                pci_conceal_new_device
                0x0000000040139f25                pci_conceal_config_data_handler
                0x0000000040139f3c                pci_save_config_addr
                0x0000000040139f4e                pci_restore_config_addr
                0x0000000040139f60                pci_append_device
                0x0000000040139f92                pci_config_data_handler
                0x000000004013a2bb                pci_config_addr_handler
                0x000000004013a303                pci_register_driver
                0x000000004013a3a2                pci_read_config_data8
                0x000000004013a3e8                pci_read_config_data16
                0x000000004013a42f                pci_read_config_data32
                0x000000004013a475                pci_write_config_data8
                0x000000004013a4b9                pci_write_config_data16
                0x000000004013a4fe                pci_write_config_data32
                0x000000004013a542                pci_read_config_data_port
                0x000000004013a574                pci_write_config_data_port
                0x000000004013a5aa                pci_handle_default_config_write
                0x000000004013a5ec                pci_print_device
                0x000000004013a94c                pci_possible_new_device
                0x000000004013a970                security_storage_check_lba
                0x000000004013deea                ahci_new
                0x000000004013e180                ahci_config_read
                0x000000004013e1de                ahci_config_write
                0x000000004013e374                ata_bm_handle_prd_table
                0x000000004013e5bd                ata_bm_handle_status
                0x000000004013e67d                ata_bm_handle_command
                0x000000004013e7c0                ata_bm_handler
                0x000000004013e8d8                ata_get_cmd_type
                0x000000004013ee92                ata_handle_queued_status
                0x000000004013f6c7                ata_channel_lock
                0x000000004013f743                ata_channel_unlock
                0x00000000401402cb                ata_ctlblk_handler
                0x00000000401403d3                ata_cmdblk_handler
                0x00000000401404fc                ata_ahci_mode
                0x00000000401409ff                ata_init_io_handler
                0x0000000040140aa2                ata_set_bm_handler
                0x0000000040140b07                ata_set_cmdblk_handler
                0x0000000040140b4d                ata_set_ctlblk_handler
                0x0000000040140b95                ata_config_read
                0x0000000040140c57                ata_config_write
                0x0000000040140df0                ata_init_vendor
                0x0000000040140e17                ata_bm_handle_device_specific
                0x0000000040140f10                atapi_handle_config_data
                0x0000000040141157                atapi_handle_interrupt_reason
                0x00000000401411b0                atapi_handle_pio_identify_packet
                0x000000004014133f                atapi_handle_packet_data
                0x000000004014134a                atapi_handle_cmd_packet
                0x00000000401413c4                packet_handle_through
                0x00000000401413f9                packet_handle_nondata
                0x0000000040141413                packet_handle_config
                0x000000004014145f                packet_handle_rw
                0x00000000401414e1                packet_handle_invalid
                0x00000000401414fb                packet_handle_command
                0x0000000040141530                uhci_init
                0x0000000040141dd7                uhci_current_frame_number
                0x0000000040141df0                dump_td_byvirt
                0x0000000040141fbd                dump_td
                0x000000004014209d                dump_qh
                0x0000000040142265                dump_frame
                0x000000004014236a                uhci_dump_all
                0x000000004014252c                uhci_error_status_string
                0x000000004014280d                uhci_shadow_buffer
                0x0000000040142a92                uhci_framelist_monitor
                0x0000000040144a00                scan_gframelist
                0x00000000401452d3                uhci_create_urb
                0x000000004014542c                uhci_destroy_urb
                0x0000000040145559                uhci_destroy_unlinked_urbs
                0x000000004014561b                uhci_deactivate_urb
                0x00000000401459a4                uhci_activate_urb
                0x0000000040145ef8                uhci_reactivate_urb
                0x0000000040145f9e                uhci_submit_control
                0x00000000401465a2                uhci_submit_interrupt
                0x0000000040146606                uhci_submit_bulk
                0x000000004014666a                uhci_check_urb_advance
                0x00000000401466af                uhci_check_advance
                0x00000000401468ba                init_hframelist
                0x0000000040146b3c                ehci_init
                0x00000000401483c9                ehci_conceal_portroute
                0x00000000401489ed                ehci_dump_qtd
                0x0000000040148a73                ehci_dump_qtdm
                0x0000000040148aa8                ehci_dump_alist
                0x0000000040148b6b                ehci_dump_urblist
                0x0000000040148c00                ehci_dump_urb
                0x00000000401490bd                ehci_dump_async
                0x000000004014954c                ehci_dump_all
                0x000000004014ab2a                ehci_shadow_buffer
                0x000000004014ade4                get_gurb_by_address
                0x000000004014ae78                shadow_and_activate_urb
                0x000000004014b128                ehci_deactivate_urb
                0x000000004014b2c0                deactivate_and_delete_urb
                0x000000004014b537                ehci_check_urb_advance
                0x000000004014b707                ehci_check_advance
                0x000000004014b93b                ehci_shadow_async_list
                0x000000004014ba55                ehci_cleanup_urbs
                0x000000004014bbaa                ehci_end_monitor_async
                0x000000004014bc13                ehci_monitor_async_list
                0x000000004014c2bc                ehci_submit_control
                0x000000004014c835                ehci_submit_bulk
                0x000000004014c840                ehci_submit_interrupt
                0x000000004014e40a                usbmsc_init_handle
                0x000000004014e7e9                usbhub_init_handle
                0x000000004014e862                hub_portdevice_register
                0x000000004014ef25                usbccid_init_handle
                0x000000004014f050                usb_set_debug
                0x000000004014f05c                usb_init
                0x000000004014f062                usb_find_busses
                0x000000004014f142                usb_get_busses
                0x000000004014f14f                usb_get_bus
                0x000000004014f177                usb_find_devices
                0x000000004014f1c0                usb_open
                0x000000004014f22a                usb_close
                0x000000004014f23a                usb_resetep
                0x000000004014f245                usb_clear_halt
                0x000000004014f250                usb_reset
                0x000000004014f25b                usb_claim_interface
                0x000000004014f269                usb_release_interface
                0x000000004014f27b                usb_set_configuration
                0x000000004014f526                usb_set_altinterface
                0x000000004014f7d3                usb_control_msg
                0x000000004014fb2f                usb_get_string
                0x000000004014fe7c                usb_get_string_simple
                0x0000000040150071                usb_get_descriptor
                0x00000000401503c1                usb_get_descriptor_early
                0x000000004015071c                usb_get_descriptor_by_endpoint
                0x0000000040150a6e                usb_bulk_write
                0x0000000040150cc4                usb_interrupt_write
                0x0000000040150f1a                usb_bulk_read
                0x00000000401511f5                usb_interrupt_read
                0x00000000401514d0                usb_register_host
                0x00000000401515e2                usb_unregister_devices
                0x0000000040151614                usb_sc_lock
                0x000000004015168c                usb_sc_unlock
                0x00000000401519b3                free_config_descriptors
                0x00000000401523bc                free_device
                0x000000004015252a                handle_connect_status
                0x000000004015263e                handle_port_reset
                0x000000004015271f                dprintf_port
                0x00000000401531f1                usb_init_device_monitor
                0x000000004015325b                usb_new_dev_handle
                0x00000000401532f4                usbhid_init_handle
                0x0000000040153430                usb_hook_process
                0x000000004015371b                usb_hook_register
                0x00000000401537ff                usb_hook_unregister
                0x0000000040153880                _dprintf
                0x00000000401538cd                _dprintft
                0x0000000040153988                pro100_io_handler
                0x0000000040153993                pro100_init
                0x00000000401539ac                pro100_config_write
                0x0000000040153af1                pro100_config_read
                0x0000000040153c3a                pro100_init_vpn_client
                0x0000000040153c79                pro100_sleep
                0x0000000040153cb7                pro100_beep
                0x0000000040153cef                pro100_get_ctx
                0x0000000040153d92                pro100_alloc_page
                0x0000000040153dcc                pro100_free_page
                0x0000000040153df1                pro100_get_op_size
                0x0000000040153e34                pro100_mem_read
                0x0000000040153e63                pro100_read_send_packet
                0x0000000040154075                pro100_mem_write
                0x000000004015409e                pro100_write
                0x00000000401540cd                pro100_read
                0x000000004015410a                pro100_flush
                0x0000000040154124                pro100_wait_cu_ru_accepable
                0x000000004015415f                pro100_init_ru_base_addr
                0x00000000401541bf                pro100_init_cu_base_addr
                0x000000004015421f                pro100_send_packet_to_line
                0x0000000040154373                pro100_exec_cu_op
                0x00000000401544cc                pro100_generate_int
                0x00000000401544fb                pro100_proc_guest_op
                0x00000000401546f6                pro100_write_recv_packet
                0x000000004015488a                pro100_get_int_bit_string
                0x0000000040154902                pro100_get_stat_ack_string
                0x000000004015496f                pro100_get_cu_command_string
                0x00000000401549f1                pro100_get_ru_command_string
                0x0000000040154a3b                pro100_init_recv_buffer
                0x0000000040154b72                pro100_alloc_recv_buffer
                0x0000000040154be1                pro100_new
                0x0000000040154cae                pro100_poll_ru
                0x0000000040154da7                pro100_hook_read
                0x0000000040154f66                pro100_hook_write
                0x000000004015523c                pro100_mm_handler
                0x00000000401575c3                storage_premap_buf
                0x00000000401575ce                storage_premap_handle_sectors
                0x0000000040157922                storage_get_num_hc
                0x0000000040157954                storage_hc_open
                0x0000000040157a34                storage_hc_close
                0x0000000040157a7e                storage_hc_hook_register
                0x0000000040157b03                storage_hc_hook_unregister
                0x0000000040157b9d                storage_hc_register
                0x0000000040157d68                storage_hc_unregister
                0x0000000040157e6d                storage_hc_scandev
                0x0000000040157eb1                storage_hc_dev_open
                0x0000000040157fef                storage_hc_dev_atacommand
                0x00000000401581c2                storage_hc_dev_close
                0x000000004015828a                storage_io_init
                0x000000004015829f                storage_io_deinit
                0x00000000401582aa                storage_io_get_num_devices
                0x0000000040158368                storage_io_aget_size
                0x00000000401584cf                storage_io_aread
                0x00000000401586eb                storage_io_awrite
                0x0000000040158e62                storage_handle_sectors
                0x00000000401590ab                storage_new
                0x00000000401592f2                storage_free
                0x00000000401594f1                storage_init
                0x0000000040159725                aes_xts_init
                0x0000000040159758                crypto_find
                0x00000000401597ab                crypto_register
                0x00000000401597fb                crypto_init
                0x0000000040159852                crypto_none_init
                0x000000004015988a                vpn_GetCurrentCpuId
                0x0000000040159895                vpn_GetTickCount
                0x00000000401598c5                vpn_NewTimer
                0x00000000401598df                vpn_SetTimer
                0x00000000401598f3                vpn_FreeTimer
                0x00000000401598fe                vpn_GetPhysicalNicInfo
                0x000000004015990d                vpn_SendPhysicalNic
                0x000000004015991c                vpn_SetPhysicalNicRecvCallback
                0x000000004015992b                vpn_GetVirtualNicInfo
                0x000000004015993b                vpn_SendVirtualNic
                0x000000004015994b                vpn_SetVirtualNicRecvCallback
                0x000000004015995b                vpn_premap_PhysicalNicRecv
                0x0000000040159974                vpn_premap_VirtualNicRecv
                0x000000004015998d                vpn_premap_recvbuf
                0x0000000040159998                vpn_ic_rsa_sign
                0x0000000040159a3f                vpn_new_nic
                0x000000004015a061                msg_vpn_GetCurrentCpuId
                0x000000004015a07b                msg_vpn_ic_rsa_sign
                0x000000004015a127                msg_vpn_GetTickCount
                0x000000004015a165                msg_vpn_GetPhysicalNicInfo
                0x000000004015a1c9                msg_vpn_SendPhysicalNic
                0x000000004015a283                msg_vpn_SetPhysicalNicRecvCallback
                0x000000004015a2cf                msg_vpn_GetVirtualNicInfo
                0x000000004015a333                msg_vpn_SendVirtualNic
                0x000000004015a3ed                msg_vpn_SetVirtualNicRecvCallback
                0x000000004015a439                msg_vpn_NewTimer
                0x000000004015a4a9                msg_vpn_SetTimer
                0x000000004015a57c                msg_vpn_FreeTimer
                0x000000004015a5e2                vpn_start
                0x000000004015a96c                vpn_user_init
                0x000000004015a9d0                SeFreeConfigEntryList
                0x000000004015aa2e                SeGetConfigEntry
                0x000000004015aa9f                SeGetConfigStr
                0x000000004015aacc                SeGetConfigBool
                0x000000004015ab78                SeGetConfigInt
                0x000000004015ab9c                SeGetConfigInt64
                0x000000004015abc0                SeGetConfigBin
                0x000000004015abe4                SeIsSplitChar
                0x000000004015ac57                SeGetKeyAndValue
                0x000000004015ade7                SeLoadConfigEntryListFromBuf
                0x000000004015af5f                SeLoadConfigEntryList
                0x000000004015afb0                SePKeyPasswordCallbackFunction
                0x000000004015afdd                SeDhFree
                0x000000004015b017                SeRsaVerifyWithPadding
                0x000000004015b0f1                SeRsaSignWithPadding
                0x000000004015b1b5                SeRsaPublicDecrypt
                0x000000004015b25e                SeRsaPrivateEncrypt
                0x000000004015b307                SeRsaPrivateDecrypt
                0x000000004015b3a8                SeRsaPublicEncrypt
                0x000000004015b449                SeGetCertSha1
                0x000000004015b491                SeGetCertMd5
                0x000000004015b4d9                SeBinToBigNum
                0x000000004015b524                SeBufToBigNum
                0x000000004015b53f                SeDhCompute
                0x000000004015b5cb                SeBigNumToBuf
                0x000000004015b664                SeRsaPublicSize
                0x000000004015b6af                SeRsaPublicToBin
                0x000000004015b713                SeRsaPublicToBuf
                0x000000004015b757                SeDhNew
                0x000000004015b82d                SeDhNewGroup2
                0x000000004015b842                SeCheckSignature
                0x000000004015b86c                SeGetKeyFromCert
                0x000000004015b8a8                SeCompareCert
                0x000000004015b8d2                SeCheckCertAndKey
                0x000000004015b8fc                SeIsBase64
                0x000000004015b9bd                SeFreePKey
                0x000000004015b9cd                SeFreeKey
                0x000000004015b9f5                SeIsCertSignedByCert
                0x000000004015ba65                SeCheckCert
                0x000000004015bacb                SeBioToKey
                0x000000004015bbd9                SeGetCertIssuerName
                0x000000004015bc65                SeGetCertSubjectName
                0x000000004015bcef                SeFreeX509
                0x000000004015bcff                SeFreeCert
                0x000000004015bd2d                SeFreeBio
                0x000000004015bd3d                SeNewBio
                0x000000004015bd50                SeCertToBio
                0x000000004015bdb1                SeKeyToBio
                0x000000004015bead                SeRsaGen
                0x000000004015c018                SeBioToBuf
                0x000000004015c0b9                SeCertToBuf
                0x000000004015c104                SeSaveCert
                0x000000004015c165                SeKeyToBuf
                0x000000004015c1b0                SeSaveKey
                0x000000004015c214                SeX509ToCert
                0x000000004015c2cc                SeBioToCert
                0x000000004015c317                SeBigNumToStr
                0x000000004015c383                SeBufToBio
                0x000000004015c3dc                SeBufToKey
                0x000000004015c448                SeLoadKey
                0x000000004015c4f3                SeCloneKey
                0x000000004015c55d                SeBufToCert
                0x000000004015c5b2                SeLoadCert
                0x000000004015c5ff                SeCloneCert
                0x000000004015c650                SeSha1
                0x000000004015c670                SeHashForSignBySHA1
                0x000000004015c71a                SeRsaSignWithSha1
                0x000000004015c7bd                SeRsaVerifyWithSha1
                0x000000004015c85f                SeMacSha1
                0x000000004015c9b6                SeMacSha196
                0x000000004015c9fd                SeMd5
                0x000000004015ca1d                SeDes3Encrypt
                0x000000004015cab5                SeDes3Decrypt
                0x000000004015cb4f                SeDesNewKeyValue
                0x000000004015cba1                SeDes3NewKey
                0x000000004015cc22                SeDesNewKey
                0x000000004015cc33                SeDesRandKeyValue
                0x000000004015cc4f                SeDesRandKey
                0x000000004015cc99                SeDes3RandKey
                0x000000004015cce2                SeDesFreeKeyValue
                0x000000004015cd0a                SeDes3FreeKey
                0x000000004015cd44                SeDesFreeKey
                0x000000004015cd4f                SeRand
                0x000000004015cd63                SeRand64
                0x000000004015cd7f                SeRand32
                0x000000004015cd9a                SeRand16
                0x000000004015cdb6                SeRand8
                0x000000004015cdd2                SeRand1
                0x000000004015cde5                SeInitCrypto
                0x000000004015ce28                SeFreeCrypto
                0x000000004015ce40                SeIkeStrToPassword
                0x000000004015cead                SeIkePhase1CryptIdToKeySize
                0x000000004015cecc                SeIkePhase2CryptIdToKeySize
                0x000000004015ceeb                SeIkeStrToPhase1CryptId
                0x000000004015cf51                SeIkeStrToPhase1HashId
                0x000000004015cf90                SeIkeStrToPhase2CryptId
                0x000000004015cffb                SeIkeStrToPhase2HashId
                0x000000004015d03a                SeIkeIsZeroIP
                0x000000004015d068                SeIkeInitIPv6Address
                0x000000004015d0b5                SeIkeInitIPv4Address
                0x000000004015d0f8                SeIkeGetIPv6Address
                0x000000004015d132                SeIkeGetIPv4Address
                0x000000004015d14b                SeIkeIpAddressToStr
                0x000000004015d1a5                SeIkeBuildDataPayload
                0x000000004015d1ee                SeIkeBuildTransformValue
                0x000000004015d2a8                SeIkeBuildTransformValueList
                0x000000004015d310                SeIkeBuildTransformPayload
                0x000000004015d38d                SeIkeBuildIdPayload
                0x000000004015d404                SeIkeBuildCertPayload
                0x000000004015d467                SeIkeBuildCertRequestPayload
                0x000000004015d4ca                SeIkeBuildNoticePayload
                0x000000004015d557                SeIkeBuildDeletePayload
                0x000000004015d627                SeIkeGetFirstPayloadType
                0x000000004015d646                SeIkeBuildPayloadList
                0x000000004015d751                SeIkeBuildProposalPayload
                0x000000004015d7fc                SeIkeBuildSaPayload
                0x000000004015d885                SeIkeBuildPayload
                0x000000004015d95e                SeIkeGetPayload
                0x000000004015d9ac                SeIkeGetPayloadNum
                0x000000004015d9e8                SeIkeNewPayload
                0x000000004015da06                SeIkeNewDataPayload
                0x000000004015da56                SeIkeNewSaPayload
                0x000000004015da81                SeIkeNewProposalPayload
                0x000000004015db0b                SeIkeNewTransformPayload
                0x000000004015db56                SeIkeNewIdPayload
                0x000000004015dbd6                SeIkeNewCertPayload
                0x000000004015dc3a                SeIkeNewCertRequestPayload
                0x000000004015dc9e                SeIkeNewNoticePayload
                0x000000004015dd3a                SeIkeNewDeletePayload
                0x000000004015dd76                SeIkeNewTransformValue
                0x000000004015dda5                SeIkeFreeTransformValueList
                0x000000004015dde1                SeIkeParseTransformValueList
                0x000000004015df4d                SeIkeParseTransformPayload
                0x000000004015dfb9                SeIkeFreeTransformPayload
                0x000000004015dfe7                SeIkeParseIdPayload
                0x000000004015e064                SeIkeFreeIdPayload
                0x000000004015e092                SeIkeParseCertPayload
                0x000000004015e0fb                SeIkeFreeCertPayload
                0x000000004015e129                SeIkeParseCertRequestPayload
                0x000000004015e192                SeIkeFreeCertRequestPayload
                0x000000004015e1c0                SeIkeParseNoticePayload
                0x000000004015e284                SeIkeFreeNoticePayload
                0x000000004015e2c8                SeIkeFreeDeletePayload
                0x000000004015e327                SeIkeParseDeletePayload
                0x000000004015e435                SeIkeParseDataPayload
                0x000000004015e46f                SeIkeFreeDataPayload
                0x000000004015e482                SeIkeFreePayloadList
                0x000000004015e4be                SeIkeParsePayloadListEx
                0x000000004015e641                SeIkeParsePayloadList
                0x000000004015e654                SeIkeParseProposalPayload
                0x000000004015e704                SeIkeParseSaPayload
                0x000000004015e7d1                SeIkeParsePayload
                0x000000004015e8d1                SeIkeFreeProposalPayload
                0x000000004015e915                SeIkeFreeSaPayload
                0x000000004015e941                SeIkeFreePayload
                0x000000004015e9e8                SeIkeEncrypt
                0x000000004015eaa3                SeIkeEncryptWithPadding
                0x000000004015eb53                SeIkeBuild
                0x000000004015ecac                SeIkeDecrypt
                0x000000004015ed67                SeIkeFree
                0x000000004015eda3                SeIkeParseEx
                0x000000004015ef8b                SeIkeParse
                0x000000004015ef9b                SeIkeParseHeader
                0x000000004015efab                SeIkeNew
                0x000000004015f030                VPN_IPsec_Client_Start
                0x000000004015f056                VPN_IPsec_Client_Stop
                0x000000004015f066                SeIntInit
                0x000000004015f089                SeIntFree
                0x000000004015f0a3                VPN_IPsec_Init
                0x000000004015f0ff                VPN_IPsec_Free
                0x000000004015f131                SeSysMemoryAlloc
                0x000000004015f14d                SeSysMemoryReAlloc
                0x000000004015f176                SeSysMemoryFree
                0x000000004015f18e                SeSysGetCurrentCpuId
                0x000000004015f1a6                SeSysNewLock
                0x000000004015f1be                SeSysLock
                0x000000004015f1d6                SeSysUnlock
                0x000000004015f1ee                SeSysFreeLock
                0x000000004015f206                SeSysGetTickCount
                0x000000004015f21e                SeSysNewTimer
                0x000000004015f242                SeSysSetTimer
                0x000000004015f25a                SeSysFreeTimer
                0x000000004015f272                SeSysGetPhysicalNicInfo
                0x000000004015f28f                SeSysSendPhysicalNic
                0x000000004015f2b5                SeSysSetPhysicalNicRecvCallback
                0x000000004015f2d7                SeSysGetVirtualNicInfo
                0x000000004015f2f4                SeSysSendVirtualNic
                0x000000004015f31d                SeSysSetVirtualNicRecvCallback
                0x000000004015f342                SeSysSaveData
                0x000000004015f369                SeSysLoadData
                0x000000004015f390                SeSysFreeData
                0x000000004015f3ab                SeSysRsaSign
                0x000000004015f3e3                SeSysLog
                0x000000004015f411                SeRsaSign
                0x000000004015f4b0                Se4ParseIpPacketUDPv4
                0x000000004015f5ab                Se4FreeIpHeaderInfo
                0x000000004015f5df                Se4IpChecksum
                0x000000004015f652                Se4IpCheckChecksum
                0x000000004015f6a1                Se4ParseIpPacketICMPv4
                0x000000004015f7d0                Se4BuildIcmpEchoPacket
                0x000000004015f88c                Se4AdjustTcpMss
                0x000000004015fa31                Se4Tick
                0x000000004015fa49                Se4BroadcastMacAddress
                0x000000004015fa54                Se4SendEthPacket
                0x000000004015fb2b                Se4SendIpFragmentNow
                0x000000004015fb54                Se4InitArpEntryList
                0x000000004015fb64                Se4FreeArpEntryList
                0x000000004015fba0                Se4FlushArpEntryList
                0x000000004015fc4d                Se4SearchArpEntryList
                0x000000004015fcd9                Se4AddArpEntryList
                0x000000004015fdc6                Se4SearchArpWaitList
                0x000000004015fe0e                Se4InitArpWaitList
                0x000000004015fe1e                Se4FreeArpWaitList
                0x000000004015fe5a                Se4InsertIpWait
                0x000000004015fedc                Se4InitIpWaitList
                0x000000004015feec                Se4FreeIpWait
                0x000000004015ff15                Se4FlushIpWaitList
                0x000000004015ffd7                Se4FreeIpWaitList
                0x0000000040160013                Se4InitIpCombineList
                0x0000000040160023                Se4SearchIpCombineList
                0x0000000040160099                Se4InitIpFragmentList
                0x00000000401600a9                Se4InsertIpCombine
                0x00000000401601a8                Se4FreeIpFragmentList
                0x00000000401601e4                Se4FreeIpCombine
                0x000000004016021c                Se4FlushIpCombineList
                0x0000000040160305                Se4FreeIpCombineList
                0x0000000040160353                Se4Free
                0x0000000040160397                Se4And
                0x00000000401603c6                Se4GetNetworkAddress
                0x00000000401603d1                Se4Or
                0x0000000040160400                Se4Not
                0x000000004016042a                Se4GetBroadcastAddress
                0x000000004016046f                Se4GetHostAddress
                0x0000000040160489                Se4GenerateSubnetMask32
                0x00000000401604aa                Se4IPToStr
                0x00000000401604ed                Se4ZeroIP
                0x0000000040160508                Se4StrToIP
                0x00000000401605a9                Se4IPToUINT
                0x00000000401605cb                Se4StrToIP32
                0x00000000401605dd                Se4IsZeroIP
                0x00000000401605f0                Se4Init
                0x0000000040160706                Se4Cmp
                0x000000004016073f                Se4CheckUnicastAddress
                0x0000000040160790                Se4IsInSameNetwork
                0x00000000401607df                Se4CmpIpCombineList
                0x000000004016087d                Se4SendWaitingIpWait
                0x000000004016095e                Se4MacIpRelationKnown
                0x0000000040160a0a                Se4CmpArpWaitEntry
                0x0000000040160a41                Se4CmpArpEntry
                0x0000000040160a78                Se4ParseIpPacket
                0x0000000040160bce                Se4IsBroadcastAddress
                0x0000000040160be2                Se4SendArpResponse
                0x0000000040160cc9                Se4SendArpDoProcess
                0x0000000040160dcf                Se4ProcessArpWaitList
                0x0000000040160e83                Se4MainProc
                0x0000000040160eb4                Se4SendArpRequest
                0x0000000040160f29                Se4UINTToIP
                0x0000000040160f4b                Se4IPToStr32
                0x0000000040160f6f                Se4GenerateSubnetMask
                0x0000000040160f81                Se4IsSubnetMask
                0x0000000040160fbe                Se4RecvArpResponse
                0x0000000040161003                Se4RecvArpRequest
                0x000000004016112d                Se4RecvArp
                0x00000000401611ea                Se4SendRawIp
                0x000000004016134d                Se4SendIpFragment
                0x0000000040161480                Se4SendIp
                0x0000000040161562                Se4SendUdp
                0x0000000040161694                Se4SendIcmp
                0x000000004016174d                Se4SendIcmpEchoResponse
                0x00000000401617e2                Se4RecvIpComplete
                0x00000000401618af                Se4CombineIp
                0x0000000040161aad                Se4SendIcmpEchoRequest
                0x0000000040161b42                Se4RecvIp
                0x0000000040161ddc                Se4RecvEthPacket
                0x0000000040161e70                Se6FreeIpHeaderInfo
                0x0000000040161ea4                Se6IpChecksum
                0x0000000040161f17                Se6CalcChecksum
                0x0000000040161fd8                Se6ParseIpPacketICMPv6
                0x0000000040162216                Se6ParseIpPacketUDPv6
                0x0000000040162365                Se6BuildIcmpEchoPacket
                0x000000004016244e                Se6BroadcastMacAddress
                0x0000000040162459                Se6SendEthPacket
                0x0000000040162530                Se6SendIpFragmentNow
                0x0000000040162559                Se6InitNeighborEntryList
                0x0000000040162569                Se6FreeNeighborEntryList
                0x00000000401625a5                Se6FlushNeighborEntryList
                0x0000000040162652                Se6SearchNeighborEntryList
                0x00000000401626a9                Se6AddNeighborEntryList
                0x0000000040162793                Se6SearchNdpWaitList
                0x00000000401627e2                Se6InitNdpWaitList
                0x00000000401627f2                Se6FreeNdpWaitList
                0x000000004016282e                Se6InsertIpWait
                0x00000000401628bd                Se6InitIpWaitList
                0x00000000401628cd                Se6FreeIpWait
                0x00000000401628f6                Se6FreeIpWaitList
                0x0000000040162932                Se6InitIpCombineList
                0x0000000040162942                Se6SearchIpCombineList
                0x00000000401629e6                Se6InitIpFragmentList
                0x00000000401629f6                Se6FreeIpFragmentList
                0x0000000040162a32                Se6FreeIpCombine
                0x0000000040162a6d                Se6FreeIpCombineList
                0x0000000040162abb                Se6Free
                0x0000000040162b0b                Se6Tick
                0x0000000040162b23                Se6InsertIpCombine
                0x0000000040162c5a                Se6FlushIpCombineList
                0x0000000040162d46                Se6FlushIpWaitList
                0x0000000040162e0e                Se6GenerateEui64Address
                0x0000000040162e6f                Se6GenerateMulticastMacAddress
                0x0000000040162ea5                Se6GetAllNodeMulticastAddr
                0x0000000040162ed1                Se6GetAllRouterMulticastAddr
                0x0000000040162efd                Se6And
                0x0000000040162f3b                Se6GetPrefixAddress
                0x0000000040162f4a                Se6Or
                0x0000000040162f88                Se6Not
                0x0000000040162fbc                Se6GetHostAddress
                0x0000000040162ff8                Se6GenerateSubnetMask
                0x000000004016305d                Se6GetSoliciationMulticastAddr
                0x000000004016310e                Se6LocalSubnet
                0x0000000040163122                Se6Cmp
                0x000000004016314e                Se6GetIPAddrType
                0x000000004016325c                Se6IsInSameNetwork
                0x0000000040163323                Se6SendRawIp
                0x0000000040163495                Se6SendIpFragment
                0x00000000401634b1                Se6SendIp
                0x000000004016362e                Se6SendUdp
                0x000000004016375a                Se6SendIcmp
                0x0000000040163856                Se6SendIcmpNeighborSoliciation
                0x00000000401639cc                Se6SendNeighborSoliciationDoProcess
                0x0000000040163a86                Se6SendNeighborSoliciation
                0x0000000040163b0e                Se6ProcessNdpWaitList
                0x0000000040163bc8                Se6SendIcmpNeighborAdvertisement
                0x0000000040163d0c                Se6SendIcmpEchoResponse
                0x0000000040163dd1                Se6SendIcmpEchoRequest
                0x0000000040163e96                Se6IsSubnetMask
                0x0000000040163ef8                Se6SubnetMaskToInt
                0x0000000040163f52                Se6SendIcmpRouterAdvertisement
                0x000000004016412a                Se6MainProc
                0x0000000040164184                Se6CmpIpCombineList
                0x0000000040164215                Se6SendWaitingIpWait
                0x000000004016430c                Se6MacIpRelationKnown
                0x000000004016442e                Se6CmpNdpWaitEntry
                0x000000004016446f                Se6CmpNeighborEntry
                0x00000000401644b0                Se6ParseIpPacket
                0x0000000040164652                Se6IsZeroIP
                0x0000000040164672                Se6CheckUnicastAddress
                0x00000000401646a6                Se6IsNetworkPrefixAddress
                0x00000000401646e8                Se6IsGuestNode
                0x000000004016478c                Se6AddGuestNode
                0x0000000040164860                Se6RecvIpComplete
                0x0000000040164b17                Se6CombineIp
                0x0000000040164d2d                Se6RecvIp
                0x0000000040164f6a                Se6RecvEthPacket
                0x0000000040164fdc                Se6IPToStr
                0x000000004016513a                Se6IPItemStrToChars
                0x000000004016521a                Se6CheckIPItemStr
                0x0000000040165283                Se6ZeroIP
                0x00000000401652a3                Se6StrToIP
                0x000000004016546f                Se6GenerateEui64LocalAddress
                0x00000000401654e2                Se6Init
                0x0000000040165641                Se6GenerateEui64GlobalAddress
                0x0000000040165742                Se6CheckSubnetLength
                0x0000000040165760                SeTimerEntryCompare
                0x00000000401657a0                SeEthGetInfo
                0x00000000401657c4                SeEthSendAdd
                0x00000000401657f7                SeEthParseEthernetPacket
                0x00000000401658f8                SeEthGenRandMacAddress
                0x000000004016594a                SeLoad
                0x00000000401659af                SeSave
                0x00000000401659cb                SeTick
                0x00000000401659db                SeGetCurrentCpuId
                0x00000000401659eb                SeNewLock
                0x0000000040165a26                SeEthNew
                0x0000000040165b3c                SeTimerNew
                0x0000000040165bb2                SeLock
                0x0000000040165bfc                SeUnlock
                0x0000000040165c23                SeTick64Internal
                0x0000000040165c79                SeTick64
                0x0000000040165c98                SeInitKernel
                0x0000000040165cd2                SeEthGetNextRecvPacket
                0x0000000040165d1b                SeEthDeleteOldSenderMacList
                0x0000000040165def                SeEthIsSenderMacAddressExistsInList
                0x0000000040165e96                SeEthNicCallback
                0x0000000040165f97                SeEthAddSenderMacList
                0x0000000040166091                SeEthSend
                0x0000000040166117                SeEthSendAll
                0x00000000401661e8                SeTimerAdjust
                0x000000004016626e                SeTimerSet
                0x00000000401662f4                SeTimerCallback
                0x0000000040166404                SeDeleteLock
                0x000000004016642c                SeEthFree
                0x00000000401664d5                SeTimerFree
                0x000000004016652f                SeFreeKernel
                0x0000000040166545                SeLogArgs
                0x0000000040166583                SeWarning
                0x00000000401665c9                SeError
                0x000000004016660f                SeInfo
                0x0000000040166655                SeFatal
                0x000000004016669b                SeDebug
                0x00000000401666e1                SeDebugBin
                0x000000004016674f                SeLog
                0x0000000040166790                SeB64CodeToChar
                0x00000000401667d6                SeB64CharToCode
                0x000000004016681d                SeIsZero
                0x0000000040166866                SeReplaceListPointer
                0x00000000401668c2                SeIsInListStr
                0x0000000040166933                SeIsInList
                0x000000004016697e                SeCompareStr
                0x00000000401669a0                SeSetSortFlag
                0x00000000401669ae                SeSetCmp
                0x00000000401669cf                SeFastSwap
                0x0000000040166a03                SeQSort
                0x0000000040166d1b                SeSort
                0x0000000040166d53                SeBSearch
                0x0000000040166e22                SeSearch
                0x0000000040166e8a                SeFifoSize
                0x0000000040166e9d                SeDumpBuf
                0x0000000040166ec5                SeSeekBuf
                0x0000000040166efb                SeClearBuf
                0x0000000040166f14                SeSwap16
                0x0000000040166f2f                SeSwap32
                0x0000000040166f59                SeSwap64
                0x0000000040166fb0                SeMalloc
                0x0000000040166ff2                SeNewBuf
                0x0000000040167034                SeNewFifo
                0x0000000040167076                SeReAlloc
                0x00000000401670e7                SeAdjustBufSize
                0x000000004016711c                SeClearFifo
                0x0000000040167159                SeAdd
                0x00000000401671c3                SeInsert
                0x00000000401672f1                SeInsertStr
                0x0000000040167344                SeDelete
                0x00000000401673ff                SeDeleteAll
                0x0000000040167436                SePop
                0x000000004016749d                SePush
                0x0000000040167500                SeMemSize
                0x0000000040167532                SeFree
                0x0000000040167561                SeFreeBuf
                0x0000000040167589                SeFreeBufWithoutBuffer
                0x0000000040167599                SeFreeFifo
                0x00000000401675c1                SeFreeList
                0x00000000401675ea                SeFreeQueue
                0x0000000040167613                SeFreeStack
                0x000000004016763c                SeIsLittleEndian
                0x000000004016764f                SeEndian16
                0x0000000040167673                SeEndian32
                0x0000000040167696                SeEndian64
                0x00000000401676bd                SeIsBigEndian
                0x00000000401676d5                SeCmp
                0x0000000040167744                SeCmpEx
                0x0000000040167779                SeCmpBuf
                0x00000000401677ba                SeCopy
                0x00000000401677e2                SeClone
                0x000000004016782f                SeSwap
                0x0000000040167889                SeWriteBuf
                0x0000000040167900                SeMemToBuf
                0x0000000040167966                SeRandBuf
                0x00000000401679ac                SeCloneBuf
                0x00000000401679c7                SeWriteBufLine
                0x0000000040167a1f                SeWriteBufBuf
                0x0000000040167a3a                SeWriteBufInt
                0x0000000040167a7a                SeWriteBufInt64
                0x0000000040167abd                SeWriteBufStr
                0x0000000040167b2b                SeAddBufStr
                0x0000000040167b6a                SeReadDump
                0x0000000040167bcf                SePeekFifo
                0x0000000040167c0d                SePeekNext
                0x0000000040167c4b                SeReadFifo
                0x0000000040167d38                SeGetNext
                0x0000000040167d82                SeGetNextInt
                0x0000000040167db8                SeWriteFifo
                0x0000000040167e4c                SeInsertQueue
                0x0000000040167e82                SeInsertQueueInt
                0x0000000040167eb6                SeCopyToArray
                0x0000000040167eda                SeToArray
                0x0000000040167f1f                SeZero
                0x0000000040167f41                SeZeroMalloc
                0x0000000040167f79                SeNewList
                0x0000000040167fcc                SeCloneList
                0x000000004016801a                SeNewQueue
                0x000000004016804e                SeNewStack
                0x0000000040168089                SeB64Decode
                0x0000000040168258                SeB64Encode
                0x0000000040168411                SeReadBuf
                0x00000000401684ab                SeReadBufFromBuf
                0x0000000040168547                SeReadRemainBuf
                0x000000004016856f                SeReadBufInt
                0x00000000401685a4                SeReadBufInt64
                0x00000000401685dc                SeReadBufStr
                0x0000000040168690                SeBuildICMPv6OptionValue
                0x000000004016871f                SeBuildICMPv6Options
                0x00000000401687ca                SeParseICMPv6Options
                0x00000000401688a3                SeFreePacketList
                0x00000000401688df                SeFreePacketListWithoutBuffer
                0x000000004016891b                SeGetNextHeaderFromQueue
                0x0000000040168947                SeBuildAndAddIPv6PacketOptionHeader
                0x00000000401689e4                SeBuildIPv6Packet
                0x0000000040168bc9                SeBuildIPv6PacketWithFragment
                0x0000000040168d85                SeParseIPv6ExtHeader
                0x0000000040168e72                SeParseIPv6Packet
                0x0000000040168eed                SeParsePacketL3IPv6
                0x0000000040168f2e                SeParsePacketL3IPv4
                0x0000000040168fe7                SeParsePacketL3ARPv4
                0x0000000040169011                SeParsePacketL2
                0x00000000401690b3                SeFreePacket
                0x00000000401690c3                SeParsePacket
                0x0000000040169160                SeSecCmpIkeSa
                0x0000000040169238                SeSecCalcP2Iv
                0x00000000401692ec                SeSecCalcP1Iv
                0x0000000040169399                SeSecCalcKEYMATFull
                0x00000000401694a3                SeSecCalcKEYMAT
                0x000000004016956a                SeSecCalcKa
                0x000000004016963f                SeSecCalcP1KeySet
                0x0000000040169856                SeSecForceReconnect
                0x000000004016988f                SeSecLifeSeconds64bit
                0x00000000401698af                SeSecGetIPsecSa
                0x00000000401698fb                SeSecNewIkeSa
                0x00000000401699ac                SeSecFreeP1KeySet
                0x00000000401699fa                SeSecGenIkeSaMessageId
                0x0000000040169a69                SeSecGenIkeSaInitCookie
                0x0000000040169ad8                SeSecInitSaList
                0x0000000040169b12                SeSecSearchIPsecSaBySpi
                0x0000000040169ba1                SeSecSearchIkeSaBySpi
                0x0000000040169c6c                SeSecSearchIkeSa
                0x0000000040169d38                SeSecNewSpi
                0x0000000040169d4f                SeSecGenIPsecSASpi
                0x0000000040169dbe                SeSecStrToAuthMethod
                0x0000000040169e29                SeSecTick
                0x0000000040169e43                SeSecCheckIPsecSaExpires
                0x0000000040169f06                SeSecCheckIkeSaExpires
                0x0000000040169fc5                SeSecSetTimerCallback
                0x0000000040169fe5                SeSecAddTimer
                0x000000004016a005                SeSecDoInterval
                0x000000004016a076                SeSecNewIPsecSa
                0x000000004016a1e3                SeSecSetRecvUdpCallback
                0x000000004016a203                SeSecSetRecvEspCallback
                0x000000004016a223                SeSecSetRecvVirtualIpCallback
                0x000000004016a243                SeSecSendUdp
                0x000000004016a28c                SeSecProcessIkeSaMsgPhase1
                0x000000004016ab95                SeSecSendIkeSaMsgPhase2
                0x000000004016b0b7                SeSecSendIkeSaMsgPhase2FinalHash
                0x000000004016b257                SeSecProcessIkeSaMsgPhase2
                0x000000004016b6b6                SeSecSendIkeSaMsgInfo
                0x000000004016b91e                SeSecSendIkeSaMsgInfoSimple
                0x000000004016b986                SeSecSendIPsecSaDeleteMsg
                0x000000004016ba0a                SeSecFreeIPsecSa
                0x000000004016ba8a                SeSecDeleteExpiredIPsecSa
                0x000000004016bb30                SeSecProcessIkeSaMsgInfo
                0x000000004016be55                SeSecProcessIkeSaMsg
                0x000000004016bea9                SeSecUdpRecvCallback
                0x000000004016c115                SeSecSendIkeSaDeleteMsg
                0x000000004016c1b2                SeSecFreeIkeSa
                0x000000004016c36b                SeSecFreeSaList
                0x000000004016c3e4                SeSecFreeMain
                0x000000004016c3f4                SeSecFree
                0x000000004016c423                SeSecDeleteExpiredIkeSa
                0x000000004016c586                SeSecStartVpnConnect
                0x000000004016cbba                SeSecProcessMain
                0x000000004016ccac                SeSecTimerCallback
                0x000000004016ccbf                SeSecInitMain
                0x000000004016cce4                SeSecInit
                0x000000004016ce18                SeSecSendEsp
                0x000000004016ce51                SeSecVirtualIpRecvCallback
                0x000000004016d05a                SeSecSendVirtualIp
                0x000000004016d082                SeSecEspRecvCallback
                0x000000004016d230                SeMakeCharArray
                0x000000004016d264                SeFreeToken
                0x000000004016d2b2                SeNullTokenList
                0x000000004016d2e6                SeDefaultTokenSplitChars
                0x000000004016d2f1                Se4BitToHex
                0x000000004016d306                SeHexTo4Bit
                0x000000004016d342                SeStrCmp
                0x000000004016d3d6                SeStrnCmp
                0x000000004016d4a3                SeToUpper
                0x000000004016d4b7                SeStrnCmpi
                0x000000004016d582                SeStrCmpi
                0x000000004016d632                SeToLower
                0x000000004016d646                SeStrCheckLen
                0x000000004016d682                SeStrCheckSize
                0x000000004016d6a0                SeStrLen
                0x000000004016d6c7                SeStrSize
                0x000000004016d6df                SeStrCpy
                0x000000004016d7aa                SeStrCat
                0x000000004016d84c                SeStrUpper
                0x000000004016d88c                SeStrLower
                0x000000004016d8cc                SeToInt64
                0x000000004016d922                SeToInt
                0x000000004016d970                SeToStr64
                0x000000004016da37                SeToStr
                0x000000004016daf1                SeToHex
                0x000000004016dba5                SeToHex64
                0x000000004016dc59                SeHexToInt
                0x000000004016dce1                SeHexToInt64
                0x000000004016dd6b                SeTrimLeft
                0x000000004016de18                SeTrimRight
                0x000000004016df2a                SeTrim
                0x000000004016df4f                SeCopyStr
                0x000000004016dfa4                SeTrimCopy
                0x000000004016dfd1                SeUniqueToken
                0x000000004016e12b                SeSearchStrEx
                0x000000004016e27f                SeSearchStri
                0x000000004016e28f                SeSearchStr
                0x000000004016e29f                SeCalcReplaceStrEx
                0x000000004016e35a                SeReplaceStrEx
                0x000000004016e4af                SeReplaceStr
                0x000000004016e4c0                SeReplaceStri
                0x000000004016e4d1                SeTrimCrlf
                0x000000004016e518                SeStartWith
                0x000000004016e5be                SeEndWith
                0x000000004016e627                SeIsEmptyStr
                0x000000004016e671                SeNormalizeCrlf
                0x000000004016e704                SeIsCharInStr
                0x000000004016e75c                SeParseToken
                0x000000004016e8f7                SeParseTokenWithNullStr
                0x000000004016ea54                SeToStr3
                0x000000004016eba2                SeIsAllUpperStr
                0x000000004016ec14                SeIsAllLowerStr
                0x000000004016ec86                SeFormatEx
                0x000000004016f199                SeFormatArgs
                0x000000004016f1f9                SeFormat
                0x000000004016f22f                SeBinToStr
                0x000000004016f2d6                SeBinToStrEx
                0x000000004016f37f                SeMacToStr
                0x000000004016f3d0                SeStrToBin
                0x000000004016f4bf                SeStrToBinEx
                0x000000004016f532                SeStrToMac
                0x000000004016f545                SeReadNextLine
                0x000000004016f610                SeVpnRecvIpV6PacketCallback
                0x000000004016f660                SeVpnRecvIpV4PacketCallback
                0x000000004016f6b0                SeVpnInitIpStack
                0x000000004016fa12                SeVpnFreeIpStack
                0x000000004016fab2                SeVpnMainInit
                0x000000004016fbcb                SeVpnMainFree
                0x000000004016fbef                SeVpnRecvEtherPacket
                0x000000004016fc56                SeVpnSendEtherPacket
                0x000000004016fc7b                SeVpnMainProcRecvEtherPacket
                0x000000004016fd2a                SeVpnStatusChanged
                0x000000004016fd3c                SeVpnMainProcess
                0x000000004016fe3a                SeVpnMainHandler
                0x000000004016fe87                SeVpnEthRecvCallback
                0x000000004016fe9f                SeVpnTimerCallback
                0x000000004016feb7                SeVpnTick
                0x000000004016fecb                SeVpnAddTimer
                0x000000004016fedf                SeVpnDoInterval
                0x000000004016ff4f                SeVpnFreeConfig
                0x000000004016ff5f                SeVpnFree
                0x000000004016ffb0                SeVpnLoadConfig
                0x000000004017130e                SeVpnInit
                0x0000000040171430                SeVpn4ClientSetTimerCallback
                0x0000000040171443                SeVpn4ClientSetRecvUdpCallback
                0x0000000040171456                SeVpn4ClientSetRecvEspCallback
                0x0000000040171469                SeVpn4ClientSetRecvVirtualIpCallback
                0x000000004017147c                SeVpn4ClientSendVirtualIp
                0x00000000401714bb                SeVpn4ClientSendEsp
                0x000000004017153b                SeVpn4ClientSendUdp
                0x00000000401715c6                SeVpn4IPsecSendPing
                0x000000004017170e                SeVpn4IPsecInputFromPhysical
                0x00000000401717d9                SeVpn4IPsecInputFromVirtual
                0x000000004017184d                SeVpn4FreeIPsec
                0x0000000040171861                SeVpn4InitSecConfig
                0x0000000040171a42                SeVpn4InitIPsec
                0x0000000040171b13                SeVpn4DoInterval
                0x0000000040171b2b                SeVpn4Tick
                0x0000000040171b43                SeVpn4ClientGetTick
                0x0000000040171b58                SeVpn4IPsecMainProc
                0x0000000040171be0                SeVpn4MainProc
                0x0000000040171bfb                SeVpn4SetTimer
                0x0000000040171c0e                SeVpn4ClientAddTimer
                0x0000000040171c26                SeVpn4DhcpSendResponse
                0x0000000040171d3b                SeVpn4DhcpOptionsToBuf
                0x0000000040171df9                SeVpn4NewDhcpOption
                0x0000000040171e60                SeVpn4DhcpBuildDhcpOptionList
                0x000000004017203e                SeVpn4DhcpSearchOption
                0x000000004017207a                SeVpn4DhcpFreeOptionList
                0x00000000401720d0                SeVpn4DhcpParseOptionListMain
                0x00000000401721be                SeVpn4DhcpParseOptionList
                0x00000000401722b1                SeVpn4DhcpServer
                0x000000004017257c                SeVpn4RecvPacketPhysical
                0x0000000040172651                SeVpn4RecvPacketVirtual
                0x00000000401727b3                SeVpn4Init
                0x0000000040172818                SeVpn4Free
                0x0000000040172850                SeVpn6ClientSetTimerCallback
                0x0000000040172863                SeVpn6ClientSetRecvUdpCallback
                0x0000000040172876                SeVpn6ClientSetRecvEspCallback
                0x0000000040172889                SeVpn6ClientSetRecvVirtualIpCallback
                0x000000004017289c                SeVpn6ClientSendVirtualIp
                0x00000000401728db                SeVpn6ClientSendEsp
                0x000000004017297b                SeVpn6ClientSendUdp
                0x0000000040172a30                SeVpn6IPsecSendPing
                0x0000000040172c16                SeVpn6UpdateGuestOsIpAddress
                0x0000000040172cea                SeVpn6IPsecInputFromPhysical
                0x0000000040172db5                SeVpn6IPsecInputFromVirtual
                0x0000000040172de9                SeVpn6InitSecConfig
                0x0000000040172fdb                SeVpn6InitIPsec
                0x00000000401730bc                SeVpn6FreeIPsec
                0x00000000401730d0                SeVpn6DoInterval
                0x00000000401730e8                SeVpn6Tick
                0x0000000040173100                SeVpn6ClientGetTick
                0x0000000040173115                SeVpn6IPsecMainProc
                0x00000000401731a5                SeVpn6MainProc
                0x00000000401731c0                SeVpn6SetTimer
                0x00000000401731d3                SeVpn6ClientAddTimer
                0x00000000401731eb                SeVpn6RecvPacketPhysical
                0x000000004017326d                SeVpn6RecvPacketVirtual
                0x00000000401733a4                SeVpn6Init
                0x000000004017341a                SeVpn6Free
                0x0000000040173450                crypt_sys_rsa_sign
                0x00000000401737e5                msg_usb_bulk_read
                0x0000000040173845                msg_usb_bulk_write
                0x00000000401738a5                msg_usb_claim_interface
                0x00000000401738eb                msg_usb_close
                0x0000000040173945                msg_usb_control_msg
                0x00000000401739ba                msg_usb_find_busses
                0x00000000401739f8                msg_usb_find_devices
                0x0000000040173a36                msg_usb_get_busses
                0x0000000040173a9d                msg_usb_get_string_simple
                0x0000000040173af9                msg_usb_init
                0x0000000040173b0e                msg_usb_open
                0x0000000040173b87                msg_usb_release_interface
                0x0000000040173bcd                msg_usb_reset
                0x0000000040173c10                IDMan_StReadSetData
                0x00000000401742f5                idman_user_init
                0x0000000040174350                IDMan_IPIdPassListMalloc
                0x000000004017443b                IDMan_IPRetJudgment
                0x00000000401744b7                IDMan_IPFinalizeReader
                0x00000000401744d9                IDMan_IPFinalize
                0x000000004017452f                IDMan_IPInitialize
                0x0000000040174638                IDMan_IPInitializeReader
                0x0000000040174665                IDMan_getMemoryFree
                0x00000000401746ad                IDMan_PaddingParamChk
                0x0000000040174772                IDMan_CmPadding
                0x000000004017492e                IDMan_CmPadding2
                0x0000000040174aaa                IDMan_IPgetCertPKCS
                0x00000000401751a2                IDMan_IPgetCertIdxPKCS
                0x0000000040175675                IDMan_IPCheckPKC
                0x000000004017589e                IDMan_CheckCardStatus
                0x00000000401758d0                IDMan_IPgSParamChk
                0x0000000040175a00                IDMan_IPgIdxSParamChk
                0x0000000040175a38                IDMan_IPgetPrivateKey
                0x0000000040175c2b                IDMan_IPgetHash
                0x0000000040175d22                IDMan_IPCrSignature
                0x0000000040175e8a                IDMan_generateSignature
                0x0000000040175fc4                IDMan_generateSignatureByIndex
                0x00000000401760eb                IDMan_EncryptByIndex
                0x0000000040176214                IDMan_IPgCParamChk
                0x0000000040176306                IDMan_getCertificate
                0x0000000040176628                IDMan_IPgCIndexParamChk
                0x0000000040176661                IDMan_getCertificateByIndex
                0x00000000401769f8                IDMan_getStaticPassword
                0x0000000040176d10                IDMan_IPuAPKCS11ParamChk
                0x0000000040176e11                IDMan_IPuAPKCS11IdxParamChk
                0x0000000040176e38                IDMan_IPgetCertPkeyPKCSx
                0x00000000401772fb                IDMan_IPgetCertPkeyIdxPKCSx
                0x0000000040177724                IDMan_IPgetCertPkeyPKCSy
                0x0000000040177872                IDMan_IPCheckCrlPkcX
                0x00000000401779af                IDMan_IPgetMakeRandData
                0x0000000040177a27                IDMan_IPMkRandHash
                0x0000000040177ae4                IDMan_IPgetPrivateKeyPKCSx
                0x0000000040177cb7                IDMan_IPSignatureVerify
                0x0000000040177e30                IDMan_userAuthPKCS11
                0x00000000401782b5                IDMan_userAuthPKCS11ByIndex
                0x0000000040178740                IDMan_IPvSParamChk
                0x00000000401788be                IDMan_IPvSIdxParamChk
                0x0000000040178921                IDMan_IPMkPublicKeyObj
                0x0000000040178a65                IDMan_IPCheckSignature
                0x0000000040178c1f                IDMan_verifySignature
                0x0000000040178dfc                IDMan_verifySignatureByIndex
                0x0000000040178fc0                CardEstablishContext
                0x0000000040178fd8                CardReleaseContext
                0x0000000040179009                CardListReaders
                0x0000000040179021                CardConnect
                0x000000004017905f                CardDisconnect
                0x000000004017907c                CardStatus
                0x00000000401790cd                CardTransmit
                0x0000000040179109                SelectFileDF
                0x00000000401791fc                SelectFileEF
                0x00000000401792e7                Verify
                0x00000000401793fb                InternalAuth
                0x000000004017953f                ReadBinary
                0x0000000040179b2f                UpdateBinary
                0x0000000040179c59                GetICCardData
                0x000000004017a040                GetUlByTxt
                0x000000004017a07f                GetVerByTex
                0x000000004017a167                GetUlByByte
                0x000000004017a1ac                TransHex2Tex
                0x000000004017a23f                TransTex2Hex
                0x000000004017a2f6                GetLength
                0x000000004017a363                SetLength
                0x000000004017a3c8                GetTlvByBuf
                0x000000004017a745                GetDirDataByTlv
                0x000000004017a86a                GetOdfDataByTlv
                0x000000004017a9dd                GetTokenDataByTlv
                0x000000004017ae43                AddObjTblByTlv
                0x000000004017b4e7                AddCertDataByBuf
                0x000000004017b5ed                AddIdPassDataByBuf
                0x000000004017b98d                GetValueData
                0x000000004017bd30                AddElem
                0x000000004017bdce                SetElem
                0x000000004017be95                GetElem
                0x000000004017bed1                GetAttrValType
                0x000000004017c045                DestroyAttribute
                0x000000004017c08f                DestroyTlvData
                0x000000004017c0a4                DestroyElem
                0x000000004017c12a                DestroyList
                0x000000004017c167                DestroySessionData
                0x000000004017c1a5                DestroyTokenData
                0x000000004017c205                DestroySlotData
                0x000000004017c241                DelElem
                0x000000004017c2b0                C_GetFunctionList
                0x000000004017c2c2                C_Initialize
                0x000000004017c42f                C_Finalize
                0x000000004017c4ca                C_GetInfo
                0x000000004017c550                C_GetSlotList
                0x000000004017ce34                C_GetSlotInfo
                0x000000004017cf1c                C_GetTokenInfo
                0x000000004017d753                C_GetMechanismList
                0x000000004017d824                C_GetMechanismInfo
                0x000000004017d8e0                C_OpenSession
                0x000000004017da9b                C_CloseSession
                0x000000004017db74                C_CloseAllSessions
                0x000000004017dc80                C_GetSessionInfo
                0x000000004017dcfc                C_Login
                0x000000004017e153                C_Logout
                0x000000004017e26a                C_FindObjectsInit
                0x000000004017e4e1                C_FindObjects
                0x000000004017ea3a                C_FindObjectsFinal
                0x000000004017eab0                C_GetAttributeValue
                0x000000004017edd1                C_SignInit
                0x000000004017ee98                C_Sign
                0x000000004017f21f                C_DigestInit
                0x000000004017f29a                C_DigestUpdate
                0x000000004017f322                C_DigestFinal
                0x000000004017f469                C_VerifyInit
                0x000000004017f530                C_Verify
                0x000000004017f6a2                C_CreateObject
                0x000000004017f94f                C_DestroyObject
                0x000000004017fa0f                C_SetAttributeValue
                0x0000000040180619                C_GetCardStatus
                0x00000000401806b0                IDMan_StFree
                0x00000000401806c0                IDMan_StMemcpy
                0x00000000401806e4                IDMan_StMemset
                0x0000000040180702                IDMan_StMalloc
                0x0000000040180749                IDMan_StMemcmp
                0x00000000401807a2                IDMan_StStrlen
                0x00000000401807bc                IDMan_StStrcat
                0x00000000401807f9                IDMan_StStrchr
                0x0000000040180836                IDMan_StStrcpy
                0x000000004018085d                IDMan_StStrcmp
                0x00000000401808a8                StIsspace
                0x0000000040180925                StIsdigit
                0x0000000040180937                IDMan_StAtoi
                0x0000000040180993                IDMan_StAtol
                0x00000000401809fb                IDMan_CmMkHash
                0x0000000040180bb6                IDMan_CmChgRSA
                0x0000000040180d7f                IDMan_CmGetDN
                0x0000000040181026                IDMan_CmGetCertificateSign
                0x0000000040181250                IDMan_CmGetPublicKey
                0x000000004018142c                IDMan_CmMakeRand
                0x00000000401814ca                IDMan_CmCheckCRL
                0x0000000040181850                IDMan_SCardEstablishContext
                0x000000004018186d                IDMan_SCardReleaseContext
                0x0000000040181878                IDMan_SCardListReaders
                0x00000000401818a8                IDMan_SCardConnect
                0x00000000401818d8                IDMan_SCardDisconnect
                0x00000000401818e3                IDMan_SCardStatus
                0x0000000040181965                IDMan_SCardSizeLongToChar
                0x00000000401819a6                IDMan_SCardSetBinay
                0x0000000040181d45                IDMan_SCardTransmit
                0x0000000040181db0                EHDestroyEventHandler
                0x0000000040181e1d                EHInitEventHandler
                0x0000000040181ed3                EHStatusHandler
                0x0000000040182070                HPSearchHotPluggables
                0x00000000401823c0                PHGetProtocol
                0x000000004018279b                PHSetProtocol
                0x0000000040182804                RFAddReader
                0x000000004018291f                RFRemoveReader
                0x00000000401829d9                RFReaderInfoById
                0x0000000040182a09                RFCheckReaderEventState
                0x0000000040182a40                SCardEstablishContext
                0x0000000040182b30                SCardListReaders
                0x0000000040182bdd                SCardConnect
                0x0000000040182e61                SCardDisconnect
                0x0000000040183012                SCardBeginTransaction
                0x0000000040183066                SCardEndTransaction
                0x000000004018322e                SCardStatus
                0x0000000040183439                SCardReleaseContext
                0x00000000401834ff                SCardTransmit
                0x0000000040183750                SetATR
                0x00000000401839bd                GetIFSCData
                0x0000000040183a13                GetBWICWIData
                0x0000000040183ab1                IFDHCloseChannel
                0x0000000040183b3d                IFDHGetCapabilities
                0x0000000040183b7c                IFDHSetProtocolParameters
                0x000000004018427b                IFDHPowerICC
                0x000000004018447a                IFDHTransmitToICC
                0x000000004018473a                IFDHControl
                0x0000000040184853                IFDHICCPresence
                0x0000000040184908                IFDHCreateChannel
                0x00000000401849bc                FindBaudRateTable
                0x00000000401849fc                ExchangePPSData
                0x00000000401850e6                InitLeaderCardProtocol
                0x00000000401851ff                T1XfrBlockTPDU
                0x000000004018586c                T1NegociateIFSD
                0x00000000401859b4                CardStateConfirm
                0x00000000401859e9                GetCardStatus
                0x0000000040185ae0                PowerOn
                0x0000000040185ca0                PowerOff
                0x0000000040185e08                CardMechanical
                0x0000000040185f20                TransmitPPS
                0x00000000401860ba                TransmitCommand
                0x0000000040186187                ReceiveReply
                0x000000004018634c                BlockSendCardT1
                0x00000000401865a4                ReadDataT0
                0x0000000040186669                T0XfrBlockCHAR
                0x0000000040186bef                T0XfrBlockTPDU
                0x0000000040186c71                T1XfrBlockExtendedAPDU
                0x0000000040186feb                OpenUSB
                0x0000000040187385                WriteUSB
                0x00000000401873b6                ReadUSB
                0x0000000040187414                CloseUSB
                0x0000000040187484                AES_set_encrypt_key
                0x0000000040187890                AES_set_decrypt_key
                0x0000000040187ab6                AES_encrypt
                0x0000000040187f6f                AES_decrypt
                0x0000000040188410                BIO_set
                0x00000000401884e5                BIO_new
                0x000000004018855e                BIO_free
                0x000000004018860d                BIO_vfree
                0x0000000040188618                BIO_clear_flags
                0x0000000040188623                BIO_test_flags
                0x000000004018862e                BIO_set_flags
                0x0000000040188637                BIO_get_callback
                0x0000000040188641                BIO_set_callback
                0x000000004018864b                BIO_set_callback_arg
                0x0000000040188655                BIO_get_callback_arg
                0x000000004018865f                BIO_method_name
                0x000000004018866c                BIO_method_type
                0x0000000040188677                BIO_read
                0x0000000040188772                BIO_write
                0x0000000040188876                BIO_puts
                0x0000000040188968                BIO_gets
                0x0000000040188a58                BIO_indent
                0x0000000040188a9d                BIO_ctrl
                0x0000000040188b73                BIO_ptr_ctrl
                0x0000000040188b9e                BIO_int_ctrl
                0x0000000040188bb4                BIO_callback_ctrl
                0x0000000040188c80                BIO_ctrl_pending
                0x0000000040188c9a                BIO_ctrl_wpending
                0x0000000040188cb4                BIO_push
                0x0000000040188d02                BIO_pop
                0x0000000040188d67                BIO_get_retry_BIO
                0x0000000040188db6                BIO_get_retry_reason
                0x0000000040188dbf                BIO_find_type
                0x0000000040188df4                BIO_next
                0x0000000040188e0a                BIO_free_all
                0x0000000040188e38                BIO_dup_chain
                0x0000000040188f27                BIO_copy_next_retry
                0x0000000040188f54                BIO_get_ex_new_index
                0x0000000040188f73                BIO_set_ex_data
                0x0000000040188f82                BIO_get_ex_data
                0x0000000040188f91                BIO_number_read
                0x0000000040188fa5                BIO_number_written
                0x000000004018910f                BN_set_params
                0x00000000401891a2                BN_get_params
                0x00000000401891d7                BN_value_one
                0x00000000401891e2                BN_options
                0x0000000040189224                BN_num_bits_word
                0x000000004018927f                BN_num_bits
                0x00000000401892a9                BN_clear_free
                0x0000000040189310                BN_free
                0x0000000040189359                BN_init
                0x000000004018936e                BN_new
                0x00000000401893e1                bn_expand2
                0x0000000040189439                BN_copy
                0x0000000040189527                BN_dup
                0x000000004018957b                bn_dup_expand
                0x00000000401895fd                BN_swap
                0x0000000040189660                BN_clear
                0x0000000040189699                BN_get_word
                0x00000000401896bb                BN_set_word
                0x000000004018971e                BN_bin2bn
                0x0000000040189861                BN_bn2bin
                0x00000000401898cf                BN_ucmp
                0x000000004018991c                BN_cmp
                0x00000000401899d0                BN_set_bit
                0x0000000040189a95                BN_clear_bit
                0x0000000040189b13                BN_is_bit_set
                0x0000000040189b50                BN_mask_bits
                0x0000000040189bec                BN_set_negative
                0x0000000040189c0c                bn_cmp_words
                0x0000000040189c6e                bn_cmp_part_words
                0x0000000040189d00                BN_bn2hex
                0x0000000040189de6                BN_bn2dec
                0x0000000040189ff5                BN_hex2bn
                0x000000004018a1d2                BN_dec2bn
                0x000000004018a383                BN_asc2bn
                0x000000004018a3f3                BN_print
                0x000000004018a8d7                BN_pseudo_rand
                0x000000004018a8f1                BN_rand
                0x000000004018a90b                BN_bntest_rand
                0x000000004018a925                BN_rand_range
                0x000000004018a93b                BN_pseudo_rand_range
                0x000000004018a960                BN_mod_word
                0x000000004018a9b5                BN_div_word
                0x000000004018aa9b                BN_sub_word
                0x000000004018ab9a                BN_add_word
                0x000000004018ac6d                BN_mul_word
                0x000000004018b154                BIO_s_mem
                0x000000004018b15f                BIO_new_mem_buf
                0x000000004018b1d8                BUF_MEM_new
                0x000000004018b23f                BUF_MEM_free
                0x000000004018b27f                BUF_MEM_grow
                0x000000004018b379                BUF_MEM_grow_clean
                0x000000004018b48f                BUF_memdup
                0x000000004018b504                BUF_strlcpy
                0x000000004018b568                BUF_strndup
                0x000000004018b5e7                BUF_strdup
                0x000000004018b613                BUF_strlcat
                0x000000004018b64d                BUF_reverse
                0x000000004018b6a4                OpenSSL_add_all_ciphers
                0x000000004018bb50                OpenSSL_add_all_digests
                0x000000004018bcc0                CRYPTO_get_new_lockid
                0x000000004018bd78                CRYPTO_num_locks
                0x000000004018bd83                CRYPTO_get_dynlock_create_callback
                0x000000004018bd90                CRYPTO_get_dynlock_lock_callback
                0x000000004018bd9d                CRYPTO_get_dynlock_destroy_callback
                0x000000004018bdaa                CRYPTO_set_dynlock_create_callback
                0x000000004018bdb7                CRYPTO_set_dynlock_lock_callback
                0x000000004018bdc4                CRYPTO_set_dynlock_destroy_callback
                0x000000004018bdd1                CRYPTO_get_locking_callback
                0x000000004018bdde                CRYPTO_get_add_lock_callback
                0x000000004018bdeb                CRYPTO_set_locking_callback
                0x000000004018bdf8                CRYPTO_set_add_lock_callback
                0x000000004018be05                CRYPTO_THREADID_set_numeric
                0x000000004018be38                CRYPTO_THREADID_set_pointer
                0x000000004018be6e                CRYPTO_THREADID_set_callback
                0x000000004018be8c                CRYPTO_THREADID_get_callback
                0x000000004018be99                CRYPTO_THREADID_current
                0x000000004018bee3                CRYPTO_THREADID_cmp
                0x000000004018bef3                CRYPTO_THREADID_cpy
                0x000000004018bf03                CRYPTO_THREADID_hash
                0x000000004018bf0d                CRYPTO_get_id_callback
                0x000000004018bf1a                CRYPTO_set_id_callback
                0x000000004018bf27                CRYPTO_thread_id
                0x000000004018bf40                CRYPTO_get_lock_name
                0x000000004018bf93                OPENSSL_ia32cap_loc
                0x000000004018bf9e                OPENSSL_cpuid_setup
                0x000000004018bfa4                OPENSSL_showfatal
                0x000000004018bfef                OPENSSL_isservice
                0x000000004018bffa                OpenSSLDie
                0x000000004018c01c                CRYPTO_lock
                0x000000004018c0b3                CRYPTO_add_lock
                0x000000004018c137                CRYPTO_get_dynlock_value
                0x000000004018c1d6                CRYPTO_destroy_dynlockid
                0x000000004018c2ce                CRYPTO_get_new_dynlockid
                0x000000004018c4ea                OPENSSL_stderr
                0x000000004018c4f8                DES_encrypt1
                0x000000004018c906                DES_encrypt2
                0x000000004018cc11                DES_encrypt3
                0x000000004018cd6e                DES_decrypt3
                0x000000004018cece                DES_ncbc_encrypt
                0x000000004018d50b                DES_ede3_cbc_encrypt
                0x000000004018df66                DH_generate_key
                0x000000004018df76                DH_compute_key
                0x000000004018df86                DH_OpenSSL
                0x000000004018df94                DH_set_default_method
                0x000000004018dfa1                DH_get_default_method
                0x000000004018dfc4                DH_set_method
                0x000000004018e011                DH_new_method
                0x000000004018e127                DH_new
                0x000000004018e137                DH_free
                0x000000004018e217                DH_up_ref
                0x000000004018e244                DH_get_ex_new_index
                0x000000004018e263                DH_set_ex_data
                0x000000004018e272                DH_get_ex_data
                0x000000004018e281                DH_size
                0x000000004018ef8a                EVP_aes_128_cbc
                0x000000004018ef95                EVP_aes_128_cfb128
                0x000000004018efa0                EVP_aes_128_ofb
                0x000000004018efab                EVP_aes_128_ecb
                0x000000004018efb6                EVP_aes_192_cbc
                0x000000004018efc1                EVP_aes_192_cfb128
                0x000000004018efcc                EVP_aes_192_ofb
                0x000000004018efd7                EVP_aes_192_ecb
                0x000000004018efe2                EVP_aes_256_cbc
                0x000000004018efed                EVP_aes_256_cfb128
                0x000000004018eff8                EVP_aes_256_ofb
                0x000000004018f003                EVP_aes_256_ecb
                0x000000004018f00e                EVP_aes_128_cfb1
                0x000000004018f019                EVP_aes_192_cfb1
                0x000000004018f024                EVP_aes_256_cfb1
                0x000000004018f02f                EVP_aes_128_cfb8
                0x000000004018f03a                EVP_aes_192_cfb8
                0x000000004018f045                EVP_aes_256_cfb8
                0x000000004018f366                EVP_bf_cbc
                0x000000004018f371                EVP_bf_cfb64
                0x000000004018f37c                EVP_bf_ofb
                0x000000004018f387                EVP_bf_ecb
                0x000000004018f6aa                EVP_cast5_cbc
                0x000000004018f6b5                EVP_cast5_cfb64
                0x000000004018f6c0                EVP_cast5_ofb
                0x000000004018f6cb                EVP_cast5_ecb
                0x000000004018fc8b                EVP_des_cbc
                0x000000004018fc96                EVP_des_cfb64
                0x000000004018fca1                EVP_des_ofb
                0x000000004018fcac                EVP_des_ecb
                0x000000004018fcb7                EVP_des_cfb1
                0x000000004018fcc2                EVP_des_cfb8
                0x00000000401902f6                EVP_des_ede_cbc
                0x0000000040190301                EVP_des_ede_cfb64
                0x000000004019030c                EVP_des_ede_ofb
                0x0000000040190317                EVP_des_ede_ecb
                0x0000000040190322                EVP_des_ede3_cbc
                0x000000004019032d                EVP_des_ede3_cfb64
                0x0000000040190338                EVP_des_ede3_ofb
                0x0000000040190343                EVP_des_ede3_ecb
                0x000000004019034e                EVP_des_ede3_cfb1
                0x0000000040190359                EVP_des_ede3_cfb8
                0x0000000040190364                EVP_des_ede
                0x000000004019036f                EVP_des_ede3
                0x00000000401906f7                EVP_idea_cbc
                0x0000000040190702                EVP_idea_cfb64
                0x000000004019070d                EVP_idea_ofb
                0x0000000040190718                EVP_idea_ecb
                0x0000000040190c5f                EVP_rc2_cbc
                0x0000000040190c6a                EVP_rc2_cfb64
                0x0000000040190c75                EVP_rc2_ofb
                0x0000000040190c80                EVP_rc2_ecb
                0x0000000040190c8b                EVP_rc2_64_cbc
                0x0000000040190c96                EVP_rc2_40_cbc
                0x0000000040190cf9                EVP_rc4
                0x0000000040190d04                EVP_rc4_40
                0x0000000040190e7a                EVP_desx_cbc
                0x0000000040190e88                DES_ecb3_encrypt
                0x0000000040190f58                DES_options
                0x0000000040190fac                DES_ecb_encrypt
                0x0000000040191774                ERR_get_implementation
                0x0000000040191786                ERR_set_implementation
                0x00000000401917ef                ERR_load_ERR_strings
                0x0000000040191921                ERR_load_strings
                0x0000000040191951                ERR_unload_strings
                0x00000000401919a3                ERR_free_strings
                0x00000000401919b8                ERR_get_string_table
                0x00000000401919d1                ERR_get_err_state_table
                0x00000000401919eb                ERR_release_err_state_table
                0x0000000040191a10                ERR_lib_error_string
                0x0000000040191a50                ERR_func_error_string
                0x0000000040191a90                ERR_reason_error_string
                0x0000000040191aff                ERR_error_string_n
                0x0000000040191c77                ERR_error_string
                0x0000000040191ca6                ERR_remove_thread_state
                0x0000000040191ceb                ERR_remove_state
                0x0000000040191cfb                ERR_get_state
                0x0000000040191ff3                ERR_peek_last_error_line_data
                0x0000000040192014                ERR_peek_last_error_line
                0x000000004019203b                ERR_peek_last_error
                0x0000000040192066                ERR_peek_error_line_data
                0x0000000040192087                ERR_peek_error_line
                0x00000000401920ae                ERR_peek_error
                0x00000000401920d9                ERR_get_error_line_data
                0x00000000401920fa                ERR_get_error_line
                0x0000000040192121                ERR_get_error
                0x000000004019214c                ERR_clear_error
                0x0000000040192207                ERR_put_error
                0x000000004019230f                ERR_get_next_error_library
                0x0000000040192324                ERR_set_error_data
                0x00000000401923a1                ERR_add_error_data
                0x00000000401924de                ERR_set_mark
                0x0000000040192509                ERR_pop_to_mark
                0x00000000401925e0                ERR_load_crypto_strings
                0x000000004019267c                ASN1_TYPE_set_octetstring
                0x00000000401926f4                ASN1_TYPE_get_octetstring
                0x0000000040192750                ASN1_TYPE_set_int_octetstring
                0x000000004019287d                ASN1_TYPE_get_int_octetstring
                0x0000000040192a70                EVP_CIPHER_CTX_init
                0x0000000040192a85                EVP_CIPHER_CTX_new
                0x0000000040192abc                EVP_EncryptUpdate
                0x0000000040192c68                EVP_EncryptFinal_ex
                0x0000000040192d3c                EVP_EncryptFinal
                0x0000000040192d47                EVP_DecryptUpdate
                0x0000000040192e76                EVP_CipherUpdate
                0x0000000040192e91                EVP_DecryptFinal_ex
                0x000000004019302c                EVP_DecryptFinal
                0x0000000040193037                EVP_CipherFinal
                0x0000000040193057                EVP_CipherFinal_ex
                0x0000000040193077                EVP_CIPHER_CTX_cleanup
                0x00000000401930e2                EVP_CIPHER_CTX_free
                0x0000000040193107                EVP_CIPHER_CTX_set_padding
                0x0000000040193128                EVP_CIPHER_CTX_ctrl
                0x00000000401931b8                EVP_CIPHER_CTX_set_key_length
                0x0000000040193219                EVP_CipherInit_ex
                0x000000004019346a                EVP_DecryptInit_ex
                0x000000004019347b                EVP_EncryptInit_ex
                0x000000004019348c                EVP_CipherInit
                0x00000000401934f0                EVP_DecryptInit
                0x0000000040193501                EVP_EncryptInit
                0x0000000040193512                EVP_CIPHER_CTX_rand_key
                0x0000000040193548                EVP_CIPHER_CTX_copy
                0x0000000040193628                ERR_load_EVP_strings
                0x0000000040193660                EVP_CIPHER_param_to_asn1
                0x000000004019367b                EVP_CIPHER_asn1_to_param
                0x0000000040193696                EVP_CIPHER_block_size
                0x000000004019369f                EVP_CIPHER_CTX_block_size
                0x00000000401936ab                EVP_Cipher
                0x00000000401936b9                EVP_CIPHER_CTX_cipher
                0x00000000401936c2                EVP_CIPHER_flags
                0x00000000401936cc                EVP_CIPHER_CTX_flags
                0x00000000401936d9                EVP_CIPHER_CTX_get_app_data
                0x00000000401936e3                EVP_CIPHER_CTX_set_app_data
                0x00000000401936ed                EVP_CIPHER_iv_length
                0x00000000401936f6                EVP_CIPHER_CTX_iv_length
                0x0000000040193702                EVP_CIPHER_set_asn1_iv
                0x0000000040193764                EVP_CIPHER_get_asn1_iv
                0x00000000401937fc                EVP_CIPHER_key_length
                0x0000000040193805                EVP_CIPHER_CTX_key_length
                0x000000004019380e                EVP_CIPHER_nid
                0x0000000040193816                EVP_CIPHER_type
                0x0000000040193955                EVP_CIPHER_CTX_nid
                0x0000000040193960                EVP_MD_block_size
                0x0000000040193969                EVP_MD_type
                0x0000000040193971                EVP_MD_pkey_type
                0x000000004019397a                EVP_MD_size
                0x00000000401939ac                EVP_MD_flags
                0x00000000401939b6                EVP_MD_CTX_md
                0x00000000401939cb                EVP_MD_CTX_set_flags
                0x00000000401939d8                EVP_MD_CTX_clear_flags
                0x00000000401939e7                EVP_MD_CTX_test_flags
                0x00000000401939f2                EVP_CIPHER_CTX_set_flags
                0x00000000401939ff                EVP_CIPHER_CTX_clear_flags
                0x0000000040193a0e                EVP_CIPHER_CTX_test_flags
                0x0000000040193e29                CRYPTO_get_ex_data_implementation
                0x0000000040193e45                CRYPTO_set_ex_data_implementation
                0x0000000040193eae                CRYPTO_ex_data_new_class
                0x0000000040193ecc                CRYPTO_cleanup_all_ex_data
                0x0000000040193eeb                CRYPTO_get_ex_new_index
                0x0000000040193f5a                CRYPTO_new_ex_data
                0x0000000040193fa7                CRYPTO_dup_ex_data
                0x0000000040193ff4                CRYPTO_free_ex_data
                0x0000000040194041                CRYPTO_set_ex_data
                0x00000000401940fa                CRYPTO_get_ex_data
                0x00000000401945f4                idea_encrypt
                0x0000000040194f38                idea_cbc_encrypt
                0x0000000040195560                idea_cfb64_encrypt
                0x0000000040195780                idea_options
                0x000000004019578b                idea_ecb_encrypt
                0x0000000040195844                idea_ofb64_encrypt
                0x0000000040195a7d                idea_set_encrypt_key
                0x0000000040195c06                idea_set_decrypt_key
                0x0000000040195dfd                lh_strhash
                0x0000000040195e70                lh_new
                0x0000000040195fd1                lh_free
                0x000000004019603c                lh_insert
                0x00000000401961c8                lh_delete
                0x00000000401962f4                lh_retrieve
                0x0000000040196337                lh_doall
                0x0000000040196355                lh_doall_arg
                0x0000000040196370                lh_num_items
                0x00000000401963b7                EVP_dss
                0x00000000401963f7                EVP_dss1
                0x0000000040196437                EVP_ecdsa
                0x0000000040196477                EVP_md4
                0x00000000401964b7                EVP_md5
                0x00000000401964f7                EVP_ripemd160
                0x0000000040196537                EVP_sha
                0x00000000401965fb                EVP_sha1
                0x0000000040196606                EVP_sha224
                0x0000000040196611                EVP_sha256
                0x000000004019661c                EVP_sha384
                0x0000000040196627                EVP_sha512
                0x0000000040196634                MD4_Init
                0x0000000040196676                md4_block_data_order
                0x0000000040196c39                MD4_Final
                0x0000000040196d06                MD4_Transform
                0x0000000040196d16                MD4_Update
                0x0000000040196e58                MD5_Init
                0x0000000040196e9a                md5_block_data_order
                0x00000000401976da                MD5_Final
                0x00000000401977a7                MD5_Transform
                0x00000000401977b7                MD5_Update
                0x00000000401978f8                MD5
                0x0000000040197994                CRYPTO_set_mem_functions
                0x0000000040197a04                CRYPTO_set_mem_ex_functions
                0x0000000040197a74                CRYPTO_set_locked_mem_functions
                0x0000000040197ab4                CRYPTO_set_locked_mem_ex_functions
                0x0000000040197af4                CRYPTO_set_mem_debug_functions
                0x0000000040197b2d                CRYPTO_get_mem_functions
                0x0000000040197b82                CRYPTO_get_mem_ex_functions
                0x0000000040197bd3                CRYPTO_get_locked_mem_functions
                0x0000000040197c08                CRYPTO_get_locked_mem_ex_functions
                0x0000000040197c3b                CRYPTO_get_mem_debug_functions
                0x0000000040197c8c                CRYPTO_malloc_locked
                0x0000000040197d48                CRYPTO_free_locked
                0x0000000040197d8f                CRYPTO_malloc
                0x0000000040197e4b                CRYPTO_strdup
                0x0000000040197e9a                CRYPTO_realloc
                0x0000000040197f55                CRYPTO_realloc_clean
                0x0000000040198030                CRYPTO_free
                0x0000000040198077                CRYPTO_remalloc
                0x00000000401980a4                CRYPTO_set_mem_debug_options
                0x00000000401980b8                CRYPTO_get_mem_debug_options
                0x00000000401980d4                OPENSSL_cleanse
                0x000000004019854c                CRYPTO_mem_ctrl
                0x00000000401986d6                CRYPTO_is_mem_check_on
                0x0000000040198752                CRYPTO_dbg_set_options
                0x000000004019875f                CRYPTO_dbg_get_options
                0x000000004019876c                CRYPTO_push_info_
                0x000000004019884b                CRYPTO_pop_info
                0x000000004019888d                CRYPTO_remove_all_info
                0x00000000401988d0                CRYPTO_dbg_malloc
                0x0000000040198a6f                CRYPTO_dbg_free
                0x0000000040198ae4                CRYPTO_dbg_realloc
                0x0000000040198b84                CRYPTO_mem_leaks
                0x0000000040198ca3                CRYPTO_mem_leaks_cb
                0x0000000040198d7e                EVP_add_cipher
                0x0000000040198dca                EVP_add_digest
                0x0000000040198e6b                EVP_get_cipherbyname
                0x0000000040198e7b                EVP_get_digestbyname
                0x0000000040198e8b                EVP_cleanup
                0x0000000040198ed1                EVP_CIPHER_do_all
                0x0000000040198ef6                EVP_CIPHER_do_all_sorted
                0x0000000040198f1b                EVP_MD_do_all
                0x0000000040198f40                EVP_MD_do_all_sorted
                0x0000000040199074                OBJ_NAME_init
                0x00000000401990c1                OBJ_NAME_new_index
                0x0000000040199229                OBJ_NAME_get
                0x00000000401992cc                OBJ_NAME_add
                0x00000000401993b3                OBJ_NAME_remove
                0x000000004019945e                OBJ_NAME_do_all
                0x0000000040199488                OBJ_NAME_do_all_sorted
                0x000000004019952b                OBJ_NAME_cleanup
                0x00000000401997fa                check_defer
                0x000000004019981b                OBJ_cleanup
                0x000000004019988d                OBJ_new_nid
                0x00000000401998a1                OBJ_add_object
                0x0000000040199a53                OBJ_nid2obj
                0x0000000040199b0f                OBJ_nid2sn
                0x0000000040199bce                OBJ_nid2ln
                0x0000000040199c8e                OBJ_bsearch_ex_
                0x0000000040199d87                OBJ_bsearch_
                0x0000000040199d98                OBJ_sn2nid
                0x0000000040199e14                OBJ_ln2nid
                0x0000000040199e90                OBJ_txt2obj
                0x0000000040199f98                OBJ_obj2nid
                0x000000004019a020                OBJ_txt2nid
                0x000000004019a05d                OBJ_obj2txt
                0x000000004019a3b0                OBJ_create
                0x000000004019a4b5                OBJ_create_objects
                0x000000004019a608                ERR_load_OBJ_strings
                0x000000004019a640                OBJ_dup
                0x000000004019a81a                OBJ_cmp
                0x000000004019a838                ERR_load_OCSP_strings
                0x000000004019a870                DES_ede3_ofb64_encrypt
                0x000000004019aa40                DES_ofb64_encrypt
                0x000000004019ad61                EVP_PKEY_bits
                0x000000004019ad85                EVP_PKEY_size
                0x000000004019ada9                EVP_PKEY_save_parameters
                0x000000004019addb                EVP_PKEY_missing_parameters
                0x000000004019adfa                EVP_PKEY_copy_parameters
                0x000000004019ae9a                EVP_PKEY_cmp_parameters
                0x000000004019aed0                EVP_PKEY_cmp
                0x000000004019af2b                EVP_PKEY_new
                0x000000004019afb6                EVP_PKEY_set_type
                0x000000004019afcb                EVP_PKEY_set_type_str
                0x000000004019afe0                EVP_PKEY_assign
                0x000000004019b01d                EVP_PKEY_get0
                0x000000004019b027                EVP_PKEY_set1_RSA
                0x000000004019b061                EVP_PKEY_get1_RSA
                0x000000004019b0ac                EVP_PKEY_set1_DSA
                0x000000004019b0e6                EVP_PKEY_get1_DSA
                0x000000004019b131                EVP_PKEY_set1_EC_KEY
                0x000000004019b16b                EVP_PKEY_get1_EC_KEY
                0x000000004019b1b9                EVP_PKEY_set1_DH
                0x000000004019b1f3                EVP_PKEY_get1_DH
                0x000000004019b23e                EVP_PKEY_type
                0x000000004019b261                EVP_PKEY_id
                0x000000004019b269                EVP_PKEY_base_id
                0x000000004019b276                EVP_PKEY_free
                0x000000004019b2d3                EVP_PKEY_print_public
                0x000000004019b2f9                EVP_PKEY_print_private
                0x000000004019b321                EVP_PKEY_print_params
                0x000000004019b34a                EVP_PKEY_get_default_digest_nid
                0x000000004019b384                PEM_read_bio_X509_REQ
                0x000000004019b3a5                PEM_write_bio_X509_REQ
                0x000000004019b3e9                PEM_write_bio_X509_REQ_NEW
                0x000000004019b42d                PEM_read_bio_X509_CRL
                0x000000004019b44e                PEM_write_bio_X509_CRL
                0x000000004019b492                PEM_read_bio_PKCS7
                0x000000004019b4b3                PEM_write_bio_PKCS7
                0x000000004019b4f7                PEM_read_bio_NETSCAPE_CERT_SEQUENCE
                0x000000004019b518                PEM_write_bio_NETSCAPE_CERT_SEQUENCE
                0x000000004019b55c                PEM_read_bio_RSAPrivateKey
                0x000000004019b5c5                PEM_write_bio_RSAPrivateKey
                0x000000004019b5fc                PEM_read_bio_RSAPublicKey
                0x000000004019b61d                PEM_write_bio_RSAPublicKey
                0x000000004019b661                PEM_read_bio_RSA_PUBKEY
                0x000000004019b682                PEM_write_bio_RSA_PUBKEY
                0x000000004019b6c6                PEM_read_bio_DSAPrivateKey
                0x000000004019b72f                PEM_write_bio_DSAPrivateKey
                0x000000004019b766                PEM_read_bio_DSA_PUBKEY
                0x000000004019b787                PEM_write_bio_DSA_PUBKEY
                0x000000004019b7cb                PEM_read_bio_DSAparams
                0x000000004019b7ec                PEM_write_bio_DSAparams
                0x000000004019b830                PEM_read_bio_ECPrivateKey
                0x000000004019b899                PEM_read_bio_ECPKParameters
                0x000000004019b8ba                PEM_write_bio_ECPKParameters
                0x000000004019b8fe                PEM_write_bio_ECPrivateKey
                0x000000004019b935                PEM_read_bio_EC_PUBKEY
                0x000000004019b956                PEM_write_bio_EC_PUBKEY
                0x000000004019b99a                PEM_read_bio_DHparams
                0x000000004019b9bb                PEM_write_bio_DHparams
                0x000000004019b9ff                PEM_read_bio_PUBKEY
                0x000000004019ba20                PEM_write_bio_PUBKEY
                0x000000004019ba64                ERR_load_PEM_strings
                0x000000004019baa0                PEM_def_callback
                0x000000004019baca                PEM_proc_type
                0x000000004019bb32                PEM_dek_info
                0x000000004019bbf1                PEM_do_header
                0x000000004019bdca                PEM_get_EVP_CIPHER_INFO
                0x000000004019c069                PEM_write_bio
                0x000000004019c338                PEM_ASN1_write_bio
                0x000000004019c753                PEM_read_bio
                0x000000004019ce3c                pem_check_suffix
                0x000000004019ceb1                PEM_bytes_read_bio
                0x000000004019d1fc                PEM_ASN1_read_bio
                0x000000004019d2a8                PEM_read_bio_PrivateKey
                0x000000004019d504                PEM_write_bio_PrivateKey
                0x000000004019d5d0                PEM_read_bio_Parameters
                0x000000004019d6f2                PEM_write_bio_Parameters
                0x000000004019d774                PEM_read_bio_X509
                0x000000004019d795                PEM_write_bio_X509
                0x000000004019d7dc                ERR_load_PKCS12_strings
                0x000000004019d8ea                d2i_PKCS7
                0x000000004019d8fa                i2d_PKCS7
                0x000000004019d90a                PKCS7_new
                0x000000004019d91a                PKCS7_free
                0x000000004019d92a                i2d_PKCS7_NDEF
                0x000000004019d93a                PKCS7_dup
                0x000000004019d94d                d2i_PKCS7_SIGNED
                0x000000004019d95d                i2d_PKCS7_SIGNED
                0x000000004019d96d                PKCS7_SIGNED_new
                0x000000004019d97d                PKCS7_SIGNED_free
                0x000000004019d98d                d2i_PKCS7_SIGNER_INFO
                0x000000004019d99d                i2d_PKCS7_SIGNER_INFO
                0x000000004019d9ad                PKCS7_SIGNER_INFO_new
                0x000000004019d9bd                PKCS7_SIGNER_INFO_free
                0x000000004019d9cd                d2i_PKCS7_ISSUER_AND_SERIAL
                0x000000004019d9dd                i2d_PKCS7_ISSUER_AND_SERIAL
                0x000000004019d9ed                PKCS7_ISSUER_AND_SERIAL_new
                0x000000004019d9fd                PKCS7_ISSUER_AND_SERIAL_free
                0x000000004019da0d                d2i_PKCS7_ENVELOPE
                0x000000004019da1d                i2d_PKCS7_ENVELOPE
                0x000000004019da2d                PKCS7_ENVELOPE_new
                0x000000004019da3d                PKCS7_ENVELOPE_free
                0x000000004019da4d                d2i_PKCS7_RECIP_INFO
                0x000000004019da5d                i2d_PKCS7_RECIP_INFO
                0x000000004019da6d                PKCS7_RECIP_INFO_new
                0x000000004019da7d                PKCS7_RECIP_INFO_free
                0x000000004019da8d                d2i_PKCS7_ENC_CONTENT
                0x000000004019da9d                i2d_PKCS7_ENC_CONTENT
                0x000000004019daad                PKCS7_ENC_CONTENT_new
                0x000000004019dabd                PKCS7_ENC_CONTENT_free
                0x000000004019dacd                d2i_PKCS7_SIGN_ENVELOPE
                0x000000004019dadd                i2d_PKCS7_SIGN_ENVELOPE
                0x000000004019daed                PKCS7_SIGN_ENVELOPE_new
                0x000000004019dafd                PKCS7_SIGN_ENVELOPE_free
                0x000000004019db0d                d2i_PKCS7_ENCRYPT
                0x000000004019db1d                i2d_PKCS7_ENCRYPT
                0x000000004019db2d                PKCS7_ENCRYPT_new
                0x000000004019db3d                PKCS7_ENCRYPT_free
                0x000000004019db4d                d2i_PKCS7_DIGEST
                0x000000004019db5d                i2d_PKCS7_DIGEST
                0x000000004019db6d                PKCS7_DIGEST_new
                0x000000004019db7d                PKCS7_DIGEST_free
                0x000000004019db8d                PKCS7_print_ctx
                0x000000004019e109                PKCS7_dataInit
                0x000000004019e7de                PKCS7_dataDecode
                0x000000004019ee85                PKCS7_SIGNER_INFO_sign
                0x000000004019f04e                PKCS7_get_issuer_and_serial
                0x000000004019f0bd                PKCS7_get_signed_attribute
                0x000000004019f0cc                PKCS7_dataFinal
                0x000000004019f67e                PKCS7_get_attribute
                0x000000004019f68d                PKCS7_digest_from_attributes
                0x000000004019f6ad                PKCS7_signatureVerify
                0x000000004019f9b4                PKCS7_dataVerify
                0x000000004019fb32                PKCS7_set_signed_attributes
                0x000000004019fbc5                PKCS7_set_attributes
                0x000000004019fc58                PKCS7_add_signed_attribute
                0x000000004019fc67                PKCS7_add_attribute
                0x000000004019fc80                PKCS7_ctrl
                0x000000004019fdbc                PKCS7_set_content
                0x000000004019fe4d                PKCS7_set_type
                0x00000000401a005e                PKCS7_content_new
                0x00000000401a00ca                PKCS7_set0_type_other
                0x00000000401a00fe                PKCS7_add_signer
                0x00000000401a025b                PKCS7_add_certificate
                0x00000000401a033c                PKCS7_add_crl
                0x00000000401a041c                PKCS7_SIGNER_INFO_set
                0x00000000401a058c                PKCS7_add_signature
                0x00000000401a0660                PKCS7_set_digest
                0x00000000401a072c                PKCS7_get_signer_info
                0x00000000401a0775                PKCS7_SIGNER_INFO_get0_algs
                0x00000000401a079f                PKCS7_RECIP_INFO_get0_alg
                0x00000000401a07b1                PKCS7_add_recipient_info
                0x00000000401a0820                PKCS7_RECIP_INFO_set
                0x00000000401a09ab                PKCS7_add_recipient
                0x00000000401a0a10                PKCS7_cert_from_signer_info
                0x00000000401a0a62                PKCS7_set_cipher
                0x00000000401a0afc                PKCS7_stream
                0x00000000401a0bc8                ERR_load_PKCS7_strings
                0x00000000401a0c00                ERR_load_RAND_strings
                0x00000000401a0c38                DES_random_key
                0x00000000401a0c80                RAND_set_rand_method
                0x00000000401a0c92                RAND_get_rand_method
                0x00000000401a0cb5                RAND_cleanup
                0x00000000401a0cda                RAND_seed
                0x00000000401a0d12                RAND_add
                0x00000000401a0d5b                RAND_bytes
                0x00000000401a0da2                RAND_pseudo_bytes
                0x00000000401a0de9                RAND_status
                0x00000000401a0e0c                RC2_encrypt
                0x00000000401a0f6a                RC2_decrypt
                0x00000000401a10d0                RC2_cbc_encrypt
                0x00000000401a16f8                RC2_ecb_encrypt
                0x00000000401a17c0                RC2_set_key
                0x00000000401a18f0                RC2_cfb64_encrypt
                0x00000000401a1b04                RC2_ofb64_encrypt
                0x00000000401a1cb8                RC4
                0x00000000401a2154                RC4_options
                0x00000000401a215f                RC4_set_key
                0x00000000401a2264                RIPEMD160_Init
                0x00000000401a22ad                ripemd160_block_data_order
                0x00000000401a3902                RIPEMD160_Final
                0x00000000401a39d7                RIPEMD160_Transform
                0x00000000401a39e7                RIPEMD160_Update
                0x00000000401a3b72                d2i_RSAPrivateKey
                0x00000000401a3b82                i2d_RSAPrivateKey
                0x00000000401a3b92                d2i_RSAPublicKey
                0x00000000401a3ba2                i2d_RSAPublicKey
                0x00000000401a3bb2                RSAPublicKey_dup
                0x00000000401a3bc5                RSAPrivateKey_dup
                0x00000000401a3be0                RSA_generate_key
                0x00000000401a3ca0                ERR_load_RSA_strings
                0x00000000401a3ce0                RSA_generate_key_ex
                0x00000000401a42b0                RSA_set_default_method
                0x00000000401a42bd                RSA_get_default_method
                0x00000000401a42e0                RSA_get_method
                0x00000000401a42ea                RSA_set_method
                0x00000000401a4331                RSA_new_method
                0x00000000401a447d                RSA_new
                0x00000000401a448d                RSA_free
                0x00000000401a459d                RSA_up_ref
                0x00000000401a45ca                RSA_get_ex_new_index
                0x00000000401a45e9                RSA_set_ex_data
                0x00000000401a45f8                RSA_get_ex_data
                0x00000000401a4607                RSA_size
                0x00000000401a4622                RSA_public_encrypt
                0x00000000401a462f                RSA_private_encrypt
                0x00000000401a463c                RSA_private_decrypt
                0x00000000401a4649                RSA_public_decrypt
                0x00000000401a4656                RSA_flags
                0x00000000401a466d                RSA_blinding_off
                0x00000000401a46a7                RSA_setup_blinding
                0x00000000401a4950                RSA_blinding_on
                0x00000000401a49ae                RSA_memory_lock
                0x00000000401a4b00                RSA_sign
                0x00000000401a4d65                int_rsa_verify
                0x00000000401a50ff                RSA_verify
                0x00000000401a5140                DES_set_odd_parity
                0x00000000401a5163                DES_check_key_parity
                0x00000000401a51a4                DES_is_weak_key
                0x00000000401a51f3                DES_set_key_unchecked
                0x00000000401a5497                DES_set_key_checked
                0x00000000401a54e8                DES_set_key
                0x00000000401a550c                DES_key_sched
                0x00000000401a5518                SHA1
                0x00000000401a66cb                SHA1_Update
                0x00000000401a680a                SHA1_Transform
                0x00000000401a681a                SHA1_Final
                0x00000000401a68fd                SHA1_Init
                0x00000000401a8160                SHA224_Init
                0x00000000401a81c5                SHA256_Init
                0x00000000401a822a                SHA256_Update
                0x00000000401a8369                SHA224_Update
                0x00000000401a8374                SHA256_Transform
                0x00000000401a8384                SHA256_Final
                0x00000000401a84ae                SHA224_Final
                0x00000000401a84b9                SHA256
                0x00000000401a8534                SHA224
                0x00000000401a9da5                SHA384_Init
                0x00000000401a9e43                SHA512_Init
                0x00000000401a9ee1                SHA512_Final
                0x00000000401aa146                SHA384_Final
                0x00000000401aa151                SHA512_Update
                0x00000000401aa261                SHA384_Update
                0x00000000401aa26c                SHA512_Transform
                0x00000000401aa27c                SHA384
                0x00000000401aa2f7                SHA512
                0x00000000401ab347                SHA_Update
                0x00000000401ab486                SHA_Transform
                0x00000000401ab496                SHA_Final
                0x00000000401ab579                SHA_Init
                0x00000000401ab5d0                sk_set_cmp_func
                0x00000000401ab5ea                sk_new
                0x00000000401ab687                sk_new_null
                0x00000000401ab697                sk_insert
                0x00000000401ab752                sk_delete
                0x00000000401ab7ae                sk_delete_ptr
                0x00000000401ab7f4                sk_push
                0x00000000401ab801                sk_unshift
                0x00000000401ab811                sk_shift
                0x00000000401ab837                sk_pop
                0x00000000401ab85c                sk_zero
                0x00000000401ab891                sk_free
                0x00000000401ab8bf                sk_pop_free
                0x00000000401ab911                sk_dup
                0x00000000401ab997                sk_num
                0x00000000401ab9ab                sk_value
                0x00000000401ab9da                sk_set
                0x00000000401aba0e                sk_sort
                0x00000000401abaec                sk_find_ex
                0x00000000401abafc                sk_find
                0x00000000401abb0c                sk_is_sorted
                0x00000000401abfb2                ASN1_tag2bit
                0x00000000401abfcd                asn1_ex_c2i
                0x00000000401ac81d                ASN1_item_ex_d2i
                0x00000000401ad6fa                ASN1_template_d2i
                0x00000000401ad717                ASN1_item_d2i
                0x00000000401ad7c1                asn1_ex_i2c
                0x00000000401ada8a                ASN1_item_ex_i2d
                0x00000000401ae2e9                ASN1_template_i2d
                0x00000000401ae3c5                ASN1_item_i2d
                0x00000000401ae3d5                ASN1_item_ndef_i2d
                0x00000000401ae3f0                ASN1_primitive_free
                0x00000000401ae716                ASN1_template_free
                0x00000000401ae79a                ASN1_item_ex_free
                0x00000000401ae7aa                ASN1_item_free
                0x00000000401ae892                ASN1_primitive_new
                0x00000000401aecbc                ASN1_template_new
                0x00000000401aed49                ASN1_item_ex_new
                0x00000000401aed59                ASN1_item_new
                0x00000000401aed88                d2i_ASN1_INTEGER
                0x00000000401aed98                i2d_ASN1_INTEGER
                0x00000000401aeda8                ASN1_INTEGER_new
                0x00000000401aedb8                ASN1_INTEGER_free
                0x00000000401aedc8                d2i_ASN1_ENUMERATED
                0x00000000401aedd8                i2d_ASN1_ENUMERATED
                0x00000000401aede8                ASN1_ENUMERATED_new
                0x00000000401aedf8                ASN1_ENUMERATED_free
                0x00000000401aee08                d2i_ASN1_BIT_STRING
                0x00000000401aee18                i2d_ASN1_BIT_STRING
                0x00000000401aee28                ASN1_BIT_STRING_new
                0x00000000401aee38                ASN1_BIT_STRING_free
                0x00000000401aee48                d2i_ASN1_OCTET_STRING
                0x00000000401aee58                i2d_ASN1_OCTET_STRING
                0x00000000401aee68                ASN1_OCTET_STRING_new
                0x00000000401aee78                ASN1_OCTET_STRING_free
                0x00000000401aee88                d2i_ASN1_NULL
                0x00000000401aee98                i2d_ASN1_NULL
                0x00000000401aeea8                ASN1_NULL_new
                0x00000000401aeeb8                ASN1_NULL_free
                0x00000000401aeec8                d2i_ASN1_UTF8STRING
                0x00000000401aeed8                i2d_ASN1_UTF8STRING
                0x00000000401aeee8                ASN1_UTF8STRING_new
                0x00000000401aeef8                ASN1_UTF8STRING_free
                0x00000000401aef08                d2i_ASN1_PRINTABLESTRING
                0x00000000401aef18                i2d_ASN1_PRINTABLESTRING
                0x00000000401aef28                ASN1_PRINTABLESTRING_new
                0x00000000401aef38                ASN1_PRINTABLESTRING_free
                0x00000000401aef48                d2i_ASN1_T61STRING
                0x00000000401aef58                i2d_ASN1_T61STRING
                0x00000000401aef68                ASN1_T61STRING_new
                0x00000000401aef78                ASN1_T61STRING_free
                0x00000000401aef88                d2i_ASN1_IA5STRING
                0x00000000401aef98                i2d_ASN1_IA5STRING
                0x00000000401aefa8                ASN1_IA5STRING_new
                0x00000000401aefb8                ASN1_IA5STRING_free
                0x00000000401aefc8                d2i_ASN1_GENERALSTRING
                0x00000000401aefd8                i2d_ASN1_GENERALSTRING
                0x00000000401aefe8                ASN1_GENERALSTRING_new
                0x00000000401aeff8                ASN1_GENERALSTRING_free
                0x00000000401af008                d2i_ASN1_UTCTIME
                0x00000000401af018                i2d_ASN1_UTCTIME
                0x00000000401af028                ASN1_UTCTIME_new
                0x00000000401af038                ASN1_UTCTIME_free
                0x00000000401af048                d2i_ASN1_GENERALIZEDTIME
                0x00000000401af058                i2d_ASN1_GENERALIZEDTIME
                0x00000000401af068                ASN1_GENERALIZEDTIME_new
                0x00000000401af078                ASN1_GENERALIZEDTIME_free
                0x00000000401af088                d2i_ASN1_VISIBLESTRING
                0x00000000401af098                i2d_ASN1_VISIBLESTRING
                0x00000000401af0a8                ASN1_VISIBLESTRING_new
                0x00000000401af0b8                ASN1_VISIBLESTRING_free
                0x00000000401af0c8                d2i_ASN1_UNIVERSALSTRING
                0x00000000401af0d8                i2d_ASN1_UNIVERSALSTRING
                0x00000000401af0e8                ASN1_UNIVERSALSTRING_new
                0x00000000401af0f8                ASN1_UNIVERSALSTRING_free
                0x00000000401af108                d2i_ASN1_BMPSTRING
                0x00000000401af118                i2d_ASN1_BMPSTRING
                0x00000000401af128                ASN1_BMPSTRING_new
                0x00000000401af138                ASN1_BMPSTRING_free
                0x00000000401af148                d2i_ASN1_TYPE
                0x00000000401af158                i2d_ASN1_TYPE
                0x00000000401af168                ASN1_TYPE_new
                0x00000000401af178                ASN1_TYPE_free
                0x00000000401af188                d2i_ASN1_PRINTABLE
                0x00000000401af198                i2d_ASN1_PRINTABLE
                0x00000000401af1a8                ASN1_PRINTABLE_new
                0x00000000401af1b8                ASN1_PRINTABLE_free
                0x00000000401af1c8                d2i_DISPLAYTEXT
                0x00000000401af1d8                i2d_DISPLAYTEXT
                0x00000000401af1e8                DISPLAYTEXT_new
                0x00000000401af1f8                DISPLAYTEXT_free
                0x00000000401af208                d2i_DIRECTORYSTRING
                0x00000000401af218                i2d_DIRECTORYSTRING
                0x00000000401af228                DIRECTORYSTRING_new
                0x00000000401af238                DIRECTORYSTRING_free
                0x00000000401af248                d2i_ASN1_SEQUENCE_ANY
                0x00000000401af258                i2d_ASN1_SEQUENCE_ANY
                0x00000000401af268                d2i_ASN1_SET_ANY
                0x00000000401af278                i2d_ASN1_SET_ANY
                0x00000000401af2d3                asn1_get_choice_selector
                0x00000000401af2e3                asn1_set_choice_selector
                0x00000000401af2f7                asn1_do_lock
                0x00000000401af351                asn1_enc_init
                0x00000000401af377                asn1_enc_free
                0x00000000401af3b7                asn1_enc_save
                0x00000000401af441                asn1_enc_restore
                0x00000000401af4bb                asn1_get_field_ptr
                0x00000000401af4d3                asn1_do_adb
                0x00000000401af590                ERR_load_UI_strings
                0x00000000401af5c8                ERR_load_X509V3_strings
                0x00000000401af600                X509_issuer_and_serial_hash
                0x00000000401af6cf                X509_CRL_match
                0x00000000401af6e7                X509_get_issuer_name
                0x00000000401af6f4                X509_get_subject_name
                0x00000000401af701                X509_get_serialNumber
                0x00000000401af70e                X509_cmp
                0x00000000401af768                X509_NAME_cmp
                0x00000000401af7e1                X509_CRL_cmp
                0x00000000401af7fa                X509_subject_name_cmp
                0x00000000401af813                X509_issuer_name_cmp
                0x00000000401af82c                X509_issuer_and_serial_cmp
                0x00000000401af86c                X509_NAME_hash
                0x00000000401af8d2                X509_subject_name_hash
                0x00000000401af8e4                X509_issuer_name_hash
                0x00000000401af8f6                X509_NAME_hash_old
                0x00000000401af95f                X509_subject_name_hash_old
                0x00000000401af971                X509_issuer_name_hash_old
                0x00000000401af983                X509_find_by_issuer_and_serial
                0x00000000401afa06                X509_find_by_subject
                0x00000000401afa63                X509_get_pubkey
                0x00000000401afa8b                X509_get0_pubkey_bitstr
                0x00000000401afaa8                X509_check_private_key
                0x00000000401afb64                ERR_load_X509_strings
                0x00000000401afb9c                X509_NAME_oneline
                0x00000000401b03da                X509_time_adj_ex
                0x00000000401b0427                X509_time_adj
                0x00000000401b043d                X509_gmtime_adj
                0x00000000401b044d                X509_cmp_time
                0x00000000401b1512                X509_cmp_current_time
                0x00000000401b1522                X509_get_pubkey_parameters
                0x00000000401b164e                X509_verify_cert
                0x00000000401b1fe1                X509_STORE_CTX_get_ex_new_index
                0x00000000401b2000                X509_STORE_CTX_set_ex_data
                0x00000000401b2012                X509_STORE_CTX_get_ex_data
                0x00000000401b2024                X509_STORE_CTX_get_error
                0x00000000401b2030                X509_STORE_CTX_set_error
                0x00000000401b203c                X509_STORE_CTX_get_error_depth
                0x00000000401b2048                X509_STORE_CTX_get_current_cert
                0x00000000401b2055                X509_STORE_CTX_get_chain
                0x00000000401b2062                X509_STORE_CTX_get1_chain
                0x00000000401b20ce                X509_STORE_CTX_get0_current_issuer
                0x00000000401b20db                X509_STORE_CTX_get0_current_crl
                0x00000000401b20e8                X509_STORE_CTX_get0_parent_ctx
                0x00000000401b20f5                X509_STORE_CTX_set_cert
                0x00000000401b20ff                X509_STORE_CTX_set_chain
                0x00000000401b2109                X509_STORE_CTX_set0_crls
                0x00000000401b2113                X509_STORE_CTX_purpose_inherit
                0x00000000401b2240                X509_STORE_CTX_set_trust
                0x00000000401b2257                X509_STORE_CTX_set_purpose
                0x00000000401b226e                X509_STORE_CTX_new
                0x00000000401b22d0                X509_STORE_CTX_init
                0x00000000401b262f                X509_STORE_CTX_trusted_stack
                0x00000000401b2641                X509_STORE_CTX_cleanup
                0x00000000401b26e4                X509_STORE_CTX_free
                0x00000000401b2704                X509_STORE_CTX_set_depth
                0x00000000401b2713                X509_STORE_CTX_set_flags
                0x00000000401b2722                X509_STORE_CTX_set_time
                0x00000000401b2733                X509_STORE_CTX_set_verify_cb
                0x00000000401b273d                X509_STORE_CTX_get0_policy_tree
                0x00000000401b274a                X509_STORE_CTX_get_explicit_policy
                0x00000000401b2756                X509_STORE_CTX_set_default
                0x00000000401b2787                X509_STORE_CTX_get0_param
                0x00000000401b2791                X509_STORE_CTX_set0_param
                0x00000000401b2b87                X509_VERIFY_PARAM_free
                0x00000000401b2ba7                X509_VERIFY_PARAM_new
                0x00000000401b2beb                X509_VERIFY_PARAM_set1_name
                0x00000000401b2c2c                X509_VERIFY_PARAM_set_flags
                0x00000000401b2c50                X509_VERIFY_PARAM_clear_flags
                0x00000000401b2c62                X509_VERIFY_PARAM_get_flags
                0x00000000401b2c6c                X509_VERIFY_PARAM_set_purpose
                0x00000000401b2c7b                X509_VERIFY_PARAM_set_trust
                0x00000000401b2c8a                X509_VERIFY_PARAM_set_depth
                0x00000000401b2c93                X509_VERIFY_PARAM_set_time
                0x00000000401b2ca1                X509_VERIFY_PARAM_add0_policy
                0x00000000401b2cf2                X509_VERIFY_PARAM_set1_policies
                0x00000000401b2db9                X509_VERIFY_PARAM_inherit
                0x00000000401b2ecf                X509_VERIFY_PARAM_set1
                0x00000000401b2f04                X509_VERIFY_PARAM_get_depth
                0x00000000401b2f0d                X509_VERIFY_PARAM_add0_table
                0x00000000401b2f94                X509_VERIFY_PARAM_lookup
                0x00000000401b2fea                X509_VERIFY_PARAM_table_cleanup
                0x00000000401b3014                d2i_X509_ALGOR
                0x00000000401b3024                i2d_X509_ALGOR
                0x00000000401b3034                X509_ALGOR_new
                0x00000000401b3044                X509_ALGOR_free
                0x00000000401b3054                d2i_X509_ALGORS
                0x00000000401b3064                i2d_X509_ALGORS
                0x00000000401b3074                X509_ALGOR_dup
                0x00000000401b3087                X509_ALGOR_set0
                0x00000000401b3139                X509_ALGOR_get0
                0x00000000401b3174                X509_verify
                0x00000000401b3195                X509_REQ_verify
                0x00000000401b31b6                NETSCAPE_SPKI_verify
                0x00000000401b31d7                X509_sign
                0x00000000401b3211                X509_REQ_sign
                0x00000000401b323f                X509_CRL_sign
                0x00000000401b3279                NETSCAPE_SPKI_sign
                0x00000000401b32a7                d2i_X509_bio
                0x00000000401b32bd                i2d_X509_bio
                0x00000000401b32d3                d2i_X509_CRL_bio
                0x00000000401b32e9                i2d_X509_CRL_bio
                0x00000000401b32ff                d2i_PKCS7_bio
                0x00000000401b3315                i2d_PKCS7_bio
                0x00000000401b332b                d2i_X509_REQ_bio
                0x00000000401b3341                i2d_X509_REQ_bio
                0x00000000401b3357                d2i_RSAPrivateKey_bio
                0x00000000401b336d                i2d_RSAPrivateKey_bio
                0x00000000401b3383                d2i_RSAPublicKey_bio
                0x00000000401b3399                d2i_RSA_PUBKEY_bio
                0x00000000401b33b4                i2d_RSAPublicKey_bio
                0x00000000401b33ca                i2d_RSA_PUBKEY_bio
                0x00000000401b33e0                d2i_DSAPrivateKey_bio
                0x00000000401b33fb                i2d_DSAPrivateKey_bio
                0x00000000401b3411                d2i_DSA_PUBKEY_bio
                0x00000000401b342c                i2d_DSA_PUBKEY_bio
                0x00000000401b3442                d2i_EC_PUBKEY_bio
                0x00000000401b345d                i2d_EC_PUBKEY_bio
                0x00000000401b3473                d2i_ECPrivateKey_bio
                0x00000000401b348e                i2d_ECPrivateKey_bio
                0x00000000401b34a4                X509_pubkey_digest
                0x00000000401b34fc                X509_digest
                0x00000000401b3515                X509_CRL_digest
                0x00000000401b352e                X509_REQ_digest
                0x00000000401b3547                X509_NAME_digest
                0x00000000401b3560                PKCS7_ISSUER_AND_SERIAL_digest
                0x00000000401b3579                d2i_PKCS8_bio
                0x00000000401b3594                i2d_PKCS8_bio
                0x00000000401b35aa                d2i_PKCS8_PRIV_KEY_INFO_bio
                0x00000000401b35c5                i2d_PKCS8_PRIV_KEY_INFO_bio
                0x00000000401b35db                i2d_PKCS8PrivateKeyInfo_bio
                0x00000000401b362f                i2d_PrivateKey_bio
                0x00000000401b3645                d2i_PrivateKey_bio
                0x00000000401b3660                i2d_PUBKEY_bio
                0x00000000401b3676                d2i_PUBKEY_bio
                0x00000000401b3694                d2i_X509_ATTRIBUTE
                0x00000000401b36a4                i2d_X509_ATTRIBUTE
                0x00000000401b36b4                X509_ATTRIBUTE_new
                0x00000000401b36c4                X509_ATTRIBUTE_free
                0x00000000401b36d4                X509_ATTRIBUTE_dup
                0x00000000401b36e7                X509_ATTRIBUTE_create
                0x00000000401b3f1e                d2i_X509_REVOKED
                0x00000000401b3f2e                i2d_X509_REVOKED
                0x00000000401b3f3e                X509_REVOKED_new
                0x00000000401b3f4e                X509_REVOKED_free
                0x00000000401b3f5e                d2i_X509_CRL_INFO
                0x00000000401b3f6e                i2d_X509_CRL_INFO
                0x00000000401b3f7e                X509_CRL_INFO_new
                0x00000000401b3f8e                X509_CRL_INFO_free
                0x00000000401b3f9e                d2i_X509_CRL
                0x00000000401b3fae                i2d_X509_CRL
                0x00000000401b3fbe                X509_CRL_new
                0x00000000401b3fce                X509_CRL_free
                0x00000000401b3fde                X509_CRL_dup
                0x00000000401b3ff1                X509_CRL_add0_revoked
                0x00000000401b4072                X509_CRL_verify
                0x00000000401b408c                X509_CRL_get0_by_serial
                0x00000000401b40ac                X509_CRL_get0_by_cert
                0x00000000401b411b                X509_CRL_set_default_method
                0x00000000401b4134                X509_CRL_METHOD_new
                0x00000000401b4199                X509_CRL_METHOD_free
                0x00000000401b41a9                X509_CRL_set_meth_data
                0x00000000401b41b3                X509_CRL_get_meth_data
                0x00000000401b41c0                d2i_X509_EXTENSION
                0x00000000401b41d0                i2d_X509_EXTENSION
                0x00000000401b41e0                X509_EXTENSION_new
                0x00000000401b41f0                X509_EXTENSION_free
                0x00000000401b4200                d2i_X509_EXTENSIONS
                0x00000000401b4210                i2d_X509_EXTENSIONS
                0x00000000401b4220                X509_EXTENSION_dup
                0x00000000401b45bd                X509_NAME_ENTRY_free
                0x00000000401b45cd                d2i_X509_NAME_ENTRY
                0x00000000401b45dd                i2d_X509_NAME_ENTRY
                0x00000000401b45ed                X509_NAME_ENTRY_new
                0x00000000401b4b1c                X509_NAME_ENTRY_dup
                0x00000000401b4b2f                d2i_X509_NAME
                0x00000000401b4b3f                i2d_X509_NAME
                0x00000000401b4b4f                X509_NAME_new
                0x00000000401b4b5f                X509_NAME_free
                0x00000000401b4d11                X509_NAME_dup
                0x00000000401b4d24                X509_NAME_set
                0x00000000401b4d9c                d2i_X509_PUBKEY
                0x00000000401b4dac                i2d_X509_PUBKEY
                0x00000000401b4dbc                X509_PUBKEY_new
                0x00000000401b4dcc                X509_PUBKEY_free
                0x00000000401b4ddc                X509_PUBKEY_set
                0x00000000401b4ecd                X509_PUBKEY_get
                0x00000000401b502c                d2i_PUBKEY
                0x00000000401b5095                i2d_PUBKEY
                0x00000000401b50ed                d2i_RSA_PUBKEY
                0x00000000401b5172                i2d_RSA_PUBKEY
                0x00000000401b51ff                d2i_DSA_PUBKEY
                0x00000000401b5284                i2d_DSA_PUBKEY
                0x00000000401b5311                d2i_EC_PUBKEY
                0x00000000401b5396                i2d_EC_PUBKEY
                0x00000000401b5423                X509_PUBKEY_set0_param
                0x00000000401b54a0                X509_PUBKEY_get0_param
                0x00000000401b550b                d2i_X509_REQ_INFO
                0x00000000401b551b                i2d_X509_REQ_INFO
                0x00000000401b552b                X509_REQ_INFO_new
                0x00000000401b553b                X509_REQ_INFO_free
                0x00000000401b554b                d2i_X509_REQ
                0x00000000401b555b                i2d_X509_REQ
                0x00000000401b556b                X509_REQ_new
                0x00000000401b557b                X509_REQ_free
                0x00000000401b558b                X509_REQ_dup
                0x00000000401b55a0                d2i_X509_SIG
                0x00000000401b55b0                i2d_X509_SIG
                0x00000000401b55c0                X509_SIG_new
                0x00000000401b55d0                X509_SIG_free
                0x00000000401b55e0                d2i_NETSCAPE_SPKAC
                0x00000000401b55f0                i2d_NETSCAPE_SPKAC
                0x00000000401b5600                NETSCAPE_SPKAC_new
                0x00000000401b5610                NETSCAPE_SPKAC_free
                0x00000000401b5620                d2i_NETSCAPE_SPKI
                0x00000000401b5630                i2d_NETSCAPE_SPKI
                0x00000000401b5640                NETSCAPE_SPKI_new
                0x00000000401b5650                NETSCAPE_SPKI_free
                0x00000000401b577c                d2i_X509_CINF
                0x00000000401b578c                i2d_X509_CINF
                0x00000000401b579c                X509_CINF_new
                0x00000000401b57ac                X509_CINF_free
                0x00000000401b57bc                d2i_X509
                0x00000000401b57cc                i2d_X509
                0x00000000401b57dc                X509_new
                0x00000000401b57ec                X509_free
                0x00000000401b57fc                X509_dup
                0x00000000401b580f                X509_get_ex_new_index
                0x00000000401b582e                X509_set_ex_data
                0x00000000401b583d                X509_get_ex_data
                0x00000000401b584c                d2i_X509_AUX
                0x00000000401b58bc                i2d_X509_AUX
                0x00000000401b5908                d2i_X509_CERT_AUX
                0x00000000401b5918                i2d_X509_CERT_AUX
                0x00000000401b5928                X509_CERT_AUX_new
                0x00000000401b5980                X509_CERT_AUX_free
                0x00000000401b5990                X509_alias_set1
                0x00000000401b5a38                X509_keyid_set1
                0x00000000401b5ae0                X509_alias_get0
                0x00000000401b5b21                X509_keyid_get0
                0x00000000401b5b62                X509_add1_trust_object
                0x00000000401b5bcf                X509_add1_reject_object
                0x00000000401b5c31                X509_trust_clear
                0x00000000401b5c70                X509_reject_clear
                0x00000000401b5cb1                d2i_X509_CERT_PAIR
                0x00000000401b5cc1                i2d_X509_CERT_PAIR
                0x00000000401b5cd1                X509_CERT_PAIR_new
                0x00000000401b5ce1                X509_CERT_PAIR_free
                0x00000000401b5cf4                DES_xcbc_encrypt
                0x00000000401b646c                ERR_load_TS_strings
                0x00000000401b64a4                ERR_load_CMS_strings
                0x00000000401b6526                OBJ_find_sigid_algs
                0x00000000401b65ae                OBJ_find_sigid_by_algs
                0x00000000401b6636                OBJ_add_sigid
                0x00000000401b6744                OBJ_sigid_free
                0x00000000401b67bb                EVP_whirlpool
                0x00000000401b67eb                EVP_PKEY_meth_find
                0x00000000401b6864                EVP_PKEY_meth_new
                0x00000000401b6982                EVP_PKEY_meth_free
                0x00000000401b6998                EVP_PKEY_meth_add0
                0x00000000401b69fb                EVP_PKEY_CTX_free
                0x00000000401b6a4a                EVP_PKEY_CTX_dup
                0x00000000401b6c80                EVP_PKEY_CTX_new_id
                0x00000000401b6c92                EVP_PKEY_CTX_new
                0x00000000401b6ca2                EVP_PKEY_CTX_ctrl
                0x00000000401b6d9a                EVP_PKEY_CTX_ctrl_str
                0x00000000401b6e7f                EVP_PKEY_CTX_get_operation
                0x00000000401b6e88                EVP_PKEY_CTX_set0_keygen_info
                0x00000000401b6e95                EVP_PKEY_CTX_set_data
                0x00000000401b6e9f                EVP_PKEY_CTX_get_data
                0x00000000401b6ea9                EVP_PKEY_CTX_get0_pkey
                0x00000000401b6eb3                EVP_PKEY_CTX_get0_peerkey
                0x00000000401b6ebd                EVP_PKEY_CTX_set_app_data
                0x00000000401b6ec7                EVP_PKEY_CTX_get_app_data
                0x00000000401b6ed1                EVP_PKEY_meth_set_init
                0x00000000401b6edb                EVP_PKEY_meth_set_copy
                0x00000000401b6ee5                EVP_PKEY_meth_set_cleanup
                0x00000000401b6eef                EVP_PKEY_meth_set_paramgen
                0x00000000401b6efd                EVP_PKEY_meth_set_keygen
                0x00000000401b6f0b                EVP_PKEY_meth_set_sign
                0x00000000401b6f19                EVP_PKEY_meth_set_verify
                0x00000000401b6f27                EVP_PKEY_meth_set_verify_recover
                0x00000000401b6f35                EVP_PKEY_meth_set_signctx
                0x00000000401b6f43                EVP_PKEY_meth_set_verifyctx
                0x00000000401b6f57                EVP_PKEY_meth_set_encrypt
                0x00000000401b6f6b                EVP_PKEY_meth_set_decrypt
                0x00000000401b6f7f                EVP_PKEY_meth_set_derive
                0x00000000401b6f93                EVP_PKEY_meth_set_ctrl
                0x00000000401b6fc3                EVP_PKEY_asn1_get_count
                0x00000000401b6fe2                EVP_PKEY_asn1_get0
                0x00000000401b7012                EVP_PKEY_asn1_find
                0x00000000401b70b5                EVP_PKEY_asn1_find_str
                0x00000000401b713c                EVP_PKEY_asn1_add0
                0x00000000401b719f                EVP_PKEY_asn1_get0_info
                0x00000000401b71f1                EVP_PKEY_get0_asn1
                0x00000000401b71fb                EVP_PKEY_asn1_copy
                0x00000000401b72c3                EVP_PKEY_asn1_free
                0x00000000401b7305                EVP_PKEY_asn1_new
                0x00000000401b747a                EVP_PKEY_asn1_add_alias
                0x00000000401b74b7                EVP_PKEY_asn1_set_public
                0x00000000401b74d9                EVP_PKEY_asn1_set_private
                0x00000000401b74eb                EVP_PKEY_asn1_set_param
                0x00000000401b7516                EVP_PKEY_asn1_set_free
                0x00000000401b7523                EVP_PKEY_asn1_set_ctrl
                0x00000000401b7530                EVP_PKEY_sign_init
                0x00000000401b759f                EVP_PKEY_sign
                0x00000000401b76ab                EVP_PKEY_verify_init
                0x00000000401b771a                EVP_PKEY_verify
                0x00000000401b778a                EVP_PKEY_verify_recover_init
                0x00000000401b77f9                EVP_PKEY_verify_recover
                0x00000000401b7905                EVP_PKEY_encrypt_init
                0x00000000401b797a                EVP_PKEY_encrypt
                0x00000000401b7a8f                EVP_PKEY_decrypt_init
                0x00000000401b7b04                EVP_PKEY_decrypt
                0x00000000401b7c19                EVP_PKEY_derive_init
                0x00000000401b7c8e                EVP_PKEY_derive_set_peer
                0x00000000401b7e70                EVP_PKEY_derive
                0x00000000401b8086                ASN1_PCTX_new
                0x00000000401b80fd                ASN1_PCTX_free
                0x00000000401b8108                ASN1_PCTX_get_flags
                0x00000000401b8111                ASN1_PCTX_set_flags
                0x00000000401b811a                ASN1_PCTX_get_nm_flags
                0x00000000401b8124                ASN1_PCTX_set_nm_flags
                0x00000000401b812e                ASN1_PCTX_get_cert_flags
                0x00000000401b8138                ASN1_PCTX_set_cert_flags
                0x00000000401b8142                ASN1_PCTX_get_oid_flags
                0x00000000401b814c                ASN1_PCTX_set_oid_flags
                0x00000000401b8156                ASN1_PCTX_get_str_flags
                0x00000000401b8160                ASN1_PCTX_set_str_flags
                0x00000000401b816a                asn1_template_print_ctx
                0x00000000401b8aa5                ASN1_item_print
                0x00000000401b8c7f                EVP_DigestSignInit
                0x00000000401b8c90                EVP_DigestVerifyInit
                0x00000000401b8ca1                EVP_DigestSignFinal
                0x00000000401b8de0                EVP_DigestVerifyFinal
                0x00000000401b8ec0                WHIRLPOOL_Init
                0x00000000401b8eda                WHIRLPOOL_BitUpdate
                0x00000000401b91e3                WHIRLPOOL_Update
                0x00000000401b929f                WHIRLPOOL_Final
                0x00000000401b93a6                WHIRLPOOL
                0x00000000401bc7b9                DHparams_print
                0x00000000401be79c                whirlpool_block
                0x00000000401bf329                EVP_PKEY_paramgen_init
                0x00000000401bf398                EVP_PKEY_paramgen
                0x00000000401bf451                EVP_PKEY_keygen_init
                0x00000000401bf4c0                EVP_PKEY_keygen
                0x00000000401bf579                EVP_PKEY_CTX_set_cb
                0x00000000401bf583                EVP_PKEY_CTX_get_cb
                0x00000000401bf58d                evp_pkey_set_cb_translate
                0x00000000401bf5a5                EVP_PKEY_CTX_get_keygen_info
                0x00000000401bf5cd                EVP_PKEY_new_mac_key
                0x00000000401bf75c                CMS_SignedData_init
                0x00000000401bf770                cms_set1_SignerIdentifier
                0x00000000401bf890                cms_SignerIdentifier_get0_signer_id
                0x00000000401bf8e7                cms_SignerIdentifier_cert_cmp
                0x00000000401bf964                CMS_get0_SignerInfos
                0x00000000401bf97f                CMS_get0_signers
                0x00000000401bfa04                CMS_SignerInfo_set1_signer_cert
                0x00000000401bfa65                CMS_SignerInfo_get0_signer_id
                0x00000000401bfa74                CMS_SignerInfo_cert_cmp
                0x00000000401bfa83                CMS_set1_signers_certs
                0x00000000401bfbb5                CMS_SignerInfo_get0_algs
                0x00000000401bfbeb                CMS_SignerInfo_sign
                0x00000000401bfe3f                cms_SignedData_final
                0x00000000401c0060                CMS_SignerInfo_verify
                0x00000000401c018d                cms_SignedData_init_bio
                0x00000000401c035a                CMS_SignerInfo_verify_content
                0x00000000401c050e                CMS_add_smimecap
                0x00000000401c056e                CMS_add_simple_smimecap
                0x00000000401c06b6                CMS_add_standard_smimecap
                0x00000000401c07f3                CMS_add1_signer
                0x00000000401c0d54                CMS_get0_RecipientInfos
                0x00000000401c0d6f                CMS_RecipientInfo_type
                0x00000000401c0d77                CMS_EnvelopedData_create
                0x00000000401c0e82                CMS_add1_recipient_cert
                0x00000000401c1066                CMS_RecipientInfo_ktri_get0_algs
                0x00000000401c10c9                CMS_RecipientInfo_ktri_get0_signer_id
                0x00000000401c1107                CMS_RecipientInfo_ktri_cert_cmp
                0x00000000401c1145                CMS_RecipientInfo_set0_pkey
                0x00000000401c1183                CMS_RecipientInfo_kekri_id_cmp
                0x00000000401c11e2                CMS_add0_recipient_key
                0x00000000401c1431                CMS_RecipientInfo_kekri_get0_id
                0x00000000401c14d7                CMS_RecipientInfo_set0_key
                0x00000000401c1519                CMS_RecipientInfo_decrypt
                0x00000000401c18ef                cms_EnvelopedData_init_bio
                0x00000000401c1d6c                EC_KEY_print
                0x00000000401c1de7                ECParameters_print
                0x00000000401c1e59                ECPKParameters_print
                0x00000000401c2a7c                CMS_signed_get_attr_count
                0x00000000401c2a8b                CMS_signed_get_attr_by_NID
                0x00000000401c2a9a                CMS_signed_get_attr_by_OBJ
                0x00000000401c2aa9                CMS_signed_get_attr
                0x00000000401c2ab8                CMS_signed_delete_attr
                0x00000000401c2ac7                CMS_signed_add1_attr
                0x00000000401c2adf                CMS_signed_add1_attr_by_OBJ
                0x00000000401c2af7                CMS_signed_add1_attr_by_NID
                0x00000000401c2b0f                CMS_signed_add1_attr_by_txt
                0x00000000401c2b27                CMS_signed_get0_data_by_OBJ
                0x00000000401c2b36                CMS_unsigned_get_attr_count
                0x00000000401c2b45                CMS_unsigned_get_attr_by_NID
                0x00000000401c2b54                CMS_unsigned_get_attr_by_OBJ
                0x00000000401c2b63                CMS_unsigned_get_attr
                0x00000000401c2b72                CMS_unsigned_delete_attr
                0x00000000401c2b81                CMS_unsigned_add1_attr
                0x00000000401c2b99                CMS_unsigned_add1_attr_by_OBJ
                0x00000000401c2bb1                CMS_unsigned_add1_attr_by_NID
                0x00000000401c2bc9                CMS_unsigned_add1_attr_by_txt
                0x00000000401c2be1                CMS_unsigned_get0_data_by_OBJ
                0x00000000401c2d5e                d2i_CMS_ContentInfo
                0x00000000401c2d6e                i2d_CMS_ContentInfo
                0x00000000401c2d7e                CMS_ContentInfo_new
                0x00000000401c2d8e                CMS_ContentInfo_free
                0x00000000401c2d9e                CMS_ContentInfo_print_ctx
                0x00000000401c2db1                CMS_get0_type
                0x00000000401c2dba                CMS_get0_content
                0x00000000401c2e95                CMS_dataFinal
                0x00000000401c3009                cms_content_bio
                0x00000000401c3059                CMS_dataInit
                0x00000000401c315a                CMS_get0_eContentType
                0x00000000401c3174                CMS_set1_eContentType
                0x00000000401c31cf                CMS_is_detached
                0x00000000401c31f0                CMS_set_detached
                0x00000000401c3286                cms_Data_create
                0x00000000401c32c0                cms_DigestAlgorithm_set
                0x00000000401c3311                cms_DigestAlgorithm_init_bio
                0x00000000401c33e4                cms_DigestAlgorithm_find_ctx
                0x00000000401c34c4                CMS_add0_CertificateChoices
                0x00000000401c3535                CMS_add0_cert
                0x00000000401c35de                CMS_add1_cert
                0x00000000401c3627                CMS_add0_RevocationInfoChoice
                0x00000000401c3698                CMS_add0_crl
                0x00000000401c36c9                CMS_add1_crl
                0x00000000401c3712                CMS_get1_certs
                0x00000000401c37cf                CMS_get1_crls
                0x00000000401c39c0                cms_EncryptedContent_init_bio
                0x00000000401c3da6                cms_EncryptedContent_init
                0x00000000401c3e32                CMS_EncryptedData_set1_key
                0x00000000401c3f3c                cms_EncryptedData_init_bio
                0x00000000401c3f68                AES_wrap_key
                0x00000000401c409f                AES_unwrap_key
                0x00000000401c4200                cms_DigestedData_create
                0x00000000401c4297                cms_DigestedData_init_bio
                0x00000000401c42aa                cms_DigestedData_do_final
                0x00000000401c43c8                CMS_stream
                0x00000000401c4444                d2i_CMS_bio
                0x00000000401c445a                i2d_CMS_bio
                0x00000000401c4470                PEM_read_bio_CMS
                0x00000000401c4491                PEM_write_bio_CMS
                0x00000000401c44d5                BIO_new_CMS
                0x00000000401c44e5                i2d_CMS_bio_stream
                0x00000000401c44f6                PEM_write_bio_CMS_stream
                0x00000000401c450d                SMIME_write_CMS
                0x00000000401c459d                SMIME_read_CMS
                0x00000000401c4edb                SMIME_read_ASN1
                0x00000000401c5300                SMIME_crlf_copy
                0x00000000401c542b                i2d_ASN1_bio_stream
                0x00000000401c55c3                SMIME_write_ASN1
                0x00000000401c5c50                PEM_write_bio_ASN1_stream
                0x00000000401c5cd7                SMIME_text
                0x00000000401c6025                BIO_new_NDEF
                0x00000000401c6841                BIO_f_asn1
                0x00000000401c684c                BIO_asn1_set_prefix
                0x00000000401c6862                BIO_asn1_get_prefix
                0x00000000401c6878                BIO_asn1_set_suffix
                0x00000000401c688e                BIO_asn1_get_suffix
                0x00000000401c68b0                chelp_snprintf
                0x00000000401c68ed                chelp_sprintf
                0x00000000401c6934                chelp_print
                0x00000000401c694c                chelp_printf
                0x00000000401c69b4                chelp_mod_64_32_32
                0x00000000401c69c9                chelp_div_64_32_64
                0x00000000401c69dc                chelp_div_64_32_32
                0x00000000401c69e7                chelp_mul_64_64_64
                0x00000000401c69f4                BIO_printf
                0x00000000401c6a31                BIO_snprintf
                0x00000000401c6a67                chelp_abort
                0x00000000401c6a7a                RAND_poll
                0x00000000401c6a99                InitCryptoLibrary
                0x00000000401c6b10                chelp_malloc
                0x00000000401c6b27                chelp_realloc
                0x00000000401c6b4a                chelp_free
                0x00000000401c6b5a                chelp_swap
                0x00000000401c6b8e                chelp_qsort
                0x00000000401c6ea2                chelp_bsearch
                0x00000000401c6f71                chelp_memchr
                0x00000000401c6faa                chelp_memmove
                0x00000000401c7029                chelp_memcmp
                0x00000000401c7098                chelp_memcpy
                0x00000000401c70c4                chelp_memset
                0x00000000401c70f0                chelp_isupper
                0x00000000401c7103                chelp_islower
                0x00000000401c7116                chelp_toupper
                0x00000000401c7122                chelp_tolower
                0x00000000401c712e                chelp_isspace
                0x00000000401c714a                chelp_isdigit
                0x00000000401c715d                chelp_isxdigit
                0x00000000401c7185                chelp_isalpha
                0x00000000401c71a2                chelp_isalnum
                0x00000000401c71cb                chelp_strtoul_ex
                0x00000000401c739c                chelp_strtoul
                0x00000000401c73ac                chelp_strtol
                0x00000000401c73bc                chelp_strcpy
                0x00000000401c73ea                chelp_strncpy
                0x00000000401c7457                chelp_strcat
                0x00000000401c7498                chelp_strcmp
                0x00000000401c74f8                chelp_strncmp
                0x00000000401c767a                chelp_stricmp
                0x00000000401c76b9                chelp_strchr
                0x00000000401c76f1                chelp_strrchr
                0x00000000401c7725                chelp_strlen
                0x00000000401c774c                chelp_strncasecmp
                0x00000000401c77a0                decryptcfg
                0x00000000401c7828                ASN1_BIT_STRING_set
                0x00000000401c7833                i2c_ASN1_BIT_STRING
                0x00000000401c7940                c2i_ASN1_BIT_STRING
                0x00000000401c7ab9                ASN1_BIT_STRING_set_bit
                0x00000000401c7c18                ASN1_BIT_STRING_get_bit
                0x00000000401c7c60                ASN1_BIT_STRING_check
                0x00000000401c7cc0                d2i_ASN1_type_bytes
                0x00000000401c7e65                i2d_ASN1_bytes
                0x00000000401c7f1c                d2i_ASN1_bytes
                0x00000000401c856b                ASN1_d2i_bio
                0x00000000401c85dd                ASN1_item_d2i_bio
                0x00000000401c8654                ASN1_digest
                0x00000000401c871b                ASN1_item_digest
                0x00000000401c8798                ASN1_dup
                0x00000000401c8853                ASN1_item_dup
                0x00000000401c88dc                ASN1_ENUMERATED_set
                0x00000000401c89f1                ASN1_ENUMERATED_get
                0x00000000401c8a69                BN_to_ASN1_ENUMERATED
                0x00000000401c8b70                ASN1_ENUMERATED_to_BN
                0x00000000401c8be0                ASN1_GENERALIZEDTIME_check
                0x00000000401c8e52                ASN1_GENERALIZEDTIME_set_string
                0x00000000401c8ecf                ASN1_GENERALIZEDTIME_adj
                0x00000000401c902b                ASN1_GENERALIZEDTIME_set
                0x00000000401c9040                ASN1_i2d_bio
                0x00000000401c90fe                ASN1_item_i2d_bio
                0x00000000401c91a0                ASN1_INTEGER_dup
                0x00000000401c91ab                ASN1_INTEGER_cmp
                0x00000000401c91eb                i2c_ASN1_INTEGER
                0x00000000401c9363                c2i_ASN1_INTEGER
                0x00000000401c955f                d2i_ASN1_UINTEGER
                0x00000000401c96ce                ASN1_INTEGER_set
                0x00000000401c97e3                ASN1_INTEGER_get
                0x00000000401c985d                BN_to_ASN1_INTEGER
                0x00000000401c9975                ASN1_INTEGER_to_BN
                0x00000000401c99f0                i2d_ASN1_OBJECT
                0x00000000401c9a87                a2d_ASN1_OBJECT
                0x00000000401c9f8e                i2t_ASN1_OBJECT
                0x00000000401c9f9e                i2a_ASN1_OBJECT
                0x00000000401ca084                ASN1_OBJECT_new
                0x00000000401ca100                ASN1_OBJECT_free
                0x00000000401ca179                c2i_ASN1_OBJECT
                0x00000000401ca324                d2i_ASN1_OBJECT
                0x00000000401ca3b0                ASN1_OBJECT_create
                0x00000000401ca3dc                ASN1_OCTET_STRING_dup
                0x00000000401ca3e7                ASN1_OCTET_STRING_cmp
                0x00000000401ca3f2                ASN1_OCTET_STRING_set
                0x00000000401ca400                ASN1_sign
                0x00000000401ca69e                ASN1_item_sign
                0x00000000401cb0b2                X509_NAME_print_ex
                0x00000000401cb592                ASN1_STRING_print_ex
                0x00000000401cb5a8                ASN1_STRING_to_UTF8
                0x00000000401cb61c                d2i_ASN1_TIME
                0x00000000401cb62c                i2d_ASN1_TIME
                0x00000000401cb63c                ASN1_TIME_new
                0x00000000401cb64c                ASN1_TIME_free
                0x00000000401cb65c                ASN1_TIME_adj
                0x00000000401cb71f                ASN1_TIME_set
                0x00000000401cb734                ASN1_TIME_check
                0x00000000401cb758                ASN1_TIME_to_generalizedtime
                0x00000000401cb84b                ASN1_TIME_set_string
                0x00000000401cb8cc                ASN1_TYPE_get
                0x00000000401cb8e5                ASN1_TYPE_set
                0x00000000401cb946                ASN1_TYPE_set1
                0x00000000401cb9d2                ASN1_TYPE_cmp
                0x00000000401cba20                ASN1_UTCTIME_check
                0x00000000401cbc44                ASN1_UTCTIME_set_string
                0x00000000401cbcc1                ASN1_UTCTIME_adj
                0x00000000401cbe49                ASN1_UTCTIME_set
                0x00000000401cbe5e                ASN1_UTCTIME_cmp_time_t
                0x00000000401cbfd0                UTF8_getc
                0x00000000401cc35f                UTF8_putc
                0x00000000401cc588                ASN1_verify
                0x00000000401cc6f7                ASN1_item_verify
                0x00000000401cc8f0                AES_cbc_encrypt
                0x00000000401cc914                AES_cfb128_encrypt
                0x00000000401cc932                AES_cfb1_encrypt
                0x00000000401cc950                AES_cfb8_encrypt
                0x00000000401cc970                AES_ecb_encrypt
                0x00000000401cc988                AES_ofb128_encrypt
                0x00000000401cc9a0                ERR_load_ASN1_strings
                0x00000000401cca0f                ASN1_check_infinite_end
                0x00000000401cca1a                ASN1_const_check_infinite_end
                0x00000000401cca7e                ASN1_get_object
                0x00000000401ccc40                ASN1_put_object
                0x00000000401ccd42                ASN1_put_eoc
                0x00000000401ccd5e                ASN1_object_size
                0x00000000401ccd9a                asn1_Finish
                0x00000000401ccda5                asn1_const_Finish
                0x00000000401ccdb0                asn1_GetSequence
                0x00000000401cce5e                ASN1_STRING_set
                0x00000000401ccf60                ASN1_STRING_copy
                0x00000000401ccfb1                ASN1_STRING_set0
                0x00000000401ccff1                ASN1_STRING_type_new
                0x00000000401cd068                ASN1_STRING_new
                0x00000000401cd078                ASN1_STRING_free
                0x00000000401cd0ac                ASN1_STRING_dup
                0x00000000401cd0ff                ASN1_STRING_cmp
                0x00000000401cd140                asn1_add_error
                0x00000000401cd1a8                ASN1_STRING_length
                0x00000000401cd1b0                ASN1_STRING_length_set
                0x00000000401cd1b8                ASN1_STRING_type
                0x00000000401cd1c1                ASN1_STRING_data
                0x00000000401cd1d0                ASN1_tag2str
                0x00000000401cddaf                ASN1_parse_dump
                0x00000000401cddd8                ASN1_parse
                0x00000000401cde1a                BIO_dump_indent_cb
                0x00000000401ce22e                BIO_dump_cb
                0x00000000401ce23f                BIO_dump
                0x00000000401ce257                BIO_dump_indent
                0x00000000401cec2c                BIO_f_buffer
                0x00000000401cec40                BF_cfb64_encrypt
                0x00000000401cee28                BF_options
                0x00000000401cee33                BF_ecb_encrypt
                0x00000000401ceee4                BF_encrypt
                0x00000000401cf2a5                BF_decrypt
                0x00000000401cf666                BF_cbc_encrypt
                0x00000000401cfbf8                BF_ofb64_encrypt
                0x00000000401cfd88                BF_set_key
                0x00000000401d0bb1                BIO_f_base64
                0x00000000401d12b0                BIO_f_cipher
                0x00000000401d12bb                BIO_set_cipher
                0x00000000401d1370                ERR_load_BIO_strings
                0x00000000401d172a                BIO_f_md
                0x00000000401d1740                BN_uadd
                0x00000000401d1884                BN_usub
                0x00000000401d1a7e                BN_add
                0x00000000401d1b29                BN_sub
                0x00000000401d1c3c                bn_mul_add_words
                0x00000000401d1ea4                bn_mul_words
                0x00000000401d20f0                bn_sqr_words
                0x00000000401d2243                bn_div_words
                0x00000000401d2393                bn_add_words
                0x00000000401d247f                bn_sub_words
                0x00000000401d2589                bn_mul_comba8
                0x00000000401d3e2e                bn_mul_comba4
                0x00000000401d444d                bn_sqr_comba8
                0x00000000401d5497                bn_sqr_comba4
                0x00000000401d5890                BN_BLINDING_free
                0x00000000401d58e7                BN_BLINDING_new
                0x00000000401d59d2                BN_BLINDING_invert_ex
                0x00000000401d5a35                BN_BLINDING_invert
                0x00000000401d5a4b                BN_BLINDING_get_thread_id
                0x00000000401d5a55                BN_BLINDING_set_thread_id
                0x00000000401d5a5f                BN_BLINDING_thread_id
                0x00000000401d5a69                BN_BLINDING_get_flags
                0x00000000401d5a73                BN_BLINDING_set_flags
                0x00000000401d5a7d                BN_BLINDING_create_param
                0x00000000401d5c11                BN_BLINDING_update
                0x00000000401d5d03                BN_BLINDING_convert_ex
                0x00000000401d5dde                BN_BLINDING_convert
                0x00000000401d5df4                BN_CTX_init
                0x00000000401d5e6f                BN_CTX_new
                0x00000000401d5f0f                BN_CTX_free
                0x00000000401d5f8f                BN_CTX_start
                0x00000000401d6075                BN_CTX_end
                0x00000000401d60ea                BN_CTX_get
                0x00000000401d6250                BN_div
                0x00000000401d6d74                ERR_load_BN_strings
                0x00000000401d6e8d                BN_exp
                0x00000000401d702d                BN_mod_exp_recp
                0x00000000401d74b9                BN_mod_exp_mont_consttime
                0x00000000401d7aec                BN_mod_exp_mont
                0x00000000401d80cb                BN_mod_exp_mont_word
                0x00000000401d850d                BN_mod_exp
                0x00000000401d8559                BN_mod_exp_simple
                0x00000000401d89d0                BN_gcd
                0x00000000401d8be6                BN_mod_inverse
                0x00000000401d9660                BN_nnmod
                0x00000000401d96bc                BN_mod_add
                0x00000000401d970a                BN_mod_add_quick
                0x00000000401d975e                BN_mod_sub
                0x00000000401d97ac                BN_mod_sub_quick
                0x00000000401d97f4                BN_mod_mul
                0x00000000401d98ac                BN_mod_sqr
                0x00000000401d9902                BN_mod_lshift1
                0x00000000401d9950                BN_mod_lshift1_quick
                0x00000000401d99a4                BN_mod_lshift_quick
                0x00000000401d9a9f                BN_mod_lshift
                0x00000000401d9eac                BN_mod_mul_montgomery
                0x00000000401d9f61                BN_from_montgomery
                0x00000000401d9feb                BN_MONT_CTX_init
                0x00000000401da034                BN_MONT_CTX_new
                0x00000000401da072                BN_MONT_CTX_free
                0x00000000401da0b3                BN_MONT_CTX_set
                0x00000000401da2ad                BN_MONT_CTX_copy
                0x00000000401da32d                BN_MONT_CTX_set_locked
                0x00000000401da430                bn_sub_part_words
                0x00000000401da6c3                bn_add_part_words
                0x00000000401daa81                bn_mul_normal
                0x00000000401dabe9                bn_mul_recursive
                0x00000000401db07b                bn_mul_high
                0x00000000401db4f7                bn_mul_part_recursive
                0x00000000401db9cb                BN_mul
                0x00000000401dbd1b                bn_mul_low_normal
                0x00000000401dbdfd                bn_mul_low_recursive
                0x00000000401dc037                BN_GENCB_call
                0x00000000401dc085                BN_is_prime_fasttest_ex
                0x00000000401dc554                BN_is_prime_ex
                0x00000000401dc567                BN_generate_prime_ex
                0x00000000401dcab8                BN_RECP_CTX_init
                0x00000000401dcae7                BN_RECP_CTX_new
                0x00000000401dcb25                BN_RECP_CTX_free
                0x00000000401dcb59                BN_RECP_CTX_set
                0x00000000401dcbaf                BN_reciprocal
                0x00000000401dcc48                BN_div_recp
                0x00000000401dcef3                BN_mod_mul_reciprocal
                0x00000000401dcfbc                BN_lshift1
                0x00000000401dd07b                BN_rshift1
                0x00000000401dd153                BN_lshift
                0x00000000401dd2b3                BN_rshift
                0x00000000401dd460                bn_sqr_normal
                0x00000000401dd53c                bn_sqr_recursive
                0x00000000401dd6fa                BN_sqr
                0x00000000401dd9e4                BIO_s_null
                0x00000000401dd9f0                ERR_load_BUF_strings
                0x00000000401dda30                CAST_cfb64_encrypt
                0x00000000401ddc18                CAST_ecb_encrypt
                0x00000000401ddcc8                CAST_encrypt
                0x00000000401de124                CAST_decrypt
                0x00000000401de5a6                CAST_cbc_encrypt
                0x00000000401deb38                CAST_ofb64_encrypt
                0x00000000401decc8                CAST_set_key
                0x00000000401df760                DES_ede3_cfb64_encrypt
                0x00000000401df98b                DES_ede3_cfb_encrypt
                0x00000000401e0190                DES_cfb64_encrypt
                0x00000000401e03b0                DES_cfb_encrypt
                0x00000000401e09dc                ERR_load_COMP_strings
                0x00000000401e0a14                ERR_load_CONF_strings
                0x00000000401e0a4c                ERR_load_CRYPTO_strings
                0x00000000401e0a90                d2i_PrivateKey
                0x00000000401e0bf1                d2i_AutoPrivateKey
                0x00000000401e0d5e                d2i_DHparams
                0x00000000401e0d6e                i2d_DHparams
                0x00000000401e0d7e                DHparams_dup
                0x00000000401e0da0                DH_check
                0x00000000401e0ed9                DH_check_pub_key
                0x00000000401e0f84                ERR_load_DH_strings
                0x00000000401e0fc0                DH_generate_parameters_ex
                0x00000000401e11c8                EVP_MD_CTX_init
                0x00000000401e11dd                EVP_MD_CTX_create
                0x00000000401e1214                EVP_DigestInit_ex
                0x00000000401e12f3                EVP_DigestInit
                0x00000000401e1328                EVP_DigestUpdate
                0x00000000401e1334                EVP_DigestFinal_ex
                0x00000000401e13cf                EVP_MD_CTX_cleanup
                0x00000000401e146c                EVP_MD_CTX_destroy
                0x00000000401e148c                EVP_Digest
                0x00000000401e1536                EVP_MD_CTX_copy_ex
                0x00000000401e1673                EVP_MD_CTX_copy
                0x00000000401e16a3                EVP_DigestFinal
                0x00000000401e178e                d2i_DSA_SIG
                0x00000000401e179e                i2d_DSA_SIG
                0x00000000401e17ae                DSA_SIG_new
                0x00000000401e17be                DSA_SIG_free
                0x00000000401e17ce                d2i_DSAPrivateKey
                0x00000000401e17de                i2d_DSAPrivateKey
                0x00000000401e17ee                d2i_DSAparams
                0x00000000401e17fe                i2d_DSAparams
                0x00000000401e180e                d2i_DSAPublicKey
                0x00000000401e181e                i2d_DSAPublicKey
                0x00000000401e182e                DSAparams_dup
                0x00000000401e1844                ERR_load_DSA_strings
                0x00000000401e1880                dsa_builtin_paramgen
                0x00000000401e2175                DSA_generate_parameters_ex
                0x00000000401e2220                DSA_generate_key
                0x00000000401e2388                DSA_set_default_method
                0x00000000401e2395                DSA_get_default_method
                0x00000000401e23b8                DSA_set_method
                0x00000000401e23ff                DSA_new_method
                0x00000000401e2500                DSA_new
                0x00000000401e2510                DSA_free
                0x00000000401e25df                DSA_up_ref
                0x00000000401e260c                DSA_size
                0x00000000401e2661                DSA_get_ex_new_index
                0x00000000401e2680                DSA_set_ex_data
                0x00000000401e268f                DSA_get_ex_data
                0x00000000401e269e                DSA_dup_DH
                0x00000000401e303c                DSA_OpenSSL
                0x00000000401e3048                DSA_do_sign
                0x00000000401e3055                DSA_sign
                0x00000000401e30d9                DSA_sign_setup
                0x00000000401e30e8                DSA_do_verify
                0x00000000401e30f5                DSA_verify
                0x00000000401e3180                ERR_load_DSO_strings
                0x00000000401e3ad1                EC_GROUP_get_basis_type
                0x00000000401e3b36                EC_GROUP_get_trinomial_basis
                0x00000000401e3bbf                EC_GROUP_get_pentanomial_basis
                0x00000000401e3c96                X9_62_PENTANOMIAL_new
                0x00000000401e3ca6                X9_62_PENTANOMIAL_free
                0x00000000401e3cb6                X9_62_CHARACTERISTIC_TWO_new
                0x00000000401e3cc6                X9_62_CHARACTERISTIC_TWO_free
                0x00000000401e3cd6                ECPARAMETERS_new
                0x00000000401e3ce6                ECPARAMETERS_free
                0x00000000401e3cf6                d2i_ECPKPARAMETERS
                0x00000000401e3d06                i2d_ECPKPARAMETERS
                0x00000000401e3d16                ECPKPARAMETERS_new
                0x00000000401e3d26                ECPKPARAMETERS_free
                0x00000000401e492e                d2i_EC_PRIVATEKEY
                0x00000000401e493e                i2d_EC_PRIVATEKEY
                0x00000000401e494e                EC_PRIVATEKEY_new
                0x00000000401e495e                EC_PRIVATEKEY_free
                0x00000000401e496e                d2i_ECPKParameters
                0x00000000401e4a2b                i2d_ECPKParameters
                0x00000000401e4ab9                d2i_ECPrivateKey
                0x00000000401e4d36                i2d_ECPrivateKey
                0x00000000401e50c6                i2d_ECParameters
                0x00000000401e50fe                d2i_ECParameters
                0x00000000401e51e4                o2i_ECPublicKey
                0x00000000401e52de                i2o_ECPublicKey
                0x00000000401e5428                EC_GROUP_new_by_curve_name
                0x00000000401e593c                EC_get_builtin_curves
                0x00000000401e5990                EC_GROUP_new_curve_GFp
                0x00000000401e5a78                EC_GROUP_new_curve_GF2m
                0x00000000401e5af4                ERR_load_EC_strings
                0x00000000401e5b30                EC_KEY_new
                0x00000000401e5bbb                EC_KEY_free
                0x00000000401e5c3d                EC_KEY_new_by_curve_name
                0x00000000401e5c88                EC_KEY_copy
                0x00000000401e5e43                EC_KEY_dup
                0x00000000401e5e8d                EC_KEY_up_ref
                0x00000000401e5eba                EC_KEY_generate_key
                0x00000000401e6099                EC_KEY_check_key
                0x00000000401e6349                EC_KEY_get0_group
                0x00000000401e6353                EC_KEY_set_group
                0x00000000401e6396                EC_KEY_get0_private_key
                0x00000000401e63a0                EC_KEY_set_private_key
                0x00000000401e63e3                EC_KEY_get0_public_key
                0x00000000401e63ed                EC_KEY_set_public_key
                0x00000000401e6434                EC_KEY_get_enc_flags
                0x00000000401e643d                EC_KEY_set_enc_flags
                0x00000000401e6446                EC_KEY_get_conv_form
                0x00000000401e644f                EC_KEY_set_conv_form
                0x00000000401e6466                EC_KEY_get_key_method_data
                0x00000000401e6475                EC_KEY_insert_key_method_data
                0x00000000401e6514                EC_KEY_set_asn1_flag
                0x00000000401e6528                EC_KEY_precompute_mult
                0x00000000401e6550                EC_GROUP_new
                0x00000000401e6660                EC_GROUP_method_of
                0x00000000401e6669                EC_METHOD_get_field_type
                0x00000000401e6671                EC_GROUP_get0_generator
                0x00000000401e667b                EC_GROUP_get_order
                0x00000000401e66b0                EC_GROUP_get_cofactor
                0x00000000401e66e5                EC_GROUP_set_curve_name
                0x00000000401e66ee                EC_GROUP_get_curve_name
                0x00000000401e66f7                EC_GROUP_set_asn1_flag
                0x00000000401e6700                EC_GROUP_get_asn1_flag
                0x00000000401e6709                EC_GROUP_set_point_conversion_form
                0x00000000401e6712                EC_GROUP_get_point_conversion_form
                0x00000000401e671b                EC_GROUP_set_seed
                0x00000000401e67ae                EC_GROUP_get0_seed
                0x00000000401e67b8                EC_GROUP_get_seed_len
                0x00000000401e67c2                EC_GROUP_set_curve_GFp
                0x00000000401e6801                EC_GROUP_get_curve_GFp
                0x00000000401e683b                EC_GROUP_set_curve_GF2m
                0x00000000401e6875                EC_GROUP_get_curve_GF2m
                0x00000000401e68b1                EC_GROUP_get_degree
                0x00000000401e68eb                EC_GROUP_check_discriminant
                0x00000000401e6925                EC_EX_DATA_set_data
                0x00000000401e69f5                EC_EX_DATA_get_data
                0x00000000401e6a2a                EC_EX_DATA_free_data
                0x00000000401e6a79                EC_EX_DATA_clear_free_data
                0x00000000401e6ac8                EC_EX_DATA_free_all_data
                0x00000000401e6b14                EC_EX_DATA_clear_free_all_data
                0x00000000401e6b60                EC_POINT_new
                0x00000000401e6c2e                EC_POINT_free
                0x00000000401e6c5c                EC_GROUP_free
                0x00000000401e6cc1                EC_POINT_clear_free
                0x00000000401e6d09                EC_GROUP_clear_free
                0x00000000401e6d95                EC_POINT_copy
                0x00000000401e6e01                EC_GROUP_set_generator
                0x00000000401e6ef0                EC_GROUP_copy
                0x00000000401e711a                EC_GROUP_dup
                0x00000000401e7170                EC_POINT_dup
                0x00000000401e71c6                EC_POINT_method_of
                0x00000000401e71cf                EC_POINT_set_to_infinity
                0x00000000401e7234                EC_POINT_set_Jprojective_coordinates_GFp
                0x00000000401e7299                EC_POINT_get_Jprojective_coordinates_GFp
                0x00000000401e7301                EC_POINT_set_affine_coordinates_GFp
                0x00000000401e7369                EC_POINT_set_affine_coordinates_GF2m
                0x00000000401e73d1                EC_POINT_get_affine_coordinates_GFp
                0x00000000401e7439                EC_POINT_get_affine_coordinates_GF2m
                0x00000000401e74a1                EC_POINT_set_compressed_coordinates_GFp
                0x00000000401e7509                EC_POINT_set_compressed_coordinates_GF2m
                0x00000000401e7571                EC_POINT_point2oct
                0x00000000401e75d9                EC_POINT_oct2point
                0x00000000401e7641                EC_POINT_add
                0x00000000401e76b3                EC_POINT_dbl
                0x00000000401e7721                EC_POINT_invert
                0x00000000401e778b                EC_POINT_is_at_infinity
                0x00000000401e77f3                EC_POINT_is_on_curve
                0x00000000401e785b                EC_POINT_cmp
                0x00000000401e78c8                EC_GROUP_cmp
                0x00000000401e7b4d                EC_POINT_make_affine
                0x00000000401e7bb5                EC_POINTs_make_affine
                0x00000000401e7c41                EC_POINTs_mul
                0x00000000401e7c71                EC_POINT_mul
                0x00000000401e7ca9                EC_GROUP_precompute_mult
                0x00000000401e7cd6                EC_GROUP_have_precompute_mult
                0x00000000401e810e                ec_wNAF_mul
                0x00000000401e8fef                ec_wNAF_precompute_mult
                0x00000000401e9640                ec_wNAF_have_precompute_mult
                0x00000000401e9670                EC_POINT_point2bn
                0x00000000401e9736                EC_POINT_bn2point
                0x00000000401e982f                EC_POINT_point2hex
                0x00000000401e9938                EC_POINT_hex2point
                0x00000000401e99a8                ERR_load_ECDH_strings
                0x00000000401e99e0                ECDH_compute_key
                0x00000000401e9a85                ECDH_set_default_method
                0x00000000401e9a92                ECDH_get_default_method
                0x00000000401e9b49                ecdh_check
                0x00000000401e9ba9                ECDH_set_method
                0x00000000401e9bd3                ECDH_get_ex_new_index
                0x00000000401e9bf2                ECDH_set_ex_data
                0x00000000401e9c33                ECDH_get_ex_data
                0x00000000401ea021                ECDH_OpenSSL
                0x00000000401ea02c                ec_GFp_mont_field_set_to_one
                0x00000000401ea076                ec_GFp_mont_field_decode
                0x00000000401ea0b9                ec_GFp_mont_field_encode
                0x00000000401ea106                ec_GFp_mont_field_sqr
                0x00000000401ea14f                ec_GFp_mont_field_mul
                0x00000000401ea198                ec_GFp_mont_group_set_curve
                0x00000000401ea340                ec_GFp_mont_group_copy
                0x00000000401ea428                ec_GFp_mont_group_clear_finish
                0x00000000401ea47b                ec_GFp_mont_group_finish
                0x00000000401ea4ce                ec_GFp_mont_group_init
                0x00000000401ea4fc                EC_GFp_mont_method
                0x00000000401ea510                ec_GFp_nist_field_sqr
                0x00000000401ea5eb                ec_GFp_nist_field_mul
                0x00000000401ea6d4                ec_GFp_nist_group_set_curve
                0x00000000401ea85e                ec_GFp_nist_group_copy
                0x00000000401ea877                EC_GFp_nist_method
                0x00000000401ea890                ec_GFp_simple_is_at_infinity
                0x00000000401ea8a0                ec_GFp_simple_field_sqr
                0x00000000401ea8b8                ec_GFp_simple_field_mul
                0x00000000401ea8d3                ec_GFp_simple_point_copy
                0x00000000401ea938                ec_GFp_simple_group_copy
                0x00000000401ea9af                ec_GFp_simple_point_set_to_infinity
                0x00000000401ea9cf                ec_GFp_simple_get_Jprojective_coordinates_GFp
                0x00000000401eab56                ec_GFp_simple_group_get_curve
                0x00000000401eacc5                ec_GFp_simple_point_clear_finish
                0x00000000401eacfa                ec_GFp_simple_group_clear_finish
                0x00000000401ead2e                ec_GFp_simple_points_make_affine
                0x00000000401eb29e                ec_GFp_simple_point_get_affine_coordinates
                0x00000000401eb5dd                ec_GFp_simple_make_affine
                0x00000000401eb6f4                ec_GFp_simple_cmp
                0x00000000401eb9a7                ec_GFp_simple_is_on_curve
                0x00000000401ebcaf                ec_GFp_simple_invert
                0x00000000401ebcf8                ec_GFp_simple_dbl
                0x00000000401ec1a4                ec_GFp_simple_add
                0x00000000401ec7ab                ec_GFp_simple_group_get_degree
                0x00000000401ec7ba                ec_GFp_simple_oct2point
                0x00000000401ecb47                ec_GFp_simple_point2oct
                0x00000000401ecec6                ec_GFp_simple_set_Jprojective_coordinates_GFp
                0x00000000401ed0ac                ec_GFp_simple_set_compressed_coordinates
                0x00000000401ed538                ec_GFp_simple_point_set_affine_coordinates
                0x00000000401ed5c5                ec_GFp_simple_point_finish
                0x00000000401ed5f3                ec_GFp_simple_group_finish
                0x00000000401ed627                ec_GFp_simple_point_init
                0x00000000401ed661                ec_GFp_simple_group_init
                0x00000000401ed6a4                ec_GFp_simple_group_check_discriminant
                0x00000000401ed8d5                ec_GFp_simple_group_set_curve
                0x00000000401edacd                EC_GFp_simple_method
                0x00000000401edad8                ERR_load_ECDSA_strings
                0x00000000401edb49                ECDSA_set_default_method
                0x00000000401edb56                ECDSA_get_default_method
                0x00000000401edc0d                ecdsa_check
                0x00000000401edc6d                ECDSA_set_method
                0x00000000401edc97                ECDSA_size
                0x00000000401edd59                ECDSA_get_ex_new_index
                0x00000000401edd78                ECDSA_set_ex_data
                0x00000000401eddb9                ECDSA_get_ex_data
                0x00000000401eeaeb                ECDSA_OpenSSL
                0x00000000401eeaf8                ECDSA_do_sign_ex
                0x00000000401eeb64                ECDSA_do_sign
                0x00000000401eeb7c                ECDSA_sign_ex
                0x00000000401eec08                ECDSA_sign
                0x00000000401eec2a                ECDSA_sign_setup
                0x00000000401eec88                ECDSA_do_verify
                0x00000000401eece6                ECDSA_verify
                0x00000000401eed70                EVP_EncodeInit
                0x00000000401eed8a                EVP_EncodeBlock
                0x00000000401eeec5                EVP_EncodeFinal
                0x00000000401eef22                EVP_EncodeUpdate
                0x00000000401ef052                EVP_DecodeInit
                0x00000000401ef073                EVP_DecodeBlock
                0x00000000401ef1d5                EVP_DecodeUpdate
                0x00000000401ef4af                EVP_DecodeFinal
                0x00000000401ef510                EVP_set_pw_prompt
                0x00000000401ef53d                EVP_get_pw_prompt
                0x00000000401ef558                EVP_read_pw_string_min
                0x00000000401ef632                EVP_read_pw_string
                0x00000000401ef64a                EVP_BytesToKey
                0x00000000401ef915                EVP_PBE_alg_add_type
                0x00000000401ef9d5                EVP_PBE_alg_add
                0x00000000401efa45                EVP_PBE_find
                0x00000000401efb0c                EVP_PBE_CipherInit
                0x00000000401efce6                EVP_PBE_cleanup
                0x00000000401efd10                EVP_PKCS82PKEY
                0x00000000401efe4b                EVP_PKEY2PKCS8_broken
                0x00000000401eff53                EVP_PKEY2PKCS8
                0x00000000401eff63                PKCS8_set_broken
                0x00000000401effb5                EVP_PKEY_get_attr_count
                0x00000000401effc4                EVP_PKEY_get_attr_by_NID
                0x00000000401effd3                EVP_PKEY_get_attr_by_OBJ
                0x00000000401effe2                EVP_PKEY_get_attr
                0x00000000401efff1                EVP_PKEY_delete_attr
                0x00000000401f0000                EVP_PKEY_add1_attr
                0x00000000401f0018                EVP_PKEY_add1_attr_by_OBJ
                0x00000000401f0030                EVP_PKEY_add1_attr_by_NID
                0x00000000401f0048                EVP_PKEY_add1_attr_by_txt
                0x00000000401f0060                HMAC_Init_ex
                0x00000000401f0294                HMAC_Update
                0x00000000401f02a3                HMAC_Final
                0x00000000401f0338                HMAC_CTX_init
                0x00000000401f0366                HMAC_Init
                0x00000000401f03c2                HMAC_CTX_copy
                0x00000000401f0458                HMAC_CTX_cleanup
                0x00000000401f0498                HMAC
                0x00000000401f0569                HMAC_CTX_set_flags
                0x00000000401f05b0                i2d_PrivateKey
                0x00000000401f0fa0                RAND_SSLeay
                0x00000000401f0fd4                d2i_NETSCAPE_CERT_SEQUENCE
                0x00000000401f0fe4                i2d_NETSCAPE_CERT_SEQUENCE
                0x00000000401f0ff4                NETSCAPE_CERT_SEQUENCE_new
                0x00000000401f1004                NETSCAPE_CERT_SEQUENCE_free
                0x00000000401f1014                OPENSSL_gmtime
                0x00000000401f101f                OPENSSL_gmtime_adj
                0x00000000401f12c8                PKCS12_PBE_add
                0x00000000401f12ce                PKCS12_PBE_keyivgen
                0x00000000401f14dc                PKCS12_key_gen_uni
                0x00000000401f19f9                PKCS12_key_gen_asc
                0x00000000401f1ad8                PKCS8_decrypt
                0x00000000401f1afc                OPENSSL_asc2uni
                0x00000000401f1b8b                OPENSSL_uni2asc
                0x00000000401f1c0c                i2d_PKCS12_bio
                0x00000000401f1c22                d2i_PKCS12_bio
                0x00000000401f1c38                PKCS12_x5092certbag
                0x00000000401f1c52                PKCS12_x509crl2certbag
                0x00000000401f1c6c                PKCS12_certbag2x509
                0x00000000401f1cc3                PKCS12_certbag2x509crl
                0x00000000401f1d1c                PKCS5_PBE_add
                0x00000000401f1d22                PKCS5_PBE_keyivgen
                0x00000000401f2004                PKCS5_PBKDF2_HMAC
                0x00000000401f2224                PKCS5_PBKDF2_HMAC_SHA1
                0x00000000401f2292                PKCS5_v2_PBE_keyivgen
                0x00000000401f2694                d2i_PBEPARAM
                0x00000000401f26a4                i2d_PBEPARAM
                0x00000000401f26b4                PBEPARAM_new
                0x00000000401f26c4                PBEPARAM_free
                0x00000000401f26d4                PKCS5_pbe_set0_algor
                0x00000000401f288f                PKCS5_pbe_set
                0x00000000401f2924                d2i_PBE2PARAM
                0x00000000401f2934                i2d_PBE2PARAM
                0x00000000401f2944                PBE2PARAM_new
                0x00000000401f2954                PBE2PARAM_free
                0x00000000401f2964                d2i_PBKDF2PARAM
                0x00000000401f2974                i2d_PBKDF2PARAM
                0x00000000401f2984                PBKDF2PARAM_new
                0x00000000401f2994                PBKDF2PARAM_free
                0x00000000401f29a4                PKCS5_pbe2_set_iv
                0x00000000401f2ebd                PKCS5_pbe2_set
                0x00000000401f2f00                d2i_PKCS8_PRIV_KEY_INFO
                0x00000000401f2f10                i2d_PKCS8_PRIV_KEY_INFO
                0x00000000401f2f20                PKCS8_PRIV_KEY_INFO_new
                0x00000000401f2f30                PKCS8_PRIV_KEY_INFO_free
                0x00000000401f2f40                PKCS8_pkey_set0
                0x00000000401f300b                PKCS8_pkey_get0
                0x00000000401f30a0                EVP_SignFinal
                0x00000000401f3280                EVP_VerifyFinal
                0x00000000401f3471                policy_cache_free
                0x00000000401f34b1                policy_cache_set
                0x00000000401f3805                policy_cache_find_data
                0x00000000401f3840                policy_data_free
                0x00000000401f3885                policy_data_new
                0x00000000401f3984                policy_cache_set_mapping
                0x00000000401f3bee                X509_policy_tree_free
                0x00000000401f3c9a                X509_policy_check
                0x00000000401f4708                d2i_PKCS8PrivateKey_bio
                0x00000000401f481c                PEM_read_bio_PKCS8
                0x00000000401f483d                PEM_write_bio_PKCS8
                0x00000000401f4881                PEM_read_bio_PKCS8_PRIV_KEY_INFO
                0x00000000401f48a2                PEM_write_bio_PKCS8_PRIV_KEY_INFO
                0x00000000401f4ae8                i2d_PKCS8PrivateKey_nid_bio
                0x00000000401f4b19                i2d_PKCS8PrivateKey_bio
                0x00000000401f4b4a                PEM_write_bio_PKCS8PrivateKey
                0x00000000401f4b7b                PEM_write_bio_PKCS8PrivateKey_nid
                0x00000000401f4bac                PKCS7_add_attrib_smimecap
                0x00000000401f4c2f                PKCS7_get_smimecap
                0x00000000401f4c7e                PKCS7_simple_smimecap
                0x00000000401f4dc4                PKCS7_add_attrib_content_type
                0x00000000401f4e23                PKCS7_add0_attrib_signing_time
                0x00000000401f4e86                PKCS7_add1_attrib_digest
                0x00000000401f6802                RSA_PKCS1_SSLeay
                0x00000000401f6810                RSA_padding_add_none
                0x00000000401f687c                RSA_padding_check_none
                0x00000000401f6904                PKCS1_MGF1
                0x00000000401f6af9                RSA_padding_check_PKCS1_OAEP
                0x00000000401f6d7d                RSA_padding_add_PKCS1_OAEP
                0x00000000401f6f80                RSA_padding_add_PKCS1_type_1
                0x00000000401f701b                RSA_padding_check_PKCS1_type_1
                0x00000000401f7164                RSA_padding_add_PKCS1_type_2
                0x00000000401f7225                RSA_padding_check_PKCS1_type_2
                0x00000000401f7340                RSA_verify_PKCS1_PSS
                0x00000000401f76f3                RSA_padding_add_PKCS1_PSS
                0x00000000401f79cc                RSA_padding_add_SSLv23
                0x00000000401f7aa0                RSA_padding_check_SSLv23
                0x00000000401f7c00                RSA_padding_add_X931
                0x00000000401f7cb6                RSA_padding_check_X931
                0x00000000401f7dd2                RSA_X931_hash_id
                0x00000000401f7e14                ASN1_bn_print
                0x00000000401f8010                X509_ocspid_print
                0x00000000401f8198                X509_signature_print
                0x00000000401f829a                ASN1_STRING_print
                0x00000000401f8353                ASN1_GENERALIZEDTIME_print
                0x00000000401f8608                ASN1_UTCTIME_print
                0x00000000401f8774                ASN1_TIME_print
                0x00000000401f87ad                X509_print_ex
                0x00000000401f8cf1                X509_print
                0x00000000401f8d06                X509_NAME_print
                0x00000000401f8dfc                X509_CERT_AUX_print
                0x00000000401f939c                UI_free
                0x00000000401f93db                UI_add_input_string
                0x00000000401f940c                UI_dup_input_string
                0x00000000401f94b4                UI_add_verify_string
                0x00000000401f94e5                UI_dup_verify_string
                0x00000000401f958d                UI_add_input_boolean
                0x00000000401f95b7                UI_dup_input_boolean
                0x00000000401f975f                UI_add_info_string
                0x00000000401f979c                UI_dup_info_string
                0x00000000401f9823                UI_add_error_string
                0x00000000401f9860                UI_dup_error_string
                0x00000000401f98e7                UI_construct_prompt
                0x00000000401f9a17                UI_add_user_data
                0x00000000401f9a25                UI_get0_user_data
                0x00000000401f9a2f                UI_process
                0x00000000401f9b64                UI_ctrl
                0x00000000401f9bf1                UI_get_ex_new_index
                0x00000000401f9c10                UI_set_ex_data
                0x00000000401f9c1f                UI_get_ex_data
                0x00000000401f9c2e                UI_set_default_method
                0x00000000401f9c3b                UI_get_default_method
                0x00000000401f9c5e                UI_new_method
                0x00000000401f9ced                UI_new
                0x00000000401f9cfd                UI_get_method
                0x00000000401f9d06                UI_set_method
                0x00000000401f9d12                UI_create_method
                0x00000000401f9d6b                UI_destroy_method
                0x00000000401f9d95                UI_method_set_opener
                0x00000000401f9db0                UI_method_set_writer
                0x00000000401f9dcb                UI_method_set_flusher
                0x00000000401f9de6                UI_method_set_reader
                0x00000000401f9e01                UI_method_set_closer
                0x00000000401f9e1c                UI_method_set_prompt_constructor
                0x00000000401f9e37                UI_method_get_opener
                0x00000000401f9e4d                UI_method_get_writer
                0x00000000401f9e63                UI_method_get_flusher
                0x00000000401f9e79                UI_method_get_reader
                0x00000000401f9e8f                UI_method_get_closer
                0x00000000401f9ea5                UI_method_get_prompt_constructor
                0x00000000401f9ebb                UI_get_string_type
                0x00000000401f9ecd                UI_get_input_flags
                0x00000000401f9ee0                UI_get0_output_string
                0x00000000401f9ef6                UI_get0_action_string
                0x00000000401f9f1f                UI_get0_result_string
                0x00000000401f9f44                UI_get0_result
                0x00000000401f9fd6                UI_get0_test_string
                0x00000000401f9ff6                UI_get_result_minsize
                0x00000000401fa01a                UI_get_result_maxsize
                0x00000000401fa03e                UI_set_result
                0x00000000401fa534                UI_OpenSSL
                0x00000000401fa540                d2i_AUTHORITY_KEYID
                0x00000000401fa550                i2d_AUTHORITY_KEYID
                0x00000000401fa560                AUTHORITY_KEYID_new
                0x00000000401fa570                AUTHORITY_KEYID_free
                0x00000000401fa813                POLICYINFO_free
                0x00000000401fa823                d2i_CERTIFICATEPOLICIES
                0x00000000401fa833                i2d_CERTIFICATEPOLICIES
                0x00000000401fa843                CERTIFICATEPOLICIES_new
                0x00000000401fa853                CERTIFICATEPOLICIES_free
                0x00000000401fa863                d2i_POLICYINFO
                0x00000000401fa873                i2d_POLICYINFO
                0x00000000401fa883                POLICYINFO_new
                0x00000000401fa893                d2i_POLICYQUALINFO
                0x00000000401fa8a3                i2d_POLICYQUALINFO
                0x00000000401fa8b3                POLICYQUALINFO_new
                0x00000000401fa8c3                POLICYQUALINFO_free
                0x00000000401fa8d3                d2i_USERNOTICE
                0x00000000401fa8e3                i2d_USERNOTICE
                0x00000000401fa8f3                USERNOTICE_new
                0x00000000401fa903                USERNOTICE_free
                0x00000000401fa913                d2i_NOTICEREF
                0x00000000401fa923                i2d_NOTICEREF
                0x00000000401fa933                NOTICEREF_new
                0x00000000401fb278                NOTICEREF_free
                0x00000000401fb288                X509_POLICY_NODE_print
                0x00000000401fb8c0                DIST_POINT_free
                0x00000000401fb8d0                d2i_DIST_POINT_NAME
                0x00000000401fb8e0                i2d_DIST_POINT_NAME
                0x00000000401fb8f0                DIST_POINT_NAME_new
                0x00000000401fbb0a                DIST_POINT_NAME_free
                0x00000000401fbb1a                d2i_DIST_POINT
                0x00000000401fbb2a                i2d_DIST_POINT
                0x00000000401fbb3a                DIST_POINT_new
                0x00000000401fbddd                d2i_CRL_DIST_POINTS
                0x00000000401fbded                i2d_CRL_DIST_POINTS
                0x00000000401fbdfd                CRL_DIST_POINTS_new
                0x00000000401fbe0d                CRL_DIST_POINTS_free
                0x00000000401fbe1d                d2i_ISSUING_DIST_POINT
                0x00000000401fbe2d                i2d_ISSUING_DIST_POINT
                0x00000000401fbe3d                ISSUING_DIST_POINT_new
                0x00000000401fbe4d                ISSUING_DIST_POINT_free
                0x00000000401fc05a                DIST_POINT_set_dpname
                0x00000000401fc148                i2d_GENERAL_NAME
                0x00000000401fc158                d2i_GENERAL_NAME
                0x00000000401fc168                d2i_OTHERNAME
                0x00000000401fc178                i2d_OTHERNAME
                0x00000000401fc188                OTHERNAME_new
                0x00000000401fc198                OTHERNAME_free
                0x00000000401fc1a8                d2i_EDIPARTYNAME
                0x00000000401fc1b8                i2d_EDIPARTYNAME
                0x00000000401fc1c8                EDIPARTYNAME_new
                0x00000000401fc1d8                EDIPARTYNAME_free
                0x00000000401fc1e8                GENERAL_NAME_new
                0x00000000401fc1f8                GENERAL_NAME_free
                0x00000000401fc208                d2i_GENERAL_NAMES
                0x00000000401fc218                i2d_GENERAL_NAMES
                0x00000000401fc228                GENERAL_NAMES_new
                0x00000000401fc238                GENERAL_NAMES_free
                0x00000000401fc248                GENERAL_NAME_dup
                0x00000000401fc260                OTHERNAME_cmp
                0x00000000401fc2ae                GENERAL_NAME_cmp
                0x00000000401fc336                GENERAL_NAME_set0_value
                0x00000000401fc36e                GENERAL_NAME_get0_value
                0x00000000401fc3b2                GENERAL_NAME_set0_othername
                0x00000000401fc408                GENERAL_NAME_get0_otherName
                0x00000000401fca6e                GENERAL_SUBTREE_new
                0x00000000401fca7e                GENERAL_SUBTREE_free
                0x00000000401fca8e                NAME_CONSTRAINTS_new
                0x00000000401fca9e                NAME_CONSTRAINTS_free
                0x00000000401fcc3c                NAME_CONSTRAINTS_check
                0x00000000401fcd6e                POLICY_CONSTRAINTS_new
                0x00000000401fcd7e                POLICY_CONSTRAINTS_free
                0x00000000401fcf83                POLICY_MAPPING_free
                0x00000000401fcf93                POLICY_MAPPING_new
                0x00000000401fd237                X509V3_EXT_val_prn
                0x00000000401fd35e                X509V3_EXT_print
                0x00000000401fd53a                X509V3_extensions_print
                0x00000000401fda41                X509_PURPOSE_get_count
                0x00000000401fda60                X509_PURPOSE_get0
                0x00000000401fda96                X509_PURPOSE_get_by_sname
                0x00000000401fdad6                X509_PURPOSE_get_by_id
                0x00000000401fdb16                X509_PURPOSE_set
                0x00000000401fdb70                X509_PURPOSE_add
                0x00000000401fdd39                X509_PURPOSE_cleanup
                0x00000000401fdd88                X509_PURPOSE_get_id
                0x00000000401fdd90                X509_PURPOSE_get0_name
                0x00000000401fdd9a                X509_PURPOSE_get0_sname
                0x00000000401fdda4                X509_PURPOSE_get_trust
                0x00000000401fddad                X509_supported_extension
                0x00000000401fe31e                X509_check_purpose
                0x00000000401fe3b8                X509_check_ca
                0x00000000401fe413                X509_check_akid
                0x00000000401fe4f0                X509_check_issued
                0x00000000401fe6d0                X509V3_conf_free
                0x00000000401fe7c9                X509V3_add_value
                0x00000000401fe8fa                X509V3_add_value_uchar
                0x00000000401fe905                X509V3_add_value_bool
                0x00000000401fe925                X509V3_add_value_bool_nf
                0x00000000401fe93e                i2s_ASN1_ENUMERATED
                0x00000000401fe9b8                i2s_ASN1_INTEGER
                0x00000000401fea32                s2i_ASN1_INTEGER
                0x00000000401feb6f                X509V3_add_value_int
                0x00000000401febd7                X509V3_get_value_bool
                0x00000000401fed4e                X509V3_get_value_int
                0x00000000401fedbf                X509V3_parse_list
                0x00000000401feff2                hex_to_string
                0x00000000401ff0b9                string_to_hex
                0x00000000401ff276                name_cmp
                0x00000000401ff2d5                X509_email_free
                0x00000000401ff441                X509_REQ_get1_email
                0x00000000401ff4b7                X509_get1_email
                0x00000000401ff511                X509_get1_ocsp
                0x00000000401ff5b0                a2i_ipadd
                0x00000000401ff721                a2i_IPADDRESS_NC
                0x00000000401ff811                a2i_IPADDRESS
                0x00000000401ff86d                X509V3_NAME_from_section
                0x00000000401ff960                X509at_get_attr_count
                0x00000000401ff96b                X509at_get_attr_by_OBJ
                0x00000000401ff9d9                X509at_get_attr_by_NID
                0x00000000401ffa18                X509at_get_attr
                0x00000000401ffa63                X509at_delete_attr
                0x00000000401ffaae                X509at_add1_attr
                0x00000000401ffb89                X509_ATTRIBUTE_set1_object
                0x00000000401ffbd2                X509_ATTRIBUTE_set1_data
                0x00000000401ffd5a                X509_ATTRIBUTE_create_by_OBJ
                0x00000000401ffe2e                X509_ATTRIBUTE_create_by_txt
                0x00000000401ffee6                X509at_add1_attr_by_txt
                0x00000000401fff3c                X509_ATTRIBUTE_create_by_NID
                0x00000000401fffd6                X509at_add1_attr_by_NID
                0x000000004020002c                X509at_add1_attr_by_OBJ
                0x0000000040200082                X509_ATTRIBUTE_count
                0x00000000402000a4                X509_ATTRIBUTE_get0_object
                0x00000000402000b9                X509_ATTRIBUTE_get0_type
                0x0000000040200110                X509_ATTRIBUTE_get0_data
                0x0000000040200176                X509at_get0_data_by_OBJ
                0x0000000040200224                X509_CRL_get_ext_count
                0x0000000040200236                X509_CRL_get_ext_by_NID
                0x0000000040200248                X509_CRL_get_ext_by_OBJ
                0x000000004020025a                X509_CRL_get_ext_by_critical
                0x000000004020026c                X509_CRL_get_ext
                0x000000004020027e                X509_CRL_delete_ext
                0x0000000040200290                X509_CRL_get_ext_d2i
                0x00000000402002a2                X509_CRL_add1_ext_i2d
                0x00000000402002b4                X509_CRL_add_ext
                0x00000000402002cf                X509_get_ext_count
                0x00000000402002e1                X509_get_ext_by_NID
                0x00000000402002f3                X509_get_ext_by_OBJ
                0x0000000040200305                X509_get_ext_by_critical
                0x0000000040200317                X509_get_ext
                0x0000000040200329                X509_delete_ext
                0x000000004020033b                X509_add_ext
                0x0000000040200356                X509_get_ext_d2i
                0x0000000040200368                X509_add1_ext_i2d
                0x000000004020037a                X509_REVOKED_get_ext_count
                0x0000000040200389                X509_REVOKED_get_ext_by_NID
                0x0000000040200398                X509_REVOKED_get_ext_by_OBJ
                0x00000000402003a7                X509_REVOKED_get_ext_by_critical
                0x00000000402003b6                X509_REVOKED_get_ext
                0x00000000402003c5                X509_REVOKED_delete_ext
                0x00000000402003d4                X509_REVOKED_add_ext
                0x00000000402003ec                X509_REVOKED_get_ext_d2i
                0x00000000402003fb                X509_REVOKED_add1_ext_i2d
                0x000000004020057e                X509_LOOKUP_new
                0x00000000402005ed                X509_LOOKUP_free
                0x0000000040200621                X509_LOOKUP_init
                0x0000000040200642                X509_LOOKUP_shutdown
                0x0000000040200663                X509_LOOKUP_ctrl
                0x000000004020068a                X509_LOOKUP_by_subject
                0x00000000402006b1                X509_LOOKUP_by_issuer_serial
                0x00000000402006d1                X509_LOOKUP_by_fingerprint
                0x00000000402006f1                X509_LOOKUP_by_alias
                0x0000000040200711                X509_STORE_new
                0x0000000040200809                X509_STORE_free
                0x0000000040200899                X509_STORE_add_lookup
                0x0000000040200921                X509_OBJECT_up_ref_count
                0x000000004020097b                X509_OBJECT_free_contents
                0x00000000402009a3                X509_OBJECT_idx_by_subject
                0x00000000402009b3                X509_OBJECT_retrieve_by_subject
                0x00000000402009df                X509_STORE_get_by_subject
                0x0000000040200af3                X509_STORE_get1_certs
                0x0000000040200cc5                X509_STORE_get1_crls
                0x0000000040200e88                X509_OBJECT_retrieve_match
                0x0000000040200f5b                X509_STORE_add_crl
                0x000000004020106f                X509_STORE_add_cert
                0x0000000040201183                X509_STORE_CTX_get1_issuer
                0x0000000040201349                X509_STORE_set_flags
                0x0000000040201358                X509_STORE_set_depth
                0x000000004020136c                X509_STORE_set_purpose
                0x000000004020137b                X509_STORE_set_trust
                0x000000004020138a                X509_STORE_set1_param
                0x0000000040201399                X509_STORE_set_verify_cb
                0x00000000402013b0                X509_to_X509_REQ
                0x00000000402014bc                X509_REQ_get_pubkey
                0x00000000402014e4                X509_REQ_check_private_key
                0x0000000040201619                X509_REQ_extension_nid
                0x0000000040201658                X509_REQ_get_extension_nids
                0x0000000040201665                X509_REQ_set_extension_nids
                0x0000000040201672                X509_REQ_add_extensions_nid
                0x0000000040201795                X509_REQ_add_extensions
                0x00000000402017a5                X509_REQ_get_attr_count
                0x00000000402017b7                X509_REQ_get_attr_by_NID
                0x00000000402017c9                X509_REQ_get_attr_by_OBJ
                0x00000000402017db                X509_REQ_get_attr
                0x00000000402017ed                X509_REQ_get_extensions
                0x00000000402018ef                X509_REQ_delete_attr
                0x0000000040201901                X509_REQ_add1_attr
                0x000000004020191c                X509_REQ_add1_attr_by_OBJ
                0x0000000040201937                X509_REQ_add1_attr_by_NID
                0x0000000040201952                X509_REQ_add1_attr_by_txt
                0x0000000040201af5                X509_TRUST_set_default
                0x0000000040201b09                X509_TRUST_get_count
                0x0000000040201b28                X509_TRUST_get0
                0x0000000040201b5c                X509_TRUST_get_by_id
                0x0000000040201b9c                X509_check_trust
                0x0000000040201bff                X509_TRUST_set
                0x0000000040201c59                X509_TRUST_add
                0x0000000040201e05                X509_TRUST_cleanup
                0x0000000040201e51                X509_TRUST_get_flags
                0x0000000040201e5a                X509_TRUST_get0_name
                0x0000000040201e64                X509_TRUST_get_trust
                0x0000000040201e70                X509v3_get_ext_count
                0x0000000040201e85                X509v3_get_ext_by_OBJ
                0x0000000040201ef3                X509v3_get_ext_by_NID
                0x0000000040201f32                X509v3_get_ext_by_critical
                0x0000000040201fa8                X509v3_get_ext
                0x0000000040201ff3                X509v3_delete_ext
                0x000000004020203e                X509v3_add_ext
                0x0000000040202143                X509_EXTENSION_set_object
                0x000000004020218c                X509_EXTENSION_set_critical
                0x00000000402021ab                X509_EXTENSION_set_data
                0x00000000402021d5                X509_EXTENSION_create_by_OBJ
                0x00000000402022af                X509_EXTENSION_create_by_NID
                0x000000004020233b                X509_EXTENSION_get_object
                0x0000000040202350                X509_EXTENSION_get_data
                0x0000000040202366                X509_EXTENSION_get_critical
                0x0000000040202380                X509_NAME_entry_count
                0x0000000040202398                X509_NAME_get_index_by_OBJ
                0x000000004020240b                X509_NAME_get_index_by_NID
                0x000000004020244a                X509_NAME_get_entry
                0x0000000040202498                X509_NAME_delete_entry
                0x0000000040202564                X509_NAME_add_entry
                0x00000000402026d8                X509_NAME_ENTRY_set_object
                0x0000000040202744                X509_NAME_ENTRY_set_data
                0x0000000040202829                X509_NAME_ENTRY_create_by_OBJ
                0x00000000402028dc                X509_NAME_ENTRY_create_by_NID
                0x0000000040202972                X509_NAME_add_entry_by_NID
                0x00000000402029d9                X509_NAME_ENTRY_create_by_txt
                0x0000000040202a91                X509_NAME_add_entry_by_txt
                0x0000000040202af8                X509_NAME_add_entry_by_OBJ
                0x0000000040202b5f                X509_NAME_ENTRY_get_object
                0x0000000040202b74                X509_NAME_ENTRY_get_data
                0x0000000040202b8a                X509_NAME_get_text_by_OBJ
                0x0000000040202c0c                X509_NAME_get_text_by_NID
                0x0000000040202c5c                X509_REQ_set_version
                0x0000000040202c78                X509_REQ_set_subject_name
                0x0000000040202c99                X509_REQ_set_pubkey
                0x0000000040202cbc                d2i_X509_VAL
                0x0000000040202ccc                i2d_X509_VAL
                0x0000000040202cdc                X509_VAL_new
                0x0000000040202cec                X509_VAL_free
                0x0000000040202d00                CRYPTO_cbc128_encrypt
                0x0000000040202e4b                CRYPTO_cbc128_decrypt
                0x0000000040203194                CRYPTO_cfb128_encrypt
                0x0000000040203445                CRYPTO_cfb128_1_encrypt
                0x000000004020350f                CRYPTO_cfb128_8_encrypt
                0x000000004020357c                CRYPTO_ofb128_encrypt
                0x00000000402036a8                i2d_ASN1_BOOLEAN
                0x0000000040203722                d2i_ASN1_BOOLEAN
                0x0000000040203a60                ASN1_mbstring_ncopy
                0x0000000040203f65                ASN1_mbstring_copy
                0x0000000040203f90                ASN1_PRINTABLE_type
                0x0000000040204051                ASN1_UNIVERSALSTRING_to_string
                0x000000004020413f                ASN1_STRING_set_default_mask
                0x000000004020414c                ASN1_STRING_get_default_mask
                0x0000000040204159                ASN1_STRING_set_default_mask_asc
                0x000000004020421c                ASN1_STRING_TABLE_get
                0x0000000040204282                ASN1_STRING_set_by_NID
                0x0000000040204341                ASN1_STRING_TABLE_add
                0x0000000040204476                ASN1_STRING_TABLE_cleanup
                0x00000000402044a0                ASN1_seq_unpack
                0x0000000040204505                ASN1_seq_pack
                0x0000000040204603                ASN1_unpack_string
                0x0000000040204656                ASN1_pack_string
                0x0000000040204758                ASN1_item_pack
                0x0000000040204851                ASN1_item_unpack
                0x00000000402048a8                BN_mod_exp2_mont
                0x0000000040205134                BN_kronecker
                0x000000004020545a                BN_get0_nist_prime_192
                0x0000000040205465                BN_get0_nist_prime_224
                0x0000000040205470                BN_get0_nist_prime_256
                0x000000004020547b                BN_get0_nist_prime_384
                0x0000000040205486                BN_get0_nist_prime_521
                0x0000000040205491                BN_nist_mod_192
                0x00000000402056ff                BN_nist_mod_224
                0x0000000040205a45                BN_nist_mod_256
                0x0000000040205edd                BN_nist_mod_384
                0x000000004020647d                BN_nist_mod_521
                0x0000000040206660                BN_mod_sqrt
                0x000000004020700b                CONF_modules_load
                0x000000004020748c                CONF_modules_finish
                0x0000000040207506                CONF_modules_unload
                0x00000000402075bc                CONF_module_add
                0x00000000402075de                CONF_modules_free
                0x00000000402075f3                CONF_imodule_get_name
                0x00000000402075fd                CONF_imodule_get_value
                0x0000000040207607                CONF_imodule_get_usr_data
                0x0000000040207611                CONF_imodule_set_usr_data
                0x000000004020761b                CONF_imodule_get_module
                0x0000000040207624                CONF_imodule_get_flags
                0x000000004020762e                CONF_imodule_set_flags
                0x0000000040207638                CONF_module_get_usr_data
                0x0000000040207642                CONF_module_set_usr_data
                0x000000004020764c                CONF_get1_default_config_file
                0x00000000402076c7                CONF_modules_load_file
                0x00000000402077a1                CONF_parse_list
                0x00000000402078b0                DSO_set_default_method
                0x00000000402078bd                DSO_get_default_method
                0x00000000402078ca                DSO_get_method
                0x00000000402078d3                DSO_set_method
                0x00000000402078df                DSO_new_method
                0x00000000402079d2                DSO_new
                0x00000000402079e2                DSO_free
                0x0000000040207af8                DSO_flags
                0x0000000040207b0b                DSO_up_ref
                0x0000000040207b5d                DSO_bind_var
                0x0000000040207bfb                DSO_bind_func
                0x0000000040207c99                DSO_ctrl
                0x0000000040207d31                DSO_set_name_converter
                0x0000000040207d75                DSO_get_filename
                0x0000000040207da8                DSO_set_filename
                0x0000000040207ea5                DSO_load
                0x0000000040208054                DSO_merge
                0x00000000402080b7                DSO_convert_filename
                0x00000000402081c7                DSO_get_loaded_filename
                0x00000000402081fa                DSO_pathbyaddr
                0x000000004020826e                DSO_global_lookup
                0x00000000402082c8                DSO_METHOD_openssl
                0x00000000402082e0                ec_GF2m_simple_is_at_infinity
                0x00000000402082f0                ec_GF2m_simple_points_make_affine
                0x0000000040208359                ec_GF2m_simple_field_div
                0x0000000040208374                ec_GF2m_simple_field_sqr
                0x000000004020838f                ec_GF2m_simple_field_mul
                0x00000000402083ad                ec_GF2m_simple_point_copy
                0x0000000040208412                ec_GF2m_simple_group_get_curve
                0x000000004020849a                ec_GF2m_simple_point_set_to_infinity
                0x00000000402084ba                ec_GF2m_simple_make_affine
                0x00000000402085ce                ec_GF2m_simple_cmp
                0x000000004020876b                ec_GF2m_simple_is_on_curve
                0x0000000040208909                ec_GF2m_simple_invert
                0x0000000040208973                ec_GF2m_simple_add
                0x0000000040208d8a                ec_GF2m_simple_dbl
                0x0000000040208d9b                ec_GF2m_simple_oct2point
                0x000000004020915b                ec_GF2m_simple_group_get_degree
                0x000000004020916d                ec_GF2m_simple_point2oct
                0x000000004020951e                ec_GF2m_simple_group_check_discriminant
                0x00000000402095f5                ec_GF2m_simple_set_compressed_coordinates
                0x0000000040209889                ec_GF2m_simple_point_get_affine_coordinates
                0x000000004020997d                ec_GF2m_simple_point_set_affine_coordinates
                0x0000000040209a5d                ec_GF2m_simple_point_clear_finish
                0x0000000040209a92                ec_GF2m_simple_group_clear_finish
                0x0000000040209b02                ec_GF2m_simple_point_finish
                0x0000000040209b30                ec_GF2m_simple_group_finish
                0x0000000040209b64                ec_GF2m_simple_point_init
                0x0000000040209b97                ec_GF2m_simple_group_init
                0x0000000040209bd0                ec_GF2m_simple_group_set_curve
                0x0000000040209d7e                ec_GF2m_simple_group_copy
                0x0000000040209f1d                EC_GF2m_simple_method
                0x0000000040209f28                d2i_ECDSA_SIG
                0x0000000040209f38                i2d_ECDSA_SIG
                0x0000000040209f48                ECDSA_SIG_new
                0x0000000040209f58                ECDSA_SIG_free
                0x0000000040209f7e                ERR_print_errors_cb
                0x000000004020a06e                ERR_print_errors
                0x000000004020a084                PKCS12_item_pack_safebag
                0x000000004020a180                PKCS12_MAKE_KEYBAG
                0x000000004020a1df                PKCS12_MAKE_SHKEYBAG
                0x000000004020a2d0                PKCS12_pack_p7data
                0x000000004020a394                PKCS12_unpack_p7data
                0x000000004020a3e9                PKCS12_pack_p7encdata
                0x000000004020a58a                PKCS12_unpack_p7encdata
                0x000000004020a5f4                PKCS12_decrypt_skey
                0x000000004020a603                PKCS12_pack_authsafes
                0x000000004020a62a                PKCS12_unpack_authsafes
                0x000000004020a688                d2i_PKCS12
                0x000000004020a698                i2d_PKCS12
                0x000000004020a6a8                PKCS12_new
                0x000000004020a6b8                PKCS12_free
                0x000000004020a6c8                d2i_PKCS12_MAC_DATA
                0x000000004020a6d8                i2d_PKCS12_MAC_DATA
                0x000000004020a6e8                PKCS12_MAC_DATA_new
                0x000000004020a6f8                PKCS12_MAC_DATA_free
                0x000000004020a708                d2i_PKCS12_BAGS
                0x000000004020a718                i2d_PKCS12_BAGS
                0x000000004020a728                PKCS12_BAGS_new
                0x000000004020a738                PKCS12_BAGS_free
                0x000000004020a748                d2i_PKCS12_SAFEBAG
                0x000000004020a758                i2d_PKCS12_SAFEBAG
                0x000000004020a768                PKCS12_SAFEBAG_new
                0x000000004020a778                PKCS12_SAFEBAG_free
                0x000000004020a788                PKCS12_pbe_crypt
                0x000000004020a908                PKCS12_item_decrypt_d2i
                0x000000004020a9d4                PKCS12_item_i2d_encrypt
                0x000000004020ab10                PKCS8_encrypt
                0x000000004020ac48                X509_policy_tree_level_count
                0x000000004020ac5b                X509_policy_tree_get0_level
                0x000000004020ac8a                X509_policy_tree_get0_policies
                0x000000004020aca0                X509_policy_tree_get0_user_policies
                0x000000004020acc2                X509_policy_level_node_count
                0x000000004020acf9                X509_policy_level_get0_node
                0x000000004020ad24                X509_policy_node_get0_policy
                0x000000004020ad3d                X509_policy_node_get0_qualifiers
                0x000000004020ad56                X509_policy_node_get0_parent
                0x000000004020ad8b                policy_node_cmp_new
                0x000000004020ad9b                tree_find_sk
                0x000000004020add7                level_find_node
                0x000000004020ae4b                policy_node_free
                0x000000004020ae56                level_add_node
                0x000000004020af52                policy_node_match
                0x000000004020b159                i2v_GENERAL_NAME
                0x000000004020b3e0                i2v_GENERAL_NAMES
                0x000000004020b444                GENERAL_NAME_print
                0x000000004020b5e8                a2i_GENERAL_NAME
                0x000000004020b9ac                v2i_GENERAL_NAME_ex
                0x000000004020bb19                v2i_GENERAL_NAME
                0x000000004020be64                v2i_GENERAL_NAMES
                0x000000004020bf5d                d2i_BASIC_CONSTRAINTS
                0x000000004020bf6d                i2d_BASIC_CONSTRAINTS
                0x000000004020bf7d                BASIC_CONSTRAINTS_new
                0x000000004020bf8d                BASIC_CONSTRAINTS_free
                0x000000004020c725                X509V3_EXT_nconf
                0x000000004020c7fc                X509V3_EXT_nconf_nid
                0x000000004020c88c                X509V3_EXT_i2d
                0x000000004020c8f6                X509V3_EXT_add_nconf_sk
                0x000000004020c99e                X509V3_EXT_add_nconf
                0x000000004020c9bd                X509V3_EXT_CRL_add_nconf
                0x000000004020c9dc                X509V3_EXT_REQ_add_nconf
                0x000000004020ca3b                X509V3_get_string
                0x000000004020ca86                X509V3_get_section
                0x000000004020cad2                X509V3_string_free
                0x000000004020caf0                X509V3_section_free
                0x000000004020cb0e                X509V3_set_nconf
                0x000000004020cb20                X509V3_set_ctx
                0x000000004020cb39                X509V3_EXT_conf
                0x000000004020cb82                X509V3_EXT_conf_nid
                0x000000004020cbcb                X509V3_set_conf_lhash
                0x000000004020cbdd                X509V3_EXT_add_conf
                0x000000004020cc26                X509V3_EXT_CRL_add_conf
                0x000000004020cc6f                X509V3_EXT_REQ_add_conf
                0x000000004020ce0f                ACCESS_DESCRIPTION_free
                0x000000004020ce1f                d2i_ACCESS_DESCRIPTION
                0x000000004020ce2f                i2d_ACCESS_DESCRIPTION
                0x000000004020ce3f                ACCESS_DESCRIPTION_new
                0x000000004020d069                d2i_AUTHORITY_INFO_ACCESS
                0x000000004020d079                i2d_AUTHORITY_INFO_ACCESS
                0x000000004020d089                AUTHORITY_INFO_ACCESS_new
                0x000000004020d099                AUTHORITY_INFO_ACCESS_free
                0x000000004020d0a9                i2a_ACCESS_DESCRIPTION
                0x000000004020d0ec                X509V3_EXT_add
                0x000000004020d180                X509V3_EXT_get_nid
                0x000000004020d1f8                X509V3_EXT_get
                0x000000004020d216                X509V3_EXT_add_list
                0x000000004020d254                X509V3_EXT_add_alias
                0x000000004020d34f                X509V3_EXT_cleanup
                0x000000004020d371                X509V3_add_standard_extensions
                0x000000004020d37c                X509V3_EXT_d2i
                0x000000004020d3d7                X509V3_get_d2i
                0x000000004020d4ff                X509V3_add1_i2d
                0x000000004020e4c0                d2i_PROXY_POLICY
                0x000000004020e4d0                i2d_PROXY_POLICY
                0x000000004020e4e0                PROXY_POLICY_new
                0x000000004020e4f0                PROXY_POLICY_free
                0x000000004020e500                d2i_PROXY_CERT_INFO_EXTENSION
                0x000000004020e510                i2d_PROXY_CERT_INFO_EXTENSION
                0x000000004020e520                PROXY_CERT_INFO_EXTENSION_new
                0x000000004020e530                PROXY_CERT_INFO_EXTENSION_free
                0x000000004020e5d1                d2i_PKEY_USAGE_PERIOD
                0x000000004020e5e1                i2d_PKEY_USAGE_PERIOD
                0x000000004020e5f1                PKEY_USAGE_PERIOD_new
                0x000000004020e601                PKEY_USAGE_PERIOD_free
                0x000000004020e620                i2s_ASN1_OCTET_STRING
                0x000000004020e635                s2i_ASN1_OCTET_STRING
                0x000000004020e8e7                d2i_SXNETID
                0x000000004020e8f7                i2d_SXNETID
                0x000000004020e907                SXNETID_new
                0x000000004020e917                SXNETID_free
                0x000000004020e927                d2i_SXNET
                0x000000004020e937                i2d_SXNET
                0x000000004020e947                SXNET_new
                0x000000004020e957                SXNET_free
                0x000000004020e967                SXNET_get_id_INTEGER
                0x000000004020e9c6                SXNET_get_id_ulong
                0x000000004020ea57                SXNET_get_id_asc
                0x000000004020eac6                SXNET_add_id_INTEGER
                0x000000004020ec86                SXNET_add_id_ulong
                0x000000004020ed24                SXNET_add_id_asc
                0x000000004020edf8                X509_get_default_private_dir
                0x000000004020ee03                X509_get_default_cert_area
                0x000000004020ee0e                X509_get_default_cert_dir
                0x000000004020ee19                X509_get_default_cert_file
                0x000000004020ee24                X509_get_default_cert_dir_env
                0x000000004020ee2f                X509_get_default_cert_file_env
                0x000000004020ee81                i2d_ASN1_SET
                0x000000004020f0ea                d2i_ASN1_SET
                0x000000004020f9af                ASN1_generate_v3
                0x00000000402102e1                ASN1_generate_nconf
                0x00000000402104ec                BN_GF2m_add
                0x00000000402105ca                BN_GF2m_mod_arr
                0x0000000040210866                BN_GF2m_mod_sqr_arr
                0x0000000040210a0a                BN_GF2m_mod_mul_arr
                0x0000000040210c70                BN_GF2m_mod_exp_arr
                0x0000000040210da7                BN_GF2m_mod_sqrt_arr
                0x0000000040210e4f                BN_GF2m_mod_solve_quad_arr
                0x0000000040211219                BN_GF2m_poly2arr
                0x00000000402112a3                BN_GF2m_mod_solve_quad
                0x0000000040211370                BN_GF2m_mod_sqrt
                0x000000004021143d                BN_GF2m_mod_exp
                0x0000000040211512                BN_GF2m_mod_sqr
                0x00000000402115df                BN_GF2m_mod_mul
                0x00000000402116b4                BN_GF2m_mod
                0x0000000040211779                BN_GF2m_mod_inv
                0x0000000040211959                BN_GF2m_mod_div
                0x00000000402119f6                BN_GF2m_arr2poly
                0x0000000040211a5b                BN_GF2m_mod_div_arr
                0x0000000040211aef                BN_GF2m_mod_inv_arr
                0x0000000040211b80                CONF_set_nconf
                0x0000000040211bc7                CONF_set_default_method
                0x0000000040211bd9                CONF_load
                0x0000000040211c03                NCONF_new
                0x0000000040211c50                NCONF_free
                0x0000000040211c61                NCONF_free_data
                0x0000000040211c72                CONF_free
                0x0000000040211c91                NCONF_load
                0x0000000040211cc6                NCONF_load_bio
                0x0000000040211cfb                CONF_load_bio
                0x0000000040211d45                NCONF_get_section
                0x0000000040211da2                CONF_get_section
                0x0000000040211dd7                NCONF_get_string
                0x0000000040211e7e                CONF_get_string
                0x0000000040211ec5                NCONF_get_number_e
                0x0000000040211f60                CONF_get_number
                0x0000000040211fbe                NCONF_dump_bio
                0x0000000040211ff3                CONF_dump_bio
                0x0000000040212020                DSO_METHOD_null
                0x00000000402128ea                ec_GF2m_simple_mul
                0x0000000040212b45                ec_GF2m_precompute_mult
                0x0000000040212b50                ec_GF2m_have_precompute_mult
                0x0000000040212b5c                i2a_ASN1_INTEGER
                0x0000000040212c9d                a2i_ASN1_INTEGER
                0x0000000040212fa0                i2a_ASN1_STRING
                0x00000000402130b1                a2i_ASN1_STRING
                0x0000000040213368                d2i_OCSP_SIGNATURE
                0x0000000040213378                i2d_OCSP_SIGNATURE
                0x0000000040213388                OCSP_SIGNATURE_new
                0x0000000040213398                OCSP_SIGNATURE_free
                0x00000000402133a8                d2i_OCSP_CERTID
                0x00000000402133b8                i2d_OCSP_CERTID
                0x00000000402133c8                OCSP_CERTID_new
                0x00000000402133d8                OCSP_CERTID_free
                0x00000000402133e8                d2i_OCSP_ONEREQ
                0x00000000402133f8                i2d_OCSP_ONEREQ
                0x0000000040213408                OCSP_ONEREQ_new
                0x0000000040213418                OCSP_ONEREQ_free
                0x0000000040213428                d2i_OCSP_REQINFO
                0x0000000040213438                i2d_OCSP_REQINFO
                0x0000000040213448                OCSP_REQINFO_new
                0x0000000040213458                OCSP_REQINFO_free
                0x0000000040213468                d2i_OCSP_REQUEST
                0x0000000040213478                i2d_OCSP_REQUEST
                0x0000000040213488                OCSP_REQUEST_new
                0x0000000040213498                OCSP_REQUEST_free
                0x00000000402134a8                d2i_OCSP_RESPBYTES
                0x00000000402134b8                i2d_OCSP_RESPBYTES
                0x00000000402134c8                OCSP_RESPBYTES_new
                0x00000000402134d8                OCSP_RESPBYTES_free
                0x00000000402134e8                d2i_OCSP_RESPONSE
                0x00000000402134f8                i2d_OCSP_RESPONSE
                0x0000000040213508                OCSP_RESPONSE_new
                0x0000000040213518                OCSP_RESPONSE_free
                0x0000000040213528                d2i_OCSP_RESPID
                0x0000000040213538                i2d_OCSP_RESPID
                0x0000000040213548                OCSP_RESPID_new
                0x0000000040213558                OCSP_RESPID_free
                0x0000000040213568                d2i_OCSP_REVOKEDINFO
                0x0000000040213578                i2d_OCSP_REVOKEDINFO
                0x0000000040213588                OCSP_REVOKEDINFO_new
                0x0000000040213598                OCSP_REVOKEDINFO_free
                0x00000000402135a8                d2i_OCSP_CERTSTATUS
                0x00000000402135b8                i2d_OCSP_CERTSTATUS
                0x00000000402135c8                OCSP_CERTSTATUS_new
                0x00000000402135d8                OCSP_CERTSTATUS_free
                0x00000000402135e8                d2i_OCSP_SINGLERESP
                0x00000000402135f8                i2d_OCSP_SINGLERESP
                0x0000000040213608                OCSP_SINGLERESP_new
                0x0000000040213618                OCSP_SINGLERESP_free
                0x0000000040213628                d2i_OCSP_RESPDATA
                0x0000000040213638                i2d_OCSP_RESPDATA
                0x0000000040213648                OCSP_RESPDATA_new
                0x0000000040213658                OCSP_RESPDATA_free
                0x0000000040213668                d2i_OCSP_BASICRESP
                0x0000000040213678                i2d_OCSP_BASICRESP
                0x0000000040213688                OCSP_BASICRESP_new
                0x0000000040213698                OCSP_BASICRESP_free
                0x00000000402136a8                d2i_OCSP_CRLID
                0x00000000402136b8                i2d_OCSP_CRLID
                0x00000000402136c8                OCSP_CRLID_new
                0x00000000402136d8                OCSP_CRLID_free
                0x00000000402136e8                d2i_OCSP_SERVICELOC
                0x00000000402136f8                i2d_OCSP_SERVICELOC
                0x0000000040213708                OCSP_SERVICELOC_new
                0x0000000040213718                OCSP_SERVICELOC_free
                0x0000000040213adc                v2i_ASN1_BIT_STRING
                0x0000000040213c5f                i2v_ASN1_BIT_STRING
                0x0000000040213cb4                i2s_ASN1_ENUMERATED_TABLE
                0x0000000040213e80                d2i_EXTENDED_KEY_USAGE
                0x0000000040213e90                i2d_EXTENDED_KEY_USAGE
                0x0000000040213ea0                EXTENDED_KEY_USAGE_new
                0x0000000040213eb0                EXTENDED_KEY_USAGE_free
                0x0000000040214128                _CONF_get_section
                0x000000004021415c                _CONF_get_section_values
                0x0000000040214177                _CONF_add_string
                0x0000000040214202                _CONF_get_string
                0x00000000402142a0                _CONF_new_data
                0x00000000402142e2                _CONF_free_data
                0x0000000040214333                _CONF_new_section
                0x00000000402152c1                NCONF_default
                0x00000000402152cc                NCONF_WIN32
                0x00000000402152d8                codeend = .

.iplt           0x00000000402152e0        0x0 load address 0x00000000002152e0
 .iplt          0x0000000000000000        0x0 output.o

.rodata         0x00000000402152e0    0x34fac load address 0x00000000002152e0
 .rodata        0x00000000402152e0    0x34fac output.o
                0x0000000040223460                BN_version
                0x0000000040223880                DES_SPtrans
                0x0000000040224880                DH_version
                0x0000000040225d60                OSSL_DES_version
                0x0000000040225da0                OSSL_libdes_version
                0x0000000040225e80                EVP_version
                0x0000000040225f40                IDEA_version
                0x0000000040225f80                lh_version
                0x00000000402265c0                MD4_version
                0x0000000040226600                MD5_version
                0x0000000040233180                PEM_version
                0x00000000402331e0                PKCS7_ATTR_VERIFY_it
                0x0000000040233220                PKCS7_ATTR_SIGN_it
                0x0000000040233260                PKCS7_DIGEST_it
                0x00000000402332a0                PKCS7_ENCRYPT_it
                0x00000000402332e0                PKCS7_SIGN_ENVELOPE_it
                0x0000000040233320                PKCS7_ENC_CONTENT_it
                0x0000000040233360                PKCS7_RECIP_INFO_it
                0x00000000402333a0                PKCS7_ENVELOPE_it
                0x00000000402333e0                PKCS7_ISSUER_AND_SERIAL_it
                0x0000000040233420                PKCS7_SIGNER_INFO_it
                0x0000000040233460                PKCS7_SIGNED_it
                0x00000000402334a0                PKCS7_it
                0x0000000040233f60                RC2_version
                0x00000000402340a0                RC4_version
                0x00000000402340e0                RMD160_version
                0x0000000040234120                RSAPublicKey_it
                0x0000000040234160                RSAPrivateKey_it
                0x0000000040234400                RSA_version
                0x0000000040235600                SHA1_version
                0x0000000040235640                SHA256_version
                0x0000000040235780                SHA512_version
                0x0000000040235a40                SHA_version
                0x0000000040235a80                STACK_version
                0x0000000040235ce0                ASN1_SET_ANY_it
                0x0000000040235d20                ASN1_SEQUENCE_ANY_it
                0x0000000040235d60                ASN1_OCTET_STRING_NDEF_it
                0x0000000040235da0                ASN1_FBOOLEAN_it
                0x0000000040235de0                ASN1_TBOOLEAN_it
                0x0000000040235e20                ASN1_BOOLEAN_it
                0x0000000040235e60                DIRECTORYSTRING_it
                0x0000000040235ea0                DISPLAYTEXT_it
                0x0000000040235ee0                ASN1_PRINTABLE_it
                0x0000000040235f20                ASN1_SEQUENCE_it
                0x0000000040235f60                ASN1_ANY_it
                0x0000000040235fa0                ASN1_BMPSTRING_it
                0x0000000040235fe0                ASN1_UNIVERSALSTRING_it
                0x0000000040236020                ASN1_VISIBLESTRING_it
                0x0000000040236060                ASN1_GENERALIZEDTIME_it
                0x00000000402360a0                ASN1_UTCTIME_it
                0x00000000402360e0                ASN1_GENERALSTRING_it
                0x0000000040236120                ASN1_IA5STRING_it
                0x0000000040236160                ASN1_T61STRING_it
                0x00000000402361a0                ASN1_PRINTABLESTRING_it
                0x00000000402361e0                ASN1_UTF8STRING_it
                0x0000000040236220                ASN1_OBJECT_it
                0x0000000040236260                ASN1_NULL_it
                0x00000000402362a0                ASN1_OCTET_STRING_it
                0x00000000402362e0                ASN1_BIT_STRING_it
                0x0000000040236320                ASN1_ENUMERATED_it
                0x0000000040236360                ASN1_INTEGER_it
                0x0000000040236440                X509_version
                0x00000000402365a0                X509_ALGORS_it
                0x00000000402365e0                X509_ALGOR_it
                0x00000000402366c0                X509_ATTRIBUTE_it
                0x0000000040236700                X509_ATTRIBUTE_SET_it
                0x0000000040236800                CBIGNUM_it
                0x0000000040236840                BIGNUM_it
                0x0000000040236880                X509_CRL_it
                0x00000000402368c0                X509_CRL_INFO_it
                0x0000000040236900                X509_REVOKED_it
                0x0000000040236be0                X509_EXTENSIONS_it
                0x0000000040236c20                X509_EXTENSION_it
                0x0000000040236d20                ZLONG_it
                0x0000000040236d60                LONG_it
                0x0000000040236da0                X509_NAME_it
                0x0000000040236de0                x509_name_ff
                0x0000000040236e20                X509_NAME_INTERNAL_it
                0x0000000040236e60                X509_NAME_ENTRIES_it
                0x0000000040236ea0                X509_NAME_ENTRY_it
                0x0000000040236fc0                X509_PUBKEY_it
                0x00000000402370a0                X509_REQ_it
                0x00000000402370e0                X509_REQ_INFO_it
                0x00000000402372c0                X509_SIG_it
                0x0000000040237360                NETSCAPE_SPKI_it
                0x00000000402373a0                NETSCAPE_SPKAC_it
                0x00000000402374c0                X509_it
                0x0000000040237500                X509_CINF_it
                0x00000000402377e0                X509_CERT_PAIR_it
                0x0000000040237820                X509_CERT_AUX_it
                0x0000000040237e20                rsa_pkey_meth
                0x0000000040237f00                dh_pkey_meth
                0x0000000040237fe0                dsa_pkey_meth
                0x00000000402380c0                ec_pkey_meth
                0x00000000402381a0                hmac_pkey_meth
                0x00000000402382c0                rsa_asn1_meths
                0x0000000040238440                dh_asn1_meth
                0x0000000040238500                dsa_asn1_meths
                0x00000000402388a0                eckey_asn1_meth
                0x0000000040238960                hmac_asn1_meth
                0x0000000040239aa0                CMS_Receipt_it
                0x0000000040239ae0                CMS_ReceiptRequest_it
                0x0000000040239b20                CMS_ReceiptsFrom_it
                0x0000000040239b60                CMS_Attributes_Verify_it
                0x0000000040239ba0                CMS_Attributes_Sign_it
                0x0000000040239be0                CMS_ContentInfo_it
                0x0000000040239c20                CMS_CompressedData_it
                0x0000000040239c60                CMS_AuthenticatedData_it
                0x0000000040239ca0                CMS_EncryptedData_it
                0x0000000040239ce0                CMS_DigestedData_it
                0x0000000040239d20                CMS_EnvelopedData_it
                0x0000000040239d60                CMS_RecipientInfo_it
                0x0000000040239da0                CMS_OtherRecipientInfo_it
                0x0000000040239de0                CMS_PasswordRecipientInfo_it
                0x0000000040239e20                CMS_KEKRecipientInfo_it
                0x0000000040239e60                CMS_KEKIdentifier_it
                0x0000000040239ea0                CMS_KeyAgreeRecipientInfo_it
                0x0000000040239ee0                CMS_OriginatorIdentifierOrKey_it
                0x0000000040239f20                CMS_OriginatorPublicKey_it
                0x0000000040239f60                CMS_RecipientEncryptedKey_it
                0x0000000040239fa0                CMS_KeyAgreeRecipientIdentifier_it
                0x0000000040239fe0                CMS_RecipientKeyIdentifier_it
                0x000000004023a020                CMS_OtherKeyAttribute_it
                0x000000004023a060                CMS_KeyTransRecipientInfo_it
                0x000000004023a0a0                CMS_EncryptedContentInfo_it
                0x000000004023a0e0                CMS_OriginatorInfo_it
                0x000000004023a120                CMS_SignedData_it
                0x000000004023a160                CMS_RevocationInfoChoice_it
                0x000000004023a1a0                CMS_OtherRevocationInfoFormat_it
                0x000000004023a1e0                CMS_SignerInfo_it
                0x000000004023a220                CMS_EncapsulatedContentInfo_it
                0x000000004023a260                CMS_SignerIdentifier_it
                0x000000004023a2a0                CMS_CertificateChoices_it
                0x000000004023a2e0                CMS_OtherCertificateFormat_it
                0x000000004023a320                CMS_IssuerAndSerialNumber_it
                0x000000004023bb60                ASN1_TIME_it
                0x000000004023bbe0                ASN1_version
                0x000000004023bd40                BF_version
                0x000000004023dee0                CAST_version
                0x000000004023dfa0                CAST_S_table7
                0x000000004023e3a0                CAST_S_table6
                0x000000004023e7a0                CAST_S_table5
                0x000000004023eba0                CAST_S_table4
                0x000000004023efa0                CAST_S_table3
                0x000000004023f3a0                CAST_S_table2
                0x000000004023f7a0                CAST_S_table1
                0x000000004023fba0                CAST_S_table0
                0x00000000402401e0                DHparams_it
                0x00000000402402e0                DSAPublicKey_it
                0x0000000040240320                dsa_pub_internal_it
                0x0000000040240360                DSAparams_it
                0x00000000402403a0                DSAPrivateKey_it
                0x00000000402403e0                DSA_SIG_it
                0x0000000040240800                DSA_version
                0x0000000040240840                EC_PRIVATEKEY_it
                0x0000000040240880                ECPKPARAMETERS_it
                0x00000000402408c0                ECPARAMETERS_it
                0x0000000040240900                X9_62_CURVE_it
                0x0000000040240940                X9_62_FIELDID_it
                0x0000000040240980                X9_62_CHARACTERISTIC_TWO_it
                0x00000000402409c0                X9_62_PENTANOMIAL_it
                0x0000000040244980                ECDH_version
                0x0000000040244d80                ECDSA_version
                0x0000000040245080                RAND_version
                0x00000000402450c0                NETSCAPE_CERT_SEQUENCE_it
                0x00000000402451a0                PBEPARAM_it
                0x0000000040245240                PBKDF2PARAM_it
                0x0000000040245280                PBE2PARAM_it
                0x00000000402453c0                PKCS8_PRIV_KEY_INFO_it
                0x0000000040245580                AUTHORITY_KEYID_it
                0x0000000040245640                NOTICEREF_it
                0x0000000040245680                USERNOTICE_it
                0x00000000402456c0                POLICYQUALINFO_it
                0x0000000040245700                POLICYINFO_it
                0x0000000040245740                CERTIFICATEPOLICIES_it
                0x0000000040245780                v3_cpols
                0x0000000040245aa0                v3_idp
                0x0000000040245b20                ISSUING_DIST_POINT_it
                0x0000000040245b60                CRL_DIST_POINTS_it
                0x0000000040245ba0                DIST_POINT_it
                0x0000000040245be0                DIST_POINT_NAME_it
                0x0000000040245c20                v3_freshest_crl
                0x0000000040245ca0                v3_crld
                0x0000000040246160                GENERAL_NAMES_it
                0x00000000402461a0                GENERAL_NAME_it
                0x00000000402461e0                EDIPARTYNAME_it
                0x0000000040246220                OTHERNAME_it
                0x00000000402464e0                NAME_CONSTRAINTS_it
                0x0000000040246520                GENERAL_SUBTREE_it
                0x0000000040246560                v3_name_constraints
                0x00000000402466c0                POLICY_CONSTRAINTS_it
                0x0000000040246700                v3_policy_constraints
                0x00000000402467e0                POLICY_MAPPINGS_it
                0x0000000040246820                POLICY_MAPPING_it
                0x0000000040246860                v3_policy_mappings
                0x00000000402469e0                X509_VAL_it
                0x0000000040247480                ECDSA_SIG_it
                0x0000000040247520                PKCS12_AUTHSAFES_it
                0x0000000040247560                PKCS12_SAFEBAGS_it
                0x00000000402475a0                PKCS12_SAFEBAG_it
                0x00000000402475e0                PKCS12_BAGS_it
                0x0000000040247620                PKCS12_MAC_DATA_it
                0x0000000040247660                PKCS12_it
                0x0000000040247ca0                v3_alt
                0x0000000040247de0                BASIC_CONSTRAINTS_it
                0x0000000040247e20                v3_bcons
                0x0000000040247f00                AUTHORITY_INFO_ACCESS_it
                0x0000000040247f40                ACCESS_DESCRIPTION_it
                0x0000000040247f80                v3_sinfo
                0x0000000040248000                v3_info
                0x0000000040248120                v3_ocsp_serviceloc
                0x00000000402481a0                v3_ocsp_nocheck
                0x0000000040248220                v3_ocsp_nonce
                0x00000000402482a0                v3_crl_hold
                0x0000000040248320                v3_crl_invdate
                0x00000000402483a0                v3_ocsp_acutoff
                0x0000000040248420                v3_ocsp_crlid
                0x00000000402484a0                v3_pci
                0x0000000040248520                PROXY_CERT_INFO_EXTENSION_it
                0x0000000040248560                PROXY_POLICY_it
                0x0000000040248660                PKEY_USAGE_PERIOD_it
                0x00000000402486a0                v3_pkey_usage_period
                0x0000000040248780                v3_skey_id
                0x0000000040248800                SXNET_it
                0x0000000040248840                SXNETID_it
                0x0000000040248880                v3_sxnet
                0x0000000040248e60                CONF_version
                0x0000000040248ea0                OCSP_SERVICELOC_it
                0x0000000040248ee0                OCSP_CRLID_it
                0x0000000040248f20                OCSP_BASICRESP_it
                0x0000000040248f60                OCSP_RESPDATA_it
                0x0000000040248fa0                OCSP_SINGLERESP_it
                0x0000000040248fe0                OCSP_CERTSTATUS_it
                0x0000000040249020                OCSP_REVOKEDINFO_it
                0x0000000040249060                OCSP_RESPID_it
                0x00000000402490a0                OCSP_RESPONSE_it
                0x00000000402490e0                OCSP_RESPBYTES_it
                0x0000000040249120                OCSP_REQUEST_it
                0x0000000040249160                OCSP_REQINFO_it
                0x00000000402491a0                OCSP_ONEREQ_it
                0x00000000402491e0                OCSP_CERTID_it
                0x0000000040249220                OCSP_SIGNATURE_it
                0x0000000040249a20                v3_akey_id
                0x0000000040249aa0                v3_key_usage
                0x0000000040249b20                v3_nscert
                0x0000000040249ba0                v3_crl_reason
                0x0000000040249c20                EXTENDED_KEY_USAGE_it
                0x0000000040249c60                v3_ocsp_accresp
                0x0000000040249ce0                v3_ext_ku
                0x0000000040249da0                v3_ns_ia5_list
                0x000000004024a0e0                v3_inhibit_anyp
                0x000000004024a160                v3_delta_crl
                0x000000004024a1e0                v3_crl_num
                0x000000004024a260                CONF_def_version

.rodata.str1.1  0x000000004024a28c    0x12bc6 load address 0x000000000024a28c
 .rodata.str1.1
                0x000000004024a28c    0x12bc6 output.o
                                      0x14fe2 (size before relaxing)

.rodata.str1.8  0x000000004025ce58     0x98d0 load address 0x000000000025ce58
 .rodata.str1.8
                0x000000004025ce58     0x98d0 output.o
                                       0x9bf5 (size before relaxing)

.eh_frame       0x0000000040266728    0x37300 load address 0x0000000000266728
 .eh_frame      0x0000000040266728    0x37300 output.o

.eh_frame_hdr   0x000000004029da28        0x8 load address 0x000000000029da28
 .eh_frame_hdr  0x000000004029da28        0x8 output.o

.note.gnu.build-id
                0x000000004029da30      0x288 load address 0x000000000029da30
 .note.gnu.build-id
                0x000000004029da30      0x288 output.o

.rela.dyn       0x000000004029dcb8        0x0 load address 0x000000000029dcb8
 .rela.iplt     0x0000000000000000        0x0 output.o
 .rela.text     0x0000000000000000        0x0 output.o

.data           0x000000004029e000  0x9d37000 load address 0x000000000029e000
                0x000000004029e000                data = .
 *(.data)
 .data          0x000000004029e000   0x9eaa3b output.o
                0x000000004029e020                config
                0x00000000402ae190                use_pae
                0x00000000402ae3b0                savemsr_index
                0x00000000402af000                vmm_pml4
                0x00000000402b0000                vmm_pdp
                0x00000000402b1000                vmm_pd
                0x00000000402b2000                vmm_pd1
                0x00000000402b3000                vmm_pd2
                0x00000000402b4000                guest_int0x15_hook
                0x00000000402b401d                guest_int0x15_e801_fake_ax
                0x00000000402b4020                guest_int0x15_e801_fake_bx
                0x00000000402b4031                guest_int0x15_orig
                0x00000000402b4046                guest_int0x15_e820_data_minus0x18
                0x00000000402b404e                guest_int0x15_e820_end
                0x00000000402b4074                guest_int0x15_hook_end
                0x00000000402b5078                wakeup_entry_start
                0x00000000402b5081                wakeup_entry_addr
                0x00000000402b50a7                wakeup_entry_cr4
                0x00000000402b50b0                wakeup_entry_cr3
                0x00000000402b50b9                wakeup_entry_cr0
                0x00000000402b50c8                wakeup_entry_gdtr
                0x00000000402b50d2                wakeup_entry_end
                0x00000000402b5160                ata_bm_handler_table
                0x00000000402b51a0                ata_ctlblk_handler_table
                0x00000000402b51c0                ata_cmdblk_handler_table
                0x00000000402b5c70                usb_log_level
                0x00000000402b6600                hSessionCnt
                0x00000000402b6608                hObjectCnt
                0x00000000402b6e00                g_rgSCardT1Pci
                0x00000000402b6e10                g_rgSCardT0Pci
                0x00000000402b6e20                FI
                0x00000000402b6e60                DI
                0x00000000402bb480                default_pctx
                0x00000000402be720                rand_ssleay_meth
                0x0000000040c88a40                . = ALIGN (0x8)
 *fill*         0x0000000040c88a3b        0x5 00
                0x0000000040c88a40                __initfunc_start = .
 *(.initfunc)
 .initfunc      0x0000000040c88a40      0x640 output.o
                0x0000000040c88a40                __initfunc_acpi_init_paral
                0x0000000040c88a50                __initfunc_acpi_init_global
                0x0000000040c88a60                __initfunc_beep_init_msg
                0x0000000040c88a70                __initfunc_cache_init_pass
                0x0000000040c88a80                __initfunc_cache_init_vcpu
                0x0000000040c88a90                __initfunc_cache_init_pcpu
                0x0000000040c88aa0                __initfunc_callrealmode_panic
                0x0000000040c88ab0                __initfunc_callrealmode_init_global
                0x0000000040c88ac0                __initfunc_cpu_mmu_spt_init_pcpu
                0x0000000040c88ad0                __initfunc_cpu_mmu_spt_init_global
                0x0000000040c88ae0                __initfunc_cpuid_init
                0x0000000040c88af0                __initfunc_cpuid_pass_init
                0x0000000040c88b00                __initfunc_exint_pass_init
                0x0000000040c88b10                __initfunc_gmm_pass_init
                0x0000000040c88b20                __initfunc_install_int0x15_hook
                0x0000000040c88b30                __initfunc_idman_init
                0x0000000040c88b40                __initfunc_idman_init_global
                0x0000000040c88b50                __initfunc_int_wakeup
                0x0000000040c88b60                __initfunc_int_init_global
                0x0000000040c88b70                __initfunc_io_io_init
                0x0000000040c88b80                __initfunc_setiohooks
                0x0000000040c88b90                __initfunc_io_iopass_init
                0x0000000040c88ba0                __initfunc_keyboard_init_msg
                0x0000000040c88bb0                __initfunc_localapic_init
                0x0000000040c88bc0                __initfunc_get_shiftflags
                0x0000000040c88bd0                __initfunc_copy_minios
                0x0000000040c88be0                __initfunc_print_boot_msg
                0x0000000040c88bf0                __initfunc_debug_on_shift_key
                0x0000000040c88c00                __initfunc_create_pass_vm
                0x0000000040c88c10                __initfunc_virtualization_init_pcpu
                0x0000000040c88c20                __initfunc_unmap_user_area
                0x0000000040c88c30                __initfunc_mm_init_global
                0x0000000040c88c40                __initfunc_mmio_debug
                0x0000000040c88c50                __initfunc_mmio_init
                0x0000000040c88c60                __initfunc_msg_init_global
                0x0000000040c88c70                __initfunc_msr_init
                0x0000000040c88c80                __initfunc_msr_pass_init
                0x0000000040c88c90                __initfunc_nmi_pass_init_pcpu
                0x0000000040c88ca0                __initfunc_nmi_pass_init
                0x0000000040c88cb0                __initfunc_panic_init_pcpu
                0x0000000040c88cc0                __initfunc_panic_init_msg
                0x0000000040c88cd0                __initfunc_panic_init_global3
                0x0000000040c88ce0                __initfunc_panic_init_global
                0x0000000040c88cf0                __initfunc_printf_init_global
                0x0000000040c88d00                __initfunc_process_wakeup
                0x0000000040c88d10                __initfunc_process_init_ap
                0x0000000040c88d20                __initfunc_process_init_global
                0x0000000040c88d30                __initfunc_random_init_config0
                0x0000000040c88d40                __initfunc_random_init_global
                0x0000000040c88d50                __initfunc_reboot_init_msg
                0x0000000040c88d60                __initfunc_segment_init_global
                0x0000000040c88d70                __initfunc_serial_init_msg
                0x0000000040c88d80                __initfunc_sleep_init_msg
                0x0000000040c88d90                __initfunc_sleep_init_global
                0x0000000040c88da0                __initfunc_svm_panic
                0x0000000040c88db0                __initfunc_sx_init_pass_init
                0x0000000040c88dc0                __initfunc_thread_init_pcpu
                0x0000000040c88dd0                __initfunc_thread_init_global
                0x0000000040c88de0                __initfunc_time_init_msg
                0x0000000040c88df0                __initfunc_time_init_pcpu
                0x0000000040c88e00                __initfunc_time_init_global_status
                0x0000000040c88e10                __initfunc_time_init_global
                0x0000000040c88e20                __initfunc_timer_init_global
                0x0000000040c88e30                __initfunc_tty_init_msg
                0x0000000040c88e40                __initfunc_tty_init_global2
                0x0000000040c88e50                __initfunc_tty_init_global
                0x0000000040c88e60                __initfunc_vcpu_init_global
                0x0000000040c88e70                __initfunc_vga_init
                0x0000000040c88e80                __initfunc_vmmcall_init
                0x0000000040c88e90                __initfunc_vmmcall_boot_init
                0x0000000040c88ea0                __initfunc_vmmcall_dbgsh_init_pcpu
                0x0000000040c88eb0                __initfunc_vmmcall_dbgsh_init_global
                0x0000000040c88ec0                __initfunc_vmmcall_dbgsh_init
                0x0000000040c88ed0                __initfunc_vmmcall_iccard_init
                0x0000000040c88ee0                __initfunc_vmmcall_log_init
                0x0000000040c88ef0                __initfunc_vmmcall_status_init
                0x0000000040c88f00                __initfunc_vmmcall_status_init_global
                0x0000000040c88f10                __initfunc_vramwrite_init_bsp
                0x0000000040c88f20                __initfunc_vramwrite_init_msg
                0x0000000040c88f30                __initfunc_vt_register_status_callback
                0x0000000040c88f40                __initfunc_vt_panic
                0x0000000040c88f50                __initfunc_xsetbv_init
                0x0000000040c88f60                __initfunc_xsetbv_pass_init
                0x0000000040c88f70                __initfunc_core_init
                0x0000000040c88f80                __initfunc_ieee1394_init_boot
                0x0000000040c88f90                __initfunc_ieee1394_init
                0x0000000040c88fa0                __initfunc_iommu_setup
                0x0000000040c88fb0                __initfunc_pci_init
                0x0000000040c88fc0                __initfunc_debug_ata_init
                0x0000000040c88fd0                __initfunc_ata_init
                0x0000000040c88fe0                __initfunc_uhci_init
                0x0000000040c88ff0                __initfunc_ehci_init
                0x0000000040c89000                __initfunc_pro100_init
                0x0000000040c89010                __initfunc_suspend_pro1000
                0x0000000040c89020                __initfunc_resume_pro1000
                0x0000000040c89030                __initfunc_vpn_pro1000_init
                0x0000000040c89040                __initfunc_storage_kernel_init
                0x0000000040c89050                __initfunc_storage_io_initfunc
                0x0000000040c89060                __initfunc_vpn_kernel_init
                0x0000000040c89070                __initfunc_idman_kernel_init
                0x0000000040c89080                __initfunc_end = .
                0x0000000040c89080                __process_builtin = .
 *(.processes)
 .processes     0x0000000040c89080      0x1a0 output.o
                0x0000000040c89220                __process_builtin_end = .
                0x0000000040c89220                bss = .
 *(.bss)
 .bss           0x0000000040c89220  0x934a120 output.o
                0x0000000040c8ca80                vmmsize
                0x0000000040c8ca88                memorysize
                0x0000000041690540                pcpu_default
                0x00000000416adda4                ps2_locked
                0x0000000049eae260                handler_descriptor
                0x0000000049eae468                drhd_list_head
                0x0000000049eafca0                pci_driver_list_head
                0x0000000049eafca8                pci_device_list_head
                0x0000000049eafe50                uhci_monitor_boost_hc
                0x0000000049eafe68                usb_hc_list_head
                0x0000000049eafe70                usb_busses_head
                0x0000000049eb7788                rt
                0x0000000049fd11b0                hContext
                0x0000000049fd11b8                sessionTable
                0x0000000049fd11c0                slotTable
                0x0000000049fd11c8                slotFlag
                0x0000000049fd11c9                libInitFlag
                0x0000000049fd1e20                OPENSSL_NONPIC_relocated
                0x0000000049fd1e28                OPENSSL_ia32cap_P
                0x0000000049fd2a68                cleanse_ctr
                0x0000000049fd2ac8                obj_cleanup_defer
                0x0000000049fd2ae8                _shadow_DES_check_key
                0x0000000049fd2be8                app_pkey_methods
                0x0000000049fd2c40                chelp_inited
 *(COMMON)
 COMMON         0x0000000049fd3340      0xec4 output.o
                0x0000000049fd3340                clflush_size
                0x0000000049fd3360                sReaderContext
                0x0000000049fd33c0                sigx_app
                0x0000000049fd33c8                num_dom
                0x0000000049fd33e0                mszReaders
                0x0000000049fd37e0                prohibit_iccard_init
                0x0000000049fd37e8                curthread
                0x0000000049fd37f0                sig_app
                0x0000000049fd3800                readerState
                0x0000000049fd3880                dom_io
                0x0000000049fd4080                acpi_dsdt_system_state
                0x0000000049fd40a0                ehci_host
                0x0000000049fd40a8                num_of_processors
                0x0000000049fd40ac                e801_fake_bx
                0x0000000049fd40ae                iommu_detected
                0x0000000049fd40b0                dwReaders
                0x0000000049fd40c0                readerTracker
                0x0000000049fd4200                handler_descriptor_lock
                0x0000000049fd4202                e801_fake_ax
                0x0000000049fd5000                . = ALIGN (0x1000)
 *fill*         0x0000000049fd4204      0xdfc 00
                0x0000000049fd5000                end = .

.igot.plt       0x0000000049fd5000        0x0 load address 0x0000000009fd5000
 .igot.plt      0x0000000000000000        0x0 output.o

/DISCARD/
 *(.gomi)
LOAD output.o
OUTPUT(bitvisor.elf elf64-x86-64)

.comment        0x0000000000000000       0x2a
 .comment       0x0000000000000000       0x2a output.o
                                       0x5d8f (size before relaxing)

.note.GNU-stack
                0x0000000000000000        0x0
 .note.GNU-stack
                0x0000000000000000        0x0 output.o

.debug_aranges  0x0000000000000000     0x69c0
 .debug_aranges
                0x0000000000000000     0x69c0 output.o

.debug_info     0x0000000000000000   0x29bf1f
 .debug_info    0x0000000000000000   0x29bf1f output.o

.debug_abbrev   0x0000000000000000    0x44085
 .debug_abbrev  0x0000000000000000    0x44085 output.o

.debug_line     0x0000000000000000    0x4cdc0
 .debug_line    0x0000000000000000    0x4cdc0 output.o

.debug_str      0x0000000000000000    0x36942
 .debug_str     0x0000000000000000    0x36942 output.o
                                     0x123e91 (size before relaxing)

.debug_loc      0x0000000000000000   0x23eb79
 .debug_loc     0x0000000000000000   0x23eb79 output.o

.debug_ranges   0x0000000000000000     0x79c0
 .debug_ranges  0x0000000000000000     0x79c0 output.o

Cross Reference Table

Symbol                                            File
ACCESS_DESCRIPTION_free                           output.o
ACCESS_DESCRIPTION_it                             output.o
ACCESS_DESCRIPTION_new                            output.o
AES_cbc_encrypt                                   output.o
AES_cfb128_encrypt                                output.o
AES_cfb1_encrypt                                  output.o
AES_cfb8_encrypt                                  output.o
AES_decrypt                                       output.o
AES_ecb_encrypt                                   output.o
AES_encrypt                                       output.o
AES_ofb128_encrypt                                output.o
AES_set_decrypt_key                               output.o
AES_set_encrypt_key                               output.o
AES_unwrap_key                                    output.o
AES_wrap_key                                      output.o
ASN1_ANY_it                                       output.o
ASN1_BIT_STRING_check                             output.o
ASN1_BIT_STRING_free                              output.o
ASN1_BIT_STRING_get_bit                           output.o
ASN1_BIT_STRING_it                                output.o
ASN1_BIT_STRING_new                               output.o
ASN1_BIT_STRING_set                               output.o
ASN1_BIT_STRING_set_bit                           output.o
ASN1_BMPSTRING_free                               output.o
ASN1_BMPSTRING_it                                 output.o
ASN1_BMPSTRING_new                                output.o
ASN1_BOOLEAN_it                                   output.o
ASN1_ENUMERATED_free                              output.o
ASN1_ENUMERATED_get                               output.o
ASN1_ENUMERATED_it                                output.o
ASN1_ENUMERATED_new                               output.o
ASN1_ENUMERATED_set                               output.o
ASN1_ENUMERATED_to_BN                             output.o
ASN1_FBOOLEAN_it                                  output.o
ASN1_GENERALIZEDTIME_adj                          output.o
ASN1_GENERALIZEDTIME_check                        output.o
ASN1_GENERALIZEDTIME_free                         output.o
ASN1_GENERALIZEDTIME_it                           output.o
ASN1_GENERALIZEDTIME_new                          output.o
ASN1_GENERALIZEDTIME_print                        output.o
ASN1_GENERALIZEDTIME_set                          output.o
ASN1_GENERALIZEDTIME_set_string                   output.o
ASN1_GENERALSTRING_free                           output.o
ASN1_GENERALSTRING_it                             output.o
ASN1_GENERALSTRING_new                            output.o
ASN1_IA5STRING_free                               output.o
ASN1_IA5STRING_it                                 output.o
ASN1_IA5STRING_new                                output.o
ASN1_INTEGER_cmp                                  output.o
ASN1_INTEGER_dup                                  output.o
ASN1_INTEGER_free                                 output.o
ASN1_INTEGER_get                                  output.o
ASN1_INTEGER_it                                   output.o
ASN1_INTEGER_new                                  output.o
ASN1_INTEGER_set                                  output.o
ASN1_INTEGER_to_BN                                output.o
ASN1_NULL_free                                    output.o
ASN1_NULL_it                                      output.o
ASN1_NULL_new                                     output.o
ASN1_OBJECT_create                                output.o
ASN1_OBJECT_free                                  output.o
ASN1_OBJECT_it                                    output.o
ASN1_OBJECT_new                                   output.o
ASN1_OCTET_STRING_NDEF_it                         output.o
ASN1_OCTET_STRING_cmp                             output.o
ASN1_OCTET_STRING_dup                             output.o
ASN1_OCTET_STRING_free                            output.o
ASN1_OCTET_STRING_it                              output.o
ASN1_OCTET_STRING_new                             output.o
ASN1_OCTET_STRING_set                             output.o
ASN1_PCTX_free                                    output.o
ASN1_PCTX_get_cert_flags                          output.o
ASN1_PCTX_get_flags                               output.o
ASN1_PCTX_get_nm_flags                            output.o
ASN1_PCTX_get_oid_flags                           output.o
ASN1_PCTX_get_str_flags                           output.o
ASN1_PCTX_new                                     output.o
ASN1_PCTX_set_cert_flags                          output.o
ASN1_PCTX_set_flags                               output.o
ASN1_PCTX_set_nm_flags                            output.o
ASN1_PCTX_set_oid_flags                           output.o
ASN1_PCTX_set_str_flags                           output.o
ASN1_PRINTABLESTRING_free                         output.o
ASN1_PRINTABLESTRING_it                           output.o
ASN1_PRINTABLESTRING_new                          output.o
ASN1_PRINTABLE_free                               output.o
ASN1_PRINTABLE_it                                 output.o
ASN1_PRINTABLE_new                                output.o
ASN1_PRINTABLE_type                               output.o
ASN1_SEQUENCE_ANY_it                              output.o
ASN1_SEQUENCE_it                                  output.o
ASN1_SET_ANY_it                                   output.o
ASN1_STRING_TABLE_add                             output.o
ASN1_STRING_TABLE_cleanup                         output.o
ASN1_STRING_TABLE_get                             output.o
ASN1_STRING_cmp                                   output.o
ASN1_STRING_copy                                  output.o
ASN1_STRING_data                                  output.o
ASN1_STRING_dup                                   output.o
ASN1_STRING_free                                  output.o
ASN1_STRING_get_default_mask                      output.o
ASN1_STRING_length                                output.o
ASN1_STRING_length_set                            output.o
ASN1_STRING_new                                   output.o
ASN1_STRING_print                                 output.o
ASN1_STRING_print_ex                              output.o
ASN1_STRING_set                                   output.o
ASN1_STRING_set0                                  output.o
ASN1_STRING_set_by_NID                            output.o
ASN1_STRING_set_default_mask                      output.o
ASN1_STRING_set_default_mask_asc                  output.o
ASN1_STRING_to_UTF8                               output.o
ASN1_STRING_type                                  output.o
ASN1_STRING_type_new                              output.o
ASN1_T61STRING_free                               output.o
ASN1_T61STRING_it                                 output.o
ASN1_T61STRING_new                                output.o
ASN1_TBOOLEAN_it                                  output.o
ASN1_TIME_adj                                     output.o
ASN1_TIME_check                                   output.o
ASN1_TIME_free                                    output.o
ASN1_TIME_it                                      output.o
ASN1_TIME_new                                     output.o
ASN1_TIME_print                                   output.o
ASN1_TIME_set                                     output.o
ASN1_TIME_set_string                              output.o
ASN1_TIME_to_generalizedtime                      output.o
ASN1_TYPE_cmp                                     output.o
ASN1_TYPE_free                                    output.o
ASN1_TYPE_get                                     output.o
ASN1_TYPE_get_int_octetstring                     output.o
ASN1_TYPE_get_octetstring                         output.o
ASN1_TYPE_new                                     output.o
ASN1_TYPE_set                                     output.o
ASN1_TYPE_set1                                    output.o
ASN1_TYPE_set_int_octetstring                     output.o
ASN1_TYPE_set_octetstring                         output.o
ASN1_UNIVERSALSTRING_free                         output.o
ASN1_UNIVERSALSTRING_it                           output.o
ASN1_UNIVERSALSTRING_new                          output.o
ASN1_UNIVERSALSTRING_to_string                    output.o
ASN1_UTCTIME_adj                                  output.o
ASN1_UTCTIME_check                                output.o
ASN1_UTCTIME_cmp_time_t                           output.o
ASN1_UTCTIME_free                                 output.o
ASN1_UTCTIME_it                                   output.o
ASN1_UTCTIME_new                                  output.o
ASN1_UTCTIME_print                                output.o
ASN1_UTCTIME_set                                  output.o
ASN1_UTCTIME_set_string                           output.o
ASN1_UTF8STRING_free                              output.o
ASN1_UTF8STRING_it                                output.o
ASN1_UTF8STRING_new                               output.o
ASN1_VISIBLESTRING_free                           output.o
ASN1_VISIBLESTRING_it                             output.o
ASN1_VISIBLESTRING_new                            output.o
ASN1_bn_print                                     output.o
ASN1_check_infinite_end                           output.o
ASN1_const_check_infinite_end                     output.o
ASN1_d2i_bio                                      output.o
ASN1_digest                                       output.o
ASN1_dup                                          output.o
ASN1_generate_nconf                               output.o
ASN1_generate_v3                                  output.o
ASN1_get_object                                   output.o
ASN1_i2d_bio                                      output.o
ASN1_item_d2i                                     output.o
ASN1_item_d2i_bio                                 output.o
ASN1_item_digest                                  output.o
ASN1_item_dup                                     output.o
ASN1_item_ex_d2i                                  output.o
ASN1_item_ex_free                                 output.o
ASN1_item_ex_i2d                                  output.o
ASN1_item_ex_new                                  output.o
ASN1_item_free                                    output.o
ASN1_item_i2d                                     output.o
ASN1_item_i2d_bio                                 output.o
ASN1_item_ndef_i2d                                output.o
ASN1_item_new                                     output.o
ASN1_item_pack                                    output.o
ASN1_item_print                                   output.o
ASN1_item_sign                                    output.o
ASN1_item_unpack                                  output.o
ASN1_item_verify                                  output.o
ASN1_mbstring_copy                                output.o
ASN1_mbstring_ncopy                               output.o
ASN1_object_size                                  output.o
ASN1_pack_string                                  output.o
ASN1_parse                                        output.o
ASN1_parse_dump                                   output.o
ASN1_primitive_free                               output.o
ASN1_primitive_new                                output.o
ASN1_put_eoc                                      output.o
ASN1_put_object                                   output.o
ASN1_seq_pack                                     output.o
ASN1_seq_unpack                                   output.o
ASN1_sign                                         output.o
ASN1_tag2bit                                      output.o
ASN1_tag2str                                      output.o
ASN1_template_d2i                                 output.o
ASN1_template_free                                output.o
ASN1_template_i2d                                 output.o
ASN1_template_new                                 output.o
ASN1_unpack_string                                output.o
ASN1_verify                                       output.o
ASN1_version                                      output.o
AUTHORITY_INFO_ACCESS_free                        output.o
AUTHORITY_INFO_ACCESS_it                          output.o
AUTHORITY_INFO_ACCESS_new                         output.o
AUTHORITY_KEYID_free                              output.o
AUTHORITY_KEYID_it                                output.o
AUTHORITY_KEYID_new                               output.o
AddCertDataByBuf                                  output.o
AddElem                                           output.o
AddIdPassDataByBuf                                output.o
AddObjTblByTlv                                    output.o
BASIC_CONSTRAINTS_free                            output.o
BASIC_CONSTRAINTS_it                              output.o
BASIC_CONSTRAINTS_new                             output.o
BF_cbc_encrypt                                    output.o
BF_cfb64_encrypt                                  output.o
BF_decrypt                                        output.o
BF_ecb_encrypt                                    output.o
BF_encrypt                                        output.o
BF_ofb64_encrypt                                  output.o
BF_options                                        output.o
BF_set_key                                        output.o
BF_version                                        output.o
BIGNUM_it                                         output.o
BIO_asn1_get_prefix                               output.o
BIO_asn1_get_suffix                               output.o
BIO_asn1_set_prefix                               output.o
BIO_asn1_set_suffix                               output.o
BIO_callback_ctrl                                 output.o
BIO_clear_flags                                   output.o
BIO_copy_next_retry                               output.o
BIO_ctrl                                          output.o
BIO_ctrl_pending                                  output.o
BIO_ctrl_wpending                                 output.o
BIO_dump                                          output.o
BIO_dump_cb                                       output.o
BIO_dump_indent                                   output.o
BIO_dump_indent_cb                                output.o
BIO_dup_chain                                     output.o
BIO_f_asn1                                        output.o
BIO_f_base64                                      output.o
BIO_f_buffer                                      output.o
BIO_f_cipher                                      output.o
BIO_f_md                                          output.o
BIO_find_type                                     output.o
BIO_free                                          output.o
BIO_free_all                                      output.o
BIO_get_callback                                  output.o
BIO_get_callback_arg                              output.o
BIO_get_ex_data                                   output.o
BIO_get_ex_new_index                              output.o
BIO_get_retry_BIO                                 output.o
BIO_get_retry_reason                              output.o
BIO_gets                                          output.o
BIO_indent                                        output.o
BIO_int_ctrl                                      output.o
BIO_method_name                                   output.o
BIO_method_type                                   output.o
BIO_new                                           output.o
BIO_new_CMS                                       output.o
BIO_new_NDEF                                      output.o
BIO_new_mem_buf                                   output.o
BIO_next                                          output.o
BIO_number_read                                   output.o
BIO_number_written                                output.o
BIO_pop                                           output.o
BIO_printf                                        output.o
BIO_ptr_ctrl                                      output.o
BIO_push                                          output.o
BIO_puts                                          output.o
BIO_read                                          output.o
BIO_s_mem                                         output.o
BIO_s_null                                        output.o
BIO_set                                           output.o
BIO_set_callback                                  output.o
BIO_set_callback_arg                              output.o
BIO_set_cipher                                    output.o
BIO_set_ex_data                                   output.o
BIO_set_flags                                     output.o
BIO_snprintf                                      output.o
BIO_test_flags                                    output.o
BIO_vfree                                         output.o
BIO_write                                         output.o
BN_BLINDING_convert                               output.o
BN_BLINDING_convert_ex                            output.o
BN_BLINDING_create_param                          output.o
BN_BLINDING_free                                  output.o
BN_BLINDING_get_flags                             output.o
BN_BLINDING_get_thread_id                         output.o
BN_BLINDING_invert                                output.o
BN_BLINDING_invert_ex                             output.o
BN_BLINDING_new                                   output.o
BN_BLINDING_set_flags                             output.o
BN_BLINDING_set_thread_id                         output.o
BN_BLINDING_thread_id                             output.o
BN_BLINDING_update                                output.o
BN_CTX_end                                        output.o
BN_CTX_free                                       output.o
BN_CTX_get                                        output.o
BN_CTX_init                                       output.o
BN_CTX_new                                        output.o
BN_CTX_start                                      output.o
BN_GENCB_call                                     output.o
BN_GF2m_add                                       output.o
BN_GF2m_arr2poly                                  output.o
BN_GF2m_mod                                       output.o
BN_GF2m_mod_arr                                   output.o
BN_GF2m_mod_div                                   output.o
BN_GF2m_mod_div_arr                               output.o
BN_GF2m_mod_exp                                   output.o
BN_GF2m_mod_exp_arr                               output.o
BN_GF2m_mod_inv                                   output.o
BN_GF2m_mod_inv_arr                               output.o
BN_GF2m_mod_mul                                   output.o
BN_GF2m_mod_mul_arr                               output.o
BN_GF2m_mod_solve_quad                            output.o
BN_GF2m_mod_solve_quad_arr                        output.o
BN_GF2m_mod_sqr                                   output.o
BN_GF2m_mod_sqr_arr                               output.o
BN_GF2m_mod_sqrt                                  output.o
BN_GF2m_mod_sqrt_arr                              output.o
BN_GF2m_poly2arr                                  output.o
BN_MONT_CTX_copy                                  output.o
BN_MONT_CTX_free                                  output.o
BN_MONT_CTX_init                                  output.o
BN_MONT_CTX_new                                   output.o
BN_MONT_CTX_set                                   output.o
BN_MONT_CTX_set_locked                            output.o
BN_RECP_CTX_free                                  output.o
BN_RECP_CTX_init                                  output.o
BN_RECP_CTX_new                                   output.o
BN_RECP_CTX_set                                   output.o
BN_add                                            output.o
BN_add_word                                       output.o
BN_asc2bn                                         output.o
BN_bin2bn                                         output.o
BN_bn2bin                                         output.o
BN_bn2dec                                         output.o
BN_bn2hex                                         output.o
BN_bntest_rand                                    output.o
BN_clear                                          output.o
BN_clear_bit                                      output.o
BN_clear_free                                     output.o
BN_cmp                                            output.o
BN_copy                                           output.o
BN_dec2bn                                         output.o
BN_div                                            output.o
BN_div_recp                                       output.o
BN_div_word                                       output.o
BN_dup                                            output.o
BN_exp                                            output.o
BN_free                                           output.o
BN_from_montgomery                                output.o
BN_gcd                                            output.o
BN_generate_prime_ex                              output.o
BN_get0_nist_prime_192                            output.o
BN_get0_nist_prime_224                            output.o
BN_get0_nist_prime_256                            output.o
BN_get0_nist_prime_384                            output.o
BN_get0_nist_prime_521                            output.o
BN_get_params                                     output.o
BN_get_word                                       output.o
BN_hex2bn                                         output.o
BN_init                                           output.o
BN_is_bit_set                                     output.o
BN_is_prime_ex                                    output.o
BN_is_prime_fasttest_ex                           output.o
BN_kronecker                                      output.o
BN_lshift                                         output.o
BN_lshift1                                        output.o
BN_mask_bits                                      output.o
BN_mod_add                                        output.o
BN_mod_add_quick                                  output.o
BN_mod_exp                                        output.o
BN_mod_exp2_mont                                  output.o
BN_mod_exp_mont                                   output.o
BN_mod_exp_mont_consttime                         output.o
BN_mod_exp_mont_word                              output.o
BN_mod_exp_recp                                   output.o
BN_mod_exp_simple                                 output.o
BN_mod_inverse                                    output.o
BN_mod_lshift                                     output.o
BN_mod_lshift1                                    output.o
BN_mod_lshift1_quick                              output.o
BN_mod_lshift_quick                               output.o
BN_mod_mul                                        output.o
BN_mod_mul_montgomery                             output.o
BN_mod_mul_reciprocal                             output.o
BN_mod_sqr                                        output.o
BN_mod_sqrt                                       output.o
BN_mod_sub                                        output.o
BN_mod_sub_quick                                  output.o
BN_mod_word                                       output.o
BN_mul                                            output.o
BN_mul_word                                       output.o
BN_new                                            output.o
BN_nist_mod_192                                   output.o
BN_nist_mod_224                                   output.o
BN_nist_mod_256                                   output.o
BN_nist_mod_384                                   output.o
BN_nist_mod_521                                   output.o
BN_nnmod                                          output.o
BN_num_bits                                       output.o
BN_num_bits_word                                  output.o
BN_options                                        output.o
BN_print                                          output.o
BN_pseudo_rand                                    output.o
BN_pseudo_rand_range                              output.o
BN_rand                                           output.o
BN_rand_range                                     output.o
BN_reciprocal                                     output.o
BN_rshift                                         output.o
BN_rshift1                                        output.o
BN_set_bit                                        output.o
BN_set_negative                                   output.o
BN_set_params                                     output.o
BN_set_word                                       output.o
BN_sqr                                            output.o
BN_sub                                            output.o
BN_sub_word                                       output.o
BN_swap                                           output.o
BN_to_ASN1_ENUMERATED                             output.o
BN_to_ASN1_INTEGER                                output.o
BN_uadd                                           output.o
BN_ucmp                                           output.o
BN_usub                                           output.o
BN_value_one                                      output.o
BN_version                                        output.o
BUF_MEM_free                                      output.o
BUF_MEM_grow                                      output.o
BUF_MEM_grow_clean                                output.o
BUF_MEM_new                                       output.o
BUF_memdup                                        output.o
BUF_reverse                                       output.o
BUF_strdup                                        output.o
BUF_strlcat                                       output.o
BUF_strlcpy                                       output.o
BUF_strndup                                       output.o
BlockSendCardT1                                   output.o
CAST_S_table0                                     output.o
CAST_S_table1                                     output.o
CAST_S_table2                                     output.o
CAST_S_table3                                     output.o
CAST_S_table4                                     output.o
CAST_S_table5                                     output.o
CAST_S_table6                                     output.o
CAST_S_table7                                     output.o
CAST_cbc_encrypt                                  output.o
CAST_cfb64_encrypt                                output.o
CAST_decrypt                                      output.o
CAST_ecb_encrypt                                  output.o
CAST_encrypt                                      output.o
CAST_ofb64_encrypt                                output.o
CAST_set_key                                      output.o
CAST_version                                      output.o
CBIGNUM_it                                        output.o
CERTIFICATEPOLICIES_free                          output.o
CERTIFICATEPOLICIES_it                            output.o
CERTIFICATEPOLICIES_new                           output.o
CMS_Attributes_Sign_it                            output.o
CMS_Attributes_Verify_it                          output.o
CMS_AuthenticatedData_it                          output.o
CMS_CertificateChoices_it                         output.o
CMS_CompressedData_it                             output.o
CMS_ContentInfo_free                              output.o
CMS_ContentInfo_it                                output.o
CMS_ContentInfo_new                               output.o
CMS_ContentInfo_print_ctx                         output.o
CMS_DigestedData_it                               output.o
CMS_EncapsulatedContentInfo_it                    output.o
CMS_EncryptedContentInfo_it                       output.o
CMS_EncryptedData_it                              output.o
CMS_EncryptedData_set1_key                        output.o
CMS_EnvelopedData_create                          output.o
CMS_EnvelopedData_it                              output.o
CMS_IssuerAndSerialNumber_it                      output.o
CMS_KEKIdentifier_it                              output.o
CMS_KEKRecipientInfo_it                           output.o
CMS_KeyAgreeRecipientIdentifier_it                output.o
CMS_KeyAgreeRecipientInfo_it                      output.o
CMS_KeyTransRecipientInfo_it                      output.o
CMS_OriginatorIdentifierOrKey_it                  output.o
CMS_OriginatorInfo_it                             output.o
CMS_OriginatorPublicKey_it                        output.o
CMS_OtherCertificateFormat_it                     output.o
CMS_OtherKeyAttribute_it                          output.o
CMS_OtherRecipientInfo_it                         output.o
CMS_OtherRevocationInfoFormat_it                  output.o
CMS_PasswordRecipientInfo_it                      output.o
CMS_ReceiptRequest_it                             output.o
CMS_Receipt_it                                    output.o
CMS_ReceiptsFrom_it                               output.o
CMS_RecipientEncryptedKey_it                      output.o
CMS_RecipientInfo_decrypt                         output.o
CMS_RecipientInfo_it                              output.o
CMS_RecipientInfo_kekri_get0_id                   output.o
CMS_RecipientInfo_kekri_id_cmp                    output.o
CMS_RecipientInfo_ktri_cert_cmp                   output.o
CMS_RecipientInfo_ktri_get0_algs                  output.o
CMS_RecipientInfo_ktri_get0_signer_id             output.o
CMS_RecipientInfo_set0_key                        output.o
CMS_RecipientInfo_set0_pkey                       output.o
CMS_RecipientInfo_type                            output.o
CMS_RecipientKeyIdentifier_it                     output.o
CMS_RevocationInfoChoice_it                       output.o
CMS_SignedData_init                               output.o
CMS_SignedData_it                                 output.o
CMS_SignerIdentifier_it                           output.o
CMS_SignerInfo_cert_cmp                           output.o
CMS_SignerInfo_get0_algs                          output.o
CMS_SignerInfo_get0_signer_id                     output.o
CMS_SignerInfo_it                                 output.o
CMS_SignerInfo_set1_signer_cert                   output.o
CMS_SignerInfo_sign                               output.o
CMS_SignerInfo_verify                             output.o
CMS_SignerInfo_verify_content                     output.o
CMS_add0_CertificateChoices                       output.o
CMS_add0_RevocationInfoChoice                     output.o
CMS_add0_cert                                     output.o
CMS_add0_crl                                      output.o
CMS_add0_recipient_key                            output.o
CMS_add1_cert                                     output.o
CMS_add1_crl                                      output.o
CMS_add1_recipient_cert                           output.o
CMS_add1_signer                                   output.o
CMS_add_simple_smimecap                           output.o
CMS_add_smimecap                                  output.o
CMS_add_standard_smimecap                         output.o
CMS_dataFinal                                     output.o
CMS_dataInit                                      output.o
CMS_get0_RecipientInfos                           output.o
CMS_get0_SignerInfos                              output.o
CMS_get0_content                                  output.o
CMS_get0_eContentType                             output.o
CMS_get0_signers                                  output.o
CMS_get0_type                                     output.o
CMS_get1_certs                                    output.o
CMS_get1_crls                                     output.o
CMS_is_detached                                   output.o
CMS_set1_eContentType                             output.o
CMS_set1_signers_certs                            output.o
CMS_set_detached                                  output.o
CMS_signed_add1_attr                              output.o
CMS_signed_add1_attr_by_NID                       output.o
CMS_signed_add1_attr_by_OBJ                       output.o
CMS_signed_add1_attr_by_txt                       output.o
CMS_signed_delete_attr                            output.o
CMS_signed_get0_data_by_OBJ                       output.o
CMS_signed_get_attr                               output.o
CMS_signed_get_attr_by_NID                        output.o
CMS_signed_get_attr_by_OBJ                        output.o
CMS_signed_get_attr_count                         output.o
CMS_stream                                        output.o
CMS_unsigned_add1_attr                            output.o
CMS_unsigned_add1_attr_by_NID                     output.o
CMS_unsigned_add1_attr_by_OBJ                     output.o
CMS_unsigned_add1_attr_by_txt                     output.o
CMS_unsigned_delete_attr                          output.o
CMS_unsigned_get0_data_by_OBJ                     output.o
CMS_unsigned_get_attr                             output.o
CMS_unsigned_get_attr_by_NID                      output.o
CMS_unsigned_get_attr_by_OBJ                      output.o
CMS_unsigned_get_attr_count                       output.o
CONF_def_version                                  output.o
CONF_dump_bio                                     output.o
CONF_free                                         output.o
CONF_get1_default_config_file                     output.o
CONF_get_number                                   output.o
CONF_get_section                                  output.o
CONF_get_string                                   output.o
CONF_imodule_get_flags                            output.o
CONF_imodule_get_module                           output.o
CONF_imodule_get_name                             output.o
CONF_imodule_get_usr_data                         output.o
CONF_imodule_get_value                            output.o
CONF_imodule_set_flags                            output.o
CONF_imodule_set_usr_data                         output.o
CONF_load                                         output.o
CONF_load_bio                                     output.o
CONF_module_add                                   output.o
CONF_module_get_usr_data                          output.o
CONF_module_set_usr_data                          output.o
CONF_modules_finish                               output.o
CONF_modules_free                                 output.o
CONF_modules_load                                 output.o
CONF_modules_load_file                            output.o
CONF_modules_unload                               output.o
CONF_parse_list                                   output.o
CONF_set_default_method                           output.o
CONF_set_nconf                                    output.o
CONF_version                                      output.o
CRL_DIST_POINTS_free                              output.o
CRL_DIST_POINTS_it                                output.o
CRL_DIST_POINTS_new                               output.o
CRYPTO_THREADID_cmp                               output.o
CRYPTO_THREADID_cpy                               output.o
CRYPTO_THREADID_current                           output.o
CRYPTO_THREADID_get_callback                      output.o
CRYPTO_THREADID_hash                              output.o
CRYPTO_THREADID_set_callback                      output.o
CRYPTO_THREADID_set_numeric                       output.o
CRYPTO_THREADID_set_pointer                       output.o
CRYPTO_add_lock                                   output.o
CRYPTO_cbc128_decrypt                             output.o
CRYPTO_cbc128_encrypt                             output.o
CRYPTO_cfb128_1_encrypt                           output.o
CRYPTO_cfb128_8_encrypt                           output.o
CRYPTO_cfb128_encrypt                             output.o
CRYPTO_cleanup_all_ex_data                        output.o
CRYPTO_dbg_free                                   output.o
CRYPTO_dbg_get_options                            output.o
CRYPTO_dbg_malloc                                 output.o
CRYPTO_dbg_realloc                                output.o
CRYPTO_dbg_set_options                            output.o
CRYPTO_destroy_dynlockid                          output.o
CRYPTO_dup_ex_data                                output.o
CRYPTO_ex_data_new_class                          output.o
CRYPTO_free                                       output.o
CRYPTO_free_ex_data                               output.o
CRYPTO_free_locked                                output.o
CRYPTO_get_add_lock_callback                      output.o
CRYPTO_get_dynlock_create_callback                output.o
CRYPTO_get_dynlock_destroy_callback               output.o
CRYPTO_get_dynlock_lock_callback                  output.o
CRYPTO_get_dynlock_value                          output.o
CRYPTO_get_ex_data                                output.o
CRYPTO_get_ex_data_implementation                 output.o
CRYPTO_get_ex_new_index                           output.o
CRYPTO_get_id_callback                            output.o
CRYPTO_get_lock_name                              output.o
CRYPTO_get_locked_mem_ex_functions                output.o
CRYPTO_get_locked_mem_functions                   output.o
CRYPTO_get_locking_callback                       output.o
CRYPTO_get_mem_debug_functions                    output.o
CRYPTO_get_mem_debug_options                      output.o
CRYPTO_get_mem_ex_functions                       output.o
CRYPTO_get_mem_functions                          output.o
CRYPTO_get_new_dynlockid                          output.o
CRYPTO_get_new_lockid                             output.o
CRYPTO_is_mem_check_on                            output.o
CRYPTO_lock                                       output.o
CRYPTO_malloc                                     output.o
CRYPTO_malloc_locked                              output.o
CRYPTO_mem_ctrl                                   output.o
CRYPTO_mem_leaks                                  output.o
CRYPTO_mem_leaks_cb                               output.o
CRYPTO_new_ex_data                                output.o
CRYPTO_num_locks                                  output.o
CRYPTO_ofb128_encrypt                             output.o
CRYPTO_pop_info                                   output.o
CRYPTO_push_info_                                 output.o
CRYPTO_realloc                                    output.o
CRYPTO_realloc_clean                              output.o
CRYPTO_remalloc                                   output.o
CRYPTO_remove_all_info                            output.o
CRYPTO_set_add_lock_callback                      output.o
CRYPTO_set_dynlock_create_callback                output.o
CRYPTO_set_dynlock_destroy_callback               output.o
CRYPTO_set_dynlock_lock_callback                  output.o
CRYPTO_set_ex_data                                output.o
CRYPTO_set_ex_data_implementation                 output.o
CRYPTO_set_id_callback                            output.o
CRYPTO_set_locked_mem_ex_functions                output.o
CRYPTO_set_locked_mem_functions                   output.o
CRYPTO_set_locking_callback                       output.o
CRYPTO_set_mem_debug_functions                    output.o
CRYPTO_set_mem_debug_options                      output.o
CRYPTO_set_mem_ex_functions                       output.o
CRYPTO_set_mem_functions                          output.o
CRYPTO_strdup                                     output.o
CRYPTO_thread_id                                  output.o
C_CloseAllSessions                                output.o
C_CloseSession                                    output.o
C_CreateObject                                    output.o
C_DestroyObject                                   output.o
C_DigestFinal                                     output.o
C_DigestInit                                      output.o
C_DigestUpdate                                    output.o
C_Finalize                                        output.o
C_FindObjects                                     output.o
C_FindObjectsFinal                                output.o
C_FindObjectsInit                                 output.o
C_GetAttributeValue                               output.o
C_GetCardStatus                                   output.o
C_GetFunctionList                                 output.o
C_GetInfo                                         output.o
C_GetMechanismInfo                                output.o
C_GetMechanismList                                output.o
C_GetSessionInfo                                  output.o
C_GetSlotInfo                                     output.o
C_GetSlotList                                     output.o
C_GetTokenInfo                                    output.o
C_Initialize                                      output.o
C_Login                                           output.o
C_Logout                                          output.o
C_OpenSession                                     output.o
C_SetAttributeValue                               output.o
C_Sign                                            output.o
C_SignInit                                        output.o
C_Verify                                          output.o
C_VerifyInit                                      output.o
CardConnect                                       output.o
CardDisconnect                                    output.o
CardEstablishContext                              output.o
CardListReaders                                   output.o
CardMechanical                                    output.o
CardReleaseContext                                output.o
CardStateConfirm                                  output.o
CardStatus                                        output.o
CardTransmit                                      output.o
CloseUSB                                          output.o
DES_SPtrans                                       output.o
DES_cfb64_encrypt                                 output.o
DES_cfb_encrypt                                   output.o
DES_check_key_parity                              output.o
DES_decrypt3                                      output.o
DES_ecb3_encrypt                                  output.o
DES_ecb_encrypt                                   output.o
DES_ede3_cbc_encrypt                              output.o
DES_ede3_cfb64_encrypt                            output.o
DES_ede3_cfb_encrypt                              output.o
DES_ede3_ofb64_encrypt                            output.o
DES_encrypt1                                      output.o
DES_encrypt2                                      output.o
DES_encrypt3                                      output.o
DES_is_weak_key                                   output.o
DES_key_sched                                     output.o
DES_ncbc_encrypt                                  output.o
DES_ofb64_encrypt                                 output.o
DES_options                                       output.o
DES_random_key                                    output.o
DES_set_key                                       output.o
DES_set_key_checked                               output.o
DES_set_key_unchecked                             output.o
DES_set_odd_parity                                output.o
DES_xcbc_encrypt                                  output.o
DH_OpenSSL                                        output.o
DH_check                                          output.o
DH_check_pub_key                                  output.o
DH_compute_key                                    output.o
DH_free                                           output.o
DH_generate_key                                   output.o
DH_generate_parameters_ex                         output.o
DH_get_default_method                             output.o
DH_get_ex_data                                    output.o
DH_get_ex_new_index                               output.o
DH_new                                            output.o
DH_new_method                                     output.o
DH_set_default_method                             output.o
DH_set_ex_data                                    output.o
DH_set_method                                     output.o
DH_size                                           output.o
DH_up_ref                                         output.o
DH_version                                        output.o
DHparams_dup                                      output.o
DHparams_it                                       output.o
DHparams_print                                    output.o
DI                                                output.o
DIRECTORYSTRING_free                              output.o
DIRECTORYSTRING_it                                output.o
DIRECTORYSTRING_new                               output.o
DISPLAYTEXT_free                                  output.o
DISPLAYTEXT_it                                    output.o
DISPLAYTEXT_new                                   output.o
DIST_POINT_NAME_free                              output.o
DIST_POINT_NAME_it                                output.o
DIST_POINT_NAME_new                               output.o
DIST_POINT_free                                   output.o
DIST_POINT_it                                     output.o
DIST_POINT_new                                    output.o
DIST_POINT_set_dpname                             output.o
DSAPrivateKey_it                                  output.o
DSAPublicKey_it                                   output.o
DSA_OpenSSL                                       output.o
DSA_SIG_free                                      output.o
DSA_SIG_it                                        output.o
DSA_SIG_new                                       output.o
DSA_do_sign                                       output.o
DSA_do_verify                                     output.o
DSA_dup_DH                                        output.o
DSA_free                                          output.o
DSA_generate_key                                  output.o
DSA_generate_parameters_ex                        output.o
DSA_get_default_method                            output.o
DSA_get_ex_data                                   output.o
DSA_get_ex_new_index                              output.o
DSA_new                                           output.o
DSA_new_method                                    output.o
DSA_set_default_method                            output.o
DSA_set_ex_data                                   output.o
DSA_set_method                                    output.o
DSA_sign                                          output.o
DSA_sign_setup                                    output.o
DSA_size                                          output.o
DSA_up_ref                                        output.o
DSA_verify                                        output.o
DSA_version                                       output.o
DSAparams_dup                                     output.o
DSAparams_it                                      output.o
DSO_METHOD_null                                   output.o
DSO_METHOD_openssl                                output.o
DSO_bind_func                                     output.o
DSO_bind_var                                      output.o
DSO_convert_filename                              output.o
DSO_ctrl                                          output.o
DSO_flags                                         output.o
DSO_free                                          output.o
DSO_get_default_method                            output.o
DSO_get_filename                                  output.o
DSO_get_loaded_filename                           output.o
DSO_get_method                                    output.o
DSO_global_lookup                                 output.o
DSO_load                                          output.o
DSO_merge                                         output.o
DSO_new                                           output.o
DSO_new_method                                    output.o
DSO_pathbyaddr                                    output.o
DSO_set_default_method                            output.o
DSO_set_filename                                  output.o
DSO_set_method                                    output.o
DSO_set_name_converter                            output.o
DSO_up_ref                                        output.o
DelElem                                           output.o
DestroyAttribute                                  output.o
DestroyElem                                       output.o
DestroyList                                       output.o
DestroySessionData                                output.o
DestroySlotData                                   output.o
DestroyTlvData                                    output.o
DestroyTokenData                                  output.o
ECDH_OpenSSL                                      output.o
ECDH_compute_key                                  output.o
ECDH_get_default_method                           output.o
ECDH_get_ex_data                                  output.o
ECDH_get_ex_new_index                             output.o
ECDH_set_default_method                           output.o
ECDH_set_ex_data                                  output.o
ECDH_set_method                                   output.o
ECDH_version                                      output.o
ECDSA_OpenSSL                                     output.o
ECDSA_SIG_free                                    output.o
ECDSA_SIG_it                                      output.o
ECDSA_SIG_new                                     output.o
ECDSA_do_sign                                     output.o
ECDSA_do_sign_ex                                  output.o
ECDSA_do_verify                                   output.o
ECDSA_get_default_method                          output.o
ECDSA_get_ex_data                                 output.o
ECDSA_get_ex_new_index                            output.o
ECDSA_set_default_method                          output.o
ECDSA_set_ex_data                                 output.o
ECDSA_set_method                                  output.o
ECDSA_sign                                        output.o
ECDSA_sign_ex                                     output.o
ECDSA_sign_setup                                  output.o
ECDSA_size                                        output.o
ECDSA_verify                                      output.o
ECDSA_version                                     output.o
ECPARAMETERS_free                                 output.o
ECPARAMETERS_it                                   output.o
ECPARAMETERS_new                                  output.o
ECPKPARAMETERS_free                               output.o
ECPKPARAMETERS_it                                 output.o
ECPKPARAMETERS_new                                output.o
ECPKParameters_print                              output.o
ECParameters_print                                output.o
EC_EX_DATA_clear_free_all_data                    output.o
EC_EX_DATA_clear_free_data                        output.o
EC_EX_DATA_free_all_data                          output.o
EC_EX_DATA_free_data                              output.o
EC_EX_DATA_get_data                               output.o
EC_EX_DATA_set_data                               output.o
EC_GF2m_simple_method                             output.o
EC_GFp_mont_method                                output.o
EC_GFp_nist_method                                output.o
EC_GFp_simple_method                              output.o
EC_GROUP_check_discriminant                       output.o
EC_GROUP_clear_free                               output.o
EC_GROUP_cmp                                      output.o
EC_GROUP_copy                                     output.o
EC_GROUP_dup                                      output.o
EC_GROUP_free                                     output.o
EC_GROUP_get0_generator                           output.o
EC_GROUP_get0_seed                                output.o
EC_GROUP_get_asn1_flag                            output.o
EC_GROUP_get_basis_type                           output.o
EC_GROUP_get_cofactor                             output.o
EC_GROUP_get_curve_GF2m                           output.o
EC_GROUP_get_curve_GFp                            output.o
EC_GROUP_get_curve_name                           output.o
EC_GROUP_get_degree                               output.o
EC_GROUP_get_order                                output.o
EC_GROUP_get_pentanomial_basis                    output.o
EC_GROUP_get_point_conversion_form                output.o
EC_GROUP_get_seed_len                             output.o
EC_GROUP_get_trinomial_basis                      output.o
EC_GROUP_have_precompute_mult                     output.o
EC_GROUP_method_of                                output.o
EC_GROUP_new                                      output.o
EC_GROUP_new_by_curve_name                        output.o
EC_GROUP_new_curve_GF2m                           output.o
EC_GROUP_new_curve_GFp                            output.o
EC_GROUP_precompute_mult                          output.o
EC_GROUP_set_asn1_flag                            output.o
EC_GROUP_set_curve_GF2m                           output.o
EC_GROUP_set_curve_GFp                            output.o
EC_GROUP_set_curve_name                           output.o
EC_GROUP_set_generator                            output.o
EC_GROUP_set_point_conversion_form                output.o
EC_GROUP_set_seed                                 output.o
EC_KEY_check_key                                  output.o
EC_KEY_copy                                       output.o
EC_KEY_dup                                        output.o
EC_KEY_free                                       output.o
EC_KEY_generate_key                               output.o
EC_KEY_get0_group                                 output.o
EC_KEY_get0_private_key                           output.o
EC_KEY_get0_public_key                            output.o
EC_KEY_get_conv_form                              output.o
EC_KEY_get_enc_flags                              output.o
EC_KEY_get_key_method_data                        output.o
EC_KEY_insert_key_method_data                     output.o
EC_KEY_new                                        output.o
EC_KEY_new_by_curve_name                          output.o
EC_KEY_precompute_mult                            output.o
EC_KEY_print                                      output.o
EC_KEY_set_asn1_flag                              output.o
EC_KEY_set_conv_form                              output.o
EC_KEY_set_enc_flags                              output.o
EC_KEY_set_group                                  output.o
EC_KEY_set_private_key                            output.o
EC_KEY_set_public_key                             output.o
EC_KEY_up_ref                                     output.o
EC_METHOD_get_field_type                          output.o
EC_POINT_add                                      output.o
EC_POINT_bn2point                                 output.o
EC_POINT_clear_free                               output.o
EC_POINT_cmp                                      output.o
EC_POINT_copy                                     output.o
EC_POINT_dbl                                      output.o
EC_POINT_dup                                      output.o
EC_POINT_free                                     output.o
EC_POINT_get_Jprojective_coordinates_GFp          output.o
EC_POINT_get_affine_coordinates_GF2m              output.o
EC_POINT_get_affine_coordinates_GFp               output.o
EC_POINT_hex2point                                output.o
EC_POINT_invert                                   output.o
EC_POINT_is_at_infinity                           output.o
EC_POINT_is_on_curve                              output.o
EC_POINT_make_affine                              output.o
EC_POINT_method_of                                output.o
EC_POINT_mul                                      output.o
EC_POINT_new                                      output.o
EC_POINT_oct2point                                output.o
EC_POINT_point2bn                                 output.o
EC_POINT_point2hex                                output.o
EC_POINT_point2oct                                output.o
EC_POINT_set_Jprojective_coordinates_GFp          output.o
EC_POINT_set_affine_coordinates_GF2m              output.o
EC_POINT_set_affine_coordinates_GFp               output.o
EC_POINT_set_compressed_coordinates_GF2m          output.o
EC_POINT_set_compressed_coordinates_GFp           output.o
EC_POINT_set_to_infinity                          output.o
EC_POINTs_make_affine                             output.o
EC_POINTs_mul                                     output.o
EC_PRIVATEKEY_free                                output.o
EC_PRIVATEKEY_it                                  output.o
EC_PRIVATEKEY_new                                 output.o
EC_get_builtin_curves                             output.o
EDIPARTYNAME_free                                 output.o
EDIPARTYNAME_it                                   output.o
EDIPARTYNAME_new                                  output.o
EHDestroyEventHandler                             output.o
EHInitEventHandler                                output.o
EHStatusHandler                                   output.o
ERR_add_error_data                                output.o
ERR_clear_error                                   output.o
ERR_error_string                                  output.o
ERR_error_string_n                                output.o
ERR_free_strings                                  output.o
ERR_func_error_string                             output.o
ERR_get_err_state_table                           output.o
ERR_get_error                                     output.o
ERR_get_error_line                                output.o
ERR_get_error_line_data                           output.o
ERR_get_implementation                            output.o
ERR_get_next_error_library                        output.o
ERR_get_state                                     output.o
ERR_get_string_table                              output.o
ERR_lib_error_string                              output.o
ERR_load_ASN1_strings                             output.o
ERR_load_BIO_strings                              output.o
ERR_load_BN_strings                               output.o
ERR_load_BUF_strings                              output.o
ERR_load_CMS_strings                              output.o
ERR_load_COMP_strings                             output.o
ERR_load_CONF_strings                             output.o
ERR_load_CRYPTO_strings                           output.o
ERR_load_DH_strings                               output.o
ERR_load_DSA_strings                              output.o
ERR_load_DSO_strings                              output.o
ERR_load_ECDH_strings                             output.o
ERR_load_ECDSA_strings                            output.o
ERR_load_EC_strings                               output.o
ERR_load_ERR_strings                              output.o
ERR_load_EVP_strings                              output.o
ERR_load_OBJ_strings                              output.o
ERR_load_OCSP_strings                             output.o
ERR_load_PEM_strings                              output.o
ERR_load_PKCS12_strings                           output.o
ERR_load_PKCS7_strings                            output.o
ERR_load_RAND_strings                             output.o
ERR_load_RSA_strings                              output.o
ERR_load_TS_strings                               output.o
ERR_load_UI_strings                               output.o
ERR_load_X509V3_strings                           output.o
ERR_load_X509_strings                             output.o
ERR_load_crypto_strings                           output.o
ERR_load_strings                                  output.o
ERR_peek_error                                    output.o
ERR_peek_error_line                               output.o
ERR_peek_error_line_data                          output.o
ERR_peek_last_error                               output.o
ERR_peek_last_error_line                          output.o
ERR_peek_last_error_line_data                     output.o
ERR_pop_to_mark                                   output.o
ERR_print_errors                                  output.o
ERR_print_errors_cb                               output.o
ERR_put_error                                     output.o
ERR_reason_error_string                           output.o
ERR_release_err_state_table                       output.o
ERR_remove_state                                  output.o
ERR_remove_thread_state                           output.o
ERR_set_error_data                                output.o
ERR_set_implementation                            output.o
ERR_set_mark                                      output.o
ERR_unload_strings                                output.o
EVP_BytesToKey                                    output.o
EVP_CIPHER_CTX_block_size                         output.o
EVP_CIPHER_CTX_cipher                             output.o
EVP_CIPHER_CTX_cleanup                            output.o
EVP_CIPHER_CTX_clear_flags                        output.o
EVP_CIPHER_CTX_copy                               output.o
EVP_CIPHER_CTX_ctrl                               output.o
EVP_CIPHER_CTX_flags                              output.o
EVP_CIPHER_CTX_free                               output.o
EVP_CIPHER_CTX_get_app_data                       output.o
EVP_CIPHER_CTX_init                               output.o
EVP_CIPHER_CTX_iv_length                          output.o
EVP_CIPHER_CTX_key_length                         output.o
EVP_CIPHER_CTX_new                                output.o
EVP_CIPHER_CTX_nid                                output.o
EVP_CIPHER_CTX_rand_key                           output.o
EVP_CIPHER_CTX_set_app_data                       output.o
EVP_CIPHER_CTX_set_flags                          output.o
EVP_CIPHER_CTX_set_key_length                     output.o
EVP_CIPHER_CTX_set_padding                        output.o
EVP_CIPHER_CTX_test_flags                         output.o
EVP_CIPHER_asn1_to_param                          output.o
EVP_CIPHER_block_size                             output.o
EVP_CIPHER_do_all                                 output.o
EVP_CIPHER_do_all_sorted                          output.o
EVP_CIPHER_flags                                  output.o
EVP_CIPHER_get_asn1_iv                            output.o
EVP_CIPHER_iv_length                              output.o
EVP_CIPHER_key_length                             output.o
EVP_CIPHER_nid                                    output.o
EVP_CIPHER_param_to_asn1                          output.o
EVP_CIPHER_set_asn1_iv                            output.o
EVP_CIPHER_type                                   output.o
EVP_Cipher                                        output.o
EVP_CipherFinal                                   output.o
EVP_CipherFinal_ex                                output.o
EVP_CipherInit                                    output.o
EVP_CipherInit_ex                                 output.o
EVP_CipherUpdate                                  output.o
EVP_DecodeBlock                                   output.o
EVP_DecodeFinal                                   output.o
EVP_DecodeInit                                    output.o
EVP_DecodeUpdate                                  output.o
EVP_DecryptFinal                                  output.o
EVP_DecryptFinal_ex                               output.o
EVP_DecryptInit                                   output.o
EVP_DecryptInit_ex                                output.o
EVP_DecryptUpdate                                 output.o
EVP_Digest                                        output.o
EVP_DigestFinal                                   output.o
EVP_DigestFinal_ex                                output.o
EVP_DigestInit                                    output.o
EVP_DigestInit_ex                                 output.o
EVP_DigestSignFinal                               output.o
EVP_DigestSignInit                                output.o
EVP_DigestUpdate                                  output.o
EVP_DigestVerifyFinal                             output.o
EVP_DigestVerifyInit                              output.o
EVP_EncodeBlock                                   output.o
EVP_EncodeFinal                                   output.o
EVP_EncodeInit                                    output.o
EVP_EncodeUpdate                                  output.o
EVP_EncryptFinal                                  output.o
EVP_EncryptFinal_ex                               output.o
EVP_EncryptInit                                   output.o
EVP_EncryptInit_ex                                output.o
EVP_EncryptUpdate                                 output.o
EVP_MD_CTX_cleanup                                output.o
EVP_MD_CTX_clear_flags                            output.o
EVP_MD_CTX_copy                                   output.o
EVP_MD_CTX_copy_ex                                output.o
EVP_MD_CTX_create                                 output.o
EVP_MD_CTX_destroy                                output.o
EVP_MD_CTX_init                                   output.o
EVP_MD_CTX_md                                     output.o
EVP_MD_CTX_set_flags                              output.o
EVP_MD_CTX_test_flags                             output.o
EVP_MD_block_size                                 output.o
EVP_MD_do_all                                     output.o
EVP_MD_do_all_sorted                              output.o
EVP_MD_flags                                      output.o
EVP_MD_pkey_type                                  output.o
EVP_MD_size                                       output.o
EVP_MD_type                                       output.o
EVP_PBE_CipherInit                                output.o
EVP_PBE_alg_add                                   output.o
EVP_PBE_alg_add_type                              output.o
EVP_PBE_cleanup                                   output.o
EVP_PBE_find                                      output.o
EVP_PKCS82PKEY                                    output.o
EVP_PKEY2PKCS8                                    output.o
EVP_PKEY2PKCS8_broken                             output.o
EVP_PKEY_CTX_ctrl                                 output.o
EVP_PKEY_CTX_ctrl_str                             output.o
EVP_PKEY_CTX_dup                                  output.o
EVP_PKEY_CTX_free                                 output.o
EVP_PKEY_CTX_get0_peerkey                         output.o
EVP_PKEY_CTX_get0_pkey                            output.o
EVP_PKEY_CTX_get_app_data                         output.o
EVP_PKEY_CTX_get_cb                               output.o
EVP_PKEY_CTX_get_data                             output.o
EVP_PKEY_CTX_get_keygen_info                      output.o
EVP_PKEY_CTX_get_operation                        output.o
EVP_PKEY_CTX_new                                  output.o
EVP_PKEY_CTX_new_id                               output.o
EVP_PKEY_CTX_set0_keygen_info                     output.o
EVP_PKEY_CTX_set_app_data                         output.o
EVP_PKEY_CTX_set_cb                               output.o
EVP_PKEY_CTX_set_data                             output.o
EVP_PKEY_add1_attr                                output.o
EVP_PKEY_add1_attr_by_NID                         output.o
EVP_PKEY_add1_attr_by_OBJ                         output.o
EVP_PKEY_add1_attr_by_txt                         output.o
EVP_PKEY_asn1_add0                                output.o
EVP_PKEY_asn1_add_alias                           output.o
EVP_PKEY_asn1_copy                                output.o
EVP_PKEY_asn1_find                                output.o
EVP_PKEY_asn1_find_str                            output.o
EVP_PKEY_asn1_free                                output.o
EVP_PKEY_asn1_get0                                output.o
EVP_PKEY_asn1_get0_info                           output.o
EVP_PKEY_asn1_get_count                           output.o
EVP_PKEY_asn1_new                                 output.o
EVP_PKEY_asn1_set_ctrl                            output.o
EVP_PKEY_asn1_set_free                            output.o
EVP_PKEY_asn1_set_param                           output.o
EVP_PKEY_asn1_set_private                         output.o
EVP_PKEY_asn1_set_public                          output.o
EVP_PKEY_assign                                   output.o
EVP_PKEY_base_id                                  output.o
EVP_PKEY_bits                                     output.o
EVP_PKEY_cmp                                      output.o
EVP_PKEY_cmp_parameters                           output.o
EVP_PKEY_copy_parameters                          output.o
EVP_PKEY_decrypt                                  output.o
EVP_PKEY_decrypt_init                             output.o
EVP_PKEY_delete_attr                              output.o
EVP_PKEY_derive                                   output.o
EVP_PKEY_derive_init                              output.o
EVP_PKEY_derive_set_peer                          output.o
EVP_PKEY_encrypt                                  output.o
EVP_PKEY_encrypt_init                             output.o
EVP_PKEY_free                                     output.o
EVP_PKEY_get0                                     output.o
EVP_PKEY_get0_asn1                                output.o
EVP_PKEY_get1_DH                                  output.o
EVP_PKEY_get1_DSA                                 output.o
EVP_PKEY_get1_EC_KEY                              output.o
EVP_PKEY_get1_RSA                                 output.o
EVP_PKEY_get_attr                                 output.o
EVP_PKEY_get_attr_by_NID                          output.o
EVP_PKEY_get_attr_by_OBJ                          output.o
EVP_PKEY_get_attr_count                           output.o
EVP_PKEY_get_default_digest_nid                   output.o
EVP_PKEY_id                                       output.o
EVP_PKEY_keygen                                   output.o
EVP_PKEY_keygen_init                              output.o
EVP_PKEY_meth_add0                                output.o
EVP_PKEY_meth_find                                output.o
EVP_PKEY_meth_free                                output.o
EVP_PKEY_meth_new                                 output.o
EVP_PKEY_meth_set_cleanup                         output.o
EVP_PKEY_meth_set_copy                            output.o
EVP_PKEY_meth_set_ctrl                            output.o
EVP_PKEY_meth_set_decrypt                         output.o
EVP_PKEY_meth_set_derive                          output.o
EVP_PKEY_meth_set_encrypt                         output.o
EVP_PKEY_meth_set_init                            output.o
EVP_PKEY_meth_set_keygen                          output.o
EVP_PKEY_meth_set_paramgen                        output.o
EVP_PKEY_meth_set_sign                            output.o
EVP_PKEY_meth_set_signctx                         output.o
EVP_PKEY_meth_set_verify                          output.o
EVP_PKEY_meth_set_verify_recover                  output.o
EVP_PKEY_meth_set_verifyctx                       output.o
EVP_PKEY_missing_parameters                       output.o
EVP_PKEY_new                                      output.o
EVP_PKEY_new_mac_key                              output.o
EVP_PKEY_paramgen                                 output.o
EVP_PKEY_paramgen_init                            output.o
EVP_PKEY_print_params                             output.o
EVP_PKEY_print_private                            output.o
EVP_PKEY_print_public                             output.o
EVP_PKEY_save_parameters                          output.o
EVP_PKEY_set1_DH                                  output.o
EVP_PKEY_set1_DSA                                 output.o
EVP_PKEY_set1_EC_KEY                              output.o
EVP_PKEY_set1_RSA                                 output.o
EVP_PKEY_set_type                                 output.o
EVP_PKEY_set_type_str                             output.o
EVP_PKEY_sign                                     output.o
EVP_PKEY_sign_init                                output.o
EVP_PKEY_size                                     output.o
EVP_PKEY_type                                     output.o
EVP_PKEY_verify                                   output.o
EVP_PKEY_verify_init                              output.o
EVP_PKEY_verify_recover                           output.o
EVP_PKEY_verify_recover_init                      output.o
EVP_SignFinal                                     output.o
EVP_VerifyFinal                                   output.o
EVP_add_cipher                                    output.o
EVP_add_digest                                    output.o
EVP_aes_128_cbc                                   output.o
EVP_aes_128_cfb1                                  output.o
EVP_aes_128_cfb128                                output.o
EVP_aes_128_cfb8                                  output.o
EVP_aes_128_ecb                                   output.o
EVP_aes_128_ofb                                   output.o
EVP_aes_192_cbc                                   output.o
EVP_aes_192_cfb1                                  output.o
EVP_aes_192_cfb128                                output.o
EVP_aes_192_cfb8                                  output.o
EVP_aes_192_ecb                                   output.o
EVP_aes_192_ofb                                   output.o
EVP_aes_256_cbc                                   output.o
EVP_aes_256_cfb1                                  output.o
EVP_aes_256_cfb128                                output.o
EVP_aes_256_cfb8                                  output.o
EVP_aes_256_ecb                                   output.o
EVP_aes_256_ofb                                   output.o
EVP_bf_cbc                                        output.o
EVP_bf_cfb64                                      output.o
EVP_bf_ecb                                        output.o
EVP_bf_ofb                                        output.o
EVP_cast5_cbc                                     output.o
EVP_cast5_cfb64                                   output.o
EVP_cast5_ecb                                     output.o
EVP_cast5_ofb                                     output.o
EVP_cleanup                                       output.o
EVP_des_cbc                                       output.o
EVP_des_cfb1                                      output.o
EVP_des_cfb64                                     output.o
EVP_des_cfb8                                      output.o
EVP_des_ecb                                       output.o
EVP_des_ede                                       output.o
EVP_des_ede3                                      output.o
EVP_des_ede3_cbc                                  output.o
EVP_des_ede3_cfb1                                 output.o
EVP_des_ede3_cfb64                                output.o
EVP_des_ede3_cfb8                                 output.o
EVP_des_ede3_ecb                                  output.o
EVP_des_ede3_ofb                                  output.o
EVP_des_ede_cbc                                   output.o
EVP_des_ede_cfb64                                 output.o
EVP_des_ede_ecb                                   output.o
EVP_des_ede_ofb                                   output.o
EVP_des_ofb                                       output.o
EVP_desx_cbc                                      output.o
EVP_dss                                           output.o
EVP_dss1                                          output.o
EVP_ecdsa                                         output.o
EVP_get_cipherbyname                              output.o
EVP_get_digestbyname                              output.o
EVP_get_pw_prompt                                 output.o
EVP_idea_cbc                                      output.o
EVP_idea_cfb64                                    output.o
EVP_idea_ecb                                      output.o
EVP_idea_ofb                                      output.o
EVP_md4                                           output.o
EVP_md5                                           output.o
EVP_rc2_40_cbc                                    output.o
EVP_rc2_64_cbc                                    output.o
EVP_rc2_cbc                                       output.o
EVP_rc2_cfb64                                     output.o
EVP_rc2_ecb                                       output.o
EVP_rc2_ofb                                       output.o
EVP_rc4                                           output.o
EVP_rc4_40                                        output.o
EVP_read_pw_string                                output.o
EVP_read_pw_string_min                            output.o
EVP_ripemd160                                     output.o
EVP_set_pw_prompt                                 output.o
EVP_sha                                           output.o
EVP_sha1                                          output.o
EVP_sha224                                        output.o
EVP_sha256                                        output.o
EVP_sha384                                        output.o
EVP_sha512                                        output.o
EVP_version                                       output.o
EVP_whirlpool                                     output.o
EXTENDED_KEY_USAGE_free                           output.o
EXTENDED_KEY_USAGE_it                             output.o
EXTENDED_KEY_USAGE_new                            output.o
ExchangePPSData                                   output.o
FI                                                output.o
FindBaudRateTable                                 output.o
GENERAL_NAMES_free                                output.o
GENERAL_NAMES_it                                  output.o
GENERAL_NAMES_new                                 output.o
GENERAL_NAME_cmp                                  output.o
GENERAL_NAME_dup                                  output.o
GENERAL_NAME_free                                 output.o
GENERAL_NAME_get0_otherName                       output.o
GENERAL_NAME_get0_value                           output.o
GENERAL_NAME_it                                   output.o
GENERAL_NAME_new                                  output.o
GENERAL_NAME_print                                output.o
GENERAL_NAME_set0_othername                       output.o
GENERAL_NAME_set0_value                           output.o
GENERAL_SUBTREE_free                              output.o
GENERAL_SUBTREE_it                                output.o
GENERAL_SUBTREE_new                               output.o
GetAttrValType                                    output.o
GetBWICWIData                                     output.o
GetCardStatus                                     output.o
GetDirDataByTlv                                   output.o
GetElem                                           output.o
GetICCardData                                     output.o
GetIFSCData                                       output.o
GetLength                                         output.o
GetOdfDataByTlv                                   output.o
GetTlvByBuf                                       output.o
GetTokenDataByTlv                                 output.o
GetUlByByte                                       output.o
GetUlByTxt                                        output.o
GetValueData                                      output.o
GetVerByTex                                       output.o
HMAC                                              output.o
HMAC_CTX_cleanup                                  output.o
HMAC_CTX_copy                                     output.o
HMAC_CTX_init                                     output.o
HMAC_CTX_set_flags                                output.o
HMAC_Final                                        output.o
HMAC_Init                                         output.o
HMAC_Init_ex                                      output.o
HMAC_Update                                       output.o
HPSearchHotPluggables                             output.o
IDEA_version                                      output.o
IDMan_CheckCardStatus                             output.o
IDMan_CmCheckCRL                                  output.o
IDMan_CmChgRSA                                    output.o
IDMan_CmGetCertificateSign                        output.o
IDMan_CmGetDN                                     output.o
IDMan_CmGetPublicKey                              output.o
IDMan_CmMakeRand                                  output.o
IDMan_CmMkHash                                    output.o
IDMan_CmPadding                                   output.o
IDMan_CmPadding2                                  output.o
IDMan_EncryptByIndex                              output.o
IDMan_IPCheckCrlPkcX                              output.o
IDMan_IPCheckPKC                                  output.o
IDMan_IPCheckSignature                            output.o
IDMan_IPCrSignature                               output.o
IDMan_IPFinalize                                  output.o
IDMan_IPFinalizeReader                            output.o
IDMan_IPIdPassListMalloc                          output.o
IDMan_IPInitialize                                output.o
IDMan_IPInitializeReader                          output.o
IDMan_IPMkPublicKeyObj                            output.o
IDMan_IPMkRandHash                                output.o
IDMan_IPRetJudgment                               output.o
IDMan_IPSignatureVerify                           output.o
IDMan_IPgCIndexParamChk                           output.o
IDMan_IPgCParamChk                                output.o
IDMan_IPgIdxSParamChk                             output.o
IDMan_IPgSParamChk                                output.o
IDMan_IPgetCertIdxPKCS                            output.o
IDMan_IPgetCertPKCS                               output.o
IDMan_IPgetCertPkeyIdxPKCSx                       output.o
IDMan_IPgetCertPkeyPKCSx                          output.o
IDMan_IPgetCertPkeyPKCSy                          output.o
IDMan_IPgetHash                                   output.o
IDMan_IPgetMakeRandData                           output.o
IDMan_IPgetPrivateKey                             output.o
IDMan_IPgetPrivateKeyPKCSx                        output.o
IDMan_IPuAPKCS11IdxParamChk                       output.o
IDMan_IPuAPKCS11ParamChk                          output.o
IDMan_IPvSIdxParamChk                             output.o
IDMan_IPvSParamChk                                output.o
IDMan_PaddingParamChk                             output.o
IDMan_SCardConnect                                output.o
IDMan_SCardDisconnect                             output.o
IDMan_SCardEstablishContext                       output.o
IDMan_SCardListReaders                            output.o
IDMan_SCardReleaseContext                         output.o
IDMan_SCardSetBinay                               output.o
IDMan_SCardSizeLongToChar                         output.o
IDMan_SCardStatus                                 output.o
IDMan_SCardTransmit                               output.o
IDMan_StAtoi                                      output.o
IDMan_StAtol                                      output.o
IDMan_StFree                                      output.o
IDMan_StMalloc                                    output.o
IDMan_StMemcmp                                    output.o
IDMan_StMemcpy                                    output.o
IDMan_StMemset                                    output.o
IDMan_StReadSetData                               output.o
IDMan_StStrcat                                    output.o
IDMan_StStrchr                                    output.o
IDMan_StStrcmp                                    output.o
IDMan_StStrcpy                                    output.o
IDMan_StStrlen                                    output.o
IDMan_generateSignature                           output.o
IDMan_generateSignatureByIndex                    output.o
IDMan_getCertificate                              output.o
IDMan_getCertificateByIndex                       output.o
IDMan_getMemoryFree                               output.o
IDMan_getStaticPassword                           output.o
IDMan_userAuthPKCS11                              output.o
IDMan_userAuthPKCS11ByIndex                       output.o
IDMan_verifySignature                             output.o
IDMan_verifySignatureByIndex                      output.o
IFDHCloseChannel                                  output.o
IFDHControl                                       output.o
IFDHCreateChannel                                 output.o
IFDHGetCapabilities                               output.o
IFDHICCPresence                                   output.o
IFDHPowerICC                                      output.o
IFDHSetProtocolParameters                         output.o
IFDHTransmitToICC                                 output.o
ISSUING_DIST_POINT_free                           output.o
ISSUING_DIST_POINT_it                             output.o
ISSUING_DIST_POINT_new                            output.o
InitCryptoLibrary                                 output.o
InitLeaderCardProtocol                            output.o
InternalAuth                                      output.o
LONG_it                                           output.o
MD4_Final                                         output.o
MD4_Init                                          output.o
MD4_Transform                                     output.o
MD4_Update                                        output.o
MD4_version                                       output.o
MD5                                               output.o
MD5_Final                                         output.o
MD5_Init                                          output.o
MD5_Transform                                     output.o
MD5_Update                                        output.o
MD5_version                                       output.o
NAME_CONSTRAINTS_check                            output.o
NAME_CONSTRAINTS_free                             output.o
NAME_CONSTRAINTS_it                               output.o
NAME_CONSTRAINTS_new                              output.o
NCONF_WIN32                                       output.o
NCONF_default                                     output.o
NCONF_dump_bio                                    output.o
NCONF_free                                        output.o
NCONF_free_data                                   output.o
NCONF_get_number_e                                output.o
NCONF_get_section                                 output.o
NCONF_get_string                                  output.o
NCONF_load                                        output.o
NCONF_load_bio                                    output.o
NCONF_new                                         output.o
NETSCAPE_CERT_SEQUENCE_free                       output.o
NETSCAPE_CERT_SEQUENCE_it                         output.o
NETSCAPE_CERT_SEQUENCE_new                        output.o
NETSCAPE_SPKAC_free                               output.o
NETSCAPE_SPKAC_it                                 output.o
NETSCAPE_SPKAC_new                                output.o
NETSCAPE_SPKI_free                                output.o
NETSCAPE_SPKI_it                                  output.o
NETSCAPE_SPKI_new                                 output.o
NETSCAPE_SPKI_sign                                output.o
NETSCAPE_SPKI_verify                              output.o
NOTICEREF_free                                    output.o
NOTICEREF_it                                      output.o
NOTICEREF_new                                     output.o
OBJ_NAME_add                                      output.o
OBJ_NAME_cleanup                                  output.o
OBJ_NAME_do_all                                   output.o
OBJ_NAME_do_all_sorted                            output.o
OBJ_NAME_get                                      output.o
OBJ_NAME_init                                     output.o
OBJ_NAME_new_index                                output.o
OBJ_NAME_remove                                   output.o
OBJ_add_object                                    output.o
OBJ_add_sigid                                     output.o
OBJ_bsearch_                                      output.o
OBJ_bsearch_ex_                                   output.o
OBJ_cleanup                                       output.o
OBJ_cmp                                           output.o
OBJ_create                                        output.o
OBJ_create_objects                                output.o
OBJ_dup                                           output.o
OBJ_find_sigid_algs                               output.o
OBJ_find_sigid_by_algs                            output.o
OBJ_ln2nid                                        output.o
OBJ_new_nid                                       output.o
OBJ_nid2ln                                        output.o
OBJ_nid2obj                                       output.o
OBJ_nid2sn                                        output.o
OBJ_obj2nid                                       output.o
OBJ_obj2txt                                       output.o
OBJ_sigid_free                                    output.o
OBJ_sn2nid                                        output.o
OBJ_txt2nid                                       output.o
OBJ_txt2obj                                       output.o
OCSP_BASICRESP_free                               output.o
OCSP_BASICRESP_it                                 output.o
OCSP_BASICRESP_new                                output.o
OCSP_CERTID_free                                  output.o
OCSP_CERTID_it                                    output.o
OCSP_CERTID_new                                   output.o
OCSP_CERTSTATUS_free                              output.o
OCSP_CERTSTATUS_it                                output.o
OCSP_CERTSTATUS_new                               output.o
OCSP_CRLID_free                                   output.o
OCSP_CRLID_it                                     output.o
OCSP_CRLID_new                                    output.o
OCSP_ONEREQ_free                                  output.o
OCSP_ONEREQ_it                                    output.o
OCSP_ONEREQ_new                                   output.o
OCSP_REQINFO_free                                 output.o
OCSP_REQINFO_it                                   output.o
OCSP_REQINFO_new                                  output.o
OCSP_REQUEST_free                                 output.o
OCSP_REQUEST_it                                   output.o
OCSP_REQUEST_new                                  output.o
OCSP_RESPBYTES_free                               output.o
OCSP_RESPBYTES_it                                 output.o
OCSP_RESPBYTES_new                                output.o
OCSP_RESPDATA_free                                output.o
OCSP_RESPDATA_it                                  output.o
OCSP_RESPDATA_new                                 output.o
OCSP_RESPID_free                                  output.o
OCSP_RESPID_it                                    output.o
OCSP_RESPID_new                                   output.o
OCSP_RESPONSE_free                                output.o
OCSP_RESPONSE_it                                  output.o
OCSP_RESPONSE_new                                 output.o
OCSP_REVOKEDINFO_free                             output.o
OCSP_REVOKEDINFO_it                               output.o
OCSP_REVOKEDINFO_new                              output.o
OCSP_SERVICELOC_free                              output.o
OCSP_SERVICELOC_it                                output.o
OCSP_SERVICELOC_new                               output.o
OCSP_SIGNATURE_free                               output.o
OCSP_SIGNATURE_it                                 output.o
OCSP_SIGNATURE_new                                output.o
OCSP_SINGLERESP_free                              output.o
OCSP_SINGLERESP_it                                output.o
OCSP_SINGLERESP_new                               output.o
OPENSSL_NONPIC_relocated                          output.o
OPENSSL_asc2uni                                   output.o
OPENSSL_cleanse                                   output.o
OPENSSL_cpuid_setup                               output.o
OPENSSL_gmtime                                    output.o
OPENSSL_gmtime_adj                                output.o
OPENSSL_ia32cap_P                                 output.o
OPENSSL_ia32cap_loc                               output.o
OPENSSL_isservice                                 output.o
OPENSSL_showfatal                                 output.o
OPENSSL_stderr                                    output.o
OPENSSL_uni2asc                                   output.o
OSSL_DES_version                                  output.o
OSSL_libdes_version                               output.o
OTHERNAME_cmp                                     output.o
OTHERNAME_free                                    output.o
OTHERNAME_it                                      output.o
OTHERNAME_new                                     output.o
OpenSSLDie                                        output.o
OpenSSL_add_all_ciphers                           output.o
OpenSSL_add_all_digests                           output.o
OpenUSB                                           output.o
PBE2PARAM_free                                    output.o
PBE2PARAM_it                                      output.o
PBE2PARAM_new                                     output.o
PBEPARAM_free                                     output.o
PBEPARAM_it                                       output.o
PBEPARAM_new                                      output.o
PBKDF2PARAM_free                                  output.o
PBKDF2PARAM_it                                    output.o
PBKDF2PARAM_new                                   output.o
PEM_ASN1_read_bio                                 output.o
PEM_ASN1_write_bio                                output.o
PEM_bytes_read_bio                                output.o
PEM_def_callback                                  output.o
PEM_dek_info                                      output.o
PEM_do_header                                     output.o
PEM_get_EVP_CIPHER_INFO                           output.o
PEM_proc_type                                     output.o
PEM_read_bio                                      output.o
PEM_read_bio_CMS                                  output.o
PEM_read_bio_DHparams                             output.o
PEM_read_bio_DSAPrivateKey                        output.o
PEM_read_bio_DSA_PUBKEY                           output.o
PEM_read_bio_DSAparams                            output.o
PEM_read_bio_ECPKParameters                       output.o
PEM_read_bio_ECPrivateKey                         output.o
PEM_read_bio_EC_PUBKEY                            output.o
PEM_read_bio_NETSCAPE_CERT_SEQUENCE               output.o
PEM_read_bio_PKCS7                                output.o
PEM_read_bio_PKCS8                                output.o
PEM_read_bio_PKCS8_PRIV_KEY_INFO                  output.o
PEM_read_bio_PUBKEY                               output.o
PEM_read_bio_Parameters                           output.o
PEM_read_bio_PrivateKey                           output.o
PEM_read_bio_RSAPrivateKey                        output.o
PEM_read_bio_RSAPublicKey                         output.o
PEM_read_bio_RSA_PUBKEY                           output.o
PEM_read_bio_X509                                 output.o
PEM_read_bio_X509_CRL                             output.o
PEM_read_bio_X509_REQ                             output.o
PEM_version                                       output.o
PEM_write_bio                                     output.o
PEM_write_bio_ASN1_stream                         output.o
PEM_write_bio_CMS                                 output.o
PEM_write_bio_CMS_stream                          output.o
PEM_write_bio_DHparams                            output.o
PEM_write_bio_DSAPrivateKey                       output.o
PEM_write_bio_DSA_PUBKEY                          output.o
PEM_write_bio_DSAparams                           output.o
PEM_write_bio_ECPKParameters                      output.o
PEM_write_bio_ECPrivateKey                        output.o
PEM_write_bio_EC_PUBKEY                           output.o
PEM_write_bio_NETSCAPE_CERT_SEQUENCE              output.o
PEM_write_bio_PKCS7                               output.o
PEM_write_bio_PKCS8                               output.o
PEM_write_bio_PKCS8PrivateKey                     output.o
PEM_write_bio_PKCS8PrivateKey_nid                 output.o
PEM_write_bio_PKCS8_PRIV_KEY_INFO                 output.o
PEM_write_bio_PUBKEY                              output.o
PEM_write_bio_Parameters                          output.o
PEM_write_bio_PrivateKey                          output.o
PEM_write_bio_RSAPrivateKey                       output.o
PEM_write_bio_RSAPublicKey                        output.o
PEM_write_bio_RSA_PUBKEY                          output.o
PEM_write_bio_X509                                output.o
PEM_write_bio_X509_CRL                            output.o
PEM_write_bio_X509_REQ                            output.o
PEM_write_bio_X509_REQ_NEW                        output.o
PHGetProtocol                                     output.o
PHSetProtocol                                     output.o
PKCS12_AUTHSAFES_it                               output.o
PKCS12_BAGS_free                                  output.o
PKCS12_BAGS_it                                    output.o
PKCS12_BAGS_new                                   output.o
PKCS12_MAC_DATA_free                              output.o
PKCS12_MAC_DATA_it                                output.o
PKCS12_MAC_DATA_new                               output.o
PKCS12_MAKE_KEYBAG                                output.o
PKCS12_MAKE_SHKEYBAG                              output.o
PKCS12_PBE_add                                    output.o
PKCS12_PBE_keyivgen                               output.o
PKCS12_SAFEBAGS_it                                output.o
PKCS12_SAFEBAG_free                               output.o
PKCS12_SAFEBAG_it                                 output.o
PKCS12_SAFEBAG_new                                output.o
PKCS12_certbag2x509                               output.o
PKCS12_certbag2x509crl                            output.o
PKCS12_decrypt_skey                               output.o
PKCS12_free                                       output.o
PKCS12_it                                         output.o
PKCS12_item_decrypt_d2i                           output.o
PKCS12_item_i2d_encrypt                           output.o
PKCS12_item_pack_safebag                          output.o
PKCS12_key_gen_asc                                output.o
PKCS12_key_gen_uni                                output.o
PKCS12_new                                        output.o
PKCS12_pack_authsafes                             output.o
PKCS12_pack_p7data                                output.o
PKCS12_pack_p7encdata                             output.o
PKCS12_pbe_crypt                                  output.o
PKCS12_unpack_authsafes                           output.o
PKCS12_unpack_p7data                              output.o
PKCS12_unpack_p7encdata                           output.o
PKCS12_x5092certbag                               output.o
PKCS12_x509crl2certbag                            output.o
PKCS1_MGF1                                        output.o
PKCS5_PBE_add                                     output.o
PKCS5_PBE_keyivgen                                output.o
PKCS5_PBKDF2_HMAC                                 output.o
PKCS5_PBKDF2_HMAC_SHA1                            output.o
PKCS5_pbe2_set                                    output.o
PKCS5_pbe2_set_iv                                 output.o
PKCS5_pbe_set                                     output.o
PKCS5_pbe_set0_algor                              output.o
PKCS5_v2_PBE_keyivgen                             output.o
PKCS7_ATTR_SIGN_it                                output.o
PKCS7_ATTR_VERIFY_it                              output.o
PKCS7_DIGEST_free                                 output.o
PKCS7_DIGEST_it                                   output.o
PKCS7_DIGEST_new                                  output.o
PKCS7_ENCRYPT_free                                output.o
PKCS7_ENCRYPT_it                                  output.o
PKCS7_ENCRYPT_new                                 output.o
PKCS7_ENC_CONTENT_free                            output.o
PKCS7_ENC_CONTENT_it                              output.o
PKCS7_ENC_CONTENT_new                             output.o
PKCS7_ENVELOPE_free                               output.o
PKCS7_ENVELOPE_it                                 output.o
PKCS7_ENVELOPE_new                                output.o
PKCS7_ISSUER_AND_SERIAL_digest                    output.o
PKCS7_ISSUER_AND_SERIAL_free                      output.o
PKCS7_ISSUER_AND_SERIAL_it                        output.o
PKCS7_ISSUER_AND_SERIAL_new                       output.o
PKCS7_RECIP_INFO_free                             output.o
PKCS7_RECIP_INFO_get0_alg                         output.o
PKCS7_RECIP_INFO_it                               output.o
PKCS7_RECIP_INFO_new                              output.o
PKCS7_RECIP_INFO_set                              output.o
PKCS7_SIGNED_free                                 output.o
PKCS7_SIGNED_it                                   output.o
PKCS7_SIGNED_new                                  output.o
PKCS7_SIGNER_INFO_free                            output.o
PKCS7_SIGNER_INFO_get0_algs                       output.o
PKCS7_SIGNER_INFO_it                              output.o
PKCS7_SIGNER_INFO_new                             output.o
PKCS7_SIGNER_INFO_set                             output.o
PKCS7_SIGNER_INFO_sign                            output.o
PKCS7_SIGN_ENVELOPE_free                          output.o
PKCS7_SIGN_ENVELOPE_it                            output.o
PKCS7_SIGN_ENVELOPE_new                           output.o
PKCS7_add0_attrib_signing_time                    output.o
PKCS7_add1_attrib_digest                          output.o
PKCS7_add_attrib_content_type                     output.o
PKCS7_add_attrib_smimecap                         output.o
PKCS7_add_attribute                               output.o
PKCS7_add_certificate                             output.o
PKCS7_add_crl                                     output.o
PKCS7_add_recipient                               output.o
PKCS7_add_recipient_info                          output.o
PKCS7_add_signature                               output.o
PKCS7_add_signed_attribute                        output.o
PKCS7_add_signer                                  output.o
PKCS7_cert_from_signer_info                       output.o
PKCS7_content_new                                 output.o
PKCS7_ctrl                                        output.o
PKCS7_dataDecode                                  output.o
PKCS7_dataFinal                                   output.o
PKCS7_dataInit                                    output.o
PKCS7_dataVerify                                  output.o
PKCS7_digest_from_attributes                      output.o
PKCS7_dup                                         output.o
PKCS7_free                                        output.o
PKCS7_get_attribute                               output.o
PKCS7_get_issuer_and_serial                       output.o
PKCS7_get_signed_attribute                        output.o
PKCS7_get_signer_info                             output.o
PKCS7_get_smimecap                                output.o
PKCS7_it                                          output.o
PKCS7_new                                         output.o
PKCS7_print_ctx                                   output.o
PKCS7_set0_type_other                             output.o
PKCS7_set_attributes                              output.o
PKCS7_set_cipher                                  output.o
PKCS7_set_content                                 output.o
PKCS7_set_digest                                  output.o
PKCS7_set_signed_attributes                       output.o
PKCS7_set_type                                    output.o
PKCS7_signatureVerify                             output.o
PKCS7_simple_smimecap                             output.o
PKCS7_stream                                      output.o
PKCS8_PRIV_KEY_INFO_free                          output.o
PKCS8_PRIV_KEY_INFO_it                            output.o
PKCS8_PRIV_KEY_INFO_new                           output.o
PKCS8_decrypt                                     output.o
PKCS8_encrypt                                     output.o
PKCS8_pkey_get0                                   output.o
PKCS8_pkey_set0                                   output.o
PKCS8_set_broken                                  output.o
PKEY_USAGE_PERIOD_free                            output.o
PKEY_USAGE_PERIOD_it                              output.o
PKEY_USAGE_PERIOD_new                             output.o
POLICYINFO_free                                   output.o
POLICYINFO_it                                     output.o
POLICYINFO_new                                    output.o
POLICYQUALINFO_free                               output.o
POLICYQUALINFO_it                                 output.o
POLICYQUALINFO_new                                output.o
POLICY_CONSTRAINTS_free                           output.o
POLICY_CONSTRAINTS_it                             output.o
POLICY_CONSTRAINTS_new                            output.o
POLICY_MAPPINGS_it                                output.o
POLICY_MAPPING_free                               output.o
POLICY_MAPPING_it                                 output.o
POLICY_MAPPING_new                                output.o
PROXY_CERT_INFO_EXTENSION_free                    output.o
PROXY_CERT_INFO_EXTENSION_it                      output.o
PROXY_CERT_INFO_EXTENSION_new                     output.o
PROXY_POLICY_free                                 output.o
PROXY_POLICY_it                                   output.o
PROXY_POLICY_new                                  output.o
PowerOff                                          output.o
PowerOn                                           output.o
RAND_SSLeay                                       output.o
RAND_add                                          output.o
RAND_bytes                                        output.o
RAND_cleanup                                      output.o
RAND_get_rand_method                              output.o
RAND_poll                                         output.o
RAND_pseudo_bytes                                 output.o
RAND_seed                                         output.o
RAND_set_rand_method                              output.o
RAND_status                                       output.o
RAND_version                                      output.o
RC2_cbc_encrypt                                   output.o
RC2_cfb64_encrypt                                 output.o
RC2_decrypt                                       output.o
RC2_ecb_encrypt                                   output.o
RC2_encrypt                                       output.o
RC2_ofb64_encrypt                                 output.o
RC2_set_key                                       output.o
RC2_version                                       output.o
RC4                                               output.o
RC4_options                                       output.o
RC4_set_key                                       output.o
RC4_version                                       output.o
RFAddReader                                       output.o
RFCheckReaderEventState                           output.o
RFReaderInfoById                                  output.o
RFRemoveReader                                    output.o
RIPEMD160_Final                                   output.o
RIPEMD160_Init                                    output.o
RIPEMD160_Transform                               output.o
RIPEMD160_Update                                  output.o
RMD160_version                                    output.o
RSAPrivateKey_dup                                 output.o
RSAPrivateKey_it                                  output.o
RSAPublicKey_dup                                  output.o
RSAPublicKey_it                                   output.o
RSA_PKCS1_SSLeay                                  output.o
RSA_X931_hash_id                                  output.o
RSA_blinding_off                                  output.o
RSA_blinding_on                                   output.o
RSA_flags                                         output.o
RSA_free                                          output.o
RSA_generate_key                                  output.o
RSA_generate_key_ex                               output.o
RSA_get_default_method                            output.o
RSA_get_ex_data                                   output.o
RSA_get_ex_new_index                              output.o
RSA_get_method                                    output.o
RSA_memory_lock                                   output.o
RSA_new                                           output.o
RSA_new_method                                    output.o
RSA_padding_add_PKCS1_OAEP                        output.o
RSA_padding_add_PKCS1_PSS                         output.o
RSA_padding_add_PKCS1_type_1                      output.o
RSA_padding_add_PKCS1_type_2                      output.o
RSA_padding_add_SSLv23                            output.o
RSA_padding_add_X931                              output.o
RSA_padding_add_none                              output.o
RSA_padding_check_PKCS1_OAEP                      output.o
RSA_padding_check_PKCS1_type_1                    output.o
RSA_padding_check_PKCS1_type_2                    output.o
RSA_padding_check_SSLv23                          output.o
RSA_padding_check_X931                            output.o
RSA_padding_check_none                            output.o
RSA_private_decrypt                               output.o
RSA_private_encrypt                               output.o
RSA_public_decrypt                                output.o
RSA_public_encrypt                                output.o
RSA_set_default_method                            output.o
RSA_set_ex_data                                   output.o
RSA_set_method                                    output.o
RSA_setup_blinding                                output.o
RSA_sign                                          output.o
RSA_size                                          output.o
RSA_up_ref                                        output.o
RSA_verify                                        output.o
RSA_verify_PKCS1_PSS                              output.o
RSA_version                                       output.o
ReadBinary                                        output.o
ReadDataT0                                        output.o
ReadUSB                                           output.o
ReceiveReply                                      output.o
SCardBeginTransaction                             output.o
SCardConnect                                      output.o
SCardDisconnect                                   output.o
SCardEndTransaction                               output.o
SCardEstablishContext                             output.o
SCardListReaders                                  output.o
SCardReleaseContext                               output.o
SCardStatus                                       output.o
SCardTransmit                                     output.o
SHA1                                              output.o
SHA1_Final                                        output.o
SHA1_Init                                         output.o
SHA1_Transform                                    output.o
SHA1_Update                                       output.o
SHA1_version                                      output.o
SHA224                                            output.o
SHA224_Final                                      output.o
SHA224_Init                                       output.o
SHA224_Update                                     output.o
SHA256                                            output.o
SHA256_Final                                      output.o
SHA256_Init                                       output.o
SHA256_Transform                                  output.o
SHA256_Update                                     output.o
SHA256_version                                    output.o
SHA384                                            output.o
SHA384_Final                                      output.o
SHA384_Init                                       output.o
SHA384_Update                                     output.o
SHA512                                            output.o
SHA512_Final                                      output.o
SHA512_Init                                       output.o
SHA512_Transform                                  output.o
SHA512_Update                                     output.o
SHA512_version                                    output.o
SHA_Final                                         output.o
SHA_Init                                          output.o
SHA_Transform                                     output.o
SHA_Update                                        output.o
SHA_version                                       output.o
SMIME_crlf_copy                                   output.o
SMIME_read_ASN1                                   output.o
SMIME_read_CMS                                    output.o
SMIME_text                                        output.o
SMIME_write_ASN1                                  output.o
SMIME_write_CMS                                   output.o
STACK_version                                     output.o
SXNETID_free                                      output.o
SXNETID_it                                        output.o
SXNETID_new                                       output.o
SXNET_add_id_INTEGER                              output.o
SXNET_add_id_asc                                  output.o
SXNET_add_id_ulong                                output.o
SXNET_free                                        output.o
SXNET_get_id_INTEGER                              output.o
SXNET_get_id_asc                                  output.o
SXNET_get_id_ulong                                output.o
SXNET_it                                          output.o
SXNET_new                                         output.o
Se4AddArpEntryList                                output.o
Se4AdjustTcpMss                                   output.o
Se4And                                            output.o
Se4BitToHex                                       output.o
Se4BroadcastMacAddress                            output.o
Se4BuildIcmpEchoPacket                            output.o
Se4CheckUnicastAddress                            output.o
Se4Cmp                                            output.o
Se4CmpArpEntry                                    output.o
Se4CmpArpWaitEntry                                output.o
Se4CmpIpCombineList                               output.o
Se4CombineIp                                      output.o
Se4FlushArpEntryList                              output.o
Se4FlushIpCombineList                             output.o
Se4FlushIpWaitList                                output.o
Se4Free                                           output.o
Se4FreeArpEntryList                               output.o
Se4FreeArpWaitList                                output.o
Se4FreeIpCombine                                  output.o
Se4FreeIpCombineList                              output.o
Se4FreeIpFragmentList                             output.o
Se4FreeIpHeaderInfo                               output.o
Se4FreeIpWait                                     output.o
Se4FreeIpWaitList                                 output.o
Se4GenerateSubnetMask                             output.o
Se4GenerateSubnetMask32                           output.o
Se4GetBroadcastAddress                            output.o
Se4GetHostAddress                                 output.o
Se4GetNetworkAddress                              output.o
Se4IPToStr                                        output.o
Se4IPToStr32                                      output.o
Se4IPToUINT                                       output.o
Se4Init                                           output.o
Se4InitArpEntryList                               output.o
Se4InitArpWaitList                                output.o
Se4InitIpCombineList                              output.o
Se4InitIpFragmentList                             output.o
Se4InitIpWaitList                                 output.o
Se4InsertIpCombine                                output.o
Se4InsertIpWait                                   output.o
Se4IpCheckChecksum                                output.o
Se4IpChecksum                                     output.o
Se4IsBroadcastAddress                             output.o
Se4IsInSameNetwork                                output.o
Se4IsSubnetMask                                   output.o
Se4IsZeroIP                                       output.o
Se4MacIpRelationKnown                             output.o
Se4MainProc                                       output.o
Se4Not                                            output.o
Se4Or                                             output.o
Se4ParseIpPacket                                  output.o
Se4ParseIpPacketICMPv4                            output.o
Se4ParseIpPacketUDPv4                             output.o
Se4ProcessArpWaitList                             output.o
Se4RecvArp                                        output.o
Se4RecvArpRequest                                 output.o
Se4RecvArpResponse                                output.o
Se4RecvEthPacket                                  output.o
Se4RecvIp                                         output.o
Se4RecvIpComplete                                 output.o
Se4SearchArpEntryList                             output.o
Se4SearchArpWaitList                              output.o
Se4SearchIpCombineList                            output.o
Se4SendArpDoProcess                               output.o
Se4SendArpRequest                                 output.o
Se4SendArpResponse                                output.o
Se4SendEthPacket                                  output.o
Se4SendIcmp                                       output.o
Se4SendIcmpEchoRequest                            output.o
Se4SendIcmpEchoResponse                           output.o
Se4SendIp                                         output.o
Se4SendIpFragment                                 output.o
Se4SendIpFragmentNow                              output.o
Se4SendRawIp                                      output.o
Se4SendUdp                                        output.o
Se4SendWaitingIpWait                              output.o
Se4StrToIP                                        output.o
Se4StrToIP32                                      output.o
Se4Tick                                           output.o
Se4UINTToIP                                       output.o
Se4ZeroIP                                         output.o
Se6AddGuestNode                                   output.o
Se6AddNeighborEntryList                           output.o
Se6And                                            output.o
Se6BroadcastMacAddress                            output.o
Se6BuildIcmpEchoPacket                            output.o
Se6CalcChecksum                                   output.o
Se6CheckIPItemStr                                 output.o
Se6CheckSubnetLength                              output.o
Se6CheckUnicastAddress                            output.o
Se6Cmp                                            output.o
Se6CmpIpCombineList                               output.o
Se6CmpNdpWaitEntry                                output.o
Se6CmpNeighborEntry                               output.o
Se6CombineIp                                      output.o
Se6FlushIpCombineList                             output.o
Se6FlushIpWaitList                                output.o
Se6FlushNeighborEntryList                         output.o
Se6Free                                           output.o
Se6FreeIpCombine                                  output.o
Se6FreeIpCombineList                              output.o
Se6FreeIpFragmentList                             output.o
Se6FreeIpHeaderInfo                               output.o
Se6FreeIpWait                                     output.o
Se6FreeIpWaitList                                 output.o
Se6FreeNdpWaitList                                output.o
Se6FreeNeighborEntryList                          output.o
Se6GenerateEui64Address                           output.o
Se6GenerateEui64GlobalAddress                     output.o
Se6GenerateEui64LocalAddress                      output.o
Se6GenerateMulticastMacAddress                    output.o
Se6GenerateSubnetMask                             output.o
Se6GetAllNodeMulticastAddr                        output.o
Se6GetAllRouterMulticastAddr                      output.o
Se6GetHostAddress                                 output.o
Se6GetIPAddrType                                  output.o
Se6GetPrefixAddress                               output.o
Se6GetSoliciationMulticastAddr                    output.o
Se6IPItemStrToChars                               output.o
Se6IPToStr                                        output.o
Se6Init                                           output.o
Se6InitIpCombineList                              output.o
Se6InitIpFragmentList                             output.o
Se6InitIpWaitList                                 output.o
Se6InitNdpWaitList                                output.o
Se6InitNeighborEntryList                          output.o
Se6InsertIpCombine                                output.o
Se6InsertIpWait                                   output.o
Se6IpChecksum                                     output.o
Se6IsGuestNode                                    output.o
Se6IsInSameNetwork                                output.o
Se6IsNetworkPrefixAddress                         output.o
Se6IsSubnetMask                                   output.o
Se6IsZeroIP                                       output.o
Se6LocalSubnet                                    output.o
Se6MacIpRelationKnown                             output.o
Se6MainProc                                       output.o
Se6Not                                            output.o
Se6Or                                             output.o
Se6ParseIpPacket                                  output.o
Se6ParseIpPacketICMPv6                            output.o
Se6ParseIpPacketUDPv6                             output.o
Se6ProcessNdpWaitList                             output.o
Se6RecvEthPacket                                  output.o
Se6RecvIp                                         output.o
Se6RecvIpComplete                                 output.o
Se6SearchIpCombineList                            output.o
Se6SearchNdpWaitList                              output.o
Se6SearchNeighborEntryList                        output.o
Se6SendEthPacket                                  output.o
Se6SendIcmp                                       output.o
Se6SendIcmpEchoRequest                            output.o
Se6SendIcmpEchoResponse                           output.o
Se6SendIcmpNeighborAdvertisement                  output.o
Se6SendIcmpNeighborSoliciation                    output.o
Se6SendIcmpRouterAdvertisement                    output.o
Se6SendIp                                         output.o
Se6SendIpFragment                                 output.o
Se6SendIpFragmentNow                              output.o
Se6SendNeighborSoliciation                        output.o
Se6SendNeighborSoliciationDoProcess               output.o
Se6SendRawIp                                      output.o
Se6SendUdp                                        output.o
Se6SendWaitingIpWait                              output.o
Se6StrToIP                                        output.o
Se6SubnetMaskToInt                                output.o
Se6Tick                                           output.o
Se6ZeroIP                                         output.o
SeAdd                                             output.o
SeAddBufStr                                       output.o
SeAdjustBufSize                                   output.o
SeB64CharToCode                                   output.o
SeB64CodeToChar                                   output.o
SeB64Decode                                       output.o
SeB64Encode                                       output.o
SeBSearch                                         output.o
SeBigNumToBuf                                     output.o
SeBigNumToStr                                     output.o
SeBinToBigNum                                     output.o
SeBinToStr                                        output.o
SeBinToStrEx                                      output.o
SeBioToBuf                                        output.o
SeBioToCert                                       output.o
SeBioToKey                                        output.o
SeBufToBigNum                                     output.o
SeBufToBio                                        output.o
SeBufToCert                                       output.o
SeBufToKey                                        output.o
SeBuildAndAddIPv6PacketOptionHeader               output.o
SeBuildICMPv6OptionValue                          output.o
SeBuildICMPv6Options                              output.o
SeBuildIPv6Packet                                 output.o
SeBuildIPv6PacketWithFragment                     output.o
SeCalcReplaceStrEx                                output.o
SeCertToBio                                       output.o
SeCertToBuf                                       output.o
SeCheckCert                                       output.o
SeCheckCertAndKey                                 output.o
SeCheckSignature                                  output.o
SeClearBuf                                        output.o
SeClearFifo                                       output.o
SeClone                                           output.o
SeCloneBuf                                        output.o
SeCloneCert                                       output.o
SeCloneKey                                        output.o
SeCloneList                                       output.o
SeCmp                                             output.o
SeCmpBuf                                          output.o
SeCmpEx                                           output.o
SeCompareCert                                     output.o
SeCompareStr                                      output.o
SeCopy                                            output.o
SeCopyStr                                         output.o
SeCopyToArray                                     output.o
SeDebug                                           output.o
SeDebugBin                                        output.o
SeDefaultTokenSplitChars                          output.o
SeDelete                                          output.o
SeDeleteAll                                       output.o
SeDeleteLock                                      output.o
SeDes3Decrypt                                     output.o
SeDes3Encrypt                                     output.o
SeDes3FreeKey                                     output.o
SeDes3NewKey                                      output.o
SeDes3RandKey                                     output.o
SeDesFreeKey                                      output.o
SeDesFreeKeyValue                                 output.o
SeDesNewKey                                       output.o
SeDesNewKeyValue                                  output.o
SeDesRandKey                                      output.o
SeDesRandKeyValue                                 output.o
SeDhCompute                                       output.o
SeDhFree                                          output.o
SeDhNew                                           output.o
SeDhNewGroup2                                     output.o
SeDumpBuf                                         output.o
SeEndWith                                         output.o
SeEndian16                                        output.o
SeEndian32                                        output.o
SeEndian64                                        output.o
SeError                                           output.o
SeEthAddSenderMacList                             output.o
SeEthDeleteOldSenderMacList                       output.o
SeEthFree                                         output.o
SeEthGenRandMacAddress                            output.o
SeEthGetInfo                                      output.o
SeEthGetNextRecvPacket                            output.o
SeEthIsSenderMacAddressExistsInList               output.o
SeEthNew                                          output.o
SeEthNicCallback                                  output.o
SeEthParseEthernetPacket                          output.o
SeEthSend                                         output.o
SeEthSendAdd                                      output.o
SeEthSendAll                                      output.o
SeFastSwap                                        output.o
SeFatal                                           output.o
SeFifoSize                                        output.o
SeFormat                                          output.o
SeFormatArgs                                      output.o
SeFormatEx                                        output.o
SeFree                                            output.o
SeFreeBio                                         output.o
SeFreeBuf                                         output.o
SeFreeBufWithoutBuffer                            output.o
SeFreeCert                                        output.o
SeFreeConfigEntryList                             output.o
SeFreeCrypto                                      output.o
SeFreeFifo                                        output.o
SeFreeKernel                                      output.o
SeFreeKey                                         output.o
SeFreeList                                        output.o
SeFreePKey                                        output.o
SeFreePacket                                      output.o
SeFreePacketList                                  output.o
SeFreePacketListWithoutBuffer                     output.o
SeFreeQueue                                       output.o
SeFreeStack                                       output.o
SeFreeToken                                       output.o
SeFreeX509                                        output.o
SeGetCertIssuerName                               output.o
SeGetCertMd5                                      output.o
SeGetCertSha1                                     output.o
SeGetCertSubjectName                              output.o
SeGetConfigBin                                    output.o
SeGetConfigBool                                   output.o
SeGetConfigEntry                                  output.o
SeGetConfigInt                                    output.o
SeGetConfigInt64                                  output.o
SeGetConfigStr                                    output.o
SeGetCurrentCpuId                                 output.o
SeGetKeyAndValue                                  output.o
SeGetKeyFromCert                                  output.o
SeGetNext                                         output.o
SeGetNextHeaderFromQueue                          output.o
SeGetNextInt                                      output.o
SeHashForSignBySHA1                               output.o
SeHexTo4Bit                                       output.o
SeHexToInt                                        output.o
SeHexToInt64                                      output.o
SeIkeBuild                                        output.o
SeIkeBuildCertPayload                             output.o
SeIkeBuildCertRequestPayload                      output.o
SeIkeBuildDataPayload                             output.o
SeIkeBuildDeletePayload                           output.o
SeIkeBuildIdPayload                               output.o
SeIkeBuildNoticePayload                           output.o
SeIkeBuildPayload                                 output.o
SeIkeBuildPayloadList                             output.o
SeIkeBuildProposalPayload                         output.o
SeIkeBuildSaPayload                               output.o
SeIkeBuildTransformPayload                        output.o
SeIkeBuildTransformValue                          output.o
SeIkeBuildTransformValueList                      output.o
SeIkeDecrypt                                      output.o
SeIkeEncrypt                                      output.o
SeIkeEncryptWithPadding                           output.o
SeIkeFree                                         output.o
SeIkeFreeCertPayload                              output.o
SeIkeFreeCertRequestPayload                       output.o
SeIkeFreeDataPayload                              output.o
SeIkeFreeDeletePayload                            output.o
SeIkeFreeIdPayload                                output.o
SeIkeFreeNoticePayload                            output.o
SeIkeFreePayload                                  output.o
SeIkeFreePayloadList                              output.o
SeIkeFreeProposalPayload                          output.o
SeIkeFreeSaPayload                                output.o
SeIkeFreeTransformPayload                         output.o
SeIkeFreeTransformValueList                       output.o
SeIkeGetFirstPayloadType                          output.o
SeIkeGetIPv4Address                               output.o
SeIkeGetIPv6Address                               output.o
SeIkeGetPayload                                   output.o
SeIkeGetPayloadNum                                output.o
SeIkeInitIPv4Address                              output.o
SeIkeInitIPv6Address                              output.o
SeIkeIpAddressToStr                               output.o
SeIkeIsZeroIP                                     output.o
SeIkeNew                                          output.o
SeIkeNewCertPayload                               output.o
SeIkeNewCertRequestPayload                        output.o
SeIkeNewDataPayload                               output.o
SeIkeNewDeletePayload                             output.o
SeIkeNewIdPayload                                 output.o
SeIkeNewNoticePayload                             output.o
SeIkeNewPayload                                   output.o
SeIkeNewProposalPayload                           output.o
SeIkeNewSaPayload                                 output.o
SeIkeNewTransformPayload                          output.o
SeIkeNewTransformValue                            output.o
SeIkeParse                                        output.o
SeIkeParseCertPayload                             output.o
SeIkeParseCertRequestPayload                      output.o
SeIkeParseDataPayload                             output.o
SeIkeParseDeletePayload                           output.o
SeIkeParseEx                                      output.o
SeIkeParseHeader                                  output.o
SeIkeParseIdPayload                               output.o
SeIkeParseNoticePayload                           output.o
SeIkeParsePayload                                 output.o
SeIkeParsePayloadList                             output.o
SeIkeParsePayloadListEx                           output.o
SeIkeParseProposalPayload                         output.o
SeIkeParseSaPayload                               output.o
SeIkeParseTransformPayload                        output.o
SeIkeParseTransformValueList                      output.o
SeIkePhase1CryptIdToKeySize                       output.o
SeIkePhase2CryptIdToKeySize                       output.o
SeIkeStrToPassword                                output.o
SeIkeStrToPhase1CryptId                           output.o
SeIkeStrToPhase1HashId                            output.o
SeIkeStrToPhase2CryptId                           output.o
SeIkeStrToPhase2HashId                            output.o
SeInfo                                            output.o
SeInitCrypto                                      output.o
SeInitKernel                                      output.o
SeInsert                                          output.o
SeInsertQueue                                     output.o
SeInsertQueueInt                                  output.o
SeInsertStr                                       output.o
SeIntFree                                         output.o
SeIntInit                                         output.o
SeIsAllLowerStr                                   output.o
SeIsAllUpperStr                                   output.o
SeIsBase64                                        output.o
SeIsBigEndian                                     output.o
SeIsCertSignedByCert                              output.o
SeIsCharInStr                                     output.o
SeIsEmptyStr                                      output.o
SeIsInList                                        output.o
SeIsInListStr                                     output.o
SeIsLittleEndian                                  output.o
SeIsSplitChar                                     output.o
SeIsZero                                          output.o
SeKeyToBio                                        output.o
SeKeyToBuf                                        output.o
SeLoad                                            output.o
SeLoadCert                                        output.o
SeLoadConfigEntryList                             output.o
SeLoadConfigEntryListFromBuf                      output.o
SeLoadKey                                         output.o
SeLock                                            output.o
SeLog                                             output.o
SeLogArgs                                         output.o
SeMacSha1                                         output.o
SeMacSha196                                       output.o
SeMacToStr                                        output.o
SeMakeCharArray                                   output.o
SeMalloc                                          output.o
SeMd5                                             output.o
SeMemSize                                         output.o
SeMemToBuf                                        output.o
SeNewBio                                          output.o
SeNewBuf                                          output.o
SeNewFifo                                         output.o
SeNewList                                         output.o
SeNewLock                                         output.o
SeNewQueue                                        output.o
SeNewStack                                        output.o
SeNormalizeCrlf                                   output.o
SeNullTokenList                                   output.o
SePKeyPasswordCallbackFunction                    output.o
SeParseICMPv6Options                              output.o
SeParseIPv6ExtHeader                              output.o
SeParseIPv6Packet                                 output.o
SeParsePacket                                     output.o
SeParsePacketL2                                   output.o
SeParsePacketL3ARPv4                              output.o
SeParsePacketL3IPv4                               output.o
SeParsePacketL3IPv6                               output.o
SeParseToken                                      output.o
SeParseTokenWithNullStr                           output.o
SePeekFifo                                        output.o
SePeekNext                                        output.o
SePop                                             output.o
SePush                                            output.o
SeQSort                                           output.o
SeRand                                            output.o
SeRand1                                           output.o
SeRand16                                          output.o
SeRand32                                          output.o
SeRand64                                          output.o
SeRand8                                           output.o
SeRandBuf                                         output.o
SeReAlloc                                         output.o
SeReadBuf                                         output.o
SeReadBufFromBuf                                  output.o
SeReadBufInt                                      output.o
SeReadBufInt64                                    output.o
SeReadBufStr                                      output.o
SeReadDump                                        output.o
SeReadFifo                                        output.o
SeReadNextLine                                    output.o
SeReadRemainBuf                                   output.o
SeReplaceListPointer                              output.o
SeReplaceStr                                      output.o
SeReplaceStrEx                                    output.o
SeReplaceStri                                     output.o
SeRsaGen                                          output.o
SeRsaPrivateDecrypt                               output.o
SeRsaPrivateEncrypt                               output.o
SeRsaPublicDecrypt                                output.o
SeRsaPublicEncrypt                                output.o
SeRsaPublicSize                                   output.o
SeRsaPublicToBin                                  output.o
SeRsaPublicToBuf                                  output.o
SeRsaSign                                         output.o
SeRsaSignWithPadding                              output.o
SeRsaSignWithSha1                                 output.o
SeRsaVerifyWithPadding                            output.o
SeRsaVerifyWithSha1                               output.o
SeSave                                            output.o
SeSaveCert                                        output.o
SeSaveKey                                         output.o
SeSearch                                          output.o
SeSearchStr                                       output.o
SeSearchStrEx                                     output.o
SeSearchStri                                      output.o
SeSecAddTimer                                     output.o
SeSecCalcKEYMAT                                   output.o
SeSecCalcKEYMATFull                               output.o
SeSecCalcKa                                       output.o
SeSecCalcP1Iv                                     output.o
SeSecCalcP1KeySet                                 output.o
SeSecCalcP2Iv                                     output.o
SeSecCheckIPsecSaExpires                          output.o
SeSecCheckIkeSaExpires                            output.o
SeSecCmpIkeSa                                     output.o
SeSecDeleteExpiredIPsecSa                         output.o
SeSecDeleteExpiredIkeSa                           output.o
SeSecDoInterval                                   output.o
SeSecEspRecvCallback                              output.o
SeSecForceReconnect                               output.o
SeSecFree                                         output.o
SeSecFreeIPsecSa                                  output.o
SeSecFreeIkeSa                                    output.o
SeSecFreeMain                                     output.o
SeSecFreeP1KeySet                                 output.o
SeSecFreeSaList                                   output.o
SeSecGenIPsecSASpi                                output.o
SeSecGenIkeSaInitCookie                           output.o
SeSecGenIkeSaMessageId                            output.o
SeSecGetIPsecSa                                   output.o
SeSecInit                                         output.o
SeSecInitMain                                     output.o
SeSecInitSaList                                   output.o
SeSecLifeSeconds64bit                             output.o
SeSecNewIPsecSa                                   output.o
SeSecNewIkeSa                                     output.o
SeSecNewSpi                                       output.o
SeSecProcessIkeSaMsg                              output.o
SeSecProcessIkeSaMsgInfo                          output.o
SeSecProcessIkeSaMsgPhase1                        output.o
SeSecProcessIkeSaMsgPhase2                        output.o
SeSecProcessMain                                  output.o
SeSecSearchIPsecSaBySpi                           output.o
SeSecSearchIkeSa                                  output.o
SeSecSearchIkeSaBySpi                             output.o
SeSecSendEsp                                      output.o
SeSecSendIPsecSaDeleteMsg                         output.o
SeSecSendIkeSaDeleteMsg                           output.o
SeSecSendIkeSaMsgInfo                             output.o
SeSecSendIkeSaMsgInfoSimple                       output.o
SeSecSendIkeSaMsgPhase2                           output.o
SeSecSendIkeSaMsgPhase2FinalHash                  output.o
SeSecSendUdp                                      output.o
SeSecSendVirtualIp                                output.o
SeSecSetRecvEspCallback                           output.o
SeSecSetRecvUdpCallback                           output.o
SeSecSetRecvVirtualIpCallback                     output.o
SeSecSetTimerCallback                             output.o
SeSecStartVpnConnect                              output.o
SeSecStrToAuthMethod                              output.o
SeSecTick                                         output.o
SeSecTimerCallback                                output.o
SeSecUdpRecvCallback                              output.o
SeSecVirtualIpRecvCallback                        output.o
SeSeekBuf                                         output.o
SeSetCmp                                          output.o
SeSetSortFlag                                     output.o
SeSha1                                            output.o
SeSort                                            output.o
SeStartWith                                       output.o
SeStrCat                                          output.o
SeStrCheckLen                                     output.o
SeStrCheckSize                                    output.o
SeStrCmp                                          output.o
SeStrCmpi                                         output.o
SeStrCpy                                          output.o
SeStrLen                                          output.o
SeStrLower                                        output.o
SeStrSize                                         output.o
SeStrToBin                                        output.o
SeStrToBinEx                                      output.o
SeStrToMac                                        output.o
SeStrUpper                                        output.o
SeStrnCmp                                         output.o
SeStrnCmpi                                        output.o
SeSwap                                            output.o
SeSwap16                                          output.o
SeSwap32                                          output.o
SeSwap64                                          output.o
SeSysFreeData                                     output.o
SeSysFreeLock                                     output.o
SeSysFreeTimer                                    output.o
SeSysGetCurrentCpuId                              output.o
SeSysGetPhysicalNicInfo                           output.o
SeSysGetTickCount                                 output.o
SeSysGetVirtualNicInfo                            output.o
SeSysLoadData                                     output.o
SeSysLock                                         output.o
SeSysLog                                          output.o
SeSysMemoryAlloc                                  output.o
SeSysMemoryFree                                   output.o
SeSysMemoryReAlloc                                output.o
SeSysNewLock                                      output.o
SeSysNewTimer                                     output.o
SeSysRsaSign                                      output.o
SeSysSaveData                                     output.o
SeSysSendPhysicalNic                              output.o
SeSysSendVirtualNic                               output.o
SeSysSetPhysicalNicRecvCallback                   output.o
SeSysSetTimer                                     output.o
SeSysSetVirtualNicRecvCallback                    output.o
SeSysUnlock                                       output.o
SeTick                                            output.o
SeTick64                                          output.o
SeTick64Internal                                  output.o
SeTimerAdjust                                     output.o
SeTimerCallback                                   output.o
SeTimerEntryCompare                               output.o
SeTimerFree                                       output.o
SeTimerNew                                        output.o
SeTimerSet                                        output.o
SeToArray                                         output.o
SeToHex                                           output.o
SeToHex64                                         output.o
SeToInt                                           output.o
SeToInt64                                         output.o
SeToLower                                         output.o
SeToStr                                           output.o
SeToStr3                                          output.o
SeToStr64                                         output.o
SeToUpper                                         output.o
SeTrim                                            output.o
SeTrimCopy                                        output.o
SeTrimCrlf                                        output.o
SeTrimLeft                                        output.o
SeTrimRight                                       output.o
SeUniqueToken                                     output.o
SeUnlock                                          output.o
SeVpn4ClientAddTimer                              output.o
SeVpn4ClientGetTick                               output.o
SeVpn4ClientSendEsp                               output.o
SeVpn4ClientSendUdp                               output.o
SeVpn4ClientSendVirtualIp                         output.o
SeVpn4ClientSetRecvEspCallback                    output.o
SeVpn4ClientSetRecvUdpCallback                    output.o
SeVpn4ClientSetRecvVirtualIpCallback              output.o
SeVpn4ClientSetTimerCallback                      output.o
SeVpn4DhcpBuildDhcpOptionList                     output.o
SeVpn4DhcpFreeOptionList                          output.o
SeVpn4DhcpOptionsToBuf                            output.o
SeVpn4DhcpParseOptionList                         output.o
SeVpn4DhcpParseOptionListMain                     output.o
SeVpn4DhcpSearchOption                            output.o
SeVpn4DhcpSendResponse                            output.o
SeVpn4DhcpServer                                  output.o
SeVpn4DoInterval                                  output.o
SeVpn4Free                                        output.o
SeVpn4FreeIPsec                                   output.o
SeVpn4IPsecInputFromPhysical                      output.o
SeVpn4IPsecInputFromVirtual                       output.o
SeVpn4IPsecMainProc                               output.o
SeVpn4IPsecSendPing                               output.o
SeVpn4Init                                        output.o
SeVpn4InitIPsec                                   output.o
SeVpn4InitSecConfig                               output.o
SeVpn4MainProc                                    output.o
SeVpn4NewDhcpOption                               output.o
SeVpn4RecvPacketPhysical                          output.o
SeVpn4RecvPacketVirtual                           output.o
SeVpn4SetTimer                                    output.o
SeVpn4Tick                                        output.o
SeVpn6ClientAddTimer                              output.o
SeVpn6ClientGetTick                               output.o
SeVpn6ClientSendEsp                               output.o
SeVpn6ClientSendUdp                               output.o
SeVpn6ClientSendVirtualIp                         output.o
SeVpn6ClientSetRecvEspCallback                    output.o
SeVpn6ClientSetRecvUdpCallback                    output.o
SeVpn6ClientSetRecvVirtualIpCallback              output.o
SeVpn6ClientSetTimerCallback                      output.o
SeVpn6DoInterval                                  output.o
SeVpn6Free                                        output.o
SeVpn6FreeIPsec                                   output.o
SeVpn6IPsecInputFromPhysical                      output.o
SeVpn6IPsecInputFromVirtual                       output.o
SeVpn6IPsecMainProc                               output.o
SeVpn6IPsecSendPing                               output.o
SeVpn6Init                                        output.o
SeVpn6InitIPsec                                   output.o
SeVpn6InitSecConfig                               output.o
SeVpn6MainProc                                    output.o
SeVpn6RecvPacketPhysical                          output.o
SeVpn6RecvPacketVirtual                           output.o
SeVpn6SetTimer                                    output.o
SeVpn6Tick                                        output.o
SeVpn6UpdateGuestOsIpAddress                      output.o
SeVpnAddTimer                                     output.o
SeVpnDoInterval                                   output.o
SeVpnEthRecvCallback                              output.o
SeVpnFree                                         output.o
SeVpnFreeConfig                                   output.o
SeVpnFreeIpStack                                  output.o
SeVpnInit                                         output.o
SeVpnInitIpStack                                  output.o
SeVpnLoadConfig                                   output.o
SeVpnMainFree                                     output.o
SeVpnMainHandler                                  output.o
SeVpnMainInit                                     output.o
SeVpnMainProcRecvEtherPacket                      output.o
SeVpnMainProcess                                  output.o
SeVpnRecvEtherPacket                              output.o
SeVpnRecvIpV4PacketCallback                       output.o
SeVpnRecvIpV6PacketCallback                       output.o
SeVpnSendEtherPacket                              output.o
SeVpnStatusChanged                                output.o
SeVpnTick                                         output.o
SeVpnTimerCallback                                output.o
SeWarning                                         output.o
SeWriteBuf                                        output.o
SeWriteBufBuf                                     output.o
SeWriteBufInt                                     output.o
SeWriteBufInt64                                   output.o
SeWriteBufLine                                    output.o
SeWriteBufStr                                     output.o
SeWriteFifo                                       output.o
SeX509ToCert                                      output.o
SeZero                                            output.o
SeZeroMalloc                                      output.o
SelectFileDF                                      output.o
SelectFileEF                                      output.o
SetATR                                            output.o
SetElem                                           output.o
SetLength                                         output.o
StIsdigit                                         output.o
StIsspace                                         output.o
T0XfrBlockCHAR                                    output.o
T0XfrBlockTPDU                                    output.o
T1NegociateIFSD                                   output.o
T1XfrBlockExtendedAPDU                            output.o
T1XfrBlockTPDU                                    output.o
TransHex2Tex                                      output.o
TransTex2Hex                                      output.o
TransmitCommand                                   output.o
TransmitPPS                                       output.o
UI_OpenSSL                                        output.o
UI_add_error_string                               output.o
UI_add_info_string                                output.o
UI_add_input_boolean                              output.o
UI_add_input_string                               output.o
UI_add_user_data                                  output.o
UI_add_verify_string                              output.o
UI_construct_prompt                               output.o
UI_create_method                                  output.o
UI_ctrl                                           output.o
UI_destroy_method                                 output.o
UI_dup_error_string                               output.o
UI_dup_info_string                                output.o
UI_dup_input_boolean                              output.o
UI_dup_input_string                               output.o
UI_dup_verify_string                              output.o
UI_free                                           output.o
UI_get0_action_string                             output.o
UI_get0_output_string                             output.o
UI_get0_result                                    output.o
UI_get0_result_string                             output.o
UI_get0_test_string                               output.o
UI_get0_user_data                                 output.o
UI_get_default_method                             output.o
UI_get_ex_data                                    output.o
UI_get_ex_new_index                               output.o
UI_get_input_flags                                output.o
UI_get_method                                     output.o
UI_get_result_maxsize                             output.o
UI_get_result_minsize                             output.o
UI_get_string_type                                output.o
UI_method_get_closer                              output.o
UI_method_get_flusher                             output.o
UI_method_get_opener                              output.o
UI_method_get_prompt_constructor                  output.o
UI_method_get_reader                              output.o
UI_method_get_writer                              output.o
UI_method_set_closer                              output.o
UI_method_set_flusher                             output.o
UI_method_set_opener                              output.o
UI_method_set_prompt_constructor                  output.o
UI_method_set_reader                              output.o
UI_method_set_writer                              output.o
UI_new                                            output.o
UI_new_method                                     output.o
UI_process                                        output.o
UI_set_default_method                             output.o
UI_set_ex_data                                    output.o
UI_set_method                                     output.o
UI_set_result                                     output.o
USERNOTICE_free                                   output.o
USERNOTICE_it                                     output.o
USERNOTICE_new                                    output.o
UTF8_getc                                         output.o
UTF8_putc                                         output.o
UpdateBinary                                      output.o
VPN_IPsec_Client_Start                            output.o
VPN_IPsec_Client_Stop                             output.o
VPN_IPsec_Free                                    output.o
VPN_IPsec_Init                                    output.o
Verify                                            output.o
WHIRLPOOL                                         output.o
WHIRLPOOL_BitUpdate                               output.o
WHIRLPOOL_Final                                   output.o
WHIRLPOOL_Init                                    output.o
WHIRLPOOL_Update                                  output.o
WriteUSB                                          output.o
X509V3_EXT_CRL_add_conf                           output.o
X509V3_EXT_CRL_add_nconf                          output.o
X509V3_EXT_REQ_add_conf                           output.o
X509V3_EXT_REQ_add_nconf                          output.o
X509V3_EXT_add                                    output.o
X509V3_EXT_add_alias                              output.o
X509V3_EXT_add_conf                               output.o
X509V3_EXT_add_list                               output.o
X509V3_EXT_add_nconf                              output.o
X509V3_EXT_add_nconf_sk                           output.o
X509V3_EXT_cleanup                                output.o
X509V3_EXT_conf                                   output.o
X509V3_EXT_conf_nid                               output.o
X509V3_EXT_d2i                                    output.o
X509V3_EXT_get                                    output.o
X509V3_EXT_get_nid                                output.o
X509V3_EXT_i2d                                    output.o
X509V3_EXT_nconf                                  output.o
X509V3_EXT_nconf_nid                              output.o
X509V3_EXT_print                                  output.o
X509V3_EXT_val_prn                                output.o
X509V3_NAME_from_section                          output.o
X509V3_add1_i2d                                   output.o
X509V3_add_standard_extensions                    output.o
X509V3_add_value                                  output.o
X509V3_add_value_bool                             output.o
X509V3_add_value_bool_nf                          output.o
X509V3_add_value_int                              output.o
X509V3_add_value_uchar                            output.o
X509V3_conf_free                                  output.o
X509V3_extensions_print                           output.o
X509V3_get_d2i                                    output.o
X509V3_get_section                                output.o
X509V3_get_string                                 output.o
X509V3_get_value_bool                             output.o
X509V3_get_value_int                              output.o
X509V3_parse_list                                 output.o
X509V3_section_free                               output.o
X509V3_set_conf_lhash                             output.o
X509V3_set_ctx                                    output.o
X509V3_set_nconf                                  output.o
X509V3_string_free                                output.o
X509_ALGORS_it                                    output.o
X509_ALGOR_dup                                    output.o
X509_ALGOR_free                                   output.o
X509_ALGOR_get0                                   output.o
X509_ALGOR_it                                     output.o
X509_ALGOR_new                                    output.o
X509_ALGOR_set0                                   output.o
X509_ATTRIBUTE_SET_it                             output.o
X509_ATTRIBUTE_count                              output.o
X509_ATTRIBUTE_create                             output.o
X509_ATTRIBUTE_create_by_NID                      output.o
X509_ATTRIBUTE_create_by_OBJ                      output.o
X509_ATTRIBUTE_create_by_txt                      output.o
X509_ATTRIBUTE_dup                                output.o
X509_ATTRIBUTE_free                               output.o
X509_ATTRIBUTE_get0_data                          output.o
X509_ATTRIBUTE_get0_object                        output.o
X509_ATTRIBUTE_get0_type                          output.o
X509_ATTRIBUTE_it                                 output.o
X509_ATTRIBUTE_new                                output.o
X509_ATTRIBUTE_set1_data                          output.o
X509_ATTRIBUTE_set1_object                        output.o
X509_CERT_AUX_free                                output.o
X509_CERT_AUX_it                                  output.o
X509_CERT_AUX_new                                 output.o
X509_CERT_AUX_print                               output.o
X509_CERT_PAIR_free                               output.o
X509_CERT_PAIR_it                                 output.o
X509_CERT_PAIR_new                                output.o
X509_CINF_free                                    output.o
X509_CINF_it                                      output.o
X509_CINF_new                                     output.o
X509_CRL_INFO_free                                output.o
X509_CRL_INFO_it                                  output.o
X509_CRL_INFO_new                                 output.o
X509_CRL_METHOD_free                              output.o
X509_CRL_METHOD_new                               output.o
X509_CRL_add0_revoked                             output.o
X509_CRL_add1_ext_i2d                             output.o
X509_CRL_add_ext                                  output.o
X509_CRL_cmp                                      output.o
X509_CRL_delete_ext                               output.o
X509_CRL_digest                                   output.o
X509_CRL_dup                                      output.o
X509_CRL_free                                     output.o
X509_CRL_get0_by_cert                             output.o
X509_CRL_get0_by_serial                           output.o
X509_CRL_get_ext                                  output.o
X509_CRL_get_ext_by_NID                           output.o
X509_CRL_get_ext_by_OBJ                           output.o
X509_CRL_get_ext_by_critical                      output.o
X509_CRL_get_ext_count                            output.o
X509_CRL_get_ext_d2i                              output.o
X509_CRL_get_meth_data                            output.o
X509_CRL_it                                       output.o
X509_CRL_match                                    output.o
X509_CRL_new                                      output.o
X509_CRL_set_default_method                       output.o
X509_CRL_set_meth_data                            output.o
X509_CRL_sign                                     output.o
X509_CRL_verify                                   output.o
X509_EXTENSIONS_it                                output.o
X509_EXTENSION_create_by_NID                      output.o
X509_EXTENSION_create_by_OBJ                      output.o
X509_EXTENSION_dup                                output.o
X509_EXTENSION_free                               output.o
X509_EXTENSION_get_critical                       output.o
X509_EXTENSION_get_data                           output.o
X509_EXTENSION_get_object                         output.o
X509_EXTENSION_it                                 output.o
X509_EXTENSION_new                                output.o
X509_EXTENSION_set_critical                       output.o
X509_EXTENSION_set_data                           output.o
X509_EXTENSION_set_object                         output.o
X509_LOOKUP_by_alias                              output.o
X509_LOOKUP_by_fingerprint                        output.o
X509_LOOKUP_by_issuer_serial                      output.o
X509_LOOKUP_by_subject                            output.o
X509_LOOKUP_ctrl                                  output.o
X509_LOOKUP_free                                  output.o
X509_LOOKUP_init                                  output.o
X509_LOOKUP_new                                   output.o
X509_LOOKUP_shutdown                              output.o
X509_NAME_ENTRIES_it                              output.o
X509_NAME_ENTRY_create_by_NID                     output.o
X509_NAME_ENTRY_create_by_OBJ                     output.o
X509_NAME_ENTRY_create_by_txt                     output.o
X509_NAME_ENTRY_dup                               output.o
X509_NAME_ENTRY_free                              output.o
X509_NAME_ENTRY_get_data                          output.o
X509_NAME_ENTRY_get_object                        output.o
X509_NAME_ENTRY_it                                output.o
X509_NAME_ENTRY_new                               output.o
X509_NAME_ENTRY_set_data                          output.o
X509_NAME_ENTRY_set_object                        output.o
X509_NAME_INTERNAL_it                             output.o
X509_NAME_add_entry                               output.o
X509_NAME_add_entry_by_NID                        output.o
X509_NAME_add_entry_by_OBJ                        output.o
X509_NAME_add_entry_by_txt                        output.o
X509_NAME_cmp                                     output.o
X509_NAME_delete_entry                            output.o
X509_NAME_digest                                  output.o
X509_NAME_dup                                     output.o
X509_NAME_entry_count                             output.o
X509_NAME_free                                    output.o
X509_NAME_get_entry                               output.o
X509_NAME_get_index_by_NID                        output.o
X509_NAME_get_index_by_OBJ                        output.o
X509_NAME_get_text_by_NID                         output.o
X509_NAME_get_text_by_OBJ                         output.o
X509_NAME_hash                                    output.o
X509_NAME_hash_old                                output.o
X509_NAME_it                                      output.o
X509_NAME_new                                     output.o
X509_NAME_oneline                                 output.o
X509_NAME_print                                   output.o
X509_NAME_print_ex                                output.o
X509_NAME_set                                     output.o
X509_OBJECT_free_contents                         output.o
X509_OBJECT_idx_by_subject                        output.o
X509_OBJECT_retrieve_by_subject                   output.o
X509_OBJECT_retrieve_match                        output.o
X509_OBJECT_up_ref_count                          output.o
X509_POLICY_NODE_print                            output.o
X509_PUBKEY_free                                  output.o
X509_PUBKEY_get                                   output.o
X509_PUBKEY_get0_param                            output.o
X509_PUBKEY_it                                    output.o
X509_PUBKEY_new                                   output.o
X509_PUBKEY_set                                   output.o
X509_PUBKEY_set0_param                            output.o
X509_PURPOSE_add                                  output.o
X509_PURPOSE_cleanup                              output.o
X509_PURPOSE_get0                                 output.o
X509_PURPOSE_get0_name                            output.o
X509_PURPOSE_get0_sname                           output.o
X509_PURPOSE_get_by_id                            output.o
X509_PURPOSE_get_by_sname                         output.o
X509_PURPOSE_get_count                            output.o
X509_PURPOSE_get_id                               output.o
X509_PURPOSE_get_trust                            output.o
X509_PURPOSE_set                                  output.o
X509_REQ_INFO_free                                output.o
X509_REQ_INFO_it                                  output.o
X509_REQ_INFO_new                                 output.o
X509_REQ_add1_attr                                output.o
X509_REQ_add1_attr_by_NID                         output.o
X509_REQ_add1_attr_by_OBJ                         output.o
X509_REQ_add1_attr_by_txt                         output.o
X509_REQ_add_extensions                           output.o
X509_REQ_add_extensions_nid                       output.o
X509_REQ_check_private_key                        output.o
X509_REQ_delete_attr                              output.o
X509_REQ_digest                                   output.o
X509_REQ_dup                                      output.o
X509_REQ_extension_nid                            output.o
X509_REQ_free                                     output.o
X509_REQ_get1_email                               output.o
X509_REQ_get_attr                                 output.o
X509_REQ_get_attr_by_NID                          output.o
X509_REQ_get_attr_by_OBJ                          output.o
X509_REQ_get_attr_count                           output.o
X509_REQ_get_extension_nids                       output.o
X509_REQ_get_extensions                           output.o
X509_REQ_get_pubkey                               output.o
X509_REQ_it                                       output.o
X509_REQ_new                                      output.o
X509_REQ_set_extension_nids                       output.o
X509_REQ_set_pubkey                               output.o
X509_REQ_set_subject_name                         output.o
X509_REQ_set_version                              output.o
X509_REQ_sign                                     output.o
X509_REQ_verify                                   output.o
X509_REVOKED_add1_ext_i2d                         output.o
X509_REVOKED_add_ext                              output.o
X509_REVOKED_delete_ext                           output.o
X509_REVOKED_free                                 output.o
X509_REVOKED_get_ext                              output.o
X509_REVOKED_get_ext_by_NID                       output.o
X509_REVOKED_get_ext_by_OBJ                       output.o
X509_REVOKED_get_ext_by_critical                  output.o
X509_REVOKED_get_ext_count                        output.o
X509_REVOKED_get_ext_d2i                          output.o
X509_REVOKED_it                                   output.o
X509_REVOKED_new                                  output.o
X509_SIG_free                                     output.o
X509_SIG_it                                       output.o
X509_SIG_new                                      output.o
X509_STORE_CTX_cleanup                            output.o
X509_STORE_CTX_free                               output.o
X509_STORE_CTX_get0_current_crl                   output.o
X509_STORE_CTX_get0_current_issuer                output.o
X509_STORE_CTX_get0_param                         output.o
X509_STORE_CTX_get0_parent_ctx                    output.o
X509_STORE_CTX_get0_policy_tree                   output.o
X509_STORE_CTX_get1_chain                         output.o
X509_STORE_CTX_get1_issuer                        output.o
X509_STORE_CTX_get_chain                          output.o
X509_STORE_CTX_get_current_cert                   output.o
X509_STORE_CTX_get_error                          output.o
X509_STORE_CTX_get_error_depth                    output.o
X509_STORE_CTX_get_ex_data                        output.o
X509_STORE_CTX_get_ex_new_index                   output.o
X509_STORE_CTX_get_explicit_policy                output.o
X509_STORE_CTX_init                               output.o
X509_STORE_CTX_new                                output.o
X509_STORE_CTX_purpose_inherit                    output.o
X509_STORE_CTX_set0_crls                          output.o
X509_STORE_CTX_set0_param                         output.o
X509_STORE_CTX_set_cert                           output.o
X509_STORE_CTX_set_chain                          output.o
X509_STORE_CTX_set_default                        output.o
X509_STORE_CTX_set_depth                          output.o
X509_STORE_CTX_set_error                          output.o
X509_STORE_CTX_set_ex_data                        output.o
X509_STORE_CTX_set_flags                          output.o
X509_STORE_CTX_set_purpose                        output.o
X509_STORE_CTX_set_time                           output.o
X509_STORE_CTX_set_trust                          output.o
X509_STORE_CTX_set_verify_cb                      output.o
X509_STORE_CTX_trusted_stack                      output.o
X509_STORE_add_cert                               output.o
X509_STORE_add_crl                                output.o
X509_STORE_add_lookup                             output.o
X509_STORE_free                                   output.o
X509_STORE_get1_certs                             output.o
X509_STORE_get1_crls                              output.o
X509_STORE_get_by_subject                         output.o
X509_STORE_new                                    output.o
X509_STORE_set1_param                             output.o
X509_STORE_set_depth                              output.o
X509_STORE_set_flags                              output.o
X509_STORE_set_purpose                            output.o
X509_STORE_set_trust                              output.o
X509_STORE_set_verify_cb                          output.o
X509_TRUST_add                                    output.o
X509_TRUST_cleanup                                output.o
X509_TRUST_get0                                   output.o
X509_TRUST_get0_name                              output.o
X509_TRUST_get_by_id                              output.o
X509_TRUST_get_count                              output.o
X509_TRUST_get_flags                              output.o
X509_TRUST_get_trust                              output.o
X509_TRUST_set                                    output.o
X509_TRUST_set_default                            output.o
X509_VAL_free                                     output.o
X509_VAL_it                                       output.o
X509_VAL_new                                      output.o
X509_VERIFY_PARAM_add0_policy                     output.o
X509_VERIFY_PARAM_add0_table                      output.o
X509_VERIFY_PARAM_clear_flags                     output.o
X509_VERIFY_PARAM_free                            output.o
X509_VERIFY_PARAM_get_depth                       output.o
X509_VERIFY_PARAM_get_flags                       output.o
X509_VERIFY_PARAM_inherit                         output.o
X509_VERIFY_PARAM_lookup                          output.o
X509_VERIFY_PARAM_new                             output.o
X509_VERIFY_PARAM_set1                            output.o
X509_VERIFY_PARAM_set1_name                       output.o
X509_VERIFY_PARAM_set1_policies                   output.o
X509_VERIFY_PARAM_set_depth                       output.o
X509_VERIFY_PARAM_set_flags                       output.o
X509_VERIFY_PARAM_set_purpose                     output.o
X509_VERIFY_PARAM_set_time                        output.o
X509_VERIFY_PARAM_set_trust                       output.o
X509_VERIFY_PARAM_table_cleanup                   output.o
X509_add1_ext_i2d                                 output.o
X509_add1_reject_object                           output.o
X509_add1_trust_object                            output.o
X509_add_ext                                      output.o
X509_alias_get0                                   output.o
X509_alias_set1                                   output.o
X509_check_akid                                   output.o
X509_check_ca                                     output.o
X509_check_issued                                 output.o
X509_check_private_key                            output.o
X509_check_purpose                                output.o
X509_check_trust                                  output.o
X509_cmp                                          output.o
X509_cmp_current_time                             output.o
X509_cmp_time                                     output.o
X509_delete_ext                                   output.o
X509_digest                                       output.o
X509_dup                                          output.o
X509_email_free                                   output.o
X509_find_by_issuer_and_serial                    output.o
X509_find_by_subject                              output.o
X509_free                                         output.o
X509_get0_pubkey_bitstr                           output.o
X509_get1_email                                   output.o
X509_get1_ocsp                                    output.o
X509_get_default_cert_area                        output.o
X509_get_default_cert_dir                         output.o
X509_get_default_cert_dir_env                     output.o
X509_get_default_cert_file                        output.o
X509_get_default_cert_file_env                    output.o
X509_get_default_private_dir                      output.o
X509_get_ex_data                                  output.o
X509_get_ex_new_index                             output.o
X509_get_ext                                      output.o
X509_get_ext_by_NID                               output.o
X509_get_ext_by_OBJ                               output.o
X509_get_ext_by_critical                          output.o
X509_get_ext_count                                output.o
X509_get_ext_d2i                                  output.o
X509_get_issuer_name                              output.o
X509_get_pubkey                                   output.o
X509_get_pubkey_parameters                        output.o
X509_get_serialNumber                             output.o
X509_get_subject_name                             output.o
X509_gmtime_adj                                   output.o
X509_issuer_and_serial_cmp                        output.o
X509_issuer_and_serial_hash                       output.o
X509_issuer_name_cmp                              output.o
X509_issuer_name_hash                             output.o
X509_issuer_name_hash_old                         output.o
X509_it                                           output.o
X509_keyid_get0                                   output.o
X509_keyid_set1                                   output.o
X509_new                                          output.o
X509_ocspid_print                                 output.o
X509_policy_check                                 output.o
X509_policy_level_get0_node                       output.o
X509_policy_level_node_count                      output.o
X509_policy_node_get0_parent                      output.o
X509_policy_node_get0_policy                      output.o
X509_policy_node_get0_qualifiers                  output.o
X509_policy_tree_free                             output.o
X509_policy_tree_get0_level                       output.o
X509_policy_tree_get0_policies                    output.o
X509_policy_tree_get0_user_policies               output.o
X509_policy_tree_level_count                      output.o
X509_print                                        output.o
X509_print_ex                                     output.o
X509_pubkey_digest                                output.o
X509_reject_clear                                 output.o
X509_set_ex_data                                  output.o
X509_sign                                         output.o
X509_signature_print                              output.o
X509_subject_name_cmp                             output.o
X509_subject_name_hash                            output.o
X509_subject_name_hash_old                        output.o
X509_supported_extension                          output.o
X509_time_adj                                     output.o
X509_time_adj_ex                                  output.o
X509_to_X509_REQ                                  output.o
X509_trust_clear                                  output.o
X509_verify                                       output.o
X509_verify_cert                                  output.o
X509_version                                      output.o
X509at_add1_attr                                  output.o
X509at_add1_attr_by_NID                           output.o
X509at_add1_attr_by_OBJ                           output.o
X509at_add1_attr_by_txt                           output.o
X509at_delete_attr                                output.o
X509at_get0_data_by_OBJ                           output.o
X509at_get_attr                                   output.o
X509at_get_attr_by_NID                            output.o
X509at_get_attr_by_OBJ                            output.o
X509at_get_attr_count                             output.o
X509v3_add_ext                                    output.o
X509v3_delete_ext                                 output.o
X509v3_get_ext                                    output.o
X509v3_get_ext_by_NID                             output.o
X509v3_get_ext_by_OBJ                             output.o
X509v3_get_ext_by_critical                        output.o
X509v3_get_ext_count                              output.o
X9_62_CHARACTERISTIC_TWO_free                     output.o
X9_62_CHARACTERISTIC_TWO_it                       output.o
X9_62_CHARACTERISTIC_TWO_new                      output.o
X9_62_CURVE_it                                    output.o
X9_62_FIELDID_it                                  output.o
X9_62_PENTANOMIAL_free                            output.o
X9_62_PENTANOMIAL_it                              output.o
X9_62_PENTANOMIAL_new                             output.o
ZLONG_it                                          output.o
_CONF_add_string                                  output.o
_CONF_free_data                                   output.o
_CONF_get_section                                 output.o
_CONF_get_section_values                          output.o
_CONF_get_string                                  output.o
_CONF_new_data                                    output.o
_CONF_new_section                                 output.o
__initfunc_acpi_init_global                       output.o
__initfunc_acpi_init_paral                        output.o
__initfunc_ata_init                               output.o
__initfunc_beep_init_msg                          output.o
__initfunc_cache_init_pass                        output.o
__initfunc_cache_init_pcpu                        output.o
__initfunc_cache_init_vcpu                        output.o
__initfunc_callrealmode_init_global               output.o
__initfunc_callrealmode_panic                     output.o
__initfunc_copy_minios                            output.o
__initfunc_core_init                              output.o
__initfunc_cpu_mmu_spt_init_global                output.o
__initfunc_cpu_mmu_spt_init_pcpu                  output.o
__initfunc_cpuid_init                             output.o
__initfunc_cpuid_pass_init                        output.o
__initfunc_create_pass_vm                         output.o
__initfunc_debug_ata_init                         output.o
__initfunc_debug_on_shift_key                     output.o
__initfunc_ehci_init                              output.o
__initfunc_end                                    output.o
__initfunc_exint_pass_init                        output.o
__initfunc_get_shiftflags                         output.o
__initfunc_gmm_pass_init                          output.o
__initfunc_idman_init                             output.o
__initfunc_idman_init_global                      output.o
__initfunc_idman_kernel_init                      output.o
__initfunc_ieee1394_init                          output.o
__initfunc_ieee1394_init_boot                     output.o
__initfunc_install_int0x15_hook                   output.o
__initfunc_int_init_global                        output.o
__initfunc_int_wakeup                             output.o
__initfunc_io_io_init                             output.o
__initfunc_io_iopass_init                         output.o
__initfunc_iommu_setup                            output.o
__initfunc_keyboard_init_msg                      output.o
__initfunc_localapic_init                         output.o
__initfunc_mm_init_global                         output.o
__initfunc_mmio_debug                             output.o
__initfunc_mmio_init                              output.o
__initfunc_msg_init_global                        output.o
__initfunc_msr_init                               output.o
__initfunc_msr_pass_init                          output.o
__initfunc_nmi_pass_init                          output.o
__initfunc_nmi_pass_init_pcpu                     output.o
__initfunc_panic_init_global                      output.o
__initfunc_panic_init_global3                     output.o
__initfunc_panic_init_msg                         output.o
__initfunc_panic_init_pcpu                        output.o
__initfunc_pci_init                               output.o
__initfunc_print_boot_msg                         output.o
__initfunc_printf_init_global                     output.o
__initfunc_pro100_init                            output.o
__initfunc_process_init_ap                        output.o
__initfunc_process_init_global                    output.o
__initfunc_process_wakeup                         output.o
__initfunc_random_init_config0                    output.o
__initfunc_random_init_global                     output.o
__initfunc_reboot_init_msg                        output.o
__initfunc_resume_pro1000                         output.o
__initfunc_segment_init_global                    output.o
__initfunc_serial_init_msg                        output.o
__initfunc_setiohooks                             output.o
__initfunc_sleep_init_global                      output.o
__initfunc_sleep_init_msg                         output.o
__initfunc_start                                  output.o
__initfunc_storage_io_initfunc                    output.o
__initfunc_storage_kernel_init                    output.o
__initfunc_suspend_pro1000                        output.o
__initfunc_svm_panic                              output.o
__initfunc_sx_init_pass_init                      output.o
__initfunc_thread_init_global                     output.o
__initfunc_thread_init_pcpu                       output.o
__initfunc_time_init_global                       output.o
__initfunc_time_init_global_status                output.o
__initfunc_time_init_msg                          output.o
__initfunc_time_init_pcpu                         output.o
__initfunc_timer_init_global                      output.o
__initfunc_tty_init_global                        output.o
__initfunc_tty_init_global2                       output.o
__initfunc_tty_init_msg                           output.o
__initfunc_uhci_init                              output.o
__initfunc_unmap_user_area                        output.o
__initfunc_vcpu_init_global                       output.o
__initfunc_vga_init                               output.o
__initfunc_virtualization_init_pcpu               output.o
__initfunc_vmmcall_boot_init                      output.o
__initfunc_vmmcall_dbgsh_init                     output.o
__initfunc_vmmcall_dbgsh_init_global              output.o
__initfunc_vmmcall_dbgsh_init_pcpu                output.o
__initfunc_vmmcall_iccard_init                    output.o
__initfunc_vmmcall_init                           output.o
__initfunc_vmmcall_log_init                       output.o
__initfunc_vmmcall_status_init                    output.o
__initfunc_vmmcall_status_init_global             output.o
__initfunc_vpn_kernel_init                        output.o
__initfunc_vpn_pro1000_init                       output.o
__initfunc_vramwrite_init_bsp                     output.o
__initfunc_vramwrite_init_msg                     output.o
__initfunc_vt_panic                               output.o
__initfunc_vt_register_status_callback            output.o
__initfunc_xsetbv_init                            output.o
__initfunc_xsetbv_pass_init                       output.o
__process_builtin                                 output.o
__process_builtin_end                             output.o
_dprintf                                          output.o
_dprintft                                         output.o
_shadow_DES_check_key                             output.o
a2d_ASN1_OBJECT                                   output.o
a2i_ASN1_INTEGER                                  output.o
a2i_ASN1_STRING                                   output.o
a2i_GENERAL_NAME                                  output.o
a2i_IPADDRESS                                     output.o
a2i_IPADDRESS_NC                                  output.o
a2i_ipadd                                         output.o
acpi_dsdt_parse                                   output.o
acpi_dsdt_system_state                            output.o
acpi_iohook                                       output.o
acpi_poweroff                                     output.o
acpi_reset                                        output.o
acpi_smi_hook                                     output.o
add_remap                                         output.o
aes_xts_init                                      output.o
ahci_config_read                                  output.o
ahci_config_write                                 output.o
ahci_new                                          output.o
alloc                                             output.o
alloc2                                            output.o
alloc_handler_descriptor                          output.o
alloc_page                                        output.o
alloc_pages                                       output.o
alloc_realmodemem                                 output.o
allocateNewAppID                                  output.o
allocateNewApplicationIdentifiers                 output.o
allocateNewVMID                                   output.o
ap_start_addr                                     output.o
apic_available                                    output.o
apinit_lock                                       output.o
apinit_procs                                      output.o
apinitproc0                                       output.o
app_pkey_methods                                  output.o
asm_vmlaunch_regs_32                              output.o
asm_vmlaunch_regs_64                              output.o
asm_vmresume_regs_32                              output.o
asm_vmresume_regs_64                              output.o
asm_vmrun_regs_32                                 output.o
asm_vmrun_regs_64                                 output.o
asn1_Finish                                       output.o
asn1_GetSequence                                  output.o
asn1_add_error                                    output.o
asn1_const_Finish                                 output.o
asn1_do_adb                                       output.o
asn1_do_lock                                      output.o
asn1_enc_free                                     output.o
asn1_enc_init                                     output.o
asn1_enc_restore                                  output.o
asn1_enc_save                                     output.o
asn1_ex_c2i                                       output.o
asn1_ex_i2c                                       output.o
asn1_get_choice_selector                          output.o
asn1_get_field_ptr                                output.o
asn1_set_choice_selector                          output.o
asn1_template_print_ctx                           output.o
assertion_failed                                  output.o
ata_ahci_mode                                     output.o
ata_bm_handle_command                             output.o
ata_bm_handle_device_specific                     output.o
ata_bm_handle_prd_table                           output.o
ata_bm_handle_status                              output.o
ata_bm_handler                                    output.o
ata_bm_handler_table                              output.o
ata_channel_lock                                  output.o
ata_channel_unlock                                output.o
ata_cmdblk_handler                                output.o
ata_cmdblk_handler_table                          output.o
ata_config_read                                   output.o
ata_config_write                                  output.o
ata_ctlblk_handler                                output.o
ata_ctlblk_handler_table                          output.o
ata_get_cmd_type                                  output.o
ata_handle_queued_status                          output.o
ata_init_io_handler                               output.o
ata_init_vendor                                   output.o
ata_set_bm_handler                                output.o
ata_set_cmdblk_handler                            output.o
ata_set_ctlblk_handler                            output.o
atapi_handle_cmd_packet                           output.o
atapi_handle_config_data                          output.o
atapi_handle_interrupt_reason                     output.o
atapi_handle_packet_data                          output.o
atapi_handle_pio_identify_packet                  output.o
auto_reboot                                       output.o
backtrace                                         output.o
beep_off                                          output.o
beep_on                                           output.o
beep_set_freq                                     output.o
bn_add_part_words                                 output.o
bn_add_words                                      output.o
bn_cmp_part_words                                 output.o
bn_cmp_words                                      output.o
bn_div_words                                      output.o
bn_dup_expand                                     output.o
bn_expand2                                        output.o
bn_mul_add_words                                  output.o
bn_mul_comba4                                     output.o
bn_mul_comba8                                     output.o
bn_mul_high                                       output.o
bn_mul_low_normal                                 output.o
bn_mul_low_recursive                              output.o
bn_mul_normal                                     output.o
bn_mul_part_recursive                             output.o
bn_mul_recursive                                  output.o
bn_mul_words                                      output.o
bn_sqr_comba4                                     output.o
bn_sqr_comba8                                     output.o
bn_sqr_normal                                     output.o
bn_sqr_recursive                                  output.o
bn_sqr_words                                      output.o
bn_sub_part_words                                 output.o
bn_sub_words                                      output.o
bss                                               output.o
c2i_ASN1_BIT_STRING                               output.o
c2i_ASN1_INTEGER                                  output.o
c2i_ASN1_OBJECT                                   output.o
cache_get_attr                                    output.o
cache_get_gmsr_amd                                output.o
cache_get_gmtrr                                   output.o
cache_get_gmtrr_attr                              output.o
cache_get_gmtrr_type                              output.o
cache_get_gmtrrcap                                output.o
cache_get_gpat                                    output.o
cache_set_gmsr_amd                                output.o
cache_set_gmtrr                                   output.o
cache_set_gpat                                    output.o
call_cpuid                                        output.o
call_initfunc                                     output.o
call_io                                           output.o
call_read_msr                                     output.o
call_write_msr                                    output.o
call_xsetbv                                       output.o
callfunc_and_getint                               output.o
callrealmode_bootcd_getstatus                     output.o
callrealmode_disk_readlba                         output.o
callrealmode_disk_readmbr                         output.o
callrealmode_end                                  output.o
callrealmode_endofcodeaddr                        output.o
callrealmode_getfontinfo                          output.o
callrealmode_getshiftflags                        output.o
callrealmode_getsysmemmap                         output.o
callrealmode_printmsg                             output.o
callrealmode_reboot                               output.o
callrealmode_setcursorpos                         output.o
callrealmode_setvideomode                         output.o
callrealmode_start                                output.o
callrealmode_start2                               output.o
callrealmode_startkernel32                        output.o
callrealmode_tcgbios                              output.o
callrealmode_usevcpu                              output.o
cancel_sleep                                      output.o
changePageStatus                                  output.o
check_defer                                       output.o
chelp_abort                                       output.o
chelp_bsearch                                     output.o
chelp_div_64_32_32                                output.o
chelp_div_64_32_64                                output.o
chelp_free                                        output.o
chelp_inited                                      output.o
chelp_isalnum                                     output.o
chelp_isalpha                                     output.o
chelp_isdigit                                     output.o
chelp_islower                                     output.o
chelp_isspace                                     output.o
chelp_isupper                                     output.o
chelp_isxdigit                                    output.o
chelp_malloc                                      output.o
chelp_memchr                                      output.o
chelp_memcmp                                      output.o
chelp_memcpy                                      output.o
chelp_memmove                                     output.o
chelp_memset                                      output.o
chelp_mod_64_32_32                                output.o
chelp_mul_64_64_64                                output.o
chelp_print                                       output.o
chelp_printf                                      output.o
chelp_qsort                                       output.o
chelp_realloc                                     output.o
chelp_snprintf                                    output.o
chelp_sprintf                                     output.o
chelp_strcat                                      output.o
chelp_strchr                                      output.o
chelp_strcmp                                      output.o
chelp_strcpy                                      output.o
chelp_stricmp                                     output.o
chelp_strlen                                      output.o
chelp_strncasecmp                                 output.o
chelp_strncmp                                     output.o
chelp_strncpy                                     output.o
chelp_strrchr                                     output.o
chelp_strtol                                      output.o
chelp_strtoul                                     output.o
chelp_strtoul_ex                                  output.o
chelp_swap                                        output.o
chelp_tolower                                     output.o
chelp_toupper                                     output.o
cleanse_ctr                                       output.o
clflush_size                                      output.o
closePage                                         output.o
cmpxchg_gphys_l                                   output.o
cmpxchg_gphys_q                                   output.o
cmpxchg_hphys_l                                   output.o
cmpxchg_hphys_q                                   output.o
cms_Data_create                                   output.o
cms_DigestAlgorithm_find_ctx                      output.o
cms_DigestAlgorithm_init_bio                      output.o
cms_DigestAlgorithm_set                           output.o
cms_DigestedData_create                           output.o
cms_DigestedData_do_final                         output.o
cms_DigestedData_init_bio                         output.o
cms_EncryptedContent_init                         output.o
cms_EncryptedContent_init_bio                     output.o
cms_EncryptedData_init_bio                        output.o
cms_EnvelopedData_init_bio                        output.o
cms_SignedData_final                              output.o
cms_SignedData_init_bio                           output.o
cms_SignerIdentifier_cert_cmp                     output.o
cms_SignerIdentifier_get0_signer_id               output.o
cms_content_bio                                   output.o
cms_set1_SignerIdentifier                         output.o
config                                            output.o
copy_bootsector                                   output.o
core_init                                         output.o
core_io_handle_default                            output.o
core_io_modify_handler                            output.o
core_io_register_handler                          output.o
core_io_unregister_handler                        output.o
core_mm_read_guest_phys                           output.o
core_mm_write_guest_phys                          output.o
cpu_emul_cli                                      output.o
cpu_emul_cpuid                                    output.o
cpu_emul_hlt                                      output.o
cpu_emul_rdmsr                                    output.o
cpu_emul_realmode_int                             output.o
cpu_emul_sti                                      output.o
cpu_emul_wrmsr                                    output.o
cpu_emul_xsetbv                                   output.o
cpu_interpreter                                   output.o
cpu_mmu_get_pte                                   output.o
cpu_mmu_spt_clear_all                             output.o
cpu_mmu_spt_extern_mapsearch                      output.o
cpu_mmu_spt_init                                  output.o
cpu_mmu_spt_invalidate                            output.o
cpu_mmu_spt_map_1mb                               output.o
cpu_mmu_spt_pagefault                             output.o
cpu_mmu_spt_tlbflush                              output.o
cpu_mmu_spt_updatecr3                             output.o
cpu_seg_read_b                                    output.o
cpu_seg_read_l                                    output.o
cpu_seg_read_q                                    output.o
cpu_seg_read_w                                    output.o
cpu_seg_write_b                                   output.o
cpu_seg_write_l                                   output.o
cpu_seg_write_q                                   output.o
cpu_seg_write_w                                   output.o
cpu_stack_get                                     output.o
cpu_stack_pop                                     output.o
cpu_stack_push                                    output.o
cpu_stack_set                                     output.o
cpuinit_end                                       output.o
cpuinit_start                                     output.o
create_dom                                        output.o
crypt_sys_rsa_sign                                output.o
crypto_find                                       output.o
crypto_init                                       output.o
crypto_none_init                                  output.o
crypto_register                                   output.o
curthread                                         output.o
d2i_ACCESS_DESCRIPTION                            output.o
d2i_ASN1_BIT_STRING                               output.o
d2i_ASN1_BMPSTRING                                output.o
d2i_ASN1_BOOLEAN                                  output.o
d2i_ASN1_ENUMERATED                               output.o
d2i_ASN1_GENERALIZEDTIME                          output.o
d2i_ASN1_GENERALSTRING                            output.o
d2i_ASN1_IA5STRING                                output.o
d2i_ASN1_INTEGER                                  output.o
d2i_ASN1_NULL                                     output.o
d2i_ASN1_OBJECT                                   output.o
d2i_ASN1_OCTET_STRING                             output.o
d2i_ASN1_PRINTABLE                                output.o
d2i_ASN1_PRINTABLESTRING                          output.o
d2i_ASN1_SEQUENCE_ANY                             output.o
d2i_ASN1_SET                                      output.o
d2i_ASN1_SET_ANY                                  output.o
d2i_ASN1_T61STRING                                output.o
d2i_ASN1_TIME                                     output.o
d2i_ASN1_TYPE                                     output.o
d2i_ASN1_UINTEGER                                 output.o
d2i_ASN1_UNIVERSALSTRING                          output.o
d2i_ASN1_UTCTIME                                  output.o
d2i_ASN1_UTF8STRING                               output.o
d2i_ASN1_VISIBLESTRING                            output.o
d2i_ASN1_bytes                                    output.o
d2i_ASN1_type_bytes                               output.o
d2i_AUTHORITY_INFO_ACCESS                         output.o
d2i_AUTHORITY_KEYID                               output.o
d2i_AutoPrivateKey                                output.o
d2i_BASIC_CONSTRAINTS                             output.o
d2i_CERTIFICATEPOLICIES                           output.o
d2i_CMS_ContentInfo                               output.o
d2i_CMS_bio                                       output.o
d2i_CRL_DIST_POINTS                               output.o
d2i_DHparams                                      output.o
d2i_DIRECTORYSTRING                               output.o
d2i_DISPLAYTEXT                                   output.o
d2i_DIST_POINT                                    output.o
d2i_DIST_POINT_NAME                               output.o
d2i_DSAPrivateKey                                 output.o
d2i_DSAPrivateKey_bio                             output.o
d2i_DSAPublicKey                                  output.o
d2i_DSA_PUBKEY                                    output.o
d2i_DSA_PUBKEY_bio                                output.o
d2i_DSA_SIG                                       output.o
d2i_DSAparams                                     output.o
d2i_ECDSA_SIG                                     output.o
d2i_ECPKPARAMETERS                                output.o
d2i_ECPKParameters                                output.o
d2i_ECParameters                                  output.o
d2i_ECPrivateKey                                  output.o
d2i_ECPrivateKey_bio                              output.o
d2i_EC_PRIVATEKEY                                 output.o
d2i_EC_PUBKEY                                     output.o
d2i_EC_PUBKEY_bio                                 output.o
d2i_EDIPARTYNAME                                  output.o
d2i_EXTENDED_KEY_USAGE                            output.o
d2i_GENERAL_NAME                                  output.o
d2i_GENERAL_NAMES                                 output.o
d2i_ISSUING_DIST_POINT                            output.o
d2i_NETSCAPE_CERT_SEQUENCE                        output.o
d2i_NETSCAPE_SPKAC                                output.o
d2i_NETSCAPE_SPKI                                 output.o
d2i_NOTICEREF                                     output.o
d2i_OCSP_BASICRESP                                output.o
d2i_OCSP_CERTID                                   output.o
d2i_OCSP_CERTSTATUS                               output.o
d2i_OCSP_CRLID                                    output.o
d2i_OCSP_ONEREQ                                   output.o
d2i_OCSP_REQINFO                                  output.o
d2i_OCSP_REQUEST                                  output.o
d2i_OCSP_RESPBYTES                                output.o
d2i_OCSP_RESPDATA                                 output.o
d2i_OCSP_RESPID                                   output.o
d2i_OCSP_RESPONSE                                 output.o
d2i_OCSP_REVOKEDINFO                              output.o
d2i_OCSP_SERVICELOC                               output.o
d2i_OCSP_SIGNATURE                                output.o
d2i_OCSP_SINGLERESP                               output.o
d2i_OTHERNAME                                     output.o
d2i_PBE2PARAM                                     output.o
d2i_PBEPARAM                                      output.o
d2i_PBKDF2PARAM                                   output.o
d2i_PKCS12                                        output.o
d2i_PKCS12_BAGS                                   output.o
d2i_PKCS12_MAC_DATA                               output.o
d2i_PKCS12_SAFEBAG                                output.o
d2i_PKCS12_bio                                    output.o
d2i_PKCS7                                         output.o
d2i_PKCS7_DIGEST                                  output.o
d2i_PKCS7_ENCRYPT                                 output.o
d2i_PKCS7_ENC_CONTENT                             output.o
d2i_PKCS7_ENVELOPE                                output.o
d2i_PKCS7_ISSUER_AND_SERIAL                       output.o
d2i_PKCS7_RECIP_INFO                              output.o
d2i_PKCS7_SIGNED                                  output.o
d2i_PKCS7_SIGNER_INFO                             output.o
d2i_PKCS7_SIGN_ENVELOPE                           output.o
d2i_PKCS7_bio                                     output.o
d2i_PKCS8PrivateKey_bio                           output.o
d2i_PKCS8_PRIV_KEY_INFO                           output.o
d2i_PKCS8_PRIV_KEY_INFO_bio                       output.o
d2i_PKCS8_bio                                     output.o
d2i_PKEY_USAGE_PERIOD                             output.o
d2i_POLICYINFO                                    output.o
d2i_POLICYQUALINFO                                output.o
d2i_PROXY_CERT_INFO_EXTENSION                     output.o
d2i_PROXY_POLICY                                  output.o
d2i_PUBKEY                                        output.o
d2i_PUBKEY_bio                                    output.o
d2i_PrivateKey                                    output.o
d2i_PrivateKey_bio                                output.o
d2i_RSAPrivateKey                                 output.o
d2i_RSAPrivateKey_bio                             output.o
d2i_RSAPublicKey                                  output.o
d2i_RSAPublicKey_bio                              output.o
d2i_RSA_PUBKEY                                    output.o
d2i_RSA_PUBKEY_bio                                output.o
d2i_SXNET                                         output.o
d2i_SXNETID                                       output.o
d2i_USERNOTICE                                    output.o
d2i_X509                                          output.o
d2i_X509_ALGOR                                    output.o
d2i_X509_ALGORS                                   output.o
d2i_X509_ATTRIBUTE                                output.o
d2i_X509_AUX                                      output.o
d2i_X509_CERT_AUX                                 output.o
d2i_X509_CERT_PAIR                                output.o
d2i_X509_CINF                                     output.o
d2i_X509_CRL                                      output.o
d2i_X509_CRL_INFO                                 output.o
d2i_X509_CRL_bio                                  output.o
d2i_X509_EXTENSION                                output.o
d2i_X509_EXTENSIONS                               output.o
d2i_X509_NAME                                     output.o
d2i_X509_NAME_ENTRY                               output.o
d2i_X509_PUBKEY                                   output.o
d2i_X509_REQ                                      output.o
d2i_X509_REQ_INFO                                 output.o
d2i_X509_REQ_bio                                  output.o
d2i_X509_REVOKED                                  output.o
d2i_X509_SIG                                      output.o
d2i_X509_VAL                                      output.o
d2i_X509_bio                                      output.o
deactivate_and_delete_urb                         output.o
debug_addstr                                      output.o
debug_gdb                                         output.o
debug_iohook                                      output.o
debug_msgregister                                 output.o
debug_msgunregister                               output.o
decryptcfg                                        output.o
default_pctx                                      output.o
dh_asn1_meth                                      output.o
dh_pkey_meth                                      output.o
disable_apic                                      output.o
do_exint_pass                                     output.o
do_externalint_enable                             output.o
do_io_nothing                                     output.o
do_iopass_default                                 output.o
do_panic_reboot                                   output.o
dom_io                                            output.o
dprintf_port                                      output.o
drhd_list_head                                    output.o
dsa_asn1_meths                                    output.o
dsa_builtin_paramgen                              output.o
dsa_pkey_meth                                     output.o
dsa_pub_internal_it                               output.o
dump_frame                                        output.o
dump_qh                                           output.o
dump_td                                           output.o
dump_td_byvirt                                    output.o
dwReaders                                         output.o
e801_fake_ax                                      output.o
e801_fake_bx                                      output.o
ec_GF2m_have_precompute_mult                      output.o
ec_GF2m_precompute_mult                           output.o
ec_GF2m_simple_add                                output.o
ec_GF2m_simple_cmp                                output.o
ec_GF2m_simple_dbl                                output.o
ec_GF2m_simple_field_div                          output.o
ec_GF2m_simple_field_mul                          output.o
ec_GF2m_simple_field_sqr                          output.o
ec_GF2m_simple_group_check_discriminant           output.o
ec_GF2m_simple_group_clear_finish                 output.o
ec_GF2m_simple_group_copy                         output.o
ec_GF2m_simple_group_finish                       output.o
ec_GF2m_simple_group_get_curve                    output.o
ec_GF2m_simple_group_get_degree                   output.o
ec_GF2m_simple_group_init                         output.o
ec_GF2m_simple_group_set_curve                    output.o
ec_GF2m_simple_invert                             output.o
ec_GF2m_simple_is_at_infinity                     output.o
ec_GF2m_simple_is_on_curve                        output.o
ec_GF2m_simple_make_affine                        output.o
ec_GF2m_simple_mul                                output.o
ec_GF2m_simple_oct2point                          output.o
ec_GF2m_simple_point2oct                          output.o
ec_GF2m_simple_point_clear_finish                 output.o
ec_GF2m_simple_point_copy                         output.o
ec_GF2m_simple_point_finish                       output.o
ec_GF2m_simple_point_get_affine_coordinates       output.o
ec_GF2m_simple_point_init                         output.o
ec_GF2m_simple_point_set_affine_coordinates       output.o
ec_GF2m_simple_point_set_to_infinity              output.o
ec_GF2m_simple_points_make_affine                 output.o
ec_GF2m_simple_set_compressed_coordinates         output.o
ec_GFp_mont_field_decode                          output.o
ec_GFp_mont_field_encode                          output.o
ec_GFp_mont_field_mul                             output.o
ec_GFp_mont_field_set_to_one                      output.o
ec_GFp_mont_field_sqr                             output.o
ec_GFp_mont_group_clear_finish                    output.o
ec_GFp_mont_group_copy                            output.o
ec_GFp_mont_group_finish                          output.o
ec_GFp_mont_group_init                            output.o
ec_GFp_mont_group_set_curve                       output.o
ec_GFp_nist_field_mul                             output.o
ec_GFp_nist_field_sqr                             output.o
ec_GFp_nist_group_copy                            output.o
ec_GFp_nist_group_set_curve                       output.o
ec_GFp_simple_add                                 output.o
ec_GFp_simple_cmp                                 output.o
ec_GFp_simple_dbl                                 output.o
ec_GFp_simple_field_mul                           output.o
ec_GFp_simple_field_sqr                           output.o
ec_GFp_simple_get_Jprojective_coordinates_GFp     output.o
ec_GFp_simple_group_check_discriminant            output.o
ec_GFp_simple_group_clear_finish                  output.o
ec_GFp_simple_group_copy                          output.o
ec_GFp_simple_group_finish                        output.o
ec_GFp_simple_group_get_curve                     output.o
ec_GFp_simple_group_get_degree                    output.o
ec_GFp_simple_group_init                          output.o
ec_GFp_simple_group_set_curve                     output.o
ec_GFp_simple_invert                              output.o
ec_GFp_simple_is_at_infinity                      output.o
ec_GFp_simple_is_on_curve                         output.o
ec_GFp_simple_make_affine                         output.o
ec_GFp_simple_oct2point                           output.o
ec_GFp_simple_point2oct                           output.o
ec_GFp_simple_point_clear_finish                  output.o
ec_GFp_simple_point_copy                          output.o
ec_GFp_simple_point_finish                        output.o
ec_GFp_simple_point_get_affine_coordinates        output.o
ec_GFp_simple_point_init                          output.o
ec_GFp_simple_point_set_affine_coordinates        output.o
ec_GFp_simple_point_set_to_infinity               output.o
ec_GFp_simple_points_make_affine                  output.o
ec_GFp_simple_set_Jprojective_coordinates_GFp     output.o
ec_GFp_simple_set_compressed_coordinates          output.o
ec_pkey_meth                                      output.o
ec_wNAF_have_precompute_mult                      output.o
ec_wNAF_mul                                       output.o
ec_wNAF_precompute_mult                           output.o
ecdh_check                                        output.o
ecdsa_check                                       output.o
eckey_asn1_meth                                   output.o
ehci_check_advance                                output.o
ehci_check_urb_advance                            output.o
ehci_cleanup_urbs                                 output.o
ehci_conceal_portroute                            output.o
ehci_deactivate_urb                               output.o
ehci_dump_alist                                   output.o
ehci_dump_all                                     output.o
ehci_dump_async                                   output.o
ehci_dump_qtd                                     output.o
ehci_dump_qtdm                                    output.o
ehci_dump_urb                                     output.o
ehci_dump_urblist                                 output.o
ehci_end_monitor_async                            output.o
ehci_host                                         output.o
ehci_init                                         output.o
ehci_monitor_async_list                           output.o
ehci_shadow_async_list                            output.o
ehci_shadow_buffer                                output.o
ehci_submit_bulk                                  output.o
ehci_submit_control                               output.o
ehci_submit_interrupt                             output.o
end                                               output.o
entry                                             output.o
entry_pd                                          output.o
entry_pd0                                         output.o
entry_pdp                                         output.o
evp_pkey_set_cb_translate                         output.o
exitprocess                                       output.o
free                                              output.o
free_config_descriptors                           output.o
free_device                                       output.o
free_page                                         output.o
free_page_phys                                    output.o
g_rgSCardT0Pci                                    output.o
g_rgSCardT1Pci                                    output.o
getMemoryOwnershipTableEntry                      output.o
getMemoryOwnershipTableIndex                      output.o
get_acpi_time                                     output.o
get_acpi_time_raw                                 output.o
get_cpu_id                                        output.o
get_cpu_time                                      output.o
get_ept_base_HPA                                  output.o
get_guest_cr3_value                               output.o
get_guest_eptp_value                              output.o
get_gurb_by_address                               output.o
get_idman_session                                 output.o
get_page_table_base_GPA                           output.o
get_seg_access_rights                             output.o
get_seg_base                                      output.o
get_time                                          output.o
getfakesysmemmap                                  output.o
getsysmemmap                                      output.o
gmm_pass_gp2hp                                    output.o
gpaToHPA                                          output.o
gs_current                                        output.o
gs_currentcpu                                     output.o
gs_init_count                                     output.o
gs_inthandling                                    output.o
gs_nmi                                            output.o
gs_syscallstack                                   output.o
guest_int0x15_e801_fake_ax                        output.o
guest_int0x15_e801_fake_bx                        output.o
guest_int0x15_e820_data_minus0x18                 output.o
guest_int0x15_e820_end                            output.o
guest_int0x15_hook                                output.o
guest_int0x15_hook_end                            output.o
guest_int0x15_orig                                output.o
hContext                                          output.o
hObjectCnt                                        output.o
hSessionCnt                                       output.o
handle_connect_status                             output.o
handle_init_to_bsp                                output.o
handle_port_reset                                 output.o
handler_descriptor                                output.o
handler_descriptor_lock                           output.o
head                                              output.o
hex_to_string                                     output.o
hmac_asn1_meth                                    output.o
hmac_pkey_meth                                    output.o
hub_portdevice_register                           output.o
hypercall_handler                                 output.o
i2a_ACCESS_DESCRIPTION                            output.o
i2a_ASN1_INTEGER                                  output.o
i2a_ASN1_OBJECT                                   output.o
i2a_ASN1_STRING                                   output.o
i2c_ASN1_BIT_STRING                               output.o
i2c_ASN1_INTEGER                                  output.o
i2d_ACCESS_DESCRIPTION                            output.o
i2d_ASN1_BIT_STRING                               output.o
i2d_ASN1_BMPSTRING                                output.o
i2d_ASN1_BOOLEAN                                  output.o
i2d_ASN1_ENUMERATED                               output.o
i2d_ASN1_GENERALIZEDTIME                          output.o
i2d_ASN1_GENERALSTRING                            output.o
i2d_ASN1_IA5STRING                                output.o
i2d_ASN1_INTEGER                                  output.o
i2d_ASN1_NULL                                     output.o
i2d_ASN1_OBJECT                                   output.o
i2d_ASN1_OCTET_STRING                             output.o
i2d_ASN1_PRINTABLE                                output.o
i2d_ASN1_PRINTABLESTRING                          output.o
i2d_ASN1_SEQUENCE_ANY                             output.o
i2d_ASN1_SET                                      output.o
i2d_ASN1_SET_ANY                                  output.o
i2d_ASN1_T61STRING                                output.o
i2d_ASN1_TIME                                     output.o
i2d_ASN1_TYPE                                     output.o
i2d_ASN1_UNIVERSALSTRING                          output.o
i2d_ASN1_UTCTIME                                  output.o
i2d_ASN1_UTF8STRING                               output.o
i2d_ASN1_VISIBLESTRING                            output.o
i2d_ASN1_bio_stream                               output.o
i2d_ASN1_bytes                                    output.o
i2d_AUTHORITY_INFO_ACCESS                         output.o
i2d_AUTHORITY_KEYID                               output.o
i2d_BASIC_CONSTRAINTS                             output.o
i2d_CERTIFICATEPOLICIES                           output.o
i2d_CMS_ContentInfo                               output.o
i2d_CMS_bio                                       output.o
i2d_CMS_bio_stream                                output.o
i2d_CRL_DIST_POINTS                               output.o
i2d_DHparams                                      output.o
i2d_DIRECTORYSTRING                               output.o
i2d_DISPLAYTEXT                                   output.o
i2d_DIST_POINT                                    output.o
i2d_DIST_POINT_NAME                               output.o
i2d_DSAPrivateKey                                 output.o
i2d_DSAPrivateKey_bio                             output.o
i2d_DSAPublicKey                                  output.o
i2d_DSA_PUBKEY                                    output.o
i2d_DSA_PUBKEY_bio                                output.o
i2d_DSA_SIG                                       output.o
i2d_DSAparams                                     output.o
i2d_ECDSA_SIG                                     output.o
i2d_ECPKPARAMETERS                                output.o
i2d_ECPKParameters                                output.o
i2d_ECParameters                                  output.o
i2d_ECPrivateKey                                  output.o
i2d_ECPrivateKey_bio                              output.o
i2d_EC_PRIVATEKEY                                 output.o
i2d_EC_PUBKEY                                     output.o
i2d_EC_PUBKEY_bio                                 output.o
i2d_EDIPARTYNAME                                  output.o
i2d_EXTENDED_KEY_USAGE                            output.o
i2d_GENERAL_NAME                                  output.o
i2d_GENERAL_NAMES                                 output.o
i2d_ISSUING_DIST_POINT                            output.o
i2d_NETSCAPE_CERT_SEQUENCE                        output.o
i2d_NETSCAPE_SPKAC                                output.o
i2d_NETSCAPE_SPKI                                 output.o
i2d_NOTICEREF                                     output.o
i2d_OCSP_BASICRESP                                output.o
i2d_OCSP_CERTID                                   output.o
i2d_OCSP_CERTSTATUS                               output.o
i2d_OCSP_CRLID                                    output.o
i2d_OCSP_ONEREQ                                   output.o
i2d_OCSP_REQINFO                                  output.o
i2d_OCSP_REQUEST                                  output.o
i2d_OCSP_RESPBYTES                                output.o
i2d_OCSP_RESPDATA                                 output.o
i2d_OCSP_RESPID                                   output.o
i2d_OCSP_RESPONSE                                 output.o
i2d_OCSP_REVOKEDINFO                              output.o
i2d_OCSP_SERVICELOC                               output.o
i2d_OCSP_SIGNATURE                                output.o
i2d_OCSP_SINGLERESP                               output.o
i2d_OTHERNAME                                     output.o
i2d_PBE2PARAM                                     output.o
i2d_PBEPARAM                                      output.o
i2d_PBKDF2PARAM                                   output.o
i2d_PKCS12                                        output.o
i2d_PKCS12_BAGS                                   output.o
i2d_PKCS12_MAC_DATA                               output.o
i2d_PKCS12_SAFEBAG                                output.o
i2d_PKCS12_bio                                    output.o
i2d_PKCS7                                         output.o
i2d_PKCS7_DIGEST                                  output.o
i2d_PKCS7_ENCRYPT                                 output.o
i2d_PKCS7_ENC_CONTENT                             output.o
i2d_PKCS7_ENVELOPE                                output.o
i2d_PKCS7_ISSUER_AND_SERIAL                       output.o
i2d_PKCS7_NDEF                                    output.o
i2d_PKCS7_RECIP_INFO                              output.o
i2d_PKCS7_SIGNED                                  output.o
i2d_PKCS7_SIGNER_INFO                             output.o
i2d_PKCS7_SIGN_ENVELOPE                           output.o
i2d_PKCS7_bio                                     output.o
i2d_PKCS8PrivateKeyInfo_bio                       output.o
i2d_PKCS8PrivateKey_bio                           output.o
i2d_PKCS8PrivateKey_nid_bio                       output.o
i2d_PKCS8_PRIV_KEY_INFO                           output.o
i2d_PKCS8_PRIV_KEY_INFO_bio                       output.o
i2d_PKCS8_bio                                     output.o
i2d_PKEY_USAGE_PERIOD                             output.o
i2d_POLICYINFO                                    output.o
i2d_POLICYQUALINFO                                output.o
i2d_PROXY_CERT_INFO_EXTENSION                     output.o
i2d_PROXY_POLICY                                  output.o
i2d_PUBKEY                                        output.o
i2d_PUBKEY_bio                                    output.o
i2d_PrivateKey                                    output.o
i2d_PrivateKey_bio                                output.o
i2d_RSAPrivateKey                                 output.o
i2d_RSAPrivateKey_bio                             output.o
i2d_RSAPublicKey                                  output.o
i2d_RSAPublicKey_bio                              output.o
i2d_RSA_PUBKEY                                    output.o
i2d_RSA_PUBKEY_bio                                output.o
i2d_SXNET                                         output.o
i2d_SXNETID                                       output.o
i2d_USERNOTICE                                    output.o
i2d_X509                                          output.o
i2d_X509_ALGOR                                    output.o
i2d_X509_ALGORS                                   output.o
i2d_X509_ATTRIBUTE                                output.o
i2d_X509_AUX                                      output.o
i2d_X509_CERT_AUX                                 output.o
i2d_X509_CERT_PAIR                                output.o
i2d_X509_CINF                                     output.o
i2d_X509_CRL                                      output.o
i2d_X509_CRL_INFO                                 output.o
i2d_X509_CRL_bio                                  output.o
i2d_X509_EXTENSION                                output.o
i2d_X509_EXTENSIONS                               output.o
i2d_X509_NAME                                     output.o
i2d_X509_NAME_ENTRY                               output.o
i2d_X509_PUBKEY                                   output.o
i2d_X509_REQ                                      output.o
i2d_X509_REQ_INFO                                 output.o
i2d_X509_REQ_bio                                  output.o
i2d_X509_REVOKED                                  output.o
i2d_X509_SIG                                      output.o
i2d_X509_VAL                                      output.o
i2d_X509_bio                                      output.o
i2o_ECPublicKey                                   output.o
i2s_ASN1_ENUMERATED                               output.o
i2s_ASN1_ENUMERATED_TABLE                         output.o
i2s_ASN1_INTEGER                                  output.o
i2s_ASN1_OCTET_STRING                             output.o
i2t_ASN1_OBJECT                                   output.o
i2v_ASN1_BIT_STRING                               output.o
i2v_GENERAL_NAME                                  output.o
i2v_GENERAL_NAMES                                 output.o
idea_cbc_encrypt                                  output.o
idea_cfb64_encrypt                                output.o
idea_ecb_encrypt                                  output.o
idea_encrypt                                      output.o
idea_ofb64_encrypt                                output.o
idea_options                                      output.o
idea_set_decrypt_key                              output.o
idea_set_encrypt_key                              output.o
idman_reinit2                                     output.o
idman_reinit_session                              output.o
idman_user_init                                   output.o
ieee1394_init                                     output.o
init_hframelist                                   output.o
initfunc_init                                     output.o
int1a_TCG_CompactHashLogExtendEvent               output.o
int1a_TCG_HashAll                                 output.o
int1a_TCG_HashLogEvent                            output.o
int1a_TCG_HashLogExtendEvent                      output.o
int1a_TCG_PassThroughToTPM                        output.o
int1a_TCG_StatusCheck                             output.o
int1a_TCG_TSS                                     output.o
int_callfunc                                      output.o
int_exceptionHandler                              output.o
int_fatal                                         output.o
int_handler                                       output.o
int_init_ap                                       output.o
int_rsa_verify                                    output.o
iodom_init                                        output.o
iommu_detected                                    output.o
iommu_setup                                       output.o
ipchecksum                                        output.o
keyboard_flush                                    output.o
keyboard_reset                                    output.o
level_add_node                                    output.o
level_find_node                                   output.o
lh_delete                                         output.o
lh_doall                                          output.o
lh_doall_arg                                      output.o
lh_free                                           output.o
lh_insert                                         output.o
lh_new                                            output.o
lh_num_items                                      output.o
lh_retrieve                                       output.o
lh_strhash                                        output.o
lh_version                                        output.o
libInitFlag                                       output.o
load_bootsector                                   output.o
load_minios                                       output.o
load_new_vcpu                                     output.o
localapic_change_base_msr                         output.o
localapic_mmio_register                           output.o
localapic_wait_for_sipi                           output.o
mapHPAintoHVA                                     output.o
mapmem                                            output.o
mapmem_gphys                                      output.o
mapmem_hphys                                      output.o
matched_drhd_u                                    output.o
md4_block_data_order                              output.o
md5_block_data_order                              output.o
memcmp                                            output.o
memcpy                                            output.o
memorysize                                        output.o
mempool_allocmem                                  output.o
mempool_free                                      output.o
mempool_freemem                                   output.o
mempool_new                                       output.o
memset                                            output.o
message_exitcode                                  output.o
message_exitreason                                output.o
mm_flush_wb_cache                                 output.o
mm_force_unlock                                   output.o
mm_process_alloc                                  output.o
mm_process_free                                   output.o
mm_process_map_alloc                              output.o
mm_process_map_shared                             output.o
mm_process_map_shared_physpage                    output.o
mm_process_map_stack                              output.o
mm_process_switch                                 output.o
mm_process_unmap                                  output.o
mm_process_unmap_stack                            output.o
mm_process_unmapall                               output.o
mmio_access_memory                                output.o
mmio_access_page                                  output.o
mmio_lock                                         output.o
mmio_register                                     output.o
mmio_unlock                                       output.o
mmio_unregister                                   output.o
monitor_vmcs_read                                 output.o
move_vmm_area32                                   output.o
move_vmm_area64                                   output.o
mpudiv_128_32                                     output.o
mpumul_64_64                                      output.o
msg_findname                                      output.o
msg_register                                      output.o
msg_unregister                                    output.o
msg_unregister2                                   output.o
msg_unregisterall                                 output.o
msg_usb_bulk_read                                 output.o
msg_usb_bulk_write                                output.o
msg_usb_claim_interface                           output.o
msg_usb_close                                     output.o
msg_usb_control_msg                               output.o
msg_usb_find_busses                               output.o
msg_usb_find_devices                              output.o
msg_usb_get_busses                                output.o
msg_usb_get_string_simple                         output.o
msg_usb_init                                      output.o
msg_usb_open                                      output.o
msg_usb_release_interface                         output.o
msg_usb_reset                                     output.o
msg_vpn_FreeTimer                                 output.o
msg_vpn_GetCurrentCpuId                           output.o
msg_vpn_GetPhysicalNicInfo                        output.o
msg_vpn_GetTickCount                              output.o
msg_vpn_GetVirtualNicInfo                         output.o
msg_vpn_NewTimer                                  output.o
msg_vpn_SendPhysicalNic                           output.o
msg_vpn_SendVirtualNic                            output.o
msg_vpn_SetPhysicalNicRecvCallback                output.o
msg_vpn_SetTimer                                  output.o
msg_vpn_SetVirtualNicRecvCallback                 output.o
msg_vpn_ic_rsa_sign                               output.o
msgclose                                          output.o
msgopen                                           output.o
msgpremapbuf                                      output.o
msgregister                                       output.o
msgsendbuf                                        output.o
msgsenddesc                                       output.o
msgsendint                                        output.o
msgsetfunc                                        output.o
msgunregister                                     output.o
mszReaders                                        output.o
name_cmp                                          output.o
newprocess                                        output.o
num_dom                                           output.o
num_of_available_pages                            output.o
num_of_processors                                 output.o
o2i_ECPublicKey                                   output.o
obj_cleanup_defer                                 output.o
packet_handle_command                             output.o
packet_handle_config                              output.o
packet_handle_invalid                             output.o
packet_handle_nondata                             output.o
packet_handle_rw                                  output.o
packet_handle_through                             output.o
panic                                             output.o
panic_oom                                         output.o
panic_test                                        output.o
panic_wakeup_all                                  output.o
parse_dmar_bios_report                            output.o
pci_append_device                                 output.o
pci_conceal_config_data_handler                   output.o
pci_conceal_new_device                            output.o
pci_config_addr_handler                           output.o
pci_config_data_handler                           output.o
pci_device_list_head                              output.o
pci_driver_list_head                              output.o
pci_handle_default_config_write                   output.o
pci_possible_new_device                           output.o
pci_print_device                                  output.o
pci_read_config_data16                            output.o
pci_read_config_data32                            output.o
pci_read_config_data8                             output.o
pci_read_config_data_port                         output.o
pci_register_driver                               output.o
pci_restore_config_addr                           output.o
pci_save_config_addr                              output.o
pci_write_config_data16                           output.o
pci_write_config_data32                           output.o
pci_write_config_data8                            output.o
pci_write_config_data_port                        output.o
pcpu_default                                      output.o
pcpu_init                                         output.o
pcpu_list_add                                     output.o
pcpu_list_foreach                                 output.o
pem_check_suffix                                  output.o
phys_in_vmm                                       output.o
phys_to_virt                                      output.o
pmap_autoalloc                                    output.o
pmap_clear                                        output.o
pmap_close                                        output.o
pmap_dump                                         output.o
pmap_getreadlevel                                 output.o
pmap_open_guest                                   output.o
pmap_open_vmm                                     output.o
pmap_pointer                                      output.o
pmap_read                                         output.o
pmap_seek                                         output.o
pmap_setlevel                                     output.o
pmap_write                                        output.o
policy_cache_find_data                            output.o
policy_cache_free                                 output.o
policy_cache_set                                  output.o
policy_cache_set_mapping                          output.o
policy_data_free                                  output.o
policy_data_new                                   output.o
policy_node_cmp_new                               output.o
policy_node_free                                  output.o
policy_node_match                                 output.o
prepare_for_sleep                                 output.o
printexitcode                                     output.o
printexitreason                                   output.o
printf                                            output.o
pro100_alloc_page                                 output.o
pro100_alloc_recv_buffer                          output.o
pro100_beep                                       output.o
pro100_config_read                                output.o
pro100_config_write                               output.o
pro100_exec_cu_op                                 output.o
pro100_flush                                      output.o
pro100_free_page                                  output.o
pro100_generate_int                               output.o
pro100_get_ctx                                    output.o
pro100_get_cu_command_string                      output.o
pro100_get_int_bit_string                         output.o
pro100_get_op_size                                output.o
pro100_get_ru_command_string                      output.o
pro100_get_stat_ack_string                        output.o
pro100_hook_read                                  output.o
pro100_hook_write                                 output.o
pro100_init                                       output.o
pro100_init_cu_base_addr                          output.o
pro100_init_recv_buffer                           output.o
pro100_init_ru_base_addr                          output.o
pro100_init_vpn_client                            output.o
pro100_io_handler                                 output.o
pro100_mem_read                                   output.o
pro100_mem_write                                  output.o
pro100_mm_handler                                 output.o
pro100_new                                        output.o
pro100_poll_ru                                    output.o
pro100_proc_guest_op                              output.o
pro100_read                                       output.o
pro100_read_send_packet                           output.o
pro100_send_packet_to_line                        output.o
pro100_sleep                                      output.o
pro100_wait_cu_ru_accepable                       output.o
pro100_write                                      output.o
pro100_write_recv_packet                          output.o
process_kill                                      output.o
process_syscall                                   output.o
processuser_no_sysenter                           output.o
processuser_syscall                               output.o
processuser_sysenter                              output.o
prohibit_iccard_init                              output.o
protectCurrentApplication                         output.o
ps2_locked                                        output.o
putchar                                           output.o
putchar_set_func                                  output.o
rand_ssleay_meth                                  output.o
read_gphys_b                                      output.o
read_gphys_l                                      output.o
read_gphys_q                                      output.o
read_gphys_w                                      output.o
read_hphys_b                                      output.o
read_hphys_l                                      output.o
read_hphys_q                                      output.o
read_hphys_w                                      output.o
read_linearaddr_b                                 output.o
read_linearaddr_l                                 output.o
read_linearaddr_q                                 output.o
read_linearaddr_tss                               output.o
read_linearaddr_w                                 output.o
readerState                                       output.o
readerTracker                                     output.o
realloc                                           output.o
reboot_test                                       output.o
register_status_callback                          output.o
resume_vm                                         output.o
ret_to_user32                                     output.o
ret_to_user64                                     output.o
ripemd160_block_data_order                        output.o
rsa_asn1_meths                                    output.o
rsa_pkey_meth                                     output.o
rt                                                output.o
s2i_ASN1_INTEGER                                  output.o
s2i_ASN1_OCTET_STRING                             output.o
sReaderContext                                    output.o
savemsr_index                                     output.o
savemsr_load                                      output.o
savemsr_save                                      output.o
scan_gframelist                                   output.o
schedule                                          output.o
security_storage_check_lba                        output.o
segment_init_ap                                   output.o
segment_wakeup                                    output.o
serial_getDebugChar                               output.o
serial_init_iohook                                output.o
serial_putDebugChar                               output.o
serial_putchar                                    output.o
sessionTable                                      output.o
set_int_handler                                   output.o
set_iofunc                                        output.o
setkbdled                                         output.o
shadow_and_activate_urb                           output.o
sig_app                                           output.o
sigx_app                                          output.o
sk_delete                                         output.o
sk_delete_ptr                                     output.o
sk_dup                                            output.o
sk_find                                           output.o
sk_find_ex                                        output.o
sk_free                                           output.o
sk_insert                                         output.o
sk_is_sorted                                      output.o
sk_new                                            output.o
sk_new_null                                       output.o
sk_num                                            output.o
sk_pop                                            output.o
sk_pop_free                                       output.o
sk_push                                           output.o
sk_set                                            output.o
sk_set_cmp_func                                   output.o
sk_shift                                          output.o
sk_sort                                           output.o
sk_unshift                                        output.o
sk_value                                          output.o
sk_zero                                           output.o
sleep_set_timer_counter                           output.o
slotFlag                                          output.o
slotTable                                         output.o
snprintf                                          output.o
start_all_processors                              output.o
storage_free                                      output.o
storage_get_num_hc                                output.o
storage_handle_sectors                            output.o
storage_hc_close                                  output.o
storage_hc_dev_atacommand                         output.o
storage_hc_dev_close                              output.o
storage_hc_dev_open                               output.o
storage_hc_hook_register                          output.o
storage_hc_hook_unregister                        output.o
storage_hc_open                                   output.o
storage_hc_register                               output.o
storage_hc_scandev                                output.o
storage_hc_unregister                             output.o
storage_init                                      output.o
storage_io_aget_size                              output.o
storage_io_aread                                  output.o
storage_io_awrite                                 output.o
storage_io_deinit                                 output.o
storage_io_get_num_devices                        output.o
storage_io_init                                   output.o
storage_new                                       output.o
storage_premap_buf                                output.o
storage_premap_handle_sectors                     output.o
strcmp                                            output.o
string_to_hex                                     output.o
strlen                                            output.o
svm_available                                     output.o
svm_enable_resume                                 output.o
svm_extern_iopass                                 output.o
svm_init                                          output.o
svm_init_signal                                   output.o
svm_ioio                                          output.o
svm_msr_update_lma                                output.o
svm_np_clear_all                                  output.o
svm_np_extern_mapsearch                           output.o
svm_np_init                                       output.o
svm_np_map_1mb                                    output.o
svm_np_pagefault                                  output.o
svm_np_tlbflush                                   output.o
svm_np_updatecr3                                  output.o
svm_paging_apply_fixed_cr0                        output.o
svm_paging_apply_fixed_cr4                        output.o
svm_paging_clear_all                              output.o
svm_paging_extern_flush_tlb_entry                 output.o
svm_paging_flush_guest_tlb                        output.o
svm_paging_get_gpat                               output.o
svm_paging_init                                   output.o
svm_paging_invalidate                             output.o
svm_paging_map_1mb                                output.o
svm_paging_npf                                    output.o
svm_paging_pagefault                              output.o
svm_paging_pg_change                              output.o
svm_paging_set_gpat                               output.o
svm_paging_spt_setcr3                             output.o
svm_paging_start                                  output.o
svm_paging_tlbflush                               output.o
svm_paging_updatecr3                              output.o
svm_panic_dump                                    output.o
svm_read_control_reg                              output.o
svm_read_flags                                    output.o
svm_read_gdtr                                     output.o
svm_read_general_reg                              output.o
svm_read_idtr                                     output.o
svm_read_ip                                       output.o
svm_read_msr                                      output.o
svm_read_sreg_acr                                 output.o
svm_read_sreg_base                                output.o
svm_read_sreg_limit                               output.o
svm_read_sreg_sel                                 output.o
svm_reset                                         output.o
svm_resume                                        output.o
svm_start_vm                                      output.o
svm_vmexit                                        output.o
svm_vminit                                        output.o
svm_write_control_reg                             output.o
svm_write_flags                                   output.o
svm_write_gdtr                                    output.o
svm_write_general_reg                             output.o
svm_write_idtr                                    output.o
svm_write_ip                                      output.o
svm_write_msr                                     output.o
svm_write_realmode_seg                            output.o
svm_writing_sreg                                  output.o
sx_handler                                        output.o
sym_to_phys                                       output.o
sync_all_processors                               output.o
sys_exitprocess                                   output.o
sys_msgclose                                      output.o
sys_msgopen                                       output.o
sys_msgregister                                   output.o
sys_msgret                                        output.o
sys_msgsendbuf                                    output.o
sys_msgsenddesc                                   output.o
sys_msgsendint                                    output.o
sys_msgsetfunc                                    output.o
sys_msgunregister                                 output.o
sys_newprocess                                    output.o
syscall_entry_lret                                output.o
syscall_entry_sysexit                             output.o
syscall_entry_sysret64                            output.o
tcg_measure                                       output.o
test_gpaToHPA                                     output.o
test_logicalCPUStatus                             output.o
test_start                                        output.o
test_traverseGuestPages                           output.o
thread_exit                                       output.o
thread_gettid                                     output.o
thread_new                                        output.o
thread_set_process_switch                         output.o
thread_start0                                     output.o
thread_start1                                     output.o
thread_switch                                     output.o
thread_wakeup                                     output.o
thread_will_stop                                  output.o
timer_free                                        output.o
timer_new                                         output.o
timer_set                                         output.o
traverseGuestPages                                output.o
traverseIA32ePDPT                                 output.o
traverseIA32ePDT                                  output.o
traverseIA32ePT                                   output.o
traverseIA32ePages                                output.o
tree_find_sk                                      output.o
tty_init_iohook                                   output.o
tty_putchar                                       output.o
tty_udp_register                                  output.o
ttylog_stop                                       output.o
uhci_activate_urb                                 output.o
uhci_check_advance                                output.o
uhci_check_urb_advance                            output.o
uhci_create_urb                                   output.o
uhci_current_frame_number                         output.o
uhci_deactivate_urb                               output.o
uhci_destroy_unlinked_urbs                        output.o
uhci_destroy_urb                                  output.o
uhci_dump_all                                     output.o
uhci_error_status_string                          output.o
uhci_framelist_monitor                            output.o
uhci_init                                         output.o
uhci_monitor_boost_hc                             output.o
uhci_reactivate_urb                               output.o
uhci_shadow_buffer                                output.o
uhci_submit_bulk                                  output.o
uhci_submit_control                               output.o
uhci_submit_interrupt                             output.o
unmapHPAintoHVA                                   output.o
unmapmem                                          output.o
update_mtrr_and_pat                               output.o
usb_bulk_read                                     output.o
usb_bulk_write                                    output.o
usb_busses_head                                   output.o
usb_claim_interface                               output.o
usb_clear_halt                                    output.o
usb_close                                         output.o
usb_control_msg                                   output.o
usb_find_busses                                   output.o
usb_find_devices                                  output.o
usb_get_bus                                       output.o
usb_get_busses                                    output.o
usb_get_descriptor                                output.o
usb_get_descriptor_by_endpoint                    output.o
usb_get_descriptor_early                          output.o
usb_get_string                                    output.o
usb_get_string_simple                             output.o
usb_hc_list_head                                  output.o
usb_hook_process                                  output.o
usb_hook_register                                 output.o
usb_hook_unregister                               output.o
usb_init                                          output.o
usb_init_device_monitor                           output.o
usb_interrupt_read                                output.o
usb_interrupt_write                               output.o
usb_log_level                                     output.o
usb_new_dev_handle                                output.o
usb_open                                          output.o
usb_register_host                                 output.o
usb_release_interface                             output.o
usb_reset                                         output.o
usb_resetep                                       output.o
usb_sc_lock                                       output.o
usb_sc_unlock                                     output.o
usb_set_altinterface                              output.o
usb_set_configuration                             output.o
usb_set_debug                                     output.o
usb_unregister_devices                            output.o
usbccid_init_handle                               output.o
usbhid_init_handle                                output.o
usbhub_init_handle                                output.o
usbmsc_init_handle                                output.o
use_pae                                           output.o
usleep                                            output.o
v2i_ASN1_BIT_STRING                               output.o
v2i_GENERAL_NAME                                  output.o
v2i_GENERAL_NAMES                                 output.o
v2i_GENERAL_NAME_ex                               output.o
v3_akey_id                                        output.o
v3_alt                                            output.o
v3_bcons                                          output.o
v3_cpols                                          output.o
v3_crl_hold                                       output.o
v3_crl_invdate                                    output.o
v3_crl_num                                        output.o
v3_crl_reason                                     output.o
v3_crld                                           output.o
v3_delta_crl                                      output.o
v3_ext_ku                                         output.o
v3_freshest_crl                                   output.o
v3_idp                                            output.o
v3_info                                           output.o
v3_inhibit_anyp                                   output.o
v3_key_usage                                      output.o
v3_name_constraints                               output.o
v3_ns_ia5_list                                    output.o
v3_nscert                                         output.o
v3_ocsp_accresp                                   output.o
v3_ocsp_acutoff                                   output.o
v3_ocsp_crlid                                     output.o
v3_ocsp_nocheck                                   output.o
v3_ocsp_nonce                                     output.o
v3_ocsp_serviceloc                                output.o
v3_pci                                            output.o
v3_pkey_usage_period                              output.o
v3_policy_constraints                             output.o
v3_policy_mappings                                output.o
v3_sinfo                                          output.o
v3_skey_id                                        output.o
v3_sxnet                                          output.o
vcpu_list_foreach                                 output.o
vga_fill_rect                                     output.o
vga_get_screen_size                               output.o
vga_is_ready                                      output.o
vga_register                                      output.o
vga_transfer_image                                output.o
vmctl_svm_init                                    output.o
vmctl_vt_init                                     output.o
vmm_base_cr3                                      output.o
vmm_main                                          output.o
vmm_pd                                            output.o
vmm_pd1                                           output.o
vmm_pd2                                           output.o
vmm_pdp                                           output.o
vmm_pml4                                          output.o
vmm_start_inf                                     output.o
vmm_term_inf                                      output.o
vmmcall                                           output.o
vmmcall_boot_continue                             output.o
vmmcall_boot_enable                               output.o
vmmcall_init                                      output.o
vmmcall_register                                  output.o
vmmsize                                           output.o
vpn_FreeTimer                                     output.o
vpn_GetCurrentCpuId                               output.o
vpn_GetPhysicalNicInfo                            output.o
vpn_GetTickCount                                  output.o
vpn_GetVirtualNicInfo                             output.o
vpn_NewTimer                                      output.o
vpn_SendPhysicalNic                               output.o
vpn_SendVirtualNic                                output.o
vpn_SetPhysicalNicRecvCallback                    output.o
vpn_SetTimer                                      output.o
vpn_SetVirtualNicRecvCallback                     output.o
vpn_ic_rsa_sign                                   output.o
vpn_new_nic                                       output.o
vpn_premap_PhysicalNicRecv                        output.o
vpn_premap_VirtualNicRecv                         output.o
vpn_premap_recvbuf                                output.o
vpn_start                                         output.o
vpn_user_init                                     output.o
vprintf                                           output.o
vramwrite_clearscreen                             output.o
vramwrite_exit_global                             output.o
vramwrite_get_cursor_pos                          output.o
vramwrite_init_global                             output.o
vramwrite_mark1                                   output.o
vramwrite_mark2                                   output.o
vramwrite_mark3                                   output.o
vramwrite_putchar                                 output.o
vramwrite_restore_cursor                          output.o
vramwrite_save_and_move_cursor                    output.o
vsnprintf                                         output.o
vt__vmx_init                                      output.o
vt__vmxon                                         output.o
vt_add_guest_msr                                  output.o
vt_available                                      output.o
vt_enable_resume                                  output.o
vt_ept_clear_all                                  output.o
vt_ept_extern_mapsearch                           output.o
vt_ept_init                                       output.o
vt_ept_map_1mb                                    output.o
vt_ept_tlbflush                                   output.o
vt_ept_updatecr3                                  output.o
vt_ept_violation                                  output.o
vt_extern_iopass                                  output.o
vt_generate_external_int                          output.o
vt_generate_pagefault                             output.o
vt_get_current_regs_in_vmcs                       output.o
vt_get_vmcs_regs_in_vmcs                          output.o
vt_init                                           output.o
vt_init_signal                                    output.o
vt_io                                             output.o
vt_iopass                                         output.o
vt_iopass_init                                    output.o
vt_msr_init                                       output.o
vt_msr_update_lma                                 output.o
vt_paging_apply_fixed_cr0                         output.o
vt_paging_apply_fixed_cr4                         output.o
vt_paging_clear_all                               output.o
vt_paging_extern_flush_tlb_entry                  output.o
vt_paging_flush_guest_tlb                         output.o
vt_paging_get_gpat                                output.o
vt_paging_init                                    output.o
vt_paging_invalidate                              output.o
vt_paging_map_1mb                                 output.o
vt_paging_npf                                     output.o
vt_paging_pagefault                               output.o
vt_paging_pg_change                               output.o
vt_paging_set_gpat                                output.o
vt_paging_spt_setcr3                              output.o
vt_paging_start                                   output.o
vt_paging_tlbflush                                output.o
vt_paging_updatecr3                               output.o
vt_panic_dump                                     output.o
vt_read_control_reg                               output.o
vt_read_flags                                     output.o
vt_read_gdtr                                      output.o
vt_read_general_reg                               output.o
vt_read_guest_msr                                 output.o
vt_read_idtr                                      output.o
vt_read_ip                                        output.o
vt_read_msr                                       output.o
vt_read_sreg_acr                                  output.o
vt_read_sreg_base                                 output.o
vt_read_sreg_limit                                output.o
vt_read_sreg_sel                                  output.o
vt_reset                                          output.o
vt_resume                                         output.o
vt_start_vm                                       output.o
vt_update_exception_bmp                           output.o
vt_vmexit                                         output.o
vt_vminit                                         output.o
vt_vmptrld                                        output.o
vt_write_control_reg                              output.o
vt_write_flags                                    output.o
vt_write_gdtr                                     output.o
vt_write_general_reg                              output.o
vt_write_guest_msr                                output.o
vt_write_idtr                                     output.o
vt_write_ip                                       output.o
vt_write_msr                                      output.o
vt_write_realmode_seg                             output.o
vt_writing_sreg                                   output.o
waitcycles                                        output.o
wakeup_cont                                       output.o
wakeup_entry_addr                                 output.o
wakeup_entry_cr0                                  output.o
wakeup_entry_cr3                                  output.o
wakeup_entry_cr4                                  output.o
wakeup_entry_end                                  output.o
wakeup_entry_gdtr                                 output.o
wakeup_entry_start                                output.o
wakeup_init                                       output.o
wakeup_main                                       output.o
whirlpool_block                                   output.o
write_gphys_b                                     output.o
write_gphys_l                                     output.o
write_gphys_q                                     output.o
write_gphys_w                                     output.o
write_hphys_b                                     output.o
write_hphys_l                                     output.o
write_hphys_q                                     output.o
write_hphys_w                                     output.o
write_linearaddr_b                                output.o
write_linearaddr_l                                output.o
write_linearaddr_ok_b                             output.o
write_linearaddr_ok_l                             output.o
write_linearaddr_ok_w                             output.o
write_linearaddr_q                                output.o
write_linearaddr_tss                              output.o
write_linearaddr_w                                output.o
x509_name_ff                                      output.o
